   1              		.cpu cortex-m4
   2              		.eabi_attribute 27, 1
   3              		.eabi_attribute 28, 1
   4              		.eabi_attribute 23, 1
   5              		.eabi_attribute 24, 1
   6              		.eabi_attribute 25, 1
   7              		.eabi_attribute 26, 1
   8              		.eabi_attribute 30, 6
   9              		.eabi_attribute 34, 1
  10              		.eabi_attribute 18, 4
  11              		.file	"stm32f4xx_hash_sha1.c"
  12              		.text
  13              	.Ltext0:
  14              		.cfi_sections	.debug_frame
  15              		.section	.text.HASH_SHA1,"ax",%progbits
  16              		.align	1
  17              		.global	HASH_SHA1
  18              		.syntax unified
  19              		.thumb
  20              		.thumb_func
  21              		.fpu fpv4-sp-d16
  23              	HASH_SHA1:
  24              	.LFB123:
  25              		.file 1 "/home/rdu/Workspace/project_templates/mcu/stm32_ws/src/libraries/STM32F4xx_StdPeriph_Driv
   1:/home/rdu/Workspace/project_templates/mcu/stm32_ws/src/libraries/STM32F4xx_StdPeriph_Driver/src/stm32f4xx_hash_sha1.c **** /**
   2:/home/rdu/Workspace/project_templates/mcu/stm32_ws/src/libraries/STM32F4xx_StdPeriph_Driver/src/stm32f4xx_hash_sha1.c ****   ******************************************************************************
   3:/home/rdu/Workspace/project_templates/mcu/stm32_ws/src/libraries/STM32F4xx_StdPeriph_Driver/src/stm32f4xx_hash_sha1.c ****   * @file    stm32f4xx_hash_sha1.c
   4:/home/rdu/Workspace/project_templates/mcu/stm32_ws/src/libraries/STM32F4xx_StdPeriph_Driver/src/stm32f4xx_hash_sha1.c ****   * @author  MCD Application Team
   5:/home/rdu/Workspace/project_templates/mcu/stm32_ws/src/libraries/STM32F4xx_StdPeriph_Driver/src/stm32f4xx_hash_sha1.c ****   * @version V1.8.0
   6:/home/rdu/Workspace/project_templates/mcu/stm32_ws/src/libraries/STM32F4xx_StdPeriph_Driver/src/stm32f4xx_hash_sha1.c ****   * @date    04-November-2016
   7:/home/rdu/Workspace/project_templates/mcu/stm32_ws/src/libraries/STM32F4xx_StdPeriph_Driver/src/stm32f4xx_hash_sha1.c ****   * @brief   This file provides high level functions to compute the HASH SHA1 and
   8:/home/rdu/Workspace/project_templates/mcu/stm32_ws/src/libraries/STM32F4xx_StdPeriph_Driver/src/stm32f4xx_hash_sha1.c ****   *          HMAC SHA1 Digest of an input message.
   9:/home/rdu/Workspace/project_templates/mcu/stm32_ws/src/libraries/STM32F4xx_StdPeriph_Driver/src/stm32f4xx_hash_sha1.c ****   *          It uses the stm32f4xx_hash.c/.h drivers to access the STM32F4xx HASH
  10:/home/rdu/Workspace/project_templates/mcu/stm32_ws/src/libraries/STM32F4xx_StdPeriph_Driver/src/stm32f4xx_hash_sha1.c ****   *          peripheral.
  11:/home/rdu/Workspace/project_templates/mcu/stm32_ws/src/libraries/STM32F4xx_StdPeriph_Driver/src/stm32f4xx_hash_sha1.c ****   *
  12:/home/rdu/Workspace/project_templates/mcu/stm32_ws/src/libraries/STM32F4xx_StdPeriph_Driver/src/stm32f4xx_hash_sha1.c **** @verbatim
  13:/home/rdu/Workspace/project_templates/mcu/stm32_ws/src/libraries/STM32F4xx_StdPeriph_Driver/src/stm32f4xx_hash_sha1.c ****  ===================================================================
  14:/home/rdu/Workspace/project_templates/mcu/stm32_ws/src/libraries/STM32F4xx_StdPeriph_Driver/src/stm32f4xx_hash_sha1.c ****                  ##### How to use this driver #####
  15:/home/rdu/Workspace/project_templates/mcu/stm32_ws/src/libraries/STM32F4xx_StdPeriph_Driver/src/stm32f4xx_hash_sha1.c ****  ===================================================================
  16:/home/rdu/Workspace/project_templates/mcu/stm32_ws/src/libraries/STM32F4xx_StdPeriph_Driver/src/stm32f4xx_hash_sha1.c ****  [..]
  17:/home/rdu/Workspace/project_templates/mcu/stm32_ws/src/libraries/STM32F4xx_StdPeriph_Driver/src/stm32f4xx_hash_sha1.c ****    (#) Enable The HASH controller clock using 
  18:/home/rdu/Workspace/project_templates/mcu/stm32_ws/src/libraries/STM32F4xx_StdPeriph_Driver/src/stm32f4xx_hash_sha1.c ****        RCC_AHB2PeriphClockCmd(RCC_AHB2Periph_HASH, ENABLE); function.
  19:/home/rdu/Workspace/project_templates/mcu/stm32_ws/src/libraries/STM32F4xx_StdPeriph_Driver/src/stm32f4xx_hash_sha1.c ****   
  20:/home/rdu/Workspace/project_templates/mcu/stm32_ws/src/libraries/STM32F4xx_StdPeriph_Driver/src/stm32f4xx_hash_sha1.c ****    (#) Calculate the HASH SHA1 Digest using HASH_SHA1() function.
  21:/home/rdu/Workspace/project_templates/mcu/stm32_ws/src/libraries/STM32F4xx_StdPeriph_Driver/src/stm32f4xx_hash_sha1.c ****   
  22:/home/rdu/Workspace/project_templates/mcu/stm32_ws/src/libraries/STM32F4xx_StdPeriph_Driver/src/stm32f4xx_hash_sha1.c ****    (#) Calculate the HMAC SHA1 Digest using HMAC_SHA1() function.
  23:/home/rdu/Workspace/project_templates/mcu/stm32_ws/src/libraries/STM32F4xx_StdPeriph_Driver/src/stm32f4xx_hash_sha1.c ****   
  24:/home/rdu/Workspace/project_templates/mcu/stm32_ws/src/libraries/STM32F4xx_StdPeriph_Driver/src/stm32f4xx_hash_sha1.c **** @endverbatim
  25:/home/rdu/Workspace/project_templates/mcu/stm32_ws/src/libraries/STM32F4xx_StdPeriph_Driver/src/stm32f4xx_hash_sha1.c ****   *
  26:/home/rdu/Workspace/project_templates/mcu/stm32_ws/src/libraries/STM32F4xx_StdPeriph_Driver/src/stm32f4xx_hash_sha1.c ****   ******************************************************************************
  27:/home/rdu/Workspace/project_templates/mcu/stm32_ws/src/libraries/STM32F4xx_StdPeriph_Driver/src/stm32f4xx_hash_sha1.c ****   * @attention
  28:/home/rdu/Workspace/project_templates/mcu/stm32_ws/src/libraries/STM32F4xx_StdPeriph_Driver/src/stm32f4xx_hash_sha1.c ****   *
  29:/home/rdu/Workspace/project_templates/mcu/stm32_ws/src/libraries/STM32F4xx_StdPeriph_Driver/src/stm32f4xx_hash_sha1.c ****   * <h2><center>&copy; COPYRIGHT 2016 STMicroelectronics</center></h2>
  30:/home/rdu/Workspace/project_templates/mcu/stm32_ws/src/libraries/STM32F4xx_StdPeriph_Driver/src/stm32f4xx_hash_sha1.c ****   *
  31:/home/rdu/Workspace/project_templates/mcu/stm32_ws/src/libraries/STM32F4xx_StdPeriph_Driver/src/stm32f4xx_hash_sha1.c ****   * Licensed under MCD-ST Liberty SW License Agreement V2, (the "License");
  32:/home/rdu/Workspace/project_templates/mcu/stm32_ws/src/libraries/STM32F4xx_StdPeriph_Driver/src/stm32f4xx_hash_sha1.c ****   * You may not use this file except in compliance with the License.
  33:/home/rdu/Workspace/project_templates/mcu/stm32_ws/src/libraries/STM32F4xx_StdPeriph_Driver/src/stm32f4xx_hash_sha1.c ****   * You may obtain a copy of the License at:
  34:/home/rdu/Workspace/project_templates/mcu/stm32_ws/src/libraries/STM32F4xx_StdPeriph_Driver/src/stm32f4xx_hash_sha1.c ****   *
  35:/home/rdu/Workspace/project_templates/mcu/stm32_ws/src/libraries/STM32F4xx_StdPeriph_Driver/src/stm32f4xx_hash_sha1.c ****   *        http://www.st.com/software_license_agreement_liberty_v2
  36:/home/rdu/Workspace/project_templates/mcu/stm32_ws/src/libraries/STM32F4xx_StdPeriph_Driver/src/stm32f4xx_hash_sha1.c ****   *
  37:/home/rdu/Workspace/project_templates/mcu/stm32_ws/src/libraries/STM32F4xx_StdPeriph_Driver/src/stm32f4xx_hash_sha1.c ****   * Unless required by applicable law or agreed to in writing, software 
  38:/home/rdu/Workspace/project_templates/mcu/stm32_ws/src/libraries/STM32F4xx_StdPeriph_Driver/src/stm32f4xx_hash_sha1.c ****   * distributed under the License is distributed on an "AS IS" BASIS, 
  39:/home/rdu/Workspace/project_templates/mcu/stm32_ws/src/libraries/STM32F4xx_StdPeriph_Driver/src/stm32f4xx_hash_sha1.c ****   * WITHOUT WARRANTIES OR CONDITIONS OF ANY KIND, either express or implied.
  40:/home/rdu/Workspace/project_templates/mcu/stm32_ws/src/libraries/STM32F4xx_StdPeriph_Driver/src/stm32f4xx_hash_sha1.c ****   * See the License for the specific language governing permissions and
  41:/home/rdu/Workspace/project_templates/mcu/stm32_ws/src/libraries/STM32F4xx_StdPeriph_Driver/src/stm32f4xx_hash_sha1.c ****   * limitations under the License.
  42:/home/rdu/Workspace/project_templates/mcu/stm32_ws/src/libraries/STM32F4xx_StdPeriph_Driver/src/stm32f4xx_hash_sha1.c ****   *
  43:/home/rdu/Workspace/project_templates/mcu/stm32_ws/src/libraries/STM32F4xx_StdPeriph_Driver/src/stm32f4xx_hash_sha1.c ****   ******************************************************************************
  44:/home/rdu/Workspace/project_templates/mcu/stm32_ws/src/libraries/STM32F4xx_StdPeriph_Driver/src/stm32f4xx_hash_sha1.c ****   */
  45:/home/rdu/Workspace/project_templates/mcu/stm32_ws/src/libraries/STM32F4xx_StdPeriph_Driver/src/stm32f4xx_hash_sha1.c **** 
  46:/home/rdu/Workspace/project_templates/mcu/stm32_ws/src/libraries/STM32F4xx_StdPeriph_Driver/src/stm32f4xx_hash_sha1.c **** /* Includes ------------------------------------------------------------------*/
  47:/home/rdu/Workspace/project_templates/mcu/stm32_ws/src/libraries/STM32F4xx_StdPeriph_Driver/src/stm32f4xx_hash_sha1.c **** #include "stm32f4xx_hash.h"
  48:/home/rdu/Workspace/project_templates/mcu/stm32_ws/src/libraries/STM32F4xx_StdPeriph_Driver/src/stm32f4xx_hash_sha1.c **** 
  49:/home/rdu/Workspace/project_templates/mcu/stm32_ws/src/libraries/STM32F4xx_StdPeriph_Driver/src/stm32f4xx_hash_sha1.c **** /** @addtogroup STM32F4xx_StdPeriph_Driver
  50:/home/rdu/Workspace/project_templates/mcu/stm32_ws/src/libraries/STM32F4xx_StdPeriph_Driver/src/stm32f4xx_hash_sha1.c ****   * @{
  51:/home/rdu/Workspace/project_templates/mcu/stm32_ws/src/libraries/STM32F4xx_StdPeriph_Driver/src/stm32f4xx_hash_sha1.c ****   */
  52:/home/rdu/Workspace/project_templates/mcu/stm32_ws/src/libraries/STM32F4xx_StdPeriph_Driver/src/stm32f4xx_hash_sha1.c **** 
  53:/home/rdu/Workspace/project_templates/mcu/stm32_ws/src/libraries/STM32F4xx_StdPeriph_Driver/src/stm32f4xx_hash_sha1.c **** /** @defgroup HASH 
  54:/home/rdu/Workspace/project_templates/mcu/stm32_ws/src/libraries/STM32F4xx_StdPeriph_Driver/src/stm32f4xx_hash_sha1.c ****   * @brief HASH driver modules
  55:/home/rdu/Workspace/project_templates/mcu/stm32_ws/src/libraries/STM32F4xx_StdPeriph_Driver/src/stm32f4xx_hash_sha1.c ****   * @{
  56:/home/rdu/Workspace/project_templates/mcu/stm32_ws/src/libraries/STM32F4xx_StdPeriph_Driver/src/stm32f4xx_hash_sha1.c ****   */
  57:/home/rdu/Workspace/project_templates/mcu/stm32_ws/src/libraries/STM32F4xx_StdPeriph_Driver/src/stm32f4xx_hash_sha1.c **** 
  58:/home/rdu/Workspace/project_templates/mcu/stm32_ws/src/libraries/STM32F4xx_StdPeriph_Driver/src/stm32f4xx_hash_sha1.c **** /* Private typedef -----------------------------------------------------------*/
  59:/home/rdu/Workspace/project_templates/mcu/stm32_ws/src/libraries/STM32F4xx_StdPeriph_Driver/src/stm32f4xx_hash_sha1.c **** /* Private define ------------------------------------------------------------*/
  60:/home/rdu/Workspace/project_templates/mcu/stm32_ws/src/libraries/STM32F4xx_StdPeriph_Driver/src/stm32f4xx_hash_sha1.c **** #define SHA1BUSY_TIMEOUT    ((uint32_t) 0x00010000)
  61:/home/rdu/Workspace/project_templates/mcu/stm32_ws/src/libraries/STM32F4xx_StdPeriph_Driver/src/stm32f4xx_hash_sha1.c **** 
  62:/home/rdu/Workspace/project_templates/mcu/stm32_ws/src/libraries/STM32F4xx_StdPeriph_Driver/src/stm32f4xx_hash_sha1.c **** /* Private macro -------------------------------------------------------------*/
  63:/home/rdu/Workspace/project_templates/mcu/stm32_ws/src/libraries/STM32F4xx_StdPeriph_Driver/src/stm32f4xx_hash_sha1.c **** /* Private variables ---------------------------------------------------------*/
  64:/home/rdu/Workspace/project_templates/mcu/stm32_ws/src/libraries/STM32F4xx_StdPeriph_Driver/src/stm32f4xx_hash_sha1.c **** /* Private function prototypes -----------------------------------------------*/
  65:/home/rdu/Workspace/project_templates/mcu/stm32_ws/src/libraries/STM32F4xx_StdPeriph_Driver/src/stm32f4xx_hash_sha1.c **** /* Private functions ---------------------------------------------------------*/
  66:/home/rdu/Workspace/project_templates/mcu/stm32_ws/src/libraries/STM32F4xx_StdPeriph_Driver/src/stm32f4xx_hash_sha1.c **** 
  67:/home/rdu/Workspace/project_templates/mcu/stm32_ws/src/libraries/STM32F4xx_StdPeriph_Driver/src/stm32f4xx_hash_sha1.c **** /** @defgroup HASH_Private_Functions
  68:/home/rdu/Workspace/project_templates/mcu/stm32_ws/src/libraries/STM32F4xx_StdPeriph_Driver/src/stm32f4xx_hash_sha1.c ****   * @{
  69:/home/rdu/Workspace/project_templates/mcu/stm32_ws/src/libraries/STM32F4xx_StdPeriph_Driver/src/stm32f4xx_hash_sha1.c ****   */ 
  70:/home/rdu/Workspace/project_templates/mcu/stm32_ws/src/libraries/STM32F4xx_StdPeriph_Driver/src/stm32f4xx_hash_sha1.c **** 
  71:/home/rdu/Workspace/project_templates/mcu/stm32_ws/src/libraries/STM32F4xx_StdPeriph_Driver/src/stm32f4xx_hash_sha1.c **** /** @defgroup HASH_Group6 High Level SHA1 functions
  72:/home/rdu/Workspace/project_templates/mcu/stm32_ws/src/libraries/STM32F4xx_StdPeriph_Driver/src/stm32f4xx_hash_sha1.c ****  *  @brief   High Level SHA1 Hash and HMAC functions 
  73:/home/rdu/Workspace/project_templates/mcu/stm32_ws/src/libraries/STM32F4xx_StdPeriph_Driver/src/stm32f4xx_hash_sha1.c ****  *
  74:/home/rdu/Workspace/project_templates/mcu/stm32_ws/src/libraries/STM32F4xx_StdPeriph_Driver/src/stm32f4xx_hash_sha1.c **** @verbatim   
  75:/home/rdu/Workspace/project_templates/mcu/stm32_ws/src/libraries/STM32F4xx_StdPeriph_Driver/src/stm32f4xx_hash_sha1.c ****  ===============================================================================
  76:/home/rdu/Workspace/project_templates/mcu/stm32_ws/src/libraries/STM32F4xx_StdPeriph_Driver/src/stm32f4xx_hash_sha1.c ****                ##### High Level SHA1 Hash and HMAC functions #####
  77:/home/rdu/Workspace/project_templates/mcu/stm32_ws/src/libraries/STM32F4xx_StdPeriph_Driver/src/stm32f4xx_hash_sha1.c ****  ===============================================================================
  78:/home/rdu/Workspace/project_templates/mcu/stm32_ws/src/libraries/STM32F4xx_StdPeriph_Driver/src/stm32f4xx_hash_sha1.c **** 
  79:/home/rdu/Workspace/project_templates/mcu/stm32_ws/src/libraries/STM32F4xx_StdPeriph_Driver/src/stm32f4xx_hash_sha1.c **** 
  80:/home/rdu/Workspace/project_templates/mcu/stm32_ws/src/libraries/STM32F4xx_StdPeriph_Driver/src/stm32f4xx_hash_sha1.c **** @endverbatim
  81:/home/rdu/Workspace/project_templates/mcu/stm32_ws/src/libraries/STM32F4xx_StdPeriph_Driver/src/stm32f4xx_hash_sha1.c ****   * @{
  82:/home/rdu/Workspace/project_templates/mcu/stm32_ws/src/libraries/STM32F4xx_StdPeriph_Driver/src/stm32f4xx_hash_sha1.c ****   */
  83:/home/rdu/Workspace/project_templates/mcu/stm32_ws/src/libraries/STM32F4xx_StdPeriph_Driver/src/stm32f4xx_hash_sha1.c **** 
  84:/home/rdu/Workspace/project_templates/mcu/stm32_ws/src/libraries/STM32F4xx_StdPeriph_Driver/src/stm32f4xx_hash_sha1.c **** /**
  85:/home/rdu/Workspace/project_templates/mcu/stm32_ws/src/libraries/STM32F4xx_StdPeriph_Driver/src/stm32f4xx_hash_sha1.c ****   * @brief  Compute the HASH SHA1 digest.
  86:/home/rdu/Workspace/project_templates/mcu/stm32_ws/src/libraries/STM32F4xx_StdPeriph_Driver/src/stm32f4xx_hash_sha1.c ****   * @param  Input: pointer to the Input buffer to be treated.
  87:/home/rdu/Workspace/project_templates/mcu/stm32_ws/src/libraries/STM32F4xx_StdPeriph_Driver/src/stm32f4xx_hash_sha1.c ****   * @param  Ilen: length of the Input buffer.
  88:/home/rdu/Workspace/project_templates/mcu/stm32_ws/src/libraries/STM32F4xx_StdPeriph_Driver/src/stm32f4xx_hash_sha1.c ****   * @param  Output: the returned digest
  89:/home/rdu/Workspace/project_templates/mcu/stm32_ws/src/libraries/STM32F4xx_StdPeriph_Driver/src/stm32f4xx_hash_sha1.c ****   * @retval An ErrorStatus enumeration value:
  90:/home/rdu/Workspace/project_templates/mcu/stm32_ws/src/libraries/STM32F4xx_StdPeriph_Driver/src/stm32f4xx_hash_sha1.c ****   *          - SUCCESS: digest computation done
  91:/home/rdu/Workspace/project_templates/mcu/stm32_ws/src/libraries/STM32F4xx_StdPeriph_Driver/src/stm32f4xx_hash_sha1.c ****   *          - ERROR: digest computation failed
  92:/home/rdu/Workspace/project_templates/mcu/stm32_ws/src/libraries/STM32F4xx_StdPeriph_Driver/src/stm32f4xx_hash_sha1.c ****   */
  93:/home/rdu/Workspace/project_templates/mcu/stm32_ws/src/libraries/STM32F4xx_StdPeriph_Driver/src/stm32f4xx_hash_sha1.c **** ErrorStatus HASH_SHA1(uint8_t *Input, uint32_t Ilen, uint8_t Output[20])
  94:/home/rdu/Workspace/project_templates/mcu/stm32_ws/src/libraries/STM32F4xx_StdPeriph_Driver/src/stm32f4xx_hash_sha1.c **** {
  26              		.loc 1 94 0
  27              		.cfi_startproc
  28              		@ args = 0, pretend = 0, frame = 112
  29              		@ frame_needed = 0, uses_anonymous_args = 0
  30 0000 00B5     		push	{lr}
  31              	.LCFI0:
  32              		.cfi_def_cfa_offset 4
  33              		.cfi_offset 14, -4
  34 0002 9DB0     		sub	sp, sp, #116
  35              	.LCFI1:
  36              		.cfi_def_cfa_offset 120
  37 0004 0390     		str	r0, [sp, #12]
  38 0006 0291     		str	r1, [sp, #8]
  39 0008 0192     		str	r2, [sp, #4]
  95:/home/rdu/Workspace/project_templates/mcu/stm32_ws/src/libraries/STM32F4xx_StdPeriph_Driver/src/stm32f4xx_hash_sha1.c ****   HASH_InitTypeDef SHA1_HASH_InitStructure;
  96:/home/rdu/Workspace/project_templates/mcu/stm32_ws/src/libraries/STM32F4xx_StdPeriph_Driver/src/stm32f4xx_hash_sha1.c ****   HASH_MsgDigest SHA1_MessageDigest;
  97:/home/rdu/Workspace/project_templates/mcu/stm32_ws/src/libraries/STM32F4xx_StdPeriph_Driver/src/stm32f4xx_hash_sha1.c ****   __IO uint16_t nbvalidbitsdata = 0;
  40              		.loc 1 97 0
  41 000a 0023     		movs	r3, #0
  42 000c ADF81630 		strh	r3, [sp, #22]	@ movhi
  98:/home/rdu/Workspace/project_templates/mcu/stm32_ws/src/libraries/STM32F4xx_StdPeriph_Driver/src/stm32f4xx_hash_sha1.c ****   uint32_t i = 0;
  43              		.loc 1 98 0
  44 0010 0023     		movs	r3, #0
  45 0012 1B93     		str	r3, [sp, #108]
  99:/home/rdu/Workspace/project_templates/mcu/stm32_ws/src/libraries/STM32F4xx_StdPeriph_Driver/src/stm32f4xx_hash_sha1.c ****   __IO uint32_t counter = 0;
  46              		.loc 1 99 0
  47 0014 0023     		movs	r3, #0
  48 0016 0493     		str	r3, [sp, #16]
 100:/home/rdu/Workspace/project_templates/mcu/stm32_ws/src/libraries/STM32F4xx_StdPeriph_Driver/src/stm32f4xx_hash_sha1.c ****   uint32_t busystatus = 0;
  49              		.loc 1 100 0
  50 0018 0023     		movs	r3, #0
  51 001a 1893     		str	r3, [sp, #96]
 101:/home/rdu/Workspace/project_templates/mcu/stm32_ws/src/libraries/STM32F4xx_StdPeriph_Driver/src/stm32f4xx_hash_sha1.c ****   ErrorStatus status = SUCCESS;
  52              		.loc 1 101 0
  53 001c 0123     		movs	r3, #1
  54 001e 8DF86B30 		strb	r3, [sp, #107]
 102:/home/rdu/Workspace/project_templates/mcu/stm32_ws/src/libraries/STM32F4xx_StdPeriph_Driver/src/stm32f4xx_hash_sha1.c ****   uint32_t inputaddr  = (uint32_t)Input;
  55              		.loc 1 102 0
  56 0022 039B     		ldr	r3, [sp, #12]
  57 0024 1993     		str	r3, [sp, #100]
 103:/home/rdu/Workspace/project_templates/mcu/stm32_ws/src/libraries/STM32F4xx_StdPeriph_Driver/src/stm32f4xx_hash_sha1.c ****   uint32_t outputaddr = (uint32_t)Output;
  58              		.loc 1 103 0
  59 0026 019B     		ldr	r3, [sp, #4]
  60 0028 1793     		str	r3, [sp, #92]
 104:/home/rdu/Workspace/project_templates/mcu/stm32_ws/src/libraries/STM32F4xx_StdPeriph_Driver/src/stm32f4xx_hash_sha1.c **** 
 105:/home/rdu/Workspace/project_templates/mcu/stm32_ws/src/libraries/STM32F4xx_StdPeriph_Driver/src/stm32f4xx_hash_sha1.c ****   /* Number of valid bits in last word of the Input data */
 106:/home/rdu/Workspace/project_templates/mcu/stm32_ws/src/libraries/STM32F4xx_StdPeriph_Driver/src/stm32f4xx_hash_sha1.c ****   nbvalidbitsdata = 8 * (Ilen % 4);
  61              		.loc 1 106 0
  62 002a 029B     		ldr	r3, [sp, #8]
  63 002c 9BB2     		uxth	r3, r3
  64 002e 03F00303 		and	r3, r3, #3
  65 0032 9BB2     		uxth	r3, r3
  66 0034 DB00     		lsls	r3, r3, #3
  67 0036 9BB2     		uxth	r3, r3
  68 0038 ADF81630 		strh	r3, [sp, #22]	@ movhi
 107:/home/rdu/Workspace/project_templates/mcu/stm32_ws/src/libraries/STM32F4xx_StdPeriph_Driver/src/stm32f4xx_hash_sha1.c **** 
 108:/home/rdu/Workspace/project_templates/mcu/stm32_ws/src/libraries/STM32F4xx_StdPeriph_Driver/src/stm32f4xx_hash_sha1.c ****   /* HASH peripheral initialization */
 109:/home/rdu/Workspace/project_templates/mcu/stm32_ws/src/libraries/STM32F4xx_StdPeriph_Driver/src/stm32f4xx_hash_sha1.c ****   HASH_DeInit();
  69              		.loc 1 109 0
  70 003c FFF7FEFF 		bl	HASH_DeInit
 110:/home/rdu/Workspace/project_templates/mcu/stm32_ws/src/libraries/STM32F4xx_StdPeriph_Driver/src/stm32f4xx_hash_sha1.c **** 
 111:/home/rdu/Workspace/project_templates/mcu/stm32_ws/src/libraries/STM32F4xx_StdPeriph_Driver/src/stm32f4xx_hash_sha1.c ****   /* HASH Configuration */
 112:/home/rdu/Workspace/project_templates/mcu/stm32_ws/src/libraries/STM32F4xx_StdPeriph_Driver/src/stm32f4xx_hash_sha1.c ****   SHA1_HASH_InitStructure.HASH_AlgoSelection = HASH_AlgoSelection_SHA1;
  71              		.loc 1 112 0
  72 0040 0023     		movs	r3, #0
  73 0042 0E93     		str	r3, [sp, #56]
 113:/home/rdu/Workspace/project_templates/mcu/stm32_ws/src/libraries/STM32F4xx_StdPeriph_Driver/src/stm32f4xx_hash_sha1.c ****   SHA1_HASH_InitStructure.HASH_AlgoMode = HASH_AlgoMode_HASH;
  74              		.loc 1 113 0
  75 0044 0023     		movs	r3, #0
  76 0046 0F93     		str	r3, [sp, #60]
 114:/home/rdu/Workspace/project_templates/mcu/stm32_ws/src/libraries/STM32F4xx_StdPeriph_Driver/src/stm32f4xx_hash_sha1.c ****   SHA1_HASH_InitStructure.HASH_DataType = HASH_DataType_8b;
  77              		.loc 1 114 0
  78 0048 2023     		movs	r3, #32
  79 004a 1093     		str	r3, [sp, #64]
 115:/home/rdu/Workspace/project_templates/mcu/stm32_ws/src/libraries/STM32F4xx_StdPeriph_Driver/src/stm32f4xx_hash_sha1.c ****   HASH_Init(&SHA1_HASH_InitStructure);
  80              		.loc 1 115 0
  81 004c 0EAB     		add	r3, sp, #56
  82 004e 1846     		mov	r0, r3
  83 0050 FFF7FEFF 		bl	HASH_Init
 116:/home/rdu/Workspace/project_templates/mcu/stm32_ws/src/libraries/STM32F4xx_StdPeriph_Driver/src/stm32f4xx_hash_sha1.c **** 
 117:/home/rdu/Workspace/project_templates/mcu/stm32_ws/src/libraries/STM32F4xx_StdPeriph_Driver/src/stm32f4xx_hash_sha1.c ****   /* Configure the number of valid bits in last word of the data */
 118:/home/rdu/Workspace/project_templates/mcu/stm32_ws/src/libraries/STM32F4xx_StdPeriph_Driver/src/stm32f4xx_hash_sha1.c ****   HASH_SetLastWordValidBitsNbr(nbvalidbitsdata);
  84              		.loc 1 118 0
  85 0054 BDF81630 		ldrh	r3, [sp, #22]	@ movhi
  86 0058 9BB2     		uxth	r3, r3
  87 005a 1846     		mov	r0, r3
  88 005c FFF7FEFF 		bl	HASH_SetLastWordValidBitsNbr
 119:/home/rdu/Workspace/project_templates/mcu/stm32_ws/src/libraries/STM32F4xx_StdPeriph_Driver/src/stm32f4xx_hash_sha1.c **** 
 120:/home/rdu/Workspace/project_templates/mcu/stm32_ws/src/libraries/STM32F4xx_StdPeriph_Driver/src/stm32f4xx_hash_sha1.c ****   /* Write the Input block in the IN FIFO */
 121:/home/rdu/Workspace/project_templates/mcu/stm32_ws/src/libraries/STM32F4xx_StdPeriph_Driver/src/stm32f4xx_hash_sha1.c ****   for(i=0; i<Ilen; i+=4)
  89              		.loc 1 121 0
  90 0060 0023     		movs	r3, #0
  91 0062 1B93     		str	r3, [sp, #108]
  92 0064 0AE0     		b	.L2
  93              	.L3:
 122:/home/rdu/Workspace/project_templates/mcu/stm32_ws/src/libraries/STM32F4xx_StdPeriph_Driver/src/stm32f4xx_hash_sha1.c ****   {
 123:/home/rdu/Workspace/project_templates/mcu/stm32_ws/src/libraries/STM32F4xx_StdPeriph_Driver/src/stm32f4xx_hash_sha1.c ****     HASH_DataIn(*(uint32_t*)inputaddr);
  94              		.loc 1 123 0 discriminator 3
  95 0066 199B     		ldr	r3, [sp, #100]
  96 0068 1B68     		ldr	r3, [r3]
  97 006a 1846     		mov	r0, r3
  98 006c FFF7FEFF 		bl	HASH_DataIn
 124:/home/rdu/Workspace/project_templates/mcu/stm32_ws/src/libraries/STM32F4xx_StdPeriph_Driver/src/stm32f4xx_hash_sha1.c ****     inputaddr+=4;
  99              		.loc 1 124 0 discriminator 3
 100 0070 199B     		ldr	r3, [sp, #100]
 101 0072 0433     		adds	r3, r3, #4
 102 0074 1993     		str	r3, [sp, #100]
 121:/home/rdu/Workspace/project_templates/mcu/stm32_ws/src/libraries/STM32F4xx_StdPeriph_Driver/src/stm32f4xx_hash_sha1.c ****   {
 103              		.loc 1 121 0 discriminator 3
 104 0076 1B9B     		ldr	r3, [sp, #108]
 105 0078 0433     		adds	r3, r3, #4
 106 007a 1B93     		str	r3, [sp, #108]
 107              	.L2:
 121:/home/rdu/Workspace/project_templates/mcu/stm32_ws/src/libraries/STM32F4xx_StdPeriph_Driver/src/stm32f4xx_hash_sha1.c ****   {
 108              		.loc 1 121 0 is_stmt 0 discriminator 1
 109 007c 1B9A     		ldr	r2, [sp, #108]
 110 007e 029B     		ldr	r3, [sp, #8]
 111 0080 9A42     		cmp	r2, r3
 112 0082 F0D3     		bcc	.L3
 125:/home/rdu/Workspace/project_templates/mcu/stm32_ws/src/libraries/STM32F4xx_StdPeriph_Driver/src/stm32f4xx_hash_sha1.c ****   }
 126:/home/rdu/Workspace/project_templates/mcu/stm32_ws/src/libraries/STM32F4xx_StdPeriph_Driver/src/stm32f4xx_hash_sha1.c **** 
 127:/home/rdu/Workspace/project_templates/mcu/stm32_ws/src/libraries/STM32F4xx_StdPeriph_Driver/src/stm32f4xx_hash_sha1.c ****   /* Start the HASH processor */
 128:/home/rdu/Workspace/project_templates/mcu/stm32_ws/src/libraries/STM32F4xx_StdPeriph_Driver/src/stm32f4xx_hash_sha1.c ****   HASH_StartDigest();
 113              		.loc 1 128 0 is_stmt 1
 114 0084 FFF7FEFF 		bl	HASH_StartDigest
 115              	.L5:
 129:/home/rdu/Workspace/project_templates/mcu/stm32_ws/src/libraries/STM32F4xx_StdPeriph_Driver/src/stm32f4xx_hash_sha1.c **** 
 130:/home/rdu/Workspace/project_templates/mcu/stm32_ws/src/libraries/STM32F4xx_StdPeriph_Driver/src/stm32f4xx_hash_sha1.c ****   /* wait until the Busy flag is RESET */
 131:/home/rdu/Workspace/project_templates/mcu/stm32_ws/src/libraries/STM32F4xx_StdPeriph_Driver/src/stm32f4xx_hash_sha1.c ****   do
 132:/home/rdu/Workspace/project_templates/mcu/stm32_ws/src/libraries/STM32F4xx_StdPeriph_Driver/src/stm32f4xx_hash_sha1.c ****   {
 133:/home/rdu/Workspace/project_templates/mcu/stm32_ws/src/libraries/STM32F4xx_StdPeriph_Driver/src/stm32f4xx_hash_sha1.c ****     busystatus = HASH_GetFlagStatus(HASH_FLAG_BUSY);
 116              		.loc 1 133 0 discriminator 2
 117 0088 0820     		movs	r0, #8
 118 008a FFF7FEFF 		bl	HASH_GetFlagStatus
 119 008e 0346     		mov	r3, r0
 120 0090 1893     		str	r3, [sp, #96]
 134:/home/rdu/Workspace/project_templates/mcu/stm32_ws/src/libraries/STM32F4xx_StdPeriph_Driver/src/stm32f4xx_hash_sha1.c ****     counter++;
 121              		.loc 1 134 0 discriminator 2
 122 0092 049B     		ldr	r3, [sp, #16]
 123 0094 0133     		adds	r3, r3, #1
 124 0096 0493     		str	r3, [sp, #16]
 135:/home/rdu/Workspace/project_templates/mcu/stm32_ws/src/libraries/STM32F4xx_StdPeriph_Driver/src/stm32f4xx_hash_sha1.c ****   }while ((counter != SHA1BUSY_TIMEOUT) && (busystatus != RESET));
 125              		.loc 1 135 0 discriminator 2
 126 0098 049B     		ldr	r3, [sp, #16]
 127 009a B3F5803F 		cmp	r3, #65536
 128 009e 02D0     		beq	.L4
 129              		.loc 1 135 0 is_stmt 0 discriminator 1
 130 00a0 189B     		ldr	r3, [sp, #96]
 131 00a2 002B     		cmp	r3, #0
 132 00a4 F0D1     		bne	.L5
 133              	.L4:
 136:/home/rdu/Workspace/project_templates/mcu/stm32_ws/src/libraries/STM32F4xx_StdPeriph_Driver/src/stm32f4xx_hash_sha1.c **** 
 137:/home/rdu/Workspace/project_templates/mcu/stm32_ws/src/libraries/STM32F4xx_StdPeriph_Driver/src/stm32f4xx_hash_sha1.c ****   if (busystatus != RESET)
 134              		.loc 1 137 0 is_stmt 1
 135 00a6 189B     		ldr	r3, [sp, #96]
 136 00a8 002B     		cmp	r3, #0
 137 00aa 03D0     		beq	.L6
 138:/home/rdu/Workspace/project_templates/mcu/stm32_ws/src/libraries/STM32F4xx_StdPeriph_Driver/src/stm32f4xx_hash_sha1.c ****   {
 139:/home/rdu/Workspace/project_templates/mcu/stm32_ws/src/libraries/STM32F4xx_StdPeriph_Driver/src/stm32f4xx_hash_sha1.c ****      status = ERROR;
 138              		.loc 1 139 0
 139 00ac 0023     		movs	r3, #0
 140 00ae 8DF86B30 		strb	r3, [sp, #107]
 141 00b2 2DE0     		b	.L7
 142              	.L6:
 140:/home/rdu/Workspace/project_templates/mcu/stm32_ws/src/libraries/STM32F4xx_StdPeriph_Driver/src/stm32f4xx_hash_sha1.c ****   }
 141:/home/rdu/Workspace/project_templates/mcu/stm32_ws/src/libraries/STM32F4xx_StdPeriph_Driver/src/stm32f4xx_hash_sha1.c ****   else
 142:/home/rdu/Workspace/project_templates/mcu/stm32_ws/src/libraries/STM32F4xx_StdPeriph_Driver/src/stm32f4xx_hash_sha1.c ****   {
 143:/home/rdu/Workspace/project_templates/mcu/stm32_ws/src/libraries/STM32F4xx_StdPeriph_Driver/src/stm32f4xx_hash_sha1.c ****     /* Read the message digest */
 144:/home/rdu/Workspace/project_templates/mcu/stm32_ws/src/libraries/STM32F4xx_StdPeriph_Driver/src/stm32f4xx_hash_sha1.c ****     HASH_GetDigest(&SHA1_MessageDigest);
 143              		.loc 1 144 0
 144 00b4 06AB     		add	r3, sp, #24
 145 00b6 1846     		mov	r0, r3
 146 00b8 FFF7FEFF 		bl	HASH_GetDigest
 145:/home/rdu/Workspace/project_templates/mcu/stm32_ws/src/libraries/STM32F4xx_StdPeriph_Driver/src/stm32f4xx_hash_sha1.c ****     *(uint32_t*)(outputaddr)  = __REV(SHA1_MessageDigest.Data[0]);
 147              		.loc 1 145 0
 148 00bc 069A     		ldr	r2, [sp, #24]
 149 00be 179B     		ldr	r3, [sp, #92]
 150 00c0 1292     		str	r2, [sp, #72]
 151              	.LBB22:
 152              	.LBB23:
 153              		.file 2 "/home/rdu/Workspace/project_templates/mcu/stm32_ws/src/libraries/CMSIS/CMSIS_STM32F4/Incl
   1:/home/rdu/Workspace/project_templates/mcu/stm32_ws/src/libraries/CMSIS/CMSIS_STM32F4/Include/core_cmInstr.h **** /**************************************************************************//**
   2:/home/rdu/Workspace/project_templates/mcu/stm32_ws/src/libraries/CMSIS/CMSIS_STM32F4/Include/core_cmInstr.h ****  * @file     core_cmInstr.h
   3:/home/rdu/Workspace/project_templates/mcu/stm32_ws/src/libraries/CMSIS/CMSIS_STM32F4/Include/core_cmInstr.h ****  * @brief    CMSIS Cortex-M Core Instruction Access Header File
   4:/home/rdu/Workspace/project_templates/mcu/stm32_ws/src/libraries/CMSIS/CMSIS_STM32F4/Include/core_cmInstr.h ****  * @version  V4.10
   5:/home/rdu/Workspace/project_templates/mcu/stm32_ws/src/libraries/CMSIS/CMSIS_STM32F4/Include/core_cmInstr.h ****  * @date     18. March 2015
   6:/home/rdu/Workspace/project_templates/mcu/stm32_ws/src/libraries/CMSIS/CMSIS_STM32F4/Include/core_cmInstr.h ****  *
   7:/home/rdu/Workspace/project_templates/mcu/stm32_ws/src/libraries/CMSIS/CMSIS_STM32F4/Include/core_cmInstr.h ****  * @note
   8:/home/rdu/Workspace/project_templates/mcu/stm32_ws/src/libraries/CMSIS/CMSIS_STM32F4/Include/core_cmInstr.h ****  *
   9:/home/rdu/Workspace/project_templates/mcu/stm32_ws/src/libraries/CMSIS/CMSIS_STM32F4/Include/core_cmInstr.h ****  ******************************************************************************/
  10:/home/rdu/Workspace/project_templates/mcu/stm32_ws/src/libraries/CMSIS/CMSIS_STM32F4/Include/core_cmInstr.h **** /* Copyright (c) 2009 - 2014 ARM LIMITED
  11:/home/rdu/Workspace/project_templates/mcu/stm32_ws/src/libraries/CMSIS/CMSIS_STM32F4/Include/core_cmInstr.h **** 
  12:/home/rdu/Workspace/project_templates/mcu/stm32_ws/src/libraries/CMSIS/CMSIS_STM32F4/Include/core_cmInstr.h ****    All rights reserved.
  13:/home/rdu/Workspace/project_templates/mcu/stm32_ws/src/libraries/CMSIS/CMSIS_STM32F4/Include/core_cmInstr.h ****    Redistribution and use in source and binary forms, with or without
  14:/home/rdu/Workspace/project_templates/mcu/stm32_ws/src/libraries/CMSIS/CMSIS_STM32F4/Include/core_cmInstr.h ****    modification, are permitted provided that the following conditions are met:
  15:/home/rdu/Workspace/project_templates/mcu/stm32_ws/src/libraries/CMSIS/CMSIS_STM32F4/Include/core_cmInstr.h ****    - Redistributions of source code must retain the above copyright
  16:/home/rdu/Workspace/project_templates/mcu/stm32_ws/src/libraries/CMSIS/CMSIS_STM32F4/Include/core_cmInstr.h ****      notice, this list of conditions and the following disclaimer.
  17:/home/rdu/Workspace/project_templates/mcu/stm32_ws/src/libraries/CMSIS/CMSIS_STM32F4/Include/core_cmInstr.h ****    - Redistributions in binary form must reproduce the above copyright
  18:/home/rdu/Workspace/project_templates/mcu/stm32_ws/src/libraries/CMSIS/CMSIS_STM32F4/Include/core_cmInstr.h ****      notice, this list of conditions and the following disclaimer in the
  19:/home/rdu/Workspace/project_templates/mcu/stm32_ws/src/libraries/CMSIS/CMSIS_STM32F4/Include/core_cmInstr.h ****      documentation and/or other materials provided with the distribution.
  20:/home/rdu/Workspace/project_templates/mcu/stm32_ws/src/libraries/CMSIS/CMSIS_STM32F4/Include/core_cmInstr.h ****    - Neither the name of ARM nor the names of its contributors may be used
  21:/home/rdu/Workspace/project_templates/mcu/stm32_ws/src/libraries/CMSIS/CMSIS_STM32F4/Include/core_cmInstr.h ****      to endorse or promote products derived from this software without
  22:/home/rdu/Workspace/project_templates/mcu/stm32_ws/src/libraries/CMSIS/CMSIS_STM32F4/Include/core_cmInstr.h ****      specific prior written permission.
  23:/home/rdu/Workspace/project_templates/mcu/stm32_ws/src/libraries/CMSIS/CMSIS_STM32F4/Include/core_cmInstr.h ****    *
  24:/home/rdu/Workspace/project_templates/mcu/stm32_ws/src/libraries/CMSIS/CMSIS_STM32F4/Include/core_cmInstr.h ****    THIS SOFTWARE IS PROVIDED BY THE COPYRIGHT HOLDERS AND CONTRIBUTORS "AS IS"
  25:/home/rdu/Workspace/project_templates/mcu/stm32_ws/src/libraries/CMSIS/CMSIS_STM32F4/Include/core_cmInstr.h ****    AND ANY EXPRESS OR IMPLIED WARRANTIES, INCLUDING, BUT NOT LIMITED TO, THE
  26:/home/rdu/Workspace/project_templates/mcu/stm32_ws/src/libraries/CMSIS/CMSIS_STM32F4/Include/core_cmInstr.h ****    IMPLIED WARRANTIES OF MERCHANTABILITY AND FITNESS FOR A PARTICULAR PURPOSE
  27:/home/rdu/Workspace/project_templates/mcu/stm32_ws/src/libraries/CMSIS/CMSIS_STM32F4/Include/core_cmInstr.h ****    ARE DISCLAIMED. IN NO EVENT SHALL COPYRIGHT HOLDERS AND CONTRIBUTORS BE
  28:/home/rdu/Workspace/project_templates/mcu/stm32_ws/src/libraries/CMSIS/CMSIS_STM32F4/Include/core_cmInstr.h ****    LIABLE FOR ANY DIRECT, INDIRECT, INCIDENTAL, SPECIAL, EXEMPLARY, OR
  29:/home/rdu/Workspace/project_templates/mcu/stm32_ws/src/libraries/CMSIS/CMSIS_STM32F4/Include/core_cmInstr.h ****    CONSEQUENTIAL DAMAGES (INCLUDING, BUT NOT LIMITED TO, PROCUREMENT OF
  30:/home/rdu/Workspace/project_templates/mcu/stm32_ws/src/libraries/CMSIS/CMSIS_STM32F4/Include/core_cmInstr.h ****    SUBSTITUTE GOODS OR SERVICES; LOSS OF USE, DATA, OR PROFITS; OR BUSINESS
  31:/home/rdu/Workspace/project_templates/mcu/stm32_ws/src/libraries/CMSIS/CMSIS_STM32F4/Include/core_cmInstr.h ****    INTERRUPTION) HOWEVER CAUSED AND ON ANY THEORY OF LIABILITY, WHETHER IN
  32:/home/rdu/Workspace/project_templates/mcu/stm32_ws/src/libraries/CMSIS/CMSIS_STM32F4/Include/core_cmInstr.h ****    CONTRACT, STRICT LIABILITY, OR TORT (INCLUDING NEGLIGENCE OR OTHERWISE)
  33:/home/rdu/Workspace/project_templates/mcu/stm32_ws/src/libraries/CMSIS/CMSIS_STM32F4/Include/core_cmInstr.h ****    ARISING IN ANY WAY OUT OF THE USE OF THIS SOFTWARE, EVEN IF ADVISED OF THE
  34:/home/rdu/Workspace/project_templates/mcu/stm32_ws/src/libraries/CMSIS/CMSIS_STM32F4/Include/core_cmInstr.h ****    POSSIBILITY OF SUCH DAMAGE.
  35:/home/rdu/Workspace/project_templates/mcu/stm32_ws/src/libraries/CMSIS/CMSIS_STM32F4/Include/core_cmInstr.h ****    ---------------------------------------------------------------------------*/
  36:/home/rdu/Workspace/project_templates/mcu/stm32_ws/src/libraries/CMSIS/CMSIS_STM32F4/Include/core_cmInstr.h **** 
  37:/home/rdu/Workspace/project_templates/mcu/stm32_ws/src/libraries/CMSIS/CMSIS_STM32F4/Include/core_cmInstr.h **** 
  38:/home/rdu/Workspace/project_templates/mcu/stm32_ws/src/libraries/CMSIS/CMSIS_STM32F4/Include/core_cmInstr.h **** #ifndef __CORE_CMINSTR_H
  39:/home/rdu/Workspace/project_templates/mcu/stm32_ws/src/libraries/CMSIS/CMSIS_STM32F4/Include/core_cmInstr.h **** #define __CORE_CMINSTR_H
  40:/home/rdu/Workspace/project_templates/mcu/stm32_ws/src/libraries/CMSIS/CMSIS_STM32F4/Include/core_cmInstr.h **** 
  41:/home/rdu/Workspace/project_templates/mcu/stm32_ws/src/libraries/CMSIS/CMSIS_STM32F4/Include/core_cmInstr.h **** 
  42:/home/rdu/Workspace/project_templates/mcu/stm32_ws/src/libraries/CMSIS/CMSIS_STM32F4/Include/core_cmInstr.h **** /* ##########################  Core Instruction Access  ######################### */
  43:/home/rdu/Workspace/project_templates/mcu/stm32_ws/src/libraries/CMSIS/CMSIS_STM32F4/Include/core_cmInstr.h **** /** \defgroup CMSIS_Core_InstructionInterface CMSIS Core Instruction Interface
  44:/home/rdu/Workspace/project_templates/mcu/stm32_ws/src/libraries/CMSIS/CMSIS_STM32F4/Include/core_cmInstr.h ****   Access to dedicated instructions
  45:/home/rdu/Workspace/project_templates/mcu/stm32_ws/src/libraries/CMSIS/CMSIS_STM32F4/Include/core_cmInstr.h ****   @{
  46:/home/rdu/Workspace/project_templates/mcu/stm32_ws/src/libraries/CMSIS/CMSIS_STM32F4/Include/core_cmInstr.h **** */
  47:/home/rdu/Workspace/project_templates/mcu/stm32_ws/src/libraries/CMSIS/CMSIS_STM32F4/Include/core_cmInstr.h **** 
  48:/home/rdu/Workspace/project_templates/mcu/stm32_ws/src/libraries/CMSIS/CMSIS_STM32F4/Include/core_cmInstr.h **** #if   defined ( __CC_ARM ) /*------------------RealView Compiler -----------------*/
  49:/home/rdu/Workspace/project_templates/mcu/stm32_ws/src/libraries/CMSIS/CMSIS_STM32F4/Include/core_cmInstr.h **** /* ARM armcc specific functions */
  50:/home/rdu/Workspace/project_templates/mcu/stm32_ws/src/libraries/CMSIS/CMSIS_STM32F4/Include/core_cmInstr.h **** 
  51:/home/rdu/Workspace/project_templates/mcu/stm32_ws/src/libraries/CMSIS/CMSIS_STM32F4/Include/core_cmInstr.h **** #if (__ARMCC_VERSION < 400677)
  52:/home/rdu/Workspace/project_templates/mcu/stm32_ws/src/libraries/CMSIS/CMSIS_STM32F4/Include/core_cmInstr.h ****   #error "Please use ARM Compiler Toolchain V4.0.677 or later!"
  53:/home/rdu/Workspace/project_templates/mcu/stm32_ws/src/libraries/CMSIS/CMSIS_STM32F4/Include/core_cmInstr.h **** #endif
  54:/home/rdu/Workspace/project_templates/mcu/stm32_ws/src/libraries/CMSIS/CMSIS_STM32F4/Include/core_cmInstr.h **** 
  55:/home/rdu/Workspace/project_templates/mcu/stm32_ws/src/libraries/CMSIS/CMSIS_STM32F4/Include/core_cmInstr.h **** 
  56:/home/rdu/Workspace/project_templates/mcu/stm32_ws/src/libraries/CMSIS/CMSIS_STM32F4/Include/core_cmInstr.h **** /** \brief  No Operation
  57:/home/rdu/Workspace/project_templates/mcu/stm32_ws/src/libraries/CMSIS/CMSIS_STM32F4/Include/core_cmInstr.h **** 
  58:/home/rdu/Workspace/project_templates/mcu/stm32_ws/src/libraries/CMSIS/CMSIS_STM32F4/Include/core_cmInstr.h ****     No Operation does nothing. This instruction can be used for code alignment purposes.
  59:/home/rdu/Workspace/project_templates/mcu/stm32_ws/src/libraries/CMSIS/CMSIS_STM32F4/Include/core_cmInstr.h ****  */
  60:/home/rdu/Workspace/project_templates/mcu/stm32_ws/src/libraries/CMSIS/CMSIS_STM32F4/Include/core_cmInstr.h **** #define __NOP                             __nop
  61:/home/rdu/Workspace/project_templates/mcu/stm32_ws/src/libraries/CMSIS/CMSIS_STM32F4/Include/core_cmInstr.h **** 
  62:/home/rdu/Workspace/project_templates/mcu/stm32_ws/src/libraries/CMSIS/CMSIS_STM32F4/Include/core_cmInstr.h **** 
  63:/home/rdu/Workspace/project_templates/mcu/stm32_ws/src/libraries/CMSIS/CMSIS_STM32F4/Include/core_cmInstr.h **** /** \brief  Wait For Interrupt
  64:/home/rdu/Workspace/project_templates/mcu/stm32_ws/src/libraries/CMSIS/CMSIS_STM32F4/Include/core_cmInstr.h **** 
  65:/home/rdu/Workspace/project_templates/mcu/stm32_ws/src/libraries/CMSIS/CMSIS_STM32F4/Include/core_cmInstr.h ****     Wait For Interrupt is a hint instruction that suspends execution
  66:/home/rdu/Workspace/project_templates/mcu/stm32_ws/src/libraries/CMSIS/CMSIS_STM32F4/Include/core_cmInstr.h ****     until one of a number of events occurs.
  67:/home/rdu/Workspace/project_templates/mcu/stm32_ws/src/libraries/CMSIS/CMSIS_STM32F4/Include/core_cmInstr.h ****  */
  68:/home/rdu/Workspace/project_templates/mcu/stm32_ws/src/libraries/CMSIS/CMSIS_STM32F4/Include/core_cmInstr.h **** #define __WFI                             __wfi
  69:/home/rdu/Workspace/project_templates/mcu/stm32_ws/src/libraries/CMSIS/CMSIS_STM32F4/Include/core_cmInstr.h **** 
  70:/home/rdu/Workspace/project_templates/mcu/stm32_ws/src/libraries/CMSIS/CMSIS_STM32F4/Include/core_cmInstr.h **** 
  71:/home/rdu/Workspace/project_templates/mcu/stm32_ws/src/libraries/CMSIS/CMSIS_STM32F4/Include/core_cmInstr.h **** /** \brief  Wait For Event
  72:/home/rdu/Workspace/project_templates/mcu/stm32_ws/src/libraries/CMSIS/CMSIS_STM32F4/Include/core_cmInstr.h **** 
  73:/home/rdu/Workspace/project_templates/mcu/stm32_ws/src/libraries/CMSIS/CMSIS_STM32F4/Include/core_cmInstr.h ****     Wait For Event is a hint instruction that permits the processor to enter
  74:/home/rdu/Workspace/project_templates/mcu/stm32_ws/src/libraries/CMSIS/CMSIS_STM32F4/Include/core_cmInstr.h ****     a low-power state until one of a number of events occurs.
  75:/home/rdu/Workspace/project_templates/mcu/stm32_ws/src/libraries/CMSIS/CMSIS_STM32F4/Include/core_cmInstr.h ****  */
  76:/home/rdu/Workspace/project_templates/mcu/stm32_ws/src/libraries/CMSIS/CMSIS_STM32F4/Include/core_cmInstr.h **** #define __WFE                             __wfe
  77:/home/rdu/Workspace/project_templates/mcu/stm32_ws/src/libraries/CMSIS/CMSIS_STM32F4/Include/core_cmInstr.h **** 
  78:/home/rdu/Workspace/project_templates/mcu/stm32_ws/src/libraries/CMSIS/CMSIS_STM32F4/Include/core_cmInstr.h **** 
  79:/home/rdu/Workspace/project_templates/mcu/stm32_ws/src/libraries/CMSIS/CMSIS_STM32F4/Include/core_cmInstr.h **** /** \brief  Send Event
  80:/home/rdu/Workspace/project_templates/mcu/stm32_ws/src/libraries/CMSIS/CMSIS_STM32F4/Include/core_cmInstr.h **** 
  81:/home/rdu/Workspace/project_templates/mcu/stm32_ws/src/libraries/CMSIS/CMSIS_STM32F4/Include/core_cmInstr.h ****     Send Event is a hint instruction. It causes an event to be signaled to the CPU.
  82:/home/rdu/Workspace/project_templates/mcu/stm32_ws/src/libraries/CMSIS/CMSIS_STM32F4/Include/core_cmInstr.h ****  */
  83:/home/rdu/Workspace/project_templates/mcu/stm32_ws/src/libraries/CMSIS/CMSIS_STM32F4/Include/core_cmInstr.h **** #define __SEV                             __sev
  84:/home/rdu/Workspace/project_templates/mcu/stm32_ws/src/libraries/CMSIS/CMSIS_STM32F4/Include/core_cmInstr.h **** 
  85:/home/rdu/Workspace/project_templates/mcu/stm32_ws/src/libraries/CMSIS/CMSIS_STM32F4/Include/core_cmInstr.h **** 
  86:/home/rdu/Workspace/project_templates/mcu/stm32_ws/src/libraries/CMSIS/CMSIS_STM32F4/Include/core_cmInstr.h **** /** \brief  Instruction Synchronization Barrier
  87:/home/rdu/Workspace/project_templates/mcu/stm32_ws/src/libraries/CMSIS/CMSIS_STM32F4/Include/core_cmInstr.h **** 
  88:/home/rdu/Workspace/project_templates/mcu/stm32_ws/src/libraries/CMSIS/CMSIS_STM32F4/Include/core_cmInstr.h ****     Instruction Synchronization Barrier flushes the pipeline in the processor,
  89:/home/rdu/Workspace/project_templates/mcu/stm32_ws/src/libraries/CMSIS/CMSIS_STM32F4/Include/core_cmInstr.h ****     so that all instructions following the ISB are fetched from cache or
  90:/home/rdu/Workspace/project_templates/mcu/stm32_ws/src/libraries/CMSIS/CMSIS_STM32F4/Include/core_cmInstr.h ****     memory, after the instruction has been completed.
  91:/home/rdu/Workspace/project_templates/mcu/stm32_ws/src/libraries/CMSIS/CMSIS_STM32F4/Include/core_cmInstr.h ****  */
  92:/home/rdu/Workspace/project_templates/mcu/stm32_ws/src/libraries/CMSIS/CMSIS_STM32F4/Include/core_cmInstr.h **** #define __ISB() do {\
  93:/home/rdu/Workspace/project_templates/mcu/stm32_ws/src/libraries/CMSIS/CMSIS_STM32F4/Include/core_cmInstr.h ****                    __schedule_barrier();\
  94:/home/rdu/Workspace/project_templates/mcu/stm32_ws/src/libraries/CMSIS/CMSIS_STM32F4/Include/core_cmInstr.h ****                    __isb(0xF);\
  95:/home/rdu/Workspace/project_templates/mcu/stm32_ws/src/libraries/CMSIS/CMSIS_STM32F4/Include/core_cmInstr.h ****                    __schedule_barrier();\
  96:/home/rdu/Workspace/project_templates/mcu/stm32_ws/src/libraries/CMSIS/CMSIS_STM32F4/Include/core_cmInstr.h ****                 } while (0)
  97:/home/rdu/Workspace/project_templates/mcu/stm32_ws/src/libraries/CMSIS/CMSIS_STM32F4/Include/core_cmInstr.h **** 
  98:/home/rdu/Workspace/project_templates/mcu/stm32_ws/src/libraries/CMSIS/CMSIS_STM32F4/Include/core_cmInstr.h **** /** \brief  Data Synchronization Barrier
  99:/home/rdu/Workspace/project_templates/mcu/stm32_ws/src/libraries/CMSIS/CMSIS_STM32F4/Include/core_cmInstr.h **** 
 100:/home/rdu/Workspace/project_templates/mcu/stm32_ws/src/libraries/CMSIS/CMSIS_STM32F4/Include/core_cmInstr.h ****     This function acts as a special kind of Data Memory Barrier.
 101:/home/rdu/Workspace/project_templates/mcu/stm32_ws/src/libraries/CMSIS/CMSIS_STM32F4/Include/core_cmInstr.h ****     It completes when all explicit memory accesses before this instruction complete.
 102:/home/rdu/Workspace/project_templates/mcu/stm32_ws/src/libraries/CMSIS/CMSIS_STM32F4/Include/core_cmInstr.h ****  */
 103:/home/rdu/Workspace/project_templates/mcu/stm32_ws/src/libraries/CMSIS/CMSIS_STM32F4/Include/core_cmInstr.h **** #define __DSB() do {\
 104:/home/rdu/Workspace/project_templates/mcu/stm32_ws/src/libraries/CMSIS/CMSIS_STM32F4/Include/core_cmInstr.h ****                    __schedule_barrier();\
 105:/home/rdu/Workspace/project_templates/mcu/stm32_ws/src/libraries/CMSIS/CMSIS_STM32F4/Include/core_cmInstr.h ****                    __dsb(0xF);\
 106:/home/rdu/Workspace/project_templates/mcu/stm32_ws/src/libraries/CMSIS/CMSIS_STM32F4/Include/core_cmInstr.h ****                    __schedule_barrier();\
 107:/home/rdu/Workspace/project_templates/mcu/stm32_ws/src/libraries/CMSIS/CMSIS_STM32F4/Include/core_cmInstr.h ****                 } while (0)
 108:/home/rdu/Workspace/project_templates/mcu/stm32_ws/src/libraries/CMSIS/CMSIS_STM32F4/Include/core_cmInstr.h **** 
 109:/home/rdu/Workspace/project_templates/mcu/stm32_ws/src/libraries/CMSIS/CMSIS_STM32F4/Include/core_cmInstr.h **** /** \brief  Data Memory Barrier
 110:/home/rdu/Workspace/project_templates/mcu/stm32_ws/src/libraries/CMSIS/CMSIS_STM32F4/Include/core_cmInstr.h **** 
 111:/home/rdu/Workspace/project_templates/mcu/stm32_ws/src/libraries/CMSIS/CMSIS_STM32F4/Include/core_cmInstr.h ****     This function ensures the apparent order of the explicit memory operations before
 112:/home/rdu/Workspace/project_templates/mcu/stm32_ws/src/libraries/CMSIS/CMSIS_STM32F4/Include/core_cmInstr.h ****     and after the instruction, without ensuring their completion.
 113:/home/rdu/Workspace/project_templates/mcu/stm32_ws/src/libraries/CMSIS/CMSIS_STM32F4/Include/core_cmInstr.h ****  */
 114:/home/rdu/Workspace/project_templates/mcu/stm32_ws/src/libraries/CMSIS/CMSIS_STM32F4/Include/core_cmInstr.h **** #define __DMB() do {\
 115:/home/rdu/Workspace/project_templates/mcu/stm32_ws/src/libraries/CMSIS/CMSIS_STM32F4/Include/core_cmInstr.h ****                    __schedule_barrier();\
 116:/home/rdu/Workspace/project_templates/mcu/stm32_ws/src/libraries/CMSIS/CMSIS_STM32F4/Include/core_cmInstr.h ****                    __dmb(0xF);\
 117:/home/rdu/Workspace/project_templates/mcu/stm32_ws/src/libraries/CMSIS/CMSIS_STM32F4/Include/core_cmInstr.h ****                    __schedule_barrier();\
 118:/home/rdu/Workspace/project_templates/mcu/stm32_ws/src/libraries/CMSIS/CMSIS_STM32F4/Include/core_cmInstr.h ****                 } while (0)
 119:/home/rdu/Workspace/project_templates/mcu/stm32_ws/src/libraries/CMSIS/CMSIS_STM32F4/Include/core_cmInstr.h **** 
 120:/home/rdu/Workspace/project_templates/mcu/stm32_ws/src/libraries/CMSIS/CMSIS_STM32F4/Include/core_cmInstr.h **** /** \brief  Reverse byte order (32 bit)
 121:/home/rdu/Workspace/project_templates/mcu/stm32_ws/src/libraries/CMSIS/CMSIS_STM32F4/Include/core_cmInstr.h **** 
 122:/home/rdu/Workspace/project_templates/mcu/stm32_ws/src/libraries/CMSIS/CMSIS_STM32F4/Include/core_cmInstr.h ****     This function reverses the byte order in integer value.
 123:/home/rdu/Workspace/project_templates/mcu/stm32_ws/src/libraries/CMSIS/CMSIS_STM32F4/Include/core_cmInstr.h **** 
 124:/home/rdu/Workspace/project_templates/mcu/stm32_ws/src/libraries/CMSIS/CMSIS_STM32F4/Include/core_cmInstr.h ****     \param [in]    value  Value to reverse
 125:/home/rdu/Workspace/project_templates/mcu/stm32_ws/src/libraries/CMSIS/CMSIS_STM32F4/Include/core_cmInstr.h ****     \return               Reversed value
 126:/home/rdu/Workspace/project_templates/mcu/stm32_ws/src/libraries/CMSIS/CMSIS_STM32F4/Include/core_cmInstr.h ****  */
 127:/home/rdu/Workspace/project_templates/mcu/stm32_ws/src/libraries/CMSIS/CMSIS_STM32F4/Include/core_cmInstr.h **** #define __REV                             __rev
 128:/home/rdu/Workspace/project_templates/mcu/stm32_ws/src/libraries/CMSIS/CMSIS_STM32F4/Include/core_cmInstr.h **** 
 129:/home/rdu/Workspace/project_templates/mcu/stm32_ws/src/libraries/CMSIS/CMSIS_STM32F4/Include/core_cmInstr.h **** 
 130:/home/rdu/Workspace/project_templates/mcu/stm32_ws/src/libraries/CMSIS/CMSIS_STM32F4/Include/core_cmInstr.h **** /** \brief  Reverse byte order (16 bit)
 131:/home/rdu/Workspace/project_templates/mcu/stm32_ws/src/libraries/CMSIS/CMSIS_STM32F4/Include/core_cmInstr.h **** 
 132:/home/rdu/Workspace/project_templates/mcu/stm32_ws/src/libraries/CMSIS/CMSIS_STM32F4/Include/core_cmInstr.h ****     This function reverses the byte order in two unsigned short values.
 133:/home/rdu/Workspace/project_templates/mcu/stm32_ws/src/libraries/CMSIS/CMSIS_STM32F4/Include/core_cmInstr.h **** 
 134:/home/rdu/Workspace/project_templates/mcu/stm32_ws/src/libraries/CMSIS/CMSIS_STM32F4/Include/core_cmInstr.h ****     \param [in]    value  Value to reverse
 135:/home/rdu/Workspace/project_templates/mcu/stm32_ws/src/libraries/CMSIS/CMSIS_STM32F4/Include/core_cmInstr.h ****     \return               Reversed value
 136:/home/rdu/Workspace/project_templates/mcu/stm32_ws/src/libraries/CMSIS/CMSIS_STM32F4/Include/core_cmInstr.h ****  */
 137:/home/rdu/Workspace/project_templates/mcu/stm32_ws/src/libraries/CMSIS/CMSIS_STM32F4/Include/core_cmInstr.h **** #ifndef __NO_EMBEDDED_ASM
 138:/home/rdu/Workspace/project_templates/mcu/stm32_ws/src/libraries/CMSIS/CMSIS_STM32F4/Include/core_cmInstr.h **** __attribute__((section(".rev16_text"))) __STATIC_INLINE __ASM uint32_t __REV16(uint32_t value)
 139:/home/rdu/Workspace/project_templates/mcu/stm32_ws/src/libraries/CMSIS/CMSIS_STM32F4/Include/core_cmInstr.h **** {
 140:/home/rdu/Workspace/project_templates/mcu/stm32_ws/src/libraries/CMSIS/CMSIS_STM32F4/Include/core_cmInstr.h ****   rev16 r0, r0
 141:/home/rdu/Workspace/project_templates/mcu/stm32_ws/src/libraries/CMSIS/CMSIS_STM32F4/Include/core_cmInstr.h ****   bx lr
 142:/home/rdu/Workspace/project_templates/mcu/stm32_ws/src/libraries/CMSIS/CMSIS_STM32F4/Include/core_cmInstr.h **** }
 143:/home/rdu/Workspace/project_templates/mcu/stm32_ws/src/libraries/CMSIS/CMSIS_STM32F4/Include/core_cmInstr.h **** #endif
 144:/home/rdu/Workspace/project_templates/mcu/stm32_ws/src/libraries/CMSIS/CMSIS_STM32F4/Include/core_cmInstr.h **** 
 145:/home/rdu/Workspace/project_templates/mcu/stm32_ws/src/libraries/CMSIS/CMSIS_STM32F4/Include/core_cmInstr.h **** /** \brief  Reverse byte order in signed short value
 146:/home/rdu/Workspace/project_templates/mcu/stm32_ws/src/libraries/CMSIS/CMSIS_STM32F4/Include/core_cmInstr.h **** 
 147:/home/rdu/Workspace/project_templates/mcu/stm32_ws/src/libraries/CMSIS/CMSIS_STM32F4/Include/core_cmInstr.h ****     This function reverses the byte order in a signed short value with sign extension to integer.
 148:/home/rdu/Workspace/project_templates/mcu/stm32_ws/src/libraries/CMSIS/CMSIS_STM32F4/Include/core_cmInstr.h **** 
 149:/home/rdu/Workspace/project_templates/mcu/stm32_ws/src/libraries/CMSIS/CMSIS_STM32F4/Include/core_cmInstr.h ****     \param [in]    value  Value to reverse
 150:/home/rdu/Workspace/project_templates/mcu/stm32_ws/src/libraries/CMSIS/CMSIS_STM32F4/Include/core_cmInstr.h ****     \return               Reversed value
 151:/home/rdu/Workspace/project_templates/mcu/stm32_ws/src/libraries/CMSIS/CMSIS_STM32F4/Include/core_cmInstr.h ****  */
 152:/home/rdu/Workspace/project_templates/mcu/stm32_ws/src/libraries/CMSIS/CMSIS_STM32F4/Include/core_cmInstr.h **** #ifndef __NO_EMBEDDED_ASM
 153:/home/rdu/Workspace/project_templates/mcu/stm32_ws/src/libraries/CMSIS/CMSIS_STM32F4/Include/core_cmInstr.h **** __attribute__((section(".revsh_text"))) __STATIC_INLINE __ASM int32_t __REVSH(int32_t value)
 154:/home/rdu/Workspace/project_templates/mcu/stm32_ws/src/libraries/CMSIS/CMSIS_STM32F4/Include/core_cmInstr.h **** {
 155:/home/rdu/Workspace/project_templates/mcu/stm32_ws/src/libraries/CMSIS/CMSIS_STM32F4/Include/core_cmInstr.h ****   revsh r0, r0
 156:/home/rdu/Workspace/project_templates/mcu/stm32_ws/src/libraries/CMSIS/CMSIS_STM32F4/Include/core_cmInstr.h ****   bx lr
 157:/home/rdu/Workspace/project_templates/mcu/stm32_ws/src/libraries/CMSIS/CMSIS_STM32F4/Include/core_cmInstr.h **** }
 158:/home/rdu/Workspace/project_templates/mcu/stm32_ws/src/libraries/CMSIS/CMSIS_STM32F4/Include/core_cmInstr.h **** #endif
 159:/home/rdu/Workspace/project_templates/mcu/stm32_ws/src/libraries/CMSIS/CMSIS_STM32F4/Include/core_cmInstr.h **** 
 160:/home/rdu/Workspace/project_templates/mcu/stm32_ws/src/libraries/CMSIS/CMSIS_STM32F4/Include/core_cmInstr.h **** 
 161:/home/rdu/Workspace/project_templates/mcu/stm32_ws/src/libraries/CMSIS/CMSIS_STM32F4/Include/core_cmInstr.h **** /** \brief  Rotate Right in unsigned value (32 bit)
 162:/home/rdu/Workspace/project_templates/mcu/stm32_ws/src/libraries/CMSIS/CMSIS_STM32F4/Include/core_cmInstr.h **** 
 163:/home/rdu/Workspace/project_templates/mcu/stm32_ws/src/libraries/CMSIS/CMSIS_STM32F4/Include/core_cmInstr.h ****     This function Rotate Right (immediate) provides the value of the contents of a register rotated
 164:/home/rdu/Workspace/project_templates/mcu/stm32_ws/src/libraries/CMSIS/CMSIS_STM32F4/Include/core_cmInstr.h **** 
 165:/home/rdu/Workspace/project_templates/mcu/stm32_ws/src/libraries/CMSIS/CMSIS_STM32F4/Include/core_cmInstr.h ****     \param [in]    value  Value to rotate
 166:/home/rdu/Workspace/project_templates/mcu/stm32_ws/src/libraries/CMSIS/CMSIS_STM32F4/Include/core_cmInstr.h ****     \param [in]    value  Number of Bits to rotate
 167:/home/rdu/Workspace/project_templates/mcu/stm32_ws/src/libraries/CMSIS/CMSIS_STM32F4/Include/core_cmInstr.h ****     \return               Rotated value
 168:/home/rdu/Workspace/project_templates/mcu/stm32_ws/src/libraries/CMSIS/CMSIS_STM32F4/Include/core_cmInstr.h ****  */
 169:/home/rdu/Workspace/project_templates/mcu/stm32_ws/src/libraries/CMSIS/CMSIS_STM32F4/Include/core_cmInstr.h **** #define __ROR                             __ror
 170:/home/rdu/Workspace/project_templates/mcu/stm32_ws/src/libraries/CMSIS/CMSIS_STM32F4/Include/core_cmInstr.h **** 
 171:/home/rdu/Workspace/project_templates/mcu/stm32_ws/src/libraries/CMSIS/CMSIS_STM32F4/Include/core_cmInstr.h **** 
 172:/home/rdu/Workspace/project_templates/mcu/stm32_ws/src/libraries/CMSIS/CMSIS_STM32F4/Include/core_cmInstr.h **** /** \brief  Breakpoint
 173:/home/rdu/Workspace/project_templates/mcu/stm32_ws/src/libraries/CMSIS/CMSIS_STM32F4/Include/core_cmInstr.h **** 
 174:/home/rdu/Workspace/project_templates/mcu/stm32_ws/src/libraries/CMSIS/CMSIS_STM32F4/Include/core_cmInstr.h ****     This function causes the processor to enter Debug state.
 175:/home/rdu/Workspace/project_templates/mcu/stm32_ws/src/libraries/CMSIS/CMSIS_STM32F4/Include/core_cmInstr.h ****     Debug tools can use this to investigate system state when the instruction at a particular addre
 176:/home/rdu/Workspace/project_templates/mcu/stm32_ws/src/libraries/CMSIS/CMSIS_STM32F4/Include/core_cmInstr.h **** 
 177:/home/rdu/Workspace/project_templates/mcu/stm32_ws/src/libraries/CMSIS/CMSIS_STM32F4/Include/core_cmInstr.h ****     \param [in]    value  is ignored by the processor.
 178:/home/rdu/Workspace/project_templates/mcu/stm32_ws/src/libraries/CMSIS/CMSIS_STM32F4/Include/core_cmInstr.h ****                    If required, a debugger can use it to store additional information about the bre
 179:/home/rdu/Workspace/project_templates/mcu/stm32_ws/src/libraries/CMSIS/CMSIS_STM32F4/Include/core_cmInstr.h ****  */
 180:/home/rdu/Workspace/project_templates/mcu/stm32_ws/src/libraries/CMSIS/CMSIS_STM32F4/Include/core_cmInstr.h **** #define __BKPT(value)                       __breakpoint(value)
 181:/home/rdu/Workspace/project_templates/mcu/stm32_ws/src/libraries/CMSIS/CMSIS_STM32F4/Include/core_cmInstr.h **** 
 182:/home/rdu/Workspace/project_templates/mcu/stm32_ws/src/libraries/CMSIS/CMSIS_STM32F4/Include/core_cmInstr.h **** 
 183:/home/rdu/Workspace/project_templates/mcu/stm32_ws/src/libraries/CMSIS/CMSIS_STM32F4/Include/core_cmInstr.h **** /** \brief  Reverse bit order of value
 184:/home/rdu/Workspace/project_templates/mcu/stm32_ws/src/libraries/CMSIS/CMSIS_STM32F4/Include/core_cmInstr.h **** 
 185:/home/rdu/Workspace/project_templates/mcu/stm32_ws/src/libraries/CMSIS/CMSIS_STM32F4/Include/core_cmInstr.h ****     This function reverses the bit order of the given value.
 186:/home/rdu/Workspace/project_templates/mcu/stm32_ws/src/libraries/CMSIS/CMSIS_STM32F4/Include/core_cmInstr.h **** 
 187:/home/rdu/Workspace/project_templates/mcu/stm32_ws/src/libraries/CMSIS/CMSIS_STM32F4/Include/core_cmInstr.h ****     \param [in]    value  Value to reverse
 188:/home/rdu/Workspace/project_templates/mcu/stm32_ws/src/libraries/CMSIS/CMSIS_STM32F4/Include/core_cmInstr.h ****     \return               Reversed value
 189:/home/rdu/Workspace/project_templates/mcu/stm32_ws/src/libraries/CMSIS/CMSIS_STM32F4/Include/core_cmInstr.h ****  */
 190:/home/rdu/Workspace/project_templates/mcu/stm32_ws/src/libraries/CMSIS/CMSIS_STM32F4/Include/core_cmInstr.h **** #if       (__CORTEX_M >= 0x03) || (__CORTEX_SC >= 300)
 191:/home/rdu/Workspace/project_templates/mcu/stm32_ws/src/libraries/CMSIS/CMSIS_STM32F4/Include/core_cmInstr.h ****   #define __RBIT                          __rbit
 192:/home/rdu/Workspace/project_templates/mcu/stm32_ws/src/libraries/CMSIS/CMSIS_STM32F4/Include/core_cmInstr.h **** #else
 193:/home/rdu/Workspace/project_templates/mcu/stm32_ws/src/libraries/CMSIS/CMSIS_STM32F4/Include/core_cmInstr.h **** __attribute__((always_inline)) __STATIC_INLINE uint32_t __RBIT(uint32_t value)
 194:/home/rdu/Workspace/project_templates/mcu/stm32_ws/src/libraries/CMSIS/CMSIS_STM32F4/Include/core_cmInstr.h **** {
 195:/home/rdu/Workspace/project_templates/mcu/stm32_ws/src/libraries/CMSIS/CMSIS_STM32F4/Include/core_cmInstr.h ****   uint32_t result;
 196:/home/rdu/Workspace/project_templates/mcu/stm32_ws/src/libraries/CMSIS/CMSIS_STM32F4/Include/core_cmInstr.h ****   int32_t s = 4 /*sizeof(v)*/ * 8 - 1; // extra shift needed at end
 197:/home/rdu/Workspace/project_templates/mcu/stm32_ws/src/libraries/CMSIS/CMSIS_STM32F4/Include/core_cmInstr.h **** 
 198:/home/rdu/Workspace/project_templates/mcu/stm32_ws/src/libraries/CMSIS/CMSIS_STM32F4/Include/core_cmInstr.h ****   result = value;                      // r will be reversed bits of v; first get LSB of v
 199:/home/rdu/Workspace/project_templates/mcu/stm32_ws/src/libraries/CMSIS/CMSIS_STM32F4/Include/core_cmInstr.h ****   for (value >>= 1; value; value >>= 1)
 200:/home/rdu/Workspace/project_templates/mcu/stm32_ws/src/libraries/CMSIS/CMSIS_STM32F4/Include/core_cmInstr.h ****   {
 201:/home/rdu/Workspace/project_templates/mcu/stm32_ws/src/libraries/CMSIS/CMSIS_STM32F4/Include/core_cmInstr.h ****     result <<= 1;
 202:/home/rdu/Workspace/project_templates/mcu/stm32_ws/src/libraries/CMSIS/CMSIS_STM32F4/Include/core_cmInstr.h ****     result |= value & 1;
 203:/home/rdu/Workspace/project_templates/mcu/stm32_ws/src/libraries/CMSIS/CMSIS_STM32F4/Include/core_cmInstr.h ****     s--;
 204:/home/rdu/Workspace/project_templates/mcu/stm32_ws/src/libraries/CMSIS/CMSIS_STM32F4/Include/core_cmInstr.h ****   }
 205:/home/rdu/Workspace/project_templates/mcu/stm32_ws/src/libraries/CMSIS/CMSIS_STM32F4/Include/core_cmInstr.h ****   result <<= s;                       // shift when v's highest bits are zero
 206:/home/rdu/Workspace/project_templates/mcu/stm32_ws/src/libraries/CMSIS/CMSIS_STM32F4/Include/core_cmInstr.h ****   return(result);
 207:/home/rdu/Workspace/project_templates/mcu/stm32_ws/src/libraries/CMSIS/CMSIS_STM32F4/Include/core_cmInstr.h **** }
 208:/home/rdu/Workspace/project_templates/mcu/stm32_ws/src/libraries/CMSIS/CMSIS_STM32F4/Include/core_cmInstr.h **** #endif
 209:/home/rdu/Workspace/project_templates/mcu/stm32_ws/src/libraries/CMSIS/CMSIS_STM32F4/Include/core_cmInstr.h **** 
 210:/home/rdu/Workspace/project_templates/mcu/stm32_ws/src/libraries/CMSIS/CMSIS_STM32F4/Include/core_cmInstr.h **** 
 211:/home/rdu/Workspace/project_templates/mcu/stm32_ws/src/libraries/CMSIS/CMSIS_STM32F4/Include/core_cmInstr.h **** /** \brief  Count leading zeros
 212:/home/rdu/Workspace/project_templates/mcu/stm32_ws/src/libraries/CMSIS/CMSIS_STM32F4/Include/core_cmInstr.h **** 
 213:/home/rdu/Workspace/project_templates/mcu/stm32_ws/src/libraries/CMSIS/CMSIS_STM32F4/Include/core_cmInstr.h ****     This function counts the number of leading zeros of a data value.
 214:/home/rdu/Workspace/project_templates/mcu/stm32_ws/src/libraries/CMSIS/CMSIS_STM32F4/Include/core_cmInstr.h **** 
 215:/home/rdu/Workspace/project_templates/mcu/stm32_ws/src/libraries/CMSIS/CMSIS_STM32F4/Include/core_cmInstr.h ****     \param [in]  value  Value to count the leading zeros
 216:/home/rdu/Workspace/project_templates/mcu/stm32_ws/src/libraries/CMSIS/CMSIS_STM32F4/Include/core_cmInstr.h ****     \return             number of leading zeros in value
 217:/home/rdu/Workspace/project_templates/mcu/stm32_ws/src/libraries/CMSIS/CMSIS_STM32F4/Include/core_cmInstr.h ****  */
 218:/home/rdu/Workspace/project_templates/mcu/stm32_ws/src/libraries/CMSIS/CMSIS_STM32F4/Include/core_cmInstr.h **** #define __CLZ                             __clz
 219:/home/rdu/Workspace/project_templates/mcu/stm32_ws/src/libraries/CMSIS/CMSIS_STM32F4/Include/core_cmInstr.h **** 
 220:/home/rdu/Workspace/project_templates/mcu/stm32_ws/src/libraries/CMSIS/CMSIS_STM32F4/Include/core_cmInstr.h **** 
 221:/home/rdu/Workspace/project_templates/mcu/stm32_ws/src/libraries/CMSIS/CMSIS_STM32F4/Include/core_cmInstr.h **** #if       (__CORTEX_M >= 0x03) || (__CORTEX_SC >= 300)
 222:/home/rdu/Workspace/project_templates/mcu/stm32_ws/src/libraries/CMSIS/CMSIS_STM32F4/Include/core_cmInstr.h **** 
 223:/home/rdu/Workspace/project_templates/mcu/stm32_ws/src/libraries/CMSIS/CMSIS_STM32F4/Include/core_cmInstr.h **** /** \brief  LDR Exclusive (8 bit)
 224:/home/rdu/Workspace/project_templates/mcu/stm32_ws/src/libraries/CMSIS/CMSIS_STM32F4/Include/core_cmInstr.h **** 
 225:/home/rdu/Workspace/project_templates/mcu/stm32_ws/src/libraries/CMSIS/CMSIS_STM32F4/Include/core_cmInstr.h ****     This function executes a exclusive LDR instruction for 8 bit value.
 226:/home/rdu/Workspace/project_templates/mcu/stm32_ws/src/libraries/CMSIS/CMSIS_STM32F4/Include/core_cmInstr.h **** 
 227:/home/rdu/Workspace/project_templates/mcu/stm32_ws/src/libraries/CMSIS/CMSIS_STM32F4/Include/core_cmInstr.h ****     \param [in]    ptr  Pointer to data
 228:/home/rdu/Workspace/project_templates/mcu/stm32_ws/src/libraries/CMSIS/CMSIS_STM32F4/Include/core_cmInstr.h ****     \return             value of type uint8_t at (*ptr)
 229:/home/rdu/Workspace/project_templates/mcu/stm32_ws/src/libraries/CMSIS/CMSIS_STM32F4/Include/core_cmInstr.h ****  */
 230:/home/rdu/Workspace/project_templates/mcu/stm32_ws/src/libraries/CMSIS/CMSIS_STM32F4/Include/core_cmInstr.h **** #define __LDREXB(ptr)                     ((uint8_t ) __ldrex(ptr))
 231:/home/rdu/Workspace/project_templates/mcu/stm32_ws/src/libraries/CMSIS/CMSIS_STM32F4/Include/core_cmInstr.h **** 
 232:/home/rdu/Workspace/project_templates/mcu/stm32_ws/src/libraries/CMSIS/CMSIS_STM32F4/Include/core_cmInstr.h **** 
 233:/home/rdu/Workspace/project_templates/mcu/stm32_ws/src/libraries/CMSIS/CMSIS_STM32F4/Include/core_cmInstr.h **** /** \brief  LDR Exclusive (16 bit)
 234:/home/rdu/Workspace/project_templates/mcu/stm32_ws/src/libraries/CMSIS/CMSIS_STM32F4/Include/core_cmInstr.h **** 
 235:/home/rdu/Workspace/project_templates/mcu/stm32_ws/src/libraries/CMSIS/CMSIS_STM32F4/Include/core_cmInstr.h ****     This function executes a exclusive LDR instruction for 16 bit values.
 236:/home/rdu/Workspace/project_templates/mcu/stm32_ws/src/libraries/CMSIS/CMSIS_STM32F4/Include/core_cmInstr.h **** 
 237:/home/rdu/Workspace/project_templates/mcu/stm32_ws/src/libraries/CMSIS/CMSIS_STM32F4/Include/core_cmInstr.h ****     \param [in]    ptr  Pointer to data
 238:/home/rdu/Workspace/project_templates/mcu/stm32_ws/src/libraries/CMSIS/CMSIS_STM32F4/Include/core_cmInstr.h ****     \return        value of type uint16_t at (*ptr)
 239:/home/rdu/Workspace/project_templates/mcu/stm32_ws/src/libraries/CMSIS/CMSIS_STM32F4/Include/core_cmInstr.h ****  */
 240:/home/rdu/Workspace/project_templates/mcu/stm32_ws/src/libraries/CMSIS/CMSIS_STM32F4/Include/core_cmInstr.h **** #define __LDREXH(ptr)                     ((uint16_t) __ldrex(ptr))
 241:/home/rdu/Workspace/project_templates/mcu/stm32_ws/src/libraries/CMSIS/CMSIS_STM32F4/Include/core_cmInstr.h **** 
 242:/home/rdu/Workspace/project_templates/mcu/stm32_ws/src/libraries/CMSIS/CMSIS_STM32F4/Include/core_cmInstr.h **** 
 243:/home/rdu/Workspace/project_templates/mcu/stm32_ws/src/libraries/CMSIS/CMSIS_STM32F4/Include/core_cmInstr.h **** /** \brief  LDR Exclusive (32 bit)
 244:/home/rdu/Workspace/project_templates/mcu/stm32_ws/src/libraries/CMSIS/CMSIS_STM32F4/Include/core_cmInstr.h **** 
 245:/home/rdu/Workspace/project_templates/mcu/stm32_ws/src/libraries/CMSIS/CMSIS_STM32F4/Include/core_cmInstr.h ****     This function executes a exclusive LDR instruction for 32 bit values.
 246:/home/rdu/Workspace/project_templates/mcu/stm32_ws/src/libraries/CMSIS/CMSIS_STM32F4/Include/core_cmInstr.h **** 
 247:/home/rdu/Workspace/project_templates/mcu/stm32_ws/src/libraries/CMSIS/CMSIS_STM32F4/Include/core_cmInstr.h ****     \param [in]    ptr  Pointer to data
 248:/home/rdu/Workspace/project_templates/mcu/stm32_ws/src/libraries/CMSIS/CMSIS_STM32F4/Include/core_cmInstr.h ****     \return        value of type uint32_t at (*ptr)
 249:/home/rdu/Workspace/project_templates/mcu/stm32_ws/src/libraries/CMSIS/CMSIS_STM32F4/Include/core_cmInstr.h ****  */
 250:/home/rdu/Workspace/project_templates/mcu/stm32_ws/src/libraries/CMSIS/CMSIS_STM32F4/Include/core_cmInstr.h **** #define __LDREXW(ptr)                     ((uint32_t ) __ldrex(ptr))
 251:/home/rdu/Workspace/project_templates/mcu/stm32_ws/src/libraries/CMSIS/CMSIS_STM32F4/Include/core_cmInstr.h **** 
 252:/home/rdu/Workspace/project_templates/mcu/stm32_ws/src/libraries/CMSIS/CMSIS_STM32F4/Include/core_cmInstr.h **** 
 253:/home/rdu/Workspace/project_templates/mcu/stm32_ws/src/libraries/CMSIS/CMSIS_STM32F4/Include/core_cmInstr.h **** /** \brief  STR Exclusive (8 bit)
 254:/home/rdu/Workspace/project_templates/mcu/stm32_ws/src/libraries/CMSIS/CMSIS_STM32F4/Include/core_cmInstr.h **** 
 255:/home/rdu/Workspace/project_templates/mcu/stm32_ws/src/libraries/CMSIS/CMSIS_STM32F4/Include/core_cmInstr.h ****     This function executes a exclusive STR instruction for 8 bit values.
 256:/home/rdu/Workspace/project_templates/mcu/stm32_ws/src/libraries/CMSIS/CMSIS_STM32F4/Include/core_cmInstr.h **** 
 257:/home/rdu/Workspace/project_templates/mcu/stm32_ws/src/libraries/CMSIS/CMSIS_STM32F4/Include/core_cmInstr.h ****     \param [in]  value  Value to store
 258:/home/rdu/Workspace/project_templates/mcu/stm32_ws/src/libraries/CMSIS/CMSIS_STM32F4/Include/core_cmInstr.h ****     \param [in]    ptr  Pointer to location
 259:/home/rdu/Workspace/project_templates/mcu/stm32_ws/src/libraries/CMSIS/CMSIS_STM32F4/Include/core_cmInstr.h ****     \return          0  Function succeeded
 260:/home/rdu/Workspace/project_templates/mcu/stm32_ws/src/libraries/CMSIS/CMSIS_STM32F4/Include/core_cmInstr.h ****     \return          1  Function failed
 261:/home/rdu/Workspace/project_templates/mcu/stm32_ws/src/libraries/CMSIS/CMSIS_STM32F4/Include/core_cmInstr.h ****  */
 262:/home/rdu/Workspace/project_templates/mcu/stm32_ws/src/libraries/CMSIS/CMSIS_STM32F4/Include/core_cmInstr.h **** #define __STREXB(value, ptr)              __strex(value, ptr)
 263:/home/rdu/Workspace/project_templates/mcu/stm32_ws/src/libraries/CMSIS/CMSIS_STM32F4/Include/core_cmInstr.h **** 
 264:/home/rdu/Workspace/project_templates/mcu/stm32_ws/src/libraries/CMSIS/CMSIS_STM32F4/Include/core_cmInstr.h **** 
 265:/home/rdu/Workspace/project_templates/mcu/stm32_ws/src/libraries/CMSIS/CMSIS_STM32F4/Include/core_cmInstr.h **** /** \brief  STR Exclusive (16 bit)
 266:/home/rdu/Workspace/project_templates/mcu/stm32_ws/src/libraries/CMSIS/CMSIS_STM32F4/Include/core_cmInstr.h **** 
 267:/home/rdu/Workspace/project_templates/mcu/stm32_ws/src/libraries/CMSIS/CMSIS_STM32F4/Include/core_cmInstr.h ****     This function executes a exclusive STR instruction for 16 bit values.
 268:/home/rdu/Workspace/project_templates/mcu/stm32_ws/src/libraries/CMSIS/CMSIS_STM32F4/Include/core_cmInstr.h **** 
 269:/home/rdu/Workspace/project_templates/mcu/stm32_ws/src/libraries/CMSIS/CMSIS_STM32F4/Include/core_cmInstr.h ****     \param [in]  value  Value to store
 270:/home/rdu/Workspace/project_templates/mcu/stm32_ws/src/libraries/CMSIS/CMSIS_STM32F4/Include/core_cmInstr.h ****     \param [in]    ptr  Pointer to location
 271:/home/rdu/Workspace/project_templates/mcu/stm32_ws/src/libraries/CMSIS/CMSIS_STM32F4/Include/core_cmInstr.h ****     \return          0  Function succeeded
 272:/home/rdu/Workspace/project_templates/mcu/stm32_ws/src/libraries/CMSIS/CMSIS_STM32F4/Include/core_cmInstr.h ****     \return          1  Function failed
 273:/home/rdu/Workspace/project_templates/mcu/stm32_ws/src/libraries/CMSIS/CMSIS_STM32F4/Include/core_cmInstr.h ****  */
 274:/home/rdu/Workspace/project_templates/mcu/stm32_ws/src/libraries/CMSIS/CMSIS_STM32F4/Include/core_cmInstr.h **** #define __STREXH(value, ptr)              __strex(value, ptr)
 275:/home/rdu/Workspace/project_templates/mcu/stm32_ws/src/libraries/CMSIS/CMSIS_STM32F4/Include/core_cmInstr.h **** 
 276:/home/rdu/Workspace/project_templates/mcu/stm32_ws/src/libraries/CMSIS/CMSIS_STM32F4/Include/core_cmInstr.h **** 
 277:/home/rdu/Workspace/project_templates/mcu/stm32_ws/src/libraries/CMSIS/CMSIS_STM32F4/Include/core_cmInstr.h **** /** \brief  STR Exclusive (32 bit)
 278:/home/rdu/Workspace/project_templates/mcu/stm32_ws/src/libraries/CMSIS/CMSIS_STM32F4/Include/core_cmInstr.h **** 
 279:/home/rdu/Workspace/project_templates/mcu/stm32_ws/src/libraries/CMSIS/CMSIS_STM32F4/Include/core_cmInstr.h ****     This function executes a exclusive STR instruction for 32 bit values.
 280:/home/rdu/Workspace/project_templates/mcu/stm32_ws/src/libraries/CMSIS/CMSIS_STM32F4/Include/core_cmInstr.h **** 
 281:/home/rdu/Workspace/project_templates/mcu/stm32_ws/src/libraries/CMSIS/CMSIS_STM32F4/Include/core_cmInstr.h ****     \param [in]  value  Value to store
 282:/home/rdu/Workspace/project_templates/mcu/stm32_ws/src/libraries/CMSIS/CMSIS_STM32F4/Include/core_cmInstr.h ****     \param [in]    ptr  Pointer to location
 283:/home/rdu/Workspace/project_templates/mcu/stm32_ws/src/libraries/CMSIS/CMSIS_STM32F4/Include/core_cmInstr.h ****     \return          0  Function succeeded
 284:/home/rdu/Workspace/project_templates/mcu/stm32_ws/src/libraries/CMSIS/CMSIS_STM32F4/Include/core_cmInstr.h ****     \return          1  Function failed
 285:/home/rdu/Workspace/project_templates/mcu/stm32_ws/src/libraries/CMSIS/CMSIS_STM32F4/Include/core_cmInstr.h ****  */
 286:/home/rdu/Workspace/project_templates/mcu/stm32_ws/src/libraries/CMSIS/CMSIS_STM32F4/Include/core_cmInstr.h **** #define __STREXW(value, ptr)              __strex(value, ptr)
 287:/home/rdu/Workspace/project_templates/mcu/stm32_ws/src/libraries/CMSIS/CMSIS_STM32F4/Include/core_cmInstr.h **** 
 288:/home/rdu/Workspace/project_templates/mcu/stm32_ws/src/libraries/CMSIS/CMSIS_STM32F4/Include/core_cmInstr.h **** 
 289:/home/rdu/Workspace/project_templates/mcu/stm32_ws/src/libraries/CMSIS/CMSIS_STM32F4/Include/core_cmInstr.h **** /** \brief  Remove the exclusive lock
 290:/home/rdu/Workspace/project_templates/mcu/stm32_ws/src/libraries/CMSIS/CMSIS_STM32F4/Include/core_cmInstr.h **** 
 291:/home/rdu/Workspace/project_templates/mcu/stm32_ws/src/libraries/CMSIS/CMSIS_STM32F4/Include/core_cmInstr.h ****     This function removes the exclusive lock which is created by LDREX.
 292:/home/rdu/Workspace/project_templates/mcu/stm32_ws/src/libraries/CMSIS/CMSIS_STM32F4/Include/core_cmInstr.h **** 
 293:/home/rdu/Workspace/project_templates/mcu/stm32_ws/src/libraries/CMSIS/CMSIS_STM32F4/Include/core_cmInstr.h ****  */
 294:/home/rdu/Workspace/project_templates/mcu/stm32_ws/src/libraries/CMSIS/CMSIS_STM32F4/Include/core_cmInstr.h **** #define __CLREX                           __clrex
 295:/home/rdu/Workspace/project_templates/mcu/stm32_ws/src/libraries/CMSIS/CMSIS_STM32F4/Include/core_cmInstr.h **** 
 296:/home/rdu/Workspace/project_templates/mcu/stm32_ws/src/libraries/CMSIS/CMSIS_STM32F4/Include/core_cmInstr.h **** 
 297:/home/rdu/Workspace/project_templates/mcu/stm32_ws/src/libraries/CMSIS/CMSIS_STM32F4/Include/core_cmInstr.h **** /** \brief  Signed Saturate
 298:/home/rdu/Workspace/project_templates/mcu/stm32_ws/src/libraries/CMSIS/CMSIS_STM32F4/Include/core_cmInstr.h **** 
 299:/home/rdu/Workspace/project_templates/mcu/stm32_ws/src/libraries/CMSIS/CMSIS_STM32F4/Include/core_cmInstr.h ****     This function saturates a signed value.
 300:/home/rdu/Workspace/project_templates/mcu/stm32_ws/src/libraries/CMSIS/CMSIS_STM32F4/Include/core_cmInstr.h **** 
 301:/home/rdu/Workspace/project_templates/mcu/stm32_ws/src/libraries/CMSIS/CMSIS_STM32F4/Include/core_cmInstr.h ****     \param [in]  value  Value to be saturated
 302:/home/rdu/Workspace/project_templates/mcu/stm32_ws/src/libraries/CMSIS/CMSIS_STM32F4/Include/core_cmInstr.h ****     \param [in]    sat  Bit position to saturate to (1..32)
 303:/home/rdu/Workspace/project_templates/mcu/stm32_ws/src/libraries/CMSIS/CMSIS_STM32F4/Include/core_cmInstr.h ****     \return             Saturated value
 304:/home/rdu/Workspace/project_templates/mcu/stm32_ws/src/libraries/CMSIS/CMSIS_STM32F4/Include/core_cmInstr.h ****  */
 305:/home/rdu/Workspace/project_templates/mcu/stm32_ws/src/libraries/CMSIS/CMSIS_STM32F4/Include/core_cmInstr.h **** #define __SSAT                            __ssat
 306:/home/rdu/Workspace/project_templates/mcu/stm32_ws/src/libraries/CMSIS/CMSIS_STM32F4/Include/core_cmInstr.h **** 
 307:/home/rdu/Workspace/project_templates/mcu/stm32_ws/src/libraries/CMSIS/CMSIS_STM32F4/Include/core_cmInstr.h **** 
 308:/home/rdu/Workspace/project_templates/mcu/stm32_ws/src/libraries/CMSIS/CMSIS_STM32F4/Include/core_cmInstr.h **** /** \brief  Unsigned Saturate
 309:/home/rdu/Workspace/project_templates/mcu/stm32_ws/src/libraries/CMSIS/CMSIS_STM32F4/Include/core_cmInstr.h **** 
 310:/home/rdu/Workspace/project_templates/mcu/stm32_ws/src/libraries/CMSIS/CMSIS_STM32F4/Include/core_cmInstr.h ****     This function saturates an unsigned value.
 311:/home/rdu/Workspace/project_templates/mcu/stm32_ws/src/libraries/CMSIS/CMSIS_STM32F4/Include/core_cmInstr.h **** 
 312:/home/rdu/Workspace/project_templates/mcu/stm32_ws/src/libraries/CMSIS/CMSIS_STM32F4/Include/core_cmInstr.h ****     \param [in]  value  Value to be saturated
 313:/home/rdu/Workspace/project_templates/mcu/stm32_ws/src/libraries/CMSIS/CMSIS_STM32F4/Include/core_cmInstr.h ****     \param [in]    sat  Bit position to saturate to (0..31)
 314:/home/rdu/Workspace/project_templates/mcu/stm32_ws/src/libraries/CMSIS/CMSIS_STM32F4/Include/core_cmInstr.h ****     \return             Saturated value
 315:/home/rdu/Workspace/project_templates/mcu/stm32_ws/src/libraries/CMSIS/CMSIS_STM32F4/Include/core_cmInstr.h ****  */
 316:/home/rdu/Workspace/project_templates/mcu/stm32_ws/src/libraries/CMSIS/CMSIS_STM32F4/Include/core_cmInstr.h **** #define __USAT                            __usat
 317:/home/rdu/Workspace/project_templates/mcu/stm32_ws/src/libraries/CMSIS/CMSIS_STM32F4/Include/core_cmInstr.h **** 
 318:/home/rdu/Workspace/project_templates/mcu/stm32_ws/src/libraries/CMSIS/CMSIS_STM32F4/Include/core_cmInstr.h **** 
 319:/home/rdu/Workspace/project_templates/mcu/stm32_ws/src/libraries/CMSIS/CMSIS_STM32F4/Include/core_cmInstr.h **** /** \brief  Rotate Right with Extend (32 bit)
 320:/home/rdu/Workspace/project_templates/mcu/stm32_ws/src/libraries/CMSIS/CMSIS_STM32F4/Include/core_cmInstr.h **** 
 321:/home/rdu/Workspace/project_templates/mcu/stm32_ws/src/libraries/CMSIS/CMSIS_STM32F4/Include/core_cmInstr.h ****     This function moves each bit of a bitstring right by one bit.
 322:/home/rdu/Workspace/project_templates/mcu/stm32_ws/src/libraries/CMSIS/CMSIS_STM32F4/Include/core_cmInstr.h ****     The carry input is shifted in at the left end of the bitstring.
 323:/home/rdu/Workspace/project_templates/mcu/stm32_ws/src/libraries/CMSIS/CMSIS_STM32F4/Include/core_cmInstr.h **** 
 324:/home/rdu/Workspace/project_templates/mcu/stm32_ws/src/libraries/CMSIS/CMSIS_STM32F4/Include/core_cmInstr.h ****     \param [in]    value  Value to rotate
 325:/home/rdu/Workspace/project_templates/mcu/stm32_ws/src/libraries/CMSIS/CMSIS_STM32F4/Include/core_cmInstr.h ****     \return               Rotated value
 326:/home/rdu/Workspace/project_templates/mcu/stm32_ws/src/libraries/CMSIS/CMSIS_STM32F4/Include/core_cmInstr.h ****  */
 327:/home/rdu/Workspace/project_templates/mcu/stm32_ws/src/libraries/CMSIS/CMSIS_STM32F4/Include/core_cmInstr.h **** #ifndef __NO_EMBEDDED_ASM
 328:/home/rdu/Workspace/project_templates/mcu/stm32_ws/src/libraries/CMSIS/CMSIS_STM32F4/Include/core_cmInstr.h **** __attribute__((section(".rrx_text"))) __STATIC_INLINE __ASM uint32_t __RRX(uint32_t value)
 329:/home/rdu/Workspace/project_templates/mcu/stm32_ws/src/libraries/CMSIS/CMSIS_STM32F4/Include/core_cmInstr.h **** {
 330:/home/rdu/Workspace/project_templates/mcu/stm32_ws/src/libraries/CMSIS/CMSIS_STM32F4/Include/core_cmInstr.h ****   rrx r0, r0
 331:/home/rdu/Workspace/project_templates/mcu/stm32_ws/src/libraries/CMSIS/CMSIS_STM32F4/Include/core_cmInstr.h ****   bx lr
 332:/home/rdu/Workspace/project_templates/mcu/stm32_ws/src/libraries/CMSIS/CMSIS_STM32F4/Include/core_cmInstr.h **** }
 333:/home/rdu/Workspace/project_templates/mcu/stm32_ws/src/libraries/CMSIS/CMSIS_STM32F4/Include/core_cmInstr.h **** #endif
 334:/home/rdu/Workspace/project_templates/mcu/stm32_ws/src/libraries/CMSIS/CMSIS_STM32F4/Include/core_cmInstr.h **** 
 335:/home/rdu/Workspace/project_templates/mcu/stm32_ws/src/libraries/CMSIS/CMSIS_STM32F4/Include/core_cmInstr.h **** 
 336:/home/rdu/Workspace/project_templates/mcu/stm32_ws/src/libraries/CMSIS/CMSIS_STM32F4/Include/core_cmInstr.h **** /** \brief  LDRT Unprivileged (8 bit)
 337:/home/rdu/Workspace/project_templates/mcu/stm32_ws/src/libraries/CMSIS/CMSIS_STM32F4/Include/core_cmInstr.h **** 
 338:/home/rdu/Workspace/project_templates/mcu/stm32_ws/src/libraries/CMSIS/CMSIS_STM32F4/Include/core_cmInstr.h ****     This function executes a Unprivileged LDRT instruction for 8 bit value.
 339:/home/rdu/Workspace/project_templates/mcu/stm32_ws/src/libraries/CMSIS/CMSIS_STM32F4/Include/core_cmInstr.h **** 
 340:/home/rdu/Workspace/project_templates/mcu/stm32_ws/src/libraries/CMSIS/CMSIS_STM32F4/Include/core_cmInstr.h ****     \param [in]    ptr  Pointer to data
 341:/home/rdu/Workspace/project_templates/mcu/stm32_ws/src/libraries/CMSIS/CMSIS_STM32F4/Include/core_cmInstr.h ****     \return             value of type uint8_t at (*ptr)
 342:/home/rdu/Workspace/project_templates/mcu/stm32_ws/src/libraries/CMSIS/CMSIS_STM32F4/Include/core_cmInstr.h ****  */
 343:/home/rdu/Workspace/project_templates/mcu/stm32_ws/src/libraries/CMSIS/CMSIS_STM32F4/Include/core_cmInstr.h **** #define __LDRBT(ptr)                      ((uint8_t )  __ldrt(ptr))
 344:/home/rdu/Workspace/project_templates/mcu/stm32_ws/src/libraries/CMSIS/CMSIS_STM32F4/Include/core_cmInstr.h **** 
 345:/home/rdu/Workspace/project_templates/mcu/stm32_ws/src/libraries/CMSIS/CMSIS_STM32F4/Include/core_cmInstr.h **** 
 346:/home/rdu/Workspace/project_templates/mcu/stm32_ws/src/libraries/CMSIS/CMSIS_STM32F4/Include/core_cmInstr.h **** /** \brief  LDRT Unprivileged (16 bit)
 347:/home/rdu/Workspace/project_templates/mcu/stm32_ws/src/libraries/CMSIS/CMSIS_STM32F4/Include/core_cmInstr.h **** 
 348:/home/rdu/Workspace/project_templates/mcu/stm32_ws/src/libraries/CMSIS/CMSIS_STM32F4/Include/core_cmInstr.h ****     This function executes a Unprivileged LDRT instruction for 16 bit values.
 349:/home/rdu/Workspace/project_templates/mcu/stm32_ws/src/libraries/CMSIS/CMSIS_STM32F4/Include/core_cmInstr.h **** 
 350:/home/rdu/Workspace/project_templates/mcu/stm32_ws/src/libraries/CMSIS/CMSIS_STM32F4/Include/core_cmInstr.h ****     \param [in]    ptr  Pointer to data
 351:/home/rdu/Workspace/project_templates/mcu/stm32_ws/src/libraries/CMSIS/CMSIS_STM32F4/Include/core_cmInstr.h ****     \return        value of type uint16_t at (*ptr)
 352:/home/rdu/Workspace/project_templates/mcu/stm32_ws/src/libraries/CMSIS/CMSIS_STM32F4/Include/core_cmInstr.h ****  */
 353:/home/rdu/Workspace/project_templates/mcu/stm32_ws/src/libraries/CMSIS/CMSIS_STM32F4/Include/core_cmInstr.h **** #define __LDRHT(ptr)                      ((uint16_t)  __ldrt(ptr))
 354:/home/rdu/Workspace/project_templates/mcu/stm32_ws/src/libraries/CMSIS/CMSIS_STM32F4/Include/core_cmInstr.h **** 
 355:/home/rdu/Workspace/project_templates/mcu/stm32_ws/src/libraries/CMSIS/CMSIS_STM32F4/Include/core_cmInstr.h **** 
 356:/home/rdu/Workspace/project_templates/mcu/stm32_ws/src/libraries/CMSIS/CMSIS_STM32F4/Include/core_cmInstr.h **** /** \brief  LDRT Unprivileged (32 bit)
 357:/home/rdu/Workspace/project_templates/mcu/stm32_ws/src/libraries/CMSIS/CMSIS_STM32F4/Include/core_cmInstr.h **** 
 358:/home/rdu/Workspace/project_templates/mcu/stm32_ws/src/libraries/CMSIS/CMSIS_STM32F4/Include/core_cmInstr.h ****     This function executes a Unprivileged LDRT instruction for 32 bit values.
 359:/home/rdu/Workspace/project_templates/mcu/stm32_ws/src/libraries/CMSIS/CMSIS_STM32F4/Include/core_cmInstr.h **** 
 360:/home/rdu/Workspace/project_templates/mcu/stm32_ws/src/libraries/CMSIS/CMSIS_STM32F4/Include/core_cmInstr.h ****     \param [in]    ptr  Pointer to data
 361:/home/rdu/Workspace/project_templates/mcu/stm32_ws/src/libraries/CMSIS/CMSIS_STM32F4/Include/core_cmInstr.h ****     \return        value of type uint32_t at (*ptr)
 362:/home/rdu/Workspace/project_templates/mcu/stm32_ws/src/libraries/CMSIS/CMSIS_STM32F4/Include/core_cmInstr.h ****  */
 363:/home/rdu/Workspace/project_templates/mcu/stm32_ws/src/libraries/CMSIS/CMSIS_STM32F4/Include/core_cmInstr.h **** #define __LDRT(ptr)                       ((uint32_t ) __ldrt(ptr))
 364:/home/rdu/Workspace/project_templates/mcu/stm32_ws/src/libraries/CMSIS/CMSIS_STM32F4/Include/core_cmInstr.h **** 
 365:/home/rdu/Workspace/project_templates/mcu/stm32_ws/src/libraries/CMSIS/CMSIS_STM32F4/Include/core_cmInstr.h **** 
 366:/home/rdu/Workspace/project_templates/mcu/stm32_ws/src/libraries/CMSIS/CMSIS_STM32F4/Include/core_cmInstr.h **** /** \brief  STRT Unprivileged (8 bit)
 367:/home/rdu/Workspace/project_templates/mcu/stm32_ws/src/libraries/CMSIS/CMSIS_STM32F4/Include/core_cmInstr.h **** 
 368:/home/rdu/Workspace/project_templates/mcu/stm32_ws/src/libraries/CMSIS/CMSIS_STM32F4/Include/core_cmInstr.h ****     This function executes a Unprivileged STRT instruction for 8 bit values.
 369:/home/rdu/Workspace/project_templates/mcu/stm32_ws/src/libraries/CMSIS/CMSIS_STM32F4/Include/core_cmInstr.h **** 
 370:/home/rdu/Workspace/project_templates/mcu/stm32_ws/src/libraries/CMSIS/CMSIS_STM32F4/Include/core_cmInstr.h ****     \param [in]  value  Value to store
 371:/home/rdu/Workspace/project_templates/mcu/stm32_ws/src/libraries/CMSIS/CMSIS_STM32F4/Include/core_cmInstr.h ****     \param [in]    ptr  Pointer to location
 372:/home/rdu/Workspace/project_templates/mcu/stm32_ws/src/libraries/CMSIS/CMSIS_STM32F4/Include/core_cmInstr.h ****  */
 373:/home/rdu/Workspace/project_templates/mcu/stm32_ws/src/libraries/CMSIS/CMSIS_STM32F4/Include/core_cmInstr.h **** #define __STRBT(value, ptr)               __strt(value, ptr)
 374:/home/rdu/Workspace/project_templates/mcu/stm32_ws/src/libraries/CMSIS/CMSIS_STM32F4/Include/core_cmInstr.h **** 
 375:/home/rdu/Workspace/project_templates/mcu/stm32_ws/src/libraries/CMSIS/CMSIS_STM32F4/Include/core_cmInstr.h **** 
 376:/home/rdu/Workspace/project_templates/mcu/stm32_ws/src/libraries/CMSIS/CMSIS_STM32F4/Include/core_cmInstr.h **** /** \brief  STRT Unprivileged (16 bit)
 377:/home/rdu/Workspace/project_templates/mcu/stm32_ws/src/libraries/CMSIS/CMSIS_STM32F4/Include/core_cmInstr.h **** 
 378:/home/rdu/Workspace/project_templates/mcu/stm32_ws/src/libraries/CMSIS/CMSIS_STM32F4/Include/core_cmInstr.h ****     This function executes a Unprivileged STRT instruction for 16 bit values.
 379:/home/rdu/Workspace/project_templates/mcu/stm32_ws/src/libraries/CMSIS/CMSIS_STM32F4/Include/core_cmInstr.h **** 
 380:/home/rdu/Workspace/project_templates/mcu/stm32_ws/src/libraries/CMSIS/CMSIS_STM32F4/Include/core_cmInstr.h ****     \param [in]  value  Value to store
 381:/home/rdu/Workspace/project_templates/mcu/stm32_ws/src/libraries/CMSIS/CMSIS_STM32F4/Include/core_cmInstr.h ****     \param [in]    ptr  Pointer to location
 382:/home/rdu/Workspace/project_templates/mcu/stm32_ws/src/libraries/CMSIS/CMSIS_STM32F4/Include/core_cmInstr.h ****  */
 383:/home/rdu/Workspace/project_templates/mcu/stm32_ws/src/libraries/CMSIS/CMSIS_STM32F4/Include/core_cmInstr.h **** #define __STRHT(value, ptr)               __strt(value, ptr)
 384:/home/rdu/Workspace/project_templates/mcu/stm32_ws/src/libraries/CMSIS/CMSIS_STM32F4/Include/core_cmInstr.h **** 
 385:/home/rdu/Workspace/project_templates/mcu/stm32_ws/src/libraries/CMSIS/CMSIS_STM32F4/Include/core_cmInstr.h **** 
 386:/home/rdu/Workspace/project_templates/mcu/stm32_ws/src/libraries/CMSIS/CMSIS_STM32F4/Include/core_cmInstr.h **** /** \brief  STRT Unprivileged (32 bit)
 387:/home/rdu/Workspace/project_templates/mcu/stm32_ws/src/libraries/CMSIS/CMSIS_STM32F4/Include/core_cmInstr.h **** 
 388:/home/rdu/Workspace/project_templates/mcu/stm32_ws/src/libraries/CMSIS/CMSIS_STM32F4/Include/core_cmInstr.h ****     This function executes a Unprivileged STRT instruction for 32 bit values.
 389:/home/rdu/Workspace/project_templates/mcu/stm32_ws/src/libraries/CMSIS/CMSIS_STM32F4/Include/core_cmInstr.h **** 
 390:/home/rdu/Workspace/project_templates/mcu/stm32_ws/src/libraries/CMSIS/CMSIS_STM32F4/Include/core_cmInstr.h ****     \param [in]  value  Value to store
 391:/home/rdu/Workspace/project_templates/mcu/stm32_ws/src/libraries/CMSIS/CMSIS_STM32F4/Include/core_cmInstr.h ****     \param [in]    ptr  Pointer to location
 392:/home/rdu/Workspace/project_templates/mcu/stm32_ws/src/libraries/CMSIS/CMSIS_STM32F4/Include/core_cmInstr.h ****  */
 393:/home/rdu/Workspace/project_templates/mcu/stm32_ws/src/libraries/CMSIS/CMSIS_STM32F4/Include/core_cmInstr.h **** #define __STRT(value, ptr)                __strt(value, ptr)
 394:/home/rdu/Workspace/project_templates/mcu/stm32_ws/src/libraries/CMSIS/CMSIS_STM32F4/Include/core_cmInstr.h **** 
 395:/home/rdu/Workspace/project_templates/mcu/stm32_ws/src/libraries/CMSIS/CMSIS_STM32F4/Include/core_cmInstr.h **** #endif /* (__CORTEX_M >= 0x03) || (__CORTEX_SC >= 300) */
 396:/home/rdu/Workspace/project_templates/mcu/stm32_ws/src/libraries/CMSIS/CMSIS_STM32F4/Include/core_cmInstr.h **** 
 397:/home/rdu/Workspace/project_templates/mcu/stm32_ws/src/libraries/CMSIS/CMSIS_STM32F4/Include/core_cmInstr.h **** 
 398:/home/rdu/Workspace/project_templates/mcu/stm32_ws/src/libraries/CMSIS/CMSIS_STM32F4/Include/core_cmInstr.h **** #elif defined ( __GNUC__ ) /*------------------ GNU Compiler ---------------------*/
 399:/home/rdu/Workspace/project_templates/mcu/stm32_ws/src/libraries/CMSIS/CMSIS_STM32F4/Include/core_cmInstr.h **** /* GNU gcc specific functions */
 400:/home/rdu/Workspace/project_templates/mcu/stm32_ws/src/libraries/CMSIS/CMSIS_STM32F4/Include/core_cmInstr.h **** 
 401:/home/rdu/Workspace/project_templates/mcu/stm32_ws/src/libraries/CMSIS/CMSIS_STM32F4/Include/core_cmInstr.h **** /* Define macros for porting to both thumb1 and thumb2.
 402:/home/rdu/Workspace/project_templates/mcu/stm32_ws/src/libraries/CMSIS/CMSIS_STM32F4/Include/core_cmInstr.h ****  * For thumb1, use low register (r0-r7), specified by constrant "l"
 403:/home/rdu/Workspace/project_templates/mcu/stm32_ws/src/libraries/CMSIS/CMSIS_STM32F4/Include/core_cmInstr.h ****  * Otherwise, use general registers, specified by constrant "r" */
 404:/home/rdu/Workspace/project_templates/mcu/stm32_ws/src/libraries/CMSIS/CMSIS_STM32F4/Include/core_cmInstr.h **** #if defined (__thumb__) && !defined (__thumb2__)
 405:/home/rdu/Workspace/project_templates/mcu/stm32_ws/src/libraries/CMSIS/CMSIS_STM32F4/Include/core_cmInstr.h **** #define __CMSIS_GCC_OUT_REG(r) "=l" (r)
 406:/home/rdu/Workspace/project_templates/mcu/stm32_ws/src/libraries/CMSIS/CMSIS_STM32F4/Include/core_cmInstr.h **** #define __CMSIS_GCC_USE_REG(r) "l" (r)
 407:/home/rdu/Workspace/project_templates/mcu/stm32_ws/src/libraries/CMSIS/CMSIS_STM32F4/Include/core_cmInstr.h **** #else
 408:/home/rdu/Workspace/project_templates/mcu/stm32_ws/src/libraries/CMSIS/CMSIS_STM32F4/Include/core_cmInstr.h **** #define __CMSIS_GCC_OUT_REG(r) "=r" (r)
 409:/home/rdu/Workspace/project_templates/mcu/stm32_ws/src/libraries/CMSIS/CMSIS_STM32F4/Include/core_cmInstr.h **** #define __CMSIS_GCC_USE_REG(r) "r" (r)
 410:/home/rdu/Workspace/project_templates/mcu/stm32_ws/src/libraries/CMSIS/CMSIS_STM32F4/Include/core_cmInstr.h **** #endif
 411:/home/rdu/Workspace/project_templates/mcu/stm32_ws/src/libraries/CMSIS/CMSIS_STM32F4/Include/core_cmInstr.h **** 
 412:/home/rdu/Workspace/project_templates/mcu/stm32_ws/src/libraries/CMSIS/CMSIS_STM32F4/Include/core_cmInstr.h **** /** \brief  No Operation
 413:/home/rdu/Workspace/project_templates/mcu/stm32_ws/src/libraries/CMSIS/CMSIS_STM32F4/Include/core_cmInstr.h **** 
 414:/home/rdu/Workspace/project_templates/mcu/stm32_ws/src/libraries/CMSIS/CMSIS_STM32F4/Include/core_cmInstr.h ****     No Operation does nothing. This instruction can be used for code alignment purposes.
 415:/home/rdu/Workspace/project_templates/mcu/stm32_ws/src/libraries/CMSIS/CMSIS_STM32F4/Include/core_cmInstr.h ****  */
 416:/home/rdu/Workspace/project_templates/mcu/stm32_ws/src/libraries/CMSIS/CMSIS_STM32F4/Include/core_cmInstr.h **** __attribute__((always_inline)) __STATIC_INLINE void __NOP(void)
 417:/home/rdu/Workspace/project_templates/mcu/stm32_ws/src/libraries/CMSIS/CMSIS_STM32F4/Include/core_cmInstr.h **** {
 418:/home/rdu/Workspace/project_templates/mcu/stm32_ws/src/libraries/CMSIS/CMSIS_STM32F4/Include/core_cmInstr.h ****   __ASM volatile ("nop");
 419:/home/rdu/Workspace/project_templates/mcu/stm32_ws/src/libraries/CMSIS/CMSIS_STM32F4/Include/core_cmInstr.h **** }
 420:/home/rdu/Workspace/project_templates/mcu/stm32_ws/src/libraries/CMSIS/CMSIS_STM32F4/Include/core_cmInstr.h **** 
 421:/home/rdu/Workspace/project_templates/mcu/stm32_ws/src/libraries/CMSIS/CMSIS_STM32F4/Include/core_cmInstr.h **** 
 422:/home/rdu/Workspace/project_templates/mcu/stm32_ws/src/libraries/CMSIS/CMSIS_STM32F4/Include/core_cmInstr.h **** /** \brief  Wait For Interrupt
 423:/home/rdu/Workspace/project_templates/mcu/stm32_ws/src/libraries/CMSIS/CMSIS_STM32F4/Include/core_cmInstr.h **** 
 424:/home/rdu/Workspace/project_templates/mcu/stm32_ws/src/libraries/CMSIS/CMSIS_STM32F4/Include/core_cmInstr.h ****     Wait For Interrupt is a hint instruction that suspends execution
 425:/home/rdu/Workspace/project_templates/mcu/stm32_ws/src/libraries/CMSIS/CMSIS_STM32F4/Include/core_cmInstr.h ****     until one of a number of events occurs.
 426:/home/rdu/Workspace/project_templates/mcu/stm32_ws/src/libraries/CMSIS/CMSIS_STM32F4/Include/core_cmInstr.h ****  */
 427:/home/rdu/Workspace/project_templates/mcu/stm32_ws/src/libraries/CMSIS/CMSIS_STM32F4/Include/core_cmInstr.h **** __attribute__((always_inline)) __STATIC_INLINE void __WFI(void)
 428:/home/rdu/Workspace/project_templates/mcu/stm32_ws/src/libraries/CMSIS/CMSIS_STM32F4/Include/core_cmInstr.h **** {
 429:/home/rdu/Workspace/project_templates/mcu/stm32_ws/src/libraries/CMSIS/CMSIS_STM32F4/Include/core_cmInstr.h ****   __ASM volatile ("wfi");
 430:/home/rdu/Workspace/project_templates/mcu/stm32_ws/src/libraries/CMSIS/CMSIS_STM32F4/Include/core_cmInstr.h **** }
 431:/home/rdu/Workspace/project_templates/mcu/stm32_ws/src/libraries/CMSIS/CMSIS_STM32F4/Include/core_cmInstr.h **** 
 432:/home/rdu/Workspace/project_templates/mcu/stm32_ws/src/libraries/CMSIS/CMSIS_STM32F4/Include/core_cmInstr.h **** 
 433:/home/rdu/Workspace/project_templates/mcu/stm32_ws/src/libraries/CMSIS/CMSIS_STM32F4/Include/core_cmInstr.h **** /** \brief  Wait For Event
 434:/home/rdu/Workspace/project_templates/mcu/stm32_ws/src/libraries/CMSIS/CMSIS_STM32F4/Include/core_cmInstr.h **** 
 435:/home/rdu/Workspace/project_templates/mcu/stm32_ws/src/libraries/CMSIS/CMSIS_STM32F4/Include/core_cmInstr.h ****     Wait For Event is a hint instruction that permits the processor to enter
 436:/home/rdu/Workspace/project_templates/mcu/stm32_ws/src/libraries/CMSIS/CMSIS_STM32F4/Include/core_cmInstr.h ****     a low-power state until one of a number of events occurs.
 437:/home/rdu/Workspace/project_templates/mcu/stm32_ws/src/libraries/CMSIS/CMSIS_STM32F4/Include/core_cmInstr.h ****  */
 438:/home/rdu/Workspace/project_templates/mcu/stm32_ws/src/libraries/CMSIS/CMSIS_STM32F4/Include/core_cmInstr.h **** __attribute__((always_inline)) __STATIC_INLINE void __WFE(void)
 439:/home/rdu/Workspace/project_templates/mcu/stm32_ws/src/libraries/CMSIS/CMSIS_STM32F4/Include/core_cmInstr.h **** {
 440:/home/rdu/Workspace/project_templates/mcu/stm32_ws/src/libraries/CMSIS/CMSIS_STM32F4/Include/core_cmInstr.h ****   __ASM volatile ("wfe");
 441:/home/rdu/Workspace/project_templates/mcu/stm32_ws/src/libraries/CMSIS/CMSIS_STM32F4/Include/core_cmInstr.h **** }
 442:/home/rdu/Workspace/project_templates/mcu/stm32_ws/src/libraries/CMSIS/CMSIS_STM32F4/Include/core_cmInstr.h **** 
 443:/home/rdu/Workspace/project_templates/mcu/stm32_ws/src/libraries/CMSIS/CMSIS_STM32F4/Include/core_cmInstr.h **** 
 444:/home/rdu/Workspace/project_templates/mcu/stm32_ws/src/libraries/CMSIS/CMSIS_STM32F4/Include/core_cmInstr.h **** /** \brief  Send Event
 445:/home/rdu/Workspace/project_templates/mcu/stm32_ws/src/libraries/CMSIS/CMSIS_STM32F4/Include/core_cmInstr.h **** 
 446:/home/rdu/Workspace/project_templates/mcu/stm32_ws/src/libraries/CMSIS/CMSIS_STM32F4/Include/core_cmInstr.h ****     Send Event is a hint instruction. It causes an event to be signaled to the CPU.
 447:/home/rdu/Workspace/project_templates/mcu/stm32_ws/src/libraries/CMSIS/CMSIS_STM32F4/Include/core_cmInstr.h ****  */
 448:/home/rdu/Workspace/project_templates/mcu/stm32_ws/src/libraries/CMSIS/CMSIS_STM32F4/Include/core_cmInstr.h **** __attribute__((always_inline)) __STATIC_INLINE void __SEV(void)
 449:/home/rdu/Workspace/project_templates/mcu/stm32_ws/src/libraries/CMSIS/CMSIS_STM32F4/Include/core_cmInstr.h **** {
 450:/home/rdu/Workspace/project_templates/mcu/stm32_ws/src/libraries/CMSIS/CMSIS_STM32F4/Include/core_cmInstr.h ****   __ASM volatile ("sev");
 451:/home/rdu/Workspace/project_templates/mcu/stm32_ws/src/libraries/CMSIS/CMSIS_STM32F4/Include/core_cmInstr.h **** }
 452:/home/rdu/Workspace/project_templates/mcu/stm32_ws/src/libraries/CMSIS/CMSIS_STM32F4/Include/core_cmInstr.h **** 
 453:/home/rdu/Workspace/project_templates/mcu/stm32_ws/src/libraries/CMSIS/CMSIS_STM32F4/Include/core_cmInstr.h **** 
 454:/home/rdu/Workspace/project_templates/mcu/stm32_ws/src/libraries/CMSIS/CMSIS_STM32F4/Include/core_cmInstr.h **** /** \brief  Instruction Synchronization Barrier
 455:/home/rdu/Workspace/project_templates/mcu/stm32_ws/src/libraries/CMSIS/CMSIS_STM32F4/Include/core_cmInstr.h **** 
 456:/home/rdu/Workspace/project_templates/mcu/stm32_ws/src/libraries/CMSIS/CMSIS_STM32F4/Include/core_cmInstr.h ****     Instruction Synchronization Barrier flushes the pipeline in the processor,
 457:/home/rdu/Workspace/project_templates/mcu/stm32_ws/src/libraries/CMSIS/CMSIS_STM32F4/Include/core_cmInstr.h ****     so that all instructions following the ISB are fetched from cache or
 458:/home/rdu/Workspace/project_templates/mcu/stm32_ws/src/libraries/CMSIS/CMSIS_STM32F4/Include/core_cmInstr.h ****     memory, after the instruction has been completed.
 459:/home/rdu/Workspace/project_templates/mcu/stm32_ws/src/libraries/CMSIS/CMSIS_STM32F4/Include/core_cmInstr.h ****  */
 460:/home/rdu/Workspace/project_templates/mcu/stm32_ws/src/libraries/CMSIS/CMSIS_STM32F4/Include/core_cmInstr.h **** __attribute__((always_inline)) __STATIC_INLINE void __ISB(void)
 461:/home/rdu/Workspace/project_templates/mcu/stm32_ws/src/libraries/CMSIS/CMSIS_STM32F4/Include/core_cmInstr.h **** {
 462:/home/rdu/Workspace/project_templates/mcu/stm32_ws/src/libraries/CMSIS/CMSIS_STM32F4/Include/core_cmInstr.h ****   __ASM volatile ("isb 0xF":::"memory");
 463:/home/rdu/Workspace/project_templates/mcu/stm32_ws/src/libraries/CMSIS/CMSIS_STM32F4/Include/core_cmInstr.h **** }
 464:/home/rdu/Workspace/project_templates/mcu/stm32_ws/src/libraries/CMSIS/CMSIS_STM32F4/Include/core_cmInstr.h **** 
 465:/home/rdu/Workspace/project_templates/mcu/stm32_ws/src/libraries/CMSIS/CMSIS_STM32F4/Include/core_cmInstr.h **** 
 466:/home/rdu/Workspace/project_templates/mcu/stm32_ws/src/libraries/CMSIS/CMSIS_STM32F4/Include/core_cmInstr.h **** /** \brief  Data Synchronization Barrier
 467:/home/rdu/Workspace/project_templates/mcu/stm32_ws/src/libraries/CMSIS/CMSIS_STM32F4/Include/core_cmInstr.h **** 
 468:/home/rdu/Workspace/project_templates/mcu/stm32_ws/src/libraries/CMSIS/CMSIS_STM32F4/Include/core_cmInstr.h ****     This function acts as a special kind of Data Memory Barrier.
 469:/home/rdu/Workspace/project_templates/mcu/stm32_ws/src/libraries/CMSIS/CMSIS_STM32F4/Include/core_cmInstr.h ****     It completes when all explicit memory accesses before this instruction complete.
 470:/home/rdu/Workspace/project_templates/mcu/stm32_ws/src/libraries/CMSIS/CMSIS_STM32F4/Include/core_cmInstr.h ****  */
 471:/home/rdu/Workspace/project_templates/mcu/stm32_ws/src/libraries/CMSIS/CMSIS_STM32F4/Include/core_cmInstr.h **** __attribute__((always_inline)) __STATIC_INLINE void __DSB(void)
 472:/home/rdu/Workspace/project_templates/mcu/stm32_ws/src/libraries/CMSIS/CMSIS_STM32F4/Include/core_cmInstr.h **** {
 473:/home/rdu/Workspace/project_templates/mcu/stm32_ws/src/libraries/CMSIS/CMSIS_STM32F4/Include/core_cmInstr.h ****   __ASM volatile ("dsb 0xF":::"memory");
 474:/home/rdu/Workspace/project_templates/mcu/stm32_ws/src/libraries/CMSIS/CMSIS_STM32F4/Include/core_cmInstr.h **** }
 475:/home/rdu/Workspace/project_templates/mcu/stm32_ws/src/libraries/CMSIS/CMSIS_STM32F4/Include/core_cmInstr.h **** 
 476:/home/rdu/Workspace/project_templates/mcu/stm32_ws/src/libraries/CMSIS/CMSIS_STM32F4/Include/core_cmInstr.h **** 
 477:/home/rdu/Workspace/project_templates/mcu/stm32_ws/src/libraries/CMSIS/CMSIS_STM32F4/Include/core_cmInstr.h **** /** \brief  Data Memory Barrier
 478:/home/rdu/Workspace/project_templates/mcu/stm32_ws/src/libraries/CMSIS/CMSIS_STM32F4/Include/core_cmInstr.h **** 
 479:/home/rdu/Workspace/project_templates/mcu/stm32_ws/src/libraries/CMSIS/CMSIS_STM32F4/Include/core_cmInstr.h ****     This function ensures the apparent order of the explicit memory operations before
 480:/home/rdu/Workspace/project_templates/mcu/stm32_ws/src/libraries/CMSIS/CMSIS_STM32F4/Include/core_cmInstr.h ****     and after the instruction, without ensuring their completion.
 481:/home/rdu/Workspace/project_templates/mcu/stm32_ws/src/libraries/CMSIS/CMSIS_STM32F4/Include/core_cmInstr.h ****  */
 482:/home/rdu/Workspace/project_templates/mcu/stm32_ws/src/libraries/CMSIS/CMSIS_STM32F4/Include/core_cmInstr.h **** __attribute__((always_inline)) __STATIC_INLINE void __DMB(void)
 483:/home/rdu/Workspace/project_templates/mcu/stm32_ws/src/libraries/CMSIS/CMSIS_STM32F4/Include/core_cmInstr.h **** {
 484:/home/rdu/Workspace/project_templates/mcu/stm32_ws/src/libraries/CMSIS/CMSIS_STM32F4/Include/core_cmInstr.h ****   __ASM volatile ("dmb 0xF":::"memory");
 485:/home/rdu/Workspace/project_templates/mcu/stm32_ws/src/libraries/CMSIS/CMSIS_STM32F4/Include/core_cmInstr.h **** }
 486:/home/rdu/Workspace/project_templates/mcu/stm32_ws/src/libraries/CMSIS/CMSIS_STM32F4/Include/core_cmInstr.h **** 
 487:/home/rdu/Workspace/project_templates/mcu/stm32_ws/src/libraries/CMSIS/CMSIS_STM32F4/Include/core_cmInstr.h **** 
 488:/home/rdu/Workspace/project_templates/mcu/stm32_ws/src/libraries/CMSIS/CMSIS_STM32F4/Include/core_cmInstr.h **** /** \brief  Reverse byte order (32 bit)
 489:/home/rdu/Workspace/project_templates/mcu/stm32_ws/src/libraries/CMSIS/CMSIS_STM32F4/Include/core_cmInstr.h **** 
 490:/home/rdu/Workspace/project_templates/mcu/stm32_ws/src/libraries/CMSIS/CMSIS_STM32F4/Include/core_cmInstr.h ****     This function reverses the byte order in integer value.
 491:/home/rdu/Workspace/project_templates/mcu/stm32_ws/src/libraries/CMSIS/CMSIS_STM32F4/Include/core_cmInstr.h **** 
 492:/home/rdu/Workspace/project_templates/mcu/stm32_ws/src/libraries/CMSIS/CMSIS_STM32F4/Include/core_cmInstr.h ****     \param [in]    value  Value to reverse
 493:/home/rdu/Workspace/project_templates/mcu/stm32_ws/src/libraries/CMSIS/CMSIS_STM32F4/Include/core_cmInstr.h ****     \return               Reversed value
 494:/home/rdu/Workspace/project_templates/mcu/stm32_ws/src/libraries/CMSIS/CMSIS_STM32F4/Include/core_cmInstr.h ****  */
 495:/home/rdu/Workspace/project_templates/mcu/stm32_ws/src/libraries/CMSIS/CMSIS_STM32F4/Include/core_cmInstr.h **** __attribute__((always_inline)) __STATIC_INLINE uint32_t __REV(uint32_t value)
 496:/home/rdu/Workspace/project_templates/mcu/stm32_ws/src/libraries/CMSIS/CMSIS_STM32F4/Include/core_cmInstr.h **** {
 497:/home/rdu/Workspace/project_templates/mcu/stm32_ws/src/libraries/CMSIS/CMSIS_STM32F4/Include/core_cmInstr.h **** #if (__GNUC__ > 4) || (__GNUC__ == 4 && __GNUC_MINOR__ >= 5)
 498:/home/rdu/Workspace/project_templates/mcu/stm32_ws/src/libraries/CMSIS/CMSIS_STM32F4/Include/core_cmInstr.h ****   return __builtin_bswap32(value);
 154              		.loc 2 498 0
 155 00c2 129A     		ldr	r2, [sp, #72]
 156 00c4 12BA     		rev	r2, r2
 157              	.LBE23:
 158              	.LBE22:
 159              		.loc 1 145 0
 160 00c6 1A60     		str	r2, [r3]
 146:/home/rdu/Workspace/project_templates/mcu/stm32_ws/src/libraries/STM32F4xx_StdPeriph_Driver/src/stm32f4xx_hash_sha1.c ****     outputaddr+=4;
 161              		.loc 1 146 0
 162 00c8 179B     		ldr	r3, [sp, #92]
 163 00ca 0433     		adds	r3, r3, #4
 164 00cc 1793     		str	r3, [sp, #92]
 147:/home/rdu/Workspace/project_templates/mcu/stm32_ws/src/libraries/STM32F4xx_StdPeriph_Driver/src/stm32f4xx_hash_sha1.c ****     *(uint32_t*)(outputaddr)  = __REV(SHA1_MessageDigest.Data[1]);
 165              		.loc 1 147 0
 166 00ce 079A     		ldr	r2, [sp, #28]
 167 00d0 179B     		ldr	r3, [sp, #92]
 168 00d2 1392     		str	r2, [sp, #76]
 169              	.LBB24:
 170              	.LBB25:
 171              		.loc 2 498 0
 172 00d4 139A     		ldr	r2, [sp, #76]
 173 00d6 12BA     		rev	r2, r2
 174              	.LBE25:
 175              	.LBE24:
 176              		.loc 1 147 0
 177 00d8 1A60     		str	r2, [r3]
 148:/home/rdu/Workspace/project_templates/mcu/stm32_ws/src/libraries/STM32F4xx_StdPeriph_Driver/src/stm32f4xx_hash_sha1.c ****     outputaddr+=4;
 178              		.loc 1 148 0
 179 00da 179B     		ldr	r3, [sp, #92]
 180 00dc 0433     		adds	r3, r3, #4
 181 00de 1793     		str	r3, [sp, #92]
 149:/home/rdu/Workspace/project_templates/mcu/stm32_ws/src/libraries/STM32F4xx_StdPeriph_Driver/src/stm32f4xx_hash_sha1.c ****     *(uint32_t*)(outputaddr)  = __REV(SHA1_MessageDigest.Data[2]);
 182              		.loc 1 149 0
 183 00e0 089A     		ldr	r2, [sp, #32]
 184 00e2 179B     		ldr	r3, [sp, #92]
 185 00e4 1492     		str	r2, [sp, #80]
 186              	.LBB26:
 187              	.LBB27:
 188              		.loc 2 498 0
 189 00e6 149A     		ldr	r2, [sp, #80]
 190 00e8 12BA     		rev	r2, r2
 191              	.LBE27:
 192              	.LBE26:
 193              		.loc 1 149 0
 194 00ea 1A60     		str	r2, [r3]
 150:/home/rdu/Workspace/project_templates/mcu/stm32_ws/src/libraries/STM32F4xx_StdPeriph_Driver/src/stm32f4xx_hash_sha1.c ****     outputaddr+=4;
 195              		.loc 1 150 0
 196 00ec 179B     		ldr	r3, [sp, #92]
 197 00ee 0433     		adds	r3, r3, #4
 198 00f0 1793     		str	r3, [sp, #92]
 151:/home/rdu/Workspace/project_templates/mcu/stm32_ws/src/libraries/STM32F4xx_StdPeriph_Driver/src/stm32f4xx_hash_sha1.c ****     *(uint32_t*)(outputaddr)  = __REV(SHA1_MessageDigest.Data[3]);
 199              		.loc 1 151 0
 200 00f2 099A     		ldr	r2, [sp, #36]
 201 00f4 179B     		ldr	r3, [sp, #92]
 202 00f6 1592     		str	r2, [sp, #84]
 203              	.LBB28:
 204              	.LBB29:
 205              		.loc 2 498 0
 206 00f8 159A     		ldr	r2, [sp, #84]
 207 00fa 12BA     		rev	r2, r2
 208              	.LBE29:
 209              	.LBE28:
 210              		.loc 1 151 0
 211 00fc 1A60     		str	r2, [r3]
 152:/home/rdu/Workspace/project_templates/mcu/stm32_ws/src/libraries/STM32F4xx_StdPeriph_Driver/src/stm32f4xx_hash_sha1.c ****     outputaddr+=4;
 212              		.loc 1 152 0
 213 00fe 179B     		ldr	r3, [sp, #92]
 214 0100 0433     		adds	r3, r3, #4
 215 0102 1793     		str	r3, [sp, #92]
 153:/home/rdu/Workspace/project_templates/mcu/stm32_ws/src/libraries/STM32F4xx_StdPeriph_Driver/src/stm32f4xx_hash_sha1.c ****     *(uint32_t*)(outputaddr)  = __REV(SHA1_MessageDigest.Data[4]);
 216              		.loc 1 153 0
 217 0104 0A9A     		ldr	r2, [sp, #40]
 218 0106 179B     		ldr	r3, [sp, #92]
 219 0108 1692     		str	r2, [sp, #88]
 220              	.LBB30:
 221              	.LBB31:
 222              		.loc 2 498 0
 223 010a 169A     		ldr	r2, [sp, #88]
 224 010c 12BA     		rev	r2, r2
 225              	.LBE31:
 226              	.LBE30:
 227              		.loc 1 153 0
 228 010e 1A60     		str	r2, [r3]
 229              	.L7:
 154:/home/rdu/Workspace/project_templates/mcu/stm32_ws/src/libraries/STM32F4xx_StdPeriph_Driver/src/stm32f4xx_hash_sha1.c ****   }
 155:/home/rdu/Workspace/project_templates/mcu/stm32_ws/src/libraries/STM32F4xx_StdPeriph_Driver/src/stm32f4xx_hash_sha1.c ****   return status;
 230              		.loc 1 155 0
 231 0110 9DF86B30 		ldrb	r3, [sp, #107]	@ zero_extendqisi2
 156:/home/rdu/Workspace/project_templates/mcu/stm32_ws/src/libraries/STM32F4xx_StdPeriph_Driver/src/stm32f4xx_hash_sha1.c **** }
 232              		.loc 1 156 0
 233 0114 1846     		mov	r0, r3
 234 0116 1DB0     		add	sp, sp, #116
 235              	.LCFI2:
 236              		.cfi_def_cfa_offset 4
 237              		@ sp needed
 238 0118 5DF804FB 		ldr	pc, [sp], #4
 239              		.cfi_endproc
 240              	.LFE123:
 242              		.section	.text.HMAC_SHA1,"ax",%progbits
 243              		.align	1
 244              		.global	HMAC_SHA1
 245              		.syntax unified
 246              		.thumb
 247              		.thumb_func
 248              		.fpu fpv4-sp-d16
 250              	HMAC_SHA1:
 251              	.LFB124:
 157:/home/rdu/Workspace/project_templates/mcu/stm32_ws/src/libraries/STM32F4xx_StdPeriph_Driver/src/stm32f4xx_hash_sha1.c **** 
 158:/home/rdu/Workspace/project_templates/mcu/stm32_ws/src/libraries/STM32F4xx_StdPeriph_Driver/src/stm32f4xx_hash_sha1.c **** /**
 159:/home/rdu/Workspace/project_templates/mcu/stm32_ws/src/libraries/STM32F4xx_StdPeriph_Driver/src/stm32f4xx_hash_sha1.c ****   * @brief  Compute the HMAC SHA1 digest.
 160:/home/rdu/Workspace/project_templates/mcu/stm32_ws/src/libraries/STM32F4xx_StdPeriph_Driver/src/stm32f4xx_hash_sha1.c ****   * @param  Key: pointer to the Key used for HMAC.
 161:/home/rdu/Workspace/project_templates/mcu/stm32_ws/src/libraries/STM32F4xx_StdPeriph_Driver/src/stm32f4xx_hash_sha1.c ****   * @param  Keylen: length of the Key used for HMAC.  
 162:/home/rdu/Workspace/project_templates/mcu/stm32_ws/src/libraries/STM32F4xx_StdPeriph_Driver/src/stm32f4xx_hash_sha1.c ****   * @param  Input: pointer to the Input buffer to be treated.
 163:/home/rdu/Workspace/project_templates/mcu/stm32_ws/src/libraries/STM32F4xx_StdPeriph_Driver/src/stm32f4xx_hash_sha1.c ****   * @param  Ilen: length of the Input buffer.
 164:/home/rdu/Workspace/project_templates/mcu/stm32_ws/src/libraries/STM32F4xx_StdPeriph_Driver/src/stm32f4xx_hash_sha1.c ****   * @param  Output: the returned digest
 165:/home/rdu/Workspace/project_templates/mcu/stm32_ws/src/libraries/STM32F4xx_StdPeriph_Driver/src/stm32f4xx_hash_sha1.c ****   * @retval An ErrorStatus enumeration value:
 166:/home/rdu/Workspace/project_templates/mcu/stm32_ws/src/libraries/STM32F4xx_StdPeriph_Driver/src/stm32f4xx_hash_sha1.c ****   *          - SUCCESS: digest computation done
 167:/home/rdu/Workspace/project_templates/mcu/stm32_ws/src/libraries/STM32F4xx_StdPeriph_Driver/src/stm32f4xx_hash_sha1.c ****   *          - ERROR: digest computation failed
 168:/home/rdu/Workspace/project_templates/mcu/stm32_ws/src/libraries/STM32F4xx_StdPeriph_Driver/src/stm32f4xx_hash_sha1.c ****   */
 169:/home/rdu/Workspace/project_templates/mcu/stm32_ws/src/libraries/STM32F4xx_StdPeriph_Driver/src/stm32f4xx_hash_sha1.c **** ErrorStatus HMAC_SHA1(uint8_t *Key, uint32_t Keylen, uint8_t *Input,
 170:/home/rdu/Workspace/project_templates/mcu/stm32_ws/src/libraries/STM32F4xx_StdPeriph_Driver/src/stm32f4xx_hash_sha1.c ****                       uint32_t Ilen, uint8_t Output[20])
 171:/home/rdu/Workspace/project_templates/mcu/stm32_ws/src/libraries/STM32F4xx_StdPeriph_Driver/src/stm32f4xx_hash_sha1.c **** {
 252              		.loc 1 171 0
 253              		.cfi_startproc
 254              		@ args = 4, pretend = 0, frame = 120
 255              		@ frame_needed = 0, uses_anonymous_args = 0
 256 0000 00B5     		push	{lr}
 257              	.LCFI3:
 258              		.cfi_def_cfa_offset 4
 259              		.cfi_offset 14, -4
 260 0002 9FB0     		sub	sp, sp, #124
 261              	.LCFI4:
 262              		.cfi_def_cfa_offset 128
 263 0004 0390     		str	r0, [sp, #12]
 264 0006 0291     		str	r1, [sp, #8]
 265 0008 0192     		str	r2, [sp, #4]
 266 000a 0093     		str	r3, [sp]
 172:/home/rdu/Workspace/project_templates/mcu/stm32_ws/src/libraries/STM32F4xx_StdPeriph_Driver/src/stm32f4xx_hash_sha1.c ****   HASH_InitTypeDef SHA1_HASH_InitStructure;
 173:/home/rdu/Workspace/project_templates/mcu/stm32_ws/src/libraries/STM32F4xx_StdPeriph_Driver/src/stm32f4xx_hash_sha1.c ****   HASH_MsgDigest SHA1_MessageDigest;
 174:/home/rdu/Workspace/project_templates/mcu/stm32_ws/src/libraries/STM32F4xx_StdPeriph_Driver/src/stm32f4xx_hash_sha1.c ****   __IO uint16_t nbvalidbitsdata = 0;
 267              		.loc 1 174 0
 268 000c 0023     		movs	r3, #0
 269 000e ADF81A30 		strh	r3, [sp, #26]	@ movhi
 175:/home/rdu/Workspace/project_templates/mcu/stm32_ws/src/libraries/STM32F4xx_StdPeriph_Driver/src/stm32f4xx_hash_sha1.c ****   __IO uint16_t nbvalidbitskey = 0;
 270              		.loc 1 175 0
 271 0012 0023     		movs	r3, #0
 272 0014 ADF81830 		strh	r3, [sp, #24]	@ movhi
 176:/home/rdu/Workspace/project_templates/mcu/stm32_ws/src/libraries/STM32F4xx_StdPeriph_Driver/src/stm32f4xx_hash_sha1.c ****   uint32_t i = 0;
 273              		.loc 1 176 0
 274 0018 0023     		movs	r3, #0
 275 001a 1D93     		str	r3, [sp, #116]
 177:/home/rdu/Workspace/project_templates/mcu/stm32_ws/src/libraries/STM32F4xx_StdPeriph_Driver/src/stm32f4xx_hash_sha1.c ****   __IO uint32_t counter = 0;
 276              		.loc 1 177 0
 277 001c 0023     		movs	r3, #0
 278 001e 0593     		str	r3, [sp, #20]
 178:/home/rdu/Workspace/project_templates/mcu/stm32_ws/src/libraries/STM32F4xx_StdPeriph_Driver/src/stm32f4xx_hash_sha1.c ****   uint32_t busystatus = 0;
 279              		.loc 1 178 0
 280 0020 0023     		movs	r3, #0
 281 0022 1993     		str	r3, [sp, #100]
 179:/home/rdu/Workspace/project_templates/mcu/stm32_ws/src/libraries/STM32F4xx_StdPeriph_Driver/src/stm32f4xx_hash_sha1.c ****   ErrorStatus status = SUCCESS;
 282              		.loc 1 179 0
 283 0024 0123     		movs	r3, #1
 284 0026 8DF87330 		strb	r3, [sp, #115]
 180:/home/rdu/Workspace/project_templates/mcu/stm32_ws/src/libraries/STM32F4xx_StdPeriph_Driver/src/stm32f4xx_hash_sha1.c ****   uint32_t keyaddr    = (uint32_t)Key;
 285              		.loc 1 180 0
 286 002a 039B     		ldr	r3, [sp, #12]
 287 002c 1B93     		str	r3, [sp, #108]
 181:/home/rdu/Workspace/project_templates/mcu/stm32_ws/src/libraries/STM32F4xx_StdPeriph_Driver/src/stm32f4xx_hash_sha1.c ****   uint32_t inputaddr  = (uint32_t)Input;
 288              		.loc 1 181 0
 289 002e 019B     		ldr	r3, [sp, #4]
 290 0030 1A93     		str	r3, [sp, #104]
 182:/home/rdu/Workspace/project_templates/mcu/stm32_ws/src/libraries/STM32F4xx_StdPeriph_Driver/src/stm32f4xx_hash_sha1.c ****   uint32_t outputaddr = (uint32_t)Output;
 291              		.loc 1 182 0
 292 0032 209B     		ldr	r3, [sp, #128]
 293 0034 1893     		str	r3, [sp, #96]
 183:/home/rdu/Workspace/project_templates/mcu/stm32_ws/src/libraries/STM32F4xx_StdPeriph_Driver/src/stm32f4xx_hash_sha1.c **** 
 184:/home/rdu/Workspace/project_templates/mcu/stm32_ws/src/libraries/STM32F4xx_StdPeriph_Driver/src/stm32f4xx_hash_sha1.c ****   /* Number of valid bits in last word of the Input data */
 185:/home/rdu/Workspace/project_templates/mcu/stm32_ws/src/libraries/STM32F4xx_StdPeriph_Driver/src/stm32f4xx_hash_sha1.c ****   nbvalidbitsdata = 8 * (Ilen % 4);
 294              		.loc 1 185 0
 295 0036 009B     		ldr	r3, [sp]
 296 0038 9BB2     		uxth	r3, r3
 297 003a 03F00303 		and	r3, r3, #3
 298 003e 9BB2     		uxth	r3, r3
 299 0040 DB00     		lsls	r3, r3, #3
 300 0042 9BB2     		uxth	r3, r3
 301 0044 ADF81A30 		strh	r3, [sp, #26]	@ movhi
 186:/home/rdu/Workspace/project_templates/mcu/stm32_ws/src/libraries/STM32F4xx_StdPeriph_Driver/src/stm32f4xx_hash_sha1.c **** 
 187:/home/rdu/Workspace/project_templates/mcu/stm32_ws/src/libraries/STM32F4xx_StdPeriph_Driver/src/stm32f4xx_hash_sha1.c ****   /* Number of valid bits in last word of the Key */
 188:/home/rdu/Workspace/project_templates/mcu/stm32_ws/src/libraries/STM32F4xx_StdPeriph_Driver/src/stm32f4xx_hash_sha1.c ****   nbvalidbitskey = 8 * (Keylen % 4);
 302              		.loc 1 188 0
 303 0048 029B     		ldr	r3, [sp, #8]
 304 004a 9BB2     		uxth	r3, r3
 305 004c 03F00303 		and	r3, r3, #3
 306 0050 9BB2     		uxth	r3, r3
 307 0052 DB00     		lsls	r3, r3, #3
 308 0054 9BB2     		uxth	r3, r3
 309 0056 ADF81830 		strh	r3, [sp, #24]	@ movhi
 189:/home/rdu/Workspace/project_templates/mcu/stm32_ws/src/libraries/STM32F4xx_StdPeriph_Driver/src/stm32f4xx_hash_sha1.c **** 
 190:/home/rdu/Workspace/project_templates/mcu/stm32_ws/src/libraries/STM32F4xx_StdPeriph_Driver/src/stm32f4xx_hash_sha1.c ****   /* HASH peripheral initialization */
 191:/home/rdu/Workspace/project_templates/mcu/stm32_ws/src/libraries/STM32F4xx_StdPeriph_Driver/src/stm32f4xx_hash_sha1.c ****   HASH_DeInit();
 310              		.loc 1 191 0
 311 005a FFF7FEFF 		bl	HASH_DeInit
 192:/home/rdu/Workspace/project_templates/mcu/stm32_ws/src/libraries/STM32F4xx_StdPeriph_Driver/src/stm32f4xx_hash_sha1.c **** 
 193:/home/rdu/Workspace/project_templates/mcu/stm32_ws/src/libraries/STM32F4xx_StdPeriph_Driver/src/stm32f4xx_hash_sha1.c ****   /* HASH Configuration */
 194:/home/rdu/Workspace/project_templates/mcu/stm32_ws/src/libraries/STM32F4xx_StdPeriph_Driver/src/stm32f4xx_hash_sha1.c ****   SHA1_HASH_InitStructure.HASH_AlgoSelection = HASH_AlgoSelection_SHA1;
 312              		.loc 1 194 0
 313 005e 0023     		movs	r3, #0
 314 0060 0F93     		str	r3, [sp, #60]
 195:/home/rdu/Workspace/project_templates/mcu/stm32_ws/src/libraries/STM32F4xx_StdPeriph_Driver/src/stm32f4xx_hash_sha1.c ****   SHA1_HASH_InitStructure.HASH_AlgoMode = HASH_AlgoMode_HMAC;
 315              		.loc 1 195 0
 316 0062 4023     		movs	r3, #64
 317 0064 1093     		str	r3, [sp, #64]
 196:/home/rdu/Workspace/project_templates/mcu/stm32_ws/src/libraries/STM32F4xx_StdPeriph_Driver/src/stm32f4xx_hash_sha1.c ****   SHA1_HASH_InitStructure.HASH_DataType = HASH_DataType_8b;
 318              		.loc 1 196 0
 319 0066 2023     		movs	r3, #32
 320 0068 1193     		str	r3, [sp, #68]
 197:/home/rdu/Workspace/project_templates/mcu/stm32_ws/src/libraries/STM32F4xx_StdPeriph_Driver/src/stm32f4xx_hash_sha1.c ****   if(Keylen > 64)
 321              		.loc 1 197 0
 322 006a 029B     		ldr	r3, [sp, #8]
 323 006c 402B     		cmp	r3, #64
 324 006e 03D9     		bls	.L15
 198:/home/rdu/Workspace/project_templates/mcu/stm32_ws/src/libraries/STM32F4xx_StdPeriph_Driver/src/stm32f4xx_hash_sha1.c ****   {
 199:/home/rdu/Workspace/project_templates/mcu/stm32_ws/src/libraries/STM32F4xx_StdPeriph_Driver/src/stm32f4xx_hash_sha1.c ****     /* HMAC long Key */
 200:/home/rdu/Workspace/project_templates/mcu/stm32_ws/src/libraries/STM32F4xx_StdPeriph_Driver/src/stm32f4xx_hash_sha1.c ****     SHA1_HASH_InitStructure.HASH_HMACKeyType = HASH_HMACKeyType_LongKey;
 325              		.loc 1 200 0
 326 0070 4FF48033 		mov	r3, #65536
 327 0074 1293     		str	r3, [sp, #72]
 328 0076 01E0     		b	.L16
 329              	.L15:
 201:/home/rdu/Workspace/project_templates/mcu/stm32_ws/src/libraries/STM32F4xx_StdPeriph_Driver/src/stm32f4xx_hash_sha1.c ****   }
 202:/home/rdu/Workspace/project_templates/mcu/stm32_ws/src/libraries/STM32F4xx_StdPeriph_Driver/src/stm32f4xx_hash_sha1.c ****   else
 203:/home/rdu/Workspace/project_templates/mcu/stm32_ws/src/libraries/STM32F4xx_StdPeriph_Driver/src/stm32f4xx_hash_sha1.c ****   {
 204:/home/rdu/Workspace/project_templates/mcu/stm32_ws/src/libraries/STM32F4xx_StdPeriph_Driver/src/stm32f4xx_hash_sha1.c ****     /* HMAC short Key */
 205:/home/rdu/Workspace/project_templates/mcu/stm32_ws/src/libraries/STM32F4xx_StdPeriph_Driver/src/stm32f4xx_hash_sha1.c ****     SHA1_HASH_InitStructure.HASH_HMACKeyType = HASH_HMACKeyType_ShortKey;
 330              		.loc 1 205 0
 331 0078 0023     		movs	r3, #0
 332 007a 1293     		str	r3, [sp, #72]
 333              	.L16:
 206:/home/rdu/Workspace/project_templates/mcu/stm32_ws/src/libraries/STM32F4xx_StdPeriph_Driver/src/stm32f4xx_hash_sha1.c ****   }
 207:/home/rdu/Workspace/project_templates/mcu/stm32_ws/src/libraries/STM32F4xx_StdPeriph_Driver/src/stm32f4xx_hash_sha1.c ****   HASH_Init(&SHA1_HASH_InitStructure);
 334              		.loc 1 207 0
 335 007c 0FAB     		add	r3, sp, #60
 336 007e 1846     		mov	r0, r3
 337 0080 FFF7FEFF 		bl	HASH_Init
 208:/home/rdu/Workspace/project_templates/mcu/stm32_ws/src/libraries/STM32F4xx_StdPeriph_Driver/src/stm32f4xx_hash_sha1.c **** 
 209:/home/rdu/Workspace/project_templates/mcu/stm32_ws/src/libraries/STM32F4xx_StdPeriph_Driver/src/stm32f4xx_hash_sha1.c ****   /* Configure the number of valid bits in last word of the Key */
 210:/home/rdu/Workspace/project_templates/mcu/stm32_ws/src/libraries/STM32F4xx_StdPeriph_Driver/src/stm32f4xx_hash_sha1.c ****   HASH_SetLastWordValidBitsNbr(nbvalidbitskey);
 338              		.loc 1 210 0
 339 0084 BDF81830 		ldrh	r3, [sp, #24]	@ movhi
 340 0088 9BB2     		uxth	r3, r3
 341 008a 1846     		mov	r0, r3
 342 008c FFF7FEFF 		bl	HASH_SetLastWordValidBitsNbr
 211:/home/rdu/Workspace/project_templates/mcu/stm32_ws/src/libraries/STM32F4xx_StdPeriph_Driver/src/stm32f4xx_hash_sha1.c **** 
 212:/home/rdu/Workspace/project_templates/mcu/stm32_ws/src/libraries/STM32F4xx_StdPeriph_Driver/src/stm32f4xx_hash_sha1.c ****   /* Write the Key */
 213:/home/rdu/Workspace/project_templates/mcu/stm32_ws/src/libraries/STM32F4xx_StdPeriph_Driver/src/stm32f4xx_hash_sha1.c ****   for(i=0; i<Keylen; i+=4)
 343              		.loc 1 213 0
 344 0090 0023     		movs	r3, #0
 345 0092 1D93     		str	r3, [sp, #116]
 346 0094 0AE0     		b	.L17
 347              	.L18:
 214:/home/rdu/Workspace/project_templates/mcu/stm32_ws/src/libraries/STM32F4xx_StdPeriph_Driver/src/stm32f4xx_hash_sha1.c ****   {
 215:/home/rdu/Workspace/project_templates/mcu/stm32_ws/src/libraries/STM32F4xx_StdPeriph_Driver/src/stm32f4xx_hash_sha1.c ****     HASH_DataIn(*(uint32_t*)keyaddr);
 348              		.loc 1 215 0 discriminator 3
 349 0096 1B9B     		ldr	r3, [sp, #108]
 350 0098 1B68     		ldr	r3, [r3]
 351 009a 1846     		mov	r0, r3
 352 009c FFF7FEFF 		bl	HASH_DataIn
 216:/home/rdu/Workspace/project_templates/mcu/stm32_ws/src/libraries/STM32F4xx_StdPeriph_Driver/src/stm32f4xx_hash_sha1.c ****     keyaddr+=4;
 353              		.loc 1 216 0 discriminator 3
 354 00a0 1B9B     		ldr	r3, [sp, #108]
 355 00a2 0433     		adds	r3, r3, #4
 356 00a4 1B93     		str	r3, [sp, #108]
 213:/home/rdu/Workspace/project_templates/mcu/stm32_ws/src/libraries/STM32F4xx_StdPeriph_Driver/src/stm32f4xx_hash_sha1.c ****   {
 357              		.loc 1 213 0 discriminator 3
 358 00a6 1D9B     		ldr	r3, [sp, #116]
 359 00a8 0433     		adds	r3, r3, #4
 360 00aa 1D93     		str	r3, [sp, #116]
 361              	.L17:
 213:/home/rdu/Workspace/project_templates/mcu/stm32_ws/src/libraries/STM32F4xx_StdPeriph_Driver/src/stm32f4xx_hash_sha1.c ****   {
 362              		.loc 1 213 0 is_stmt 0 discriminator 1
 363 00ac 1D9A     		ldr	r2, [sp, #116]
 364 00ae 029B     		ldr	r3, [sp, #8]
 365 00b0 9A42     		cmp	r2, r3
 366 00b2 F0D3     		bcc	.L18
 217:/home/rdu/Workspace/project_templates/mcu/stm32_ws/src/libraries/STM32F4xx_StdPeriph_Driver/src/stm32f4xx_hash_sha1.c ****   }
 218:/home/rdu/Workspace/project_templates/mcu/stm32_ws/src/libraries/STM32F4xx_StdPeriph_Driver/src/stm32f4xx_hash_sha1.c **** 
 219:/home/rdu/Workspace/project_templates/mcu/stm32_ws/src/libraries/STM32F4xx_StdPeriph_Driver/src/stm32f4xx_hash_sha1.c ****   /* Start the HASH processor */
 220:/home/rdu/Workspace/project_templates/mcu/stm32_ws/src/libraries/STM32F4xx_StdPeriph_Driver/src/stm32f4xx_hash_sha1.c ****   HASH_StartDigest();
 367              		.loc 1 220 0 is_stmt 1
 368 00b4 FFF7FEFF 		bl	HASH_StartDigest
 369              	.L20:
 221:/home/rdu/Workspace/project_templates/mcu/stm32_ws/src/libraries/STM32F4xx_StdPeriph_Driver/src/stm32f4xx_hash_sha1.c **** 
 222:/home/rdu/Workspace/project_templates/mcu/stm32_ws/src/libraries/STM32F4xx_StdPeriph_Driver/src/stm32f4xx_hash_sha1.c ****   /* wait until the Busy flag is RESET */
 223:/home/rdu/Workspace/project_templates/mcu/stm32_ws/src/libraries/STM32F4xx_StdPeriph_Driver/src/stm32f4xx_hash_sha1.c ****   do
 224:/home/rdu/Workspace/project_templates/mcu/stm32_ws/src/libraries/STM32F4xx_StdPeriph_Driver/src/stm32f4xx_hash_sha1.c ****   {
 225:/home/rdu/Workspace/project_templates/mcu/stm32_ws/src/libraries/STM32F4xx_StdPeriph_Driver/src/stm32f4xx_hash_sha1.c ****     busystatus = HASH_GetFlagStatus(HASH_FLAG_BUSY);
 370              		.loc 1 225 0 discriminator 2
 371 00b8 0820     		movs	r0, #8
 372 00ba FFF7FEFF 		bl	HASH_GetFlagStatus
 373 00be 0346     		mov	r3, r0
 374 00c0 1993     		str	r3, [sp, #100]
 226:/home/rdu/Workspace/project_templates/mcu/stm32_ws/src/libraries/STM32F4xx_StdPeriph_Driver/src/stm32f4xx_hash_sha1.c ****     counter++;
 375              		.loc 1 226 0 discriminator 2
 376 00c2 059B     		ldr	r3, [sp, #20]
 377 00c4 0133     		adds	r3, r3, #1
 378 00c6 0593     		str	r3, [sp, #20]
 227:/home/rdu/Workspace/project_templates/mcu/stm32_ws/src/libraries/STM32F4xx_StdPeriph_Driver/src/stm32f4xx_hash_sha1.c ****   }while ((counter != SHA1BUSY_TIMEOUT) && (busystatus != RESET));
 379              		.loc 1 227 0 discriminator 2
 380 00c8 059B     		ldr	r3, [sp, #20]
 381 00ca B3F5803F 		cmp	r3, #65536
 382 00ce 02D0     		beq	.L19
 383              		.loc 1 227 0 is_stmt 0 discriminator 1
 384 00d0 199B     		ldr	r3, [sp, #100]
 385 00d2 002B     		cmp	r3, #0
 386 00d4 F0D1     		bne	.L20
 387              	.L19:
 228:/home/rdu/Workspace/project_templates/mcu/stm32_ws/src/libraries/STM32F4xx_StdPeriph_Driver/src/stm32f4xx_hash_sha1.c **** 
 229:/home/rdu/Workspace/project_templates/mcu/stm32_ws/src/libraries/STM32F4xx_StdPeriph_Driver/src/stm32f4xx_hash_sha1.c ****   if (busystatus != RESET)
 388              		.loc 1 229 0 is_stmt 1
 389 00d6 199B     		ldr	r3, [sp, #100]
 390 00d8 002B     		cmp	r3, #0
 391 00da 03D0     		beq	.L21
 230:/home/rdu/Workspace/project_templates/mcu/stm32_ws/src/libraries/STM32F4xx_StdPeriph_Driver/src/stm32f4xx_hash_sha1.c ****   {
 231:/home/rdu/Workspace/project_templates/mcu/stm32_ws/src/libraries/STM32F4xx_StdPeriph_Driver/src/stm32f4xx_hash_sha1.c ****      status = ERROR;
 392              		.loc 1 231 0
 393 00dc 0023     		movs	r3, #0
 394 00de 8DF87330 		strb	r3, [sp, #115]
 395 00e2 93E0     		b	.L22
 396              	.L21:
 232:/home/rdu/Workspace/project_templates/mcu/stm32_ws/src/libraries/STM32F4xx_StdPeriph_Driver/src/stm32f4xx_hash_sha1.c ****   }
 233:/home/rdu/Workspace/project_templates/mcu/stm32_ws/src/libraries/STM32F4xx_StdPeriph_Driver/src/stm32f4xx_hash_sha1.c ****   else
 234:/home/rdu/Workspace/project_templates/mcu/stm32_ws/src/libraries/STM32F4xx_StdPeriph_Driver/src/stm32f4xx_hash_sha1.c ****   {
 235:/home/rdu/Workspace/project_templates/mcu/stm32_ws/src/libraries/STM32F4xx_StdPeriph_Driver/src/stm32f4xx_hash_sha1.c ****     /* Configure the number of valid bits in last word of the Input data */
 236:/home/rdu/Workspace/project_templates/mcu/stm32_ws/src/libraries/STM32F4xx_StdPeriph_Driver/src/stm32f4xx_hash_sha1.c ****     HASH_SetLastWordValidBitsNbr(nbvalidbitsdata);
 397              		.loc 1 236 0
 398 00e4 BDF81A30 		ldrh	r3, [sp, #26]	@ movhi
 399 00e8 9BB2     		uxth	r3, r3
 400 00ea 1846     		mov	r0, r3
 401 00ec FFF7FEFF 		bl	HASH_SetLastWordValidBitsNbr
 237:/home/rdu/Workspace/project_templates/mcu/stm32_ws/src/libraries/STM32F4xx_StdPeriph_Driver/src/stm32f4xx_hash_sha1.c **** 
 238:/home/rdu/Workspace/project_templates/mcu/stm32_ws/src/libraries/STM32F4xx_StdPeriph_Driver/src/stm32f4xx_hash_sha1.c ****     /* Write the Input block in the IN FIFO */
 239:/home/rdu/Workspace/project_templates/mcu/stm32_ws/src/libraries/STM32F4xx_StdPeriph_Driver/src/stm32f4xx_hash_sha1.c ****     for(i=0; i<Ilen; i+=4)
 402              		.loc 1 239 0
 403 00f0 0023     		movs	r3, #0
 404 00f2 1D93     		str	r3, [sp, #116]
 405 00f4 0AE0     		b	.L23
 406              	.L24:
 240:/home/rdu/Workspace/project_templates/mcu/stm32_ws/src/libraries/STM32F4xx_StdPeriph_Driver/src/stm32f4xx_hash_sha1.c ****     {
 241:/home/rdu/Workspace/project_templates/mcu/stm32_ws/src/libraries/STM32F4xx_StdPeriph_Driver/src/stm32f4xx_hash_sha1.c ****       HASH_DataIn(*(uint32_t*)inputaddr);
 407              		.loc 1 241 0 discriminator 3
 408 00f6 1A9B     		ldr	r3, [sp, #104]
 409 00f8 1B68     		ldr	r3, [r3]
 410 00fa 1846     		mov	r0, r3
 411 00fc FFF7FEFF 		bl	HASH_DataIn
 242:/home/rdu/Workspace/project_templates/mcu/stm32_ws/src/libraries/STM32F4xx_StdPeriph_Driver/src/stm32f4xx_hash_sha1.c ****       inputaddr+=4;
 412              		.loc 1 242 0 discriminator 3
 413 0100 1A9B     		ldr	r3, [sp, #104]
 414 0102 0433     		adds	r3, r3, #4
 415 0104 1A93     		str	r3, [sp, #104]
 239:/home/rdu/Workspace/project_templates/mcu/stm32_ws/src/libraries/STM32F4xx_StdPeriph_Driver/src/stm32f4xx_hash_sha1.c ****     {
 416              		.loc 1 239 0 discriminator 3
 417 0106 1D9B     		ldr	r3, [sp, #116]
 418 0108 0433     		adds	r3, r3, #4
 419 010a 1D93     		str	r3, [sp, #116]
 420              	.L23:
 239:/home/rdu/Workspace/project_templates/mcu/stm32_ws/src/libraries/STM32F4xx_StdPeriph_Driver/src/stm32f4xx_hash_sha1.c ****     {
 421              		.loc 1 239 0 is_stmt 0 discriminator 1
 422 010c 1D9A     		ldr	r2, [sp, #116]
 423 010e 009B     		ldr	r3, [sp]
 424 0110 9A42     		cmp	r2, r3
 425 0112 F0D3     		bcc	.L24
 243:/home/rdu/Workspace/project_templates/mcu/stm32_ws/src/libraries/STM32F4xx_StdPeriph_Driver/src/stm32f4xx_hash_sha1.c ****     }
 244:/home/rdu/Workspace/project_templates/mcu/stm32_ws/src/libraries/STM32F4xx_StdPeriph_Driver/src/stm32f4xx_hash_sha1.c **** 
 245:/home/rdu/Workspace/project_templates/mcu/stm32_ws/src/libraries/STM32F4xx_StdPeriph_Driver/src/stm32f4xx_hash_sha1.c ****     /* Start the HASH processor */
 246:/home/rdu/Workspace/project_templates/mcu/stm32_ws/src/libraries/STM32F4xx_StdPeriph_Driver/src/stm32f4xx_hash_sha1.c ****     HASH_StartDigest();
 426              		.loc 1 246 0 is_stmt 1
 427 0114 FFF7FEFF 		bl	HASH_StartDigest
 247:/home/rdu/Workspace/project_templates/mcu/stm32_ws/src/libraries/STM32F4xx_StdPeriph_Driver/src/stm32f4xx_hash_sha1.c **** 
 248:/home/rdu/Workspace/project_templates/mcu/stm32_ws/src/libraries/STM32F4xx_StdPeriph_Driver/src/stm32f4xx_hash_sha1.c **** 
 249:/home/rdu/Workspace/project_templates/mcu/stm32_ws/src/libraries/STM32F4xx_StdPeriph_Driver/src/stm32f4xx_hash_sha1.c ****     /* wait until the Busy flag is RESET */
 250:/home/rdu/Workspace/project_templates/mcu/stm32_ws/src/libraries/STM32F4xx_StdPeriph_Driver/src/stm32f4xx_hash_sha1.c ****     counter =0;
 428              		.loc 1 250 0
 429 0118 0023     		movs	r3, #0
 430 011a 0593     		str	r3, [sp, #20]
 431              	.L26:
 251:/home/rdu/Workspace/project_templates/mcu/stm32_ws/src/libraries/STM32F4xx_StdPeriph_Driver/src/stm32f4xx_hash_sha1.c ****     do
 252:/home/rdu/Workspace/project_templates/mcu/stm32_ws/src/libraries/STM32F4xx_StdPeriph_Driver/src/stm32f4xx_hash_sha1.c ****     {
 253:/home/rdu/Workspace/project_templates/mcu/stm32_ws/src/libraries/STM32F4xx_StdPeriph_Driver/src/stm32f4xx_hash_sha1.c ****       busystatus = HASH_GetFlagStatus(HASH_FLAG_BUSY);
 432              		.loc 1 253 0 discriminator 2
 433 011c 0820     		movs	r0, #8
 434 011e FFF7FEFF 		bl	HASH_GetFlagStatus
 435 0122 0346     		mov	r3, r0
 436 0124 1993     		str	r3, [sp, #100]
 254:/home/rdu/Workspace/project_templates/mcu/stm32_ws/src/libraries/STM32F4xx_StdPeriph_Driver/src/stm32f4xx_hash_sha1.c ****       counter++;
 437              		.loc 1 254 0 discriminator 2
 438 0126 059B     		ldr	r3, [sp, #20]
 439 0128 0133     		adds	r3, r3, #1
 440 012a 0593     		str	r3, [sp, #20]
 255:/home/rdu/Workspace/project_templates/mcu/stm32_ws/src/libraries/STM32F4xx_StdPeriph_Driver/src/stm32f4xx_hash_sha1.c ****     }while ((counter != SHA1BUSY_TIMEOUT) && (busystatus != RESET));
 441              		.loc 1 255 0 discriminator 2
 442 012c 059B     		ldr	r3, [sp, #20]
 443 012e B3F5803F 		cmp	r3, #65536
 444 0132 02D0     		beq	.L25
 445              		.loc 1 255 0 is_stmt 0 discriminator 1
 446 0134 199B     		ldr	r3, [sp, #100]
 447 0136 002B     		cmp	r3, #0
 448 0138 F0D1     		bne	.L26
 449              	.L25:
 256:/home/rdu/Workspace/project_templates/mcu/stm32_ws/src/libraries/STM32F4xx_StdPeriph_Driver/src/stm32f4xx_hash_sha1.c **** 
 257:/home/rdu/Workspace/project_templates/mcu/stm32_ws/src/libraries/STM32F4xx_StdPeriph_Driver/src/stm32f4xx_hash_sha1.c ****     if (busystatus != RESET)
 450              		.loc 1 257 0 is_stmt 1
 451 013a 199B     		ldr	r3, [sp, #100]
 452 013c 002B     		cmp	r3, #0
 453 013e 03D0     		beq	.L27
 258:/home/rdu/Workspace/project_templates/mcu/stm32_ws/src/libraries/STM32F4xx_StdPeriph_Driver/src/stm32f4xx_hash_sha1.c ****     {
 259:/home/rdu/Workspace/project_templates/mcu/stm32_ws/src/libraries/STM32F4xx_StdPeriph_Driver/src/stm32f4xx_hash_sha1.c ****       status = ERROR;
 454              		.loc 1 259 0
 455 0140 0023     		movs	r3, #0
 456 0142 8DF87330 		strb	r3, [sp, #115]
 457 0146 61E0     		b	.L22
 458              	.L27:
 260:/home/rdu/Workspace/project_templates/mcu/stm32_ws/src/libraries/STM32F4xx_StdPeriph_Driver/src/stm32f4xx_hash_sha1.c ****     }
 261:/home/rdu/Workspace/project_templates/mcu/stm32_ws/src/libraries/STM32F4xx_StdPeriph_Driver/src/stm32f4xx_hash_sha1.c ****     else
 262:/home/rdu/Workspace/project_templates/mcu/stm32_ws/src/libraries/STM32F4xx_StdPeriph_Driver/src/stm32f4xx_hash_sha1.c ****     {  
 263:/home/rdu/Workspace/project_templates/mcu/stm32_ws/src/libraries/STM32F4xx_StdPeriph_Driver/src/stm32f4xx_hash_sha1.c ****       /* Configure the number of valid bits in last word of the Key */
 264:/home/rdu/Workspace/project_templates/mcu/stm32_ws/src/libraries/STM32F4xx_StdPeriph_Driver/src/stm32f4xx_hash_sha1.c ****       HASH_SetLastWordValidBitsNbr(nbvalidbitskey);
 459              		.loc 1 264 0
 460 0148 BDF81830 		ldrh	r3, [sp, #24]	@ movhi
 461 014c 9BB2     		uxth	r3, r3
 462 014e 1846     		mov	r0, r3
 463 0150 FFF7FEFF 		bl	HASH_SetLastWordValidBitsNbr
 265:/home/rdu/Workspace/project_templates/mcu/stm32_ws/src/libraries/STM32F4xx_StdPeriph_Driver/src/stm32f4xx_hash_sha1.c **** 
 266:/home/rdu/Workspace/project_templates/mcu/stm32_ws/src/libraries/STM32F4xx_StdPeriph_Driver/src/stm32f4xx_hash_sha1.c ****       /* Write the Key */
 267:/home/rdu/Workspace/project_templates/mcu/stm32_ws/src/libraries/STM32F4xx_StdPeriph_Driver/src/stm32f4xx_hash_sha1.c ****       keyaddr = (uint32_t)Key;
 464              		.loc 1 267 0
 465 0154 039B     		ldr	r3, [sp, #12]
 466 0156 1B93     		str	r3, [sp, #108]
 268:/home/rdu/Workspace/project_templates/mcu/stm32_ws/src/libraries/STM32F4xx_StdPeriph_Driver/src/stm32f4xx_hash_sha1.c ****       for(i=0; i<Keylen; i+=4)
 467              		.loc 1 268 0
 468 0158 0023     		movs	r3, #0
 469 015a 1D93     		str	r3, [sp, #116]
 470 015c 0AE0     		b	.L28
 471              	.L29:
 269:/home/rdu/Workspace/project_templates/mcu/stm32_ws/src/libraries/STM32F4xx_StdPeriph_Driver/src/stm32f4xx_hash_sha1.c ****       {
 270:/home/rdu/Workspace/project_templates/mcu/stm32_ws/src/libraries/STM32F4xx_StdPeriph_Driver/src/stm32f4xx_hash_sha1.c ****         HASH_DataIn(*(uint32_t*)keyaddr);
 472              		.loc 1 270 0 discriminator 3
 473 015e 1B9B     		ldr	r3, [sp, #108]
 474 0160 1B68     		ldr	r3, [r3]
 475 0162 1846     		mov	r0, r3
 476 0164 FFF7FEFF 		bl	HASH_DataIn
 271:/home/rdu/Workspace/project_templates/mcu/stm32_ws/src/libraries/STM32F4xx_StdPeriph_Driver/src/stm32f4xx_hash_sha1.c ****         keyaddr+=4;
 477              		.loc 1 271 0 discriminator 3
 478 0168 1B9B     		ldr	r3, [sp, #108]
 479 016a 0433     		adds	r3, r3, #4
 480 016c 1B93     		str	r3, [sp, #108]
 268:/home/rdu/Workspace/project_templates/mcu/stm32_ws/src/libraries/STM32F4xx_StdPeriph_Driver/src/stm32f4xx_hash_sha1.c ****       for(i=0; i<Keylen; i+=4)
 481              		.loc 1 268 0 discriminator 3
 482 016e 1D9B     		ldr	r3, [sp, #116]
 483 0170 0433     		adds	r3, r3, #4
 484 0172 1D93     		str	r3, [sp, #116]
 485              	.L28:
 268:/home/rdu/Workspace/project_templates/mcu/stm32_ws/src/libraries/STM32F4xx_StdPeriph_Driver/src/stm32f4xx_hash_sha1.c ****       for(i=0; i<Keylen; i+=4)
 486              		.loc 1 268 0 is_stmt 0 discriminator 1
 487 0174 1D9A     		ldr	r2, [sp, #116]
 488 0176 029B     		ldr	r3, [sp, #8]
 489 0178 9A42     		cmp	r2, r3
 490 017a F0D3     		bcc	.L29
 272:/home/rdu/Workspace/project_templates/mcu/stm32_ws/src/libraries/STM32F4xx_StdPeriph_Driver/src/stm32f4xx_hash_sha1.c ****       }
 273:/home/rdu/Workspace/project_templates/mcu/stm32_ws/src/libraries/STM32F4xx_StdPeriph_Driver/src/stm32f4xx_hash_sha1.c **** 
 274:/home/rdu/Workspace/project_templates/mcu/stm32_ws/src/libraries/STM32F4xx_StdPeriph_Driver/src/stm32f4xx_hash_sha1.c ****       /* Start the HASH processor */
 275:/home/rdu/Workspace/project_templates/mcu/stm32_ws/src/libraries/STM32F4xx_StdPeriph_Driver/src/stm32f4xx_hash_sha1.c ****       HASH_StartDigest();
 491              		.loc 1 275 0 is_stmt 1
 492 017c FFF7FEFF 		bl	HASH_StartDigest
 276:/home/rdu/Workspace/project_templates/mcu/stm32_ws/src/libraries/STM32F4xx_StdPeriph_Driver/src/stm32f4xx_hash_sha1.c **** 
 277:/home/rdu/Workspace/project_templates/mcu/stm32_ws/src/libraries/STM32F4xx_StdPeriph_Driver/src/stm32f4xx_hash_sha1.c ****       /* wait until the Busy flag is RESET */
 278:/home/rdu/Workspace/project_templates/mcu/stm32_ws/src/libraries/STM32F4xx_StdPeriph_Driver/src/stm32f4xx_hash_sha1.c ****       counter =0;
 493              		.loc 1 278 0
 494 0180 0023     		movs	r3, #0
 495 0182 0593     		str	r3, [sp, #20]
 496              	.L31:
 279:/home/rdu/Workspace/project_templates/mcu/stm32_ws/src/libraries/STM32F4xx_StdPeriph_Driver/src/stm32f4xx_hash_sha1.c ****       do
 280:/home/rdu/Workspace/project_templates/mcu/stm32_ws/src/libraries/STM32F4xx_StdPeriph_Driver/src/stm32f4xx_hash_sha1.c ****       {
 281:/home/rdu/Workspace/project_templates/mcu/stm32_ws/src/libraries/STM32F4xx_StdPeriph_Driver/src/stm32f4xx_hash_sha1.c ****         busystatus = HASH_GetFlagStatus(HASH_FLAG_BUSY);
 497              		.loc 1 281 0 discriminator 2
 498 0184 0820     		movs	r0, #8
 499 0186 FFF7FEFF 		bl	HASH_GetFlagStatus
 500 018a 0346     		mov	r3, r0
 501 018c 1993     		str	r3, [sp, #100]
 282:/home/rdu/Workspace/project_templates/mcu/stm32_ws/src/libraries/STM32F4xx_StdPeriph_Driver/src/stm32f4xx_hash_sha1.c ****         counter++;
 502              		.loc 1 282 0 discriminator 2
 503 018e 059B     		ldr	r3, [sp, #20]
 504 0190 0133     		adds	r3, r3, #1
 505 0192 0593     		str	r3, [sp, #20]
 283:/home/rdu/Workspace/project_templates/mcu/stm32_ws/src/libraries/STM32F4xx_StdPeriph_Driver/src/stm32f4xx_hash_sha1.c ****       }while ((counter != SHA1BUSY_TIMEOUT) && (busystatus != RESET));
 506              		.loc 1 283 0 discriminator 2
 507 0194 059B     		ldr	r3, [sp, #20]
 508 0196 B3F5803F 		cmp	r3, #65536
 509 019a 02D0     		beq	.L30
 510              		.loc 1 283 0 is_stmt 0 discriminator 1
 511 019c 199B     		ldr	r3, [sp, #100]
 512 019e 002B     		cmp	r3, #0
 513 01a0 F0D1     		bne	.L31
 514              	.L30:
 284:/home/rdu/Workspace/project_templates/mcu/stm32_ws/src/libraries/STM32F4xx_StdPeriph_Driver/src/stm32f4xx_hash_sha1.c **** 
 285:/home/rdu/Workspace/project_templates/mcu/stm32_ws/src/libraries/STM32F4xx_StdPeriph_Driver/src/stm32f4xx_hash_sha1.c ****       if (busystatus != RESET)
 515              		.loc 1 285 0 is_stmt 1
 516 01a2 199B     		ldr	r3, [sp, #100]
 517 01a4 002B     		cmp	r3, #0
 518 01a6 03D0     		beq	.L32
 286:/home/rdu/Workspace/project_templates/mcu/stm32_ws/src/libraries/STM32F4xx_StdPeriph_Driver/src/stm32f4xx_hash_sha1.c ****       {
 287:/home/rdu/Workspace/project_templates/mcu/stm32_ws/src/libraries/STM32F4xx_StdPeriph_Driver/src/stm32f4xx_hash_sha1.c ****         status = ERROR;
 519              		.loc 1 287 0
 520 01a8 0023     		movs	r3, #0
 521 01aa 8DF87330 		strb	r3, [sp, #115]
 522 01ae 2DE0     		b	.L22
 523              	.L32:
 288:/home/rdu/Workspace/project_templates/mcu/stm32_ws/src/libraries/STM32F4xx_StdPeriph_Driver/src/stm32f4xx_hash_sha1.c ****       }
 289:/home/rdu/Workspace/project_templates/mcu/stm32_ws/src/libraries/STM32F4xx_StdPeriph_Driver/src/stm32f4xx_hash_sha1.c ****       else
 290:/home/rdu/Workspace/project_templates/mcu/stm32_ws/src/libraries/STM32F4xx_StdPeriph_Driver/src/stm32f4xx_hash_sha1.c ****       {
 291:/home/rdu/Workspace/project_templates/mcu/stm32_ws/src/libraries/STM32F4xx_StdPeriph_Driver/src/stm32f4xx_hash_sha1.c ****         /* Read the message digest */
 292:/home/rdu/Workspace/project_templates/mcu/stm32_ws/src/libraries/STM32F4xx_StdPeriph_Driver/src/stm32f4xx_hash_sha1.c ****         HASH_GetDigest(&SHA1_MessageDigest);
 524              		.loc 1 292 0
 525 01b0 07AB     		add	r3, sp, #28
 526 01b2 1846     		mov	r0, r3
 527 01b4 FFF7FEFF 		bl	HASH_GetDigest
 293:/home/rdu/Workspace/project_templates/mcu/stm32_ws/src/libraries/STM32F4xx_StdPeriph_Driver/src/stm32f4xx_hash_sha1.c ****         *(uint32_t*)(outputaddr)  = __REV(SHA1_MessageDigest.Data[0]);
 528              		.loc 1 293 0
 529 01b8 079A     		ldr	r2, [sp, #28]
 530 01ba 189B     		ldr	r3, [sp, #96]
 531 01bc 1392     		str	r2, [sp, #76]
 532              	.LBB32:
 533              	.LBB33:
 534              		.loc 2 498 0
 535 01be 139A     		ldr	r2, [sp, #76]
 536 01c0 12BA     		rev	r2, r2
 537              	.LBE33:
 538              	.LBE32:
 539              		.loc 1 293 0
 540 01c2 1A60     		str	r2, [r3]
 294:/home/rdu/Workspace/project_templates/mcu/stm32_ws/src/libraries/STM32F4xx_StdPeriph_Driver/src/stm32f4xx_hash_sha1.c ****         outputaddr+=4;
 541              		.loc 1 294 0
 542 01c4 189B     		ldr	r3, [sp, #96]
 543 01c6 0433     		adds	r3, r3, #4
 544 01c8 1893     		str	r3, [sp, #96]
 295:/home/rdu/Workspace/project_templates/mcu/stm32_ws/src/libraries/STM32F4xx_StdPeriph_Driver/src/stm32f4xx_hash_sha1.c ****         *(uint32_t*)(outputaddr)  = __REV(SHA1_MessageDigest.Data[1]);
 545              		.loc 1 295 0
 546 01ca 089A     		ldr	r2, [sp, #32]
 547 01cc 189B     		ldr	r3, [sp, #96]
 548 01ce 1492     		str	r2, [sp, #80]
 549              	.LBB34:
 550              	.LBB35:
 551              		.loc 2 498 0
 552 01d0 149A     		ldr	r2, [sp, #80]
 553 01d2 12BA     		rev	r2, r2
 554              	.LBE35:
 555              	.LBE34:
 556              		.loc 1 295 0
 557 01d4 1A60     		str	r2, [r3]
 296:/home/rdu/Workspace/project_templates/mcu/stm32_ws/src/libraries/STM32F4xx_StdPeriph_Driver/src/stm32f4xx_hash_sha1.c ****         outputaddr+=4;
 558              		.loc 1 296 0
 559 01d6 189B     		ldr	r3, [sp, #96]
 560 01d8 0433     		adds	r3, r3, #4
 561 01da 1893     		str	r3, [sp, #96]
 297:/home/rdu/Workspace/project_templates/mcu/stm32_ws/src/libraries/STM32F4xx_StdPeriph_Driver/src/stm32f4xx_hash_sha1.c ****         *(uint32_t*)(outputaddr)  = __REV(SHA1_MessageDigest.Data[2]);
 562              		.loc 1 297 0
 563 01dc 099A     		ldr	r2, [sp, #36]
 564 01de 189B     		ldr	r3, [sp, #96]
 565 01e0 1592     		str	r2, [sp, #84]
 566              	.LBB36:
 567              	.LBB37:
 568              		.loc 2 498 0
 569 01e2 159A     		ldr	r2, [sp, #84]
 570 01e4 12BA     		rev	r2, r2
 571              	.LBE37:
 572              	.LBE36:
 573              		.loc 1 297 0
 574 01e6 1A60     		str	r2, [r3]
 298:/home/rdu/Workspace/project_templates/mcu/stm32_ws/src/libraries/STM32F4xx_StdPeriph_Driver/src/stm32f4xx_hash_sha1.c ****         outputaddr+=4;
 575              		.loc 1 298 0
 576 01e8 189B     		ldr	r3, [sp, #96]
 577 01ea 0433     		adds	r3, r3, #4
 578 01ec 1893     		str	r3, [sp, #96]
 299:/home/rdu/Workspace/project_templates/mcu/stm32_ws/src/libraries/STM32F4xx_StdPeriph_Driver/src/stm32f4xx_hash_sha1.c ****         *(uint32_t*)(outputaddr)  = __REV(SHA1_MessageDigest.Data[3]);
 579              		.loc 1 299 0
 580 01ee 0A9A     		ldr	r2, [sp, #40]
 581 01f0 189B     		ldr	r3, [sp, #96]
 582 01f2 1692     		str	r2, [sp, #88]
 583              	.LBB38:
 584              	.LBB39:
 585              		.loc 2 498 0
 586 01f4 169A     		ldr	r2, [sp, #88]
 587 01f6 12BA     		rev	r2, r2
 588              	.LBE39:
 589              	.LBE38:
 590              		.loc 1 299 0
 591 01f8 1A60     		str	r2, [r3]
 300:/home/rdu/Workspace/project_templates/mcu/stm32_ws/src/libraries/STM32F4xx_StdPeriph_Driver/src/stm32f4xx_hash_sha1.c ****         outputaddr+=4;
 592              		.loc 1 300 0
 593 01fa 189B     		ldr	r3, [sp, #96]
 594 01fc 0433     		adds	r3, r3, #4
 595 01fe 1893     		str	r3, [sp, #96]
 301:/home/rdu/Workspace/project_templates/mcu/stm32_ws/src/libraries/STM32F4xx_StdPeriph_Driver/src/stm32f4xx_hash_sha1.c ****         *(uint32_t*)(outputaddr)  = __REV(SHA1_MessageDigest.Data[4]);
 596              		.loc 1 301 0
 597 0200 0B9A     		ldr	r2, [sp, #44]
 598 0202 189B     		ldr	r3, [sp, #96]
 599 0204 1792     		str	r2, [sp, #92]
 600              	.LBB40:
 601              	.LBB41:
 602              		.loc 2 498 0
 603 0206 179A     		ldr	r2, [sp, #92]
 604 0208 12BA     		rev	r2, r2
 605              	.LBE41:
 606              	.LBE40:
 607              		.loc 1 301 0
 608 020a 1A60     		str	r2, [r3]
 609              	.L22:
 302:/home/rdu/Workspace/project_templates/mcu/stm32_ws/src/libraries/STM32F4xx_StdPeriph_Driver/src/stm32f4xx_hash_sha1.c ****       }
 303:/home/rdu/Workspace/project_templates/mcu/stm32_ws/src/libraries/STM32F4xx_StdPeriph_Driver/src/stm32f4xx_hash_sha1.c ****     }  
 304:/home/rdu/Workspace/project_templates/mcu/stm32_ws/src/libraries/STM32F4xx_StdPeriph_Driver/src/stm32f4xx_hash_sha1.c ****   }
 305:/home/rdu/Workspace/project_templates/mcu/stm32_ws/src/libraries/STM32F4xx_StdPeriph_Driver/src/stm32f4xx_hash_sha1.c ****   return status;  
 610              		.loc 1 305 0
 611 020c 9DF87330 		ldrb	r3, [sp, #115]	@ zero_extendqisi2
 306:/home/rdu/Workspace/project_templates/mcu/stm32_ws/src/libraries/STM32F4xx_StdPeriph_Driver/src/stm32f4xx_hash_sha1.c **** }
 612              		.loc 1 306 0
 613 0210 1846     		mov	r0, r3
 614 0212 1FB0     		add	sp, sp, #124
 615              	.LCFI5:
 616              		.cfi_def_cfa_offset 4
 617              		@ sp needed
 618 0214 5DF804FB 		ldr	pc, [sp], #4
 619              		.cfi_endproc
 620              	.LFE124:
 622              		.text
 623              	.Letext0:
 624              		.file 3 "/home/rdu/Software/gcc-arm-none-eabi-7-2017-q4-major/arm-none-eabi/include/machine/_defau
 625              		.file 4 "/home/rdu/Software/gcc-arm-none-eabi-7-2017-q4-major/arm-none-eabi/include/sys/_stdint.h"
 626              		.file 5 "/home/rdu/Workspace/project_templates/mcu/stm32_ws/src/libraries/CMSIS/CMSIS_STM32F4/Incl
 627              		.file 6 "/home/rdu/Workspace/project_templates/mcu/stm32_ws/src/libraries/CMSIS/CMSIS_STM32F4/Devi
 628              		.file 7 "/home/rdu/Workspace/project_templates/mcu/stm32_ws/src/libraries/CMSIS/CMSIS_STM32F4/Devi
 629              		.file 8 "/home/rdu/Workspace/project_templates/mcu/stm32_ws/src/libraries/STM32F4xx_StdPeriph_Driv
DEFINED SYMBOLS
                            *ABS*:0000000000000000 stm32f4xx_hash_sha1.c
     /tmp/ccBseQ0Q.s:16     .text.HASH_SHA1:0000000000000000 $t
     /tmp/ccBseQ0Q.s:23     .text.HASH_SHA1:0000000000000000 HASH_SHA1
     /tmp/ccBseQ0Q.s:243    .text.HMAC_SHA1:0000000000000000 $t
     /tmp/ccBseQ0Q.s:250    .text.HMAC_SHA1:0000000000000000 HMAC_SHA1

UNDEFINED SYMBOLS
HASH_DeInit
HASH_Init
HASH_SetLastWordValidBitsNbr
HASH_DataIn
HASH_StartDigest
HASH_GetFlagStatus
HASH_GetDigest
