   1              		.cpu cortex-m4
   2              		.eabi_attribute 27, 1
   3              		.eabi_attribute 28, 1
   4              		.eabi_attribute 23, 1
   5              		.eabi_attribute 24, 1
   6              		.eabi_attribute 25, 1
   7              		.eabi_attribute 26, 1
   8              		.eabi_attribute 30, 6
   9              		.eabi_attribute 34, 1
  10              		.eabi_attribute 18, 4
  11              		.file	"stm32f4xx_cryp_aes.c"
  12              		.text
  13              	.Ltext0:
  14              		.cfi_sections	.debug_frame
  15              		.section	.text.CRYP_AES_ECB,"ax",%progbits
  16              		.align	1
  17              		.global	CRYP_AES_ECB
  18              		.syntax unified
  19              		.thumb
  20              		.thumb_func
  21              		.fpu fpv4-sp-d16
  23              	CRYP_AES_ECB:
  24              	.LFB123:
  25              		.file 1 "/home/rdu/Workspace/project_templates/mcu/stm32_ws/src/libraries/STM32F4xx_StdPeriph_Driv
   1:/home/rdu/Workspace/project_templates/mcu/stm32_ws/src/libraries/STM32F4xx_StdPeriph_Driver/src/stm32f4xx_cryp_aes.c **** /**
   2:/home/rdu/Workspace/project_templates/mcu/stm32_ws/src/libraries/STM32F4xx_StdPeriph_Driver/src/stm32f4xx_cryp_aes.c ****   ******************************************************************************
   3:/home/rdu/Workspace/project_templates/mcu/stm32_ws/src/libraries/STM32F4xx_StdPeriph_Driver/src/stm32f4xx_cryp_aes.c ****   * @file    stm32f4xx_cryp_aes.c
   4:/home/rdu/Workspace/project_templates/mcu/stm32_ws/src/libraries/STM32F4xx_StdPeriph_Driver/src/stm32f4xx_cryp_aes.c ****   * @author  MCD Application Team
   5:/home/rdu/Workspace/project_templates/mcu/stm32_ws/src/libraries/STM32F4xx_StdPeriph_Driver/src/stm32f4xx_cryp_aes.c ****   * @version V1.8.0
   6:/home/rdu/Workspace/project_templates/mcu/stm32_ws/src/libraries/STM32F4xx_StdPeriph_Driver/src/stm32f4xx_cryp_aes.c ****   * @date    04-November-2016
   7:/home/rdu/Workspace/project_templates/mcu/stm32_ws/src/libraries/STM32F4xx_StdPeriph_Driver/src/stm32f4xx_cryp_aes.c ****   * @brief   This file provides high level functions to encrypt and decrypt an 
   8:/home/rdu/Workspace/project_templates/mcu/stm32_ws/src/libraries/STM32F4xx_StdPeriph_Driver/src/stm32f4xx_cryp_aes.c ****   *          input message using AES in ECB/CBC/CTR/GCM/CCM modes.
   9:/home/rdu/Workspace/project_templates/mcu/stm32_ws/src/libraries/STM32F4xx_StdPeriph_Driver/src/stm32f4xx_cryp_aes.c ****   *          It uses the stm32f4xx_cryp.c/.h drivers to access the STM32F4xx CRYP
  10:/home/rdu/Workspace/project_templates/mcu/stm32_ws/src/libraries/STM32F4xx_StdPeriph_Driver/src/stm32f4xx_cryp_aes.c ****   *          peripheral.
  11:/home/rdu/Workspace/project_templates/mcu/stm32_ws/src/libraries/STM32F4xx_StdPeriph_Driver/src/stm32f4xx_cryp_aes.c ****   *          AES-ECB/CBC/CTR/GCM/CCM modes are available on STM32F437x Devices.
  12:/home/rdu/Workspace/project_templates/mcu/stm32_ws/src/libraries/STM32F4xx_StdPeriph_Driver/src/stm32f4xx_cryp_aes.c ****   *          For STM32F41xx Devices, only AES-ECB/CBC/CTR modes are available.
  13:/home/rdu/Workspace/project_templates/mcu/stm32_ws/src/libraries/STM32F4xx_StdPeriph_Driver/src/stm32f4xx_cryp_aes.c ****   *
  14:/home/rdu/Workspace/project_templates/mcu/stm32_ws/src/libraries/STM32F4xx_StdPeriph_Driver/src/stm32f4xx_cryp_aes.c **** @verbatim
  15:/home/rdu/Workspace/project_templates/mcu/stm32_ws/src/libraries/STM32F4xx_StdPeriph_Driver/src/stm32f4xx_cryp_aes.c ****  ===================================================================
  16:/home/rdu/Workspace/project_templates/mcu/stm32_ws/src/libraries/STM32F4xx_StdPeriph_Driver/src/stm32f4xx_cryp_aes.c ****                   ##### How to use this driver #####
  17:/home/rdu/Workspace/project_templates/mcu/stm32_ws/src/libraries/STM32F4xx_StdPeriph_Driver/src/stm32f4xx_cryp_aes.c ****  ===================================================================
  18:/home/rdu/Workspace/project_templates/mcu/stm32_ws/src/libraries/STM32F4xx_StdPeriph_Driver/src/stm32f4xx_cryp_aes.c ****  [..]
  19:/home/rdu/Workspace/project_templates/mcu/stm32_ws/src/libraries/STM32F4xx_StdPeriph_Driver/src/stm32f4xx_cryp_aes.c ****    (#) Enable The CRYP controller clock using 
  20:/home/rdu/Workspace/project_templates/mcu/stm32_ws/src/libraries/STM32F4xx_StdPeriph_Driver/src/stm32f4xx_cryp_aes.c ****       RCC_AHB2PeriphClockCmd(RCC_AHB2Periph_CRYP, ENABLE); function.
  21:/home/rdu/Workspace/project_templates/mcu/stm32_ws/src/libraries/STM32F4xx_StdPeriph_Driver/src/stm32f4xx_cryp_aes.c ****   
  22:/home/rdu/Workspace/project_templates/mcu/stm32_ws/src/libraries/STM32F4xx_StdPeriph_Driver/src/stm32f4xx_cryp_aes.c ****    (#) Encrypt and decrypt using AES in ECB Mode using CRYP_AES_ECB() function.
  23:/home/rdu/Workspace/project_templates/mcu/stm32_ws/src/libraries/STM32F4xx_StdPeriph_Driver/src/stm32f4xx_cryp_aes.c ****   
  24:/home/rdu/Workspace/project_templates/mcu/stm32_ws/src/libraries/STM32F4xx_StdPeriph_Driver/src/stm32f4xx_cryp_aes.c ****    (#) Encrypt and decrypt using AES in CBC Mode using CRYP_AES_CBC() function.
  25:/home/rdu/Workspace/project_templates/mcu/stm32_ws/src/libraries/STM32F4xx_StdPeriph_Driver/src/stm32f4xx_cryp_aes.c ****   
  26:/home/rdu/Workspace/project_templates/mcu/stm32_ws/src/libraries/STM32F4xx_StdPeriph_Driver/src/stm32f4xx_cryp_aes.c ****    (#) Encrypt and decrypt using AES in CTR Mode using CRYP_AES_CTR() function.
  27:/home/rdu/Workspace/project_templates/mcu/stm32_ws/src/libraries/STM32F4xx_StdPeriph_Driver/src/stm32f4xx_cryp_aes.c **** 
  28:/home/rdu/Workspace/project_templates/mcu/stm32_ws/src/libraries/STM32F4xx_StdPeriph_Driver/src/stm32f4xx_cryp_aes.c ****    (#) Encrypt and decrypt using AES in GCM Mode using CRYP_AES_GCM() function.
  29:/home/rdu/Workspace/project_templates/mcu/stm32_ws/src/libraries/STM32F4xx_StdPeriph_Driver/src/stm32f4xx_cryp_aes.c ****    
  30:/home/rdu/Workspace/project_templates/mcu/stm32_ws/src/libraries/STM32F4xx_StdPeriph_Driver/src/stm32f4xx_cryp_aes.c ****    (#) Encrypt and decrypt using AES in CCM Mode using CRYP_AES_CCM() function.
  31:/home/rdu/Workspace/project_templates/mcu/stm32_ws/src/libraries/STM32F4xx_StdPeriph_Driver/src/stm32f4xx_cryp_aes.c ****      
  32:/home/rdu/Workspace/project_templates/mcu/stm32_ws/src/libraries/STM32F4xx_StdPeriph_Driver/src/stm32f4xx_cryp_aes.c **** @endverbatim
  33:/home/rdu/Workspace/project_templates/mcu/stm32_ws/src/libraries/STM32F4xx_StdPeriph_Driver/src/stm32f4xx_cryp_aes.c ****   *
  34:/home/rdu/Workspace/project_templates/mcu/stm32_ws/src/libraries/STM32F4xx_StdPeriph_Driver/src/stm32f4xx_cryp_aes.c ****   ******************************************************************************
  35:/home/rdu/Workspace/project_templates/mcu/stm32_ws/src/libraries/STM32F4xx_StdPeriph_Driver/src/stm32f4xx_cryp_aes.c ****   * @attention
  36:/home/rdu/Workspace/project_templates/mcu/stm32_ws/src/libraries/STM32F4xx_StdPeriph_Driver/src/stm32f4xx_cryp_aes.c ****   *
  37:/home/rdu/Workspace/project_templates/mcu/stm32_ws/src/libraries/STM32F4xx_StdPeriph_Driver/src/stm32f4xx_cryp_aes.c ****   * <h2><center>&copy; COPYRIGHT 2016 STMicroelectronics</center></h2>
  38:/home/rdu/Workspace/project_templates/mcu/stm32_ws/src/libraries/STM32F4xx_StdPeriph_Driver/src/stm32f4xx_cryp_aes.c ****   *
  39:/home/rdu/Workspace/project_templates/mcu/stm32_ws/src/libraries/STM32F4xx_StdPeriph_Driver/src/stm32f4xx_cryp_aes.c ****   * Licensed under MCD-ST Liberty SW License Agreement V2, (the "License");
  40:/home/rdu/Workspace/project_templates/mcu/stm32_ws/src/libraries/STM32F4xx_StdPeriph_Driver/src/stm32f4xx_cryp_aes.c ****   * You may not use this file except in compliance with the License.
  41:/home/rdu/Workspace/project_templates/mcu/stm32_ws/src/libraries/STM32F4xx_StdPeriph_Driver/src/stm32f4xx_cryp_aes.c ****   * You may obtain a copy of the License at:
  42:/home/rdu/Workspace/project_templates/mcu/stm32_ws/src/libraries/STM32F4xx_StdPeriph_Driver/src/stm32f4xx_cryp_aes.c ****   *
  43:/home/rdu/Workspace/project_templates/mcu/stm32_ws/src/libraries/STM32F4xx_StdPeriph_Driver/src/stm32f4xx_cryp_aes.c ****   *        http://www.st.com/software_license_agreement_liberty_v2
  44:/home/rdu/Workspace/project_templates/mcu/stm32_ws/src/libraries/STM32F4xx_StdPeriph_Driver/src/stm32f4xx_cryp_aes.c ****   *
  45:/home/rdu/Workspace/project_templates/mcu/stm32_ws/src/libraries/STM32F4xx_StdPeriph_Driver/src/stm32f4xx_cryp_aes.c ****   * Unless required by applicable law or agreed to in writing, software 
  46:/home/rdu/Workspace/project_templates/mcu/stm32_ws/src/libraries/STM32F4xx_StdPeriph_Driver/src/stm32f4xx_cryp_aes.c ****   * distributed under the License is distributed on an "AS IS" BASIS, 
  47:/home/rdu/Workspace/project_templates/mcu/stm32_ws/src/libraries/STM32F4xx_StdPeriph_Driver/src/stm32f4xx_cryp_aes.c ****   * WITHOUT WARRANTIES OR CONDITIONS OF ANY KIND, either express or implied.
  48:/home/rdu/Workspace/project_templates/mcu/stm32_ws/src/libraries/STM32F4xx_StdPeriph_Driver/src/stm32f4xx_cryp_aes.c ****   * See the License for the specific language governing permissions and
  49:/home/rdu/Workspace/project_templates/mcu/stm32_ws/src/libraries/STM32F4xx_StdPeriph_Driver/src/stm32f4xx_cryp_aes.c ****   * limitations under the License.
  50:/home/rdu/Workspace/project_templates/mcu/stm32_ws/src/libraries/STM32F4xx_StdPeriph_Driver/src/stm32f4xx_cryp_aes.c ****   *
  51:/home/rdu/Workspace/project_templates/mcu/stm32_ws/src/libraries/STM32F4xx_StdPeriph_Driver/src/stm32f4xx_cryp_aes.c ****   ******************************************************************************  
  52:/home/rdu/Workspace/project_templates/mcu/stm32_ws/src/libraries/STM32F4xx_StdPeriph_Driver/src/stm32f4xx_cryp_aes.c ****   */
  53:/home/rdu/Workspace/project_templates/mcu/stm32_ws/src/libraries/STM32F4xx_StdPeriph_Driver/src/stm32f4xx_cryp_aes.c **** 
  54:/home/rdu/Workspace/project_templates/mcu/stm32_ws/src/libraries/STM32F4xx_StdPeriph_Driver/src/stm32f4xx_cryp_aes.c **** /* Includes ------------------------------------------------------------------*/
  55:/home/rdu/Workspace/project_templates/mcu/stm32_ws/src/libraries/STM32F4xx_StdPeriph_Driver/src/stm32f4xx_cryp_aes.c **** #include "stm32f4xx_cryp.h"
  56:/home/rdu/Workspace/project_templates/mcu/stm32_ws/src/libraries/STM32F4xx_StdPeriph_Driver/src/stm32f4xx_cryp_aes.c **** 
  57:/home/rdu/Workspace/project_templates/mcu/stm32_ws/src/libraries/STM32F4xx_StdPeriph_Driver/src/stm32f4xx_cryp_aes.c **** /** @addtogroup STM32F4xx_StdPeriph_Driver
  58:/home/rdu/Workspace/project_templates/mcu/stm32_ws/src/libraries/STM32F4xx_StdPeriph_Driver/src/stm32f4xx_cryp_aes.c ****   * @{
  59:/home/rdu/Workspace/project_templates/mcu/stm32_ws/src/libraries/STM32F4xx_StdPeriph_Driver/src/stm32f4xx_cryp_aes.c ****   */
  60:/home/rdu/Workspace/project_templates/mcu/stm32_ws/src/libraries/STM32F4xx_StdPeriph_Driver/src/stm32f4xx_cryp_aes.c **** 
  61:/home/rdu/Workspace/project_templates/mcu/stm32_ws/src/libraries/STM32F4xx_StdPeriph_Driver/src/stm32f4xx_cryp_aes.c **** /** @defgroup CRYP 
  62:/home/rdu/Workspace/project_templates/mcu/stm32_ws/src/libraries/STM32F4xx_StdPeriph_Driver/src/stm32f4xx_cryp_aes.c ****   * @brief CRYP driver modules
  63:/home/rdu/Workspace/project_templates/mcu/stm32_ws/src/libraries/STM32F4xx_StdPeriph_Driver/src/stm32f4xx_cryp_aes.c ****   * @{
  64:/home/rdu/Workspace/project_templates/mcu/stm32_ws/src/libraries/STM32F4xx_StdPeriph_Driver/src/stm32f4xx_cryp_aes.c ****   */
  65:/home/rdu/Workspace/project_templates/mcu/stm32_ws/src/libraries/STM32F4xx_StdPeriph_Driver/src/stm32f4xx_cryp_aes.c **** 
  66:/home/rdu/Workspace/project_templates/mcu/stm32_ws/src/libraries/STM32F4xx_StdPeriph_Driver/src/stm32f4xx_cryp_aes.c **** /* Private typedef -----------------------------------------------------------*/
  67:/home/rdu/Workspace/project_templates/mcu/stm32_ws/src/libraries/STM32F4xx_StdPeriph_Driver/src/stm32f4xx_cryp_aes.c **** /* Private define ------------------------------------------------------------*/
  68:/home/rdu/Workspace/project_templates/mcu/stm32_ws/src/libraries/STM32F4xx_StdPeriph_Driver/src/stm32f4xx_cryp_aes.c **** #define AESBUSY_TIMEOUT    ((uint32_t) 0x00010000)
  69:/home/rdu/Workspace/project_templates/mcu/stm32_ws/src/libraries/STM32F4xx_StdPeriph_Driver/src/stm32f4xx_cryp_aes.c **** 
  70:/home/rdu/Workspace/project_templates/mcu/stm32_ws/src/libraries/STM32F4xx_StdPeriph_Driver/src/stm32f4xx_cryp_aes.c **** /* Private macro -------------------------------------------------------------*/
  71:/home/rdu/Workspace/project_templates/mcu/stm32_ws/src/libraries/STM32F4xx_StdPeriph_Driver/src/stm32f4xx_cryp_aes.c **** /* Private variables ---------------------------------------------------------*/
  72:/home/rdu/Workspace/project_templates/mcu/stm32_ws/src/libraries/STM32F4xx_StdPeriph_Driver/src/stm32f4xx_cryp_aes.c **** /* Private function prototypes -----------------------------------------------*/
  73:/home/rdu/Workspace/project_templates/mcu/stm32_ws/src/libraries/STM32F4xx_StdPeriph_Driver/src/stm32f4xx_cryp_aes.c **** /* Private functions ---------------------------------------------------------*/
  74:/home/rdu/Workspace/project_templates/mcu/stm32_ws/src/libraries/STM32F4xx_StdPeriph_Driver/src/stm32f4xx_cryp_aes.c **** 
  75:/home/rdu/Workspace/project_templates/mcu/stm32_ws/src/libraries/STM32F4xx_StdPeriph_Driver/src/stm32f4xx_cryp_aes.c **** /** @defgroup CRYP_Private_Functions
  76:/home/rdu/Workspace/project_templates/mcu/stm32_ws/src/libraries/STM32F4xx_StdPeriph_Driver/src/stm32f4xx_cryp_aes.c ****   * @{
  77:/home/rdu/Workspace/project_templates/mcu/stm32_ws/src/libraries/STM32F4xx_StdPeriph_Driver/src/stm32f4xx_cryp_aes.c ****   */ 
  78:/home/rdu/Workspace/project_templates/mcu/stm32_ws/src/libraries/STM32F4xx_StdPeriph_Driver/src/stm32f4xx_cryp_aes.c **** 
  79:/home/rdu/Workspace/project_templates/mcu/stm32_ws/src/libraries/STM32F4xx_StdPeriph_Driver/src/stm32f4xx_cryp_aes.c **** /** @defgroup CRYP_Group6 High Level AES functions
  80:/home/rdu/Workspace/project_templates/mcu/stm32_ws/src/libraries/STM32F4xx_StdPeriph_Driver/src/stm32f4xx_cryp_aes.c ****  *  @brief   High Level AES functions 
  81:/home/rdu/Workspace/project_templates/mcu/stm32_ws/src/libraries/STM32F4xx_StdPeriph_Driver/src/stm32f4xx_cryp_aes.c ****  *
  82:/home/rdu/Workspace/project_templates/mcu/stm32_ws/src/libraries/STM32F4xx_StdPeriph_Driver/src/stm32f4xx_cryp_aes.c **** @verbatim   
  83:/home/rdu/Workspace/project_templates/mcu/stm32_ws/src/libraries/STM32F4xx_StdPeriph_Driver/src/stm32f4xx_cryp_aes.c ****  ===============================================================================
  84:/home/rdu/Workspace/project_templates/mcu/stm32_ws/src/libraries/STM32F4xx_StdPeriph_Driver/src/stm32f4xx_cryp_aes.c ****                        ##### High Level AES functions #####
  85:/home/rdu/Workspace/project_templates/mcu/stm32_ws/src/libraries/STM32F4xx_StdPeriph_Driver/src/stm32f4xx_cryp_aes.c ****  ===============================================================================
  86:/home/rdu/Workspace/project_templates/mcu/stm32_ws/src/libraries/STM32F4xx_StdPeriph_Driver/src/stm32f4xx_cryp_aes.c **** 
  87:/home/rdu/Workspace/project_templates/mcu/stm32_ws/src/libraries/STM32F4xx_StdPeriph_Driver/src/stm32f4xx_cryp_aes.c **** @endverbatim
  88:/home/rdu/Workspace/project_templates/mcu/stm32_ws/src/libraries/STM32F4xx_StdPeriph_Driver/src/stm32f4xx_cryp_aes.c ****   * @{
  89:/home/rdu/Workspace/project_templates/mcu/stm32_ws/src/libraries/STM32F4xx_StdPeriph_Driver/src/stm32f4xx_cryp_aes.c ****   */
  90:/home/rdu/Workspace/project_templates/mcu/stm32_ws/src/libraries/STM32F4xx_StdPeriph_Driver/src/stm32f4xx_cryp_aes.c **** 
  91:/home/rdu/Workspace/project_templates/mcu/stm32_ws/src/libraries/STM32F4xx_StdPeriph_Driver/src/stm32f4xx_cryp_aes.c **** /**
  92:/home/rdu/Workspace/project_templates/mcu/stm32_ws/src/libraries/STM32F4xx_StdPeriph_Driver/src/stm32f4xx_cryp_aes.c ****   * @brief  Encrypt and decrypt using AES in ECB Mode
  93:/home/rdu/Workspace/project_templates/mcu/stm32_ws/src/libraries/STM32F4xx_StdPeriph_Driver/src/stm32f4xx_cryp_aes.c ****   * @param  Mode: encryption or decryption Mode.
  94:/home/rdu/Workspace/project_templates/mcu/stm32_ws/src/libraries/STM32F4xx_StdPeriph_Driver/src/stm32f4xx_cryp_aes.c ****   *          This parameter can be one of the following values:
  95:/home/rdu/Workspace/project_templates/mcu/stm32_ws/src/libraries/STM32F4xx_StdPeriph_Driver/src/stm32f4xx_cryp_aes.c ****   *            @arg MODE_ENCRYPT: Encryption
  96:/home/rdu/Workspace/project_templates/mcu/stm32_ws/src/libraries/STM32F4xx_StdPeriph_Driver/src/stm32f4xx_cryp_aes.c ****   *            @arg MODE_DECRYPT: Decryption
  97:/home/rdu/Workspace/project_templates/mcu/stm32_ws/src/libraries/STM32F4xx_StdPeriph_Driver/src/stm32f4xx_cryp_aes.c ****   * @param  Key: Key used for AES algorithm.
  98:/home/rdu/Workspace/project_templates/mcu/stm32_ws/src/libraries/STM32F4xx_StdPeriph_Driver/src/stm32f4xx_cryp_aes.c ****   * @param  Keysize: length of the Key, must be a 128, 192 or 256.
  99:/home/rdu/Workspace/project_templates/mcu/stm32_ws/src/libraries/STM32F4xx_StdPeriph_Driver/src/stm32f4xx_cryp_aes.c ****   * @param  Input: pointer to the Input buffer.
 100:/home/rdu/Workspace/project_templates/mcu/stm32_ws/src/libraries/STM32F4xx_StdPeriph_Driver/src/stm32f4xx_cryp_aes.c ****   * @param  Ilength: length of the Input buffer, must be a multiple of 16.
 101:/home/rdu/Workspace/project_templates/mcu/stm32_ws/src/libraries/STM32F4xx_StdPeriph_Driver/src/stm32f4xx_cryp_aes.c ****   * @param  Output: pointer to the returned buffer.
 102:/home/rdu/Workspace/project_templates/mcu/stm32_ws/src/libraries/STM32F4xx_StdPeriph_Driver/src/stm32f4xx_cryp_aes.c ****   * @retval An ErrorStatus enumeration value:
 103:/home/rdu/Workspace/project_templates/mcu/stm32_ws/src/libraries/STM32F4xx_StdPeriph_Driver/src/stm32f4xx_cryp_aes.c ****   *          - SUCCESS: Operation done
 104:/home/rdu/Workspace/project_templates/mcu/stm32_ws/src/libraries/STM32F4xx_StdPeriph_Driver/src/stm32f4xx_cryp_aes.c ****   *          - ERROR: Operation failed
 105:/home/rdu/Workspace/project_templates/mcu/stm32_ws/src/libraries/STM32F4xx_StdPeriph_Driver/src/stm32f4xx_cryp_aes.c ****   */
 106:/home/rdu/Workspace/project_templates/mcu/stm32_ws/src/libraries/STM32F4xx_StdPeriph_Driver/src/stm32f4xx_cryp_aes.c **** ErrorStatus CRYP_AES_ECB(uint8_t Mode, uint8_t* Key, uint16_t Keysize,
 107:/home/rdu/Workspace/project_templates/mcu/stm32_ws/src/libraries/STM32F4xx_StdPeriph_Driver/src/stm32f4xx_cryp_aes.c ****                          uint8_t* Input, uint32_t Ilength, uint8_t* Output)
 108:/home/rdu/Workspace/project_templates/mcu/stm32_ws/src/libraries/STM32F4xx_StdPeriph_Driver/src/stm32f4xx_cryp_aes.c **** {
  26              		.loc 1 108 0
  27              		.cfi_startproc
  28              		@ args = 8, pretend = 0, frame = 168
  29              		@ frame_needed = 0, uses_anonymous_args = 0
  30 0000 10B5     		push	{r4, lr}
  31              	.LCFI0:
  32              		.cfi_def_cfa_offset 8
  33              		.cfi_offset 4, -8
  34              		.cfi_offset 14, -4
  35 0002 AAB0     		sub	sp, sp, #168
  36              	.LCFI1:
  37              		.cfi_def_cfa_offset 176
  38 0004 0291     		str	r1, [sp, #8]
  39 0006 0193     		str	r3, [sp, #4]
  40 0008 0346     		mov	r3, r0
  41 000a 8DF80F30 		strb	r3, [sp, #15]
  42 000e 1346     		mov	r3, r2	@ movhi
  43 0010 ADF80C30 		strh	r3, [sp, #12]	@ movhi
 109:/home/rdu/Workspace/project_templates/mcu/stm32_ws/src/libraries/STM32F4xx_StdPeriph_Driver/src/stm32f4xx_cryp_aes.c ****   CRYP_InitTypeDef AES_CRYP_InitStructure;
 110:/home/rdu/Workspace/project_templates/mcu/stm32_ws/src/libraries/STM32F4xx_StdPeriph_Driver/src/stm32f4xx_cryp_aes.c ****   CRYP_KeyInitTypeDef AES_CRYP_KeyInitStructure;
 111:/home/rdu/Workspace/project_templates/mcu/stm32_ws/src/libraries/STM32F4xx_StdPeriph_Driver/src/stm32f4xx_cryp_aes.c ****   __IO uint32_t counter = 0;
  44              		.loc 1 111 0
  45 0014 0023     		movs	r3, #0
  46 0016 0593     		str	r3, [sp, #20]
 112:/home/rdu/Workspace/project_templates/mcu/stm32_ws/src/libraries/STM32F4xx_StdPeriph_Driver/src/stm32f4xx_cryp_aes.c ****   uint32_t busystatus = 0;
  47              		.loc 1 112 0
  48 0018 0023     		movs	r3, #0
  49 001a 2593     		str	r3, [sp, #148]
 113:/home/rdu/Workspace/project_templates/mcu/stm32_ws/src/libraries/STM32F4xx_StdPeriph_Driver/src/stm32f4xx_cryp_aes.c ****   ErrorStatus status = SUCCESS;
  50              		.loc 1 113 0
  51 001c 0123     		movs	r3, #1
  52 001e 8DF8A730 		strb	r3, [sp, #167]
 114:/home/rdu/Workspace/project_templates/mcu/stm32_ws/src/libraries/STM32F4xx_StdPeriph_Driver/src/stm32f4xx_cryp_aes.c ****   uint32_t keyaddr    = (uint32_t)Key;
  53              		.loc 1 114 0
  54 0022 029B     		ldr	r3, [sp, #8]
  55 0024 2493     		str	r3, [sp, #144]
 115:/home/rdu/Workspace/project_templates/mcu/stm32_ws/src/libraries/STM32F4xx_StdPeriph_Driver/src/stm32f4xx_cryp_aes.c ****   uint32_t inputaddr  = (uint32_t)Input;
  56              		.loc 1 115 0
  57 0026 019B     		ldr	r3, [sp, #4]
  58 0028 2893     		str	r3, [sp, #160]
 116:/home/rdu/Workspace/project_templates/mcu/stm32_ws/src/libraries/STM32F4xx_StdPeriph_Driver/src/stm32f4xx_cryp_aes.c ****   uint32_t outputaddr = (uint32_t)Output;
  59              		.loc 1 116 0
  60 002a 2D9B     		ldr	r3, [sp, #180]
  61 002c 2793     		str	r3, [sp, #156]
 117:/home/rdu/Workspace/project_templates/mcu/stm32_ws/src/libraries/STM32F4xx_StdPeriph_Driver/src/stm32f4xx_cryp_aes.c ****   uint32_t i = 0;
  62              		.loc 1 117 0
  63 002e 0023     		movs	r3, #0
  64 0030 2693     		str	r3, [sp, #152]
 118:/home/rdu/Workspace/project_templates/mcu/stm32_ws/src/libraries/STM32F4xx_StdPeriph_Driver/src/stm32f4xx_cryp_aes.c **** 
 119:/home/rdu/Workspace/project_templates/mcu/stm32_ws/src/libraries/STM32F4xx_StdPeriph_Driver/src/stm32f4xx_cryp_aes.c ****   /* Crypto structures initialisation*/
 120:/home/rdu/Workspace/project_templates/mcu/stm32_ws/src/libraries/STM32F4xx_StdPeriph_Driver/src/stm32f4xx_cryp_aes.c ****   CRYP_KeyStructInit(&AES_CRYP_KeyInitStructure);
  65              		.loc 1 120 0
  66 0032 06AB     		add	r3, sp, #24
  67 0034 1846     		mov	r0, r3
  68 0036 FFF7FEFF 		bl	CRYP_KeyStructInit
 121:/home/rdu/Workspace/project_templates/mcu/stm32_ws/src/libraries/STM32F4xx_StdPeriph_Driver/src/stm32f4xx_cryp_aes.c **** 
 122:/home/rdu/Workspace/project_templates/mcu/stm32_ws/src/libraries/STM32F4xx_StdPeriph_Driver/src/stm32f4xx_cryp_aes.c ****   switch(Keysize)
  69              		.loc 1 122 0
  70 003a BDF80C30 		ldrh	r3, [sp, #12]
  71 003e C02B     		cmp	r3, #192
  72 0040 29D0     		beq	.L3
  73 0042 B3F5807F 		cmp	r3, #256
  74 0046 5DD0     		beq	.L4
  75 0048 802B     		cmp	r3, #128
  76 004a 00D0     		beq	.L5
 123:/home/rdu/Workspace/project_templates/mcu/stm32_ws/src/libraries/STM32F4xx_StdPeriph_Driver/src/stm32f4xx_cryp_aes.c ****   {
 124:/home/rdu/Workspace/project_templates/mcu/stm32_ws/src/libraries/STM32F4xx_StdPeriph_Driver/src/stm32f4xx_cryp_aes.c ****     case 128:
 125:/home/rdu/Workspace/project_templates/mcu/stm32_ws/src/libraries/STM32F4xx_StdPeriph_Driver/src/stm32f4xx_cryp_aes.c ****     AES_CRYP_InitStructure.CRYP_KeySize = CRYP_KeySize_128b;
 126:/home/rdu/Workspace/project_templates/mcu/stm32_ws/src/libraries/STM32F4xx_StdPeriph_Driver/src/stm32f4xx_cryp_aes.c ****     AES_CRYP_KeyInitStructure.CRYP_Key2Left = __REV(*(uint32_t*)(keyaddr));
 127:/home/rdu/Workspace/project_templates/mcu/stm32_ws/src/libraries/STM32F4xx_StdPeriph_Driver/src/stm32f4xx_cryp_aes.c ****     keyaddr+=4;
 128:/home/rdu/Workspace/project_templates/mcu/stm32_ws/src/libraries/STM32F4xx_StdPeriph_Driver/src/stm32f4xx_cryp_aes.c ****     AES_CRYP_KeyInitStructure.CRYP_Key2Right= __REV(*(uint32_t*)(keyaddr));
 129:/home/rdu/Workspace/project_templates/mcu/stm32_ws/src/libraries/STM32F4xx_StdPeriph_Driver/src/stm32f4xx_cryp_aes.c ****     keyaddr+=4;
 130:/home/rdu/Workspace/project_templates/mcu/stm32_ws/src/libraries/STM32F4xx_StdPeriph_Driver/src/stm32f4xx_cryp_aes.c ****     AES_CRYP_KeyInitStructure.CRYP_Key3Left = __REV(*(uint32_t*)(keyaddr));
 131:/home/rdu/Workspace/project_templates/mcu/stm32_ws/src/libraries/STM32F4xx_StdPeriph_Driver/src/stm32f4xx_cryp_aes.c ****     keyaddr+=4;
 132:/home/rdu/Workspace/project_templates/mcu/stm32_ws/src/libraries/STM32F4xx_StdPeriph_Driver/src/stm32f4xx_cryp_aes.c ****     AES_CRYP_KeyInitStructure.CRYP_Key3Right= __REV(*(uint32_t*)(keyaddr));
 133:/home/rdu/Workspace/project_templates/mcu/stm32_ws/src/libraries/STM32F4xx_StdPeriph_Driver/src/stm32f4xx_cryp_aes.c ****     break;
 134:/home/rdu/Workspace/project_templates/mcu/stm32_ws/src/libraries/STM32F4xx_StdPeriph_Driver/src/stm32f4xx_cryp_aes.c ****     case 192:
 135:/home/rdu/Workspace/project_templates/mcu/stm32_ws/src/libraries/STM32F4xx_StdPeriph_Driver/src/stm32f4xx_cryp_aes.c ****     AES_CRYP_InitStructure.CRYP_KeySize  = CRYP_KeySize_192b;
 136:/home/rdu/Workspace/project_templates/mcu/stm32_ws/src/libraries/STM32F4xx_StdPeriph_Driver/src/stm32f4xx_cryp_aes.c ****     AES_CRYP_KeyInitStructure.CRYP_Key1Left = __REV(*(uint32_t*)(keyaddr));
 137:/home/rdu/Workspace/project_templates/mcu/stm32_ws/src/libraries/STM32F4xx_StdPeriph_Driver/src/stm32f4xx_cryp_aes.c ****     keyaddr+=4;
 138:/home/rdu/Workspace/project_templates/mcu/stm32_ws/src/libraries/STM32F4xx_StdPeriph_Driver/src/stm32f4xx_cryp_aes.c ****     AES_CRYP_KeyInitStructure.CRYP_Key1Right= __REV(*(uint32_t*)(keyaddr));
 139:/home/rdu/Workspace/project_templates/mcu/stm32_ws/src/libraries/STM32F4xx_StdPeriph_Driver/src/stm32f4xx_cryp_aes.c ****     keyaddr+=4;
 140:/home/rdu/Workspace/project_templates/mcu/stm32_ws/src/libraries/STM32F4xx_StdPeriph_Driver/src/stm32f4xx_cryp_aes.c ****     AES_CRYP_KeyInitStructure.CRYP_Key2Left = __REV(*(uint32_t*)(keyaddr));
 141:/home/rdu/Workspace/project_templates/mcu/stm32_ws/src/libraries/STM32F4xx_StdPeriph_Driver/src/stm32f4xx_cryp_aes.c ****     keyaddr+=4;
 142:/home/rdu/Workspace/project_templates/mcu/stm32_ws/src/libraries/STM32F4xx_StdPeriph_Driver/src/stm32f4xx_cryp_aes.c ****     AES_CRYP_KeyInitStructure.CRYP_Key2Right= __REV(*(uint32_t*)(keyaddr));
 143:/home/rdu/Workspace/project_templates/mcu/stm32_ws/src/libraries/STM32F4xx_StdPeriph_Driver/src/stm32f4xx_cryp_aes.c ****     keyaddr+=4;
 144:/home/rdu/Workspace/project_templates/mcu/stm32_ws/src/libraries/STM32F4xx_StdPeriph_Driver/src/stm32f4xx_cryp_aes.c ****     AES_CRYP_KeyInitStructure.CRYP_Key3Left = __REV(*(uint32_t*)(keyaddr));
 145:/home/rdu/Workspace/project_templates/mcu/stm32_ws/src/libraries/STM32F4xx_StdPeriph_Driver/src/stm32f4xx_cryp_aes.c ****     keyaddr+=4;
 146:/home/rdu/Workspace/project_templates/mcu/stm32_ws/src/libraries/STM32F4xx_StdPeriph_Driver/src/stm32f4xx_cryp_aes.c ****     AES_CRYP_KeyInitStructure.CRYP_Key3Right= __REV(*(uint32_t*)(keyaddr));
 147:/home/rdu/Workspace/project_templates/mcu/stm32_ws/src/libraries/STM32F4xx_StdPeriph_Driver/src/stm32f4xx_cryp_aes.c ****     break;
 148:/home/rdu/Workspace/project_templates/mcu/stm32_ws/src/libraries/STM32F4xx_StdPeriph_Driver/src/stm32f4xx_cryp_aes.c ****     case 256:
 149:/home/rdu/Workspace/project_templates/mcu/stm32_ws/src/libraries/STM32F4xx_StdPeriph_Driver/src/stm32f4xx_cryp_aes.c ****     AES_CRYP_InitStructure.CRYP_KeySize  = CRYP_KeySize_256b;
 150:/home/rdu/Workspace/project_templates/mcu/stm32_ws/src/libraries/STM32F4xx_StdPeriph_Driver/src/stm32f4xx_cryp_aes.c ****     AES_CRYP_KeyInitStructure.CRYP_Key0Left = __REV(*(uint32_t*)(keyaddr));
 151:/home/rdu/Workspace/project_templates/mcu/stm32_ws/src/libraries/STM32F4xx_StdPeriph_Driver/src/stm32f4xx_cryp_aes.c ****     keyaddr+=4;
 152:/home/rdu/Workspace/project_templates/mcu/stm32_ws/src/libraries/STM32F4xx_StdPeriph_Driver/src/stm32f4xx_cryp_aes.c ****     AES_CRYP_KeyInitStructure.CRYP_Key0Right= __REV(*(uint32_t*)(keyaddr));
 153:/home/rdu/Workspace/project_templates/mcu/stm32_ws/src/libraries/STM32F4xx_StdPeriph_Driver/src/stm32f4xx_cryp_aes.c ****     keyaddr+=4;
 154:/home/rdu/Workspace/project_templates/mcu/stm32_ws/src/libraries/STM32F4xx_StdPeriph_Driver/src/stm32f4xx_cryp_aes.c ****     AES_CRYP_KeyInitStructure.CRYP_Key1Left = __REV(*(uint32_t*)(keyaddr));
 155:/home/rdu/Workspace/project_templates/mcu/stm32_ws/src/libraries/STM32F4xx_StdPeriph_Driver/src/stm32f4xx_cryp_aes.c ****     keyaddr+=4;
 156:/home/rdu/Workspace/project_templates/mcu/stm32_ws/src/libraries/STM32F4xx_StdPeriph_Driver/src/stm32f4xx_cryp_aes.c ****     AES_CRYP_KeyInitStructure.CRYP_Key1Right= __REV(*(uint32_t*)(keyaddr));
 157:/home/rdu/Workspace/project_templates/mcu/stm32_ws/src/libraries/STM32F4xx_StdPeriph_Driver/src/stm32f4xx_cryp_aes.c ****     keyaddr+=4;
 158:/home/rdu/Workspace/project_templates/mcu/stm32_ws/src/libraries/STM32F4xx_StdPeriph_Driver/src/stm32f4xx_cryp_aes.c ****     AES_CRYP_KeyInitStructure.CRYP_Key2Left = __REV(*(uint32_t*)(keyaddr));
 159:/home/rdu/Workspace/project_templates/mcu/stm32_ws/src/libraries/STM32F4xx_StdPeriph_Driver/src/stm32f4xx_cryp_aes.c ****     keyaddr+=4;
 160:/home/rdu/Workspace/project_templates/mcu/stm32_ws/src/libraries/STM32F4xx_StdPeriph_Driver/src/stm32f4xx_cryp_aes.c ****     AES_CRYP_KeyInitStructure.CRYP_Key2Right= __REV(*(uint32_t*)(keyaddr));
 161:/home/rdu/Workspace/project_templates/mcu/stm32_ws/src/libraries/STM32F4xx_StdPeriph_Driver/src/stm32f4xx_cryp_aes.c ****     keyaddr+=4;
 162:/home/rdu/Workspace/project_templates/mcu/stm32_ws/src/libraries/STM32F4xx_StdPeriph_Driver/src/stm32f4xx_cryp_aes.c ****     AES_CRYP_KeyInitStructure.CRYP_Key3Left = __REV(*(uint32_t*)(keyaddr));
 163:/home/rdu/Workspace/project_templates/mcu/stm32_ws/src/libraries/STM32F4xx_StdPeriph_Driver/src/stm32f4xx_cryp_aes.c ****     keyaddr+=4;
 164:/home/rdu/Workspace/project_templates/mcu/stm32_ws/src/libraries/STM32F4xx_StdPeriph_Driver/src/stm32f4xx_cryp_aes.c ****     AES_CRYP_KeyInitStructure.CRYP_Key3Right= __REV(*(uint32_t*)(keyaddr));
 165:/home/rdu/Workspace/project_templates/mcu/stm32_ws/src/libraries/STM32F4xx_StdPeriph_Driver/src/stm32f4xx_cryp_aes.c ****     break;
 166:/home/rdu/Workspace/project_templates/mcu/stm32_ws/src/libraries/STM32F4xx_StdPeriph_Driver/src/stm32f4xx_cryp_aes.c ****     default:
 167:/home/rdu/Workspace/project_templates/mcu/stm32_ws/src/libraries/STM32F4xx_StdPeriph_Driver/src/stm32f4xx_cryp_aes.c ****     break;
  77              		.loc 1 167 0
  78 004c A3E0     		b	.L10
  79              	.L5:
 125:/home/rdu/Workspace/project_templates/mcu/stm32_ws/src/libraries/STM32F4xx_StdPeriph_Driver/src/stm32f4xx_cryp_aes.c ****     AES_CRYP_KeyInitStructure.CRYP_Key2Left = __REV(*(uint32_t*)(keyaddr));
  80              		.loc 1 125 0
  81 004e 0023     		movs	r3, #0
  82 0050 1193     		str	r3, [sp, #68]
 126:/home/rdu/Workspace/project_templates/mcu/stm32_ws/src/libraries/STM32F4xx_StdPeriph_Driver/src/stm32f4xx_cryp_aes.c ****     keyaddr+=4;
  83              		.loc 1 126 0
  84 0052 249B     		ldr	r3, [sp, #144]
  85 0054 1B68     		ldr	r3, [r3]
  86 0056 2093     		str	r3, [sp, #128]
  87              	.LBB230:
  88              	.LBB231:
  89              		.file 2 "/home/rdu/Workspace/project_templates/mcu/stm32_ws/src/libraries/CMSIS/CMSIS_STM32F4/Incl
   1:/home/rdu/Workspace/project_templates/mcu/stm32_ws/src/libraries/CMSIS/CMSIS_STM32F4/Include/core_cmInstr.h **** /**************************************************************************//**
   2:/home/rdu/Workspace/project_templates/mcu/stm32_ws/src/libraries/CMSIS/CMSIS_STM32F4/Include/core_cmInstr.h ****  * @file     core_cmInstr.h
   3:/home/rdu/Workspace/project_templates/mcu/stm32_ws/src/libraries/CMSIS/CMSIS_STM32F4/Include/core_cmInstr.h ****  * @brief    CMSIS Cortex-M Core Instruction Access Header File
   4:/home/rdu/Workspace/project_templates/mcu/stm32_ws/src/libraries/CMSIS/CMSIS_STM32F4/Include/core_cmInstr.h ****  * @version  V4.10
   5:/home/rdu/Workspace/project_templates/mcu/stm32_ws/src/libraries/CMSIS/CMSIS_STM32F4/Include/core_cmInstr.h ****  * @date     18. March 2015
   6:/home/rdu/Workspace/project_templates/mcu/stm32_ws/src/libraries/CMSIS/CMSIS_STM32F4/Include/core_cmInstr.h ****  *
   7:/home/rdu/Workspace/project_templates/mcu/stm32_ws/src/libraries/CMSIS/CMSIS_STM32F4/Include/core_cmInstr.h ****  * @note
   8:/home/rdu/Workspace/project_templates/mcu/stm32_ws/src/libraries/CMSIS/CMSIS_STM32F4/Include/core_cmInstr.h ****  *
   9:/home/rdu/Workspace/project_templates/mcu/stm32_ws/src/libraries/CMSIS/CMSIS_STM32F4/Include/core_cmInstr.h ****  ******************************************************************************/
  10:/home/rdu/Workspace/project_templates/mcu/stm32_ws/src/libraries/CMSIS/CMSIS_STM32F4/Include/core_cmInstr.h **** /* Copyright (c) 2009 - 2014 ARM LIMITED
  11:/home/rdu/Workspace/project_templates/mcu/stm32_ws/src/libraries/CMSIS/CMSIS_STM32F4/Include/core_cmInstr.h **** 
  12:/home/rdu/Workspace/project_templates/mcu/stm32_ws/src/libraries/CMSIS/CMSIS_STM32F4/Include/core_cmInstr.h ****    All rights reserved.
  13:/home/rdu/Workspace/project_templates/mcu/stm32_ws/src/libraries/CMSIS/CMSIS_STM32F4/Include/core_cmInstr.h ****    Redistribution and use in source and binary forms, with or without
  14:/home/rdu/Workspace/project_templates/mcu/stm32_ws/src/libraries/CMSIS/CMSIS_STM32F4/Include/core_cmInstr.h ****    modification, are permitted provided that the following conditions are met:
  15:/home/rdu/Workspace/project_templates/mcu/stm32_ws/src/libraries/CMSIS/CMSIS_STM32F4/Include/core_cmInstr.h ****    - Redistributions of source code must retain the above copyright
  16:/home/rdu/Workspace/project_templates/mcu/stm32_ws/src/libraries/CMSIS/CMSIS_STM32F4/Include/core_cmInstr.h ****      notice, this list of conditions and the following disclaimer.
  17:/home/rdu/Workspace/project_templates/mcu/stm32_ws/src/libraries/CMSIS/CMSIS_STM32F4/Include/core_cmInstr.h ****    - Redistributions in binary form must reproduce the above copyright
  18:/home/rdu/Workspace/project_templates/mcu/stm32_ws/src/libraries/CMSIS/CMSIS_STM32F4/Include/core_cmInstr.h ****      notice, this list of conditions and the following disclaimer in the
  19:/home/rdu/Workspace/project_templates/mcu/stm32_ws/src/libraries/CMSIS/CMSIS_STM32F4/Include/core_cmInstr.h ****      documentation and/or other materials provided with the distribution.
  20:/home/rdu/Workspace/project_templates/mcu/stm32_ws/src/libraries/CMSIS/CMSIS_STM32F4/Include/core_cmInstr.h ****    - Neither the name of ARM nor the names of its contributors may be used
  21:/home/rdu/Workspace/project_templates/mcu/stm32_ws/src/libraries/CMSIS/CMSIS_STM32F4/Include/core_cmInstr.h ****      to endorse or promote products derived from this software without
  22:/home/rdu/Workspace/project_templates/mcu/stm32_ws/src/libraries/CMSIS/CMSIS_STM32F4/Include/core_cmInstr.h ****      specific prior written permission.
  23:/home/rdu/Workspace/project_templates/mcu/stm32_ws/src/libraries/CMSIS/CMSIS_STM32F4/Include/core_cmInstr.h ****    *
  24:/home/rdu/Workspace/project_templates/mcu/stm32_ws/src/libraries/CMSIS/CMSIS_STM32F4/Include/core_cmInstr.h ****    THIS SOFTWARE IS PROVIDED BY THE COPYRIGHT HOLDERS AND CONTRIBUTORS "AS IS"
  25:/home/rdu/Workspace/project_templates/mcu/stm32_ws/src/libraries/CMSIS/CMSIS_STM32F4/Include/core_cmInstr.h ****    AND ANY EXPRESS OR IMPLIED WARRANTIES, INCLUDING, BUT NOT LIMITED TO, THE
  26:/home/rdu/Workspace/project_templates/mcu/stm32_ws/src/libraries/CMSIS/CMSIS_STM32F4/Include/core_cmInstr.h ****    IMPLIED WARRANTIES OF MERCHANTABILITY AND FITNESS FOR A PARTICULAR PURPOSE
  27:/home/rdu/Workspace/project_templates/mcu/stm32_ws/src/libraries/CMSIS/CMSIS_STM32F4/Include/core_cmInstr.h ****    ARE DISCLAIMED. IN NO EVENT SHALL COPYRIGHT HOLDERS AND CONTRIBUTORS BE
  28:/home/rdu/Workspace/project_templates/mcu/stm32_ws/src/libraries/CMSIS/CMSIS_STM32F4/Include/core_cmInstr.h ****    LIABLE FOR ANY DIRECT, INDIRECT, INCIDENTAL, SPECIAL, EXEMPLARY, OR
  29:/home/rdu/Workspace/project_templates/mcu/stm32_ws/src/libraries/CMSIS/CMSIS_STM32F4/Include/core_cmInstr.h ****    CONSEQUENTIAL DAMAGES (INCLUDING, BUT NOT LIMITED TO, PROCUREMENT OF
  30:/home/rdu/Workspace/project_templates/mcu/stm32_ws/src/libraries/CMSIS/CMSIS_STM32F4/Include/core_cmInstr.h ****    SUBSTITUTE GOODS OR SERVICES; LOSS OF USE, DATA, OR PROFITS; OR BUSINESS
  31:/home/rdu/Workspace/project_templates/mcu/stm32_ws/src/libraries/CMSIS/CMSIS_STM32F4/Include/core_cmInstr.h ****    INTERRUPTION) HOWEVER CAUSED AND ON ANY THEORY OF LIABILITY, WHETHER IN
  32:/home/rdu/Workspace/project_templates/mcu/stm32_ws/src/libraries/CMSIS/CMSIS_STM32F4/Include/core_cmInstr.h ****    CONTRACT, STRICT LIABILITY, OR TORT (INCLUDING NEGLIGENCE OR OTHERWISE)
  33:/home/rdu/Workspace/project_templates/mcu/stm32_ws/src/libraries/CMSIS/CMSIS_STM32F4/Include/core_cmInstr.h ****    ARISING IN ANY WAY OUT OF THE USE OF THIS SOFTWARE, EVEN IF ADVISED OF THE
  34:/home/rdu/Workspace/project_templates/mcu/stm32_ws/src/libraries/CMSIS/CMSIS_STM32F4/Include/core_cmInstr.h ****    POSSIBILITY OF SUCH DAMAGE.
  35:/home/rdu/Workspace/project_templates/mcu/stm32_ws/src/libraries/CMSIS/CMSIS_STM32F4/Include/core_cmInstr.h ****    ---------------------------------------------------------------------------*/
  36:/home/rdu/Workspace/project_templates/mcu/stm32_ws/src/libraries/CMSIS/CMSIS_STM32F4/Include/core_cmInstr.h **** 
  37:/home/rdu/Workspace/project_templates/mcu/stm32_ws/src/libraries/CMSIS/CMSIS_STM32F4/Include/core_cmInstr.h **** 
  38:/home/rdu/Workspace/project_templates/mcu/stm32_ws/src/libraries/CMSIS/CMSIS_STM32F4/Include/core_cmInstr.h **** #ifndef __CORE_CMINSTR_H
  39:/home/rdu/Workspace/project_templates/mcu/stm32_ws/src/libraries/CMSIS/CMSIS_STM32F4/Include/core_cmInstr.h **** #define __CORE_CMINSTR_H
  40:/home/rdu/Workspace/project_templates/mcu/stm32_ws/src/libraries/CMSIS/CMSIS_STM32F4/Include/core_cmInstr.h **** 
  41:/home/rdu/Workspace/project_templates/mcu/stm32_ws/src/libraries/CMSIS/CMSIS_STM32F4/Include/core_cmInstr.h **** 
  42:/home/rdu/Workspace/project_templates/mcu/stm32_ws/src/libraries/CMSIS/CMSIS_STM32F4/Include/core_cmInstr.h **** /* ##########################  Core Instruction Access  ######################### */
  43:/home/rdu/Workspace/project_templates/mcu/stm32_ws/src/libraries/CMSIS/CMSIS_STM32F4/Include/core_cmInstr.h **** /** \defgroup CMSIS_Core_InstructionInterface CMSIS Core Instruction Interface
  44:/home/rdu/Workspace/project_templates/mcu/stm32_ws/src/libraries/CMSIS/CMSIS_STM32F4/Include/core_cmInstr.h ****   Access to dedicated instructions
  45:/home/rdu/Workspace/project_templates/mcu/stm32_ws/src/libraries/CMSIS/CMSIS_STM32F4/Include/core_cmInstr.h ****   @{
  46:/home/rdu/Workspace/project_templates/mcu/stm32_ws/src/libraries/CMSIS/CMSIS_STM32F4/Include/core_cmInstr.h **** */
  47:/home/rdu/Workspace/project_templates/mcu/stm32_ws/src/libraries/CMSIS/CMSIS_STM32F4/Include/core_cmInstr.h **** 
  48:/home/rdu/Workspace/project_templates/mcu/stm32_ws/src/libraries/CMSIS/CMSIS_STM32F4/Include/core_cmInstr.h **** #if   defined ( __CC_ARM ) /*------------------RealView Compiler -----------------*/
  49:/home/rdu/Workspace/project_templates/mcu/stm32_ws/src/libraries/CMSIS/CMSIS_STM32F4/Include/core_cmInstr.h **** /* ARM armcc specific functions */
  50:/home/rdu/Workspace/project_templates/mcu/stm32_ws/src/libraries/CMSIS/CMSIS_STM32F4/Include/core_cmInstr.h **** 
  51:/home/rdu/Workspace/project_templates/mcu/stm32_ws/src/libraries/CMSIS/CMSIS_STM32F4/Include/core_cmInstr.h **** #if (__ARMCC_VERSION < 400677)
  52:/home/rdu/Workspace/project_templates/mcu/stm32_ws/src/libraries/CMSIS/CMSIS_STM32F4/Include/core_cmInstr.h ****   #error "Please use ARM Compiler Toolchain V4.0.677 or later!"
  53:/home/rdu/Workspace/project_templates/mcu/stm32_ws/src/libraries/CMSIS/CMSIS_STM32F4/Include/core_cmInstr.h **** #endif
  54:/home/rdu/Workspace/project_templates/mcu/stm32_ws/src/libraries/CMSIS/CMSIS_STM32F4/Include/core_cmInstr.h **** 
  55:/home/rdu/Workspace/project_templates/mcu/stm32_ws/src/libraries/CMSIS/CMSIS_STM32F4/Include/core_cmInstr.h **** 
  56:/home/rdu/Workspace/project_templates/mcu/stm32_ws/src/libraries/CMSIS/CMSIS_STM32F4/Include/core_cmInstr.h **** /** \brief  No Operation
  57:/home/rdu/Workspace/project_templates/mcu/stm32_ws/src/libraries/CMSIS/CMSIS_STM32F4/Include/core_cmInstr.h **** 
  58:/home/rdu/Workspace/project_templates/mcu/stm32_ws/src/libraries/CMSIS/CMSIS_STM32F4/Include/core_cmInstr.h ****     No Operation does nothing. This instruction can be used for code alignment purposes.
  59:/home/rdu/Workspace/project_templates/mcu/stm32_ws/src/libraries/CMSIS/CMSIS_STM32F4/Include/core_cmInstr.h ****  */
  60:/home/rdu/Workspace/project_templates/mcu/stm32_ws/src/libraries/CMSIS/CMSIS_STM32F4/Include/core_cmInstr.h **** #define __NOP                             __nop
  61:/home/rdu/Workspace/project_templates/mcu/stm32_ws/src/libraries/CMSIS/CMSIS_STM32F4/Include/core_cmInstr.h **** 
  62:/home/rdu/Workspace/project_templates/mcu/stm32_ws/src/libraries/CMSIS/CMSIS_STM32F4/Include/core_cmInstr.h **** 
  63:/home/rdu/Workspace/project_templates/mcu/stm32_ws/src/libraries/CMSIS/CMSIS_STM32F4/Include/core_cmInstr.h **** /** \brief  Wait For Interrupt
  64:/home/rdu/Workspace/project_templates/mcu/stm32_ws/src/libraries/CMSIS/CMSIS_STM32F4/Include/core_cmInstr.h **** 
  65:/home/rdu/Workspace/project_templates/mcu/stm32_ws/src/libraries/CMSIS/CMSIS_STM32F4/Include/core_cmInstr.h ****     Wait For Interrupt is a hint instruction that suspends execution
  66:/home/rdu/Workspace/project_templates/mcu/stm32_ws/src/libraries/CMSIS/CMSIS_STM32F4/Include/core_cmInstr.h ****     until one of a number of events occurs.
  67:/home/rdu/Workspace/project_templates/mcu/stm32_ws/src/libraries/CMSIS/CMSIS_STM32F4/Include/core_cmInstr.h ****  */
  68:/home/rdu/Workspace/project_templates/mcu/stm32_ws/src/libraries/CMSIS/CMSIS_STM32F4/Include/core_cmInstr.h **** #define __WFI                             __wfi
  69:/home/rdu/Workspace/project_templates/mcu/stm32_ws/src/libraries/CMSIS/CMSIS_STM32F4/Include/core_cmInstr.h **** 
  70:/home/rdu/Workspace/project_templates/mcu/stm32_ws/src/libraries/CMSIS/CMSIS_STM32F4/Include/core_cmInstr.h **** 
  71:/home/rdu/Workspace/project_templates/mcu/stm32_ws/src/libraries/CMSIS/CMSIS_STM32F4/Include/core_cmInstr.h **** /** \brief  Wait For Event
  72:/home/rdu/Workspace/project_templates/mcu/stm32_ws/src/libraries/CMSIS/CMSIS_STM32F4/Include/core_cmInstr.h **** 
  73:/home/rdu/Workspace/project_templates/mcu/stm32_ws/src/libraries/CMSIS/CMSIS_STM32F4/Include/core_cmInstr.h ****     Wait For Event is a hint instruction that permits the processor to enter
  74:/home/rdu/Workspace/project_templates/mcu/stm32_ws/src/libraries/CMSIS/CMSIS_STM32F4/Include/core_cmInstr.h ****     a low-power state until one of a number of events occurs.
  75:/home/rdu/Workspace/project_templates/mcu/stm32_ws/src/libraries/CMSIS/CMSIS_STM32F4/Include/core_cmInstr.h ****  */
  76:/home/rdu/Workspace/project_templates/mcu/stm32_ws/src/libraries/CMSIS/CMSIS_STM32F4/Include/core_cmInstr.h **** #define __WFE                             __wfe
  77:/home/rdu/Workspace/project_templates/mcu/stm32_ws/src/libraries/CMSIS/CMSIS_STM32F4/Include/core_cmInstr.h **** 
  78:/home/rdu/Workspace/project_templates/mcu/stm32_ws/src/libraries/CMSIS/CMSIS_STM32F4/Include/core_cmInstr.h **** 
  79:/home/rdu/Workspace/project_templates/mcu/stm32_ws/src/libraries/CMSIS/CMSIS_STM32F4/Include/core_cmInstr.h **** /** \brief  Send Event
  80:/home/rdu/Workspace/project_templates/mcu/stm32_ws/src/libraries/CMSIS/CMSIS_STM32F4/Include/core_cmInstr.h **** 
  81:/home/rdu/Workspace/project_templates/mcu/stm32_ws/src/libraries/CMSIS/CMSIS_STM32F4/Include/core_cmInstr.h ****     Send Event is a hint instruction. It causes an event to be signaled to the CPU.
  82:/home/rdu/Workspace/project_templates/mcu/stm32_ws/src/libraries/CMSIS/CMSIS_STM32F4/Include/core_cmInstr.h ****  */
  83:/home/rdu/Workspace/project_templates/mcu/stm32_ws/src/libraries/CMSIS/CMSIS_STM32F4/Include/core_cmInstr.h **** #define __SEV                             __sev
  84:/home/rdu/Workspace/project_templates/mcu/stm32_ws/src/libraries/CMSIS/CMSIS_STM32F4/Include/core_cmInstr.h **** 
  85:/home/rdu/Workspace/project_templates/mcu/stm32_ws/src/libraries/CMSIS/CMSIS_STM32F4/Include/core_cmInstr.h **** 
  86:/home/rdu/Workspace/project_templates/mcu/stm32_ws/src/libraries/CMSIS/CMSIS_STM32F4/Include/core_cmInstr.h **** /** \brief  Instruction Synchronization Barrier
  87:/home/rdu/Workspace/project_templates/mcu/stm32_ws/src/libraries/CMSIS/CMSIS_STM32F4/Include/core_cmInstr.h **** 
  88:/home/rdu/Workspace/project_templates/mcu/stm32_ws/src/libraries/CMSIS/CMSIS_STM32F4/Include/core_cmInstr.h ****     Instruction Synchronization Barrier flushes the pipeline in the processor,
  89:/home/rdu/Workspace/project_templates/mcu/stm32_ws/src/libraries/CMSIS/CMSIS_STM32F4/Include/core_cmInstr.h ****     so that all instructions following the ISB are fetched from cache or
  90:/home/rdu/Workspace/project_templates/mcu/stm32_ws/src/libraries/CMSIS/CMSIS_STM32F4/Include/core_cmInstr.h ****     memory, after the instruction has been completed.
  91:/home/rdu/Workspace/project_templates/mcu/stm32_ws/src/libraries/CMSIS/CMSIS_STM32F4/Include/core_cmInstr.h ****  */
  92:/home/rdu/Workspace/project_templates/mcu/stm32_ws/src/libraries/CMSIS/CMSIS_STM32F4/Include/core_cmInstr.h **** #define __ISB() do {\
  93:/home/rdu/Workspace/project_templates/mcu/stm32_ws/src/libraries/CMSIS/CMSIS_STM32F4/Include/core_cmInstr.h ****                    __schedule_barrier();\
  94:/home/rdu/Workspace/project_templates/mcu/stm32_ws/src/libraries/CMSIS/CMSIS_STM32F4/Include/core_cmInstr.h ****                    __isb(0xF);\
  95:/home/rdu/Workspace/project_templates/mcu/stm32_ws/src/libraries/CMSIS/CMSIS_STM32F4/Include/core_cmInstr.h ****                    __schedule_barrier();\
  96:/home/rdu/Workspace/project_templates/mcu/stm32_ws/src/libraries/CMSIS/CMSIS_STM32F4/Include/core_cmInstr.h ****                 } while (0)
  97:/home/rdu/Workspace/project_templates/mcu/stm32_ws/src/libraries/CMSIS/CMSIS_STM32F4/Include/core_cmInstr.h **** 
  98:/home/rdu/Workspace/project_templates/mcu/stm32_ws/src/libraries/CMSIS/CMSIS_STM32F4/Include/core_cmInstr.h **** /** \brief  Data Synchronization Barrier
  99:/home/rdu/Workspace/project_templates/mcu/stm32_ws/src/libraries/CMSIS/CMSIS_STM32F4/Include/core_cmInstr.h **** 
 100:/home/rdu/Workspace/project_templates/mcu/stm32_ws/src/libraries/CMSIS/CMSIS_STM32F4/Include/core_cmInstr.h ****     This function acts as a special kind of Data Memory Barrier.
 101:/home/rdu/Workspace/project_templates/mcu/stm32_ws/src/libraries/CMSIS/CMSIS_STM32F4/Include/core_cmInstr.h ****     It completes when all explicit memory accesses before this instruction complete.
 102:/home/rdu/Workspace/project_templates/mcu/stm32_ws/src/libraries/CMSIS/CMSIS_STM32F4/Include/core_cmInstr.h ****  */
 103:/home/rdu/Workspace/project_templates/mcu/stm32_ws/src/libraries/CMSIS/CMSIS_STM32F4/Include/core_cmInstr.h **** #define __DSB() do {\
 104:/home/rdu/Workspace/project_templates/mcu/stm32_ws/src/libraries/CMSIS/CMSIS_STM32F4/Include/core_cmInstr.h ****                    __schedule_barrier();\
 105:/home/rdu/Workspace/project_templates/mcu/stm32_ws/src/libraries/CMSIS/CMSIS_STM32F4/Include/core_cmInstr.h ****                    __dsb(0xF);\
 106:/home/rdu/Workspace/project_templates/mcu/stm32_ws/src/libraries/CMSIS/CMSIS_STM32F4/Include/core_cmInstr.h ****                    __schedule_barrier();\
 107:/home/rdu/Workspace/project_templates/mcu/stm32_ws/src/libraries/CMSIS/CMSIS_STM32F4/Include/core_cmInstr.h ****                 } while (0)
 108:/home/rdu/Workspace/project_templates/mcu/stm32_ws/src/libraries/CMSIS/CMSIS_STM32F4/Include/core_cmInstr.h **** 
 109:/home/rdu/Workspace/project_templates/mcu/stm32_ws/src/libraries/CMSIS/CMSIS_STM32F4/Include/core_cmInstr.h **** /** \brief  Data Memory Barrier
 110:/home/rdu/Workspace/project_templates/mcu/stm32_ws/src/libraries/CMSIS/CMSIS_STM32F4/Include/core_cmInstr.h **** 
 111:/home/rdu/Workspace/project_templates/mcu/stm32_ws/src/libraries/CMSIS/CMSIS_STM32F4/Include/core_cmInstr.h ****     This function ensures the apparent order of the explicit memory operations before
 112:/home/rdu/Workspace/project_templates/mcu/stm32_ws/src/libraries/CMSIS/CMSIS_STM32F4/Include/core_cmInstr.h ****     and after the instruction, without ensuring their completion.
 113:/home/rdu/Workspace/project_templates/mcu/stm32_ws/src/libraries/CMSIS/CMSIS_STM32F4/Include/core_cmInstr.h ****  */
 114:/home/rdu/Workspace/project_templates/mcu/stm32_ws/src/libraries/CMSIS/CMSIS_STM32F4/Include/core_cmInstr.h **** #define __DMB() do {\
 115:/home/rdu/Workspace/project_templates/mcu/stm32_ws/src/libraries/CMSIS/CMSIS_STM32F4/Include/core_cmInstr.h ****                    __schedule_barrier();\
 116:/home/rdu/Workspace/project_templates/mcu/stm32_ws/src/libraries/CMSIS/CMSIS_STM32F4/Include/core_cmInstr.h ****                    __dmb(0xF);\
 117:/home/rdu/Workspace/project_templates/mcu/stm32_ws/src/libraries/CMSIS/CMSIS_STM32F4/Include/core_cmInstr.h ****                    __schedule_barrier();\
 118:/home/rdu/Workspace/project_templates/mcu/stm32_ws/src/libraries/CMSIS/CMSIS_STM32F4/Include/core_cmInstr.h ****                 } while (0)
 119:/home/rdu/Workspace/project_templates/mcu/stm32_ws/src/libraries/CMSIS/CMSIS_STM32F4/Include/core_cmInstr.h **** 
 120:/home/rdu/Workspace/project_templates/mcu/stm32_ws/src/libraries/CMSIS/CMSIS_STM32F4/Include/core_cmInstr.h **** /** \brief  Reverse byte order (32 bit)
 121:/home/rdu/Workspace/project_templates/mcu/stm32_ws/src/libraries/CMSIS/CMSIS_STM32F4/Include/core_cmInstr.h **** 
 122:/home/rdu/Workspace/project_templates/mcu/stm32_ws/src/libraries/CMSIS/CMSIS_STM32F4/Include/core_cmInstr.h ****     This function reverses the byte order in integer value.
 123:/home/rdu/Workspace/project_templates/mcu/stm32_ws/src/libraries/CMSIS/CMSIS_STM32F4/Include/core_cmInstr.h **** 
 124:/home/rdu/Workspace/project_templates/mcu/stm32_ws/src/libraries/CMSIS/CMSIS_STM32F4/Include/core_cmInstr.h ****     \param [in]    value  Value to reverse
 125:/home/rdu/Workspace/project_templates/mcu/stm32_ws/src/libraries/CMSIS/CMSIS_STM32F4/Include/core_cmInstr.h ****     \return               Reversed value
 126:/home/rdu/Workspace/project_templates/mcu/stm32_ws/src/libraries/CMSIS/CMSIS_STM32F4/Include/core_cmInstr.h ****  */
 127:/home/rdu/Workspace/project_templates/mcu/stm32_ws/src/libraries/CMSIS/CMSIS_STM32F4/Include/core_cmInstr.h **** #define __REV                             __rev
 128:/home/rdu/Workspace/project_templates/mcu/stm32_ws/src/libraries/CMSIS/CMSIS_STM32F4/Include/core_cmInstr.h **** 
 129:/home/rdu/Workspace/project_templates/mcu/stm32_ws/src/libraries/CMSIS/CMSIS_STM32F4/Include/core_cmInstr.h **** 
 130:/home/rdu/Workspace/project_templates/mcu/stm32_ws/src/libraries/CMSIS/CMSIS_STM32F4/Include/core_cmInstr.h **** /** \brief  Reverse byte order (16 bit)
 131:/home/rdu/Workspace/project_templates/mcu/stm32_ws/src/libraries/CMSIS/CMSIS_STM32F4/Include/core_cmInstr.h **** 
 132:/home/rdu/Workspace/project_templates/mcu/stm32_ws/src/libraries/CMSIS/CMSIS_STM32F4/Include/core_cmInstr.h ****     This function reverses the byte order in two unsigned short values.
 133:/home/rdu/Workspace/project_templates/mcu/stm32_ws/src/libraries/CMSIS/CMSIS_STM32F4/Include/core_cmInstr.h **** 
 134:/home/rdu/Workspace/project_templates/mcu/stm32_ws/src/libraries/CMSIS/CMSIS_STM32F4/Include/core_cmInstr.h ****     \param [in]    value  Value to reverse
 135:/home/rdu/Workspace/project_templates/mcu/stm32_ws/src/libraries/CMSIS/CMSIS_STM32F4/Include/core_cmInstr.h ****     \return               Reversed value
 136:/home/rdu/Workspace/project_templates/mcu/stm32_ws/src/libraries/CMSIS/CMSIS_STM32F4/Include/core_cmInstr.h ****  */
 137:/home/rdu/Workspace/project_templates/mcu/stm32_ws/src/libraries/CMSIS/CMSIS_STM32F4/Include/core_cmInstr.h **** #ifndef __NO_EMBEDDED_ASM
 138:/home/rdu/Workspace/project_templates/mcu/stm32_ws/src/libraries/CMSIS/CMSIS_STM32F4/Include/core_cmInstr.h **** __attribute__((section(".rev16_text"))) __STATIC_INLINE __ASM uint32_t __REV16(uint32_t value)
 139:/home/rdu/Workspace/project_templates/mcu/stm32_ws/src/libraries/CMSIS/CMSIS_STM32F4/Include/core_cmInstr.h **** {
 140:/home/rdu/Workspace/project_templates/mcu/stm32_ws/src/libraries/CMSIS/CMSIS_STM32F4/Include/core_cmInstr.h ****   rev16 r0, r0
 141:/home/rdu/Workspace/project_templates/mcu/stm32_ws/src/libraries/CMSIS/CMSIS_STM32F4/Include/core_cmInstr.h ****   bx lr
 142:/home/rdu/Workspace/project_templates/mcu/stm32_ws/src/libraries/CMSIS/CMSIS_STM32F4/Include/core_cmInstr.h **** }
 143:/home/rdu/Workspace/project_templates/mcu/stm32_ws/src/libraries/CMSIS/CMSIS_STM32F4/Include/core_cmInstr.h **** #endif
 144:/home/rdu/Workspace/project_templates/mcu/stm32_ws/src/libraries/CMSIS/CMSIS_STM32F4/Include/core_cmInstr.h **** 
 145:/home/rdu/Workspace/project_templates/mcu/stm32_ws/src/libraries/CMSIS/CMSIS_STM32F4/Include/core_cmInstr.h **** /** \brief  Reverse byte order in signed short value
 146:/home/rdu/Workspace/project_templates/mcu/stm32_ws/src/libraries/CMSIS/CMSIS_STM32F4/Include/core_cmInstr.h **** 
 147:/home/rdu/Workspace/project_templates/mcu/stm32_ws/src/libraries/CMSIS/CMSIS_STM32F4/Include/core_cmInstr.h ****     This function reverses the byte order in a signed short value with sign extension to integer.
 148:/home/rdu/Workspace/project_templates/mcu/stm32_ws/src/libraries/CMSIS/CMSIS_STM32F4/Include/core_cmInstr.h **** 
 149:/home/rdu/Workspace/project_templates/mcu/stm32_ws/src/libraries/CMSIS/CMSIS_STM32F4/Include/core_cmInstr.h ****     \param [in]    value  Value to reverse
 150:/home/rdu/Workspace/project_templates/mcu/stm32_ws/src/libraries/CMSIS/CMSIS_STM32F4/Include/core_cmInstr.h ****     \return               Reversed value
 151:/home/rdu/Workspace/project_templates/mcu/stm32_ws/src/libraries/CMSIS/CMSIS_STM32F4/Include/core_cmInstr.h ****  */
 152:/home/rdu/Workspace/project_templates/mcu/stm32_ws/src/libraries/CMSIS/CMSIS_STM32F4/Include/core_cmInstr.h **** #ifndef __NO_EMBEDDED_ASM
 153:/home/rdu/Workspace/project_templates/mcu/stm32_ws/src/libraries/CMSIS/CMSIS_STM32F4/Include/core_cmInstr.h **** __attribute__((section(".revsh_text"))) __STATIC_INLINE __ASM int32_t __REVSH(int32_t value)
 154:/home/rdu/Workspace/project_templates/mcu/stm32_ws/src/libraries/CMSIS/CMSIS_STM32F4/Include/core_cmInstr.h **** {
 155:/home/rdu/Workspace/project_templates/mcu/stm32_ws/src/libraries/CMSIS/CMSIS_STM32F4/Include/core_cmInstr.h ****   revsh r0, r0
 156:/home/rdu/Workspace/project_templates/mcu/stm32_ws/src/libraries/CMSIS/CMSIS_STM32F4/Include/core_cmInstr.h ****   bx lr
 157:/home/rdu/Workspace/project_templates/mcu/stm32_ws/src/libraries/CMSIS/CMSIS_STM32F4/Include/core_cmInstr.h **** }
 158:/home/rdu/Workspace/project_templates/mcu/stm32_ws/src/libraries/CMSIS/CMSIS_STM32F4/Include/core_cmInstr.h **** #endif
 159:/home/rdu/Workspace/project_templates/mcu/stm32_ws/src/libraries/CMSIS/CMSIS_STM32F4/Include/core_cmInstr.h **** 
 160:/home/rdu/Workspace/project_templates/mcu/stm32_ws/src/libraries/CMSIS/CMSIS_STM32F4/Include/core_cmInstr.h **** 
 161:/home/rdu/Workspace/project_templates/mcu/stm32_ws/src/libraries/CMSIS/CMSIS_STM32F4/Include/core_cmInstr.h **** /** \brief  Rotate Right in unsigned value (32 bit)
 162:/home/rdu/Workspace/project_templates/mcu/stm32_ws/src/libraries/CMSIS/CMSIS_STM32F4/Include/core_cmInstr.h **** 
 163:/home/rdu/Workspace/project_templates/mcu/stm32_ws/src/libraries/CMSIS/CMSIS_STM32F4/Include/core_cmInstr.h ****     This function Rotate Right (immediate) provides the value of the contents of a register rotated
 164:/home/rdu/Workspace/project_templates/mcu/stm32_ws/src/libraries/CMSIS/CMSIS_STM32F4/Include/core_cmInstr.h **** 
 165:/home/rdu/Workspace/project_templates/mcu/stm32_ws/src/libraries/CMSIS/CMSIS_STM32F4/Include/core_cmInstr.h ****     \param [in]    value  Value to rotate
 166:/home/rdu/Workspace/project_templates/mcu/stm32_ws/src/libraries/CMSIS/CMSIS_STM32F4/Include/core_cmInstr.h ****     \param [in]    value  Number of Bits to rotate
 167:/home/rdu/Workspace/project_templates/mcu/stm32_ws/src/libraries/CMSIS/CMSIS_STM32F4/Include/core_cmInstr.h ****     \return               Rotated value
 168:/home/rdu/Workspace/project_templates/mcu/stm32_ws/src/libraries/CMSIS/CMSIS_STM32F4/Include/core_cmInstr.h ****  */
 169:/home/rdu/Workspace/project_templates/mcu/stm32_ws/src/libraries/CMSIS/CMSIS_STM32F4/Include/core_cmInstr.h **** #define __ROR                             __ror
 170:/home/rdu/Workspace/project_templates/mcu/stm32_ws/src/libraries/CMSIS/CMSIS_STM32F4/Include/core_cmInstr.h **** 
 171:/home/rdu/Workspace/project_templates/mcu/stm32_ws/src/libraries/CMSIS/CMSIS_STM32F4/Include/core_cmInstr.h **** 
 172:/home/rdu/Workspace/project_templates/mcu/stm32_ws/src/libraries/CMSIS/CMSIS_STM32F4/Include/core_cmInstr.h **** /** \brief  Breakpoint
 173:/home/rdu/Workspace/project_templates/mcu/stm32_ws/src/libraries/CMSIS/CMSIS_STM32F4/Include/core_cmInstr.h **** 
 174:/home/rdu/Workspace/project_templates/mcu/stm32_ws/src/libraries/CMSIS/CMSIS_STM32F4/Include/core_cmInstr.h ****     This function causes the processor to enter Debug state.
 175:/home/rdu/Workspace/project_templates/mcu/stm32_ws/src/libraries/CMSIS/CMSIS_STM32F4/Include/core_cmInstr.h ****     Debug tools can use this to investigate system state when the instruction at a particular addre
 176:/home/rdu/Workspace/project_templates/mcu/stm32_ws/src/libraries/CMSIS/CMSIS_STM32F4/Include/core_cmInstr.h **** 
 177:/home/rdu/Workspace/project_templates/mcu/stm32_ws/src/libraries/CMSIS/CMSIS_STM32F4/Include/core_cmInstr.h ****     \param [in]    value  is ignored by the processor.
 178:/home/rdu/Workspace/project_templates/mcu/stm32_ws/src/libraries/CMSIS/CMSIS_STM32F4/Include/core_cmInstr.h ****                    If required, a debugger can use it to store additional information about the bre
 179:/home/rdu/Workspace/project_templates/mcu/stm32_ws/src/libraries/CMSIS/CMSIS_STM32F4/Include/core_cmInstr.h ****  */
 180:/home/rdu/Workspace/project_templates/mcu/stm32_ws/src/libraries/CMSIS/CMSIS_STM32F4/Include/core_cmInstr.h **** #define __BKPT(value)                       __breakpoint(value)
 181:/home/rdu/Workspace/project_templates/mcu/stm32_ws/src/libraries/CMSIS/CMSIS_STM32F4/Include/core_cmInstr.h **** 
 182:/home/rdu/Workspace/project_templates/mcu/stm32_ws/src/libraries/CMSIS/CMSIS_STM32F4/Include/core_cmInstr.h **** 
 183:/home/rdu/Workspace/project_templates/mcu/stm32_ws/src/libraries/CMSIS/CMSIS_STM32F4/Include/core_cmInstr.h **** /** \brief  Reverse bit order of value
 184:/home/rdu/Workspace/project_templates/mcu/stm32_ws/src/libraries/CMSIS/CMSIS_STM32F4/Include/core_cmInstr.h **** 
 185:/home/rdu/Workspace/project_templates/mcu/stm32_ws/src/libraries/CMSIS/CMSIS_STM32F4/Include/core_cmInstr.h ****     This function reverses the bit order of the given value.
 186:/home/rdu/Workspace/project_templates/mcu/stm32_ws/src/libraries/CMSIS/CMSIS_STM32F4/Include/core_cmInstr.h **** 
 187:/home/rdu/Workspace/project_templates/mcu/stm32_ws/src/libraries/CMSIS/CMSIS_STM32F4/Include/core_cmInstr.h ****     \param [in]    value  Value to reverse
 188:/home/rdu/Workspace/project_templates/mcu/stm32_ws/src/libraries/CMSIS/CMSIS_STM32F4/Include/core_cmInstr.h ****     \return               Reversed value
 189:/home/rdu/Workspace/project_templates/mcu/stm32_ws/src/libraries/CMSIS/CMSIS_STM32F4/Include/core_cmInstr.h ****  */
 190:/home/rdu/Workspace/project_templates/mcu/stm32_ws/src/libraries/CMSIS/CMSIS_STM32F4/Include/core_cmInstr.h **** #if       (__CORTEX_M >= 0x03) || (__CORTEX_SC >= 300)
 191:/home/rdu/Workspace/project_templates/mcu/stm32_ws/src/libraries/CMSIS/CMSIS_STM32F4/Include/core_cmInstr.h ****   #define __RBIT                          __rbit
 192:/home/rdu/Workspace/project_templates/mcu/stm32_ws/src/libraries/CMSIS/CMSIS_STM32F4/Include/core_cmInstr.h **** #else
 193:/home/rdu/Workspace/project_templates/mcu/stm32_ws/src/libraries/CMSIS/CMSIS_STM32F4/Include/core_cmInstr.h **** __attribute__((always_inline)) __STATIC_INLINE uint32_t __RBIT(uint32_t value)
 194:/home/rdu/Workspace/project_templates/mcu/stm32_ws/src/libraries/CMSIS/CMSIS_STM32F4/Include/core_cmInstr.h **** {
 195:/home/rdu/Workspace/project_templates/mcu/stm32_ws/src/libraries/CMSIS/CMSIS_STM32F4/Include/core_cmInstr.h ****   uint32_t result;
 196:/home/rdu/Workspace/project_templates/mcu/stm32_ws/src/libraries/CMSIS/CMSIS_STM32F4/Include/core_cmInstr.h ****   int32_t s = 4 /*sizeof(v)*/ * 8 - 1; // extra shift needed at end
 197:/home/rdu/Workspace/project_templates/mcu/stm32_ws/src/libraries/CMSIS/CMSIS_STM32F4/Include/core_cmInstr.h **** 
 198:/home/rdu/Workspace/project_templates/mcu/stm32_ws/src/libraries/CMSIS/CMSIS_STM32F4/Include/core_cmInstr.h ****   result = value;                      // r will be reversed bits of v; first get LSB of v
 199:/home/rdu/Workspace/project_templates/mcu/stm32_ws/src/libraries/CMSIS/CMSIS_STM32F4/Include/core_cmInstr.h ****   for (value >>= 1; value; value >>= 1)
 200:/home/rdu/Workspace/project_templates/mcu/stm32_ws/src/libraries/CMSIS/CMSIS_STM32F4/Include/core_cmInstr.h ****   {
 201:/home/rdu/Workspace/project_templates/mcu/stm32_ws/src/libraries/CMSIS/CMSIS_STM32F4/Include/core_cmInstr.h ****     result <<= 1;
 202:/home/rdu/Workspace/project_templates/mcu/stm32_ws/src/libraries/CMSIS/CMSIS_STM32F4/Include/core_cmInstr.h ****     result |= value & 1;
 203:/home/rdu/Workspace/project_templates/mcu/stm32_ws/src/libraries/CMSIS/CMSIS_STM32F4/Include/core_cmInstr.h ****     s--;
 204:/home/rdu/Workspace/project_templates/mcu/stm32_ws/src/libraries/CMSIS/CMSIS_STM32F4/Include/core_cmInstr.h ****   }
 205:/home/rdu/Workspace/project_templates/mcu/stm32_ws/src/libraries/CMSIS/CMSIS_STM32F4/Include/core_cmInstr.h ****   result <<= s;                       // shift when v's highest bits are zero
 206:/home/rdu/Workspace/project_templates/mcu/stm32_ws/src/libraries/CMSIS/CMSIS_STM32F4/Include/core_cmInstr.h ****   return(result);
 207:/home/rdu/Workspace/project_templates/mcu/stm32_ws/src/libraries/CMSIS/CMSIS_STM32F4/Include/core_cmInstr.h **** }
 208:/home/rdu/Workspace/project_templates/mcu/stm32_ws/src/libraries/CMSIS/CMSIS_STM32F4/Include/core_cmInstr.h **** #endif
 209:/home/rdu/Workspace/project_templates/mcu/stm32_ws/src/libraries/CMSIS/CMSIS_STM32F4/Include/core_cmInstr.h **** 
 210:/home/rdu/Workspace/project_templates/mcu/stm32_ws/src/libraries/CMSIS/CMSIS_STM32F4/Include/core_cmInstr.h **** 
 211:/home/rdu/Workspace/project_templates/mcu/stm32_ws/src/libraries/CMSIS/CMSIS_STM32F4/Include/core_cmInstr.h **** /** \brief  Count leading zeros
 212:/home/rdu/Workspace/project_templates/mcu/stm32_ws/src/libraries/CMSIS/CMSIS_STM32F4/Include/core_cmInstr.h **** 
 213:/home/rdu/Workspace/project_templates/mcu/stm32_ws/src/libraries/CMSIS/CMSIS_STM32F4/Include/core_cmInstr.h ****     This function counts the number of leading zeros of a data value.
 214:/home/rdu/Workspace/project_templates/mcu/stm32_ws/src/libraries/CMSIS/CMSIS_STM32F4/Include/core_cmInstr.h **** 
 215:/home/rdu/Workspace/project_templates/mcu/stm32_ws/src/libraries/CMSIS/CMSIS_STM32F4/Include/core_cmInstr.h ****     \param [in]  value  Value to count the leading zeros
 216:/home/rdu/Workspace/project_templates/mcu/stm32_ws/src/libraries/CMSIS/CMSIS_STM32F4/Include/core_cmInstr.h ****     \return             number of leading zeros in value
 217:/home/rdu/Workspace/project_templates/mcu/stm32_ws/src/libraries/CMSIS/CMSIS_STM32F4/Include/core_cmInstr.h ****  */
 218:/home/rdu/Workspace/project_templates/mcu/stm32_ws/src/libraries/CMSIS/CMSIS_STM32F4/Include/core_cmInstr.h **** #define __CLZ                             __clz
 219:/home/rdu/Workspace/project_templates/mcu/stm32_ws/src/libraries/CMSIS/CMSIS_STM32F4/Include/core_cmInstr.h **** 
 220:/home/rdu/Workspace/project_templates/mcu/stm32_ws/src/libraries/CMSIS/CMSIS_STM32F4/Include/core_cmInstr.h **** 
 221:/home/rdu/Workspace/project_templates/mcu/stm32_ws/src/libraries/CMSIS/CMSIS_STM32F4/Include/core_cmInstr.h **** #if       (__CORTEX_M >= 0x03) || (__CORTEX_SC >= 300)
 222:/home/rdu/Workspace/project_templates/mcu/stm32_ws/src/libraries/CMSIS/CMSIS_STM32F4/Include/core_cmInstr.h **** 
 223:/home/rdu/Workspace/project_templates/mcu/stm32_ws/src/libraries/CMSIS/CMSIS_STM32F4/Include/core_cmInstr.h **** /** \brief  LDR Exclusive (8 bit)
 224:/home/rdu/Workspace/project_templates/mcu/stm32_ws/src/libraries/CMSIS/CMSIS_STM32F4/Include/core_cmInstr.h **** 
 225:/home/rdu/Workspace/project_templates/mcu/stm32_ws/src/libraries/CMSIS/CMSIS_STM32F4/Include/core_cmInstr.h ****     This function executes a exclusive LDR instruction for 8 bit value.
 226:/home/rdu/Workspace/project_templates/mcu/stm32_ws/src/libraries/CMSIS/CMSIS_STM32F4/Include/core_cmInstr.h **** 
 227:/home/rdu/Workspace/project_templates/mcu/stm32_ws/src/libraries/CMSIS/CMSIS_STM32F4/Include/core_cmInstr.h ****     \param [in]    ptr  Pointer to data
 228:/home/rdu/Workspace/project_templates/mcu/stm32_ws/src/libraries/CMSIS/CMSIS_STM32F4/Include/core_cmInstr.h ****     \return             value of type uint8_t at (*ptr)
 229:/home/rdu/Workspace/project_templates/mcu/stm32_ws/src/libraries/CMSIS/CMSIS_STM32F4/Include/core_cmInstr.h ****  */
 230:/home/rdu/Workspace/project_templates/mcu/stm32_ws/src/libraries/CMSIS/CMSIS_STM32F4/Include/core_cmInstr.h **** #define __LDREXB(ptr)                     ((uint8_t ) __ldrex(ptr))
 231:/home/rdu/Workspace/project_templates/mcu/stm32_ws/src/libraries/CMSIS/CMSIS_STM32F4/Include/core_cmInstr.h **** 
 232:/home/rdu/Workspace/project_templates/mcu/stm32_ws/src/libraries/CMSIS/CMSIS_STM32F4/Include/core_cmInstr.h **** 
 233:/home/rdu/Workspace/project_templates/mcu/stm32_ws/src/libraries/CMSIS/CMSIS_STM32F4/Include/core_cmInstr.h **** /** \brief  LDR Exclusive (16 bit)
 234:/home/rdu/Workspace/project_templates/mcu/stm32_ws/src/libraries/CMSIS/CMSIS_STM32F4/Include/core_cmInstr.h **** 
 235:/home/rdu/Workspace/project_templates/mcu/stm32_ws/src/libraries/CMSIS/CMSIS_STM32F4/Include/core_cmInstr.h ****     This function executes a exclusive LDR instruction for 16 bit values.
 236:/home/rdu/Workspace/project_templates/mcu/stm32_ws/src/libraries/CMSIS/CMSIS_STM32F4/Include/core_cmInstr.h **** 
 237:/home/rdu/Workspace/project_templates/mcu/stm32_ws/src/libraries/CMSIS/CMSIS_STM32F4/Include/core_cmInstr.h ****     \param [in]    ptr  Pointer to data
 238:/home/rdu/Workspace/project_templates/mcu/stm32_ws/src/libraries/CMSIS/CMSIS_STM32F4/Include/core_cmInstr.h ****     \return        value of type uint16_t at (*ptr)
 239:/home/rdu/Workspace/project_templates/mcu/stm32_ws/src/libraries/CMSIS/CMSIS_STM32F4/Include/core_cmInstr.h ****  */
 240:/home/rdu/Workspace/project_templates/mcu/stm32_ws/src/libraries/CMSIS/CMSIS_STM32F4/Include/core_cmInstr.h **** #define __LDREXH(ptr)                     ((uint16_t) __ldrex(ptr))
 241:/home/rdu/Workspace/project_templates/mcu/stm32_ws/src/libraries/CMSIS/CMSIS_STM32F4/Include/core_cmInstr.h **** 
 242:/home/rdu/Workspace/project_templates/mcu/stm32_ws/src/libraries/CMSIS/CMSIS_STM32F4/Include/core_cmInstr.h **** 
 243:/home/rdu/Workspace/project_templates/mcu/stm32_ws/src/libraries/CMSIS/CMSIS_STM32F4/Include/core_cmInstr.h **** /** \brief  LDR Exclusive (32 bit)
 244:/home/rdu/Workspace/project_templates/mcu/stm32_ws/src/libraries/CMSIS/CMSIS_STM32F4/Include/core_cmInstr.h **** 
 245:/home/rdu/Workspace/project_templates/mcu/stm32_ws/src/libraries/CMSIS/CMSIS_STM32F4/Include/core_cmInstr.h ****     This function executes a exclusive LDR instruction for 32 bit values.
 246:/home/rdu/Workspace/project_templates/mcu/stm32_ws/src/libraries/CMSIS/CMSIS_STM32F4/Include/core_cmInstr.h **** 
 247:/home/rdu/Workspace/project_templates/mcu/stm32_ws/src/libraries/CMSIS/CMSIS_STM32F4/Include/core_cmInstr.h ****     \param [in]    ptr  Pointer to data
 248:/home/rdu/Workspace/project_templates/mcu/stm32_ws/src/libraries/CMSIS/CMSIS_STM32F4/Include/core_cmInstr.h ****     \return        value of type uint32_t at (*ptr)
 249:/home/rdu/Workspace/project_templates/mcu/stm32_ws/src/libraries/CMSIS/CMSIS_STM32F4/Include/core_cmInstr.h ****  */
 250:/home/rdu/Workspace/project_templates/mcu/stm32_ws/src/libraries/CMSIS/CMSIS_STM32F4/Include/core_cmInstr.h **** #define __LDREXW(ptr)                     ((uint32_t ) __ldrex(ptr))
 251:/home/rdu/Workspace/project_templates/mcu/stm32_ws/src/libraries/CMSIS/CMSIS_STM32F4/Include/core_cmInstr.h **** 
 252:/home/rdu/Workspace/project_templates/mcu/stm32_ws/src/libraries/CMSIS/CMSIS_STM32F4/Include/core_cmInstr.h **** 
 253:/home/rdu/Workspace/project_templates/mcu/stm32_ws/src/libraries/CMSIS/CMSIS_STM32F4/Include/core_cmInstr.h **** /** \brief  STR Exclusive (8 bit)
 254:/home/rdu/Workspace/project_templates/mcu/stm32_ws/src/libraries/CMSIS/CMSIS_STM32F4/Include/core_cmInstr.h **** 
 255:/home/rdu/Workspace/project_templates/mcu/stm32_ws/src/libraries/CMSIS/CMSIS_STM32F4/Include/core_cmInstr.h ****     This function executes a exclusive STR instruction for 8 bit values.
 256:/home/rdu/Workspace/project_templates/mcu/stm32_ws/src/libraries/CMSIS/CMSIS_STM32F4/Include/core_cmInstr.h **** 
 257:/home/rdu/Workspace/project_templates/mcu/stm32_ws/src/libraries/CMSIS/CMSIS_STM32F4/Include/core_cmInstr.h ****     \param [in]  value  Value to store
 258:/home/rdu/Workspace/project_templates/mcu/stm32_ws/src/libraries/CMSIS/CMSIS_STM32F4/Include/core_cmInstr.h ****     \param [in]    ptr  Pointer to location
 259:/home/rdu/Workspace/project_templates/mcu/stm32_ws/src/libraries/CMSIS/CMSIS_STM32F4/Include/core_cmInstr.h ****     \return          0  Function succeeded
 260:/home/rdu/Workspace/project_templates/mcu/stm32_ws/src/libraries/CMSIS/CMSIS_STM32F4/Include/core_cmInstr.h ****     \return          1  Function failed
 261:/home/rdu/Workspace/project_templates/mcu/stm32_ws/src/libraries/CMSIS/CMSIS_STM32F4/Include/core_cmInstr.h ****  */
 262:/home/rdu/Workspace/project_templates/mcu/stm32_ws/src/libraries/CMSIS/CMSIS_STM32F4/Include/core_cmInstr.h **** #define __STREXB(value, ptr)              __strex(value, ptr)
 263:/home/rdu/Workspace/project_templates/mcu/stm32_ws/src/libraries/CMSIS/CMSIS_STM32F4/Include/core_cmInstr.h **** 
 264:/home/rdu/Workspace/project_templates/mcu/stm32_ws/src/libraries/CMSIS/CMSIS_STM32F4/Include/core_cmInstr.h **** 
 265:/home/rdu/Workspace/project_templates/mcu/stm32_ws/src/libraries/CMSIS/CMSIS_STM32F4/Include/core_cmInstr.h **** /** \brief  STR Exclusive (16 bit)
 266:/home/rdu/Workspace/project_templates/mcu/stm32_ws/src/libraries/CMSIS/CMSIS_STM32F4/Include/core_cmInstr.h **** 
 267:/home/rdu/Workspace/project_templates/mcu/stm32_ws/src/libraries/CMSIS/CMSIS_STM32F4/Include/core_cmInstr.h ****     This function executes a exclusive STR instruction for 16 bit values.
 268:/home/rdu/Workspace/project_templates/mcu/stm32_ws/src/libraries/CMSIS/CMSIS_STM32F4/Include/core_cmInstr.h **** 
 269:/home/rdu/Workspace/project_templates/mcu/stm32_ws/src/libraries/CMSIS/CMSIS_STM32F4/Include/core_cmInstr.h ****     \param [in]  value  Value to store
 270:/home/rdu/Workspace/project_templates/mcu/stm32_ws/src/libraries/CMSIS/CMSIS_STM32F4/Include/core_cmInstr.h ****     \param [in]    ptr  Pointer to location
 271:/home/rdu/Workspace/project_templates/mcu/stm32_ws/src/libraries/CMSIS/CMSIS_STM32F4/Include/core_cmInstr.h ****     \return          0  Function succeeded
 272:/home/rdu/Workspace/project_templates/mcu/stm32_ws/src/libraries/CMSIS/CMSIS_STM32F4/Include/core_cmInstr.h ****     \return          1  Function failed
 273:/home/rdu/Workspace/project_templates/mcu/stm32_ws/src/libraries/CMSIS/CMSIS_STM32F4/Include/core_cmInstr.h ****  */
 274:/home/rdu/Workspace/project_templates/mcu/stm32_ws/src/libraries/CMSIS/CMSIS_STM32F4/Include/core_cmInstr.h **** #define __STREXH(value, ptr)              __strex(value, ptr)
 275:/home/rdu/Workspace/project_templates/mcu/stm32_ws/src/libraries/CMSIS/CMSIS_STM32F4/Include/core_cmInstr.h **** 
 276:/home/rdu/Workspace/project_templates/mcu/stm32_ws/src/libraries/CMSIS/CMSIS_STM32F4/Include/core_cmInstr.h **** 
 277:/home/rdu/Workspace/project_templates/mcu/stm32_ws/src/libraries/CMSIS/CMSIS_STM32F4/Include/core_cmInstr.h **** /** \brief  STR Exclusive (32 bit)
 278:/home/rdu/Workspace/project_templates/mcu/stm32_ws/src/libraries/CMSIS/CMSIS_STM32F4/Include/core_cmInstr.h **** 
 279:/home/rdu/Workspace/project_templates/mcu/stm32_ws/src/libraries/CMSIS/CMSIS_STM32F4/Include/core_cmInstr.h ****     This function executes a exclusive STR instruction for 32 bit values.
 280:/home/rdu/Workspace/project_templates/mcu/stm32_ws/src/libraries/CMSIS/CMSIS_STM32F4/Include/core_cmInstr.h **** 
 281:/home/rdu/Workspace/project_templates/mcu/stm32_ws/src/libraries/CMSIS/CMSIS_STM32F4/Include/core_cmInstr.h ****     \param [in]  value  Value to store
 282:/home/rdu/Workspace/project_templates/mcu/stm32_ws/src/libraries/CMSIS/CMSIS_STM32F4/Include/core_cmInstr.h ****     \param [in]    ptr  Pointer to location
 283:/home/rdu/Workspace/project_templates/mcu/stm32_ws/src/libraries/CMSIS/CMSIS_STM32F4/Include/core_cmInstr.h ****     \return          0  Function succeeded
 284:/home/rdu/Workspace/project_templates/mcu/stm32_ws/src/libraries/CMSIS/CMSIS_STM32F4/Include/core_cmInstr.h ****     \return          1  Function failed
 285:/home/rdu/Workspace/project_templates/mcu/stm32_ws/src/libraries/CMSIS/CMSIS_STM32F4/Include/core_cmInstr.h ****  */
 286:/home/rdu/Workspace/project_templates/mcu/stm32_ws/src/libraries/CMSIS/CMSIS_STM32F4/Include/core_cmInstr.h **** #define __STREXW(value, ptr)              __strex(value, ptr)
 287:/home/rdu/Workspace/project_templates/mcu/stm32_ws/src/libraries/CMSIS/CMSIS_STM32F4/Include/core_cmInstr.h **** 
 288:/home/rdu/Workspace/project_templates/mcu/stm32_ws/src/libraries/CMSIS/CMSIS_STM32F4/Include/core_cmInstr.h **** 
 289:/home/rdu/Workspace/project_templates/mcu/stm32_ws/src/libraries/CMSIS/CMSIS_STM32F4/Include/core_cmInstr.h **** /** \brief  Remove the exclusive lock
 290:/home/rdu/Workspace/project_templates/mcu/stm32_ws/src/libraries/CMSIS/CMSIS_STM32F4/Include/core_cmInstr.h **** 
 291:/home/rdu/Workspace/project_templates/mcu/stm32_ws/src/libraries/CMSIS/CMSIS_STM32F4/Include/core_cmInstr.h ****     This function removes the exclusive lock which is created by LDREX.
 292:/home/rdu/Workspace/project_templates/mcu/stm32_ws/src/libraries/CMSIS/CMSIS_STM32F4/Include/core_cmInstr.h **** 
 293:/home/rdu/Workspace/project_templates/mcu/stm32_ws/src/libraries/CMSIS/CMSIS_STM32F4/Include/core_cmInstr.h ****  */
 294:/home/rdu/Workspace/project_templates/mcu/stm32_ws/src/libraries/CMSIS/CMSIS_STM32F4/Include/core_cmInstr.h **** #define __CLREX                           __clrex
 295:/home/rdu/Workspace/project_templates/mcu/stm32_ws/src/libraries/CMSIS/CMSIS_STM32F4/Include/core_cmInstr.h **** 
 296:/home/rdu/Workspace/project_templates/mcu/stm32_ws/src/libraries/CMSIS/CMSIS_STM32F4/Include/core_cmInstr.h **** 
 297:/home/rdu/Workspace/project_templates/mcu/stm32_ws/src/libraries/CMSIS/CMSIS_STM32F4/Include/core_cmInstr.h **** /** \brief  Signed Saturate
 298:/home/rdu/Workspace/project_templates/mcu/stm32_ws/src/libraries/CMSIS/CMSIS_STM32F4/Include/core_cmInstr.h **** 
 299:/home/rdu/Workspace/project_templates/mcu/stm32_ws/src/libraries/CMSIS/CMSIS_STM32F4/Include/core_cmInstr.h ****     This function saturates a signed value.
 300:/home/rdu/Workspace/project_templates/mcu/stm32_ws/src/libraries/CMSIS/CMSIS_STM32F4/Include/core_cmInstr.h **** 
 301:/home/rdu/Workspace/project_templates/mcu/stm32_ws/src/libraries/CMSIS/CMSIS_STM32F4/Include/core_cmInstr.h ****     \param [in]  value  Value to be saturated
 302:/home/rdu/Workspace/project_templates/mcu/stm32_ws/src/libraries/CMSIS/CMSIS_STM32F4/Include/core_cmInstr.h ****     \param [in]    sat  Bit position to saturate to (1..32)
 303:/home/rdu/Workspace/project_templates/mcu/stm32_ws/src/libraries/CMSIS/CMSIS_STM32F4/Include/core_cmInstr.h ****     \return             Saturated value
 304:/home/rdu/Workspace/project_templates/mcu/stm32_ws/src/libraries/CMSIS/CMSIS_STM32F4/Include/core_cmInstr.h ****  */
 305:/home/rdu/Workspace/project_templates/mcu/stm32_ws/src/libraries/CMSIS/CMSIS_STM32F4/Include/core_cmInstr.h **** #define __SSAT                            __ssat
 306:/home/rdu/Workspace/project_templates/mcu/stm32_ws/src/libraries/CMSIS/CMSIS_STM32F4/Include/core_cmInstr.h **** 
 307:/home/rdu/Workspace/project_templates/mcu/stm32_ws/src/libraries/CMSIS/CMSIS_STM32F4/Include/core_cmInstr.h **** 
 308:/home/rdu/Workspace/project_templates/mcu/stm32_ws/src/libraries/CMSIS/CMSIS_STM32F4/Include/core_cmInstr.h **** /** \brief  Unsigned Saturate
 309:/home/rdu/Workspace/project_templates/mcu/stm32_ws/src/libraries/CMSIS/CMSIS_STM32F4/Include/core_cmInstr.h **** 
 310:/home/rdu/Workspace/project_templates/mcu/stm32_ws/src/libraries/CMSIS/CMSIS_STM32F4/Include/core_cmInstr.h ****     This function saturates an unsigned value.
 311:/home/rdu/Workspace/project_templates/mcu/stm32_ws/src/libraries/CMSIS/CMSIS_STM32F4/Include/core_cmInstr.h **** 
 312:/home/rdu/Workspace/project_templates/mcu/stm32_ws/src/libraries/CMSIS/CMSIS_STM32F4/Include/core_cmInstr.h ****     \param [in]  value  Value to be saturated
 313:/home/rdu/Workspace/project_templates/mcu/stm32_ws/src/libraries/CMSIS/CMSIS_STM32F4/Include/core_cmInstr.h ****     \param [in]    sat  Bit position to saturate to (0..31)
 314:/home/rdu/Workspace/project_templates/mcu/stm32_ws/src/libraries/CMSIS/CMSIS_STM32F4/Include/core_cmInstr.h ****     \return             Saturated value
 315:/home/rdu/Workspace/project_templates/mcu/stm32_ws/src/libraries/CMSIS/CMSIS_STM32F4/Include/core_cmInstr.h ****  */
 316:/home/rdu/Workspace/project_templates/mcu/stm32_ws/src/libraries/CMSIS/CMSIS_STM32F4/Include/core_cmInstr.h **** #define __USAT                            __usat
 317:/home/rdu/Workspace/project_templates/mcu/stm32_ws/src/libraries/CMSIS/CMSIS_STM32F4/Include/core_cmInstr.h **** 
 318:/home/rdu/Workspace/project_templates/mcu/stm32_ws/src/libraries/CMSIS/CMSIS_STM32F4/Include/core_cmInstr.h **** 
 319:/home/rdu/Workspace/project_templates/mcu/stm32_ws/src/libraries/CMSIS/CMSIS_STM32F4/Include/core_cmInstr.h **** /** \brief  Rotate Right with Extend (32 bit)
 320:/home/rdu/Workspace/project_templates/mcu/stm32_ws/src/libraries/CMSIS/CMSIS_STM32F4/Include/core_cmInstr.h **** 
 321:/home/rdu/Workspace/project_templates/mcu/stm32_ws/src/libraries/CMSIS/CMSIS_STM32F4/Include/core_cmInstr.h ****     This function moves each bit of a bitstring right by one bit.
 322:/home/rdu/Workspace/project_templates/mcu/stm32_ws/src/libraries/CMSIS/CMSIS_STM32F4/Include/core_cmInstr.h ****     The carry input is shifted in at the left end of the bitstring.
 323:/home/rdu/Workspace/project_templates/mcu/stm32_ws/src/libraries/CMSIS/CMSIS_STM32F4/Include/core_cmInstr.h **** 
 324:/home/rdu/Workspace/project_templates/mcu/stm32_ws/src/libraries/CMSIS/CMSIS_STM32F4/Include/core_cmInstr.h ****     \param [in]    value  Value to rotate
 325:/home/rdu/Workspace/project_templates/mcu/stm32_ws/src/libraries/CMSIS/CMSIS_STM32F4/Include/core_cmInstr.h ****     \return               Rotated value
 326:/home/rdu/Workspace/project_templates/mcu/stm32_ws/src/libraries/CMSIS/CMSIS_STM32F4/Include/core_cmInstr.h ****  */
 327:/home/rdu/Workspace/project_templates/mcu/stm32_ws/src/libraries/CMSIS/CMSIS_STM32F4/Include/core_cmInstr.h **** #ifndef __NO_EMBEDDED_ASM
 328:/home/rdu/Workspace/project_templates/mcu/stm32_ws/src/libraries/CMSIS/CMSIS_STM32F4/Include/core_cmInstr.h **** __attribute__((section(".rrx_text"))) __STATIC_INLINE __ASM uint32_t __RRX(uint32_t value)
 329:/home/rdu/Workspace/project_templates/mcu/stm32_ws/src/libraries/CMSIS/CMSIS_STM32F4/Include/core_cmInstr.h **** {
 330:/home/rdu/Workspace/project_templates/mcu/stm32_ws/src/libraries/CMSIS/CMSIS_STM32F4/Include/core_cmInstr.h ****   rrx r0, r0
 331:/home/rdu/Workspace/project_templates/mcu/stm32_ws/src/libraries/CMSIS/CMSIS_STM32F4/Include/core_cmInstr.h ****   bx lr
 332:/home/rdu/Workspace/project_templates/mcu/stm32_ws/src/libraries/CMSIS/CMSIS_STM32F4/Include/core_cmInstr.h **** }
 333:/home/rdu/Workspace/project_templates/mcu/stm32_ws/src/libraries/CMSIS/CMSIS_STM32F4/Include/core_cmInstr.h **** #endif
 334:/home/rdu/Workspace/project_templates/mcu/stm32_ws/src/libraries/CMSIS/CMSIS_STM32F4/Include/core_cmInstr.h **** 
 335:/home/rdu/Workspace/project_templates/mcu/stm32_ws/src/libraries/CMSIS/CMSIS_STM32F4/Include/core_cmInstr.h **** 
 336:/home/rdu/Workspace/project_templates/mcu/stm32_ws/src/libraries/CMSIS/CMSIS_STM32F4/Include/core_cmInstr.h **** /** \brief  LDRT Unprivileged (8 bit)
 337:/home/rdu/Workspace/project_templates/mcu/stm32_ws/src/libraries/CMSIS/CMSIS_STM32F4/Include/core_cmInstr.h **** 
 338:/home/rdu/Workspace/project_templates/mcu/stm32_ws/src/libraries/CMSIS/CMSIS_STM32F4/Include/core_cmInstr.h ****     This function executes a Unprivileged LDRT instruction for 8 bit value.
 339:/home/rdu/Workspace/project_templates/mcu/stm32_ws/src/libraries/CMSIS/CMSIS_STM32F4/Include/core_cmInstr.h **** 
 340:/home/rdu/Workspace/project_templates/mcu/stm32_ws/src/libraries/CMSIS/CMSIS_STM32F4/Include/core_cmInstr.h ****     \param [in]    ptr  Pointer to data
 341:/home/rdu/Workspace/project_templates/mcu/stm32_ws/src/libraries/CMSIS/CMSIS_STM32F4/Include/core_cmInstr.h ****     \return             value of type uint8_t at (*ptr)
 342:/home/rdu/Workspace/project_templates/mcu/stm32_ws/src/libraries/CMSIS/CMSIS_STM32F4/Include/core_cmInstr.h ****  */
 343:/home/rdu/Workspace/project_templates/mcu/stm32_ws/src/libraries/CMSIS/CMSIS_STM32F4/Include/core_cmInstr.h **** #define __LDRBT(ptr)                      ((uint8_t )  __ldrt(ptr))
 344:/home/rdu/Workspace/project_templates/mcu/stm32_ws/src/libraries/CMSIS/CMSIS_STM32F4/Include/core_cmInstr.h **** 
 345:/home/rdu/Workspace/project_templates/mcu/stm32_ws/src/libraries/CMSIS/CMSIS_STM32F4/Include/core_cmInstr.h **** 
 346:/home/rdu/Workspace/project_templates/mcu/stm32_ws/src/libraries/CMSIS/CMSIS_STM32F4/Include/core_cmInstr.h **** /** \brief  LDRT Unprivileged (16 bit)
 347:/home/rdu/Workspace/project_templates/mcu/stm32_ws/src/libraries/CMSIS/CMSIS_STM32F4/Include/core_cmInstr.h **** 
 348:/home/rdu/Workspace/project_templates/mcu/stm32_ws/src/libraries/CMSIS/CMSIS_STM32F4/Include/core_cmInstr.h ****     This function executes a Unprivileged LDRT instruction for 16 bit values.
 349:/home/rdu/Workspace/project_templates/mcu/stm32_ws/src/libraries/CMSIS/CMSIS_STM32F4/Include/core_cmInstr.h **** 
 350:/home/rdu/Workspace/project_templates/mcu/stm32_ws/src/libraries/CMSIS/CMSIS_STM32F4/Include/core_cmInstr.h ****     \param [in]    ptr  Pointer to data
 351:/home/rdu/Workspace/project_templates/mcu/stm32_ws/src/libraries/CMSIS/CMSIS_STM32F4/Include/core_cmInstr.h ****     \return        value of type uint16_t at (*ptr)
 352:/home/rdu/Workspace/project_templates/mcu/stm32_ws/src/libraries/CMSIS/CMSIS_STM32F4/Include/core_cmInstr.h ****  */
 353:/home/rdu/Workspace/project_templates/mcu/stm32_ws/src/libraries/CMSIS/CMSIS_STM32F4/Include/core_cmInstr.h **** #define __LDRHT(ptr)                      ((uint16_t)  __ldrt(ptr))
 354:/home/rdu/Workspace/project_templates/mcu/stm32_ws/src/libraries/CMSIS/CMSIS_STM32F4/Include/core_cmInstr.h **** 
 355:/home/rdu/Workspace/project_templates/mcu/stm32_ws/src/libraries/CMSIS/CMSIS_STM32F4/Include/core_cmInstr.h **** 
 356:/home/rdu/Workspace/project_templates/mcu/stm32_ws/src/libraries/CMSIS/CMSIS_STM32F4/Include/core_cmInstr.h **** /** \brief  LDRT Unprivileged (32 bit)
 357:/home/rdu/Workspace/project_templates/mcu/stm32_ws/src/libraries/CMSIS/CMSIS_STM32F4/Include/core_cmInstr.h **** 
 358:/home/rdu/Workspace/project_templates/mcu/stm32_ws/src/libraries/CMSIS/CMSIS_STM32F4/Include/core_cmInstr.h ****     This function executes a Unprivileged LDRT instruction for 32 bit values.
 359:/home/rdu/Workspace/project_templates/mcu/stm32_ws/src/libraries/CMSIS/CMSIS_STM32F4/Include/core_cmInstr.h **** 
 360:/home/rdu/Workspace/project_templates/mcu/stm32_ws/src/libraries/CMSIS/CMSIS_STM32F4/Include/core_cmInstr.h ****     \param [in]    ptr  Pointer to data
 361:/home/rdu/Workspace/project_templates/mcu/stm32_ws/src/libraries/CMSIS/CMSIS_STM32F4/Include/core_cmInstr.h ****     \return        value of type uint32_t at (*ptr)
 362:/home/rdu/Workspace/project_templates/mcu/stm32_ws/src/libraries/CMSIS/CMSIS_STM32F4/Include/core_cmInstr.h ****  */
 363:/home/rdu/Workspace/project_templates/mcu/stm32_ws/src/libraries/CMSIS/CMSIS_STM32F4/Include/core_cmInstr.h **** #define __LDRT(ptr)                       ((uint32_t ) __ldrt(ptr))
 364:/home/rdu/Workspace/project_templates/mcu/stm32_ws/src/libraries/CMSIS/CMSIS_STM32F4/Include/core_cmInstr.h **** 
 365:/home/rdu/Workspace/project_templates/mcu/stm32_ws/src/libraries/CMSIS/CMSIS_STM32F4/Include/core_cmInstr.h **** 
 366:/home/rdu/Workspace/project_templates/mcu/stm32_ws/src/libraries/CMSIS/CMSIS_STM32F4/Include/core_cmInstr.h **** /** \brief  STRT Unprivileged (8 bit)
 367:/home/rdu/Workspace/project_templates/mcu/stm32_ws/src/libraries/CMSIS/CMSIS_STM32F4/Include/core_cmInstr.h **** 
 368:/home/rdu/Workspace/project_templates/mcu/stm32_ws/src/libraries/CMSIS/CMSIS_STM32F4/Include/core_cmInstr.h ****     This function executes a Unprivileged STRT instruction for 8 bit values.
 369:/home/rdu/Workspace/project_templates/mcu/stm32_ws/src/libraries/CMSIS/CMSIS_STM32F4/Include/core_cmInstr.h **** 
 370:/home/rdu/Workspace/project_templates/mcu/stm32_ws/src/libraries/CMSIS/CMSIS_STM32F4/Include/core_cmInstr.h ****     \param [in]  value  Value to store
 371:/home/rdu/Workspace/project_templates/mcu/stm32_ws/src/libraries/CMSIS/CMSIS_STM32F4/Include/core_cmInstr.h ****     \param [in]    ptr  Pointer to location
 372:/home/rdu/Workspace/project_templates/mcu/stm32_ws/src/libraries/CMSIS/CMSIS_STM32F4/Include/core_cmInstr.h ****  */
 373:/home/rdu/Workspace/project_templates/mcu/stm32_ws/src/libraries/CMSIS/CMSIS_STM32F4/Include/core_cmInstr.h **** #define __STRBT(value, ptr)               __strt(value, ptr)
 374:/home/rdu/Workspace/project_templates/mcu/stm32_ws/src/libraries/CMSIS/CMSIS_STM32F4/Include/core_cmInstr.h **** 
 375:/home/rdu/Workspace/project_templates/mcu/stm32_ws/src/libraries/CMSIS/CMSIS_STM32F4/Include/core_cmInstr.h **** 
 376:/home/rdu/Workspace/project_templates/mcu/stm32_ws/src/libraries/CMSIS/CMSIS_STM32F4/Include/core_cmInstr.h **** /** \brief  STRT Unprivileged (16 bit)
 377:/home/rdu/Workspace/project_templates/mcu/stm32_ws/src/libraries/CMSIS/CMSIS_STM32F4/Include/core_cmInstr.h **** 
 378:/home/rdu/Workspace/project_templates/mcu/stm32_ws/src/libraries/CMSIS/CMSIS_STM32F4/Include/core_cmInstr.h ****     This function executes a Unprivileged STRT instruction for 16 bit values.
 379:/home/rdu/Workspace/project_templates/mcu/stm32_ws/src/libraries/CMSIS/CMSIS_STM32F4/Include/core_cmInstr.h **** 
 380:/home/rdu/Workspace/project_templates/mcu/stm32_ws/src/libraries/CMSIS/CMSIS_STM32F4/Include/core_cmInstr.h ****     \param [in]  value  Value to store
 381:/home/rdu/Workspace/project_templates/mcu/stm32_ws/src/libraries/CMSIS/CMSIS_STM32F4/Include/core_cmInstr.h ****     \param [in]    ptr  Pointer to location
 382:/home/rdu/Workspace/project_templates/mcu/stm32_ws/src/libraries/CMSIS/CMSIS_STM32F4/Include/core_cmInstr.h ****  */
 383:/home/rdu/Workspace/project_templates/mcu/stm32_ws/src/libraries/CMSIS/CMSIS_STM32F4/Include/core_cmInstr.h **** #define __STRHT(value, ptr)               __strt(value, ptr)
 384:/home/rdu/Workspace/project_templates/mcu/stm32_ws/src/libraries/CMSIS/CMSIS_STM32F4/Include/core_cmInstr.h **** 
 385:/home/rdu/Workspace/project_templates/mcu/stm32_ws/src/libraries/CMSIS/CMSIS_STM32F4/Include/core_cmInstr.h **** 
 386:/home/rdu/Workspace/project_templates/mcu/stm32_ws/src/libraries/CMSIS/CMSIS_STM32F4/Include/core_cmInstr.h **** /** \brief  STRT Unprivileged (32 bit)
 387:/home/rdu/Workspace/project_templates/mcu/stm32_ws/src/libraries/CMSIS/CMSIS_STM32F4/Include/core_cmInstr.h **** 
 388:/home/rdu/Workspace/project_templates/mcu/stm32_ws/src/libraries/CMSIS/CMSIS_STM32F4/Include/core_cmInstr.h ****     This function executes a Unprivileged STRT instruction for 32 bit values.
 389:/home/rdu/Workspace/project_templates/mcu/stm32_ws/src/libraries/CMSIS/CMSIS_STM32F4/Include/core_cmInstr.h **** 
 390:/home/rdu/Workspace/project_templates/mcu/stm32_ws/src/libraries/CMSIS/CMSIS_STM32F4/Include/core_cmInstr.h ****     \param [in]  value  Value to store
 391:/home/rdu/Workspace/project_templates/mcu/stm32_ws/src/libraries/CMSIS/CMSIS_STM32F4/Include/core_cmInstr.h ****     \param [in]    ptr  Pointer to location
 392:/home/rdu/Workspace/project_templates/mcu/stm32_ws/src/libraries/CMSIS/CMSIS_STM32F4/Include/core_cmInstr.h ****  */
 393:/home/rdu/Workspace/project_templates/mcu/stm32_ws/src/libraries/CMSIS/CMSIS_STM32F4/Include/core_cmInstr.h **** #define __STRT(value, ptr)                __strt(value, ptr)
 394:/home/rdu/Workspace/project_templates/mcu/stm32_ws/src/libraries/CMSIS/CMSIS_STM32F4/Include/core_cmInstr.h **** 
 395:/home/rdu/Workspace/project_templates/mcu/stm32_ws/src/libraries/CMSIS/CMSIS_STM32F4/Include/core_cmInstr.h **** #endif /* (__CORTEX_M >= 0x03) || (__CORTEX_SC >= 300) */
 396:/home/rdu/Workspace/project_templates/mcu/stm32_ws/src/libraries/CMSIS/CMSIS_STM32F4/Include/core_cmInstr.h **** 
 397:/home/rdu/Workspace/project_templates/mcu/stm32_ws/src/libraries/CMSIS/CMSIS_STM32F4/Include/core_cmInstr.h **** 
 398:/home/rdu/Workspace/project_templates/mcu/stm32_ws/src/libraries/CMSIS/CMSIS_STM32F4/Include/core_cmInstr.h **** #elif defined ( __GNUC__ ) /*------------------ GNU Compiler ---------------------*/
 399:/home/rdu/Workspace/project_templates/mcu/stm32_ws/src/libraries/CMSIS/CMSIS_STM32F4/Include/core_cmInstr.h **** /* GNU gcc specific functions */
 400:/home/rdu/Workspace/project_templates/mcu/stm32_ws/src/libraries/CMSIS/CMSIS_STM32F4/Include/core_cmInstr.h **** 
 401:/home/rdu/Workspace/project_templates/mcu/stm32_ws/src/libraries/CMSIS/CMSIS_STM32F4/Include/core_cmInstr.h **** /* Define macros for porting to both thumb1 and thumb2.
 402:/home/rdu/Workspace/project_templates/mcu/stm32_ws/src/libraries/CMSIS/CMSIS_STM32F4/Include/core_cmInstr.h ****  * For thumb1, use low register (r0-r7), specified by constrant "l"
 403:/home/rdu/Workspace/project_templates/mcu/stm32_ws/src/libraries/CMSIS/CMSIS_STM32F4/Include/core_cmInstr.h ****  * Otherwise, use general registers, specified by constrant "r" */
 404:/home/rdu/Workspace/project_templates/mcu/stm32_ws/src/libraries/CMSIS/CMSIS_STM32F4/Include/core_cmInstr.h **** #if defined (__thumb__) && !defined (__thumb2__)
 405:/home/rdu/Workspace/project_templates/mcu/stm32_ws/src/libraries/CMSIS/CMSIS_STM32F4/Include/core_cmInstr.h **** #define __CMSIS_GCC_OUT_REG(r) "=l" (r)
 406:/home/rdu/Workspace/project_templates/mcu/stm32_ws/src/libraries/CMSIS/CMSIS_STM32F4/Include/core_cmInstr.h **** #define __CMSIS_GCC_USE_REG(r) "l" (r)
 407:/home/rdu/Workspace/project_templates/mcu/stm32_ws/src/libraries/CMSIS/CMSIS_STM32F4/Include/core_cmInstr.h **** #else
 408:/home/rdu/Workspace/project_templates/mcu/stm32_ws/src/libraries/CMSIS/CMSIS_STM32F4/Include/core_cmInstr.h **** #define __CMSIS_GCC_OUT_REG(r) "=r" (r)
 409:/home/rdu/Workspace/project_templates/mcu/stm32_ws/src/libraries/CMSIS/CMSIS_STM32F4/Include/core_cmInstr.h **** #define __CMSIS_GCC_USE_REG(r) "r" (r)
 410:/home/rdu/Workspace/project_templates/mcu/stm32_ws/src/libraries/CMSIS/CMSIS_STM32F4/Include/core_cmInstr.h **** #endif
 411:/home/rdu/Workspace/project_templates/mcu/stm32_ws/src/libraries/CMSIS/CMSIS_STM32F4/Include/core_cmInstr.h **** 
 412:/home/rdu/Workspace/project_templates/mcu/stm32_ws/src/libraries/CMSIS/CMSIS_STM32F4/Include/core_cmInstr.h **** /** \brief  No Operation
 413:/home/rdu/Workspace/project_templates/mcu/stm32_ws/src/libraries/CMSIS/CMSIS_STM32F4/Include/core_cmInstr.h **** 
 414:/home/rdu/Workspace/project_templates/mcu/stm32_ws/src/libraries/CMSIS/CMSIS_STM32F4/Include/core_cmInstr.h ****     No Operation does nothing. This instruction can be used for code alignment purposes.
 415:/home/rdu/Workspace/project_templates/mcu/stm32_ws/src/libraries/CMSIS/CMSIS_STM32F4/Include/core_cmInstr.h ****  */
 416:/home/rdu/Workspace/project_templates/mcu/stm32_ws/src/libraries/CMSIS/CMSIS_STM32F4/Include/core_cmInstr.h **** __attribute__((always_inline)) __STATIC_INLINE void __NOP(void)
 417:/home/rdu/Workspace/project_templates/mcu/stm32_ws/src/libraries/CMSIS/CMSIS_STM32F4/Include/core_cmInstr.h **** {
 418:/home/rdu/Workspace/project_templates/mcu/stm32_ws/src/libraries/CMSIS/CMSIS_STM32F4/Include/core_cmInstr.h ****   __ASM volatile ("nop");
 419:/home/rdu/Workspace/project_templates/mcu/stm32_ws/src/libraries/CMSIS/CMSIS_STM32F4/Include/core_cmInstr.h **** }
 420:/home/rdu/Workspace/project_templates/mcu/stm32_ws/src/libraries/CMSIS/CMSIS_STM32F4/Include/core_cmInstr.h **** 
 421:/home/rdu/Workspace/project_templates/mcu/stm32_ws/src/libraries/CMSIS/CMSIS_STM32F4/Include/core_cmInstr.h **** 
 422:/home/rdu/Workspace/project_templates/mcu/stm32_ws/src/libraries/CMSIS/CMSIS_STM32F4/Include/core_cmInstr.h **** /** \brief  Wait For Interrupt
 423:/home/rdu/Workspace/project_templates/mcu/stm32_ws/src/libraries/CMSIS/CMSIS_STM32F4/Include/core_cmInstr.h **** 
 424:/home/rdu/Workspace/project_templates/mcu/stm32_ws/src/libraries/CMSIS/CMSIS_STM32F4/Include/core_cmInstr.h ****     Wait For Interrupt is a hint instruction that suspends execution
 425:/home/rdu/Workspace/project_templates/mcu/stm32_ws/src/libraries/CMSIS/CMSIS_STM32F4/Include/core_cmInstr.h ****     until one of a number of events occurs.
 426:/home/rdu/Workspace/project_templates/mcu/stm32_ws/src/libraries/CMSIS/CMSIS_STM32F4/Include/core_cmInstr.h ****  */
 427:/home/rdu/Workspace/project_templates/mcu/stm32_ws/src/libraries/CMSIS/CMSIS_STM32F4/Include/core_cmInstr.h **** __attribute__((always_inline)) __STATIC_INLINE void __WFI(void)
 428:/home/rdu/Workspace/project_templates/mcu/stm32_ws/src/libraries/CMSIS/CMSIS_STM32F4/Include/core_cmInstr.h **** {
 429:/home/rdu/Workspace/project_templates/mcu/stm32_ws/src/libraries/CMSIS/CMSIS_STM32F4/Include/core_cmInstr.h ****   __ASM volatile ("wfi");
 430:/home/rdu/Workspace/project_templates/mcu/stm32_ws/src/libraries/CMSIS/CMSIS_STM32F4/Include/core_cmInstr.h **** }
 431:/home/rdu/Workspace/project_templates/mcu/stm32_ws/src/libraries/CMSIS/CMSIS_STM32F4/Include/core_cmInstr.h **** 
 432:/home/rdu/Workspace/project_templates/mcu/stm32_ws/src/libraries/CMSIS/CMSIS_STM32F4/Include/core_cmInstr.h **** 
 433:/home/rdu/Workspace/project_templates/mcu/stm32_ws/src/libraries/CMSIS/CMSIS_STM32F4/Include/core_cmInstr.h **** /** \brief  Wait For Event
 434:/home/rdu/Workspace/project_templates/mcu/stm32_ws/src/libraries/CMSIS/CMSIS_STM32F4/Include/core_cmInstr.h **** 
 435:/home/rdu/Workspace/project_templates/mcu/stm32_ws/src/libraries/CMSIS/CMSIS_STM32F4/Include/core_cmInstr.h ****     Wait For Event is a hint instruction that permits the processor to enter
 436:/home/rdu/Workspace/project_templates/mcu/stm32_ws/src/libraries/CMSIS/CMSIS_STM32F4/Include/core_cmInstr.h ****     a low-power state until one of a number of events occurs.
 437:/home/rdu/Workspace/project_templates/mcu/stm32_ws/src/libraries/CMSIS/CMSIS_STM32F4/Include/core_cmInstr.h ****  */
 438:/home/rdu/Workspace/project_templates/mcu/stm32_ws/src/libraries/CMSIS/CMSIS_STM32F4/Include/core_cmInstr.h **** __attribute__((always_inline)) __STATIC_INLINE void __WFE(void)
 439:/home/rdu/Workspace/project_templates/mcu/stm32_ws/src/libraries/CMSIS/CMSIS_STM32F4/Include/core_cmInstr.h **** {
 440:/home/rdu/Workspace/project_templates/mcu/stm32_ws/src/libraries/CMSIS/CMSIS_STM32F4/Include/core_cmInstr.h ****   __ASM volatile ("wfe");
 441:/home/rdu/Workspace/project_templates/mcu/stm32_ws/src/libraries/CMSIS/CMSIS_STM32F4/Include/core_cmInstr.h **** }
 442:/home/rdu/Workspace/project_templates/mcu/stm32_ws/src/libraries/CMSIS/CMSIS_STM32F4/Include/core_cmInstr.h **** 
 443:/home/rdu/Workspace/project_templates/mcu/stm32_ws/src/libraries/CMSIS/CMSIS_STM32F4/Include/core_cmInstr.h **** 
 444:/home/rdu/Workspace/project_templates/mcu/stm32_ws/src/libraries/CMSIS/CMSIS_STM32F4/Include/core_cmInstr.h **** /** \brief  Send Event
 445:/home/rdu/Workspace/project_templates/mcu/stm32_ws/src/libraries/CMSIS/CMSIS_STM32F4/Include/core_cmInstr.h **** 
 446:/home/rdu/Workspace/project_templates/mcu/stm32_ws/src/libraries/CMSIS/CMSIS_STM32F4/Include/core_cmInstr.h ****     Send Event is a hint instruction. It causes an event to be signaled to the CPU.
 447:/home/rdu/Workspace/project_templates/mcu/stm32_ws/src/libraries/CMSIS/CMSIS_STM32F4/Include/core_cmInstr.h ****  */
 448:/home/rdu/Workspace/project_templates/mcu/stm32_ws/src/libraries/CMSIS/CMSIS_STM32F4/Include/core_cmInstr.h **** __attribute__((always_inline)) __STATIC_INLINE void __SEV(void)
 449:/home/rdu/Workspace/project_templates/mcu/stm32_ws/src/libraries/CMSIS/CMSIS_STM32F4/Include/core_cmInstr.h **** {
 450:/home/rdu/Workspace/project_templates/mcu/stm32_ws/src/libraries/CMSIS/CMSIS_STM32F4/Include/core_cmInstr.h ****   __ASM volatile ("sev");
 451:/home/rdu/Workspace/project_templates/mcu/stm32_ws/src/libraries/CMSIS/CMSIS_STM32F4/Include/core_cmInstr.h **** }
 452:/home/rdu/Workspace/project_templates/mcu/stm32_ws/src/libraries/CMSIS/CMSIS_STM32F4/Include/core_cmInstr.h **** 
 453:/home/rdu/Workspace/project_templates/mcu/stm32_ws/src/libraries/CMSIS/CMSIS_STM32F4/Include/core_cmInstr.h **** 
 454:/home/rdu/Workspace/project_templates/mcu/stm32_ws/src/libraries/CMSIS/CMSIS_STM32F4/Include/core_cmInstr.h **** /** \brief  Instruction Synchronization Barrier
 455:/home/rdu/Workspace/project_templates/mcu/stm32_ws/src/libraries/CMSIS/CMSIS_STM32F4/Include/core_cmInstr.h **** 
 456:/home/rdu/Workspace/project_templates/mcu/stm32_ws/src/libraries/CMSIS/CMSIS_STM32F4/Include/core_cmInstr.h ****     Instruction Synchronization Barrier flushes the pipeline in the processor,
 457:/home/rdu/Workspace/project_templates/mcu/stm32_ws/src/libraries/CMSIS/CMSIS_STM32F4/Include/core_cmInstr.h ****     so that all instructions following the ISB are fetched from cache or
 458:/home/rdu/Workspace/project_templates/mcu/stm32_ws/src/libraries/CMSIS/CMSIS_STM32F4/Include/core_cmInstr.h ****     memory, after the instruction has been completed.
 459:/home/rdu/Workspace/project_templates/mcu/stm32_ws/src/libraries/CMSIS/CMSIS_STM32F4/Include/core_cmInstr.h ****  */
 460:/home/rdu/Workspace/project_templates/mcu/stm32_ws/src/libraries/CMSIS/CMSIS_STM32F4/Include/core_cmInstr.h **** __attribute__((always_inline)) __STATIC_INLINE void __ISB(void)
 461:/home/rdu/Workspace/project_templates/mcu/stm32_ws/src/libraries/CMSIS/CMSIS_STM32F4/Include/core_cmInstr.h **** {
 462:/home/rdu/Workspace/project_templates/mcu/stm32_ws/src/libraries/CMSIS/CMSIS_STM32F4/Include/core_cmInstr.h ****   __ASM volatile ("isb 0xF":::"memory");
 463:/home/rdu/Workspace/project_templates/mcu/stm32_ws/src/libraries/CMSIS/CMSIS_STM32F4/Include/core_cmInstr.h **** }
 464:/home/rdu/Workspace/project_templates/mcu/stm32_ws/src/libraries/CMSIS/CMSIS_STM32F4/Include/core_cmInstr.h **** 
 465:/home/rdu/Workspace/project_templates/mcu/stm32_ws/src/libraries/CMSIS/CMSIS_STM32F4/Include/core_cmInstr.h **** 
 466:/home/rdu/Workspace/project_templates/mcu/stm32_ws/src/libraries/CMSIS/CMSIS_STM32F4/Include/core_cmInstr.h **** /** \brief  Data Synchronization Barrier
 467:/home/rdu/Workspace/project_templates/mcu/stm32_ws/src/libraries/CMSIS/CMSIS_STM32F4/Include/core_cmInstr.h **** 
 468:/home/rdu/Workspace/project_templates/mcu/stm32_ws/src/libraries/CMSIS/CMSIS_STM32F4/Include/core_cmInstr.h ****     This function acts as a special kind of Data Memory Barrier.
 469:/home/rdu/Workspace/project_templates/mcu/stm32_ws/src/libraries/CMSIS/CMSIS_STM32F4/Include/core_cmInstr.h ****     It completes when all explicit memory accesses before this instruction complete.
 470:/home/rdu/Workspace/project_templates/mcu/stm32_ws/src/libraries/CMSIS/CMSIS_STM32F4/Include/core_cmInstr.h ****  */
 471:/home/rdu/Workspace/project_templates/mcu/stm32_ws/src/libraries/CMSIS/CMSIS_STM32F4/Include/core_cmInstr.h **** __attribute__((always_inline)) __STATIC_INLINE void __DSB(void)
 472:/home/rdu/Workspace/project_templates/mcu/stm32_ws/src/libraries/CMSIS/CMSIS_STM32F4/Include/core_cmInstr.h **** {
 473:/home/rdu/Workspace/project_templates/mcu/stm32_ws/src/libraries/CMSIS/CMSIS_STM32F4/Include/core_cmInstr.h ****   __ASM volatile ("dsb 0xF":::"memory");
 474:/home/rdu/Workspace/project_templates/mcu/stm32_ws/src/libraries/CMSIS/CMSIS_STM32F4/Include/core_cmInstr.h **** }
 475:/home/rdu/Workspace/project_templates/mcu/stm32_ws/src/libraries/CMSIS/CMSIS_STM32F4/Include/core_cmInstr.h **** 
 476:/home/rdu/Workspace/project_templates/mcu/stm32_ws/src/libraries/CMSIS/CMSIS_STM32F4/Include/core_cmInstr.h **** 
 477:/home/rdu/Workspace/project_templates/mcu/stm32_ws/src/libraries/CMSIS/CMSIS_STM32F4/Include/core_cmInstr.h **** /** \brief  Data Memory Barrier
 478:/home/rdu/Workspace/project_templates/mcu/stm32_ws/src/libraries/CMSIS/CMSIS_STM32F4/Include/core_cmInstr.h **** 
 479:/home/rdu/Workspace/project_templates/mcu/stm32_ws/src/libraries/CMSIS/CMSIS_STM32F4/Include/core_cmInstr.h ****     This function ensures the apparent order of the explicit memory operations before
 480:/home/rdu/Workspace/project_templates/mcu/stm32_ws/src/libraries/CMSIS/CMSIS_STM32F4/Include/core_cmInstr.h ****     and after the instruction, without ensuring their completion.
 481:/home/rdu/Workspace/project_templates/mcu/stm32_ws/src/libraries/CMSIS/CMSIS_STM32F4/Include/core_cmInstr.h ****  */
 482:/home/rdu/Workspace/project_templates/mcu/stm32_ws/src/libraries/CMSIS/CMSIS_STM32F4/Include/core_cmInstr.h **** __attribute__((always_inline)) __STATIC_INLINE void __DMB(void)
 483:/home/rdu/Workspace/project_templates/mcu/stm32_ws/src/libraries/CMSIS/CMSIS_STM32F4/Include/core_cmInstr.h **** {
 484:/home/rdu/Workspace/project_templates/mcu/stm32_ws/src/libraries/CMSIS/CMSIS_STM32F4/Include/core_cmInstr.h ****   __ASM volatile ("dmb 0xF":::"memory");
 485:/home/rdu/Workspace/project_templates/mcu/stm32_ws/src/libraries/CMSIS/CMSIS_STM32F4/Include/core_cmInstr.h **** }
 486:/home/rdu/Workspace/project_templates/mcu/stm32_ws/src/libraries/CMSIS/CMSIS_STM32F4/Include/core_cmInstr.h **** 
 487:/home/rdu/Workspace/project_templates/mcu/stm32_ws/src/libraries/CMSIS/CMSIS_STM32F4/Include/core_cmInstr.h **** 
 488:/home/rdu/Workspace/project_templates/mcu/stm32_ws/src/libraries/CMSIS/CMSIS_STM32F4/Include/core_cmInstr.h **** /** \brief  Reverse byte order (32 bit)
 489:/home/rdu/Workspace/project_templates/mcu/stm32_ws/src/libraries/CMSIS/CMSIS_STM32F4/Include/core_cmInstr.h **** 
 490:/home/rdu/Workspace/project_templates/mcu/stm32_ws/src/libraries/CMSIS/CMSIS_STM32F4/Include/core_cmInstr.h ****     This function reverses the byte order in integer value.
 491:/home/rdu/Workspace/project_templates/mcu/stm32_ws/src/libraries/CMSIS/CMSIS_STM32F4/Include/core_cmInstr.h **** 
 492:/home/rdu/Workspace/project_templates/mcu/stm32_ws/src/libraries/CMSIS/CMSIS_STM32F4/Include/core_cmInstr.h ****     \param [in]    value  Value to reverse
 493:/home/rdu/Workspace/project_templates/mcu/stm32_ws/src/libraries/CMSIS/CMSIS_STM32F4/Include/core_cmInstr.h ****     \return               Reversed value
 494:/home/rdu/Workspace/project_templates/mcu/stm32_ws/src/libraries/CMSIS/CMSIS_STM32F4/Include/core_cmInstr.h ****  */
 495:/home/rdu/Workspace/project_templates/mcu/stm32_ws/src/libraries/CMSIS/CMSIS_STM32F4/Include/core_cmInstr.h **** __attribute__((always_inline)) __STATIC_INLINE uint32_t __REV(uint32_t value)
 496:/home/rdu/Workspace/project_templates/mcu/stm32_ws/src/libraries/CMSIS/CMSIS_STM32F4/Include/core_cmInstr.h **** {
 497:/home/rdu/Workspace/project_templates/mcu/stm32_ws/src/libraries/CMSIS/CMSIS_STM32F4/Include/core_cmInstr.h **** #if (__GNUC__ > 4) || (__GNUC__ == 4 && __GNUC_MINOR__ >= 5)
 498:/home/rdu/Workspace/project_templates/mcu/stm32_ws/src/libraries/CMSIS/CMSIS_STM32F4/Include/core_cmInstr.h ****   return __builtin_bswap32(value);
  90              		.loc 2 498 0
  91 0058 209B     		ldr	r3, [sp, #128]
  92 005a 1BBA     		rev	r3, r3
  93              	.LBE231:
  94              	.LBE230:
 126:/home/rdu/Workspace/project_templates/mcu/stm32_ws/src/libraries/STM32F4xx_StdPeriph_Driver/src/stm32f4xx_cryp_aes.c ****     keyaddr+=4;
  95              		.loc 1 126 0
  96 005c 0A93     		str	r3, [sp, #40]
 127:/home/rdu/Workspace/project_templates/mcu/stm32_ws/src/libraries/STM32F4xx_StdPeriph_Driver/src/stm32f4xx_cryp_aes.c ****     AES_CRYP_KeyInitStructure.CRYP_Key2Right= __REV(*(uint32_t*)(keyaddr));
  97              		.loc 1 127 0
  98 005e 249B     		ldr	r3, [sp, #144]
  99 0060 0433     		adds	r3, r3, #4
 100 0062 2493     		str	r3, [sp, #144]
 128:/home/rdu/Workspace/project_templates/mcu/stm32_ws/src/libraries/STM32F4xx_StdPeriph_Driver/src/stm32f4xx_cryp_aes.c ****     keyaddr+=4;
 101              		.loc 1 128 0
 102 0064 249B     		ldr	r3, [sp, #144]
 103 0066 1B68     		ldr	r3, [r3]
 104 0068 2193     		str	r3, [sp, #132]
 105              	.LBB232:
 106              	.LBB233:
 107              		.loc 2 498 0
 108 006a 219B     		ldr	r3, [sp, #132]
 109 006c 1BBA     		rev	r3, r3
 110              	.LBE233:
 111              	.LBE232:
 128:/home/rdu/Workspace/project_templates/mcu/stm32_ws/src/libraries/STM32F4xx_StdPeriph_Driver/src/stm32f4xx_cryp_aes.c ****     keyaddr+=4;
 112              		.loc 1 128 0
 113 006e 0B93     		str	r3, [sp, #44]
 129:/home/rdu/Workspace/project_templates/mcu/stm32_ws/src/libraries/STM32F4xx_StdPeriph_Driver/src/stm32f4xx_cryp_aes.c ****     AES_CRYP_KeyInitStructure.CRYP_Key3Left = __REV(*(uint32_t*)(keyaddr));
 114              		.loc 1 129 0
 115 0070 249B     		ldr	r3, [sp, #144]
 116 0072 0433     		adds	r3, r3, #4
 117 0074 2493     		str	r3, [sp, #144]
 130:/home/rdu/Workspace/project_templates/mcu/stm32_ws/src/libraries/STM32F4xx_StdPeriph_Driver/src/stm32f4xx_cryp_aes.c ****     keyaddr+=4;
 118              		.loc 1 130 0
 119 0076 249B     		ldr	r3, [sp, #144]
 120 0078 1B68     		ldr	r3, [r3]
 121 007a 2293     		str	r3, [sp, #136]
 122              	.LBB234:
 123              	.LBB235:
 124              		.loc 2 498 0
 125 007c 229B     		ldr	r3, [sp, #136]
 126 007e 1BBA     		rev	r3, r3
 127              	.LBE235:
 128              	.LBE234:
 130:/home/rdu/Workspace/project_templates/mcu/stm32_ws/src/libraries/STM32F4xx_StdPeriph_Driver/src/stm32f4xx_cryp_aes.c ****     keyaddr+=4;
 129              		.loc 1 130 0
 130 0080 0C93     		str	r3, [sp, #48]
 131:/home/rdu/Workspace/project_templates/mcu/stm32_ws/src/libraries/STM32F4xx_StdPeriph_Driver/src/stm32f4xx_cryp_aes.c ****     AES_CRYP_KeyInitStructure.CRYP_Key3Right= __REV(*(uint32_t*)(keyaddr));
 131              		.loc 1 131 0
 132 0082 249B     		ldr	r3, [sp, #144]
 133 0084 0433     		adds	r3, r3, #4
 134 0086 2493     		str	r3, [sp, #144]
 132:/home/rdu/Workspace/project_templates/mcu/stm32_ws/src/libraries/STM32F4xx_StdPeriph_Driver/src/stm32f4xx_cryp_aes.c ****     break;
 135              		.loc 1 132 0
 136 0088 249B     		ldr	r3, [sp, #144]
 137 008a 1B68     		ldr	r3, [r3]
 138 008c 2393     		str	r3, [sp, #140]
 139              	.LBB236:
 140              	.LBB237:
 141              		.loc 2 498 0
 142 008e 239B     		ldr	r3, [sp, #140]
 143 0090 1BBA     		rev	r3, r3
 144              	.LBE237:
 145              	.LBE236:
 132:/home/rdu/Workspace/project_templates/mcu/stm32_ws/src/libraries/STM32F4xx_StdPeriph_Driver/src/stm32f4xx_cryp_aes.c ****     break;
 146              		.loc 1 132 0
 147 0092 0D93     		str	r3, [sp, #52]
 133:/home/rdu/Workspace/project_templates/mcu/stm32_ws/src/libraries/STM32F4xx_StdPeriph_Driver/src/stm32f4xx_cryp_aes.c ****     case 192:
 148              		.loc 1 133 0
 149 0094 7FE0     		b	.L10
 150              	.L3:
 135:/home/rdu/Workspace/project_templates/mcu/stm32_ws/src/libraries/STM32F4xx_StdPeriph_Driver/src/stm32f4xx_cryp_aes.c ****     AES_CRYP_KeyInitStructure.CRYP_Key1Left = __REV(*(uint32_t*)(keyaddr));
 151              		.loc 1 135 0
 152 0096 4FF48073 		mov	r3, #256
 153 009a 1193     		str	r3, [sp, #68]
 136:/home/rdu/Workspace/project_templates/mcu/stm32_ws/src/libraries/STM32F4xx_StdPeriph_Driver/src/stm32f4xx_cryp_aes.c ****     keyaddr+=4;
 154              		.loc 1 136 0
 155 009c 249B     		ldr	r3, [sp, #144]
 156 009e 1B68     		ldr	r3, [r3]
 157 00a0 1A93     		str	r3, [sp, #104]
 158              	.LBB238:
 159              	.LBB239:
 160              		.loc 2 498 0
 161 00a2 1A9B     		ldr	r3, [sp, #104]
 162 00a4 1BBA     		rev	r3, r3
 163              	.LBE239:
 164              	.LBE238:
 136:/home/rdu/Workspace/project_templates/mcu/stm32_ws/src/libraries/STM32F4xx_StdPeriph_Driver/src/stm32f4xx_cryp_aes.c ****     keyaddr+=4;
 165              		.loc 1 136 0
 166 00a6 0893     		str	r3, [sp, #32]
 137:/home/rdu/Workspace/project_templates/mcu/stm32_ws/src/libraries/STM32F4xx_StdPeriph_Driver/src/stm32f4xx_cryp_aes.c ****     AES_CRYP_KeyInitStructure.CRYP_Key1Right= __REV(*(uint32_t*)(keyaddr));
 167              		.loc 1 137 0
 168 00a8 249B     		ldr	r3, [sp, #144]
 169 00aa 0433     		adds	r3, r3, #4
 170 00ac 2493     		str	r3, [sp, #144]
 138:/home/rdu/Workspace/project_templates/mcu/stm32_ws/src/libraries/STM32F4xx_StdPeriph_Driver/src/stm32f4xx_cryp_aes.c ****     keyaddr+=4;
 171              		.loc 1 138 0
 172 00ae 249B     		ldr	r3, [sp, #144]
 173 00b0 1B68     		ldr	r3, [r3]
 174 00b2 1B93     		str	r3, [sp, #108]
 175              	.LBB240:
 176              	.LBB241:
 177              		.loc 2 498 0
 178 00b4 1B9B     		ldr	r3, [sp, #108]
 179 00b6 1BBA     		rev	r3, r3
 180              	.LBE241:
 181              	.LBE240:
 138:/home/rdu/Workspace/project_templates/mcu/stm32_ws/src/libraries/STM32F4xx_StdPeriph_Driver/src/stm32f4xx_cryp_aes.c ****     keyaddr+=4;
 182              		.loc 1 138 0
 183 00b8 0993     		str	r3, [sp, #36]
 139:/home/rdu/Workspace/project_templates/mcu/stm32_ws/src/libraries/STM32F4xx_StdPeriph_Driver/src/stm32f4xx_cryp_aes.c ****     AES_CRYP_KeyInitStructure.CRYP_Key2Left = __REV(*(uint32_t*)(keyaddr));
 184              		.loc 1 139 0
 185 00ba 249B     		ldr	r3, [sp, #144]
 186 00bc 0433     		adds	r3, r3, #4
 187 00be 2493     		str	r3, [sp, #144]
 140:/home/rdu/Workspace/project_templates/mcu/stm32_ws/src/libraries/STM32F4xx_StdPeriph_Driver/src/stm32f4xx_cryp_aes.c ****     keyaddr+=4;
 188              		.loc 1 140 0
 189 00c0 249B     		ldr	r3, [sp, #144]
 190 00c2 1B68     		ldr	r3, [r3]
 191 00c4 1C93     		str	r3, [sp, #112]
 192              	.LBB242:
 193              	.LBB243:
 194              		.loc 2 498 0
 195 00c6 1C9B     		ldr	r3, [sp, #112]
 196 00c8 1BBA     		rev	r3, r3
 197              	.LBE243:
 198              	.LBE242:
 140:/home/rdu/Workspace/project_templates/mcu/stm32_ws/src/libraries/STM32F4xx_StdPeriph_Driver/src/stm32f4xx_cryp_aes.c ****     keyaddr+=4;
 199              		.loc 1 140 0
 200 00ca 0A93     		str	r3, [sp, #40]
 141:/home/rdu/Workspace/project_templates/mcu/stm32_ws/src/libraries/STM32F4xx_StdPeriph_Driver/src/stm32f4xx_cryp_aes.c ****     AES_CRYP_KeyInitStructure.CRYP_Key2Right= __REV(*(uint32_t*)(keyaddr));
 201              		.loc 1 141 0
 202 00cc 249B     		ldr	r3, [sp, #144]
 203 00ce 0433     		adds	r3, r3, #4
 204 00d0 2493     		str	r3, [sp, #144]
 142:/home/rdu/Workspace/project_templates/mcu/stm32_ws/src/libraries/STM32F4xx_StdPeriph_Driver/src/stm32f4xx_cryp_aes.c ****     keyaddr+=4;
 205              		.loc 1 142 0
 206 00d2 249B     		ldr	r3, [sp, #144]
 207 00d4 1B68     		ldr	r3, [r3]
 208 00d6 1D93     		str	r3, [sp, #116]
 209              	.LBB244:
 210              	.LBB245:
 211              		.loc 2 498 0
 212 00d8 1D9B     		ldr	r3, [sp, #116]
 213 00da 1BBA     		rev	r3, r3
 214              	.LBE245:
 215              	.LBE244:
 142:/home/rdu/Workspace/project_templates/mcu/stm32_ws/src/libraries/STM32F4xx_StdPeriph_Driver/src/stm32f4xx_cryp_aes.c ****     keyaddr+=4;
 216              		.loc 1 142 0
 217 00dc 0B93     		str	r3, [sp, #44]
 143:/home/rdu/Workspace/project_templates/mcu/stm32_ws/src/libraries/STM32F4xx_StdPeriph_Driver/src/stm32f4xx_cryp_aes.c ****     AES_CRYP_KeyInitStructure.CRYP_Key3Left = __REV(*(uint32_t*)(keyaddr));
 218              		.loc 1 143 0
 219 00de 249B     		ldr	r3, [sp, #144]
 220 00e0 0433     		adds	r3, r3, #4
 221 00e2 2493     		str	r3, [sp, #144]
 144:/home/rdu/Workspace/project_templates/mcu/stm32_ws/src/libraries/STM32F4xx_StdPeriph_Driver/src/stm32f4xx_cryp_aes.c ****     keyaddr+=4;
 222              		.loc 1 144 0
 223 00e4 249B     		ldr	r3, [sp, #144]
 224 00e6 1B68     		ldr	r3, [r3]
 225 00e8 1E93     		str	r3, [sp, #120]
 226              	.LBB246:
 227              	.LBB247:
 228              		.loc 2 498 0
 229 00ea 1E9B     		ldr	r3, [sp, #120]
 230 00ec 1BBA     		rev	r3, r3
 231              	.LBE247:
 232              	.LBE246:
 144:/home/rdu/Workspace/project_templates/mcu/stm32_ws/src/libraries/STM32F4xx_StdPeriph_Driver/src/stm32f4xx_cryp_aes.c ****     keyaddr+=4;
 233              		.loc 1 144 0
 234 00ee 0C93     		str	r3, [sp, #48]
 145:/home/rdu/Workspace/project_templates/mcu/stm32_ws/src/libraries/STM32F4xx_StdPeriph_Driver/src/stm32f4xx_cryp_aes.c ****     AES_CRYP_KeyInitStructure.CRYP_Key3Right= __REV(*(uint32_t*)(keyaddr));
 235              		.loc 1 145 0
 236 00f0 249B     		ldr	r3, [sp, #144]
 237 00f2 0433     		adds	r3, r3, #4
 238 00f4 2493     		str	r3, [sp, #144]
 146:/home/rdu/Workspace/project_templates/mcu/stm32_ws/src/libraries/STM32F4xx_StdPeriph_Driver/src/stm32f4xx_cryp_aes.c ****     break;
 239              		.loc 1 146 0
 240 00f6 249B     		ldr	r3, [sp, #144]
 241 00f8 1B68     		ldr	r3, [r3]
 242 00fa 1F93     		str	r3, [sp, #124]
 243              	.LBB248:
 244              	.LBB249:
 245              		.loc 2 498 0
 246 00fc 1F9B     		ldr	r3, [sp, #124]
 247 00fe 1BBA     		rev	r3, r3
 248              	.LBE249:
 249              	.LBE248:
 146:/home/rdu/Workspace/project_templates/mcu/stm32_ws/src/libraries/STM32F4xx_StdPeriph_Driver/src/stm32f4xx_cryp_aes.c ****     break;
 250              		.loc 1 146 0
 251 0100 0D93     		str	r3, [sp, #52]
 147:/home/rdu/Workspace/project_templates/mcu/stm32_ws/src/libraries/STM32F4xx_StdPeriph_Driver/src/stm32f4xx_cryp_aes.c ****     case 256:
 252              		.loc 1 147 0
 253 0102 48E0     		b	.L10
 254              	.L4:
 149:/home/rdu/Workspace/project_templates/mcu/stm32_ws/src/libraries/STM32F4xx_StdPeriph_Driver/src/stm32f4xx_cryp_aes.c ****     AES_CRYP_KeyInitStructure.CRYP_Key0Left = __REV(*(uint32_t*)(keyaddr));
 255              		.loc 1 149 0
 256 0104 4FF40073 		mov	r3, #512
 257 0108 1193     		str	r3, [sp, #68]
 150:/home/rdu/Workspace/project_templates/mcu/stm32_ws/src/libraries/STM32F4xx_StdPeriph_Driver/src/stm32f4xx_cryp_aes.c ****     keyaddr+=4;
 258              		.loc 1 150 0
 259 010a 249B     		ldr	r3, [sp, #144]
 260 010c 1B68     		ldr	r3, [r3]
 261 010e 1293     		str	r3, [sp, #72]
 262              	.LBB250:
 263              	.LBB251:
 264              		.loc 2 498 0
 265 0110 129B     		ldr	r3, [sp, #72]
 266 0112 1BBA     		rev	r3, r3
 267              	.LBE251:
 268              	.LBE250:
 150:/home/rdu/Workspace/project_templates/mcu/stm32_ws/src/libraries/STM32F4xx_StdPeriph_Driver/src/stm32f4xx_cryp_aes.c ****     keyaddr+=4;
 269              		.loc 1 150 0
 270 0114 0693     		str	r3, [sp, #24]
 151:/home/rdu/Workspace/project_templates/mcu/stm32_ws/src/libraries/STM32F4xx_StdPeriph_Driver/src/stm32f4xx_cryp_aes.c ****     AES_CRYP_KeyInitStructure.CRYP_Key0Right= __REV(*(uint32_t*)(keyaddr));
 271              		.loc 1 151 0
 272 0116 249B     		ldr	r3, [sp, #144]
 273 0118 0433     		adds	r3, r3, #4
 274 011a 2493     		str	r3, [sp, #144]
 152:/home/rdu/Workspace/project_templates/mcu/stm32_ws/src/libraries/STM32F4xx_StdPeriph_Driver/src/stm32f4xx_cryp_aes.c ****     keyaddr+=4;
 275              		.loc 1 152 0
 276 011c 249B     		ldr	r3, [sp, #144]
 277 011e 1B68     		ldr	r3, [r3]
 278 0120 1393     		str	r3, [sp, #76]
 279              	.LBB252:
 280              	.LBB253:
 281              		.loc 2 498 0
 282 0122 139B     		ldr	r3, [sp, #76]
 283 0124 1BBA     		rev	r3, r3
 284              	.LBE253:
 285              	.LBE252:
 152:/home/rdu/Workspace/project_templates/mcu/stm32_ws/src/libraries/STM32F4xx_StdPeriph_Driver/src/stm32f4xx_cryp_aes.c ****     keyaddr+=4;
 286              		.loc 1 152 0
 287 0126 0793     		str	r3, [sp, #28]
 153:/home/rdu/Workspace/project_templates/mcu/stm32_ws/src/libraries/STM32F4xx_StdPeriph_Driver/src/stm32f4xx_cryp_aes.c ****     AES_CRYP_KeyInitStructure.CRYP_Key1Left = __REV(*(uint32_t*)(keyaddr));
 288              		.loc 1 153 0
 289 0128 249B     		ldr	r3, [sp, #144]
 290 012a 0433     		adds	r3, r3, #4
 291 012c 2493     		str	r3, [sp, #144]
 154:/home/rdu/Workspace/project_templates/mcu/stm32_ws/src/libraries/STM32F4xx_StdPeriph_Driver/src/stm32f4xx_cryp_aes.c ****     keyaddr+=4;
 292              		.loc 1 154 0
 293 012e 249B     		ldr	r3, [sp, #144]
 294 0130 1B68     		ldr	r3, [r3]
 295 0132 1493     		str	r3, [sp, #80]
 296              	.LBB254:
 297              	.LBB255:
 298              		.loc 2 498 0
 299 0134 149B     		ldr	r3, [sp, #80]
 300 0136 1BBA     		rev	r3, r3
 301              	.LBE255:
 302              	.LBE254:
 154:/home/rdu/Workspace/project_templates/mcu/stm32_ws/src/libraries/STM32F4xx_StdPeriph_Driver/src/stm32f4xx_cryp_aes.c ****     keyaddr+=4;
 303              		.loc 1 154 0
 304 0138 0893     		str	r3, [sp, #32]
 155:/home/rdu/Workspace/project_templates/mcu/stm32_ws/src/libraries/STM32F4xx_StdPeriph_Driver/src/stm32f4xx_cryp_aes.c ****     AES_CRYP_KeyInitStructure.CRYP_Key1Right= __REV(*(uint32_t*)(keyaddr));
 305              		.loc 1 155 0
 306 013a 249B     		ldr	r3, [sp, #144]
 307 013c 0433     		adds	r3, r3, #4
 308 013e 2493     		str	r3, [sp, #144]
 156:/home/rdu/Workspace/project_templates/mcu/stm32_ws/src/libraries/STM32F4xx_StdPeriph_Driver/src/stm32f4xx_cryp_aes.c ****     keyaddr+=4;
 309              		.loc 1 156 0
 310 0140 249B     		ldr	r3, [sp, #144]
 311 0142 1B68     		ldr	r3, [r3]
 312 0144 1593     		str	r3, [sp, #84]
 313              	.LBB256:
 314              	.LBB257:
 315              		.loc 2 498 0
 316 0146 159B     		ldr	r3, [sp, #84]
 317 0148 1BBA     		rev	r3, r3
 318              	.LBE257:
 319              	.LBE256:
 156:/home/rdu/Workspace/project_templates/mcu/stm32_ws/src/libraries/STM32F4xx_StdPeriph_Driver/src/stm32f4xx_cryp_aes.c ****     keyaddr+=4;
 320              		.loc 1 156 0
 321 014a 0993     		str	r3, [sp, #36]
 157:/home/rdu/Workspace/project_templates/mcu/stm32_ws/src/libraries/STM32F4xx_StdPeriph_Driver/src/stm32f4xx_cryp_aes.c ****     AES_CRYP_KeyInitStructure.CRYP_Key2Left = __REV(*(uint32_t*)(keyaddr));
 322              		.loc 1 157 0
 323 014c 249B     		ldr	r3, [sp, #144]
 324 014e 0433     		adds	r3, r3, #4
 325 0150 2493     		str	r3, [sp, #144]
 158:/home/rdu/Workspace/project_templates/mcu/stm32_ws/src/libraries/STM32F4xx_StdPeriph_Driver/src/stm32f4xx_cryp_aes.c ****     keyaddr+=4;
 326              		.loc 1 158 0
 327 0152 249B     		ldr	r3, [sp, #144]
 328 0154 1B68     		ldr	r3, [r3]
 329 0156 1693     		str	r3, [sp, #88]
 330              	.LBB258:
 331              	.LBB259:
 332              		.loc 2 498 0
 333 0158 169B     		ldr	r3, [sp, #88]
 334 015a 1BBA     		rev	r3, r3
 335              	.LBE259:
 336              	.LBE258:
 158:/home/rdu/Workspace/project_templates/mcu/stm32_ws/src/libraries/STM32F4xx_StdPeriph_Driver/src/stm32f4xx_cryp_aes.c ****     keyaddr+=4;
 337              		.loc 1 158 0
 338 015c 0A93     		str	r3, [sp, #40]
 159:/home/rdu/Workspace/project_templates/mcu/stm32_ws/src/libraries/STM32F4xx_StdPeriph_Driver/src/stm32f4xx_cryp_aes.c ****     AES_CRYP_KeyInitStructure.CRYP_Key2Right= __REV(*(uint32_t*)(keyaddr));
 339              		.loc 1 159 0
 340 015e 249B     		ldr	r3, [sp, #144]
 341 0160 0433     		adds	r3, r3, #4
 342 0162 2493     		str	r3, [sp, #144]
 160:/home/rdu/Workspace/project_templates/mcu/stm32_ws/src/libraries/STM32F4xx_StdPeriph_Driver/src/stm32f4xx_cryp_aes.c ****     keyaddr+=4;
 343              		.loc 1 160 0
 344 0164 249B     		ldr	r3, [sp, #144]
 345 0166 1B68     		ldr	r3, [r3]
 346 0168 1793     		str	r3, [sp, #92]
 347              	.LBB260:
 348              	.LBB261:
 349              		.loc 2 498 0
 350 016a 179B     		ldr	r3, [sp, #92]
 351 016c 1BBA     		rev	r3, r3
 352              	.LBE261:
 353              	.LBE260:
 160:/home/rdu/Workspace/project_templates/mcu/stm32_ws/src/libraries/STM32F4xx_StdPeriph_Driver/src/stm32f4xx_cryp_aes.c ****     keyaddr+=4;
 354              		.loc 1 160 0
 355 016e 0B93     		str	r3, [sp, #44]
 161:/home/rdu/Workspace/project_templates/mcu/stm32_ws/src/libraries/STM32F4xx_StdPeriph_Driver/src/stm32f4xx_cryp_aes.c ****     AES_CRYP_KeyInitStructure.CRYP_Key3Left = __REV(*(uint32_t*)(keyaddr));
 356              		.loc 1 161 0
 357 0170 249B     		ldr	r3, [sp, #144]
 358 0172 0433     		adds	r3, r3, #4
 359 0174 2493     		str	r3, [sp, #144]
 162:/home/rdu/Workspace/project_templates/mcu/stm32_ws/src/libraries/STM32F4xx_StdPeriph_Driver/src/stm32f4xx_cryp_aes.c ****     keyaddr+=4;
 360              		.loc 1 162 0
 361 0176 249B     		ldr	r3, [sp, #144]
 362 0178 1B68     		ldr	r3, [r3]
 363 017a 1893     		str	r3, [sp, #96]
 364              	.LBB262:
 365              	.LBB263:
 366              		.loc 2 498 0
 367 017c 189B     		ldr	r3, [sp, #96]
 368 017e 1BBA     		rev	r3, r3
 369              	.LBE263:
 370              	.LBE262:
 162:/home/rdu/Workspace/project_templates/mcu/stm32_ws/src/libraries/STM32F4xx_StdPeriph_Driver/src/stm32f4xx_cryp_aes.c ****     keyaddr+=4;
 371              		.loc 1 162 0
 372 0180 0C93     		str	r3, [sp, #48]
 163:/home/rdu/Workspace/project_templates/mcu/stm32_ws/src/libraries/STM32F4xx_StdPeriph_Driver/src/stm32f4xx_cryp_aes.c ****     AES_CRYP_KeyInitStructure.CRYP_Key3Right= __REV(*(uint32_t*)(keyaddr));
 373              		.loc 1 163 0
 374 0182 249B     		ldr	r3, [sp, #144]
 375 0184 0433     		adds	r3, r3, #4
 376 0186 2493     		str	r3, [sp, #144]
 164:/home/rdu/Workspace/project_templates/mcu/stm32_ws/src/libraries/STM32F4xx_StdPeriph_Driver/src/stm32f4xx_cryp_aes.c ****     break;
 377              		.loc 1 164 0
 378 0188 249B     		ldr	r3, [sp, #144]
 379 018a 1B68     		ldr	r3, [r3]
 380 018c 1993     		str	r3, [sp, #100]
 381              	.LBB264:
 382              	.LBB265:
 383              		.loc 2 498 0
 384 018e 199B     		ldr	r3, [sp, #100]
 385 0190 1BBA     		rev	r3, r3
 386              	.LBE265:
 387              	.LBE264:
 164:/home/rdu/Workspace/project_templates/mcu/stm32_ws/src/libraries/STM32F4xx_StdPeriph_Driver/src/stm32f4xx_cryp_aes.c ****     break;
 388              		.loc 1 164 0
 389 0192 0D93     		str	r3, [sp, #52]
 165:/home/rdu/Workspace/project_templates/mcu/stm32_ws/src/libraries/STM32F4xx_StdPeriph_Driver/src/stm32f4xx_cryp_aes.c ****     default:
 390              		.loc 1 165 0
 391 0194 00BF     		nop
 392              	.L10:
 168:/home/rdu/Workspace/project_templates/mcu/stm32_ws/src/libraries/STM32F4xx_StdPeriph_Driver/src/stm32f4xx_cryp_aes.c ****   }
 169:/home/rdu/Workspace/project_templates/mcu/stm32_ws/src/libraries/STM32F4xx_StdPeriph_Driver/src/stm32f4xx_cryp_aes.c **** 
 170:/home/rdu/Workspace/project_templates/mcu/stm32_ws/src/libraries/STM32F4xx_StdPeriph_Driver/src/stm32f4xx_cryp_aes.c ****   /*------------------ AES Decryption ------------------*/
 171:/home/rdu/Workspace/project_templates/mcu/stm32_ws/src/libraries/STM32F4xx_StdPeriph_Driver/src/stm32f4xx_cryp_aes.c ****   if(Mode == MODE_DECRYPT) /* AES decryption */
 393              		.loc 1 171 0
 394 0196 9DF80F30 		ldrb	r3, [sp, #15]	@ zero_extendqisi2
 395 019a 002B     		cmp	r3, #0
 396 019c 2BD1     		bne	.L25
 172:/home/rdu/Workspace/project_templates/mcu/stm32_ws/src/libraries/STM32F4xx_StdPeriph_Driver/src/stm32f4xx_cryp_aes.c ****   {
 173:/home/rdu/Workspace/project_templates/mcu/stm32_ws/src/libraries/STM32F4xx_StdPeriph_Driver/src/stm32f4xx_cryp_aes.c ****     /* Flush IN/OUT FIFOs */
 174:/home/rdu/Workspace/project_templates/mcu/stm32_ws/src/libraries/STM32F4xx_StdPeriph_Driver/src/stm32f4xx_cryp_aes.c ****     CRYP_FIFOFlush();
 397              		.loc 1 174 0
 398 019e FFF7FEFF 		bl	CRYP_FIFOFlush
 175:/home/rdu/Workspace/project_templates/mcu/stm32_ws/src/libraries/STM32F4xx_StdPeriph_Driver/src/stm32f4xx_cryp_aes.c **** 
 176:/home/rdu/Workspace/project_templates/mcu/stm32_ws/src/libraries/STM32F4xx_StdPeriph_Driver/src/stm32f4xx_cryp_aes.c ****     /* Crypto Init for Key preparation for decryption process */
 177:/home/rdu/Workspace/project_templates/mcu/stm32_ws/src/libraries/STM32F4xx_StdPeriph_Driver/src/stm32f4xx_cryp_aes.c ****     AES_CRYP_InitStructure.CRYP_AlgoDir = CRYP_AlgoDir_Decrypt;
 399              		.loc 1 177 0
 400 01a2 0423     		movs	r3, #4
 401 01a4 0E93     		str	r3, [sp, #56]
 178:/home/rdu/Workspace/project_templates/mcu/stm32_ws/src/libraries/STM32F4xx_StdPeriph_Driver/src/stm32f4xx_cryp_aes.c ****     AES_CRYP_InitStructure.CRYP_AlgoMode = CRYP_AlgoMode_AES_Key;
 402              		.loc 1 178 0
 403 01a6 3823     		movs	r3, #56
 404 01a8 0F93     		str	r3, [sp, #60]
 179:/home/rdu/Workspace/project_templates/mcu/stm32_ws/src/libraries/STM32F4xx_StdPeriph_Driver/src/stm32f4xx_cryp_aes.c ****     AES_CRYP_InitStructure.CRYP_DataType = CRYP_DataType_32b;
 405              		.loc 1 179 0
 406 01aa 0023     		movs	r3, #0
 407 01ac 1093     		str	r3, [sp, #64]
 180:/home/rdu/Workspace/project_templates/mcu/stm32_ws/src/libraries/STM32F4xx_StdPeriph_Driver/src/stm32f4xx_cryp_aes.c ****     CRYP_Init(&AES_CRYP_InitStructure);
 408              		.loc 1 180 0
 409 01ae 0EAB     		add	r3, sp, #56
 410 01b0 1846     		mov	r0, r3
 411 01b2 FFF7FEFF 		bl	CRYP_Init
 181:/home/rdu/Workspace/project_templates/mcu/stm32_ws/src/libraries/STM32F4xx_StdPeriph_Driver/src/stm32f4xx_cryp_aes.c **** 
 182:/home/rdu/Workspace/project_templates/mcu/stm32_ws/src/libraries/STM32F4xx_StdPeriph_Driver/src/stm32f4xx_cryp_aes.c ****     /* Key Initialisation */
 183:/home/rdu/Workspace/project_templates/mcu/stm32_ws/src/libraries/STM32F4xx_StdPeriph_Driver/src/stm32f4xx_cryp_aes.c ****     CRYP_KeyInit(&AES_CRYP_KeyInitStructure);
 412              		.loc 1 183 0
 413 01b6 06AB     		add	r3, sp, #24
 414 01b8 1846     		mov	r0, r3
 415 01ba FFF7FEFF 		bl	CRYP_KeyInit
 184:/home/rdu/Workspace/project_templates/mcu/stm32_ws/src/libraries/STM32F4xx_StdPeriph_Driver/src/stm32f4xx_cryp_aes.c **** 
 185:/home/rdu/Workspace/project_templates/mcu/stm32_ws/src/libraries/STM32F4xx_StdPeriph_Driver/src/stm32f4xx_cryp_aes.c ****     /* Enable Crypto processor */
 186:/home/rdu/Workspace/project_templates/mcu/stm32_ws/src/libraries/STM32F4xx_StdPeriph_Driver/src/stm32f4xx_cryp_aes.c ****     CRYP_Cmd(ENABLE);
 416              		.loc 1 186 0
 417 01be 0120     		movs	r0, #1
 418 01c0 FFF7FEFF 		bl	CRYP_Cmd
 419              	.L27:
 187:/home/rdu/Workspace/project_templates/mcu/stm32_ws/src/libraries/STM32F4xx_StdPeriph_Driver/src/stm32f4xx_cryp_aes.c **** 
 188:/home/rdu/Workspace/project_templates/mcu/stm32_ws/src/libraries/STM32F4xx_StdPeriph_Driver/src/stm32f4xx_cryp_aes.c ****     /* wait until the Busy flag is RESET */
 189:/home/rdu/Workspace/project_templates/mcu/stm32_ws/src/libraries/STM32F4xx_StdPeriph_Driver/src/stm32f4xx_cryp_aes.c ****     do
 190:/home/rdu/Workspace/project_templates/mcu/stm32_ws/src/libraries/STM32F4xx_StdPeriph_Driver/src/stm32f4xx_cryp_aes.c ****     {
 191:/home/rdu/Workspace/project_templates/mcu/stm32_ws/src/libraries/STM32F4xx_StdPeriph_Driver/src/stm32f4xx_cryp_aes.c ****       busystatus = CRYP_GetFlagStatus(CRYP_FLAG_BUSY);
 420              		.loc 1 191 0 discriminator 2
 421 01c4 1020     		movs	r0, #16
 422 01c6 FFF7FEFF 		bl	CRYP_GetFlagStatus
 423 01ca 0346     		mov	r3, r0
 424 01cc 2593     		str	r3, [sp, #148]
 192:/home/rdu/Workspace/project_templates/mcu/stm32_ws/src/libraries/STM32F4xx_StdPeriph_Driver/src/stm32f4xx_cryp_aes.c ****       counter++;
 425              		.loc 1 192 0 discriminator 2
 426 01ce 059B     		ldr	r3, [sp, #20]
 427 01d0 0133     		adds	r3, r3, #1
 428 01d2 0593     		str	r3, [sp, #20]
 193:/home/rdu/Workspace/project_templates/mcu/stm32_ws/src/libraries/STM32F4xx_StdPeriph_Driver/src/stm32f4xx_cryp_aes.c ****     }while ((counter != AESBUSY_TIMEOUT) && (busystatus != RESET));
 429              		.loc 1 193 0 discriminator 2
 430 01d4 059B     		ldr	r3, [sp, #20]
 431 01d6 B3F5803F 		cmp	r3, #65536
 432 01da 02D0     		beq	.L26
 433              		.loc 1 193 0 is_stmt 0 discriminator 1
 434 01dc 259B     		ldr	r3, [sp, #148]
 435 01de 002B     		cmp	r3, #0
 436 01e0 F0D1     		bne	.L27
 437              	.L26:
 194:/home/rdu/Workspace/project_templates/mcu/stm32_ws/src/libraries/STM32F4xx_StdPeriph_Driver/src/stm32f4xx_cryp_aes.c **** 
 195:/home/rdu/Workspace/project_templates/mcu/stm32_ws/src/libraries/STM32F4xx_StdPeriph_Driver/src/stm32f4xx_cryp_aes.c ****     if (busystatus != RESET)
 438              		.loc 1 195 0 is_stmt 1
 439 01e2 259B     		ldr	r3, [sp, #148]
 440 01e4 002B     		cmp	r3, #0
 441 01e6 03D0     		beq	.L28
 196:/home/rdu/Workspace/project_templates/mcu/stm32_ws/src/libraries/STM32F4xx_StdPeriph_Driver/src/stm32f4xx_cryp_aes.c ****    {
 197:/home/rdu/Workspace/project_templates/mcu/stm32_ws/src/libraries/STM32F4xx_StdPeriph_Driver/src/stm32f4xx_cryp_aes.c ****        status = ERROR;
 442              		.loc 1 197 0
 443 01e8 0023     		movs	r3, #0
 444 01ea 8DF8A730 		strb	r3, [sp, #167]
 445 01ee 08E0     		b	.L30
 446              	.L28:
 198:/home/rdu/Workspace/project_templates/mcu/stm32_ws/src/libraries/STM32F4xx_StdPeriph_Driver/src/stm32f4xx_cryp_aes.c ****     }
 199:/home/rdu/Workspace/project_templates/mcu/stm32_ws/src/libraries/STM32F4xx_StdPeriph_Driver/src/stm32f4xx_cryp_aes.c ****     else
 200:/home/rdu/Workspace/project_templates/mcu/stm32_ws/src/libraries/STM32F4xx_StdPeriph_Driver/src/stm32f4xx_cryp_aes.c ****     {
 201:/home/rdu/Workspace/project_templates/mcu/stm32_ws/src/libraries/STM32F4xx_StdPeriph_Driver/src/stm32f4xx_cryp_aes.c ****       /* Crypto Init for decryption process */  
 202:/home/rdu/Workspace/project_templates/mcu/stm32_ws/src/libraries/STM32F4xx_StdPeriph_Driver/src/stm32f4xx_cryp_aes.c ****       AES_CRYP_InitStructure.CRYP_AlgoDir = CRYP_AlgoDir_Decrypt;
 447              		.loc 1 202 0
 448 01f0 0423     		movs	r3, #4
 449 01f2 0E93     		str	r3, [sp, #56]
 450 01f4 05E0     		b	.L30
 451              	.L25:
 203:/home/rdu/Workspace/project_templates/mcu/stm32_ws/src/libraries/STM32F4xx_StdPeriph_Driver/src/stm32f4xx_cryp_aes.c ****     }
 204:/home/rdu/Workspace/project_templates/mcu/stm32_ws/src/libraries/STM32F4xx_StdPeriph_Driver/src/stm32f4xx_cryp_aes.c ****   }
 205:/home/rdu/Workspace/project_templates/mcu/stm32_ws/src/libraries/STM32F4xx_StdPeriph_Driver/src/stm32f4xx_cryp_aes.c ****   /*------------------ AES Encryption ------------------*/
 206:/home/rdu/Workspace/project_templates/mcu/stm32_ws/src/libraries/STM32F4xx_StdPeriph_Driver/src/stm32f4xx_cryp_aes.c ****   else /* AES encryption */
 207:/home/rdu/Workspace/project_templates/mcu/stm32_ws/src/libraries/STM32F4xx_StdPeriph_Driver/src/stm32f4xx_cryp_aes.c ****   {
 208:/home/rdu/Workspace/project_templates/mcu/stm32_ws/src/libraries/STM32F4xx_StdPeriph_Driver/src/stm32f4xx_cryp_aes.c **** 
 209:/home/rdu/Workspace/project_templates/mcu/stm32_ws/src/libraries/STM32F4xx_StdPeriph_Driver/src/stm32f4xx_cryp_aes.c ****     CRYP_KeyInit(&AES_CRYP_KeyInitStructure);
 452              		.loc 1 209 0
 453 01f6 06AB     		add	r3, sp, #24
 454 01f8 1846     		mov	r0, r3
 455 01fa FFF7FEFF 		bl	CRYP_KeyInit
 210:/home/rdu/Workspace/project_templates/mcu/stm32_ws/src/libraries/STM32F4xx_StdPeriph_Driver/src/stm32f4xx_cryp_aes.c **** 
 211:/home/rdu/Workspace/project_templates/mcu/stm32_ws/src/libraries/STM32F4xx_StdPeriph_Driver/src/stm32f4xx_cryp_aes.c ****     /* Crypto Init for Encryption process */
 212:/home/rdu/Workspace/project_templates/mcu/stm32_ws/src/libraries/STM32F4xx_StdPeriph_Driver/src/stm32f4xx_cryp_aes.c ****     AES_CRYP_InitStructure.CRYP_AlgoDir  = CRYP_AlgoDir_Encrypt;
 456              		.loc 1 212 0
 457 01fe 0023     		movs	r3, #0
 458 0200 0E93     		str	r3, [sp, #56]
 459              	.L30:
 213:/home/rdu/Workspace/project_templates/mcu/stm32_ws/src/libraries/STM32F4xx_StdPeriph_Driver/src/stm32f4xx_cryp_aes.c ****   }
 214:/home/rdu/Workspace/project_templates/mcu/stm32_ws/src/libraries/STM32F4xx_StdPeriph_Driver/src/stm32f4xx_cryp_aes.c **** 
 215:/home/rdu/Workspace/project_templates/mcu/stm32_ws/src/libraries/STM32F4xx_StdPeriph_Driver/src/stm32f4xx_cryp_aes.c ****   AES_CRYP_InitStructure.CRYP_AlgoMode = CRYP_AlgoMode_AES_ECB;
 460              		.loc 1 215 0
 461 0202 2023     		movs	r3, #32
 462 0204 0F93     		str	r3, [sp, #60]
 216:/home/rdu/Workspace/project_templates/mcu/stm32_ws/src/libraries/STM32F4xx_StdPeriph_Driver/src/stm32f4xx_cryp_aes.c ****   AES_CRYP_InitStructure.CRYP_DataType = CRYP_DataType_8b;
 463              		.loc 1 216 0
 464 0206 8023     		movs	r3, #128
 465 0208 1093     		str	r3, [sp, #64]
 217:/home/rdu/Workspace/project_templates/mcu/stm32_ws/src/libraries/STM32F4xx_StdPeriph_Driver/src/stm32f4xx_cryp_aes.c ****   CRYP_Init(&AES_CRYP_InitStructure);
 466              		.loc 1 217 0
 467 020a 0EAB     		add	r3, sp, #56
 468 020c 1846     		mov	r0, r3
 469 020e FFF7FEFF 		bl	CRYP_Init
 218:/home/rdu/Workspace/project_templates/mcu/stm32_ws/src/libraries/STM32F4xx_StdPeriph_Driver/src/stm32f4xx_cryp_aes.c **** 
 219:/home/rdu/Workspace/project_templates/mcu/stm32_ws/src/libraries/STM32F4xx_StdPeriph_Driver/src/stm32f4xx_cryp_aes.c ****   /* Flush IN/OUT FIFOs */
 220:/home/rdu/Workspace/project_templates/mcu/stm32_ws/src/libraries/STM32F4xx_StdPeriph_Driver/src/stm32f4xx_cryp_aes.c ****   CRYP_FIFOFlush();
 470              		.loc 1 220 0
 471 0212 FFF7FEFF 		bl	CRYP_FIFOFlush
 221:/home/rdu/Workspace/project_templates/mcu/stm32_ws/src/libraries/STM32F4xx_StdPeriph_Driver/src/stm32f4xx_cryp_aes.c **** 
 222:/home/rdu/Workspace/project_templates/mcu/stm32_ws/src/libraries/STM32F4xx_StdPeriph_Driver/src/stm32f4xx_cryp_aes.c ****   /* Enable Crypto processor */
 223:/home/rdu/Workspace/project_templates/mcu/stm32_ws/src/libraries/STM32F4xx_StdPeriph_Driver/src/stm32f4xx_cryp_aes.c ****   CRYP_Cmd(ENABLE);
 472              		.loc 1 223 0
 473 0216 0120     		movs	r0, #1
 474 0218 FFF7FEFF 		bl	CRYP_Cmd
 224:/home/rdu/Workspace/project_templates/mcu/stm32_ws/src/libraries/STM32F4xx_StdPeriph_Driver/src/stm32f4xx_cryp_aes.c **** 
 225:/home/rdu/Workspace/project_templates/mcu/stm32_ws/src/libraries/STM32F4xx_StdPeriph_Driver/src/stm32f4xx_cryp_aes.c ****   if(CRYP_GetCmdStatus() == DISABLE)
 475              		.loc 1 225 0
 476 021c FFF7FEFF 		bl	CRYP_GetCmdStatus
 477 0220 0346     		mov	r3, r0
 478 0222 002B     		cmp	r3, #0
 479 0224 01D1     		bne	.L31
 226:/home/rdu/Workspace/project_templates/mcu/stm32_ws/src/libraries/STM32F4xx_StdPeriph_Driver/src/stm32f4xx_cryp_aes.c ****   {
 227:/home/rdu/Workspace/project_templates/mcu/stm32_ws/src/libraries/STM32F4xx_StdPeriph_Driver/src/stm32f4xx_cryp_aes.c ****     /* The CRYP peripheral clock is not enabled or the device doesn't embed 
 228:/home/rdu/Workspace/project_templates/mcu/stm32_ws/src/libraries/STM32F4xx_StdPeriph_Driver/src/stm32f4xx_cryp_aes.c ****        the CRYP peripheral (please check the device sales type. */
 229:/home/rdu/Workspace/project_templates/mcu/stm32_ws/src/libraries/STM32F4xx_StdPeriph_Driver/src/stm32f4xx_cryp_aes.c ****     return(ERROR);
 480              		.loc 1 229 0
 481 0226 0023     		movs	r3, #0
 482 0228 6AE0     		b	.L40
 483              	.L31:
 230:/home/rdu/Workspace/project_templates/mcu/stm32_ws/src/libraries/STM32F4xx_StdPeriph_Driver/src/stm32f4xx_cryp_aes.c ****   }
 231:/home/rdu/Workspace/project_templates/mcu/stm32_ws/src/libraries/STM32F4xx_StdPeriph_Driver/src/stm32f4xx_cryp_aes.c ****   
 232:/home/rdu/Workspace/project_templates/mcu/stm32_ws/src/libraries/STM32F4xx_StdPeriph_Driver/src/stm32f4xx_cryp_aes.c ****   for(i=0; ((i<Ilength) && (status != ERROR)); i+=16)
 484              		.loc 1 232 0
 485 022a 0023     		movs	r3, #0
 486 022c 2693     		str	r3, [sp, #152]
 487 022e 5AE0     		b	.L33
 488              	.L39:
 233:/home/rdu/Workspace/project_templates/mcu/stm32_ws/src/libraries/STM32F4xx_StdPeriph_Driver/src/stm32f4xx_cryp_aes.c ****   {
 234:/home/rdu/Workspace/project_templates/mcu/stm32_ws/src/libraries/STM32F4xx_StdPeriph_Driver/src/stm32f4xx_cryp_aes.c **** 
 235:/home/rdu/Workspace/project_templates/mcu/stm32_ws/src/libraries/STM32F4xx_StdPeriph_Driver/src/stm32f4xx_cryp_aes.c ****     /* Write the Input block in the IN FIFO */
 236:/home/rdu/Workspace/project_templates/mcu/stm32_ws/src/libraries/STM32F4xx_StdPeriph_Driver/src/stm32f4xx_cryp_aes.c ****     CRYP_DataIn(*(uint32_t*)(inputaddr));
 489              		.loc 1 236 0
 490 0230 289B     		ldr	r3, [sp, #160]
 491 0232 1B68     		ldr	r3, [r3]
 492 0234 1846     		mov	r0, r3
 493 0236 FFF7FEFF 		bl	CRYP_DataIn
 237:/home/rdu/Workspace/project_templates/mcu/stm32_ws/src/libraries/STM32F4xx_StdPeriph_Driver/src/stm32f4xx_cryp_aes.c ****     inputaddr+=4;
 494              		.loc 1 237 0
 495 023a 289B     		ldr	r3, [sp, #160]
 496 023c 0433     		adds	r3, r3, #4
 497 023e 2893     		str	r3, [sp, #160]
 238:/home/rdu/Workspace/project_templates/mcu/stm32_ws/src/libraries/STM32F4xx_StdPeriph_Driver/src/stm32f4xx_cryp_aes.c ****     CRYP_DataIn(*(uint32_t*)(inputaddr));
 498              		.loc 1 238 0
 499 0240 289B     		ldr	r3, [sp, #160]
 500 0242 1B68     		ldr	r3, [r3]
 501 0244 1846     		mov	r0, r3
 502 0246 FFF7FEFF 		bl	CRYP_DataIn
 239:/home/rdu/Workspace/project_templates/mcu/stm32_ws/src/libraries/STM32F4xx_StdPeriph_Driver/src/stm32f4xx_cryp_aes.c ****     inputaddr+=4;
 503              		.loc 1 239 0
 504 024a 289B     		ldr	r3, [sp, #160]
 505 024c 0433     		adds	r3, r3, #4
 506 024e 2893     		str	r3, [sp, #160]
 240:/home/rdu/Workspace/project_templates/mcu/stm32_ws/src/libraries/STM32F4xx_StdPeriph_Driver/src/stm32f4xx_cryp_aes.c ****     CRYP_DataIn(*(uint32_t*)(inputaddr));
 507              		.loc 1 240 0
 508 0250 289B     		ldr	r3, [sp, #160]
 509 0252 1B68     		ldr	r3, [r3]
 510 0254 1846     		mov	r0, r3
 511 0256 FFF7FEFF 		bl	CRYP_DataIn
 241:/home/rdu/Workspace/project_templates/mcu/stm32_ws/src/libraries/STM32F4xx_StdPeriph_Driver/src/stm32f4xx_cryp_aes.c ****     inputaddr+=4;
 512              		.loc 1 241 0
 513 025a 289B     		ldr	r3, [sp, #160]
 514 025c 0433     		adds	r3, r3, #4
 515 025e 2893     		str	r3, [sp, #160]
 242:/home/rdu/Workspace/project_templates/mcu/stm32_ws/src/libraries/STM32F4xx_StdPeriph_Driver/src/stm32f4xx_cryp_aes.c ****     CRYP_DataIn(*(uint32_t*)(inputaddr));
 516              		.loc 1 242 0
 517 0260 289B     		ldr	r3, [sp, #160]
 518 0262 1B68     		ldr	r3, [r3]
 519 0264 1846     		mov	r0, r3
 520 0266 FFF7FEFF 		bl	CRYP_DataIn
 243:/home/rdu/Workspace/project_templates/mcu/stm32_ws/src/libraries/STM32F4xx_StdPeriph_Driver/src/stm32f4xx_cryp_aes.c ****     inputaddr+=4;
 521              		.loc 1 243 0
 522 026a 289B     		ldr	r3, [sp, #160]
 523 026c 0433     		adds	r3, r3, #4
 524 026e 2893     		str	r3, [sp, #160]
 244:/home/rdu/Workspace/project_templates/mcu/stm32_ws/src/libraries/STM32F4xx_StdPeriph_Driver/src/stm32f4xx_cryp_aes.c **** 
 245:/home/rdu/Workspace/project_templates/mcu/stm32_ws/src/libraries/STM32F4xx_StdPeriph_Driver/src/stm32f4xx_cryp_aes.c ****     /* Wait until the complete message has been processed */
 246:/home/rdu/Workspace/project_templates/mcu/stm32_ws/src/libraries/STM32F4xx_StdPeriph_Driver/src/stm32f4xx_cryp_aes.c ****     counter = 0;
 525              		.loc 1 246 0
 526 0270 0023     		movs	r3, #0
 527 0272 0593     		str	r3, [sp, #20]
 528              	.L35:
 247:/home/rdu/Workspace/project_templates/mcu/stm32_ws/src/libraries/STM32F4xx_StdPeriph_Driver/src/stm32f4xx_cryp_aes.c ****     do
 248:/home/rdu/Workspace/project_templates/mcu/stm32_ws/src/libraries/STM32F4xx_StdPeriph_Driver/src/stm32f4xx_cryp_aes.c ****     {
 249:/home/rdu/Workspace/project_templates/mcu/stm32_ws/src/libraries/STM32F4xx_StdPeriph_Driver/src/stm32f4xx_cryp_aes.c ****       busystatus = CRYP_GetFlagStatus(CRYP_FLAG_BUSY);
 529              		.loc 1 249 0 discriminator 2
 530 0274 1020     		movs	r0, #16
 531 0276 FFF7FEFF 		bl	CRYP_GetFlagStatus
 532 027a 0346     		mov	r3, r0
 533 027c 2593     		str	r3, [sp, #148]
 250:/home/rdu/Workspace/project_templates/mcu/stm32_ws/src/libraries/STM32F4xx_StdPeriph_Driver/src/stm32f4xx_cryp_aes.c ****       counter++;
 534              		.loc 1 250 0 discriminator 2
 535 027e 059B     		ldr	r3, [sp, #20]
 536 0280 0133     		adds	r3, r3, #1
 537 0282 0593     		str	r3, [sp, #20]
 251:/home/rdu/Workspace/project_templates/mcu/stm32_ws/src/libraries/STM32F4xx_StdPeriph_Driver/src/stm32f4xx_cryp_aes.c ****     }while ((counter != AESBUSY_TIMEOUT) && (busystatus != RESET));
 538              		.loc 1 251 0 discriminator 2
 539 0284 059B     		ldr	r3, [sp, #20]
 540 0286 B3F5803F 		cmp	r3, #65536
 541 028a 02D0     		beq	.L34
 542              		.loc 1 251 0 is_stmt 0 discriminator 1
 543 028c 259B     		ldr	r3, [sp, #148]
 544 028e 002B     		cmp	r3, #0
 545 0290 F0D1     		bne	.L35
 546              	.L34:
 252:/home/rdu/Workspace/project_templates/mcu/stm32_ws/src/libraries/STM32F4xx_StdPeriph_Driver/src/stm32f4xx_cryp_aes.c **** 
 253:/home/rdu/Workspace/project_templates/mcu/stm32_ws/src/libraries/STM32F4xx_StdPeriph_Driver/src/stm32f4xx_cryp_aes.c ****     if (busystatus != RESET)
 547              		.loc 1 253 0 is_stmt 1
 548 0292 259B     		ldr	r3, [sp, #148]
 549 0294 002B     		cmp	r3, #0
 550 0296 03D0     		beq	.L36
 254:/home/rdu/Workspace/project_templates/mcu/stm32_ws/src/libraries/STM32F4xx_StdPeriph_Driver/src/stm32f4xx_cryp_aes.c ****    {
 255:/home/rdu/Workspace/project_templates/mcu/stm32_ws/src/libraries/STM32F4xx_StdPeriph_Driver/src/stm32f4xx_cryp_aes.c ****        status = ERROR;
 551              		.loc 1 255 0
 552 0298 0023     		movs	r3, #0
 553 029a 8DF8A730 		strb	r3, [sp, #167]
 554 029e 1FE0     		b	.L37
 555              	.L36:
 256:/home/rdu/Workspace/project_templates/mcu/stm32_ws/src/libraries/STM32F4xx_StdPeriph_Driver/src/stm32f4xx_cryp_aes.c ****     }
 257:/home/rdu/Workspace/project_templates/mcu/stm32_ws/src/libraries/STM32F4xx_StdPeriph_Driver/src/stm32f4xx_cryp_aes.c ****     else
 258:/home/rdu/Workspace/project_templates/mcu/stm32_ws/src/libraries/STM32F4xx_StdPeriph_Driver/src/stm32f4xx_cryp_aes.c ****     {
 259:/home/rdu/Workspace/project_templates/mcu/stm32_ws/src/libraries/STM32F4xx_StdPeriph_Driver/src/stm32f4xx_cryp_aes.c **** 
 260:/home/rdu/Workspace/project_templates/mcu/stm32_ws/src/libraries/STM32F4xx_StdPeriph_Driver/src/stm32f4xx_cryp_aes.c ****       /* Read the Output block from the Output FIFO */
 261:/home/rdu/Workspace/project_templates/mcu/stm32_ws/src/libraries/STM32F4xx_StdPeriph_Driver/src/stm32f4xx_cryp_aes.c ****       *(uint32_t*)(outputaddr) = CRYP_DataOut();
 556              		.loc 1 261 0
 557 02a0 279C     		ldr	r4, [sp, #156]
 558 02a2 FFF7FEFF 		bl	CRYP_DataOut
 559 02a6 0346     		mov	r3, r0
 560 02a8 2360     		str	r3, [r4]
 262:/home/rdu/Workspace/project_templates/mcu/stm32_ws/src/libraries/STM32F4xx_StdPeriph_Driver/src/stm32f4xx_cryp_aes.c ****       outputaddr+=4;
 561              		.loc 1 262 0
 562 02aa 279B     		ldr	r3, [sp, #156]
 563 02ac 0433     		adds	r3, r3, #4
 564 02ae 2793     		str	r3, [sp, #156]
 263:/home/rdu/Workspace/project_templates/mcu/stm32_ws/src/libraries/STM32F4xx_StdPeriph_Driver/src/stm32f4xx_cryp_aes.c ****       *(uint32_t*)(outputaddr) = CRYP_DataOut();
 565              		.loc 1 263 0
 566 02b0 279C     		ldr	r4, [sp, #156]
 567 02b2 FFF7FEFF 		bl	CRYP_DataOut
 568 02b6 0346     		mov	r3, r0
 569 02b8 2360     		str	r3, [r4]
 264:/home/rdu/Workspace/project_templates/mcu/stm32_ws/src/libraries/STM32F4xx_StdPeriph_Driver/src/stm32f4xx_cryp_aes.c ****       outputaddr+=4;
 570              		.loc 1 264 0
 571 02ba 279B     		ldr	r3, [sp, #156]
 572 02bc 0433     		adds	r3, r3, #4
 573 02be 2793     		str	r3, [sp, #156]
 265:/home/rdu/Workspace/project_templates/mcu/stm32_ws/src/libraries/STM32F4xx_StdPeriph_Driver/src/stm32f4xx_cryp_aes.c ****       *(uint32_t*)(outputaddr) = CRYP_DataOut();
 574              		.loc 1 265 0
 575 02c0 279C     		ldr	r4, [sp, #156]
 576 02c2 FFF7FEFF 		bl	CRYP_DataOut
 577 02c6 0346     		mov	r3, r0
 578 02c8 2360     		str	r3, [r4]
 266:/home/rdu/Workspace/project_templates/mcu/stm32_ws/src/libraries/STM32F4xx_StdPeriph_Driver/src/stm32f4xx_cryp_aes.c ****       outputaddr+=4;
 579              		.loc 1 266 0
 580 02ca 279B     		ldr	r3, [sp, #156]
 581 02cc 0433     		adds	r3, r3, #4
 582 02ce 2793     		str	r3, [sp, #156]
 267:/home/rdu/Workspace/project_templates/mcu/stm32_ws/src/libraries/STM32F4xx_StdPeriph_Driver/src/stm32f4xx_cryp_aes.c ****       *(uint32_t*)(outputaddr) = CRYP_DataOut(); 
 583              		.loc 1 267 0
 584 02d0 279C     		ldr	r4, [sp, #156]
 585 02d2 FFF7FEFF 		bl	CRYP_DataOut
 586 02d6 0346     		mov	r3, r0
 587 02d8 2360     		str	r3, [r4]
 268:/home/rdu/Workspace/project_templates/mcu/stm32_ws/src/libraries/STM32F4xx_StdPeriph_Driver/src/stm32f4xx_cryp_aes.c ****       outputaddr+=4;
 588              		.loc 1 268 0
 589 02da 279B     		ldr	r3, [sp, #156]
 590 02dc 0433     		adds	r3, r3, #4
 591 02de 2793     		str	r3, [sp, #156]
 592              	.L37:
 232:/home/rdu/Workspace/project_templates/mcu/stm32_ws/src/libraries/STM32F4xx_StdPeriph_Driver/src/stm32f4xx_cryp_aes.c ****   {
 593              		.loc 1 232 0 discriminator 2
 594 02e0 269B     		ldr	r3, [sp, #152]
 595 02e2 1033     		adds	r3, r3, #16
 596 02e4 2693     		str	r3, [sp, #152]
 597              	.L33:
 232:/home/rdu/Workspace/project_templates/mcu/stm32_ws/src/libraries/STM32F4xx_StdPeriph_Driver/src/stm32f4xx_cryp_aes.c ****   {
 598              		.loc 1 232 0 is_stmt 0 discriminator 1
 599 02e6 269A     		ldr	r2, [sp, #152]
 600 02e8 2C9B     		ldr	r3, [sp, #176]
 601 02ea 9A42     		cmp	r2, r3
 602 02ec 03D2     		bcs	.L38
 232:/home/rdu/Workspace/project_templates/mcu/stm32_ws/src/libraries/STM32F4xx_StdPeriph_Driver/src/stm32f4xx_cryp_aes.c ****   {
 603              		.loc 1 232 0 discriminator 3
 604 02ee 9DF8A730 		ldrb	r3, [sp, #167]	@ zero_extendqisi2
 605 02f2 002B     		cmp	r3, #0
 606 02f4 9CD1     		bne	.L39
 607              	.L38:
 269:/home/rdu/Workspace/project_templates/mcu/stm32_ws/src/libraries/STM32F4xx_StdPeriph_Driver/src/stm32f4xx_cryp_aes.c ****     }
 270:/home/rdu/Workspace/project_templates/mcu/stm32_ws/src/libraries/STM32F4xx_StdPeriph_Driver/src/stm32f4xx_cryp_aes.c ****   }
 271:/home/rdu/Workspace/project_templates/mcu/stm32_ws/src/libraries/STM32F4xx_StdPeriph_Driver/src/stm32f4xx_cryp_aes.c **** 
 272:/home/rdu/Workspace/project_templates/mcu/stm32_ws/src/libraries/STM32F4xx_StdPeriph_Driver/src/stm32f4xx_cryp_aes.c ****   /* Disable Crypto */
 273:/home/rdu/Workspace/project_templates/mcu/stm32_ws/src/libraries/STM32F4xx_StdPeriph_Driver/src/stm32f4xx_cryp_aes.c ****   CRYP_Cmd(DISABLE);
 608              		.loc 1 273 0 is_stmt 1
 609 02f6 0020     		movs	r0, #0
 610 02f8 FFF7FEFF 		bl	CRYP_Cmd
 274:/home/rdu/Workspace/project_templates/mcu/stm32_ws/src/libraries/STM32F4xx_StdPeriph_Driver/src/stm32f4xx_cryp_aes.c **** 
 275:/home/rdu/Workspace/project_templates/mcu/stm32_ws/src/libraries/STM32F4xx_StdPeriph_Driver/src/stm32f4xx_cryp_aes.c ****   return status; 
 611              		.loc 1 275 0
 612 02fc 9DF8A730 		ldrb	r3, [sp, #167]	@ zero_extendqisi2
 613              	.L40:
 276:/home/rdu/Workspace/project_templates/mcu/stm32_ws/src/libraries/STM32F4xx_StdPeriph_Driver/src/stm32f4xx_cryp_aes.c **** }
 614              		.loc 1 276 0 discriminator 1
 615 0300 1846     		mov	r0, r3
 616 0302 2AB0     		add	sp, sp, #168
 617              	.LCFI2:
 618              		.cfi_def_cfa_offset 8
 619              		@ sp needed
 620 0304 10BD     		pop	{r4, pc}
 621              		.cfi_endproc
 622              	.LFE123:
 624              		.section	.text.CRYP_AES_CBC,"ax",%progbits
 625              		.align	1
 626              		.global	CRYP_AES_CBC
 627              		.syntax unified
 628              		.thumb
 629              		.thumb_func
 630              		.fpu fpv4-sp-d16
 632              	CRYP_AES_CBC:
 633              	.LFB124:
 277:/home/rdu/Workspace/project_templates/mcu/stm32_ws/src/libraries/STM32F4xx_StdPeriph_Driver/src/stm32f4xx_cryp_aes.c **** 
 278:/home/rdu/Workspace/project_templates/mcu/stm32_ws/src/libraries/STM32F4xx_StdPeriph_Driver/src/stm32f4xx_cryp_aes.c **** /**
 279:/home/rdu/Workspace/project_templates/mcu/stm32_ws/src/libraries/STM32F4xx_StdPeriph_Driver/src/stm32f4xx_cryp_aes.c ****   * @brief  Encrypt and decrypt using AES in CBC Mode
 280:/home/rdu/Workspace/project_templates/mcu/stm32_ws/src/libraries/STM32F4xx_StdPeriph_Driver/src/stm32f4xx_cryp_aes.c ****   * @param  Mode: encryption or decryption Mode.
 281:/home/rdu/Workspace/project_templates/mcu/stm32_ws/src/libraries/STM32F4xx_StdPeriph_Driver/src/stm32f4xx_cryp_aes.c ****   *          This parameter can be one of the following values:
 282:/home/rdu/Workspace/project_templates/mcu/stm32_ws/src/libraries/STM32F4xx_StdPeriph_Driver/src/stm32f4xx_cryp_aes.c ****   *            @arg MODE_ENCRYPT: Encryption
 283:/home/rdu/Workspace/project_templates/mcu/stm32_ws/src/libraries/STM32F4xx_StdPeriph_Driver/src/stm32f4xx_cryp_aes.c ****   *            @arg MODE_DECRYPT: Decryption
 284:/home/rdu/Workspace/project_templates/mcu/stm32_ws/src/libraries/STM32F4xx_StdPeriph_Driver/src/stm32f4xx_cryp_aes.c ****   * @param  InitVectors: Initialisation Vectors used for AES algorithm.
 285:/home/rdu/Workspace/project_templates/mcu/stm32_ws/src/libraries/STM32F4xx_StdPeriph_Driver/src/stm32f4xx_cryp_aes.c ****   * @param  Key: Key used for AES algorithm.
 286:/home/rdu/Workspace/project_templates/mcu/stm32_ws/src/libraries/STM32F4xx_StdPeriph_Driver/src/stm32f4xx_cryp_aes.c ****   * @param  Keysize: length of the Key, must be a 128, 192 or 256.
 287:/home/rdu/Workspace/project_templates/mcu/stm32_ws/src/libraries/STM32F4xx_StdPeriph_Driver/src/stm32f4xx_cryp_aes.c ****   * @param  Input: pointer to the Input buffer.
 288:/home/rdu/Workspace/project_templates/mcu/stm32_ws/src/libraries/STM32F4xx_StdPeriph_Driver/src/stm32f4xx_cryp_aes.c ****   * @param  Ilength: length of the Input buffer, must be a multiple of 16.
 289:/home/rdu/Workspace/project_templates/mcu/stm32_ws/src/libraries/STM32F4xx_StdPeriph_Driver/src/stm32f4xx_cryp_aes.c ****   * @param  Output: pointer to the returned buffer.
 290:/home/rdu/Workspace/project_templates/mcu/stm32_ws/src/libraries/STM32F4xx_StdPeriph_Driver/src/stm32f4xx_cryp_aes.c ****   * @retval An ErrorStatus enumeration value:
 291:/home/rdu/Workspace/project_templates/mcu/stm32_ws/src/libraries/STM32F4xx_StdPeriph_Driver/src/stm32f4xx_cryp_aes.c ****   *          - SUCCESS: Operation done
 292:/home/rdu/Workspace/project_templates/mcu/stm32_ws/src/libraries/STM32F4xx_StdPeriph_Driver/src/stm32f4xx_cryp_aes.c ****   *          - ERROR: Operation failed
 293:/home/rdu/Workspace/project_templates/mcu/stm32_ws/src/libraries/STM32F4xx_StdPeriph_Driver/src/stm32f4xx_cryp_aes.c ****   */
 294:/home/rdu/Workspace/project_templates/mcu/stm32_ws/src/libraries/STM32F4xx_StdPeriph_Driver/src/stm32f4xx_cryp_aes.c **** ErrorStatus CRYP_AES_CBC(uint8_t Mode, uint8_t InitVectors[16], uint8_t *Key,
 295:/home/rdu/Workspace/project_templates/mcu/stm32_ws/src/libraries/STM32F4xx_StdPeriph_Driver/src/stm32f4xx_cryp_aes.c ****                          uint16_t Keysize, uint8_t *Input, uint32_t Ilength,
 296:/home/rdu/Workspace/project_templates/mcu/stm32_ws/src/libraries/STM32F4xx_StdPeriph_Driver/src/stm32f4xx_cryp_aes.c ****                          uint8_t *Output)
 297:/home/rdu/Workspace/project_templates/mcu/stm32_ws/src/libraries/STM32F4xx_StdPeriph_Driver/src/stm32f4xx_cryp_aes.c **** {
 634              		.loc 1 297 0
 635              		.cfi_startproc
 636              		@ args = 12, pretend = 0, frame = 200
 637              		@ frame_needed = 0, uses_anonymous_args = 0
 638 0000 10B5     		push	{r4, lr}
 639              	.LCFI3:
 640              		.cfi_def_cfa_offset 8
 641              		.cfi_offset 4, -8
 642              		.cfi_offset 14, -4
 643 0002 B2B0     		sub	sp, sp, #200
 644              	.LCFI4:
 645              		.cfi_def_cfa_offset 208
 646 0004 0291     		str	r1, [sp, #8]
 647 0006 0192     		str	r2, [sp, #4]
 648 0008 1A46     		mov	r2, r3
 649 000a 0346     		mov	r3, r0
 650 000c 8DF80F30 		strb	r3, [sp, #15]
 651 0010 1346     		mov	r3, r2	@ movhi
 652 0012 ADF80C30 		strh	r3, [sp, #12]	@ movhi
 298:/home/rdu/Workspace/project_templates/mcu/stm32_ws/src/libraries/STM32F4xx_StdPeriph_Driver/src/stm32f4xx_cryp_aes.c ****   CRYP_InitTypeDef AES_CRYP_InitStructure;
 299:/home/rdu/Workspace/project_templates/mcu/stm32_ws/src/libraries/STM32F4xx_StdPeriph_Driver/src/stm32f4xx_cryp_aes.c ****   CRYP_KeyInitTypeDef AES_CRYP_KeyInitStructure;
 300:/home/rdu/Workspace/project_templates/mcu/stm32_ws/src/libraries/STM32F4xx_StdPeriph_Driver/src/stm32f4xx_cryp_aes.c ****   CRYP_IVInitTypeDef AES_CRYP_IVInitStructure;
 301:/home/rdu/Workspace/project_templates/mcu/stm32_ws/src/libraries/STM32F4xx_StdPeriph_Driver/src/stm32f4xx_cryp_aes.c ****   __IO uint32_t counter = 0;
 653              		.loc 1 301 0
 654 0016 0023     		movs	r3, #0
 655 0018 0493     		str	r3, [sp, #16]
 302:/home/rdu/Workspace/project_templates/mcu/stm32_ws/src/libraries/STM32F4xx_StdPeriph_Driver/src/stm32f4xx_cryp_aes.c ****   uint32_t busystatus = 0;
 656              		.loc 1 302 0
 657 001a 0023     		movs	r3, #0
 658 001c 2D93     		str	r3, [sp, #180]
 303:/home/rdu/Workspace/project_templates/mcu/stm32_ws/src/libraries/STM32F4xx_StdPeriph_Driver/src/stm32f4xx_cryp_aes.c ****   ErrorStatus status = SUCCESS;
 659              		.loc 1 303 0
 660 001e 0123     		movs	r3, #1
 661 0020 8DF8C730 		strb	r3, [sp, #199]
 304:/home/rdu/Workspace/project_templates/mcu/stm32_ws/src/libraries/STM32F4xx_StdPeriph_Driver/src/stm32f4xx_cryp_aes.c ****   uint32_t keyaddr    = (uint32_t)Key;
 662              		.loc 1 304 0
 663 0024 019B     		ldr	r3, [sp, #4]
 664 0026 2C93     		str	r3, [sp, #176]
 305:/home/rdu/Workspace/project_templates/mcu/stm32_ws/src/libraries/STM32F4xx_StdPeriph_Driver/src/stm32f4xx_cryp_aes.c ****   uint32_t inputaddr  = (uint32_t)Input;
 665              		.loc 1 305 0
 666 0028 349B     		ldr	r3, [sp, #208]
 667 002a 3093     		str	r3, [sp, #192]
 306:/home/rdu/Workspace/project_templates/mcu/stm32_ws/src/libraries/STM32F4xx_StdPeriph_Driver/src/stm32f4xx_cryp_aes.c ****   uint32_t outputaddr = (uint32_t)Output;
 668              		.loc 1 306 0
 669 002c 369B     		ldr	r3, [sp, #216]
 670 002e 2F93     		str	r3, [sp, #188]
 307:/home/rdu/Workspace/project_templates/mcu/stm32_ws/src/libraries/STM32F4xx_StdPeriph_Driver/src/stm32f4xx_cryp_aes.c ****   uint32_t ivaddr = (uint32_t)InitVectors;
 671              		.loc 1 307 0
 672 0030 029B     		ldr	r3, [sp, #8]
 673 0032 2B93     		str	r3, [sp, #172]
 308:/home/rdu/Workspace/project_templates/mcu/stm32_ws/src/libraries/STM32F4xx_StdPeriph_Driver/src/stm32f4xx_cryp_aes.c ****   uint32_t i = 0;
 674              		.loc 1 308 0
 675 0034 0023     		movs	r3, #0
 676 0036 2E93     		str	r3, [sp, #184]
 309:/home/rdu/Workspace/project_templates/mcu/stm32_ws/src/libraries/STM32F4xx_StdPeriph_Driver/src/stm32f4xx_cryp_aes.c **** 
 310:/home/rdu/Workspace/project_templates/mcu/stm32_ws/src/libraries/STM32F4xx_StdPeriph_Driver/src/stm32f4xx_cryp_aes.c ****   /* Crypto structures initialisation*/
 311:/home/rdu/Workspace/project_templates/mcu/stm32_ws/src/libraries/STM32F4xx_StdPeriph_Driver/src/stm32f4xx_cryp_aes.c ****   CRYP_KeyStructInit(&AES_CRYP_KeyInitStructure);
 677              		.loc 1 311 0
 678 0038 09AB     		add	r3, sp, #36
 679 003a 1846     		mov	r0, r3
 680 003c FFF7FEFF 		bl	CRYP_KeyStructInit
 312:/home/rdu/Workspace/project_templates/mcu/stm32_ws/src/libraries/STM32F4xx_StdPeriph_Driver/src/stm32f4xx_cryp_aes.c **** 
 313:/home/rdu/Workspace/project_templates/mcu/stm32_ws/src/libraries/STM32F4xx_StdPeriph_Driver/src/stm32f4xx_cryp_aes.c ****   switch(Keysize)
 681              		.loc 1 313 0
 682 0040 BDF80C30 		ldrh	r3, [sp, #12]
 683 0044 C02B     		cmp	r3, #192
 684 0046 29D0     		beq	.L43
 685 0048 B3F5807F 		cmp	r3, #256
 686 004c 5DD0     		beq	.L44
 687 004e 802B     		cmp	r3, #128
 688 0050 00D0     		beq	.L45
 314:/home/rdu/Workspace/project_templates/mcu/stm32_ws/src/libraries/STM32F4xx_StdPeriph_Driver/src/stm32f4xx_cryp_aes.c ****   {
 315:/home/rdu/Workspace/project_templates/mcu/stm32_ws/src/libraries/STM32F4xx_StdPeriph_Driver/src/stm32f4xx_cryp_aes.c ****     case 128:
 316:/home/rdu/Workspace/project_templates/mcu/stm32_ws/src/libraries/STM32F4xx_StdPeriph_Driver/src/stm32f4xx_cryp_aes.c ****     AES_CRYP_InitStructure.CRYP_KeySize = CRYP_KeySize_128b;
 317:/home/rdu/Workspace/project_templates/mcu/stm32_ws/src/libraries/STM32F4xx_StdPeriph_Driver/src/stm32f4xx_cryp_aes.c ****     AES_CRYP_KeyInitStructure.CRYP_Key2Left = __REV(*(uint32_t*)(keyaddr));
 318:/home/rdu/Workspace/project_templates/mcu/stm32_ws/src/libraries/STM32F4xx_StdPeriph_Driver/src/stm32f4xx_cryp_aes.c ****     keyaddr+=4;
 319:/home/rdu/Workspace/project_templates/mcu/stm32_ws/src/libraries/STM32F4xx_StdPeriph_Driver/src/stm32f4xx_cryp_aes.c ****     AES_CRYP_KeyInitStructure.CRYP_Key2Right= __REV(*(uint32_t*)(keyaddr));
 320:/home/rdu/Workspace/project_templates/mcu/stm32_ws/src/libraries/STM32F4xx_StdPeriph_Driver/src/stm32f4xx_cryp_aes.c ****     keyaddr+=4;
 321:/home/rdu/Workspace/project_templates/mcu/stm32_ws/src/libraries/STM32F4xx_StdPeriph_Driver/src/stm32f4xx_cryp_aes.c ****     AES_CRYP_KeyInitStructure.CRYP_Key3Left = __REV(*(uint32_t*)(keyaddr));
 322:/home/rdu/Workspace/project_templates/mcu/stm32_ws/src/libraries/STM32F4xx_StdPeriph_Driver/src/stm32f4xx_cryp_aes.c ****     keyaddr+=4;
 323:/home/rdu/Workspace/project_templates/mcu/stm32_ws/src/libraries/STM32F4xx_StdPeriph_Driver/src/stm32f4xx_cryp_aes.c ****     AES_CRYP_KeyInitStructure.CRYP_Key3Right= __REV(*(uint32_t*)(keyaddr));
 324:/home/rdu/Workspace/project_templates/mcu/stm32_ws/src/libraries/STM32F4xx_StdPeriph_Driver/src/stm32f4xx_cryp_aes.c ****     break;
 325:/home/rdu/Workspace/project_templates/mcu/stm32_ws/src/libraries/STM32F4xx_StdPeriph_Driver/src/stm32f4xx_cryp_aes.c ****     case 192:
 326:/home/rdu/Workspace/project_templates/mcu/stm32_ws/src/libraries/STM32F4xx_StdPeriph_Driver/src/stm32f4xx_cryp_aes.c ****     AES_CRYP_InitStructure.CRYP_KeySize  = CRYP_KeySize_192b;
 327:/home/rdu/Workspace/project_templates/mcu/stm32_ws/src/libraries/STM32F4xx_StdPeriph_Driver/src/stm32f4xx_cryp_aes.c ****     AES_CRYP_KeyInitStructure.CRYP_Key1Left = __REV(*(uint32_t*)(keyaddr));
 328:/home/rdu/Workspace/project_templates/mcu/stm32_ws/src/libraries/STM32F4xx_StdPeriph_Driver/src/stm32f4xx_cryp_aes.c ****     keyaddr+=4;
 329:/home/rdu/Workspace/project_templates/mcu/stm32_ws/src/libraries/STM32F4xx_StdPeriph_Driver/src/stm32f4xx_cryp_aes.c ****     AES_CRYP_KeyInitStructure.CRYP_Key1Right= __REV(*(uint32_t*)(keyaddr));
 330:/home/rdu/Workspace/project_templates/mcu/stm32_ws/src/libraries/STM32F4xx_StdPeriph_Driver/src/stm32f4xx_cryp_aes.c ****     keyaddr+=4;
 331:/home/rdu/Workspace/project_templates/mcu/stm32_ws/src/libraries/STM32F4xx_StdPeriph_Driver/src/stm32f4xx_cryp_aes.c ****     AES_CRYP_KeyInitStructure.CRYP_Key2Left = __REV(*(uint32_t*)(keyaddr));
 332:/home/rdu/Workspace/project_templates/mcu/stm32_ws/src/libraries/STM32F4xx_StdPeriph_Driver/src/stm32f4xx_cryp_aes.c ****     keyaddr+=4;
 333:/home/rdu/Workspace/project_templates/mcu/stm32_ws/src/libraries/STM32F4xx_StdPeriph_Driver/src/stm32f4xx_cryp_aes.c ****     AES_CRYP_KeyInitStructure.CRYP_Key2Right= __REV(*(uint32_t*)(keyaddr));
 334:/home/rdu/Workspace/project_templates/mcu/stm32_ws/src/libraries/STM32F4xx_StdPeriph_Driver/src/stm32f4xx_cryp_aes.c ****     keyaddr+=4;
 335:/home/rdu/Workspace/project_templates/mcu/stm32_ws/src/libraries/STM32F4xx_StdPeriph_Driver/src/stm32f4xx_cryp_aes.c ****     AES_CRYP_KeyInitStructure.CRYP_Key3Left = __REV(*(uint32_t*)(keyaddr));
 336:/home/rdu/Workspace/project_templates/mcu/stm32_ws/src/libraries/STM32F4xx_StdPeriph_Driver/src/stm32f4xx_cryp_aes.c ****     keyaddr+=4;
 337:/home/rdu/Workspace/project_templates/mcu/stm32_ws/src/libraries/STM32F4xx_StdPeriph_Driver/src/stm32f4xx_cryp_aes.c ****     AES_CRYP_KeyInitStructure.CRYP_Key3Right= __REV(*(uint32_t*)(keyaddr));
 338:/home/rdu/Workspace/project_templates/mcu/stm32_ws/src/libraries/STM32F4xx_StdPeriph_Driver/src/stm32f4xx_cryp_aes.c ****     break;
 339:/home/rdu/Workspace/project_templates/mcu/stm32_ws/src/libraries/STM32F4xx_StdPeriph_Driver/src/stm32f4xx_cryp_aes.c ****     case 256:
 340:/home/rdu/Workspace/project_templates/mcu/stm32_ws/src/libraries/STM32F4xx_StdPeriph_Driver/src/stm32f4xx_cryp_aes.c ****     AES_CRYP_InitStructure.CRYP_KeySize  = CRYP_KeySize_256b;
 341:/home/rdu/Workspace/project_templates/mcu/stm32_ws/src/libraries/STM32F4xx_StdPeriph_Driver/src/stm32f4xx_cryp_aes.c ****     AES_CRYP_KeyInitStructure.CRYP_Key0Left = __REV(*(uint32_t*)(keyaddr));
 342:/home/rdu/Workspace/project_templates/mcu/stm32_ws/src/libraries/STM32F4xx_StdPeriph_Driver/src/stm32f4xx_cryp_aes.c ****     keyaddr+=4;
 343:/home/rdu/Workspace/project_templates/mcu/stm32_ws/src/libraries/STM32F4xx_StdPeriph_Driver/src/stm32f4xx_cryp_aes.c ****     AES_CRYP_KeyInitStructure.CRYP_Key0Right= __REV(*(uint32_t*)(keyaddr));
 344:/home/rdu/Workspace/project_templates/mcu/stm32_ws/src/libraries/STM32F4xx_StdPeriph_Driver/src/stm32f4xx_cryp_aes.c ****     keyaddr+=4;
 345:/home/rdu/Workspace/project_templates/mcu/stm32_ws/src/libraries/STM32F4xx_StdPeriph_Driver/src/stm32f4xx_cryp_aes.c ****     AES_CRYP_KeyInitStructure.CRYP_Key1Left = __REV(*(uint32_t*)(keyaddr));
 346:/home/rdu/Workspace/project_templates/mcu/stm32_ws/src/libraries/STM32F4xx_StdPeriph_Driver/src/stm32f4xx_cryp_aes.c ****     keyaddr+=4;
 347:/home/rdu/Workspace/project_templates/mcu/stm32_ws/src/libraries/STM32F4xx_StdPeriph_Driver/src/stm32f4xx_cryp_aes.c ****     AES_CRYP_KeyInitStructure.CRYP_Key1Right= __REV(*(uint32_t*)(keyaddr));
 348:/home/rdu/Workspace/project_templates/mcu/stm32_ws/src/libraries/STM32F4xx_StdPeriph_Driver/src/stm32f4xx_cryp_aes.c ****     keyaddr+=4;
 349:/home/rdu/Workspace/project_templates/mcu/stm32_ws/src/libraries/STM32F4xx_StdPeriph_Driver/src/stm32f4xx_cryp_aes.c ****     AES_CRYP_KeyInitStructure.CRYP_Key2Left = __REV(*(uint32_t*)(keyaddr));
 350:/home/rdu/Workspace/project_templates/mcu/stm32_ws/src/libraries/STM32F4xx_StdPeriph_Driver/src/stm32f4xx_cryp_aes.c ****     keyaddr+=4;
 351:/home/rdu/Workspace/project_templates/mcu/stm32_ws/src/libraries/STM32F4xx_StdPeriph_Driver/src/stm32f4xx_cryp_aes.c ****     AES_CRYP_KeyInitStructure.CRYP_Key2Right= __REV(*(uint32_t*)(keyaddr));
 352:/home/rdu/Workspace/project_templates/mcu/stm32_ws/src/libraries/STM32F4xx_StdPeriph_Driver/src/stm32f4xx_cryp_aes.c ****     keyaddr+=4;
 353:/home/rdu/Workspace/project_templates/mcu/stm32_ws/src/libraries/STM32F4xx_StdPeriph_Driver/src/stm32f4xx_cryp_aes.c ****     AES_CRYP_KeyInitStructure.CRYP_Key3Left = __REV(*(uint32_t*)(keyaddr));
 354:/home/rdu/Workspace/project_templates/mcu/stm32_ws/src/libraries/STM32F4xx_StdPeriph_Driver/src/stm32f4xx_cryp_aes.c ****     keyaddr+=4;
 355:/home/rdu/Workspace/project_templates/mcu/stm32_ws/src/libraries/STM32F4xx_StdPeriph_Driver/src/stm32f4xx_cryp_aes.c ****     AES_CRYP_KeyInitStructure.CRYP_Key3Right= __REV(*(uint32_t*)(keyaddr));
 356:/home/rdu/Workspace/project_templates/mcu/stm32_ws/src/libraries/STM32F4xx_StdPeriph_Driver/src/stm32f4xx_cryp_aes.c ****     break;
 357:/home/rdu/Workspace/project_templates/mcu/stm32_ws/src/libraries/STM32F4xx_StdPeriph_Driver/src/stm32f4xx_cryp_aes.c ****     default:
 358:/home/rdu/Workspace/project_templates/mcu/stm32_ws/src/libraries/STM32F4xx_StdPeriph_Driver/src/stm32f4xx_cryp_aes.c ****     break;
 689              		.loc 1 358 0
 690 0052 A3E0     		b	.L50
 691              	.L45:
 316:/home/rdu/Workspace/project_templates/mcu/stm32_ws/src/libraries/STM32F4xx_StdPeriph_Driver/src/stm32f4xx_cryp_aes.c ****     AES_CRYP_KeyInitStructure.CRYP_Key2Left = __REV(*(uint32_t*)(keyaddr));
 692              		.loc 1 316 0
 693 0054 0023     		movs	r3, #0
 694 0056 1493     		str	r3, [sp, #80]
 317:/home/rdu/Workspace/project_templates/mcu/stm32_ws/src/libraries/STM32F4xx_StdPeriph_Driver/src/stm32f4xx_cryp_aes.c ****     keyaddr+=4;
 695              		.loc 1 317 0
 696 0058 2C9B     		ldr	r3, [sp, #176]
 697 005a 1B68     		ldr	r3, [r3]
 698 005c 2793     		str	r3, [sp, #156]
 699              	.LBB266:
 700              	.LBB267:
 701              		.loc 2 498 0
 702 005e 279B     		ldr	r3, [sp, #156]
 703 0060 1BBA     		rev	r3, r3
 704              	.LBE267:
 705              	.LBE266:
 317:/home/rdu/Workspace/project_templates/mcu/stm32_ws/src/libraries/STM32F4xx_StdPeriph_Driver/src/stm32f4xx_cryp_aes.c ****     keyaddr+=4;
 706              		.loc 1 317 0
 707 0062 0D93     		str	r3, [sp, #52]
 318:/home/rdu/Workspace/project_templates/mcu/stm32_ws/src/libraries/STM32F4xx_StdPeriph_Driver/src/stm32f4xx_cryp_aes.c ****     AES_CRYP_KeyInitStructure.CRYP_Key2Right= __REV(*(uint32_t*)(keyaddr));
 708              		.loc 1 318 0
 709 0064 2C9B     		ldr	r3, [sp, #176]
 710 0066 0433     		adds	r3, r3, #4
 711 0068 2C93     		str	r3, [sp, #176]
 319:/home/rdu/Workspace/project_templates/mcu/stm32_ws/src/libraries/STM32F4xx_StdPeriph_Driver/src/stm32f4xx_cryp_aes.c ****     keyaddr+=4;
 712              		.loc 1 319 0
 713 006a 2C9B     		ldr	r3, [sp, #176]
 714 006c 1B68     		ldr	r3, [r3]
 715 006e 2893     		str	r3, [sp, #160]
 716              	.LBB268:
 717              	.LBB269:
 718              		.loc 2 498 0
 719 0070 289B     		ldr	r3, [sp, #160]
 720 0072 1BBA     		rev	r3, r3
 721              	.LBE269:
 722              	.LBE268:
 319:/home/rdu/Workspace/project_templates/mcu/stm32_ws/src/libraries/STM32F4xx_StdPeriph_Driver/src/stm32f4xx_cryp_aes.c ****     keyaddr+=4;
 723              		.loc 1 319 0
 724 0074 0E93     		str	r3, [sp, #56]
 320:/home/rdu/Workspace/project_templates/mcu/stm32_ws/src/libraries/STM32F4xx_StdPeriph_Driver/src/stm32f4xx_cryp_aes.c ****     AES_CRYP_KeyInitStructure.CRYP_Key3Left = __REV(*(uint32_t*)(keyaddr));
 725              		.loc 1 320 0
 726 0076 2C9B     		ldr	r3, [sp, #176]
 727 0078 0433     		adds	r3, r3, #4
 728 007a 2C93     		str	r3, [sp, #176]
 321:/home/rdu/Workspace/project_templates/mcu/stm32_ws/src/libraries/STM32F4xx_StdPeriph_Driver/src/stm32f4xx_cryp_aes.c ****     keyaddr+=4;
 729              		.loc 1 321 0
 730 007c 2C9B     		ldr	r3, [sp, #176]
 731 007e 1B68     		ldr	r3, [r3]
 732 0080 2993     		str	r3, [sp, #164]
 733              	.LBB270:
 734              	.LBB271:
 735              		.loc 2 498 0
 736 0082 299B     		ldr	r3, [sp, #164]
 737 0084 1BBA     		rev	r3, r3
 738              	.LBE271:
 739              	.LBE270:
 321:/home/rdu/Workspace/project_templates/mcu/stm32_ws/src/libraries/STM32F4xx_StdPeriph_Driver/src/stm32f4xx_cryp_aes.c ****     keyaddr+=4;
 740              		.loc 1 321 0
 741 0086 0F93     		str	r3, [sp, #60]
 322:/home/rdu/Workspace/project_templates/mcu/stm32_ws/src/libraries/STM32F4xx_StdPeriph_Driver/src/stm32f4xx_cryp_aes.c ****     AES_CRYP_KeyInitStructure.CRYP_Key3Right= __REV(*(uint32_t*)(keyaddr));
 742              		.loc 1 322 0
 743 0088 2C9B     		ldr	r3, [sp, #176]
 744 008a 0433     		adds	r3, r3, #4
 745 008c 2C93     		str	r3, [sp, #176]
 323:/home/rdu/Workspace/project_templates/mcu/stm32_ws/src/libraries/STM32F4xx_StdPeriph_Driver/src/stm32f4xx_cryp_aes.c ****     break;
 746              		.loc 1 323 0
 747 008e 2C9B     		ldr	r3, [sp, #176]
 748 0090 1B68     		ldr	r3, [r3]
 749 0092 2A93     		str	r3, [sp, #168]
 750              	.LBB272:
 751              	.LBB273:
 752              		.loc 2 498 0
 753 0094 2A9B     		ldr	r3, [sp, #168]
 754 0096 1BBA     		rev	r3, r3
 755              	.LBE273:
 756              	.LBE272:
 323:/home/rdu/Workspace/project_templates/mcu/stm32_ws/src/libraries/STM32F4xx_StdPeriph_Driver/src/stm32f4xx_cryp_aes.c ****     break;
 757              		.loc 1 323 0
 758 0098 1093     		str	r3, [sp, #64]
 324:/home/rdu/Workspace/project_templates/mcu/stm32_ws/src/libraries/STM32F4xx_StdPeriph_Driver/src/stm32f4xx_cryp_aes.c ****     case 192:
 759              		.loc 1 324 0
 760 009a 7FE0     		b	.L50
 761              	.L43:
 326:/home/rdu/Workspace/project_templates/mcu/stm32_ws/src/libraries/STM32F4xx_StdPeriph_Driver/src/stm32f4xx_cryp_aes.c ****     AES_CRYP_KeyInitStructure.CRYP_Key1Left = __REV(*(uint32_t*)(keyaddr));
 762              		.loc 1 326 0
 763 009c 4FF48073 		mov	r3, #256
 764 00a0 1493     		str	r3, [sp, #80]
 327:/home/rdu/Workspace/project_templates/mcu/stm32_ws/src/libraries/STM32F4xx_StdPeriph_Driver/src/stm32f4xx_cryp_aes.c ****     keyaddr+=4;
 765              		.loc 1 327 0
 766 00a2 2C9B     		ldr	r3, [sp, #176]
 767 00a4 1B68     		ldr	r3, [r3]
 768 00a6 2193     		str	r3, [sp, #132]
 769              	.LBB274:
 770              	.LBB275:
 771              		.loc 2 498 0
 772 00a8 219B     		ldr	r3, [sp, #132]
 773 00aa 1BBA     		rev	r3, r3
 774              	.LBE275:
 775              	.LBE274:
 327:/home/rdu/Workspace/project_templates/mcu/stm32_ws/src/libraries/STM32F4xx_StdPeriph_Driver/src/stm32f4xx_cryp_aes.c ****     keyaddr+=4;
 776              		.loc 1 327 0
 777 00ac 0B93     		str	r3, [sp, #44]
 328:/home/rdu/Workspace/project_templates/mcu/stm32_ws/src/libraries/STM32F4xx_StdPeriph_Driver/src/stm32f4xx_cryp_aes.c ****     AES_CRYP_KeyInitStructure.CRYP_Key1Right= __REV(*(uint32_t*)(keyaddr));
 778              		.loc 1 328 0
 779 00ae 2C9B     		ldr	r3, [sp, #176]
 780 00b0 0433     		adds	r3, r3, #4
 781 00b2 2C93     		str	r3, [sp, #176]
 329:/home/rdu/Workspace/project_templates/mcu/stm32_ws/src/libraries/STM32F4xx_StdPeriph_Driver/src/stm32f4xx_cryp_aes.c ****     keyaddr+=4;
 782              		.loc 1 329 0
 783 00b4 2C9B     		ldr	r3, [sp, #176]
 784 00b6 1B68     		ldr	r3, [r3]
 785 00b8 2293     		str	r3, [sp, #136]
 786              	.LBB276:
 787              	.LBB277:
 788              		.loc 2 498 0
 789 00ba 229B     		ldr	r3, [sp, #136]
 790 00bc 1BBA     		rev	r3, r3
 791              	.LBE277:
 792              	.LBE276:
 329:/home/rdu/Workspace/project_templates/mcu/stm32_ws/src/libraries/STM32F4xx_StdPeriph_Driver/src/stm32f4xx_cryp_aes.c ****     keyaddr+=4;
 793              		.loc 1 329 0
 794 00be 0C93     		str	r3, [sp, #48]
 330:/home/rdu/Workspace/project_templates/mcu/stm32_ws/src/libraries/STM32F4xx_StdPeriph_Driver/src/stm32f4xx_cryp_aes.c ****     AES_CRYP_KeyInitStructure.CRYP_Key2Left = __REV(*(uint32_t*)(keyaddr));
 795              		.loc 1 330 0
 796 00c0 2C9B     		ldr	r3, [sp, #176]
 797 00c2 0433     		adds	r3, r3, #4
 798 00c4 2C93     		str	r3, [sp, #176]
 331:/home/rdu/Workspace/project_templates/mcu/stm32_ws/src/libraries/STM32F4xx_StdPeriph_Driver/src/stm32f4xx_cryp_aes.c ****     keyaddr+=4;
 799              		.loc 1 331 0
 800 00c6 2C9B     		ldr	r3, [sp, #176]
 801 00c8 1B68     		ldr	r3, [r3]
 802 00ca 2393     		str	r3, [sp, #140]
 803              	.LBB278:
 804              	.LBB279:
 805              		.loc 2 498 0
 806 00cc 239B     		ldr	r3, [sp, #140]
 807 00ce 1BBA     		rev	r3, r3
 808              	.LBE279:
 809              	.LBE278:
 331:/home/rdu/Workspace/project_templates/mcu/stm32_ws/src/libraries/STM32F4xx_StdPeriph_Driver/src/stm32f4xx_cryp_aes.c ****     keyaddr+=4;
 810              		.loc 1 331 0
 811 00d0 0D93     		str	r3, [sp, #52]
 332:/home/rdu/Workspace/project_templates/mcu/stm32_ws/src/libraries/STM32F4xx_StdPeriph_Driver/src/stm32f4xx_cryp_aes.c ****     AES_CRYP_KeyInitStructure.CRYP_Key2Right= __REV(*(uint32_t*)(keyaddr));
 812              		.loc 1 332 0
 813 00d2 2C9B     		ldr	r3, [sp, #176]
 814 00d4 0433     		adds	r3, r3, #4
 815 00d6 2C93     		str	r3, [sp, #176]
 333:/home/rdu/Workspace/project_templates/mcu/stm32_ws/src/libraries/STM32F4xx_StdPeriph_Driver/src/stm32f4xx_cryp_aes.c ****     keyaddr+=4;
 816              		.loc 1 333 0
 817 00d8 2C9B     		ldr	r3, [sp, #176]
 818 00da 1B68     		ldr	r3, [r3]
 819 00dc 2493     		str	r3, [sp, #144]
 820              	.LBB280:
 821              	.LBB281:
 822              		.loc 2 498 0
 823 00de 249B     		ldr	r3, [sp, #144]
 824 00e0 1BBA     		rev	r3, r3
 825              	.LBE281:
 826              	.LBE280:
 333:/home/rdu/Workspace/project_templates/mcu/stm32_ws/src/libraries/STM32F4xx_StdPeriph_Driver/src/stm32f4xx_cryp_aes.c ****     keyaddr+=4;
 827              		.loc 1 333 0
 828 00e2 0E93     		str	r3, [sp, #56]
 334:/home/rdu/Workspace/project_templates/mcu/stm32_ws/src/libraries/STM32F4xx_StdPeriph_Driver/src/stm32f4xx_cryp_aes.c ****     AES_CRYP_KeyInitStructure.CRYP_Key3Left = __REV(*(uint32_t*)(keyaddr));
 829              		.loc 1 334 0
 830 00e4 2C9B     		ldr	r3, [sp, #176]
 831 00e6 0433     		adds	r3, r3, #4
 832 00e8 2C93     		str	r3, [sp, #176]
 335:/home/rdu/Workspace/project_templates/mcu/stm32_ws/src/libraries/STM32F4xx_StdPeriph_Driver/src/stm32f4xx_cryp_aes.c ****     keyaddr+=4;
 833              		.loc 1 335 0
 834 00ea 2C9B     		ldr	r3, [sp, #176]
 835 00ec 1B68     		ldr	r3, [r3]
 836 00ee 2593     		str	r3, [sp, #148]
 837              	.LBB282:
 838              	.LBB283:
 839              		.loc 2 498 0
 840 00f0 259B     		ldr	r3, [sp, #148]
 841 00f2 1BBA     		rev	r3, r3
 842              	.LBE283:
 843              	.LBE282:
 335:/home/rdu/Workspace/project_templates/mcu/stm32_ws/src/libraries/STM32F4xx_StdPeriph_Driver/src/stm32f4xx_cryp_aes.c ****     keyaddr+=4;
 844              		.loc 1 335 0
 845 00f4 0F93     		str	r3, [sp, #60]
 336:/home/rdu/Workspace/project_templates/mcu/stm32_ws/src/libraries/STM32F4xx_StdPeriph_Driver/src/stm32f4xx_cryp_aes.c ****     AES_CRYP_KeyInitStructure.CRYP_Key3Right= __REV(*(uint32_t*)(keyaddr));
 846              		.loc 1 336 0
 847 00f6 2C9B     		ldr	r3, [sp, #176]
 848 00f8 0433     		adds	r3, r3, #4
 849 00fa 2C93     		str	r3, [sp, #176]
 337:/home/rdu/Workspace/project_templates/mcu/stm32_ws/src/libraries/STM32F4xx_StdPeriph_Driver/src/stm32f4xx_cryp_aes.c ****     break;
 850              		.loc 1 337 0
 851 00fc 2C9B     		ldr	r3, [sp, #176]
 852 00fe 1B68     		ldr	r3, [r3]
 853 0100 2693     		str	r3, [sp, #152]
 854              	.LBB284:
 855              	.LBB285:
 856              		.loc 2 498 0
 857 0102 269B     		ldr	r3, [sp, #152]
 858 0104 1BBA     		rev	r3, r3
 859              	.LBE285:
 860              	.LBE284:
 337:/home/rdu/Workspace/project_templates/mcu/stm32_ws/src/libraries/STM32F4xx_StdPeriph_Driver/src/stm32f4xx_cryp_aes.c ****     break;
 861              		.loc 1 337 0
 862 0106 1093     		str	r3, [sp, #64]
 338:/home/rdu/Workspace/project_templates/mcu/stm32_ws/src/libraries/STM32F4xx_StdPeriph_Driver/src/stm32f4xx_cryp_aes.c ****     case 256:
 863              		.loc 1 338 0
 864 0108 48E0     		b	.L50
 865              	.L44:
 340:/home/rdu/Workspace/project_templates/mcu/stm32_ws/src/libraries/STM32F4xx_StdPeriph_Driver/src/stm32f4xx_cryp_aes.c ****     AES_CRYP_KeyInitStructure.CRYP_Key0Left = __REV(*(uint32_t*)(keyaddr));
 866              		.loc 1 340 0
 867 010a 4FF40073 		mov	r3, #512
 868 010e 1493     		str	r3, [sp, #80]
 341:/home/rdu/Workspace/project_templates/mcu/stm32_ws/src/libraries/STM32F4xx_StdPeriph_Driver/src/stm32f4xx_cryp_aes.c ****     keyaddr+=4;
 869              		.loc 1 341 0
 870 0110 2C9B     		ldr	r3, [sp, #176]
 871 0112 1B68     		ldr	r3, [r3]
 872 0114 1993     		str	r3, [sp, #100]
 873              	.LBB286:
 874              	.LBB287:
 875              		.loc 2 498 0
 876 0116 199B     		ldr	r3, [sp, #100]
 877 0118 1BBA     		rev	r3, r3
 878              	.LBE287:
 879              	.LBE286:
 341:/home/rdu/Workspace/project_templates/mcu/stm32_ws/src/libraries/STM32F4xx_StdPeriph_Driver/src/stm32f4xx_cryp_aes.c ****     keyaddr+=4;
 880              		.loc 1 341 0
 881 011a 0993     		str	r3, [sp, #36]
 342:/home/rdu/Workspace/project_templates/mcu/stm32_ws/src/libraries/STM32F4xx_StdPeriph_Driver/src/stm32f4xx_cryp_aes.c ****     AES_CRYP_KeyInitStructure.CRYP_Key0Right= __REV(*(uint32_t*)(keyaddr));
 882              		.loc 1 342 0
 883 011c 2C9B     		ldr	r3, [sp, #176]
 884 011e 0433     		adds	r3, r3, #4
 885 0120 2C93     		str	r3, [sp, #176]
 343:/home/rdu/Workspace/project_templates/mcu/stm32_ws/src/libraries/STM32F4xx_StdPeriph_Driver/src/stm32f4xx_cryp_aes.c ****     keyaddr+=4;
 886              		.loc 1 343 0
 887 0122 2C9B     		ldr	r3, [sp, #176]
 888 0124 1B68     		ldr	r3, [r3]
 889 0126 1A93     		str	r3, [sp, #104]
 890              	.LBB288:
 891              	.LBB289:
 892              		.loc 2 498 0
 893 0128 1A9B     		ldr	r3, [sp, #104]
 894 012a 1BBA     		rev	r3, r3
 895              	.LBE289:
 896              	.LBE288:
 343:/home/rdu/Workspace/project_templates/mcu/stm32_ws/src/libraries/STM32F4xx_StdPeriph_Driver/src/stm32f4xx_cryp_aes.c ****     keyaddr+=4;
 897              		.loc 1 343 0
 898 012c 0A93     		str	r3, [sp, #40]
 344:/home/rdu/Workspace/project_templates/mcu/stm32_ws/src/libraries/STM32F4xx_StdPeriph_Driver/src/stm32f4xx_cryp_aes.c ****     AES_CRYP_KeyInitStructure.CRYP_Key1Left = __REV(*(uint32_t*)(keyaddr));
 899              		.loc 1 344 0
 900 012e 2C9B     		ldr	r3, [sp, #176]
 901 0130 0433     		adds	r3, r3, #4
 902 0132 2C93     		str	r3, [sp, #176]
 345:/home/rdu/Workspace/project_templates/mcu/stm32_ws/src/libraries/STM32F4xx_StdPeriph_Driver/src/stm32f4xx_cryp_aes.c ****     keyaddr+=4;
 903              		.loc 1 345 0
 904 0134 2C9B     		ldr	r3, [sp, #176]
 905 0136 1B68     		ldr	r3, [r3]
 906 0138 1B93     		str	r3, [sp, #108]
 907              	.LBB290:
 908              	.LBB291:
 909              		.loc 2 498 0
 910 013a 1B9B     		ldr	r3, [sp, #108]
 911 013c 1BBA     		rev	r3, r3
 912              	.LBE291:
 913              	.LBE290:
 345:/home/rdu/Workspace/project_templates/mcu/stm32_ws/src/libraries/STM32F4xx_StdPeriph_Driver/src/stm32f4xx_cryp_aes.c ****     keyaddr+=4;
 914              		.loc 1 345 0
 915 013e 0B93     		str	r3, [sp, #44]
 346:/home/rdu/Workspace/project_templates/mcu/stm32_ws/src/libraries/STM32F4xx_StdPeriph_Driver/src/stm32f4xx_cryp_aes.c ****     AES_CRYP_KeyInitStructure.CRYP_Key1Right= __REV(*(uint32_t*)(keyaddr));
 916              		.loc 1 346 0
 917 0140 2C9B     		ldr	r3, [sp, #176]
 918 0142 0433     		adds	r3, r3, #4
 919 0144 2C93     		str	r3, [sp, #176]
 347:/home/rdu/Workspace/project_templates/mcu/stm32_ws/src/libraries/STM32F4xx_StdPeriph_Driver/src/stm32f4xx_cryp_aes.c ****     keyaddr+=4;
 920              		.loc 1 347 0
 921 0146 2C9B     		ldr	r3, [sp, #176]
 922 0148 1B68     		ldr	r3, [r3]
 923 014a 1C93     		str	r3, [sp, #112]
 924              	.LBB292:
 925              	.LBB293:
 926              		.loc 2 498 0
 927 014c 1C9B     		ldr	r3, [sp, #112]
 928 014e 1BBA     		rev	r3, r3
 929              	.LBE293:
 930              	.LBE292:
 347:/home/rdu/Workspace/project_templates/mcu/stm32_ws/src/libraries/STM32F4xx_StdPeriph_Driver/src/stm32f4xx_cryp_aes.c ****     keyaddr+=4;
 931              		.loc 1 347 0
 932 0150 0C93     		str	r3, [sp, #48]
 348:/home/rdu/Workspace/project_templates/mcu/stm32_ws/src/libraries/STM32F4xx_StdPeriph_Driver/src/stm32f4xx_cryp_aes.c ****     AES_CRYP_KeyInitStructure.CRYP_Key2Left = __REV(*(uint32_t*)(keyaddr));
 933              		.loc 1 348 0
 934 0152 2C9B     		ldr	r3, [sp, #176]
 935 0154 0433     		adds	r3, r3, #4
 936 0156 2C93     		str	r3, [sp, #176]
 349:/home/rdu/Workspace/project_templates/mcu/stm32_ws/src/libraries/STM32F4xx_StdPeriph_Driver/src/stm32f4xx_cryp_aes.c ****     keyaddr+=4;
 937              		.loc 1 349 0
 938 0158 2C9B     		ldr	r3, [sp, #176]
 939 015a 1B68     		ldr	r3, [r3]
 940 015c 1D93     		str	r3, [sp, #116]
 941              	.LBB294:
 942              	.LBB295:
 943              		.loc 2 498 0
 944 015e 1D9B     		ldr	r3, [sp, #116]
 945 0160 1BBA     		rev	r3, r3
 946              	.LBE295:
 947              	.LBE294:
 349:/home/rdu/Workspace/project_templates/mcu/stm32_ws/src/libraries/STM32F4xx_StdPeriph_Driver/src/stm32f4xx_cryp_aes.c ****     keyaddr+=4;
 948              		.loc 1 349 0
 949 0162 0D93     		str	r3, [sp, #52]
 350:/home/rdu/Workspace/project_templates/mcu/stm32_ws/src/libraries/STM32F4xx_StdPeriph_Driver/src/stm32f4xx_cryp_aes.c ****     AES_CRYP_KeyInitStructure.CRYP_Key2Right= __REV(*(uint32_t*)(keyaddr));
 950              		.loc 1 350 0
 951 0164 2C9B     		ldr	r3, [sp, #176]
 952 0166 0433     		adds	r3, r3, #4
 953 0168 2C93     		str	r3, [sp, #176]
 351:/home/rdu/Workspace/project_templates/mcu/stm32_ws/src/libraries/STM32F4xx_StdPeriph_Driver/src/stm32f4xx_cryp_aes.c ****     keyaddr+=4;
 954              		.loc 1 351 0
 955 016a 2C9B     		ldr	r3, [sp, #176]
 956 016c 1B68     		ldr	r3, [r3]
 957 016e 1E93     		str	r3, [sp, #120]
 958              	.LBB296:
 959              	.LBB297:
 960              		.loc 2 498 0
 961 0170 1E9B     		ldr	r3, [sp, #120]
 962 0172 1BBA     		rev	r3, r3
 963              	.LBE297:
 964              	.LBE296:
 351:/home/rdu/Workspace/project_templates/mcu/stm32_ws/src/libraries/STM32F4xx_StdPeriph_Driver/src/stm32f4xx_cryp_aes.c ****     keyaddr+=4;
 965              		.loc 1 351 0
 966 0174 0E93     		str	r3, [sp, #56]
 352:/home/rdu/Workspace/project_templates/mcu/stm32_ws/src/libraries/STM32F4xx_StdPeriph_Driver/src/stm32f4xx_cryp_aes.c ****     AES_CRYP_KeyInitStructure.CRYP_Key3Left = __REV(*(uint32_t*)(keyaddr));
 967              		.loc 1 352 0
 968 0176 2C9B     		ldr	r3, [sp, #176]
 969 0178 0433     		adds	r3, r3, #4
 970 017a 2C93     		str	r3, [sp, #176]
 353:/home/rdu/Workspace/project_templates/mcu/stm32_ws/src/libraries/STM32F4xx_StdPeriph_Driver/src/stm32f4xx_cryp_aes.c ****     keyaddr+=4;
 971              		.loc 1 353 0
 972 017c 2C9B     		ldr	r3, [sp, #176]
 973 017e 1B68     		ldr	r3, [r3]
 974 0180 1F93     		str	r3, [sp, #124]
 975              	.LBB298:
 976              	.LBB299:
 977              		.loc 2 498 0
 978 0182 1F9B     		ldr	r3, [sp, #124]
 979 0184 1BBA     		rev	r3, r3
 980              	.LBE299:
 981              	.LBE298:
 353:/home/rdu/Workspace/project_templates/mcu/stm32_ws/src/libraries/STM32F4xx_StdPeriph_Driver/src/stm32f4xx_cryp_aes.c ****     keyaddr+=4;
 982              		.loc 1 353 0
 983 0186 0F93     		str	r3, [sp, #60]
 354:/home/rdu/Workspace/project_templates/mcu/stm32_ws/src/libraries/STM32F4xx_StdPeriph_Driver/src/stm32f4xx_cryp_aes.c ****     AES_CRYP_KeyInitStructure.CRYP_Key3Right= __REV(*(uint32_t*)(keyaddr));
 984              		.loc 1 354 0
 985 0188 2C9B     		ldr	r3, [sp, #176]
 986 018a 0433     		adds	r3, r3, #4
 987 018c 2C93     		str	r3, [sp, #176]
 355:/home/rdu/Workspace/project_templates/mcu/stm32_ws/src/libraries/STM32F4xx_StdPeriph_Driver/src/stm32f4xx_cryp_aes.c ****     break;
 988              		.loc 1 355 0
 989 018e 2C9B     		ldr	r3, [sp, #176]
 990 0190 1B68     		ldr	r3, [r3]
 991 0192 2093     		str	r3, [sp, #128]
 992              	.LBB300:
 993              	.LBB301:
 994              		.loc 2 498 0
 995 0194 209B     		ldr	r3, [sp, #128]
 996 0196 1BBA     		rev	r3, r3
 997              	.LBE301:
 998              	.LBE300:
 355:/home/rdu/Workspace/project_templates/mcu/stm32_ws/src/libraries/STM32F4xx_StdPeriph_Driver/src/stm32f4xx_cryp_aes.c ****     break;
 999              		.loc 1 355 0
 1000 0198 1093     		str	r3, [sp, #64]
 356:/home/rdu/Workspace/project_templates/mcu/stm32_ws/src/libraries/STM32F4xx_StdPeriph_Driver/src/stm32f4xx_cryp_aes.c ****     default:
 1001              		.loc 1 356 0
 1002 019a 00BF     		nop
 1003              	.L50:
 359:/home/rdu/Workspace/project_templates/mcu/stm32_ws/src/libraries/STM32F4xx_StdPeriph_Driver/src/stm32f4xx_cryp_aes.c ****   }
 360:/home/rdu/Workspace/project_templates/mcu/stm32_ws/src/libraries/STM32F4xx_StdPeriph_Driver/src/stm32f4xx_cryp_aes.c **** 
 361:/home/rdu/Workspace/project_templates/mcu/stm32_ws/src/libraries/STM32F4xx_StdPeriph_Driver/src/stm32f4xx_cryp_aes.c ****   /* CRYP Initialization Vectors */
 362:/home/rdu/Workspace/project_templates/mcu/stm32_ws/src/libraries/STM32F4xx_StdPeriph_Driver/src/stm32f4xx_cryp_aes.c ****   AES_CRYP_IVInitStructure.CRYP_IV0Left = __REV(*(uint32_t*)(ivaddr));
 1004              		.loc 1 362 0
 1005 019c 2B9B     		ldr	r3, [sp, #172]
 1006 019e 1B68     		ldr	r3, [r3]
 1007 01a0 1593     		str	r3, [sp, #84]
 1008              	.LBB302:
 1009              	.LBB303:
 1010              		.loc 2 498 0
 1011 01a2 159B     		ldr	r3, [sp, #84]
 1012 01a4 1BBA     		rev	r3, r3
 1013              	.LBE303:
 1014              	.LBE302:
 1015              		.loc 1 362 0
 1016 01a6 0593     		str	r3, [sp, #20]
 363:/home/rdu/Workspace/project_templates/mcu/stm32_ws/src/libraries/STM32F4xx_StdPeriph_Driver/src/stm32f4xx_cryp_aes.c ****   ivaddr+=4;
 1017              		.loc 1 363 0
 1018 01a8 2B9B     		ldr	r3, [sp, #172]
 1019 01aa 0433     		adds	r3, r3, #4
 1020 01ac 2B93     		str	r3, [sp, #172]
 364:/home/rdu/Workspace/project_templates/mcu/stm32_ws/src/libraries/STM32F4xx_StdPeriph_Driver/src/stm32f4xx_cryp_aes.c ****   AES_CRYP_IVInitStructure.CRYP_IV0Right= __REV(*(uint32_t*)(ivaddr));
 1021              		.loc 1 364 0
 1022 01ae 2B9B     		ldr	r3, [sp, #172]
 1023 01b0 1B68     		ldr	r3, [r3]
 1024 01b2 1693     		str	r3, [sp, #88]
 1025              	.LBB304:
 1026              	.LBB305:
 1027              		.loc 2 498 0
 1028 01b4 169B     		ldr	r3, [sp, #88]
 1029 01b6 1BBA     		rev	r3, r3
 1030              	.LBE305:
 1031              	.LBE304:
 1032              		.loc 1 364 0
 1033 01b8 0693     		str	r3, [sp, #24]
 365:/home/rdu/Workspace/project_templates/mcu/stm32_ws/src/libraries/STM32F4xx_StdPeriph_Driver/src/stm32f4xx_cryp_aes.c ****   ivaddr+=4;
 1034              		.loc 1 365 0
 1035 01ba 2B9B     		ldr	r3, [sp, #172]
 1036 01bc 0433     		adds	r3, r3, #4
 1037 01be 2B93     		str	r3, [sp, #172]
 366:/home/rdu/Workspace/project_templates/mcu/stm32_ws/src/libraries/STM32F4xx_StdPeriph_Driver/src/stm32f4xx_cryp_aes.c ****   AES_CRYP_IVInitStructure.CRYP_IV1Left = __REV(*(uint32_t*)(ivaddr));
 1038              		.loc 1 366 0
 1039 01c0 2B9B     		ldr	r3, [sp, #172]
 1040 01c2 1B68     		ldr	r3, [r3]
 1041 01c4 1793     		str	r3, [sp, #92]
 1042              	.LBB306:
 1043              	.LBB307:
 1044              		.loc 2 498 0
 1045 01c6 179B     		ldr	r3, [sp, #92]
 1046 01c8 1BBA     		rev	r3, r3
 1047              	.LBE307:
 1048              	.LBE306:
 1049              		.loc 1 366 0
 1050 01ca 0793     		str	r3, [sp, #28]
 367:/home/rdu/Workspace/project_templates/mcu/stm32_ws/src/libraries/STM32F4xx_StdPeriph_Driver/src/stm32f4xx_cryp_aes.c ****   ivaddr+=4;
 1051              		.loc 1 367 0
 1052 01cc 2B9B     		ldr	r3, [sp, #172]
 1053 01ce 0433     		adds	r3, r3, #4
 1054 01d0 2B93     		str	r3, [sp, #172]
 368:/home/rdu/Workspace/project_templates/mcu/stm32_ws/src/libraries/STM32F4xx_StdPeriph_Driver/src/stm32f4xx_cryp_aes.c ****   AES_CRYP_IVInitStructure.CRYP_IV1Right= __REV(*(uint32_t*)(ivaddr));
 1055              		.loc 1 368 0
 1056 01d2 2B9B     		ldr	r3, [sp, #172]
 1057 01d4 1B68     		ldr	r3, [r3]
 1058 01d6 1893     		str	r3, [sp, #96]
 1059              	.LBB308:
 1060              	.LBB309:
 1061              		.loc 2 498 0
 1062 01d8 189B     		ldr	r3, [sp, #96]
 1063 01da 1BBA     		rev	r3, r3
 1064              	.LBE309:
 1065              	.LBE308:
 1066              		.loc 1 368 0
 1067 01dc 0893     		str	r3, [sp, #32]
 369:/home/rdu/Workspace/project_templates/mcu/stm32_ws/src/libraries/STM32F4xx_StdPeriph_Driver/src/stm32f4xx_cryp_aes.c **** 
 370:/home/rdu/Workspace/project_templates/mcu/stm32_ws/src/libraries/STM32F4xx_StdPeriph_Driver/src/stm32f4xx_cryp_aes.c **** 
 371:/home/rdu/Workspace/project_templates/mcu/stm32_ws/src/libraries/STM32F4xx_StdPeriph_Driver/src/stm32f4xx_cryp_aes.c ****   /*------------------ AES Decryption ------------------*/
 372:/home/rdu/Workspace/project_templates/mcu/stm32_ws/src/libraries/STM32F4xx_StdPeriph_Driver/src/stm32f4xx_cryp_aes.c ****   if(Mode == MODE_DECRYPT) /* AES decryption */
 1068              		.loc 1 372 0
 1069 01de 9DF80F30 		ldrb	r3, [sp, #15]	@ zero_extendqisi2
 1070 01e2 002B     		cmp	r3, #0
 1071 01e4 2BD1     		bne	.L69
 373:/home/rdu/Workspace/project_templates/mcu/stm32_ws/src/libraries/STM32F4xx_StdPeriph_Driver/src/stm32f4xx_cryp_aes.c ****   {
 374:/home/rdu/Workspace/project_templates/mcu/stm32_ws/src/libraries/STM32F4xx_StdPeriph_Driver/src/stm32f4xx_cryp_aes.c ****     /* Flush IN/OUT FIFOs */
 375:/home/rdu/Workspace/project_templates/mcu/stm32_ws/src/libraries/STM32F4xx_StdPeriph_Driver/src/stm32f4xx_cryp_aes.c ****     CRYP_FIFOFlush();
 1072              		.loc 1 375 0
 1073 01e6 FFF7FEFF 		bl	CRYP_FIFOFlush
 376:/home/rdu/Workspace/project_templates/mcu/stm32_ws/src/libraries/STM32F4xx_StdPeriph_Driver/src/stm32f4xx_cryp_aes.c **** 
 377:/home/rdu/Workspace/project_templates/mcu/stm32_ws/src/libraries/STM32F4xx_StdPeriph_Driver/src/stm32f4xx_cryp_aes.c ****     /* Crypto Init for Key preparation for decryption process */
 378:/home/rdu/Workspace/project_templates/mcu/stm32_ws/src/libraries/STM32F4xx_StdPeriph_Driver/src/stm32f4xx_cryp_aes.c ****     AES_CRYP_InitStructure.CRYP_AlgoDir = CRYP_AlgoDir_Decrypt;
 1074              		.loc 1 378 0
 1075 01ea 0423     		movs	r3, #4
 1076 01ec 1193     		str	r3, [sp, #68]
 379:/home/rdu/Workspace/project_templates/mcu/stm32_ws/src/libraries/STM32F4xx_StdPeriph_Driver/src/stm32f4xx_cryp_aes.c ****     AES_CRYP_InitStructure.CRYP_AlgoMode = CRYP_AlgoMode_AES_Key;
 1077              		.loc 1 379 0
 1078 01ee 3823     		movs	r3, #56
 1079 01f0 1293     		str	r3, [sp, #72]
 380:/home/rdu/Workspace/project_templates/mcu/stm32_ws/src/libraries/STM32F4xx_StdPeriph_Driver/src/stm32f4xx_cryp_aes.c ****     AES_CRYP_InitStructure.CRYP_DataType = CRYP_DataType_32b;
 1080              		.loc 1 380 0
 1081 01f2 0023     		movs	r3, #0
 1082 01f4 1393     		str	r3, [sp, #76]
 381:/home/rdu/Workspace/project_templates/mcu/stm32_ws/src/libraries/STM32F4xx_StdPeriph_Driver/src/stm32f4xx_cryp_aes.c **** 
 382:/home/rdu/Workspace/project_templates/mcu/stm32_ws/src/libraries/STM32F4xx_StdPeriph_Driver/src/stm32f4xx_cryp_aes.c ****     CRYP_Init(&AES_CRYP_InitStructure);
 1083              		.loc 1 382 0
 1084 01f6 11AB     		add	r3, sp, #68
 1085 01f8 1846     		mov	r0, r3
 1086 01fa FFF7FEFF 		bl	CRYP_Init
 383:/home/rdu/Workspace/project_templates/mcu/stm32_ws/src/libraries/STM32F4xx_StdPeriph_Driver/src/stm32f4xx_cryp_aes.c **** 
 384:/home/rdu/Workspace/project_templates/mcu/stm32_ws/src/libraries/STM32F4xx_StdPeriph_Driver/src/stm32f4xx_cryp_aes.c ****     /* Key Initialisation */
 385:/home/rdu/Workspace/project_templates/mcu/stm32_ws/src/libraries/STM32F4xx_StdPeriph_Driver/src/stm32f4xx_cryp_aes.c ****     CRYP_KeyInit(&AES_CRYP_KeyInitStructure);
 1087              		.loc 1 385 0
 1088 01fe 09AB     		add	r3, sp, #36
 1089 0200 1846     		mov	r0, r3
 1090 0202 FFF7FEFF 		bl	CRYP_KeyInit
 386:/home/rdu/Workspace/project_templates/mcu/stm32_ws/src/libraries/STM32F4xx_StdPeriph_Driver/src/stm32f4xx_cryp_aes.c **** 
 387:/home/rdu/Workspace/project_templates/mcu/stm32_ws/src/libraries/STM32F4xx_StdPeriph_Driver/src/stm32f4xx_cryp_aes.c ****     /* Enable Crypto processor */
 388:/home/rdu/Workspace/project_templates/mcu/stm32_ws/src/libraries/STM32F4xx_StdPeriph_Driver/src/stm32f4xx_cryp_aes.c ****     CRYP_Cmd(ENABLE);
 1091              		.loc 1 388 0
 1092 0206 0120     		movs	r0, #1
 1093 0208 FFF7FEFF 		bl	CRYP_Cmd
 1094              	.L71:
 389:/home/rdu/Workspace/project_templates/mcu/stm32_ws/src/libraries/STM32F4xx_StdPeriph_Driver/src/stm32f4xx_cryp_aes.c **** 
 390:/home/rdu/Workspace/project_templates/mcu/stm32_ws/src/libraries/STM32F4xx_StdPeriph_Driver/src/stm32f4xx_cryp_aes.c ****     /* wait until the Busy flag is RESET */
 391:/home/rdu/Workspace/project_templates/mcu/stm32_ws/src/libraries/STM32F4xx_StdPeriph_Driver/src/stm32f4xx_cryp_aes.c ****     do
 392:/home/rdu/Workspace/project_templates/mcu/stm32_ws/src/libraries/STM32F4xx_StdPeriph_Driver/src/stm32f4xx_cryp_aes.c ****     {
 393:/home/rdu/Workspace/project_templates/mcu/stm32_ws/src/libraries/STM32F4xx_StdPeriph_Driver/src/stm32f4xx_cryp_aes.c ****       busystatus = CRYP_GetFlagStatus(CRYP_FLAG_BUSY);
 1095              		.loc 1 393 0 discriminator 2
 1096 020c 1020     		movs	r0, #16
 1097 020e FFF7FEFF 		bl	CRYP_GetFlagStatus
 1098 0212 0346     		mov	r3, r0
 1099 0214 2D93     		str	r3, [sp, #180]
 394:/home/rdu/Workspace/project_templates/mcu/stm32_ws/src/libraries/STM32F4xx_StdPeriph_Driver/src/stm32f4xx_cryp_aes.c ****       counter++;
 1100              		.loc 1 394 0 discriminator 2
 1101 0216 049B     		ldr	r3, [sp, #16]
 1102 0218 0133     		adds	r3, r3, #1
 1103 021a 0493     		str	r3, [sp, #16]
 395:/home/rdu/Workspace/project_templates/mcu/stm32_ws/src/libraries/STM32F4xx_StdPeriph_Driver/src/stm32f4xx_cryp_aes.c ****     }while ((counter != AESBUSY_TIMEOUT) && (busystatus != RESET));
 1104              		.loc 1 395 0 discriminator 2
 1105 021c 049B     		ldr	r3, [sp, #16]
 1106 021e B3F5803F 		cmp	r3, #65536
 1107 0222 02D0     		beq	.L70
 1108              		.loc 1 395 0 is_stmt 0 discriminator 1
 1109 0224 2D9B     		ldr	r3, [sp, #180]
 1110 0226 002B     		cmp	r3, #0
 1111 0228 F0D1     		bne	.L71
 1112              	.L70:
 396:/home/rdu/Workspace/project_templates/mcu/stm32_ws/src/libraries/STM32F4xx_StdPeriph_Driver/src/stm32f4xx_cryp_aes.c **** 
 397:/home/rdu/Workspace/project_templates/mcu/stm32_ws/src/libraries/STM32F4xx_StdPeriph_Driver/src/stm32f4xx_cryp_aes.c ****     if (busystatus != RESET)
 1113              		.loc 1 397 0 is_stmt 1
 1114 022a 2D9B     		ldr	r3, [sp, #180]
 1115 022c 002B     		cmp	r3, #0
 1116 022e 03D0     		beq	.L72
 398:/home/rdu/Workspace/project_templates/mcu/stm32_ws/src/libraries/STM32F4xx_StdPeriph_Driver/src/stm32f4xx_cryp_aes.c ****    {
 399:/home/rdu/Workspace/project_templates/mcu/stm32_ws/src/libraries/STM32F4xx_StdPeriph_Driver/src/stm32f4xx_cryp_aes.c ****        status = ERROR;
 1117              		.loc 1 399 0
 1118 0230 0023     		movs	r3, #0
 1119 0232 8DF8C730 		strb	r3, [sp, #199]
 1120 0236 08E0     		b	.L74
 1121              	.L72:
 400:/home/rdu/Workspace/project_templates/mcu/stm32_ws/src/libraries/STM32F4xx_StdPeriph_Driver/src/stm32f4xx_cryp_aes.c ****     }
 401:/home/rdu/Workspace/project_templates/mcu/stm32_ws/src/libraries/STM32F4xx_StdPeriph_Driver/src/stm32f4xx_cryp_aes.c ****     else
 402:/home/rdu/Workspace/project_templates/mcu/stm32_ws/src/libraries/STM32F4xx_StdPeriph_Driver/src/stm32f4xx_cryp_aes.c ****     {
 403:/home/rdu/Workspace/project_templates/mcu/stm32_ws/src/libraries/STM32F4xx_StdPeriph_Driver/src/stm32f4xx_cryp_aes.c ****       /* Crypto Init for decryption process */  
 404:/home/rdu/Workspace/project_templates/mcu/stm32_ws/src/libraries/STM32F4xx_StdPeriph_Driver/src/stm32f4xx_cryp_aes.c ****       AES_CRYP_InitStructure.CRYP_AlgoDir = CRYP_AlgoDir_Decrypt;
 1122              		.loc 1 404 0
 1123 0238 0423     		movs	r3, #4
 1124 023a 1193     		str	r3, [sp, #68]
 1125 023c 05E0     		b	.L74
 1126              	.L69:
 405:/home/rdu/Workspace/project_templates/mcu/stm32_ws/src/libraries/STM32F4xx_StdPeriph_Driver/src/stm32f4xx_cryp_aes.c ****     }
 406:/home/rdu/Workspace/project_templates/mcu/stm32_ws/src/libraries/STM32F4xx_StdPeriph_Driver/src/stm32f4xx_cryp_aes.c ****   }
 407:/home/rdu/Workspace/project_templates/mcu/stm32_ws/src/libraries/STM32F4xx_StdPeriph_Driver/src/stm32f4xx_cryp_aes.c ****   /*------------------ AES Encryption ------------------*/
 408:/home/rdu/Workspace/project_templates/mcu/stm32_ws/src/libraries/STM32F4xx_StdPeriph_Driver/src/stm32f4xx_cryp_aes.c ****   else /* AES encryption */
 409:/home/rdu/Workspace/project_templates/mcu/stm32_ws/src/libraries/STM32F4xx_StdPeriph_Driver/src/stm32f4xx_cryp_aes.c ****   {
 410:/home/rdu/Workspace/project_templates/mcu/stm32_ws/src/libraries/STM32F4xx_StdPeriph_Driver/src/stm32f4xx_cryp_aes.c ****     CRYP_KeyInit(&AES_CRYP_KeyInitStructure);
 1127              		.loc 1 410 0
 1128 023e 09AB     		add	r3, sp, #36
 1129 0240 1846     		mov	r0, r3
 1130 0242 FFF7FEFF 		bl	CRYP_KeyInit
 411:/home/rdu/Workspace/project_templates/mcu/stm32_ws/src/libraries/STM32F4xx_StdPeriph_Driver/src/stm32f4xx_cryp_aes.c **** 
 412:/home/rdu/Workspace/project_templates/mcu/stm32_ws/src/libraries/STM32F4xx_StdPeriph_Driver/src/stm32f4xx_cryp_aes.c ****     /* Crypto Init for Encryption process */
 413:/home/rdu/Workspace/project_templates/mcu/stm32_ws/src/libraries/STM32F4xx_StdPeriph_Driver/src/stm32f4xx_cryp_aes.c ****     AES_CRYP_InitStructure.CRYP_AlgoDir  = CRYP_AlgoDir_Encrypt;
 1131              		.loc 1 413 0
 1132 0246 0023     		movs	r3, #0
 1133 0248 1193     		str	r3, [sp, #68]
 1134              	.L74:
 414:/home/rdu/Workspace/project_templates/mcu/stm32_ws/src/libraries/STM32F4xx_StdPeriph_Driver/src/stm32f4xx_cryp_aes.c ****   }
 415:/home/rdu/Workspace/project_templates/mcu/stm32_ws/src/libraries/STM32F4xx_StdPeriph_Driver/src/stm32f4xx_cryp_aes.c ****   AES_CRYP_InitStructure.CRYP_AlgoMode = CRYP_AlgoMode_AES_CBC;
 1135              		.loc 1 415 0
 1136 024a 2823     		movs	r3, #40
 1137 024c 1293     		str	r3, [sp, #72]
 416:/home/rdu/Workspace/project_templates/mcu/stm32_ws/src/libraries/STM32F4xx_StdPeriph_Driver/src/stm32f4xx_cryp_aes.c ****   AES_CRYP_InitStructure.CRYP_DataType = CRYP_DataType_8b;
 1138              		.loc 1 416 0
 1139 024e 8023     		movs	r3, #128
 1140 0250 1393     		str	r3, [sp, #76]
 417:/home/rdu/Workspace/project_templates/mcu/stm32_ws/src/libraries/STM32F4xx_StdPeriph_Driver/src/stm32f4xx_cryp_aes.c ****   CRYP_Init(&AES_CRYP_InitStructure);
 1141              		.loc 1 417 0
 1142 0252 11AB     		add	r3, sp, #68
 1143 0254 1846     		mov	r0, r3
 1144 0256 FFF7FEFF 		bl	CRYP_Init
 418:/home/rdu/Workspace/project_templates/mcu/stm32_ws/src/libraries/STM32F4xx_StdPeriph_Driver/src/stm32f4xx_cryp_aes.c **** 
 419:/home/rdu/Workspace/project_templates/mcu/stm32_ws/src/libraries/STM32F4xx_StdPeriph_Driver/src/stm32f4xx_cryp_aes.c ****   /* CRYP Initialization Vectors */
 420:/home/rdu/Workspace/project_templates/mcu/stm32_ws/src/libraries/STM32F4xx_StdPeriph_Driver/src/stm32f4xx_cryp_aes.c ****   CRYP_IVInit(&AES_CRYP_IVInitStructure);
 1145              		.loc 1 420 0
 1146 025a 05AB     		add	r3, sp, #20
 1147 025c 1846     		mov	r0, r3
 1148 025e FFF7FEFF 		bl	CRYP_IVInit
 421:/home/rdu/Workspace/project_templates/mcu/stm32_ws/src/libraries/STM32F4xx_StdPeriph_Driver/src/stm32f4xx_cryp_aes.c **** 
 422:/home/rdu/Workspace/project_templates/mcu/stm32_ws/src/libraries/STM32F4xx_StdPeriph_Driver/src/stm32f4xx_cryp_aes.c ****   /* Flush IN/OUT FIFOs */
 423:/home/rdu/Workspace/project_templates/mcu/stm32_ws/src/libraries/STM32F4xx_StdPeriph_Driver/src/stm32f4xx_cryp_aes.c ****   CRYP_FIFOFlush();
 1149              		.loc 1 423 0
 1150 0262 FFF7FEFF 		bl	CRYP_FIFOFlush
 424:/home/rdu/Workspace/project_templates/mcu/stm32_ws/src/libraries/STM32F4xx_StdPeriph_Driver/src/stm32f4xx_cryp_aes.c **** 
 425:/home/rdu/Workspace/project_templates/mcu/stm32_ws/src/libraries/STM32F4xx_StdPeriph_Driver/src/stm32f4xx_cryp_aes.c ****   /* Enable Crypto processor */
 426:/home/rdu/Workspace/project_templates/mcu/stm32_ws/src/libraries/STM32F4xx_StdPeriph_Driver/src/stm32f4xx_cryp_aes.c ****   CRYP_Cmd(ENABLE);
 1151              		.loc 1 426 0
 1152 0266 0120     		movs	r0, #1
 1153 0268 FFF7FEFF 		bl	CRYP_Cmd
 427:/home/rdu/Workspace/project_templates/mcu/stm32_ws/src/libraries/STM32F4xx_StdPeriph_Driver/src/stm32f4xx_cryp_aes.c **** 
 428:/home/rdu/Workspace/project_templates/mcu/stm32_ws/src/libraries/STM32F4xx_StdPeriph_Driver/src/stm32f4xx_cryp_aes.c ****   if(CRYP_GetCmdStatus() == DISABLE)
 1154              		.loc 1 428 0
 1155 026c FFF7FEFF 		bl	CRYP_GetCmdStatus
 1156 0270 0346     		mov	r3, r0
 1157 0272 002B     		cmp	r3, #0
 1158 0274 01D1     		bne	.L75
 429:/home/rdu/Workspace/project_templates/mcu/stm32_ws/src/libraries/STM32F4xx_StdPeriph_Driver/src/stm32f4xx_cryp_aes.c ****   {
 430:/home/rdu/Workspace/project_templates/mcu/stm32_ws/src/libraries/STM32F4xx_StdPeriph_Driver/src/stm32f4xx_cryp_aes.c ****     /* The CRYP peripheral clock is not enabled or the device doesn't embed 
 431:/home/rdu/Workspace/project_templates/mcu/stm32_ws/src/libraries/STM32F4xx_StdPeriph_Driver/src/stm32f4xx_cryp_aes.c ****        the CRYP peripheral (please check the device sales type. */
 432:/home/rdu/Workspace/project_templates/mcu/stm32_ws/src/libraries/STM32F4xx_StdPeriph_Driver/src/stm32f4xx_cryp_aes.c ****     return(ERROR);
 1159              		.loc 1 432 0
 1160 0276 0023     		movs	r3, #0
 1161 0278 6AE0     		b	.L84
 1162              	.L75:
 433:/home/rdu/Workspace/project_templates/mcu/stm32_ws/src/libraries/STM32F4xx_StdPeriph_Driver/src/stm32f4xx_cryp_aes.c ****   }
 434:/home/rdu/Workspace/project_templates/mcu/stm32_ws/src/libraries/STM32F4xx_StdPeriph_Driver/src/stm32f4xx_cryp_aes.c ****   
 435:/home/rdu/Workspace/project_templates/mcu/stm32_ws/src/libraries/STM32F4xx_StdPeriph_Driver/src/stm32f4xx_cryp_aes.c ****   for(i=0; ((i<Ilength) && (status != ERROR)); i+=16)
 1163              		.loc 1 435 0
 1164 027a 0023     		movs	r3, #0
 1165 027c 2E93     		str	r3, [sp, #184]
 1166 027e 5AE0     		b	.L77
 1167              	.L83:
 436:/home/rdu/Workspace/project_templates/mcu/stm32_ws/src/libraries/STM32F4xx_StdPeriph_Driver/src/stm32f4xx_cryp_aes.c ****   {
 437:/home/rdu/Workspace/project_templates/mcu/stm32_ws/src/libraries/STM32F4xx_StdPeriph_Driver/src/stm32f4xx_cryp_aes.c **** 
 438:/home/rdu/Workspace/project_templates/mcu/stm32_ws/src/libraries/STM32F4xx_StdPeriph_Driver/src/stm32f4xx_cryp_aes.c ****     /* Write the Input block in the IN FIFO */
 439:/home/rdu/Workspace/project_templates/mcu/stm32_ws/src/libraries/STM32F4xx_StdPeriph_Driver/src/stm32f4xx_cryp_aes.c ****     CRYP_DataIn(*(uint32_t*)(inputaddr));
 1168              		.loc 1 439 0
 1169 0280 309B     		ldr	r3, [sp, #192]
 1170 0282 1B68     		ldr	r3, [r3]
 1171 0284 1846     		mov	r0, r3
 1172 0286 FFF7FEFF 		bl	CRYP_DataIn
 440:/home/rdu/Workspace/project_templates/mcu/stm32_ws/src/libraries/STM32F4xx_StdPeriph_Driver/src/stm32f4xx_cryp_aes.c ****     inputaddr+=4;
 1173              		.loc 1 440 0
 1174 028a 309B     		ldr	r3, [sp, #192]
 1175 028c 0433     		adds	r3, r3, #4
 1176 028e 3093     		str	r3, [sp, #192]
 441:/home/rdu/Workspace/project_templates/mcu/stm32_ws/src/libraries/STM32F4xx_StdPeriph_Driver/src/stm32f4xx_cryp_aes.c ****     CRYP_DataIn(*(uint32_t*)(inputaddr));
 1177              		.loc 1 441 0
 1178 0290 309B     		ldr	r3, [sp, #192]
 1179 0292 1B68     		ldr	r3, [r3]
 1180 0294 1846     		mov	r0, r3
 1181 0296 FFF7FEFF 		bl	CRYP_DataIn
 442:/home/rdu/Workspace/project_templates/mcu/stm32_ws/src/libraries/STM32F4xx_StdPeriph_Driver/src/stm32f4xx_cryp_aes.c ****     inputaddr+=4;
 1182              		.loc 1 442 0
 1183 029a 309B     		ldr	r3, [sp, #192]
 1184 029c 0433     		adds	r3, r3, #4
 1185 029e 3093     		str	r3, [sp, #192]
 443:/home/rdu/Workspace/project_templates/mcu/stm32_ws/src/libraries/STM32F4xx_StdPeriph_Driver/src/stm32f4xx_cryp_aes.c ****     CRYP_DataIn(*(uint32_t*)(inputaddr));
 1186              		.loc 1 443 0
 1187 02a0 309B     		ldr	r3, [sp, #192]
 1188 02a2 1B68     		ldr	r3, [r3]
 1189 02a4 1846     		mov	r0, r3
 1190 02a6 FFF7FEFF 		bl	CRYP_DataIn
 444:/home/rdu/Workspace/project_templates/mcu/stm32_ws/src/libraries/STM32F4xx_StdPeriph_Driver/src/stm32f4xx_cryp_aes.c ****     inputaddr+=4;
 1191              		.loc 1 444 0
 1192 02aa 309B     		ldr	r3, [sp, #192]
 1193 02ac 0433     		adds	r3, r3, #4
 1194 02ae 3093     		str	r3, [sp, #192]
 445:/home/rdu/Workspace/project_templates/mcu/stm32_ws/src/libraries/STM32F4xx_StdPeriph_Driver/src/stm32f4xx_cryp_aes.c ****     CRYP_DataIn(*(uint32_t*)(inputaddr));
 1195              		.loc 1 445 0
 1196 02b0 309B     		ldr	r3, [sp, #192]
 1197 02b2 1B68     		ldr	r3, [r3]
 1198 02b4 1846     		mov	r0, r3
 1199 02b6 FFF7FEFF 		bl	CRYP_DataIn
 446:/home/rdu/Workspace/project_templates/mcu/stm32_ws/src/libraries/STM32F4xx_StdPeriph_Driver/src/stm32f4xx_cryp_aes.c ****     inputaddr+=4;
 1200              		.loc 1 446 0
 1201 02ba 309B     		ldr	r3, [sp, #192]
 1202 02bc 0433     		adds	r3, r3, #4
 1203 02be 3093     		str	r3, [sp, #192]
 447:/home/rdu/Workspace/project_templates/mcu/stm32_ws/src/libraries/STM32F4xx_StdPeriph_Driver/src/stm32f4xx_cryp_aes.c ****     /* Wait until the complete message has been processed */
 448:/home/rdu/Workspace/project_templates/mcu/stm32_ws/src/libraries/STM32F4xx_StdPeriph_Driver/src/stm32f4xx_cryp_aes.c ****     counter = 0;
 1204              		.loc 1 448 0
 1205 02c0 0023     		movs	r3, #0
 1206 02c2 0493     		str	r3, [sp, #16]
 1207              	.L79:
 449:/home/rdu/Workspace/project_templates/mcu/stm32_ws/src/libraries/STM32F4xx_StdPeriph_Driver/src/stm32f4xx_cryp_aes.c ****     do
 450:/home/rdu/Workspace/project_templates/mcu/stm32_ws/src/libraries/STM32F4xx_StdPeriph_Driver/src/stm32f4xx_cryp_aes.c ****     {
 451:/home/rdu/Workspace/project_templates/mcu/stm32_ws/src/libraries/STM32F4xx_StdPeriph_Driver/src/stm32f4xx_cryp_aes.c ****       busystatus = CRYP_GetFlagStatus(CRYP_FLAG_BUSY);
 1208              		.loc 1 451 0 discriminator 2
 1209 02c4 1020     		movs	r0, #16
 1210 02c6 FFF7FEFF 		bl	CRYP_GetFlagStatus
 1211 02ca 0346     		mov	r3, r0
 1212 02cc 2D93     		str	r3, [sp, #180]
 452:/home/rdu/Workspace/project_templates/mcu/stm32_ws/src/libraries/STM32F4xx_StdPeriph_Driver/src/stm32f4xx_cryp_aes.c ****       counter++;
 1213              		.loc 1 452 0 discriminator 2
 1214 02ce 049B     		ldr	r3, [sp, #16]
 1215 02d0 0133     		adds	r3, r3, #1
 1216 02d2 0493     		str	r3, [sp, #16]
 453:/home/rdu/Workspace/project_templates/mcu/stm32_ws/src/libraries/STM32F4xx_StdPeriph_Driver/src/stm32f4xx_cryp_aes.c ****     }while ((counter != AESBUSY_TIMEOUT) && (busystatus != RESET));
 1217              		.loc 1 453 0 discriminator 2
 1218 02d4 049B     		ldr	r3, [sp, #16]
 1219 02d6 B3F5803F 		cmp	r3, #65536
 1220 02da 02D0     		beq	.L78
 1221              		.loc 1 453 0 is_stmt 0 discriminator 1
 1222 02dc 2D9B     		ldr	r3, [sp, #180]
 1223 02de 002B     		cmp	r3, #0
 1224 02e0 F0D1     		bne	.L79
 1225              	.L78:
 454:/home/rdu/Workspace/project_templates/mcu/stm32_ws/src/libraries/STM32F4xx_StdPeriph_Driver/src/stm32f4xx_cryp_aes.c **** 
 455:/home/rdu/Workspace/project_templates/mcu/stm32_ws/src/libraries/STM32F4xx_StdPeriph_Driver/src/stm32f4xx_cryp_aes.c ****     if (busystatus != RESET)
 1226              		.loc 1 455 0 is_stmt 1
 1227 02e2 2D9B     		ldr	r3, [sp, #180]
 1228 02e4 002B     		cmp	r3, #0
 1229 02e6 03D0     		beq	.L80
 456:/home/rdu/Workspace/project_templates/mcu/stm32_ws/src/libraries/STM32F4xx_StdPeriph_Driver/src/stm32f4xx_cryp_aes.c ****    {
 457:/home/rdu/Workspace/project_templates/mcu/stm32_ws/src/libraries/STM32F4xx_StdPeriph_Driver/src/stm32f4xx_cryp_aes.c ****        status = ERROR;
 1230              		.loc 1 457 0
 1231 02e8 0023     		movs	r3, #0
 1232 02ea 8DF8C730 		strb	r3, [sp, #199]
 1233 02ee 1FE0     		b	.L81
 1234              	.L80:
 458:/home/rdu/Workspace/project_templates/mcu/stm32_ws/src/libraries/STM32F4xx_StdPeriph_Driver/src/stm32f4xx_cryp_aes.c ****     }
 459:/home/rdu/Workspace/project_templates/mcu/stm32_ws/src/libraries/STM32F4xx_StdPeriph_Driver/src/stm32f4xx_cryp_aes.c ****     else
 460:/home/rdu/Workspace/project_templates/mcu/stm32_ws/src/libraries/STM32F4xx_StdPeriph_Driver/src/stm32f4xx_cryp_aes.c ****     {
 461:/home/rdu/Workspace/project_templates/mcu/stm32_ws/src/libraries/STM32F4xx_StdPeriph_Driver/src/stm32f4xx_cryp_aes.c **** 
 462:/home/rdu/Workspace/project_templates/mcu/stm32_ws/src/libraries/STM32F4xx_StdPeriph_Driver/src/stm32f4xx_cryp_aes.c ****       /* Read the Output block from the Output FIFO */
 463:/home/rdu/Workspace/project_templates/mcu/stm32_ws/src/libraries/STM32F4xx_StdPeriph_Driver/src/stm32f4xx_cryp_aes.c ****       *(uint32_t*)(outputaddr) = CRYP_DataOut();
 1235              		.loc 1 463 0
 1236 02f0 2F9C     		ldr	r4, [sp, #188]
 1237 02f2 FFF7FEFF 		bl	CRYP_DataOut
 1238 02f6 0346     		mov	r3, r0
 1239 02f8 2360     		str	r3, [r4]
 464:/home/rdu/Workspace/project_templates/mcu/stm32_ws/src/libraries/STM32F4xx_StdPeriph_Driver/src/stm32f4xx_cryp_aes.c ****       outputaddr+=4;
 1240              		.loc 1 464 0
 1241 02fa 2F9B     		ldr	r3, [sp, #188]
 1242 02fc 0433     		adds	r3, r3, #4
 1243 02fe 2F93     		str	r3, [sp, #188]
 465:/home/rdu/Workspace/project_templates/mcu/stm32_ws/src/libraries/STM32F4xx_StdPeriph_Driver/src/stm32f4xx_cryp_aes.c ****       *(uint32_t*)(outputaddr) = CRYP_DataOut();
 1244              		.loc 1 465 0
 1245 0300 2F9C     		ldr	r4, [sp, #188]
 1246 0302 FFF7FEFF 		bl	CRYP_DataOut
 1247 0306 0346     		mov	r3, r0
 1248 0308 2360     		str	r3, [r4]
 466:/home/rdu/Workspace/project_templates/mcu/stm32_ws/src/libraries/STM32F4xx_StdPeriph_Driver/src/stm32f4xx_cryp_aes.c ****       outputaddr+=4;
 1249              		.loc 1 466 0
 1250 030a 2F9B     		ldr	r3, [sp, #188]
 1251 030c 0433     		adds	r3, r3, #4
 1252 030e 2F93     		str	r3, [sp, #188]
 467:/home/rdu/Workspace/project_templates/mcu/stm32_ws/src/libraries/STM32F4xx_StdPeriph_Driver/src/stm32f4xx_cryp_aes.c ****       *(uint32_t*)(outputaddr) = CRYP_DataOut();
 1253              		.loc 1 467 0
 1254 0310 2F9C     		ldr	r4, [sp, #188]
 1255 0312 FFF7FEFF 		bl	CRYP_DataOut
 1256 0316 0346     		mov	r3, r0
 1257 0318 2360     		str	r3, [r4]
 468:/home/rdu/Workspace/project_templates/mcu/stm32_ws/src/libraries/STM32F4xx_StdPeriph_Driver/src/stm32f4xx_cryp_aes.c ****       outputaddr+=4;
 1258              		.loc 1 468 0
 1259 031a 2F9B     		ldr	r3, [sp, #188]
 1260 031c 0433     		adds	r3, r3, #4
 1261 031e 2F93     		str	r3, [sp, #188]
 469:/home/rdu/Workspace/project_templates/mcu/stm32_ws/src/libraries/STM32F4xx_StdPeriph_Driver/src/stm32f4xx_cryp_aes.c ****       *(uint32_t*)(outputaddr) = CRYP_DataOut();
 1262              		.loc 1 469 0
 1263 0320 2F9C     		ldr	r4, [sp, #188]
 1264 0322 FFF7FEFF 		bl	CRYP_DataOut
 1265 0326 0346     		mov	r3, r0
 1266 0328 2360     		str	r3, [r4]
 470:/home/rdu/Workspace/project_templates/mcu/stm32_ws/src/libraries/STM32F4xx_StdPeriph_Driver/src/stm32f4xx_cryp_aes.c ****       outputaddr+=4;
 1267              		.loc 1 470 0
 1268 032a 2F9B     		ldr	r3, [sp, #188]
 1269 032c 0433     		adds	r3, r3, #4
 1270 032e 2F93     		str	r3, [sp, #188]
 1271              	.L81:
 435:/home/rdu/Workspace/project_templates/mcu/stm32_ws/src/libraries/STM32F4xx_StdPeriph_Driver/src/stm32f4xx_cryp_aes.c ****   {
 1272              		.loc 1 435 0 discriminator 2
 1273 0330 2E9B     		ldr	r3, [sp, #184]
 1274 0332 1033     		adds	r3, r3, #16
 1275 0334 2E93     		str	r3, [sp, #184]
 1276              	.L77:
 435:/home/rdu/Workspace/project_templates/mcu/stm32_ws/src/libraries/STM32F4xx_StdPeriph_Driver/src/stm32f4xx_cryp_aes.c ****   {
 1277              		.loc 1 435 0 is_stmt 0 discriminator 1
 1278 0336 2E9A     		ldr	r2, [sp, #184]
 1279 0338 359B     		ldr	r3, [sp, #212]
 1280 033a 9A42     		cmp	r2, r3
 1281 033c 03D2     		bcs	.L82
 435:/home/rdu/Workspace/project_templates/mcu/stm32_ws/src/libraries/STM32F4xx_StdPeriph_Driver/src/stm32f4xx_cryp_aes.c ****   {
 1282              		.loc 1 435 0 discriminator 3
 1283 033e 9DF8C730 		ldrb	r3, [sp, #199]	@ zero_extendqisi2
 1284 0342 002B     		cmp	r3, #0
 1285 0344 9CD1     		bne	.L83
 1286              	.L82:
 471:/home/rdu/Workspace/project_templates/mcu/stm32_ws/src/libraries/STM32F4xx_StdPeriph_Driver/src/stm32f4xx_cryp_aes.c ****     }
 472:/home/rdu/Workspace/project_templates/mcu/stm32_ws/src/libraries/STM32F4xx_StdPeriph_Driver/src/stm32f4xx_cryp_aes.c ****   }
 473:/home/rdu/Workspace/project_templates/mcu/stm32_ws/src/libraries/STM32F4xx_StdPeriph_Driver/src/stm32f4xx_cryp_aes.c **** 
 474:/home/rdu/Workspace/project_templates/mcu/stm32_ws/src/libraries/STM32F4xx_StdPeriph_Driver/src/stm32f4xx_cryp_aes.c ****   /* Disable Crypto */
 475:/home/rdu/Workspace/project_templates/mcu/stm32_ws/src/libraries/STM32F4xx_StdPeriph_Driver/src/stm32f4xx_cryp_aes.c ****   CRYP_Cmd(DISABLE);
 1287              		.loc 1 475 0 is_stmt 1
 1288 0346 0020     		movs	r0, #0
 1289 0348 FFF7FEFF 		bl	CRYP_Cmd
 476:/home/rdu/Workspace/project_templates/mcu/stm32_ws/src/libraries/STM32F4xx_StdPeriph_Driver/src/stm32f4xx_cryp_aes.c **** 
 477:/home/rdu/Workspace/project_templates/mcu/stm32_ws/src/libraries/STM32F4xx_StdPeriph_Driver/src/stm32f4xx_cryp_aes.c ****   return status;
 1290              		.loc 1 477 0
 1291 034c 9DF8C730 		ldrb	r3, [sp, #199]	@ zero_extendqisi2
 1292              	.L84:
 478:/home/rdu/Workspace/project_templates/mcu/stm32_ws/src/libraries/STM32F4xx_StdPeriph_Driver/src/stm32f4xx_cryp_aes.c **** }
 1293              		.loc 1 478 0 discriminator 1
 1294 0350 1846     		mov	r0, r3
 1295 0352 32B0     		add	sp, sp, #200
 1296              	.LCFI5:
 1297              		.cfi_def_cfa_offset 8
 1298              		@ sp needed
 1299 0354 10BD     		pop	{r4, pc}
 1300              		.cfi_endproc
 1301              	.LFE124:
 1303              		.section	.text.CRYP_AES_CTR,"ax",%progbits
 1304              		.align	1
 1305              		.global	CRYP_AES_CTR
 1306              		.syntax unified
 1307              		.thumb
 1308              		.thumb_func
 1309              		.fpu fpv4-sp-d16
 1311              	CRYP_AES_CTR:
 1312              	.LFB125:
 479:/home/rdu/Workspace/project_templates/mcu/stm32_ws/src/libraries/STM32F4xx_StdPeriph_Driver/src/stm32f4xx_cryp_aes.c **** 
 480:/home/rdu/Workspace/project_templates/mcu/stm32_ws/src/libraries/STM32F4xx_StdPeriph_Driver/src/stm32f4xx_cryp_aes.c **** /**
 481:/home/rdu/Workspace/project_templates/mcu/stm32_ws/src/libraries/STM32F4xx_StdPeriph_Driver/src/stm32f4xx_cryp_aes.c ****   * @brief  Encrypt and decrypt using AES in CTR Mode
 482:/home/rdu/Workspace/project_templates/mcu/stm32_ws/src/libraries/STM32F4xx_StdPeriph_Driver/src/stm32f4xx_cryp_aes.c ****   * @param  Mode: encryption or decryption Mode.
 483:/home/rdu/Workspace/project_templates/mcu/stm32_ws/src/libraries/STM32F4xx_StdPeriph_Driver/src/stm32f4xx_cryp_aes.c ****   *           This parameter can be one of the following values:
 484:/home/rdu/Workspace/project_templates/mcu/stm32_ws/src/libraries/STM32F4xx_StdPeriph_Driver/src/stm32f4xx_cryp_aes.c ****   *            @arg MODE_ENCRYPT: Encryption
 485:/home/rdu/Workspace/project_templates/mcu/stm32_ws/src/libraries/STM32F4xx_StdPeriph_Driver/src/stm32f4xx_cryp_aes.c ****   *            @arg MODE_DECRYPT: Decryption
 486:/home/rdu/Workspace/project_templates/mcu/stm32_ws/src/libraries/STM32F4xx_StdPeriph_Driver/src/stm32f4xx_cryp_aes.c ****   * @param  InitVectors: Initialisation Vectors used for AES algorithm.
 487:/home/rdu/Workspace/project_templates/mcu/stm32_ws/src/libraries/STM32F4xx_StdPeriph_Driver/src/stm32f4xx_cryp_aes.c ****   * @param  Key: Key used for AES algorithm.
 488:/home/rdu/Workspace/project_templates/mcu/stm32_ws/src/libraries/STM32F4xx_StdPeriph_Driver/src/stm32f4xx_cryp_aes.c ****   * @param  Keysize: length of the Key, must be a 128, 192 or 256.
 489:/home/rdu/Workspace/project_templates/mcu/stm32_ws/src/libraries/STM32F4xx_StdPeriph_Driver/src/stm32f4xx_cryp_aes.c ****   * @param  Input: pointer to the Input buffer.
 490:/home/rdu/Workspace/project_templates/mcu/stm32_ws/src/libraries/STM32F4xx_StdPeriph_Driver/src/stm32f4xx_cryp_aes.c ****   * @param  Ilength: length of the Input buffer, must be a multiple of 16.
 491:/home/rdu/Workspace/project_templates/mcu/stm32_ws/src/libraries/STM32F4xx_StdPeriph_Driver/src/stm32f4xx_cryp_aes.c ****   * @param  Output: pointer to the returned buffer.
 492:/home/rdu/Workspace/project_templates/mcu/stm32_ws/src/libraries/STM32F4xx_StdPeriph_Driver/src/stm32f4xx_cryp_aes.c ****   * @retval An ErrorStatus enumeration value:
 493:/home/rdu/Workspace/project_templates/mcu/stm32_ws/src/libraries/STM32F4xx_StdPeriph_Driver/src/stm32f4xx_cryp_aes.c ****   *          - SUCCESS: Operation done
 494:/home/rdu/Workspace/project_templates/mcu/stm32_ws/src/libraries/STM32F4xx_StdPeriph_Driver/src/stm32f4xx_cryp_aes.c ****   *          - ERROR: Operation failed
 495:/home/rdu/Workspace/project_templates/mcu/stm32_ws/src/libraries/STM32F4xx_StdPeriph_Driver/src/stm32f4xx_cryp_aes.c ****   */
 496:/home/rdu/Workspace/project_templates/mcu/stm32_ws/src/libraries/STM32F4xx_StdPeriph_Driver/src/stm32f4xx_cryp_aes.c **** ErrorStatus CRYP_AES_CTR(uint8_t Mode, uint8_t InitVectors[16], uint8_t *Key, 
 497:/home/rdu/Workspace/project_templates/mcu/stm32_ws/src/libraries/STM32F4xx_StdPeriph_Driver/src/stm32f4xx_cryp_aes.c ****                          uint16_t Keysize, uint8_t *Input, uint32_t Ilength,
 498:/home/rdu/Workspace/project_templates/mcu/stm32_ws/src/libraries/STM32F4xx_StdPeriph_Driver/src/stm32f4xx_cryp_aes.c ****                          uint8_t *Output)
 499:/home/rdu/Workspace/project_templates/mcu/stm32_ws/src/libraries/STM32F4xx_StdPeriph_Driver/src/stm32f4xx_cryp_aes.c **** {
 1313              		.loc 1 499 0
 1314              		.cfi_startproc
 1315              		@ args = 12, pretend = 0, frame = 200
 1316              		@ frame_needed = 0, uses_anonymous_args = 0
 1317 0000 10B5     		push	{r4, lr}
 1318              	.LCFI6:
 1319              		.cfi_def_cfa_offset 8
 1320              		.cfi_offset 4, -8
 1321              		.cfi_offset 14, -4
 1322 0002 B2B0     		sub	sp, sp, #200
 1323              	.LCFI7:
 1324              		.cfi_def_cfa_offset 208
 1325 0004 0291     		str	r1, [sp, #8]
 1326 0006 0192     		str	r2, [sp, #4]
 1327 0008 1A46     		mov	r2, r3
 1328 000a 0346     		mov	r3, r0
 1329 000c 8DF80F30 		strb	r3, [sp, #15]
 1330 0010 1346     		mov	r3, r2	@ movhi
 1331 0012 ADF80C30 		strh	r3, [sp, #12]	@ movhi
 500:/home/rdu/Workspace/project_templates/mcu/stm32_ws/src/libraries/STM32F4xx_StdPeriph_Driver/src/stm32f4xx_cryp_aes.c ****   CRYP_InitTypeDef AES_CRYP_InitStructure;
 501:/home/rdu/Workspace/project_templates/mcu/stm32_ws/src/libraries/STM32F4xx_StdPeriph_Driver/src/stm32f4xx_cryp_aes.c ****   CRYP_KeyInitTypeDef AES_CRYP_KeyInitStructure;
 502:/home/rdu/Workspace/project_templates/mcu/stm32_ws/src/libraries/STM32F4xx_StdPeriph_Driver/src/stm32f4xx_cryp_aes.c ****   CRYP_IVInitTypeDef AES_CRYP_IVInitStructure;
 503:/home/rdu/Workspace/project_templates/mcu/stm32_ws/src/libraries/STM32F4xx_StdPeriph_Driver/src/stm32f4xx_cryp_aes.c ****   __IO uint32_t counter = 0;
 1332              		.loc 1 503 0
 1333 0016 0023     		movs	r3, #0
 1334 0018 0493     		str	r3, [sp, #16]
 504:/home/rdu/Workspace/project_templates/mcu/stm32_ws/src/libraries/STM32F4xx_StdPeriph_Driver/src/stm32f4xx_cryp_aes.c ****   uint32_t busystatus = 0;
 1335              		.loc 1 504 0
 1336 001a 0023     		movs	r3, #0
 1337 001c 2D93     		str	r3, [sp, #180]
 505:/home/rdu/Workspace/project_templates/mcu/stm32_ws/src/libraries/STM32F4xx_StdPeriph_Driver/src/stm32f4xx_cryp_aes.c ****   ErrorStatus status = SUCCESS;
 1338              		.loc 1 505 0
 1339 001e 0123     		movs	r3, #1
 1340 0020 8DF8C730 		strb	r3, [sp, #199]
 506:/home/rdu/Workspace/project_templates/mcu/stm32_ws/src/libraries/STM32F4xx_StdPeriph_Driver/src/stm32f4xx_cryp_aes.c ****   uint32_t keyaddr    = (uint32_t)Key;
 1341              		.loc 1 506 0
 1342 0024 019B     		ldr	r3, [sp, #4]
 1343 0026 2C93     		str	r3, [sp, #176]
 507:/home/rdu/Workspace/project_templates/mcu/stm32_ws/src/libraries/STM32F4xx_StdPeriph_Driver/src/stm32f4xx_cryp_aes.c ****   uint32_t inputaddr  = (uint32_t)Input;
 1344              		.loc 1 507 0
 1345 0028 349B     		ldr	r3, [sp, #208]
 1346 002a 3093     		str	r3, [sp, #192]
 508:/home/rdu/Workspace/project_templates/mcu/stm32_ws/src/libraries/STM32F4xx_StdPeriph_Driver/src/stm32f4xx_cryp_aes.c ****   uint32_t outputaddr = (uint32_t)Output;
 1347              		.loc 1 508 0
 1348 002c 369B     		ldr	r3, [sp, #216]
 1349 002e 2F93     		str	r3, [sp, #188]
 509:/home/rdu/Workspace/project_templates/mcu/stm32_ws/src/libraries/STM32F4xx_StdPeriph_Driver/src/stm32f4xx_cryp_aes.c ****   uint32_t ivaddr     = (uint32_t)InitVectors;
 1350              		.loc 1 509 0
 1351 0030 029B     		ldr	r3, [sp, #8]
 1352 0032 2B93     		str	r3, [sp, #172]
 510:/home/rdu/Workspace/project_templates/mcu/stm32_ws/src/libraries/STM32F4xx_StdPeriph_Driver/src/stm32f4xx_cryp_aes.c ****   uint32_t i = 0;
 1353              		.loc 1 510 0
 1354 0034 0023     		movs	r3, #0
 1355 0036 2E93     		str	r3, [sp, #184]
 511:/home/rdu/Workspace/project_templates/mcu/stm32_ws/src/libraries/STM32F4xx_StdPeriph_Driver/src/stm32f4xx_cryp_aes.c **** 
 512:/home/rdu/Workspace/project_templates/mcu/stm32_ws/src/libraries/STM32F4xx_StdPeriph_Driver/src/stm32f4xx_cryp_aes.c ****   /* Crypto structures initialisation*/
 513:/home/rdu/Workspace/project_templates/mcu/stm32_ws/src/libraries/STM32F4xx_StdPeriph_Driver/src/stm32f4xx_cryp_aes.c ****   CRYP_KeyStructInit(&AES_CRYP_KeyInitStructure);
 1356              		.loc 1 513 0
 1357 0038 09AB     		add	r3, sp, #36
 1358 003a 1846     		mov	r0, r3
 1359 003c FFF7FEFF 		bl	CRYP_KeyStructInit
 514:/home/rdu/Workspace/project_templates/mcu/stm32_ws/src/libraries/STM32F4xx_StdPeriph_Driver/src/stm32f4xx_cryp_aes.c **** 
 515:/home/rdu/Workspace/project_templates/mcu/stm32_ws/src/libraries/STM32F4xx_StdPeriph_Driver/src/stm32f4xx_cryp_aes.c ****   switch(Keysize)
 1360              		.loc 1 515 0
 1361 0040 BDF80C30 		ldrh	r3, [sp, #12]
 1362 0044 C02B     		cmp	r3, #192
 1363 0046 29D0     		beq	.L87
 1364 0048 B3F5807F 		cmp	r3, #256
 1365 004c 5DD0     		beq	.L88
 1366 004e 802B     		cmp	r3, #128
 1367 0050 00D0     		beq	.L89
 516:/home/rdu/Workspace/project_templates/mcu/stm32_ws/src/libraries/STM32F4xx_StdPeriph_Driver/src/stm32f4xx_cryp_aes.c ****   {
 517:/home/rdu/Workspace/project_templates/mcu/stm32_ws/src/libraries/STM32F4xx_StdPeriph_Driver/src/stm32f4xx_cryp_aes.c ****     case 128:
 518:/home/rdu/Workspace/project_templates/mcu/stm32_ws/src/libraries/STM32F4xx_StdPeriph_Driver/src/stm32f4xx_cryp_aes.c ****     AES_CRYP_InitStructure.CRYP_KeySize = CRYP_KeySize_128b;
 519:/home/rdu/Workspace/project_templates/mcu/stm32_ws/src/libraries/STM32F4xx_StdPeriph_Driver/src/stm32f4xx_cryp_aes.c ****     AES_CRYP_KeyInitStructure.CRYP_Key2Left = __REV(*(uint32_t*)(keyaddr));
 520:/home/rdu/Workspace/project_templates/mcu/stm32_ws/src/libraries/STM32F4xx_StdPeriph_Driver/src/stm32f4xx_cryp_aes.c ****     keyaddr+=4;
 521:/home/rdu/Workspace/project_templates/mcu/stm32_ws/src/libraries/STM32F4xx_StdPeriph_Driver/src/stm32f4xx_cryp_aes.c ****     AES_CRYP_KeyInitStructure.CRYP_Key2Right= __REV(*(uint32_t*)(keyaddr));
 522:/home/rdu/Workspace/project_templates/mcu/stm32_ws/src/libraries/STM32F4xx_StdPeriph_Driver/src/stm32f4xx_cryp_aes.c ****     keyaddr+=4;
 523:/home/rdu/Workspace/project_templates/mcu/stm32_ws/src/libraries/STM32F4xx_StdPeriph_Driver/src/stm32f4xx_cryp_aes.c ****     AES_CRYP_KeyInitStructure.CRYP_Key3Left = __REV(*(uint32_t*)(keyaddr));
 524:/home/rdu/Workspace/project_templates/mcu/stm32_ws/src/libraries/STM32F4xx_StdPeriph_Driver/src/stm32f4xx_cryp_aes.c ****     keyaddr+=4;
 525:/home/rdu/Workspace/project_templates/mcu/stm32_ws/src/libraries/STM32F4xx_StdPeriph_Driver/src/stm32f4xx_cryp_aes.c ****     AES_CRYP_KeyInitStructure.CRYP_Key3Right= __REV(*(uint32_t*)(keyaddr));
 526:/home/rdu/Workspace/project_templates/mcu/stm32_ws/src/libraries/STM32F4xx_StdPeriph_Driver/src/stm32f4xx_cryp_aes.c ****     break;
 527:/home/rdu/Workspace/project_templates/mcu/stm32_ws/src/libraries/STM32F4xx_StdPeriph_Driver/src/stm32f4xx_cryp_aes.c ****     case 192:
 528:/home/rdu/Workspace/project_templates/mcu/stm32_ws/src/libraries/STM32F4xx_StdPeriph_Driver/src/stm32f4xx_cryp_aes.c ****     AES_CRYP_InitStructure.CRYP_KeySize  = CRYP_KeySize_192b;
 529:/home/rdu/Workspace/project_templates/mcu/stm32_ws/src/libraries/STM32F4xx_StdPeriph_Driver/src/stm32f4xx_cryp_aes.c ****     AES_CRYP_KeyInitStructure.CRYP_Key1Left = __REV(*(uint32_t*)(keyaddr));
 530:/home/rdu/Workspace/project_templates/mcu/stm32_ws/src/libraries/STM32F4xx_StdPeriph_Driver/src/stm32f4xx_cryp_aes.c ****     keyaddr+=4;
 531:/home/rdu/Workspace/project_templates/mcu/stm32_ws/src/libraries/STM32F4xx_StdPeriph_Driver/src/stm32f4xx_cryp_aes.c ****     AES_CRYP_KeyInitStructure.CRYP_Key1Right= __REV(*(uint32_t*)(keyaddr));
 532:/home/rdu/Workspace/project_templates/mcu/stm32_ws/src/libraries/STM32F4xx_StdPeriph_Driver/src/stm32f4xx_cryp_aes.c ****     keyaddr+=4;
 533:/home/rdu/Workspace/project_templates/mcu/stm32_ws/src/libraries/STM32F4xx_StdPeriph_Driver/src/stm32f4xx_cryp_aes.c ****     AES_CRYP_KeyInitStructure.CRYP_Key2Left = __REV(*(uint32_t*)(keyaddr));
 534:/home/rdu/Workspace/project_templates/mcu/stm32_ws/src/libraries/STM32F4xx_StdPeriph_Driver/src/stm32f4xx_cryp_aes.c ****     keyaddr+=4;
 535:/home/rdu/Workspace/project_templates/mcu/stm32_ws/src/libraries/STM32F4xx_StdPeriph_Driver/src/stm32f4xx_cryp_aes.c ****     AES_CRYP_KeyInitStructure.CRYP_Key2Right= __REV(*(uint32_t*)(keyaddr));
 536:/home/rdu/Workspace/project_templates/mcu/stm32_ws/src/libraries/STM32F4xx_StdPeriph_Driver/src/stm32f4xx_cryp_aes.c ****     keyaddr+=4;
 537:/home/rdu/Workspace/project_templates/mcu/stm32_ws/src/libraries/STM32F4xx_StdPeriph_Driver/src/stm32f4xx_cryp_aes.c ****     AES_CRYP_KeyInitStructure.CRYP_Key3Left = __REV(*(uint32_t*)(keyaddr));
 538:/home/rdu/Workspace/project_templates/mcu/stm32_ws/src/libraries/STM32F4xx_StdPeriph_Driver/src/stm32f4xx_cryp_aes.c ****     keyaddr+=4;
 539:/home/rdu/Workspace/project_templates/mcu/stm32_ws/src/libraries/STM32F4xx_StdPeriph_Driver/src/stm32f4xx_cryp_aes.c ****     AES_CRYP_KeyInitStructure.CRYP_Key3Right= __REV(*(uint32_t*)(keyaddr));
 540:/home/rdu/Workspace/project_templates/mcu/stm32_ws/src/libraries/STM32F4xx_StdPeriph_Driver/src/stm32f4xx_cryp_aes.c ****     break;
 541:/home/rdu/Workspace/project_templates/mcu/stm32_ws/src/libraries/STM32F4xx_StdPeriph_Driver/src/stm32f4xx_cryp_aes.c ****     case 256:
 542:/home/rdu/Workspace/project_templates/mcu/stm32_ws/src/libraries/STM32F4xx_StdPeriph_Driver/src/stm32f4xx_cryp_aes.c ****     AES_CRYP_InitStructure.CRYP_KeySize  = CRYP_KeySize_256b;
 543:/home/rdu/Workspace/project_templates/mcu/stm32_ws/src/libraries/STM32F4xx_StdPeriph_Driver/src/stm32f4xx_cryp_aes.c ****     AES_CRYP_KeyInitStructure.CRYP_Key0Left = __REV(*(uint32_t*)(keyaddr));
 544:/home/rdu/Workspace/project_templates/mcu/stm32_ws/src/libraries/STM32F4xx_StdPeriph_Driver/src/stm32f4xx_cryp_aes.c ****     keyaddr+=4;
 545:/home/rdu/Workspace/project_templates/mcu/stm32_ws/src/libraries/STM32F4xx_StdPeriph_Driver/src/stm32f4xx_cryp_aes.c ****     AES_CRYP_KeyInitStructure.CRYP_Key0Right= __REV(*(uint32_t*)(keyaddr));
 546:/home/rdu/Workspace/project_templates/mcu/stm32_ws/src/libraries/STM32F4xx_StdPeriph_Driver/src/stm32f4xx_cryp_aes.c ****     keyaddr+=4;
 547:/home/rdu/Workspace/project_templates/mcu/stm32_ws/src/libraries/STM32F4xx_StdPeriph_Driver/src/stm32f4xx_cryp_aes.c ****     AES_CRYP_KeyInitStructure.CRYP_Key1Left = __REV(*(uint32_t*)(keyaddr));
 548:/home/rdu/Workspace/project_templates/mcu/stm32_ws/src/libraries/STM32F4xx_StdPeriph_Driver/src/stm32f4xx_cryp_aes.c ****     keyaddr+=4;
 549:/home/rdu/Workspace/project_templates/mcu/stm32_ws/src/libraries/STM32F4xx_StdPeriph_Driver/src/stm32f4xx_cryp_aes.c ****     AES_CRYP_KeyInitStructure.CRYP_Key1Right= __REV(*(uint32_t*)(keyaddr));
 550:/home/rdu/Workspace/project_templates/mcu/stm32_ws/src/libraries/STM32F4xx_StdPeriph_Driver/src/stm32f4xx_cryp_aes.c ****     keyaddr+=4;
 551:/home/rdu/Workspace/project_templates/mcu/stm32_ws/src/libraries/STM32F4xx_StdPeriph_Driver/src/stm32f4xx_cryp_aes.c ****     AES_CRYP_KeyInitStructure.CRYP_Key2Left = __REV(*(uint32_t*)(keyaddr));
 552:/home/rdu/Workspace/project_templates/mcu/stm32_ws/src/libraries/STM32F4xx_StdPeriph_Driver/src/stm32f4xx_cryp_aes.c ****     keyaddr+=4;
 553:/home/rdu/Workspace/project_templates/mcu/stm32_ws/src/libraries/STM32F4xx_StdPeriph_Driver/src/stm32f4xx_cryp_aes.c ****     AES_CRYP_KeyInitStructure.CRYP_Key2Right= __REV(*(uint32_t*)(keyaddr));
 554:/home/rdu/Workspace/project_templates/mcu/stm32_ws/src/libraries/STM32F4xx_StdPeriph_Driver/src/stm32f4xx_cryp_aes.c ****     keyaddr+=4;
 555:/home/rdu/Workspace/project_templates/mcu/stm32_ws/src/libraries/STM32F4xx_StdPeriph_Driver/src/stm32f4xx_cryp_aes.c ****     AES_CRYP_KeyInitStructure.CRYP_Key3Left = __REV(*(uint32_t*)(keyaddr));
 556:/home/rdu/Workspace/project_templates/mcu/stm32_ws/src/libraries/STM32F4xx_StdPeriph_Driver/src/stm32f4xx_cryp_aes.c ****     keyaddr+=4;
 557:/home/rdu/Workspace/project_templates/mcu/stm32_ws/src/libraries/STM32F4xx_StdPeriph_Driver/src/stm32f4xx_cryp_aes.c ****     AES_CRYP_KeyInitStructure.CRYP_Key3Right= __REV(*(uint32_t*)(keyaddr));
 558:/home/rdu/Workspace/project_templates/mcu/stm32_ws/src/libraries/STM32F4xx_StdPeriph_Driver/src/stm32f4xx_cryp_aes.c ****     break;
 559:/home/rdu/Workspace/project_templates/mcu/stm32_ws/src/libraries/STM32F4xx_StdPeriph_Driver/src/stm32f4xx_cryp_aes.c ****     default:
 560:/home/rdu/Workspace/project_templates/mcu/stm32_ws/src/libraries/STM32F4xx_StdPeriph_Driver/src/stm32f4xx_cryp_aes.c ****     break;
 1368              		.loc 1 560 0
 1369 0052 A3E0     		b	.L94
 1370              	.L89:
 518:/home/rdu/Workspace/project_templates/mcu/stm32_ws/src/libraries/STM32F4xx_StdPeriph_Driver/src/stm32f4xx_cryp_aes.c ****     AES_CRYP_KeyInitStructure.CRYP_Key2Left = __REV(*(uint32_t*)(keyaddr));
 1371              		.loc 1 518 0
 1372 0054 0023     		movs	r3, #0
 1373 0056 1493     		str	r3, [sp, #80]
 519:/home/rdu/Workspace/project_templates/mcu/stm32_ws/src/libraries/STM32F4xx_StdPeriph_Driver/src/stm32f4xx_cryp_aes.c ****     keyaddr+=4;
 1374              		.loc 1 519 0
 1375 0058 2C9B     		ldr	r3, [sp, #176]
 1376 005a 1B68     		ldr	r3, [r3]
 1377 005c 2793     		str	r3, [sp, #156]
 1378              	.LBB310:
 1379              	.LBB311:
 1380              		.loc 2 498 0
 1381 005e 279B     		ldr	r3, [sp, #156]
 1382 0060 1BBA     		rev	r3, r3
 1383              	.LBE311:
 1384              	.LBE310:
 519:/home/rdu/Workspace/project_templates/mcu/stm32_ws/src/libraries/STM32F4xx_StdPeriph_Driver/src/stm32f4xx_cryp_aes.c ****     keyaddr+=4;
 1385              		.loc 1 519 0
 1386 0062 0D93     		str	r3, [sp, #52]
 520:/home/rdu/Workspace/project_templates/mcu/stm32_ws/src/libraries/STM32F4xx_StdPeriph_Driver/src/stm32f4xx_cryp_aes.c ****     AES_CRYP_KeyInitStructure.CRYP_Key2Right= __REV(*(uint32_t*)(keyaddr));
 1387              		.loc 1 520 0
 1388 0064 2C9B     		ldr	r3, [sp, #176]
 1389 0066 0433     		adds	r3, r3, #4
 1390 0068 2C93     		str	r3, [sp, #176]
 521:/home/rdu/Workspace/project_templates/mcu/stm32_ws/src/libraries/STM32F4xx_StdPeriph_Driver/src/stm32f4xx_cryp_aes.c ****     keyaddr+=4;
 1391              		.loc 1 521 0
 1392 006a 2C9B     		ldr	r3, [sp, #176]
 1393 006c 1B68     		ldr	r3, [r3]
 1394 006e 2893     		str	r3, [sp, #160]
 1395              	.LBB312:
 1396              	.LBB313:
 1397              		.loc 2 498 0
 1398 0070 289B     		ldr	r3, [sp, #160]
 1399 0072 1BBA     		rev	r3, r3
 1400              	.LBE313:
 1401              	.LBE312:
 521:/home/rdu/Workspace/project_templates/mcu/stm32_ws/src/libraries/STM32F4xx_StdPeriph_Driver/src/stm32f4xx_cryp_aes.c ****     keyaddr+=4;
 1402              		.loc 1 521 0
 1403 0074 0E93     		str	r3, [sp, #56]
 522:/home/rdu/Workspace/project_templates/mcu/stm32_ws/src/libraries/STM32F4xx_StdPeriph_Driver/src/stm32f4xx_cryp_aes.c ****     AES_CRYP_KeyInitStructure.CRYP_Key3Left = __REV(*(uint32_t*)(keyaddr));
 1404              		.loc 1 522 0
 1405 0076 2C9B     		ldr	r3, [sp, #176]
 1406 0078 0433     		adds	r3, r3, #4
 1407 007a 2C93     		str	r3, [sp, #176]
 523:/home/rdu/Workspace/project_templates/mcu/stm32_ws/src/libraries/STM32F4xx_StdPeriph_Driver/src/stm32f4xx_cryp_aes.c ****     keyaddr+=4;
 1408              		.loc 1 523 0
 1409 007c 2C9B     		ldr	r3, [sp, #176]
 1410 007e 1B68     		ldr	r3, [r3]
 1411 0080 2993     		str	r3, [sp, #164]
 1412              	.LBB314:
 1413              	.LBB315:
 1414              		.loc 2 498 0
 1415 0082 299B     		ldr	r3, [sp, #164]
 1416 0084 1BBA     		rev	r3, r3
 1417              	.LBE315:
 1418              	.LBE314:
 523:/home/rdu/Workspace/project_templates/mcu/stm32_ws/src/libraries/STM32F4xx_StdPeriph_Driver/src/stm32f4xx_cryp_aes.c ****     keyaddr+=4;
 1419              		.loc 1 523 0
 1420 0086 0F93     		str	r3, [sp, #60]
 524:/home/rdu/Workspace/project_templates/mcu/stm32_ws/src/libraries/STM32F4xx_StdPeriph_Driver/src/stm32f4xx_cryp_aes.c ****     AES_CRYP_KeyInitStructure.CRYP_Key3Right= __REV(*(uint32_t*)(keyaddr));
 1421              		.loc 1 524 0
 1422 0088 2C9B     		ldr	r3, [sp, #176]
 1423 008a 0433     		adds	r3, r3, #4
 1424 008c 2C93     		str	r3, [sp, #176]
 525:/home/rdu/Workspace/project_templates/mcu/stm32_ws/src/libraries/STM32F4xx_StdPeriph_Driver/src/stm32f4xx_cryp_aes.c ****     break;
 1425              		.loc 1 525 0
 1426 008e 2C9B     		ldr	r3, [sp, #176]
 1427 0090 1B68     		ldr	r3, [r3]
 1428 0092 2A93     		str	r3, [sp, #168]
 1429              	.LBB316:
 1430              	.LBB317:
 1431              		.loc 2 498 0
 1432 0094 2A9B     		ldr	r3, [sp, #168]
 1433 0096 1BBA     		rev	r3, r3
 1434              	.LBE317:
 1435              	.LBE316:
 525:/home/rdu/Workspace/project_templates/mcu/stm32_ws/src/libraries/STM32F4xx_StdPeriph_Driver/src/stm32f4xx_cryp_aes.c ****     break;
 1436              		.loc 1 525 0
 1437 0098 1093     		str	r3, [sp, #64]
 526:/home/rdu/Workspace/project_templates/mcu/stm32_ws/src/libraries/STM32F4xx_StdPeriph_Driver/src/stm32f4xx_cryp_aes.c ****     case 192:
 1438              		.loc 1 526 0
 1439 009a 7FE0     		b	.L94
 1440              	.L87:
 528:/home/rdu/Workspace/project_templates/mcu/stm32_ws/src/libraries/STM32F4xx_StdPeriph_Driver/src/stm32f4xx_cryp_aes.c ****     AES_CRYP_KeyInitStructure.CRYP_Key1Left = __REV(*(uint32_t*)(keyaddr));
 1441              		.loc 1 528 0
 1442 009c 4FF48073 		mov	r3, #256
 1443 00a0 1493     		str	r3, [sp, #80]
 529:/home/rdu/Workspace/project_templates/mcu/stm32_ws/src/libraries/STM32F4xx_StdPeriph_Driver/src/stm32f4xx_cryp_aes.c ****     keyaddr+=4;
 1444              		.loc 1 529 0
 1445 00a2 2C9B     		ldr	r3, [sp, #176]
 1446 00a4 1B68     		ldr	r3, [r3]
 1447 00a6 2193     		str	r3, [sp, #132]
 1448              	.LBB318:
 1449              	.LBB319:
 1450              		.loc 2 498 0
 1451 00a8 219B     		ldr	r3, [sp, #132]
 1452 00aa 1BBA     		rev	r3, r3
 1453              	.LBE319:
 1454              	.LBE318:
 529:/home/rdu/Workspace/project_templates/mcu/stm32_ws/src/libraries/STM32F4xx_StdPeriph_Driver/src/stm32f4xx_cryp_aes.c ****     keyaddr+=4;
 1455              		.loc 1 529 0
 1456 00ac 0B93     		str	r3, [sp, #44]
 530:/home/rdu/Workspace/project_templates/mcu/stm32_ws/src/libraries/STM32F4xx_StdPeriph_Driver/src/stm32f4xx_cryp_aes.c ****     AES_CRYP_KeyInitStructure.CRYP_Key1Right= __REV(*(uint32_t*)(keyaddr));
 1457              		.loc 1 530 0
 1458 00ae 2C9B     		ldr	r3, [sp, #176]
 1459 00b0 0433     		adds	r3, r3, #4
 1460 00b2 2C93     		str	r3, [sp, #176]
 531:/home/rdu/Workspace/project_templates/mcu/stm32_ws/src/libraries/STM32F4xx_StdPeriph_Driver/src/stm32f4xx_cryp_aes.c ****     keyaddr+=4;
 1461              		.loc 1 531 0
 1462 00b4 2C9B     		ldr	r3, [sp, #176]
 1463 00b6 1B68     		ldr	r3, [r3]
 1464 00b8 2293     		str	r3, [sp, #136]
 1465              	.LBB320:
 1466              	.LBB321:
 1467              		.loc 2 498 0
 1468 00ba 229B     		ldr	r3, [sp, #136]
 1469 00bc 1BBA     		rev	r3, r3
 1470              	.LBE321:
 1471              	.LBE320:
 531:/home/rdu/Workspace/project_templates/mcu/stm32_ws/src/libraries/STM32F4xx_StdPeriph_Driver/src/stm32f4xx_cryp_aes.c ****     keyaddr+=4;
 1472              		.loc 1 531 0
 1473 00be 0C93     		str	r3, [sp, #48]
 532:/home/rdu/Workspace/project_templates/mcu/stm32_ws/src/libraries/STM32F4xx_StdPeriph_Driver/src/stm32f4xx_cryp_aes.c ****     AES_CRYP_KeyInitStructure.CRYP_Key2Left = __REV(*(uint32_t*)(keyaddr));
 1474              		.loc 1 532 0
 1475 00c0 2C9B     		ldr	r3, [sp, #176]
 1476 00c2 0433     		adds	r3, r3, #4
 1477 00c4 2C93     		str	r3, [sp, #176]
 533:/home/rdu/Workspace/project_templates/mcu/stm32_ws/src/libraries/STM32F4xx_StdPeriph_Driver/src/stm32f4xx_cryp_aes.c ****     keyaddr+=4;
 1478              		.loc 1 533 0
 1479 00c6 2C9B     		ldr	r3, [sp, #176]
 1480 00c8 1B68     		ldr	r3, [r3]
 1481 00ca 2393     		str	r3, [sp, #140]
 1482              	.LBB322:
 1483              	.LBB323:
 1484              		.loc 2 498 0
 1485 00cc 239B     		ldr	r3, [sp, #140]
 1486 00ce 1BBA     		rev	r3, r3
 1487              	.LBE323:
 1488              	.LBE322:
 533:/home/rdu/Workspace/project_templates/mcu/stm32_ws/src/libraries/STM32F4xx_StdPeriph_Driver/src/stm32f4xx_cryp_aes.c ****     keyaddr+=4;
 1489              		.loc 1 533 0
 1490 00d0 0D93     		str	r3, [sp, #52]
 534:/home/rdu/Workspace/project_templates/mcu/stm32_ws/src/libraries/STM32F4xx_StdPeriph_Driver/src/stm32f4xx_cryp_aes.c ****     AES_CRYP_KeyInitStructure.CRYP_Key2Right= __REV(*(uint32_t*)(keyaddr));
 1491              		.loc 1 534 0
 1492 00d2 2C9B     		ldr	r3, [sp, #176]
 1493 00d4 0433     		adds	r3, r3, #4
 1494 00d6 2C93     		str	r3, [sp, #176]
 535:/home/rdu/Workspace/project_templates/mcu/stm32_ws/src/libraries/STM32F4xx_StdPeriph_Driver/src/stm32f4xx_cryp_aes.c ****     keyaddr+=4;
 1495              		.loc 1 535 0
 1496 00d8 2C9B     		ldr	r3, [sp, #176]
 1497 00da 1B68     		ldr	r3, [r3]
 1498 00dc 2493     		str	r3, [sp, #144]
 1499              	.LBB324:
 1500              	.LBB325:
 1501              		.loc 2 498 0
 1502 00de 249B     		ldr	r3, [sp, #144]
 1503 00e0 1BBA     		rev	r3, r3
 1504              	.LBE325:
 1505              	.LBE324:
 535:/home/rdu/Workspace/project_templates/mcu/stm32_ws/src/libraries/STM32F4xx_StdPeriph_Driver/src/stm32f4xx_cryp_aes.c ****     keyaddr+=4;
 1506              		.loc 1 535 0
 1507 00e2 0E93     		str	r3, [sp, #56]
 536:/home/rdu/Workspace/project_templates/mcu/stm32_ws/src/libraries/STM32F4xx_StdPeriph_Driver/src/stm32f4xx_cryp_aes.c ****     AES_CRYP_KeyInitStructure.CRYP_Key3Left = __REV(*(uint32_t*)(keyaddr));
 1508              		.loc 1 536 0
 1509 00e4 2C9B     		ldr	r3, [sp, #176]
 1510 00e6 0433     		adds	r3, r3, #4
 1511 00e8 2C93     		str	r3, [sp, #176]
 537:/home/rdu/Workspace/project_templates/mcu/stm32_ws/src/libraries/STM32F4xx_StdPeriph_Driver/src/stm32f4xx_cryp_aes.c ****     keyaddr+=4;
 1512              		.loc 1 537 0
 1513 00ea 2C9B     		ldr	r3, [sp, #176]
 1514 00ec 1B68     		ldr	r3, [r3]
 1515 00ee 2593     		str	r3, [sp, #148]
 1516              	.LBB326:
 1517              	.LBB327:
 1518              		.loc 2 498 0
 1519 00f0 259B     		ldr	r3, [sp, #148]
 1520 00f2 1BBA     		rev	r3, r3
 1521              	.LBE327:
 1522              	.LBE326:
 537:/home/rdu/Workspace/project_templates/mcu/stm32_ws/src/libraries/STM32F4xx_StdPeriph_Driver/src/stm32f4xx_cryp_aes.c ****     keyaddr+=4;
 1523              		.loc 1 537 0
 1524 00f4 0F93     		str	r3, [sp, #60]
 538:/home/rdu/Workspace/project_templates/mcu/stm32_ws/src/libraries/STM32F4xx_StdPeriph_Driver/src/stm32f4xx_cryp_aes.c ****     AES_CRYP_KeyInitStructure.CRYP_Key3Right= __REV(*(uint32_t*)(keyaddr));
 1525              		.loc 1 538 0
 1526 00f6 2C9B     		ldr	r3, [sp, #176]
 1527 00f8 0433     		adds	r3, r3, #4
 1528 00fa 2C93     		str	r3, [sp, #176]
 539:/home/rdu/Workspace/project_templates/mcu/stm32_ws/src/libraries/STM32F4xx_StdPeriph_Driver/src/stm32f4xx_cryp_aes.c ****     break;
 1529              		.loc 1 539 0
 1530 00fc 2C9B     		ldr	r3, [sp, #176]
 1531 00fe 1B68     		ldr	r3, [r3]
 1532 0100 2693     		str	r3, [sp, #152]
 1533              	.LBB328:
 1534              	.LBB329:
 1535              		.loc 2 498 0
 1536 0102 269B     		ldr	r3, [sp, #152]
 1537 0104 1BBA     		rev	r3, r3
 1538              	.LBE329:
 1539              	.LBE328:
 539:/home/rdu/Workspace/project_templates/mcu/stm32_ws/src/libraries/STM32F4xx_StdPeriph_Driver/src/stm32f4xx_cryp_aes.c ****     break;
 1540              		.loc 1 539 0
 1541 0106 1093     		str	r3, [sp, #64]
 540:/home/rdu/Workspace/project_templates/mcu/stm32_ws/src/libraries/STM32F4xx_StdPeriph_Driver/src/stm32f4xx_cryp_aes.c ****     case 256:
 1542              		.loc 1 540 0
 1543 0108 48E0     		b	.L94
 1544              	.L88:
 542:/home/rdu/Workspace/project_templates/mcu/stm32_ws/src/libraries/STM32F4xx_StdPeriph_Driver/src/stm32f4xx_cryp_aes.c ****     AES_CRYP_KeyInitStructure.CRYP_Key0Left = __REV(*(uint32_t*)(keyaddr));
 1545              		.loc 1 542 0
 1546 010a 4FF40073 		mov	r3, #512
 1547 010e 1493     		str	r3, [sp, #80]
 543:/home/rdu/Workspace/project_templates/mcu/stm32_ws/src/libraries/STM32F4xx_StdPeriph_Driver/src/stm32f4xx_cryp_aes.c ****     keyaddr+=4;
 1548              		.loc 1 543 0
 1549 0110 2C9B     		ldr	r3, [sp, #176]
 1550 0112 1B68     		ldr	r3, [r3]
 1551 0114 1993     		str	r3, [sp, #100]
 1552              	.LBB330:
 1553              	.LBB331:
 1554              		.loc 2 498 0
 1555 0116 199B     		ldr	r3, [sp, #100]
 1556 0118 1BBA     		rev	r3, r3
 1557              	.LBE331:
 1558              	.LBE330:
 543:/home/rdu/Workspace/project_templates/mcu/stm32_ws/src/libraries/STM32F4xx_StdPeriph_Driver/src/stm32f4xx_cryp_aes.c ****     keyaddr+=4;
 1559              		.loc 1 543 0
 1560 011a 0993     		str	r3, [sp, #36]
 544:/home/rdu/Workspace/project_templates/mcu/stm32_ws/src/libraries/STM32F4xx_StdPeriph_Driver/src/stm32f4xx_cryp_aes.c ****     AES_CRYP_KeyInitStructure.CRYP_Key0Right= __REV(*(uint32_t*)(keyaddr));
 1561              		.loc 1 544 0
 1562 011c 2C9B     		ldr	r3, [sp, #176]
 1563 011e 0433     		adds	r3, r3, #4
 1564 0120 2C93     		str	r3, [sp, #176]
 545:/home/rdu/Workspace/project_templates/mcu/stm32_ws/src/libraries/STM32F4xx_StdPeriph_Driver/src/stm32f4xx_cryp_aes.c ****     keyaddr+=4;
 1565              		.loc 1 545 0
 1566 0122 2C9B     		ldr	r3, [sp, #176]
 1567 0124 1B68     		ldr	r3, [r3]
 1568 0126 1A93     		str	r3, [sp, #104]
 1569              	.LBB332:
 1570              	.LBB333:
 1571              		.loc 2 498 0
 1572 0128 1A9B     		ldr	r3, [sp, #104]
 1573 012a 1BBA     		rev	r3, r3
 1574              	.LBE333:
 1575              	.LBE332:
 545:/home/rdu/Workspace/project_templates/mcu/stm32_ws/src/libraries/STM32F4xx_StdPeriph_Driver/src/stm32f4xx_cryp_aes.c ****     keyaddr+=4;
 1576              		.loc 1 545 0
 1577 012c 0A93     		str	r3, [sp, #40]
 546:/home/rdu/Workspace/project_templates/mcu/stm32_ws/src/libraries/STM32F4xx_StdPeriph_Driver/src/stm32f4xx_cryp_aes.c ****     AES_CRYP_KeyInitStructure.CRYP_Key1Left = __REV(*(uint32_t*)(keyaddr));
 1578              		.loc 1 546 0
 1579 012e 2C9B     		ldr	r3, [sp, #176]
 1580 0130 0433     		adds	r3, r3, #4
 1581 0132 2C93     		str	r3, [sp, #176]
 547:/home/rdu/Workspace/project_templates/mcu/stm32_ws/src/libraries/STM32F4xx_StdPeriph_Driver/src/stm32f4xx_cryp_aes.c ****     keyaddr+=4;
 1582              		.loc 1 547 0
 1583 0134 2C9B     		ldr	r3, [sp, #176]
 1584 0136 1B68     		ldr	r3, [r3]
 1585 0138 1B93     		str	r3, [sp, #108]
 1586              	.LBB334:
 1587              	.LBB335:
 1588              		.loc 2 498 0
 1589 013a 1B9B     		ldr	r3, [sp, #108]
 1590 013c 1BBA     		rev	r3, r3
 1591              	.LBE335:
 1592              	.LBE334:
 547:/home/rdu/Workspace/project_templates/mcu/stm32_ws/src/libraries/STM32F4xx_StdPeriph_Driver/src/stm32f4xx_cryp_aes.c ****     keyaddr+=4;
 1593              		.loc 1 547 0
 1594 013e 0B93     		str	r3, [sp, #44]
 548:/home/rdu/Workspace/project_templates/mcu/stm32_ws/src/libraries/STM32F4xx_StdPeriph_Driver/src/stm32f4xx_cryp_aes.c ****     AES_CRYP_KeyInitStructure.CRYP_Key1Right= __REV(*(uint32_t*)(keyaddr));
 1595              		.loc 1 548 0
 1596 0140 2C9B     		ldr	r3, [sp, #176]
 1597 0142 0433     		adds	r3, r3, #4
 1598 0144 2C93     		str	r3, [sp, #176]
 549:/home/rdu/Workspace/project_templates/mcu/stm32_ws/src/libraries/STM32F4xx_StdPeriph_Driver/src/stm32f4xx_cryp_aes.c ****     keyaddr+=4;
 1599              		.loc 1 549 0
 1600 0146 2C9B     		ldr	r3, [sp, #176]
 1601 0148 1B68     		ldr	r3, [r3]
 1602 014a 1C93     		str	r3, [sp, #112]
 1603              	.LBB336:
 1604              	.LBB337:
 1605              		.loc 2 498 0
 1606 014c 1C9B     		ldr	r3, [sp, #112]
 1607 014e 1BBA     		rev	r3, r3
 1608              	.LBE337:
 1609              	.LBE336:
 549:/home/rdu/Workspace/project_templates/mcu/stm32_ws/src/libraries/STM32F4xx_StdPeriph_Driver/src/stm32f4xx_cryp_aes.c ****     keyaddr+=4;
 1610              		.loc 1 549 0
 1611 0150 0C93     		str	r3, [sp, #48]
 550:/home/rdu/Workspace/project_templates/mcu/stm32_ws/src/libraries/STM32F4xx_StdPeriph_Driver/src/stm32f4xx_cryp_aes.c ****     AES_CRYP_KeyInitStructure.CRYP_Key2Left = __REV(*(uint32_t*)(keyaddr));
 1612              		.loc 1 550 0
 1613 0152 2C9B     		ldr	r3, [sp, #176]
 1614 0154 0433     		adds	r3, r3, #4
 1615 0156 2C93     		str	r3, [sp, #176]
 551:/home/rdu/Workspace/project_templates/mcu/stm32_ws/src/libraries/STM32F4xx_StdPeriph_Driver/src/stm32f4xx_cryp_aes.c ****     keyaddr+=4;
 1616              		.loc 1 551 0
 1617 0158 2C9B     		ldr	r3, [sp, #176]
 1618 015a 1B68     		ldr	r3, [r3]
 1619 015c 1D93     		str	r3, [sp, #116]
 1620              	.LBB338:
 1621              	.LBB339:
 1622              		.loc 2 498 0
 1623 015e 1D9B     		ldr	r3, [sp, #116]
 1624 0160 1BBA     		rev	r3, r3
 1625              	.LBE339:
 1626              	.LBE338:
 551:/home/rdu/Workspace/project_templates/mcu/stm32_ws/src/libraries/STM32F4xx_StdPeriph_Driver/src/stm32f4xx_cryp_aes.c ****     keyaddr+=4;
 1627              		.loc 1 551 0
 1628 0162 0D93     		str	r3, [sp, #52]
 552:/home/rdu/Workspace/project_templates/mcu/stm32_ws/src/libraries/STM32F4xx_StdPeriph_Driver/src/stm32f4xx_cryp_aes.c ****     AES_CRYP_KeyInitStructure.CRYP_Key2Right= __REV(*(uint32_t*)(keyaddr));
 1629              		.loc 1 552 0
 1630 0164 2C9B     		ldr	r3, [sp, #176]
 1631 0166 0433     		adds	r3, r3, #4
 1632 0168 2C93     		str	r3, [sp, #176]
 553:/home/rdu/Workspace/project_templates/mcu/stm32_ws/src/libraries/STM32F4xx_StdPeriph_Driver/src/stm32f4xx_cryp_aes.c ****     keyaddr+=4;
 1633              		.loc 1 553 0
 1634 016a 2C9B     		ldr	r3, [sp, #176]
 1635 016c 1B68     		ldr	r3, [r3]
 1636 016e 1E93     		str	r3, [sp, #120]
 1637              	.LBB340:
 1638              	.LBB341:
 1639              		.loc 2 498 0
 1640 0170 1E9B     		ldr	r3, [sp, #120]
 1641 0172 1BBA     		rev	r3, r3
 1642              	.LBE341:
 1643              	.LBE340:
 553:/home/rdu/Workspace/project_templates/mcu/stm32_ws/src/libraries/STM32F4xx_StdPeriph_Driver/src/stm32f4xx_cryp_aes.c ****     keyaddr+=4;
 1644              		.loc 1 553 0
 1645 0174 0E93     		str	r3, [sp, #56]
 554:/home/rdu/Workspace/project_templates/mcu/stm32_ws/src/libraries/STM32F4xx_StdPeriph_Driver/src/stm32f4xx_cryp_aes.c ****     AES_CRYP_KeyInitStructure.CRYP_Key3Left = __REV(*(uint32_t*)(keyaddr));
 1646              		.loc 1 554 0
 1647 0176 2C9B     		ldr	r3, [sp, #176]
 1648 0178 0433     		adds	r3, r3, #4
 1649 017a 2C93     		str	r3, [sp, #176]
 555:/home/rdu/Workspace/project_templates/mcu/stm32_ws/src/libraries/STM32F4xx_StdPeriph_Driver/src/stm32f4xx_cryp_aes.c ****     keyaddr+=4;
 1650              		.loc 1 555 0
 1651 017c 2C9B     		ldr	r3, [sp, #176]
 1652 017e 1B68     		ldr	r3, [r3]
 1653 0180 1F93     		str	r3, [sp, #124]
 1654              	.LBB342:
 1655              	.LBB343:
 1656              		.loc 2 498 0
 1657 0182 1F9B     		ldr	r3, [sp, #124]
 1658 0184 1BBA     		rev	r3, r3
 1659              	.LBE343:
 1660              	.LBE342:
 555:/home/rdu/Workspace/project_templates/mcu/stm32_ws/src/libraries/STM32F4xx_StdPeriph_Driver/src/stm32f4xx_cryp_aes.c ****     keyaddr+=4;
 1661              		.loc 1 555 0
 1662 0186 0F93     		str	r3, [sp, #60]
 556:/home/rdu/Workspace/project_templates/mcu/stm32_ws/src/libraries/STM32F4xx_StdPeriph_Driver/src/stm32f4xx_cryp_aes.c ****     AES_CRYP_KeyInitStructure.CRYP_Key3Right= __REV(*(uint32_t*)(keyaddr));
 1663              		.loc 1 556 0
 1664 0188 2C9B     		ldr	r3, [sp, #176]
 1665 018a 0433     		adds	r3, r3, #4
 1666 018c 2C93     		str	r3, [sp, #176]
 557:/home/rdu/Workspace/project_templates/mcu/stm32_ws/src/libraries/STM32F4xx_StdPeriph_Driver/src/stm32f4xx_cryp_aes.c ****     break;
 1667              		.loc 1 557 0
 1668 018e 2C9B     		ldr	r3, [sp, #176]
 1669 0190 1B68     		ldr	r3, [r3]
 1670 0192 2093     		str	r3, [sp, #128]
 1671              	.LBB344:
 1672              	.LBB345:
 1673              		.loc 2 498 0
 1674 0194 209B     		ldr	r3, [sp, #128]
 1675 0196 1BBA     		rev	r3, r3
 1676              	.LBE345:
 1677              	.LBE344:
 557:/home/rdu/Workspace/project_templates/mcu/stm32_ws/src/libraries/STM32F4xx_StdPeriph_Driver/src/stm32f4xx_cryp_aes.c ****     break;
 1678              		.loc 1 557 0
 1679 0198 1093     		str	r3, [sp, #64]
 558:/home/rdu/Workspace/project_templates/mcu/stm32_ws/src/libraries/STM32F4xx_StdPeriph_Driver/src/stm32f4xx_cryp_aes.c ****     default:
 1680              		.loc 1 558 0
 1681 019a 00BF     		nop
 1682              	.L94:
 561:/home/rdu/Workspace/project_templates/mcu/stm32_ws/src/libraries/STM32F4xx_StdPeriph_Driver/src/stm32f4xx_cryp_aes.c ****   }
 562:/home/rdu/Workspace/project_templates/mcu/stm32_ws/src/libraries/STM32F4xx_StdPeriph_Driver/src/stm32f4xx_cryp_aes.c ****   /* CRYP Initialization Vectors */
 563:/home/rdu/Workspace/project_templates/mcu/stm32_ws/src/libraries/STM32F4xx_StdPeriph_Driver/src/stm32f4xx_cryp_aes.c ****   AES_CRYP_IVInitStructure.CRYP_IV0Left = __REV(*(uint32_t*)(ivaddr));
 1683              		.loc 1 563 0
 1684 019c 2B9B     		ldr	r3, [sp, #172]
 1685 019e 1B68     		ldr	r3, [r3]
 1686 01a0 1593     		str	r3, [sp, #84]
 1687              	.LBB346:
 1688              	.LBB347:
 1689              		.loc 2 498 0
 1690 01a2 159B     		ldr	r3, [sp, #84]
 1691 01a4 1BBA     		rev	r3, r3
 1692              	.LBE347:
 1693              	.LBE346:
 1694              		.loc 1 563 0
 1695 01a6 0593     		str	r3, [sp, #20]
 564:/home/rdu/Workspace/project_templates/mcu/stm32_ws/src/libraries/STM32F4xx_StdPeriph_Driver/src/stm32f4xx_cryp_aes.c ****   ivaddr+=4;
 1696              		.loc 1 564 0
 1697 01a8 2B9B     		ldr	r3, [sp, #172]
 1698 01aa 0433     		adds	r3, r3, #4
 1699 01ac 2B93     		str	r3, [sp, #172]
 565:/home/rdu/Workspace/project_templates/mcu/stm32_ws/src/libraries/STM32F4xx_StdPeriph_Driver/src/stm32f4xx_cryp_aes.c ****   AES_CRYP_IVInitStructure.CRYP_IV0Right= __REV(*(uint32_t*)(ivaddr));
 1700              		.loc 1 565 0
 1701 01ae 2B9B     		ldr	r3, [sp, #172]
 1702 01b0 1B68     		ldr	r3, [r3]
 1703 01b2 1693     		str	r3, [sp, #88]
 1704              	.LBB348:
 1705              	.LBB349:
 1706              		.loc 2 498 0
 1707 01b4 169B     		ldr	r3, [sp, #88]
 1708 01b6 1BBA     		rev	r3, r3
 1709              	.LBE349:
 1710              	.LBE348:
 1711              		.loc 1 565 0
 1712 01b8 0693     		str	r3, [sp, #24]
 566:/home/rdu/Workspace/project_templates/mcu/stm32_ws/src/libraries/STM32F4xx_StdPeriph_Driver/src/stm32f4xx_cryp_aes.c ****   ivaddr+=4;
 1713              		.loc 1 566 0
 1714 01ba 2B9B     		ldr	r3, [sp, #172]
 1715 01bc 0433     		adds	r3, r3, #4
 1716 01be 2B93     		str	r3, [sp, #172]
 567:/home/rdu/Workspace/project_templates/mcu/stm32_ws/src/libraries/STM32F4xx_StdPeriph_Driver/src/stm32f4xx_cryp_aes.c ****   AES_CRYP_IVInitStructure.CRYP_IV1Left = __REV(*(uint32_t*)(ivaddr));
 1717              		.loc 1 567 0
 1718 01c0 2B9B     		ldr	r3, [sp, #172]
 1719 01c2 1B68     		ldr	r3, [r3]
 1720 01c4 1793     		str	r3, [sp, #92]
 1721              	.LBB350:
 1722              	.LBB351:
 1723              		.loc 2 498 0
 1724 01c6 179B     		ldr	r3, [sp, #92]
 1725 01c8 1BBA     		rev	r3, r3
 1726              	.LBE351:
 1727              	.LBE350:
 1728              		.loc 1 567 0
 1729 01ca 0793     		str	r3, [sp, #28]
 568:/home/rdu/Workspace/project_templates/mcu/stm32_ws/src/libraries/STM32F4xx_StdPeriph_Driver/src/stm32f4xx_cryp_aes.c ****   ivaddr+=4;
 1730              		.loc 1 568 0
 1731 01cc 2B9B     		ldr	r3, [sp, #172]
 1732 01ce 0433     		adds	r3, r3, #4
 1733 01d0 2B93     		str	r3, [sp, #172]
 569:/home/rdu/Workspace/project_templates/mcu/stm32_ws/src/libraries/STM32F4xx_StdPeriph_Driver/src/stm32f4xx_cryp_aes.c ****   AES_CRYP_IVInitStructure.CRYP_IV1Right= __REV(*(uint32_t*)(ivaddr));
 1734              		.loc 1 569 0
 1735 01d2 2B9B     		ldr	r3, [sp, #172]
 1736 01d4 1B68     		ldr	r3, [r3]
 1737 01d6 1893     		str	r3, [sp, #96]
 1738              	.LBB352:
 1739              	.LBB353:
 1740              		.loc 2 498 0
 1741 01d8 189B     		ldr	r3, [sp, #96]
 1742 01da 1BBA     		rev	r3, r3
 1743              	.LBE353:
 1744              	.LBE352:
 1745              		.loc 1 569 0
 1746 01dc 0893     		str	r3, [sp, #32]
 570:/home/rdu/Workspace/project_templates/mcu/stm32_ws/src/libraries/STM32F4xx_StdPeriph_Driver/src/stm32f4xx_cryp_aes.c **** 
 571:/home/rdu/Workspace/project_templates/mcu/stm32_ws/src/libraries/STM32F4xx_StdPeriph_Driver/src/stm32f4xx_cryp_aes.c ****   /* Key Initialisation */
 572:/home/rdu/Workspace/project_templates/mcu/stm32_ws/src/libraries/STM32F4xx_StdPeriph_Driver/src/stm32f4xx_cryp_aes.c ****   CRYP_KeyInit(&AES_CRYP_KeyInitStructure);
 1747              		.loc 1 572 0
 1748 01de 09AB     		add	r3, sp, #36
 1749 01e0 1846     		mov	r0, r3
 1750 01e2 FFF7FEFF 		bl	CRYP_KeyInit
 573:/home/rdu/Workspace/project_templates/mcu/stm32_ws/src/libraries/STM32F4xx_StdPeriph_Driver/src/stm32f4xx_cryp_aes.c **** 
 574:/home/rdu/Workspace/project_templates/mcu/stm32_ws/src/libraries/STM32F4xx_StdPeriph_Driver/src/stm32f4xx_cryp_aes.c ****   /*------------------ AES Decryption ------------------*/
 575:/home/rdu/Workspace/project_templates/mcu/stm32_ws/src/libraries/STM32F4xx_StdPeriph_Driver/src/stm32f4xx_cryp_aes.c ****   if(Mode == MODE_DECRYPT) /* AES decryption */
 1751              		.loc 1 575 0
 1752 01e6 9DF80F30 		ldrb	r3, [sp, #15]	@ zero_extendqisi2
 1753 01ea 002B     		cmp	r3, #0
 1754 01ec 02D1     		bne	.L113
 576:/home/rdu/Workspace/project_templates/mcu/stm32_ws/src/libraries/STM32F4xx_StdPeriph_Driver/src/stm32f4xx_cryp_aes.c ****   {
 577:/home/rdu/Workspace/project_templates/mcu/stm32_ws/src/libraries/STM32F4xx_StdPeriph_Driver/src/stm32f4xx_cryp_aes.c ****     /* Crypto Init for decryption process */
 578:/home/rdu/Workspace/project_templates/mcu/stm32_ws/src/libraries/STM32F4xx_StdPeriph_Driver/src/stm32f4xx_cryp_aes.c ****     AES_CRYP_InitStructure.CRYP_AlgoDir = CRYP_AlgoDir_Decrypt;
 1755              		.loc 1 578 0
 1756 01ee 0423     		movs	r3, #4
 1757 01f0 1193     		str	r3, [sp, #68]
 1758 01f2 01E0     		b	.L114
 1759              	.L113:
 579:/home/rdu/Workspace/project_templates/mcu/stm32_ws/src/libraries/STM32F4xx_StdPeriph_Driver/src/stm32f4xx_cryp_aes.c ****   }
 580:/home/rdu/Workspace/project_templates/mcu/stm32_ws/src/libraries/STM32F4xx_StdPeriph_Driver/src/stm32f4xx_cryp_aes.c ****   /*------------------ AES Encryption ------------------*/
 581:/home/rdu/Workspace/project_templates/mcu/stm32_ws/src/libraries/STM32F4xx_StdPeriph_Driver/src/stm32f4xx_cryp_aes.c ****   else /* AES encryption */
 582:/home/rdu/Workspace/project_templates/mcu/stm32_ws/src/libraries/STM32F4xx_StdPeriph_Driver/src/stm32f4xx_cryp_aes.c ****   {
 583:/home/rdu/Workspace/project_templates/mcu/stm32_ws/src/libraries/STM32F4xx_StdPeriph_Driver/src/stm32f4xx_cryp_aes.c ****     /* Crypto Init for Encryption process */
 584:/home/rdu/Workspace/project_templates/mcu/stm32_ws/src/libraries/STM32F4xx_StdPeriph_Driver/src/stm32f4xx_cryp_aes.c ****     AES_CRYP_InitStructure.CRYP_AlgoDir = CRYP_AlgoDir_Encrypt;
 1760              		.loc 1 584 0
 1761 01f4 0023     		movs	r3, #0
 1762 01f6 1193     		str	r3, [sp, #68]
 1763              	.L114:
 585:/home/rdu/Workspace/project_templates/mcu/stm32_ws/src/libraries/STM32F4xx_StdPeriph_Driver/src/stm32f4xx_cryp_aes.c ****   }
 586:/home/rdu/Workspace/project_templates/mcu/stm32_ws/src/libraries/STM32F4xx_StdPeriph_Driver/src/stm32f4xx_cryp_aes.c ****   AES_CRYP_InitStructure.CRYP_AlgoMode = CRYP_AlgoMode_AES_CTR;
 1764              		.loc 1 586 0
 1765 01f8 3023     		movs	r3, #48
 1766 01fa 1293     		str	r3, [sp, #72]
 587:/home/rdu/Workspace/project_templates/mcu/stm32_ws/src/libraries/STM32F4xx_StdPeriph_Driver/src/stm32f4xx_cryp_aes.c ****   AES_CRYP_InitStructure.CRYP_DataType = CRYP_DataType_8b;
 1767              		.loc 1 587 0
 1768 01fc 8023     		movs	r3, #128
 1769 01fe 1393     		str	r3, [sp, #76]
 588:/home/rdu/Workspace/project_templates/mcu/stm32_ws/src/libraries/STM32F4xx_StdPeriph_Driver/src/stm32f4xx_cryp_aes.c ****   CRYP_Init(&AES_CRYP_InitStructure);
 1770              		.loc 1 588 0
 1771 0200 11AB     		add	r3, sp, #68
 1772 0202 1846     		mov	r0, r3
 1773 0204 FFF7FEFF 		bl	CRYP_Init
 589:/home/rdu/Workspace/project_templates/mcu/stm32_ws/src/libraries/STM32F4xx_StdPeriph_Driver/src/stm32f4xx_cryp_aes.c **** 
 590:/home/rdu/Workspace/project_templates/mcu/stm32_ws/src/libraries/STM32F4xx_StdPeriph_Driver/src/stm32f4xx_cryp_aes.c ****   /* CRYP Initialization Vectors */
 591:/home/rdu/Workspace/project_templates/mcu/stm32_ws/src/libraries/STM32F4xx_StdPeriph_Driver/src/stm32f4xx_cryp_aes.c ****   CRYP_IVInit(&AES_CRYP_IVInitStructure);
 1774              		.loc 1 591 0
 1775 0208 05AB     		add	r3, sp, #20
 1776 020a 1846     		mov	r0, r3
 1777 020c FFF7FEFF 		bl	CRYP_IVInit
 592:/home/rdu/Workspace/project_templates/mcu/stm32_ws/src/libraries/STM32F4xx_StdPeriph_Driver/src/stm32f4xx_cryp_aes.c **** 
 593:/home/rdu/Workspace/project_templates/mcu/stm32_ws/src/libraries/STM32F4xx_StdPeriph_Driver/src/stm32f4xx_cryp_aes.c ****   /* Flush IN/OUT FIFOs */
 594:/home/rdu/Workspace/project_templates/mcu/stm32_ws/src/libraries/STM32F4xx_StdPeriph_Driver/src/stm32f4xx_cryp_aes.c ****   CRYP_FIFOFlush();
 1778              		.loc 1 594 0
 1779 0210 FFF7FEFF 		bl	CRYP_FIFOFlush
 595:/home/rdu/Workspace/project_templates/mcu/stm32_ws/src/libraries/STM32F4xx_StdPeriph_Driver/src/stm32f4xx_cryp_aes.c **** 
 596:/home/rdu/Workspace/project_templates/mcu/stm32_ws/src/libraries/STM32F4xx_StdPeriph_Driver/src/stm32f4xx_cryp_aes.c ****   /* Enable Crypto processor */
 597:/home/rdu/Workspace/project_templates/mcu/stm32_ws/src/libraries/STM32F4xx_StdPeriph_Driver/src/stm32f4xx_cryp_aes.c ****   CRYP_Cmd(ENABLE);
 1780              		.loc 1 597 0
 1781 0214 0120     		movs	r0, #1
 1782 0216 FFF7FEFF 		bl	CRYP_Cmd
 598:/home/rdu/Workspace/project_templates/mcu/stm32_ws/src/libraries/STM32F4xx_StdPeriph_Driver/src/stm32f4xx_cryp_aes.c **** 
 599:/home/rdu/Workspace/project_templates/mcu/stm32_ws/src/libraries/STM32F4xx_StdPeriph_Driver/src/stm32f4xx_cryp_aes.c ****   if(CRYP_GetCmdStatus() == DISABLE)
 1783              		.loc 1 599 0
 1784 021a FFF7FEFF 		bl	CRYP_GetCmdStatus
 1785 021e 0346     		mov	r3, r0
 1786 0220 002B     		cmp	r3, #0
 1787 0222 01D1     		bne	.L115
 600:/home/rdu/Workspace/project_templates/mcu/stm32_ws/src/libraries/STM32F4xx_StdPeriph_Driver/src/stm32f4xx_cryp_aes.c ****   {
 601:/home/rdu/Workspace/project_templates/mcu/stm32_ws/src/libraries/STM32F4xx_StdPeriph_Driver/src/stm32f4xx_cryp_aes.c ****     /* The CRYP peripheral clock is not enabled or the device doesn't embed 
 602:/home/rdu/Workspace/project_templates/mcu/stm32_ws/src/libraries/STM32F4xx_StdPeriph_Driver/src/stm32f4xx_cryp_aes.c ****        the CRYP peripheral (please check the device sales type. */
 603:/home/rdu/Workspace/project_templates/mcu/stm32_ws/src/libraries/STM32F4xx_StdPeriph_Driver/src/stm32f4xx_cryp_aes.c ****     return(ERROR);
 1788              		.loc 1 603 0
 1789 0224 0023     		movs	r3, #0
 1790 0226 6AE0     		b	.L124
 1791              	.L115:
 604:/home/rdu/Workspace/project_templates/mcu/stm32_ws/src/libraries/STM32F4xx_StdPeriph_Driver/src/stm32f4xx_cryp_aes.c ****   }
 605:/home/rdu/Workspace/project_templates/mcu/stm32_ws/src/libraries/STM32F4xx_StdPeriph_Driver/src/stm32f4xx_cryp_aes.c ****   
 606:/home/rdu/Workspace/project_templates/mcu/stm32_ws/src/libraries/STM32F4xx_StdPeriph_Driver/src/stm32f4xx_cryp_aes.c ****   for(i=0; ((i<Ilength) && (status != ERROR)); i+=16)
 1792              		.loc 1 606 0
 1793 0228 0023     		movs	r3, #0
 1794 022a 2E93     		str	r3, [sp, #184]
 1795 022c 5AE0     		b	.L117
 1796              	.L123:
 607:/home/rdu/Workspace/project_templates/mcu/stm32_ws/src/libraries/STM32F4xx_StdPeriph_Driver/src/stm32f4xx_cryp_aes.c ****   {
 608:/home/rdu/Workspace/project_templates/mcu/stm32_ws/src/libraries/STM32F4xx_StdPeriph_Driver/src/stm32f4xx_cryp_aes.c **** 
 609:/home/rdu/Workspace/project_templates/mcu/stm32_ws/src/libraries/STM32F4xx_StdPeriph_Driver/src/stm32f4xx_cryp_aes.c ****     /* Write the Input block in the IN FIFO */
 610:/home/rdu/Workspace/project_templates/mcu/stm32_ws/src/libraries/STM32F4xx_StdPeriph_Driver/src/stm32f4xx_cryp_aes.c ****     CRYP_DataIn(*(uint32_t*)(inputaddr));
 1797              		.loc 1 610 0
 1798 022e 309B     		ldr	r3, [sp, #192]
 1799 0230 1B68     		ldr	r3, [r3]
 1800 0232 1846     		mov	r0, r3
 1801 0234 FFF7FEFF 		bl	CRYP_DataIn
 611:/home/rdu/Workspace/project_templates/mcu/stm32_ws/src/libraries/STM32F4xx_StdPeriph_Driver/src/stm32f4xx_cryp_aes.c ****     inputaddr+=4;
 1802              		.loc 1 611 0
 1803 0238 309B     		ldr	r3, [sp, #192]
 1804 023a 0433     		adds	r3, r3, #4
 1805 023c 3093     		str	r3, [sp, #192]
 612:/home/rdu/Workspace/project_templates/mcu/stm32_ws/src/libraries/STM32F4xx_StdPeriph_Driver/src/stm32f4xx_cryp_aes.c ****     CRYP_DataIn(*(uint32_t*)(inputaddr));
 1806              		.loc 1 612 0
 1807 023e 309B     		ldr	r3, [sp, #192]
 1808 0240 1B68     		ldr	r3, [r3]
 1809 0242 1846     		mov	r0, r3
 1810 0244 FFF7FEFF 		bl	CRYP_DataIn
 613:/home/rdu/Workspace/project_templates/mcu/stm32_ws/src/libraries/STM32F4xx_StdPeriph_Driver/src/stm32f4xx_cryp_aes.c ****     inputaddr+=4;
 1811              		.loc 1 613 0
 1812 0248 309B     		ldr	r3, [sp, #192]
 1813 024a 0433     		adds	r3, r3, #4
 1814 024c 3093     		str	r3, [sp, #192]
 614:/home/rdu/Workspace/project_templates/mcu/stm32_ws/src/libraries/STM32F4xx_StdPeriph_Driver/src/stm32f4xx_cryp_aes.c ****     CRYP_DataIn(*(uint32_t*)(inputaddr));
 1815              		.loc 1 614 0
 1816 024e 309B     		ldr	r3, [sp, #192]
 1817 0250 1B68     		ldr	r3, [r3]
 1818 0252 1846     		mov	r0, r3
 1819 0254 FFF7FEFF 		bl	CRYP_DataIn
 615:/home/rdu/Workspace/project_templates/mcu/stm32_ws/src/libraries/STM32F4xx_StdPeriph_Driver/src/stm32f4xx_cryp_aes.c ****     inputaddr+=4;
 1820              		.loc 1 615 0
 1821 0258 309B     		ldr	r3, [sp, #192]
 1822 025a 0433     		adds	r3, r3, #4
 1823 025c 3093     		str	r3, [sp, #192]
 616:/home/rdu/Workspace/project_templates/mcu/stm32_ws/src/libraries/STM32F4xx_StdPeriph_Driver/src/stm32f4xx_cryp_aes.c ****     CRYP_DataIn(*(uint32_t*)(inputaddr));
 1824              		.loc 1 616 0
 1825 025e 309B     		ldr	r3, [sp, #192]
 1826 0260 1B68     		ldr	r3, [r3]
 1827 0262 1846     		mov	r0, r3
 1828 0264 FFF7FEFF 		bl	CRYP_DataIn
 617:/home/rdu/Workspace/project_templates/mcu/stm32_ws/src/libraries/STM32F4xx_StdPeriph_Driver/src/stm32f4xx_cryp_aes.c ****     inputaddr+=4;
 1829              		.loc 1 617 0
 1830 0268 309B     		ldr	r3, [sp, #192]
 1831 026a 0433     		adds	r3, r3, #4
 1832 026c 3093     		str	r3, [sp, #192]
 618:/home/rdu/Workspace/project_templates/mcu/stm32_ws/src/libraries/STM32F4xx_StdPeriph_Driver/src/stm32f4xx_cryp_aes.c ****     /* Wait until the complete message has been processed */
 619:/home/rdu/Workspace/project_templates/mcu/stm32_ws/src/libraries/STM32F4xx_StdPeriph_Driver/src/stm32f4xx_cryp_aes.c ****     counter = 0;
 1833              		.loc 1 619 0
 1834 026e 0023     		movs	r3, #0
 1835 0270 0493     		str	r3, [sp, #16]
 1836              	.L119:
 620:/home/rdu/Workspace/project_templates/mcu/stm32_ws/src/libraries/STM32F4xx_StdPeriph_Driver/src/stm32f4xx_cryp_aes.c ****     do
 621:/home/rdu/Workspace/project_templates/mcu/stm32_ws/src/libraries/STM32F4xx_StdPeriph_Driver/src/stm32f4xx_cryp_aes.c ****     {
 622:/home/rdu/Workspace/project_templates/mcu/stm32_ws/src/libraries/STM32F4xx_StdPeriph_Driver/src/stm32f4xx_cryp_aes.c ****       busystatus = CRYP_GetFlagStatus(CRYP_FLAG_BUSY);
 1837              		.loc 1 622 0 discriminator 2
 1838 0272 1020     		movs	r0, #16
 1839 0274 FFF7FEFF 		bl	CRYP_GetFlagStatus
 1840 0278 0346     		mov	r3, r0
 1841 027a 2D93     		str	r3, [sp, #180]
 623:/home/rdu/Workspace/project_templates/mcu/stm32_ws/src/libraries/STM32F4xx_StdPeriph_Driver/src/stm32f4xx_cryp_aes.c ****       counter++;
 1842              		.loc 1 623 0 discriminator 2
 1843 027c 049B     		ldr	r3, [sp, #16]
 1844 027e 0133     		adds	r3, r3, #1
 1845 0280 0493     		str	r3, [sp, #16]
 624:/home/rdu/Workspace/project_templates/mcu/stm32_ws/src/libraries/STM32F4xx_StdPeriph_Driver/src/stm32f4xx_cryp_aes.c ****     }while ((counter != AESBUSY_TIMEOUT) && (busystatus != RESET));
 1846              		.loc 1 624 0 discriminator 2
 1847 0282 049B     		ldr	r3, [sp, #16]
 1848 0284 B3F5803F 		cmp	r3, #65536
 1849 0288 02D0     		beq	.L118
 1850              		.loc 1 624 0 is_stmt 0 discriminator 1
 1851 028a 2D9B     		ldr	r3, [sp, #180]
 1852 028c 002B     		cmp	r3, #0
 1853 028e F0D1     		bne	.L119
 1854              	.L118:
 625:/home/rdu/Workspace/project_templates/mcu/stm32_ws/src/libraries/STM32F4xx_StdPeriph_Driver/src/stm32f4xx_cryp_aes.c **** 
 626:/home/rdu/Workspace/project_templates/mcu/stm32_ws/src/libraries/STM32F4xx_StdPeriph_Driver/src/stm32f4xx_cryp_aes.c ****     if (busystatus != RESET)
 1855              		.loc 1 626 0 is_stmt 1
 1856 0290 2D9B     		ldr	r3, [sp, #180]
 1857 0292 002B     		cmp	r3, #0
 1858 0294 03D0     		beq	.L120
 627:/home/rdu/Workspace/project_templates/mcu/stm32_ws/src/libraries/STM32F4xx_StdPeriph_Driver/src/stm32f4xx_cryp_aes.c ****    {
 628:/home/rdu/Workspace/project_templates/mcu/stm32_ws/src/libraries/STM32F4xx_StdPeriph_Driver/src/stm32f4xx_cryp_aes.c ****        status = ERROR;
 1859              		.loc 1 628 0
 1860 0296 0023     		movs	r3, #0
 1861 0298 8DF8C730 		strb	r3, [sp, #199]
 1862 029c 1FE0     		b	.L121
 1863              	.L120:
 629:/home/rdu/Workspace/project_templates/mcu/stm32_ws/src/libraries/STM32F4xx_StdPeriph_Driver/src/stm32f4xx_cryp_aes.c ****     }
 630:/home/rdu/Workspace/project_templates/mcu/stm32_ws/src/libraries/STM32F4xx_StdPeriph_Driver/src/stm32f4xx_cryp_aes.c ****     else
 631:/home/rdu/Workspace/project_templates/mcu/stm32_ws/src/libraries/STM32F4xx_StdPeriph_Driver/src/stm32f4xx_cryp_aes.c ****     {
 632:/home/rdu/Workspace/project_templates/mcu/stm32_ws/src/libraries/STM32F4xx_StdPeriph_Driver/src/stm32f4xx_cryp_aes.c **** 
 633:/home/rdu/Workspace/project_templates/mcu/stm32_ws/src/libraries/STM32F4xx_StdPeriph_Driver/src/stm32f4xx_cryp_aes.c ****       /* Read the Output block from the Output FIFO */
 634:/home/rdu/Workspace/project_templates/mcu/stm32_ws/src/libraries/STM32F4xx_StdPeriph_Driver/src/stm32f4xx_cryp_aes.c ****       *(uint32_t*)(outputaddr) = CRYP_DataOut();
 1864              		.loc 1 634 0
 1865 029e 2F9C     		ldr	r4, [sp, #188]
 1866 02a0 FFF7FEFF 		bl	CRYP_DataOut
 1867 02a4 0346     		mov	r3, r0
 1868 02a6 2360     		str	r3, [r4]
 635:/home/rdu/Workspace/project_templates/mcu/stm32_ws/src/libraries/STM32F4xx_StdPeriph_Driver/src/stm32f4xx_cryp_aes.c ****       outputaddr+=4;
 1869              		.loc 1 635 0
 1870 02a8 2F9B     		ldr	r3, [sp, #188]
 1871 02aa 0433     		adds	r3, r3, #4
 1872 02ac 2F93     		str	r3, [sp, #188]
 636:/home/rdu/Workspace/project_templates/mcu/stm32_ws/src/libraries/STM32F4xx_StdPeriph_Driver/src/stm32f4xx_cryp_aes.c ****       *(uint32_t*)(outputaddr) = CRYP_DataOut();
 1873              		.loc 1 636 0
 1874 02ae 2F9C     		ldr	r4, [sp, #188]
 1875 02b0 FFF7FEFF 		bl	CRYP_DataOut
 1876 02b4 0346     		mov	r3, r0
 1877 02b6 2360     		str	r3, [r4]
 637:/home/rdu/Workspace/project_templates/mcu/stm32_ws/src/libraries/STM32F4xx_StdPeriph_Driver/src/stm32f4xx_cryp_aes.c ****       outputaddr+=4;
 1878              		.loc 1 637 0
 1879 02b8 2F9B     		ldr	r3, [sp, #188]
 1880 02ba 0433     		adds	r3, r3, #4
 1881 02bc 2F93     		str	r3, [sp, #188]
 638:/home/rdu/Workspace/project_templates/mcu/stm32_ws/src/libraries/STM32F4xx_StdPeriph_Driver/src/stm32f4xx_cryp_aes.c ****       *(uint32_t*)(outputaddr) = CRYP_DataOut();
 1882              		.loc 1 638 0
 1883 02be 2F9C     		ldr	r4, [sp, #188]
 1884 02c0 FFF7FEFF 		bl	CRYP_DataOut
 1885 02c4 0346     		mov	r3, r0
 1886 02c6 2360     		str	r3, [r4]
 639:/home/rdu/Workspace/project_templates/mcu/stm32_ws/src/libraries/STM32F4xx_StdPeriph_Driver/src/stm32f4xx_cryp_aes.c ****       outputaddr+=4;
 1887              		.loc 1 639 0
 1888 02c8 2F9B     		ldr	r3, [sp, #188]
 1889 02ca 0433     		adds	r3, r3, #4
 1890 02cc 2F93     		str	r3, [sp, #188]
 640:/home/rdu/Workspace/project_templates/mcu/stm32_ws/src/libraries/STM32F4xx_StdPeriph_Driver/src/stm32f4xx_cryp_aes.c ****       *(uint32_t*)(outputaddr) = CRYP_DataOut();
 1891              		.loc 1 640 0
 1892 02ce 2F9C     		ldr	r4, [sp, #188]
 1893 02d0 FFF7FEFF 		bl	CRYP_DataOut
 1894 02d4 0346     		mov	r3, r0
 1895 02d6 2360     		str	r3, [r4]
 641:/home/rdu/Workspace/project_templates/mcu/stm32_ws/src/libraries/STM32F4xx_StdPeriph_Driver/src/stm32f4xx_cryp_aes.c ****       outputaddr+=4;
 1896              		.loc 1 641 0
 1897 02d8 2F9B     		ldr	r3, [sp, #188]
 1898 02da 0433     		adds	r3, r3, #4
 1899 02dc 2F93     		str	r3, [sp, #188]
 1900              	.L121:
 606:/home/rdu/Workspace/project_templates/mcu/stm32_ws/src/libraries/STM32F4xx_StdPeriph_Driver/src/stm32f4xx_cryp_aes.c ****   {
 1901              		.loc 1 606 0 discriminator 2
 1902 02de 2E9B     		ldr	r3, [sp, #184]
 1903 02e0 1033     		adds	r3, r3, #16
 1904 02e2 2E93     		str	r3, [sp, #184]
 1905              	.L117:
 606:/home/rdu/Workspace/project_templates/mcu/stm32_ws/src/libraries/STM32F4xx_StdPeriph_Driver/src/stm32f4xx_cryp_aes.c ****   {
 1906              		.loc 1 606 0 is_stmt 0 discriminator 1
 1907 02e4 2E9A     		ldr	r2, [sp, #184]
 1908 02e6 359B     		ldr	r3, [sp, #212]
 1909 02e8 9A42     		cmp	r2, r3
 1910 02ea 03D2     		bcs	.L122
 606:/home/rdu/Workspace/project_templates/mcu/stm32_ws/src/libraries/STM32F4xx_StdPeriph_Driver/src/stm32f4xx_cryp_aes.c ****   {
 1911              		.loc 1 606 0 discriminator 3
 1912 02ec 9DF8C730 		ldrb	r3, [sp, #199]	@ zero_extendqisi2
 1913 02f0 002B     		cmp	r3, #0
 1914 02f2 9CD1     		bne	.L123
 1915              	.L122:
 642:/home/rdu/Workspace/project_templates/mcu/stm32_ws/src/libraries/STM32F4xx_StdPeriph_Driver/src/stm32f4xx_cryp_aes.c ****     }
 643:/home/rdu/Workspace/project_templates/mcu/stm32_ws/src/libraries/STM32F4xx_StdPeriph_Driver/src/stm32f4xx_cryp_aes.c ****   }
 644:/home/rdu/Workspace/project_templates/mcu/stm32_ws/src/libraries/STM32F4xx_StdPeriph_Driver/src/stm32f4xx_cryp_aes.c ****   /* Disable Crypto */
 645:/home/rdu/Workspace/project_templates/mcu/stm32_ws/src/libraries/STM32F4xx_StdPeriph_Driver/src/stm32f4xx_cryp_aes.c ****   CRYP_Cmd(DISABLE);
 1916              		.loc 1 645 0 is_stmt 1
 1917 02f4 0020     		movs	r0, #0
 1918 02f6 FFF7FEFF 		bl	CRYP_Cmd
 646:/home/rdu/Workspace/project_templates/mcu/stm32_ws/src/libraries/STM32F4xx_StdPeriph_Driver/src/stm32f4xx_cryp_aes.c **** 
 647:/home/rdu/Workspace/project_templates/mcu/stm32_ws/src/libraries/STM32F4xx_StdPeriph_Driver/src/stm32f4xx_cryp_aes.c ****   return status;
 1919              		.loc 1 647 0
 1920 02fa 9DF8C730 		ldrb	r3, [sp, #199]	@ zero_extendqisi2
 1921              	.L124:
 648:/home/rdu/Workspace/project_templates/mcu/stm32_ws/src/libraries/STM32F4xx_StdPeriph_Driver/src/stm32f4xx_cryp_aes.c **** }
 1922              		.loc 1 648 0 discriminator 1
 1923 02fe 1846     		mov	r0, r3
 1924 0300 32B0     		add	sp, sp, #200
 1925              	.LCFI8:
 1926              		.cfi_def_cfa_offset 8
 1927              		@ sp needed
 1928 0302 10BD     		pop	{r4, pc}
 1929              		.cfi_endproc
 1930              	.LFE125:
 1932              		.section	.text.CRYP_AES_GCM,"ax",%progbits
 1933              		.align	1
 1934              		.global	CRYP_AES_GCM
 1935              		.syntax unified
 1936              		.thumb
 1937              		.thumb_func
 1938              		.fpu fpv4-sp-d16
 1940              	CRYP_AES_GCM:
 1941              	.LFB126:
 649:/home/rdu/Workspace/project_templates/mcu/stm32_ws/src/libraries/STM32F4xx_StdPeriph_Driver/src/stm32f4xx_cryp_aes.c **** 
 650:/home/rdu/Workspace/project_templates/mcu/stm32_ws/src/libraries/STM32F4xx_StdPeriph_Driver/src/stm32f4xx_cryp_aes.c **** /**
 651:/home/rdu/Workspace/project_templates/mcu/stm32_ws/src/libraries/STM32F4xx_StdPeriph_Driver/src/stm32f4xx_cryp_aes.c ****   * @brief  Encrypt and decrypt using AES in GCM Mode. The GCM and CCM modes
 652:/home/rdu/Workspace/project_templates/mcu/stm32_ws/src/libraries/STM32F4xx_StdPeriph_Driver/src/stm32f4xx_cryp_aes.c ****   *         are available only on STM32F437x Devices.
 653:/home/rdu/Workspace/project_templates/mcu/stm32_ws/src/libraries/STM32F4xx_StdPeriph_Driver/src/stm32f4xx_cryp_aes.c ****   * @param  Mode: encryption or decryption Mode.
 654:/home/rdu/Workspace/project_templates/mcu/stm32_ws/src/libraries/STM32F4xx_StdPeriph_Driver/src/stm32f4xx_cryp_aes.c ****   *          This parameter can be one of the following values:
 655:/home/rdu/Workspace/project_templates/mcu/stm32_ws/src/libraries/STM32F4xx_StdPeriph_Driver/src/stm32f4xx_cryp_aes.c ****   *            @arg MODE_ENCRYPT: Encryption
 656:/home/rdu/Workspace/project_templates/mcu/stm32_ws/src/libraries/STM32F4xx_StdPeriph_Driver/src/stm32f4xx_cryp_aes.c ****   *            @arg MODE_DECRYPT: Decryption
 657:/home/rdu/Workspace/project_templates/mcu/stm32_ws/src/libraries/STM32F4xx_StdPeriph_Driver/src/stm32f4xx_cryp_aes.c ****   * @param  InitVectors: Initialisation Vectors used for AES algorithm.
 658:/home/rdu/Workspace/project_templates/mcu/stm32_ws/src/libraries/STM32F4xx_StdPeriph_Driver/src/stm32f4xx_cryp_aes.c ****   * @param  Key: Key used for AES algorithm.
 659:/home/rdu/Workspace/project_templates/mcu/stm32_ws/src/libraries/STM32F4xx_StdPeriph_Driver/src/stm32f4xx_cryp_aes.c ****   * @param  Keysize: length of the Key, must be a 128, 192 or 256.
 660:/home/rdu/Workspace/project_templates/mcu/stm32_ws/src/libraries/STM32F4xx_StdPeriph_Driver/src/stm32f4xx_cryp_aes.c ****   * @param  Input: pointer to the Input buffer.
 661:/home/rdu/Workspace/project_templates/mcu/stm32_ws/src/libraries/STM32F4xx_StdPeriph_Driver/src/stm32f4xx_cryp_aes.c ****   * @param  Ilength: length of the Input buffer in bytes, must be a multiple of 16.
 662:/home/rdu/Workspace/project_templates/mcu/stm32_ws/src/libraries/STM32F4xx_StdPeriph_Driver/src/stm32f4xx_cryp_aes.c ****   * @param  Header: pointer to the header buffer.
 663:/home/rdu/Workspace/project_templates/mcu/stm32_ws/src/libraries/STM32F4xx_StdPeriph_Driver/src/stm32f4xx_cryp_aes.c ****   * @param  Hlength: length of the header buffer in bytes, must be a multiple of 16.  
 664:/home/rdu/Workspace/project_templates/mcu/stm32_ws/src/libraries/STM32F4xx_StdPeriph_Driver/src/stm32f4xx_cryp_aes.c ****   * @param  Output: pointer to the returned buffer.
 665:/home/rdu/Workspace/project_templates/mcu/stm32_ws/src/libraries/STM32F4xx_StdPeriph_Driver/src/stm32f4xx_cryp_aes.c ****   * @param  AuthTAG: pointer to the authentication TAG buffer.
 666:/home/rdu/Workspace/project_templates/mcu/stm32_ws/src/libraries/STM32F4xx_StdPeriph_Driver/src/stm32f4xx_cryp_aes.c ****   * @retval An ErrorStatus enumeration value:
 667:/home/rdu/Workspace/project_templates/mcu/stm32_ws/src/libraries/STM32F4xx_StdPeriph_Driver/src/stm32f4xx_cryp_aes.c ****   *          - SUCCESS: Operation done
 668:/home/rdu/Workspace/project_templates/mcu/stm32_ws/src/libraries/STM32F4xx_StdPeriph_Driver/src/stm32f4xx_cryp_aes.c ****   *          - ERROR: Operation failed
 669:/home/rdu/Workspace/project_templates/mcu/stm32_ws/src/libraries/STM32F4xx_StdPeriph_Driver/src/stm32f4xx_cryp_aes.c ****   */
 670:/home/rdu/Workspace/project_templates/mcu/stm32_ws/src/libraries/STM32F4xx_StdPeriph_Driver/src/stm32f4xx_cryp_aes.c **** ErrorStatus CRYP_AES_GCM(uint8_t Mode, uint8_t InitVectors[16],
 671:/home/rdu/Workspace/project_templates/mcu/stm32_ws/src/libraries/STM32F4xx_StdPeriph_Driver/src/stm32f4xx_cryp_aes.c ****                          uint8_t *Key, uint16_t Keysize,
 672:/home/rdu/Workspace/project_templates/mcu/stm32_ws/src/libraries/STM32F4xx_StdPeriph_Driver/src/stm32f4xx_cryp_aes.c ****                          uint8_t *Input, uint32_t ILength,
 673:/home/rdu/Workspace/project_templates/mcu/stm32_ws/src/libraries/STM32F4xx_StdPeriph_Driver/src/stm32f4xx_cryp_aes.c ****                          uint8_t *Header, uint32_t HLength,
 674:/home/rdu/Workspace/project_templates/mcu/stm32_ws/src/libraries/STM32F4xx_StdPeriph_Driver/src/stm32f4xx_cryp_aes.c ****                          uint8_t *Output, uint8_t *AuthTAG)
 675:/home/rdu/Workspace/project_templates/mcu/stm32_ws/src/libraries/STM32F4xx_StdPeriph_Driver/src/stm32f4xx_cryp_aes.c **** {
 1942              		.loc 1 675 0
 1943              		.cfi_startproc
 1944              		@ args = 24, pretend = 0, frame = 264
 1945              		@ frame_needed = 0, uses_anonymous_args = 0
 1946 0000 10B5     		push	{r4, lr}
 1947              	.LCFI9:
 1948              		.cfi_def_cfa_offset 8
 1949              		.cfi_offset 4, -8
 1950              		.cfi_offset 14, -4
 1951 0002 C2B0     		sub	sp, sp, #264
 1952              	.LCFI10:
 1953              		.cfi_def_cfa_offset 272
 1954 0004 0446     		mov	r4, r0
 1955 0006 02A8     		add	r0, sp, #8
 1956 0008 0160     		str	r1, [r0]
 1957 000a 01A9     		add	r1, sp, #4
 1958 000c 0A60     		str	r2, [r1]
 1959 000e 1A46     		mov	r2, r3
 1960 0010 2346     		mov	r3, r4
 1961 0012 8DF80F30 		strb	r3, [sp, #15]
 1962 0016 1346     		mov	r3, r2	@ movhi
 1963 0018 ADF80C30 		strh	r3, [sp, #12]	@ movhi
 676:/home/rdu/Workspace/project_templates/mcu/stm32_ws/src/libraries/STM32F4xx_StdPeriph_Driver/src/stm32f4xx_cryp_aes.c ****   CRYP_InitTypeDef AES_CRYP_InitStructure;
 677:/home/rdu/Workspace/project_templates/mcu/stm32_ws/src/libraries/STM32F4xx_StdPeriph_Driver/src/stm32f4xx_cryp_aes.c ****   CRYP_KeyInitTypeDef AES_CRYP_KeyInitStructure;
 678:/home/rdu/Workspace/project_templates/mcu/stm32_ws/src/libraries/STM32F4xx_StdPeriph_Driver/src/stm32f4xx_cryp_aes.c ****   CRYP_IVInitTypeDef AES_CRYP_IVInitStructure;
 679:/home/rdu/Workspace/project_templates/mcu/stm32_ws/src/libraries/STM32F4xx_StdPeriph_Driver/src/stm32f4xx_cryp_aes.c ****   __IO uint32_t counter = 0;
 1964              		.loc 1 679 0
 1965 001c 0023     		movs	r3, #0
 1966 001e 0593     		str	r3, [sp, #20]
 680:/home/rdu/Workspace/project_templates/mcu/stm32_ws/src/libraries/STM32F4xx_StdPeriph_Driver/src/stm32f4xx_cryp_aes.c ****   uint32_t busystatus = 0;
 1967              		.loc 1 680 0
 1968 0020 0023     		movs	r3, #0
 1969 0022 3C93     		str	r3, [sp, #240]
 681:/home/rdu/Workspace/project_templates/mcu/stm32_ws/src/libraries/STM32F4xx_StdPeriph_Driver/src/stm32f4xx_cryp_aes.c ****   ErrorStatus status = SUCCESS;
 1970              		.loc 1 681 0
 1971 0024 0123     		movs	r3, #1
 1972 0026 8DF80731 		strb	r3, [sp, #263]
 682:/home/rdu/Workspace/project_templates/mcu/stm32_ws/src/libraries/STM32F4xx_StdPeriph_Driver/src/stm32f4xx_cryp_aes.c ****   uint32_t keyaddr    = (uint32_t)Key;
 1973              		.loc 1 682 0
 1974 002a 01AB     		add	r3, sp, #4
 1975 002c 1B68     		ldr	r3, [r3]
 1976 002e 3B93     		str	r3, [sp, #236]
 683:/home/rdu/Workspace/project_templates/mcu/stm32_ws/src/libraries/STM32F4xx_StdPeriph_Driver/src/stm32f4xx_cryp_aes.c ****   uint32_t inputaddr  = (uint32_t)Input;
 1977              		.loc 1 683 0
 1978 0030 449B     		ldr	r3, [sp, #272]
 1979 0032 4093     		str	r3, [sp, #256]
 684:/home/rdu/Workspace/project_templates/mcu/stm32_ws/src/libraries/STM32F4xx_StdPeriph_Driver/src/stm32f4xx_cryp_aes.c ****   uint32_t outputaddr = (uint32_t)Output;
 1980              		.loc 1 684 0
 1981 0034 489B     		ldr	r3, [sp, #288]
 1982 0036 3F93     		str	r3, [sp, #252]
 685:/home/rdu/Workspace/project_templates/mcu/stm32_ws/src/libraries/STM32F4xx_StdPeriph_Driver/src/stm32f4xx_cryp_aes.c ****   uint32_t ivaddr     = (uint32_t)InitVectors;
 1983              		.loc 1 685 0
 1984 0038 02AB     		add	r3, sp, #8
 1985 003a 1B68     		ldr	r3, [r3]
 1986 003c 3A93     		str	r3, [sp, #232]
 686:/home/rdu/Workspace/project_templates/mcu/stm32_ws/src/libraries/STM32F4xx_StdPeriph_Driver/src/stm32f4xx_cryp_aes.c ****   uint32_t headeraddr = (uint32_t)Header;
 1987              		.loc 1 686 0
 1988 003e 469B     		ldr	r3, [sp, #280]
 1989 0040 3E93     		str	r3, [sp, #248]
 687:/home/rdu/Workspace/project_templates/mcu/stm32_ws/src/libraries/STM32F4xx_StdPeriph_Driver/src/stm32f4xx_cryp_aes.c ****   uint32_t tagaddr = (uint32_t)AuthTAG;
 1990              		.loc 1 687 0
 1991 0042 499B     		ldr	r3, [sp, #292]
 1992 0044 3993     		str	r3, [sp, #228]
 688:/home/rdu/Workspace/project_templates/mcu/stm32_ws/src/libraries/STM32F4xx_StdPeriph_Driver/src/stm32f4xx_cryp_aes.c ****   uint64_t headerlength = HLength * 8;/* header length in bits */
 1993              		.loc 1 688 0
 1994 0046 479B     		ldr	r3, [sp, #284]
 1995 0048 DB00     		lsls	r3, r3, #3
 1996 004a 4FF00004 		mov	r4, #0
 1997 004e CDE93634 		strd	r3, [sp, #216]
 689:/home/rdu/Workspace/project_templates/mcu/stm32_ws/src/libraries/STM32F4xx_StdPeriph_Driver/src/stm32f4xx_cryp_aes.c ****   uint64_t inputlength = ILength * 8;/* input length in bits */
 1998              		.loc 1 689 0
 1999 0052 459B     		ldr	r3, [sp, #276]
 2000 0054 DB00     		lsls	r3, r3, #3
 2001 0056 4FF00004 		mov	r4, #0
 2002 005a CDE93434 		strd	r3, [sp, #208]
 690:/home/rdu/Workspace/project_templates/mcu/stm32_ws/src/libraries/STM32F4xx_StdPeriph_Driver/src/stm32f4xx_cryp_aes.c ****   uint32_t loopcounter = 0;
 2003              		.loc 1 690 0
 2004 005e 0023     		movs	r3, #0
 2005 0060 3D93     		str	r3, [sp, #244]
 691:/home/rdu/Workspace/project_templates/mcu/stm32_ws/src/libraries/STM32F4xx_StdPeriph_Driver/src/stm32f4xx_cryp_aes.c **** 
 692:/home/rdu/Workspace/project_templates/mcu/stm32_ws/src/libraries/STM32F4xx_StdPeriph_Driver/src/stm32f4xx_cryp_aes.c ****   /* Crypto structures initialisation*/
 693:/home/rdu/Workspace/project_templates/mcu/stm32_ws/src/libraries/STM32F4xx_StdPeriph_Driver/src/stm32f4xx_cryp_aes.c ****   CRYP_KeyStructInit(&AES_CRYP_KeyInitStructure);
 2006              		.loc 1 693 0
 2007 0062 0AAB     		add	r3, sp, #40
 2008 0064 1846     		mov	r0, r3
 2009 0066 FFF7FEFF 		bl	CRYP_KeyStructInit
 694:/home/rdu/Workspace/project_templates/mcu/stm32_ws/src/libraries/STM32F4xx_StdPeriph_Driver/src/stm32f4xx_cryp_aes.c **** 
 695:/home/rdu/Workspace/project_templates/mcu/stm32_ws/src/libraries/STM32F4xx_StdPeriph_Driver/src/stm32f4xx_cryp_aes.c ****   switch(Keysize)
 2010              		.loc 1 695 0
 2011 006a BDF80C30 		ldrh	r3, [sp, #12]
 2012 006e C02B     		cmp	r3, #192
 2013 0070 29D0     		beq	.L127
 2014 0072 B3F5807F 		cmp	r3, #256
 2015 0076 5DD0     		beq	.L128
 2016 0078 802B     		cmp	r3, #128
 2017 007a 00D0     		beq	.L129
 696:/home/rdu/Workspace/project_templates/mcu/stm32_ws/src/libraries/STM32F4xx_StdPeriph_Driver/src/stm32f4xx_cryp_aes.c ****   {
 697:/home/rdu/Workspace/project_templates/mcu/stm32_ws/src/libraries/STM32F4xx_StdPeriph_Driver/src/stm32f4xx_cryp_aes.c ****     case 128:
 698:/home/rdu/Workspace/project_templates/mcu/stm32_ws/src/libraries/STM32F4xx_StdPeriph_Driver/src/stm32f4xx_cryp_aes.c ****     AES_CRYP_InitStructure.CRYP_KeySize = CRYP_KeySize_128b;
 699:/home/rdu/Workspace/project_templates/mcu/stm32_ws/src/libraries/STM32F4xx_StdPeriph_Driver/src/stm32f4xx_cryp_aes.c ****     AES_CRYP_KeyInitStructure.CRYP_Key2Left = __REV(*(uint32_t*)(keyaddr));
 700:/home/rdu/Workspace/project_templates/mcu/stm32_ws/src/libraries/STM32F4xx_StdPeriph_Driver/src/stm32f4xx_cryp_aes.c ****     keyaddr+=4;
 701:/home/rdu/Workspace/project_templates/mcu/stm32_ws/src/libraries/STM32F4xx_StdPeriph_Driver/src/stm32f4xx_cryp_aes.c ****     AES_CRYP_KeyInitStructure.CRYP_Key2Right= __REV(*(uint32_t*)(keyaddr));
 702:/home/rdu/Workspace/project_templates/mcu/stm32_ws/src/libraries/STM32F4xx_StdPeriph_Driver/src/stm32f4xx_cryp_aes.c ****     keyaddr+=4;
 703:/home/rdu/Workspace/project_templates/mcu/stm32_ws/src/libraries/STM32F4xx_StdPeriph_Driver/src/stm32f4xx_cryp_aes.c ****     AES_CRYP_KeyInitStructure.CRYP_Key3Left = __REV(*(uint32_t*)(keyaddr));
 704:/home/rdu/Workspace/project_templates/mcu/stm32_ws/src/libraries/STM32F4xx_StdPeriph_Driver/src/stm32f4xx_cryp_aes.c ****     keyaddr+=4;
 705:/home/rdu/Workspace/project_templates/mcu/stm32_ws/src/libraries/STM32F4xx_StdPeriph_Driver/src/stm32f4xx_cryp_aes.c ****     AES_CRYP_KeyInitStructure.CRYP_Key3Right= __REV(*(uint32_t*)(keyaddr));
 706:/home/rdu/Workspace/project_templates/mcu/stm32_ws/src/libraries/STM32F4xx_StdPeriph_Driver/src/stm32f4xx_cryp_aes.c ****     break;
 707:/home/rdu/Workspace/project_templates/mcu/stm32_ws/src/libraries/STM32F4xx_StdPeriph_Driver/src/stm32f4xx_cryp_aes.c ****     case 192:
 708:/home/rdu/Workspace/project_templates/mcu/stm32_ws/src/libraries/STM32F4xx_StdPeriph_Driver/src/stm32f4xx_cryp_aes.c ****     AES_CRYP_InitStructure.CRYP_KeySize  = CRYP_KeySize_192b;
 709:/home/rdu/Workspace/project_templates/mcu/stm32_ws/src/libraries/STM32F4xx_StdPeriph_Driver/src/stm32f4xx_cryp_aes.c ****     AES_CRYP_KeyInitStructure.CRYP_Key1Left = __REV(*(uint32_t*)(keyaddr));
 710:/home/rdu/Workspace/project_templates/mcu/stm32_ws/src/libraries/STM32F4xx_StdPeriph_Driver/src/stm32f4xx_cryp_aes.c ****     keyaddr+=4;
 711:/home/rdu/Workspace/project_templates/mcu/stm32_ws/src/libraries/STM32F4xx_StdPeriph_Driver/src/stm32f4xx_cryp_aes.c ****     AES_CRYP_KeyInitStructure.CRYP_Key1Right= __REV(*(uint32_t*)(keyaddr));
 712:/home/rdu/Workspace/project_templates/mcu/stm32_ws/src/libraries/STM32F4xx_StdPeriph_Driver/src/stm32f4xx_cryp_aes.c ****     keyaddr+=4;
 713:/home/rdu/Workspace/project_templates/mcu/stm32_ws/src/libraries/STM32F4xx_StdPeriph_Driver/src/stm32f4xx_cryp_aes.c ****     AES_CRYP_KeyInitStructure.CRYP_Key2Left = __REV(*(uint32_t*)(keyaddr));
 714:/home/rdu/Workspace/project_templates/mcu/stm32_ws/src/libraries/STM32F4xx_StdPeriph_Driver/src/stm32f4xx_cryp_aes.c ****     keyaddr+=4;
 715:/home/rdu/Workspace/project_templates/mcu/stm32_ws/src/libraries/STM32F4xx_StdPeriph_Driver/src/stm32f4xx_cryp_aes.c ****     AES_CRYP_KeyInitStructure.CRYP_Key2Right= __REV(*(uint32_t*)(keyaddr));
 716:/home/rdu/Workspace/project_templates/mcu/stm32_ws/src/libraries/STM32F4xx_StdPeriph_Driver/src/stm32f4xx_cryp_aes.c ****     keyaddr+=4;
 717:/home/rdu/Workspace/project_templates/mcu/stm32_ws/src/libraries/STM32F4xx_StdPeriph_Driver/src/stm32f4xx_cryp_aes.c ****     AES_CRYP_KeyInitStructure.CRYP_Key3Left = __REV(*(uint32_t*)(keyaddr));
 718:/home/rdu/Workspace/project_templates/mcu/stm32_ws/src/libraries/STM32F4xx_StdPeriph_Driver/src/stm32f4xx_cryp_aes.c ****     keyaddr+=4;
 719:/home/rdu/Workspace/project_templates/mcu/stm32_ws/src/libraries/STM32F4xx_StdPeriph_Driver/src/stm32f4xx_cryp_aes.c ****     AES_CRYP_KeyInitStructure.CRYP_Key3Right= __REV(*(uint32_t*)(keyaddr));
 720:/home/rdu/Workspace/project_templates/mcu/stm32_ws/src/libraries/STM32F4xx_StdPeriph_Driver/src/stm32f4xx_cryp_aes.c ****     break;
 721:/home/rdu/Workspace/project_templates/mcu/stm32_ws/src/libraries/STM32F4xx_StdPeriph_Driver/src/stm32f4xx_cryp_aes.c ****     case 256:
 722:/home/rdu/Workspace/project_templates/mcu/stm32_ws/src/libraries/STM32F4xx_StdPeriph_Driver/src/stm32f4xx_cryp_aes.c ****     AES_CRYP_InitStructure.CRYP_KeySize  = CRYP_KeySize_256b;
 723:/home/rdu/Workspace/project_templates/mcu/stm32_ws/src/libraries/STM32F4xx_StdPeriph_Driver/src/stm32f4xx_cryp_aes.c ****     AES_CRYP_KeyInitStructure.CRYP_Key0Left = __REV(*(uint32_t*)(keyaddr));
 724:/home/rdu/Workspace/project_templates/mcu/stm32_ws/src/libraries/STM32F4xx_StdPeriph_Driver/src/stm32f4xx_cryp_aes.c ****     keyaddr+=4;
 725:/home/rdu/Workspace/project_templates/mcu/stm32_ws/src/libraries/STM32F4xx_StdPeriph_Driver/src/stm32f4xx_cryp_aes.c ****     AES_CRYP_KeyInitStructure.CRYP_Key0Right= __REV(*(uint32_t*)(keyaddr));
 726:/home/rdu/Workspace/project_templates/mcu/stm32_ws/src/libraries/STM32F4xx_StdPeriph_Driver/src/stm32f4xx_cryp_aes.c ****     keyaddr+=4;
 727:/home/rdu/Workspace/project_templates/mcu/stm32_ws/src/libraries/STM32F4xx_StdPeriph_Driver/src/stm32f4xx_cryp_aes.c ****     AES_CRYP_KeyInitStructure.CRYP_Key1Left = __REV(*(uint32_t*)(keyaddr));
 728:/home/rdu/Workspace/project_templates/mcu/stm32_ws/src/libraries/STM32F4xx_StdPeriph_Driver/src/stm32f4xx_cryp_aes.c ****     keyaddr+=4;
 729:/home/rdu/Workspace/project_templates/mcu/stm32_ws/src/libraries/STM32F4xx_StdPeriph_Driver/src/stm32f4xx_cryp_aes.c ****     AES_CRYP_KeyInitStructure.CRYP_Key1Right= __REV(*(uint32_t*)(keyaddr));
 730:/home/rdu/Workspace/project_templates/mcu/stm32_ws/src/libraries/STM32F4xx_StdPeriph_Driver/src/stm32f4xx_cryp_aes.c ****     keyaddr+=4;
 731:/home/rdu/Workspace/project_templates/mcu/stm32_ws/src/libraries/STM32F4xx_StdPeriph_Driver/src/stm32f4xx_cryp_aes.c ****     AES_CRYP_KeyInitStructure.CRYP_Key2Left = __REV(*(uint32_t*)(keyaddr));
 732:/home/rdu/Workspace/project_templates/mcu/stm32_ws/src/libraries/STM32F4xx_StdPeriph_Driver/src/stm32f4xx_cryp_aes.c ****     keyaddr+=4;
 733:/home/rdu/Workspace/project_templates/mcu/stm32_ws/src/libraries/STM32F4xx_StdPeriph_Driver/src/stm32f4xx_cryp_aes.c ****     AES_CRYP_KeyInitStructure.CRYP_Key2Right= __REV(*(uint32_t*)(keyaddr));
 734:/home/rdu/Workspace/project_templates/mcu/stm32_ws/src/libraries/STM32F4xx_StdPeriph_Driver/src/stm32f4xx_cryp_aes.c ****     keyaddr+=4;
 735:/home/rdu/Workspace/project_templates/mcu/stm32_ws/src/libraries/STM32F4xx_StdPeriph_Driver/src/stm32f4xx_cryp_aes.c ****     AES_CRYP_KeyInitStructure.CRYP_Key3Left = __REV(*(uint32_t*)(keyaddr));
 736:/home/rdu/Workspace/project_templates/mcu/stm32_ws/src/libraries/STM32F4xx_StdPeriph_Driver/src/stm32f4xx_cryp_aes.c ****     keyaddr+=4;
 737:/home/rdu/Workspace/project_templates/mcu/stm32_ws/src/libraries/STM32F4xx_StdPeriph_Driver/src/stm32f4xx_cryp_aes.c ****     AES_CRYP_KeyInitStructure.CRYP_Key3Right= __REV(*(uint32_t*)(keyaddr));
 738:/home/rdu/Workspace/project_templates/mcu/stm32_ws/src/libraries/STM32F4xx_StdPeriph_Driver/src/stm32f4xx_cryp_aes.c ****     break;
 739:/home/rdu/Workspace/project_templates/mcu/stm32_ws/src/libraries/STM32F4xx_StdPeriph_Driver/src/stm32f4xx_cryp_aes.c ****     default:
 740:/home/rdu/Workspace/project_templates/mcu/stm32_ws/src/libraries/STM32F4xx_StdPeriph_Driver/src/stm32f4xx_cryp_aes.c ****     break;
 2018              		.loc 1 740 0
 2019 007c A3E0     		b	.L134
 2020              	.L129:
 698:/home/rdu/Workspace/project_templates/mcu/stm32_ws/src/libraries/STM32F4xx_StdPeriph_Driver/src/stm32f4xx_cryp_aes.c ****     AES_CRYP_KeyInitStructure.CRYP_Key2Left = __REV(*(uint32_t*)(keyaddr));
 2021              		.loc 1 698 0
 2022 007e 0023     		movs	r3, #0
 2023 0080 1593     		str	r3, [sp, #84]
 699:/home/rdu/Workspace/project_templates/mcu/stm32_ws/src/libraries/STM32F4xx_StdPeriph_Driver/src/stm32f4xx_cryp_aes.c ****     keyaddr+=4;
 2024              		.loc 1 699 0
 2025 0082 3B9B     		ldr	r3, [sp, #236]
 2026 0084 1B68     		ldr	r3, [r3]
 2027 0086 3093     		str	r3, [sp, #192]
 2028              	.LBB354:
 2029              	.LBB355:
 2030              		.loc 2 498 0
 2031 0088 309B     		ldr	r3, [sp, #192]
 2032 008a 1BBA     		rev	r3, r3
 2033              	.LBE355:
 2034              	.LBE354:
 699:/home/rdu/Workspace/project_templates/mcu/stm32_ws/src/libraries/STM32F4xx_StdPeriph_Driver/src/stm32f4xx_cryp_aes.c ****     keyaddr+=4;
 2035              		.loc 1 699 0
 2036 008c 0E93     		str	r3, [sp, #56]
 700:/home/rdu/Workspace/project_templates/mcu/stm32_ws/src/libraries/STM32F4xx_StdPeriph_Driver/src/stm32f4xx_cryp_aes.c ****     AES_CRYP_KeyInitStructure.CRYP_Key2Right= __REV(*(uint32_t*)(keyaddr));
 2037              		.loc 1 700 0
 2038 008e 3B9B     		ldr	r3, [sp, #236]
 2039 0090 0433     		adds	r3, r3, #4
 2040 0092 3B93     		str	r3, [sp, #236]
 701:/home/rdu/Workspace/project_templates/mcu/stm32_ws/src/libraries/STM32F4xx_StdPeriph_Driver/src/stm32f4xx_cryp_aes.c ****     keyaddr+=4;
 2041              		.loc 1 701 0
 2042 0094 3B9B     		ldr	r3, [sp, #236]
 2043 0096 1B68     		ldr	r3, [r3]
 2044 0098 3193     		str	r3, [sp, #196]
 2045              	.LBB356:
 2046              	.LBB357:
 2047              		.loc 2 498 0
 2048 009a 319B     		ldr	r3, [sp, #196]
 2049 009c 1BBA     		rev	r3, r3
 2050              	.LBE357:
 2051              	.LBE356:
 701:/home/rdu/Workspace/project_templates/mcu/stm32_ws/src/libraries/STM32F4xx_StdPeriph_Driver/src/stm32f4xx_cryp_aes.c ****     keyaddr+=4;
 2052              		.loc 1 701 0
 2053 009e 0F93     		str	r3, [sp, #60]
 702:/home/rdu/Workspace/project_templates/mcu/stm32_ws/src/libraries/STM32F4xx_StdPeriph_Driver/src/stm32f4xx_cryp_aes.c ****     AES_CRYP_KeyInitStructure.CRYP_Key3Left = __REV(*(uint32_t*)(keyaddr));
 2054              		.loc 1 702 0
 2055 00a0 3B9B     		ldr	r3, [sp, #236]
 2056 00a2 0433     		adds	r3, r3, #4
 2057 00a4 3B93     		str	r3, [sp, #236]
 703:/home/rdu/Workspace/project_templates/mcu/stm32_ws/src/libraries/STM32F4xx_StdPeriph_Driver/src/stm32f4xx_cryp_aes.c ****     keyaddr+=4;
 2058              		.loc 1 703 0
 2059 00a6 3B9B     		ldr	r3, [sp, #236]
 2060 00a8 1B68     		ldr	r3, [r3]
 2061 00aa 3293     		str	r3, [sp, #200]
 2062              	.LBB358:
 2063              	.LBB359:
 2064              		.loc 2 498 0
 2065 00ac 329B     		ldr	r3, [sp, #200]
 2066 00ae 1BBA     		rev	r3, r3
 2067              	.LBE359:
 2068              	.LBE358:
 703:/home/rdu/Workspace/project_templates/mcu/stm32_ws/src/libraries/STM32F4xx_StdPeriph_Driver/src/stm32f4xx_cryp_aes.c ****     keyaddr+=4;
 2069              		.loc 1 703 0
 2070 00b0 1093     		str	r3, [sp, #64]
 704:/home/rdu/Workspace/project_templates/mcu/stm32_ws/src/libraries/STM32F4xx_StdPeriph_Driver/src/stm32f4xx_cryp_aes.c ****     AES_CRYP_KeyInitStructure.CRYP_Key3Right= __REV(*(uint32_t*)(keyaddr));
 2071              		.loc 1 704 0
 2072 00b2 3B9B     		ldr	r3, [sp, #236]
 2073 00b4 0433     		adds	r3, r3, #4
 2074 00b6 3B93     		str	r3, [sp, #236]
 705:/home/rdu/Workspace/project_templates/mcu/stm32_ws/src/libraries/STM32F4xx_StdPeriph_Driver/src/stm32f4xx_cryp_aes.c ****     break;
 2075              		.loc 1 705 0
 2076 00b8 3B9B     		ldr	r3, [sp, #236]
 2077 00ba 1B68     		ldr	r3, [r3]
 2078 00bc 3393     		str	r3, [sp, #204]
 2079              	.LBB360:
 2080              	.LBB361:
 2081              		.loc 2 498 0
 2082 00be 339B     		ldr	r3, [sp, #204]
 2083 00c0 1BBA     		rev	r3, r3
 2084              	.LBE361:
 2085              	.LBE360:
 705:/home/rdu/Workspace/project_templates/mcu/stm32_ws/src/libraries/STM32F4xx_StdPeriph_Driver/src/stm32f4xx_cryp_aes.c ****     break;
 2086              		.loc 1 705 0
 2087 00c2 1193     		str	r3, [sp, #68]
 706:/home/rdu/Workspace/project_templates/mcu/stm32_ws/src/libraries/STM32F4xx_StdPeriph_Driver/src/stm32f4xx_cryp_aes.c ****     case 192:
 2088              		.loc 1 706 0
 2089 00c4 7FE0     		b	.L134
 2090              	.L127:
 708:/home/rdu/Workspace/project_templates/mcu/stm32_ws/src/libraries/STM32F4xx_StdPeriph_Driver/src/stm32f4xx_cryp_aes.c ****     AES_CRYP_KeyInitStructure.CRYP_Key1Left = __REV(*(uint32_t*)(keyaddr));
 2091              		.loc 1 708 0
 2092 00c6 4FF48073 		mov	r3, #256
 2093 00ca 1593     		str	r3, [sp, #84]
 709:/home/rdu/Workspace/project_templates/mcu/stm32_ws/src/libraries/STM32F4xx_StdPeriph_Driver/src/stm32f4xx_cryp_aes.c ****     keyaddr+=4;
 2094              		.loc 1 709 0
 2095 00cc 3B9B     		ldr	r3, [sp, #236]
 2096 00ce 1B68     		ldr	r3, [r3]
 2097 00d0 2A93     		str	r3, [sp, #168]
 2098              	.LBB362:
 2099              	.LBB363:
 2100              		.loc 2 498 0
 2101 00d2 2A9B     		ldr	r3, [sp, #168]
 2102 00d4 1BBA     		rev	r3, r3
 2103              	.LBE363:
 2104              	.LBE362:
 709:/home/rdu/Workspace/project_templates/mcu/stm32_ws/src/libraries/STM32F4xx_StdPeriph_Driver/src/stm32f4xx_cryp_aes.c ****     keyaddr+=4;
 2105              		.loc 1 709 0
 2106 00d6 0C93     		str	r3, [sp, #48]
 710:/home/rdu/Workspace/project_templates/mcu/stm32_ws/src/libraries/STM32F4xx_StdPeriph_Driver/src/stm32f4xx_cryp_aes.c ****     AES_CRYP_KeyInitStructure.CRYP_Key1Right= __REV(*(uint32_t*)(keyaddr));
 2107              		.loc 1 710 0
 2108 00d8 3B9B     		ldr	r3, [sp, #236]
 2109 00da 0433     		adds	r3, r3, #4
 2110 00dc 3B93     		str	r3, [sp, #236]
 711:/home/rdu/Workspace/project_templates/mcu/stm32_ws/src/libraries/STM32F4xx_StdPeriph_Driver/src/stm32f4xx_cryp_aes.c ****     keyaddr+=4;
 2111              		.loc 1 711 0
 2112 00de 3B9B     		ldr	r3, [sp, #236]
 2113 00e0 1B68     		ldr	r3, [r3]
 2114 00e2 2B93     		str	r3, [sp, #172]
 2115              	.LBB364:
 2116              	.LBB365:
 2117              		.loc 2 498 0
 2118 00e4 2B9B     		ldr	r3, [sp, #172]
 2119 00e6 1BBA     		rev	r3, r3
 2120              	.LBE365:
 2121              	.LBE364:
 711:/home/rdu/Workspace/project_templates/mcu/stm32_ws/src/libraries/STM32F4xx_StdPeriph_Driver/src/stm32f4xx_cryp_aes.c ****     keyaddr+=4;
 2122              		.loc 1 711 0
 2123 00e8 0D93     		str	r3, [sp, #52]
 712:/home/rdu/Workspace/project_templates/mcu/stm32_ws/src/libraries/STM32F4xx_StdPeriph_Driver/src/stm32f4xx_cryp_aes.c ****     AES_CRYP_KeyInitStructure.CRYP_Key2Left = __REV(*(uint32_t*)(keyaddr));
 2124              		.loc 1 712 0
 2125 00ea 3B9B     		ldr	r3, [sp, #236]
 2126 00ec 0433     		adds	r3, r3, #4
 2127 00ee 3B93     		str	r3, [sp, #236]
 713:/home/rdu/Workspace/project_templates/mcu/stm32_ws/src/libraries/STM32F4xx_StdPeriph_Driver/src/stm32f4xx_cryp_aes.c ****     keyaddr+=4;
 2128              		.loc 1 713 0
 2129 00f0 3B9B     		ldr	r3, [sp, #236]
 2130 00f2 1B68     		ldr	r3, [r3]
 2131 00f4 2C93     		str	r3, [sp, #176]
 2132              	.LBB366:
 2133              	.LBB367:
 2134              		.loc 2 498 0
 2135 00f6 2C9B     		ldr	r3, [sp, #176]
 2136 00f8 1BBA     		rev	r3, r3
 2137              	.LBE367:
 2138              	.LBE366:
 713:/home/rdu/Workspace/project_templates/mcu/stm32_ws/src/libraries/STM32F4xx_StdPeriph_Driver/src/stm32f4xx_cryp_aes.c ****     keyaddr+=4;
 2139              		.loc 1 713 0
 2140 00fa 0E93     		str	r3, [sp, #56]
 714:/home/rdu/Workspace/project_templates/mcu/stm32_ws/src/libraries/STM32F4xx_StdPeriph_Driver/src/stm32f4xx_cryp_aes.c ****     AES_CRYP_KeyInitStructure.CRYP_Key2Right= __REV(*(uint32_t*)(keyaddr));
 2141              		.loc 1 714 0
 2142 00fc 3B9B     		ldr	r3, [sp, #236]
 2143 00fe 0433     		adds	r3, r3, #4
 2144 0100 3B93     		str	r3, [sp, #236]
 715:/home/rdu/Workspace/project_templates/mcu/stm32_ws/src/libraries/STM32F4xx_StdPeriph_Driver/src/stm32f4xx_cryp_aes.c ****     keyaddr+=4;
 2145              		.loc 1 715 0
 2146 0102 3B9B     		ldr	r3, [sp, #236]
 2147 0104 1B68     		ldr	r3, [r3]
 2148 0106 2D93     		str	r3, [sp, #180]
 2149              	.LBB368:
 2150              	.LBB369:
 2151              		.loc 2 498 0
 2152 0108 2D9B     		ldr	r3, [sp, #180]
 2153 010a 1BBA     		rev	r3, r3
 2154              	.LBE369:
 2155              	.LBE368:
 715:/home/rdu/Workspace/project_templates/mcu/stm32_ws/src/libraries/STM32F4xx_StdPeriph_Driver/src/stm32f4xx_cryp_aes.c ****     keyaddr+=4;
 2156              		.loc 1 715 0
 2157 010c 0F93     		str	r3, [sp, #60]
 716:/home/rdu/Workspace/project_templates/mcu/stm32_ws/src/libraries/STM32F4xx_StdPeriph_Driver/src/stm32f4xx_cryp_aes.c ****     AES_CRYP_KeyInitStructure.CRYP_Key3Left = __REV(*(uint32_t*)(keyaddr));
 2158              		.loc 1 716 0
 2159 010e 3B9B     		ldr	r3, [sp, #236]
 2160 0110 0433     		adds	r3, r3, #4
 2161 0112 3B93     		str	r3, [sp, #236]
 717:/home/rdu/Workspace/project_templates/mcu/stm32_ws/src/libraries/STM32F4xx_StdPeriph_Driver/src/stm32f4xx_cryp_aes.c ****     keyaddr+=4;
 2162              		.loc 1 717 0
 2163 0114 3B9B     		ldr	r3, [sp, #236]
 2164 0116 1B68     		ldr	r3, [r3]
 2165 0118 2E93     		str	r3, [sp, #184]
 2166              	.LBB370:
 2167              	.LBB371:
 2168              		.loc 2 498 0
 2169 011a 2E9B     		ldr	r3, [sp, #184]
 2170 011c 1BBA     		rev	r3, r3
 2171              	.LBE371:
 2172              	.LBE370:
 717:/home/rdu/Workspace/project_templates/mcu/stm32_ws/src/libraries/STM32F4xx_StdPeriph_Driver/src/stm32f4xx_cryp_aes.c ****     keyaddr+=4;
 2173              		.loc 1 717 0
 2174 011e 1093     		str	r3, [sp, #64]
 718:/home/rdu/Workspace/project_templates/mcu/stm32_ws/src/libraries/STM32F4xx_StdPeriph_Driver/src/stm32f4xx_cryp_aes.c ****     AES_CRYP_KeyInitStructure.CRYP_Key3Right= __REV(*(uint32_t*)(keyaddr));
 2175              		.loc 1 718 0
 2176 0120 3B9B     		ldr	r3, [sp, #236]
 2177 0122 0433     		adds	r3, r3, #4
 2178 0124 3B93     		str	r3, [sp, #236]
 719:/home/rdu/Workspace/project_templates/mcu/stm32_ws/src/libraries/STM32F4xx_StdPeriph_Driver/src/stm32f4xx_cryp_aes.c ****     break;
 2179              		.loc 1 719 0
 2180 0126 3B9B     		ldr	r3, [sp, #236]
 2181 0128 1B68     		ldr	r3, [r3]
 2182 012a 2F93     		str	r3, [sp, #188]
 2183              	.LBB372:
 2184              	.LBB373:
 2185              		.loc 2 498 0
 2186 012c 2F9B     		ldr	r3, [sp, #188]
 2187 012e 1BBA     		rev	r3, r3
 2188              	.LBE373:
 2189              	.LBE372:
 719:/home/rdu/Workspace/project_templates/mcu/stm32_ws/src/libraries/STM32F4xx_StdPeriph_Driver/src/stm32f4xx_cryp_aes.c ****     break;
 2190              		.loc 1 719 0
 2191 0130 1193     		str	r3, [sp, #68]
 720:/home/rdu/Workspace/project_templates/mcu/stm32_ws/src/libraries/STM32F4xx_StdPeriph_Driver/src/stm32f4xx_cryp_aes.c ****     case 256:
 2192              		.loc 1 720 0
 2193 0132 48E0     		b	.L134
 2194              	.L128:
 722:/home/rdu/Workspace/project_templates/mcu/stm32_ws/src/libraries/STM32F4xx_StdPeriph_Driver/src/stm32f4xx_cryp_aes.c ****     AES_CRYP_KeyInitStructure.CRYP_Key0Left = __REV(*(uint32_t*)(keyaddr));
 2195              		.loc 1 722 0
 2196 0134 4FF40073 		mov	r3, #512
 2197 0138 1593     		str	r3, [sp, #84]
 723:/home/rdu/Workspace/project_templates/mcu/stm32_ws/src/libraries/STM32F4xx_StdPeriph_Driver/src/stm32f4xx_cryp_aes.c ****     keyaddr+=4;
 2198              		.loc 1 723 0
 2199 013a 3B9B     		ldr	r3, [sp, #236]
 2200 013c 1B68     		ldr	r3, [r3]
 2201 013e 2293     		str	r3, [sp, #136]
 2202              	.LBB374:
 2203              	.LBB375:
 2204              		.loc 2 498 0
 2205 0140 229B     		ldr	r3, [sp, #136]
 2206 0142 1BBA     		rev	r3, r3
 2207              	.LBE375:
 2208              	.LBE374:
 723:/home/rdu/Workspace/project_templates/mcu/stm32_ws/src/libraries/STM32F4xx_StdPeriph_Driver/src/stm32f4xx_cryp_aes.c ****     keyaddr+=4;
 2209              		.loc 1 723 0
 2210 0144 0A93     		str	r3, [sp, #40]
 724:/home/rdu/Workspace/project_templates/mcu/stm32_ws/src/libraries/STM32F4xx_StdPeriph_Driver/src/stm32f4xx_cryp_aes.c ****     AES_CRYP_KeyInitStructure.CRYP_Key0Right= __REV(*(uint32_t*)(keyaddr));
 2211              		.loc 1 724 0
 2212 0146 3B9B     		ldr	r3, [sp, #236]
 2213 0148 0433     		adds	r3, r3, #4
 2214 014a 3B93     		str	r3, [sp, #236]
 725:/home/rdu/Workspace/project_templates/mcu/stm32_ws/src/libraries/STM32F4xx_StdPeriph_Driver/src/stm32f4xx_cryp_aes.c ****     keyaddr+=4;
 2215              		.loc 1 725 0
 2216 014c 3B9B     		ldr	r3, [sp, #236]
 2217 014e 1B68     		ldr	r3, [r3]
 2218 0150 2393     		str	r3, [sp, #140]
 2219              	.LBB376:
 2220              	.LBB377:
 2221              		.loc 2 498 0
 2222 0152 239B     		ldr	r3, [sp, #140]
 2223 0154 1BBA     		rev	r3, r3
 2224              	.LBE377:
 2225              	.LBE376:
 725:/home/rdu/Workspace/project_templates/mcu/stm32_ws/src/libraries/STM32F4xx_StdPeriph_Driver/src/stm32f4xx_cryp_aes.c ****     keyaddr+=4;
 2226              		.loc 1 725 0
 2227 0156 0B93     		str	r3, [sp, #44]
 726:/home/rdu/Workspace/project_templates/mcu/stm32_ws/src/libraries/STM32F4xx_StdPeriph_Driver/src/stm32f4xx_cryp_aes.c ****     AES_CRYP_KeyInitStructure.CRYP_Key1Left = __REV(*(uint32_t*)(keyaddr));
 2228              		.loc 1 726 0
 2229 0158 3B9B     		ldr	r3, [sp, #236]
 2230 015a 0433     		adds	r3, r3, #4
 2231 015c 3B93     		str	r3, [sp, #236]
 727:/home/rdu/Workspace/project_templates/mcu/stm32_ws/src/libraries/STM32F4xx_StdPeriph_Driver/src/stm32f4xx_cryp_aes.c ****     keyaddr+=4;
 2232              		.loc 1 727 0
 2233 015e 3B9B     		ldr	r3, [sp, #236]
 2234 0160 1B68     		ldr	r3, [r3]
 2235 0162 2493     		str	r3, [sp, #144]
 2236              	.LBB378:
 2237              	.LBB379:
 2238              		.loc 2 498 0
 2239 0164 249B     		ldr	r3, [sp, #144]
 2240 0166 1BBA     		rev	r3, r3
 2241              	.LBE379:
 2242              	.LBE378:
 727:/home/rdu/Workspace/project_templates/mcu/stm32_ws/src/libraries/STM32F4xx_StdPeriph_Driver/src/stm32f4xx_cryp_aes.c ****     keyaddr+=4;
 2243              		.loc 1 727 0
 2244 0168 0C93     		str	r3, [sp, #48]
 728:/home/rdu/Workspace/project_templates/mcu/stm32_ws/src/libraries/STM32F4xx_StdPeriph_Driver/src/stm32f4xx_cryp_aes.c ****     AES_CRYP_KeyInitStructure.CRYP_Key1Right= __REV(*(uint32_t*)(keyaddr));
 2245              		.loc 1 728 0
 2246 016a 3B9B     		ldr	r3, [sp, #236]
 2247 016c 0433     		adds	r3, r3, #4
 2248 016e 3B93     		str	r3, [sp, #236]
 729:/home/rdu/Workspace/project_templates/mcu/stm32_ws/src/libraries/STM32F4xx_StdPeriph_Driver/src/stm32f4xx_cryp_aes.c ****     keyaddr+=4;
 2249              		.loc 1 729 0
 2250 0170 3B9B     		ldr	r3, [sp, #236]
 2251 0172 1B68     		ldr	r3, [r3]
 2252 0174 2593     		str	r3, [sp, #148]
 2253              	.LBB380:
 2254              	.LBB381:
 2255              		.loc 2 498 0
 2256 0176 259B     		ldr	r3, [sp, #148]
 2257 0178 1BBA     		rev	r3, r3
 2258              	.LBE381:
 2259              	.LBE380:
 729:/home/rdu/Workspace/project_templates/mcu/stm32_ws/src/libraries/STM32F4xx_StdPeriph_Driver/src/stm32f4xx_cryp_aes.c ****     keyaddr+=4;
 2260              		.loc 1 729 0
 2261 017a 0D93     		str	r3, [sp, #52]
 730:/home/rdu/Workspace/project_templates/mcu/stm32_ws/src/libraries/STM32F4xx_StdPeriph_Driver/src/stm32f4xx_cryp_aes.c ****     AES_CRYP_KeyInitStructure.CRYP_Key2Left = __REV(*(uint32_t*)(keyaddr));
 2262              		.loc 1 730 0
 2263 017c 3B9B     		ldr	r3, [sp, #236]
 2264 017e 0433     		adds	r3, r3, #4
 2265 0180 3B93     		str	r3, [sp, #236]
 731:/home/rdu/Workspace/project_templates/mcu/stm32_ws/src/libraries/STM32F4xx_StdPeriph_Driver/src/stm32f4xx_cryp_aes.c ****     keyaddr+=4;
 2266              		.loc 1 731 0
 2267 0182 3B9B     		ldr	r3, [sp, #236]
 2268 0184 1B68     		ldr	r3, [r3]
 2269 0186 2693     		str	r3, [sp, #152]
 2270              	.LBB382:
 2271              	.LBB383:
 2272              		.loc 2 498 0
 2273 0188 269B     		ldr	r3, [sp, #152]
 2274 018a 1BBA     		rev	r3, r3
 2275              	.LBE383:
 2276              	.LBE382:
 731:/home/rdu/Workspace/project_templates/mcu/stm32_ws/src/libraries/STM32F4xx_StdPeriph_Driver/src/stm32f4xx_cryp_aes.c ****     keyaddr+=4;
 2277              		.loc 1 731 0
 2278 018c 0E93     		str	r3, [sp, #56]
 732:/home/rdu/Workspace/project_templates/mcu/stm32_ws/src/libraries/STM32F4xx_StdPeriph_Driver/src/stm32f4xx_cryp_aes.c ****     AES_CRYP_KeyInitStructure.CRYP_Key2Right= __REV(*(uint32_t*)(keyaddr));
 2279              		.loc 1 732 0
 2280 018e 3B9B     		ldr	r3, [sp, #236]
 2281 0190 0433     		adds	r3, r3, #4
 2282 0192 3B93     		str	r3, [sp, #236]
 733:/home/rdu/Workspace/project_templates/mcu/stm32_ws/src/libraries/STM32F4xx_StdPeriph_Driver/src/stm32f4xx_cryp_aes.c ****     keyaddr+=4;
 2283              		.loc 1 733 0
 2284 0194 3B9B     		ldr	r3, [sp, #236]
 2285 0196 1B68     		ldr	r3, [r3]
 2286 0198 2793     		str	r3, [sp, #156]
 2287              	.LBB384:
 2288              	.LBB385:
 2289              		.loc 2 498 0
 2290 019a 279B     		ldr	r3, [sp, #156]
 2291 019c 1BBA     		rev	r3, r3
 2292              	.LBE385:
 2293              	.LBE384:
 733:/home/rdu/Workspace/project_templates/mcu/stm32_ws/src/libraries/STM32F4xx_StdPeriph_Driver/src/stm32f4xx_cryp_aes.c ****     keyaddr+=4;
 2294              		.loc 1 733 0
 2295 019e 0F93     		str	r3, [sp, #60]
 734:/home/rdu/Workspace/project_templates/mcu/stm32_ws/src/libraries/STM32F4xx_StdPeriph_Driver/src/stm32f4xx_cryp_aes.c ****     AES_CRYP_KeyInitStructure.CRYP_Key3Left = __REV(*(uint32_t*)(keyaddr));
 2296              		.loc 1 734 0
 2297 01a0 3B9B     		ldr	r3, [sp, #236]
 2298 01a2 0433     		adds	r3, r3, #4
 2299 01a4 3B93     		str	r3, [sp, #236]
 735:/home/rdu/Workspace/project_templates/mcu/stm32_ws/src/libraries/STM32F4xx_StdPeriph_Driver/src/stm32f4xx_cryp_aes.c ****     keyaddr+=4;
 2300              		.loc 1 735 0
 2301 01a6 3B9B     		ldr	r3, [sp, #236]
 2302 01a8 1B68     		ldr	r3, [r3]
 2303 01aa 2893     		str	r3, [sp, #160]
 2304              	.LBB386:
 2305              	.LBB387:
 2306              		.loc 2 498 0
 2307 01ac 289B     		ldr	r3, [sp, #160]
 2308 01ae 1BBA     		rev	r3, r3
 2309              	.LBE387:
 2310              	.LBE386:
 735:/home/rdu/Workspace/project_templates/mcu/stm32_ws/src/libraries/STM32F4xx_StdPeriph_Driver/src/stm32f4xx_cryp_aes.c ****     keyaddr+=4;
 2311              		.loc 1 735 0
 2312 01b0 1093     		str	r3, [sp, #64]
 736:/home/rdu/Workspace/project_templates/mcu/stm32_ws/src/libraries/STM32F4xx_StdPeriph_Driver/src/stm32f4xx_cryp_aes.c ****     AES_CRYP_KeyInitStructure.CRYP_Key3Right= __REV(*(uint32_t*)(keyaddr));
 2313              		.loc 1 736 0
 2314 01b2 3B9B     		ldr	r3, [sp, #236]
 2315 01b4 0433     		adds	r3, r3, #4
 2316 01b6 3B93     		str	r3, [sp, #236]
 737:/home/rdu/Workspace/project_templates/mcu/stm32_ws/src/libraries/STM32F4xx_StdPeriph_Driver/src/stm32f4xx_cryp_aes.c ****     break;
 2317              		.loc 1 737 0
 2318 01b8 3B9B     		ldr	r3, [sp, #236]
 2319 01ba 1B68     		ldr	r3, [r3]
 2320 01bc 2993     		str	r3, [sp, #164]
 2321              	.LBB388:
 2322              	.LBB389:
 2323              		.loc 2 498 0
 2324 01be 299B     		ldr	r3, [sp, #164]
 2325 01c0 1BBA     		rev	r3, r3
 2326              	.LBE389:
 2327              	.LBE388:
 737:/home/rdu/Workspace/project_templates/mcu/stm32_ws/src/libraries/STM32F4xx_StdPeriph_Driver/src/stm32f4xx_cryp_aes.c ****     break;
 2328              		.loc 1 737 0
 2329 01c2 1193     		str	r3, [sp, #68]
 738:/home/rdu/Workspace/project_templates/mcu/stm32_ws/src/libraries/STM32F4xx_StdPeriph_Driver/src/stm32f4xx_cryp_aes.c ****     default:
 2330              		.loc 1 738 0
 2331 01c4 00BF     		nop
 2332              	.L134:
 741:/home/rdu/Workspace/project_templates/mcu/stm32_ws/src/libraries/STM32F4xx_StdPeriph_Driver/src/stm32f4xx_cryp_aes.c ****   }
 742:/home/rdu/Workspace/project_templates/mcu/stm32_ws/src/libraries/STM32F4xx_StdPeriph_Driver/src/stm32f4xx_cryp_aes.c ****   
 743:/home/rdu/Workspace/project_templates/mcu/stm32_ws/src/libraries/STM32F4xx_StdPeriph_Driver/src/stm32f4xx_cryp_aes.c ****   /* CRYP Initialization Vectors */
 744:/home/rdu/Workspace/project_templates/mcu/stm32_ws/src/libraries/STM32F4xx_StdPeriph_Driver/src/stm32f4xx_cryp_aes.c ****   AES_CRYP_IVInitStructure.CRYP_IV0Left = __REV(*(uint32_t*)(ivaddr));
 2333              		.loc 1 744 0
 2334 01c6 3A9B     		ldr	r3, [sp, #232]
 2335 01c8 1B68     		ldr	r3, [r3]
 2336 01ca 1E93     		str	r3, [sp, #120]
 2337              	.LBB390:
 2338              	.LBB391:
 2339              		.loc 2 498 0
 2340 01cc 1E9B     		ldr	r3, [sp, #120]
 2341 01ce 1BBA     		rev	r3, r3
 2342              	.LBE391:
 2343              	.LBE390:
 2344              		.loc 1 744 0
 2345 01d0 0693     		str	r3, [sp, #24]
 745:/home/rdu/Workspace/project_templates/mcu/stm32_ws/src/libraries/STM32F4xx_StdPeriph_Driver/src/stm32f4xx_cryp_aes.c ****   ivaddr+=4;
 2346              		.loc 1 745 0
 2347 01d2 3A9B     		ldr	r3, [sp, #232]
 2348 01d4 0433     		adds	r3, r3, #4
 2349 01d6 3A93     		str	r3, [sp, #232]
 746:/home/rdu/Workspace/project_templates/mcu/stm32_ws/src/libraries/STM32F4xx_StdPeriph_Driver/src/stm32f4xx_cryp_aes.c ****   AES_CRYP_IVInitStructure.CRYP_IV0Right= __REV(*(uint32_t*)(ivaddr));
 2350              		.loc 1 746 0
 2351 01d8 3A9B     		ldr	r3, [sp, #232]
 2352 01da 1B68     		ldr	r3, [r3]
 2353 01dc 1F93     		str	r3, [sp, #124]
 2354              	.LBB392:
 2355              	.LBB393:
 2356              		.loc 2 498 0
 2357 01de 1F9B     		ldr	r3, [sp, #124]
 2358 01e0 1BBA     		rev	r3, r3
 2359              	.LBE393:
 2360              	.LBE392:
 2361              		.loc 1 746 0
 2362 01e2 0793     		str	r3, [sp, #28]
 747:/home/rdu/Workspace/project_templates/mcu/stm32_ws/src/libraries/STM32F4xx_StdPeriph_Driver/src/stm32f4xx_cryp_aes.c ****   ivaddr+=4;
 2363              		.loc 1 747 0
 2364 01e4 3A9B     		ldr	r3, [sp, #232]
 2365 01e6 0433     		adds	r3, r3, #4
 2366 01e8 3A93     		str	r3, [sp, #232]
 748:/home/rdu/Workspace/project_templates/mcu/stm32_ws/src/libraries/STM32F4xx_StdPeriph_Driver/src/stm32f4xx_cryp_aes.c ****   AES_CRYP_IVInitStructure.CRYP_IV1Left = __REV(*(uint32_t*)(ivaddr));
 2367              		.loc 1 748 0
 2368 01ea 3A9B     		ldr	r3, [sp, #232]
 2369 01ec 1B68     		ldr	r3, [r3]
 2370 01ee 2093     		str	r3, [sp, #128]
 2371              	.LBB394:
 2372              	.LBB395:
 2373              		.loc 2 498 0
 2374 01f0 209B     		ldr	r3, [sp, #128]
 2375 01f2 1BBA     		rev	r3, r3
 2376              	.LBE395:
 2377              	.LBE394:
 2378              		.loc 1 748 0
 2379 01f4 0893     		str	r3, [sp, #32]
 749:/home/rdu/Workspace/project_templates/mcu/stm32_ws/src/libraries/STM32F4xx_StdPeriph_Driver/src/stm32f4xx_cryp_aes.c ****   ivaddr+=4;
 2380              		.loc 1 749 0
 2381 01f6 3A9B     		ldr	r3, [sp, #232]
 2382 01f8 0433     		adds	r3, r3, #4
 2383 01fa 3A93     		str	r3, [sp, #232]
 750:/home/rdu/Workspace/project_templates/mcu/stm32_ws/src/libraries/STM32F4xx_StdPeriph_Driver/src/stm32f4xx_cryp_aes.c ****   AES_CRYP_IVInitStructure.CRYP_IV1Right= __REV(*(uint32_t*)(ivaddr));
 2384              		.loc 1 750 0
 2385 01fc 3A9B     		ldr	r3, [sp, #232]
 2386 01fe 1B68     		ldr	r3, [r3]
 2387 0200 2193     		str	r3, [sp, #132]
 2388              	.LBB396:
 2389              	.LBB397:
 2390              		.loc 2 498 0
 2391 0202 219B     		ldr	r3, [sp, #132]
 2392 0204 1BBA     		rev	r3, r3
 2393              	.LBE397:
 2394              	.LBE396:
 2395              		.loc 1 750 0
 2396 0206 0993     		str	r3, [sp, #36]
 751:/home/rdu/Workspace/project_templates/mcu/stm32_ws/src/libraries/STM32F4xx_StdPeriph_Driver/src/stm32f4xx_cryp_aes.c ****   
 752:/home/rdu/Workspace/project_templates/mcu/stm32_ws/src/libraries/STM32F4xx_StdPeriph_Driver/src/stm32f4xx_cryp_aes.c ****   /*------------------ AES Encryption ------------------*/
 753:/home/rdu/Workspace/project_templates/mcu/stm32_ws/src/libraries/STM32F4xx_StdPeriph_Driver/src/stm32f4xx_cryp_aes.c ****   if(Mode == MODE_ENCRYPT) /* AES encryption */
 2397              		.loc 1 753 0
 2398 0208 9DF80F30 		ldrb	r3, [sp, #15]	@ zero_extendqisi2
 2399 020c 012B     		cmp	r3, #1
 2400 020e 40F06281 		bne	.L153
 754:/home/rdu/Workspace/project_templates/mcu/stm32_ws/src/libraries/STM32F4xx_StdPeriph_Driver/src/stm32f4xx_cryp_aes.c ****   {
 755:/home/rdu/Workspace/project_templates/mcu/stm32_ws/src/libraries/STM32F4xx_StdPeriph_Driver/src/stm32f4xx_cryp_aes.c ****     /* Flush IN/OUT FIFOs */
 756:/home/rdu/Workspace/project_templates/mcu/stm32_ws/src/libraries/STM32F4xx_StdPeriph_Driver/src/stm32f4xx_cryp_aes.c ****     CRYP_FIFOFlush();
 2401              		.loc 1 756 0
 2402 0212 FFF7FEFF 		bl	CRYP_FIFOFlush
 757:/home/rdu/Workspace/project_templates/mcu/stm32_ws/src/libraries/STM32F4xx_StdPeriph_Driver/src/stm32f4xx_cryp_aes.c ****     
 758:/home/rdu/Workspace/project_templates/mcu/stm32_ws/src/libraries/STM32F4xx_StdPeriph_Driver/src/stm32f4xx_cryp_aes.c ****     /* Key Initialisation */
 759:/home/rdu/Workspace/project_templates/mcu/stm32_ws/src/libraries/STM32F4xx_StdPeriph_Driver/src/stm32f4xx_cryp_aes.c ****     CRYP_KeyInit(&AES_CRYP_KeyInitStructure);
 2403              		.loc 1 759 0
 2404 0216 0AAB     		add	r3, sp, #40
 2405 0218 1846     		mov	r0, r3
 2406 021a FFF7FEFF 		bl	CRYP_KeyInit
 760:/home/rdu/Workspace/project_templates/mcu/stm32_ws/src/libraries/STM32F4xx_StdPeriph_Driver/src/stm32f4xx_cryp_aes.c ****     
 761:/home/rdu/Workspace/project_templates/mcu/stm32_ws/src/libraries/STM32F4xx_StdPeriph_Driver/src/stm32f4xx_cryp_aes.c ****     /* CRYP Initialization Vectors */
 762:/home/rdu/Workspace/project_templates/mcu/stm32_ws/src/libraries/STM32F4xx_StdPeriph_Driver/src/stm32f4xx_cryp_aes.c ****     CRYP_IVInit(&AES_CRYP_IVInitStructure);
 2407              		.loc 1 762 0
 2408 021e 06AB     		add	r3, sp, #24
 2409 0220 1846     		mov	r0, r3
 2410 0222 FFF7FEFF 		bl	CRYP_IVInit
 763:/home/rdu/Workspace/project_templates/mcu/stm32_ws/src/libraries/STM32F4xx_StdPeriph_Driver/src/stm32f4xx_cryp_aes.c ****     
 764:/home/rdu/Workspace/project_templates/mcu/stm32_ws/src/libraries/STM32F4xx_StdPeriph_Driver/src/stm32f4xx_cryp_aes.c ****     /* Crypto Init for Key preparation for decryption process */
 765:/home/rdu/Workspace/project_templates/mcu/stm32_ws/src/libraries/STM32F4xx_StdPeriph_Driver/src/stm32f4xx_cryp_aes.c ****     AES_CRYP_InitStructure.CRYP_AlgoDir = CRYP_AlgoDir_Encrypt;
 2411              		.loc 1 765 0
 2412 0226 0023     		movs	r3, #0
 2413 0228 1293     		str	r3, [sp, #72]
 766:/home/rdu/Workspace/project_templates/mcu/stm32_ws/src/libraries/STM32F4xx_StdPeriph_Driver/src/stm32f4xx_cryp_aes.c ****     AES_CRYP_InitStructure.CRYP_AlgoMode = CRYP_AlgoMode_AES_GCM;
 2414              		.loc 1 766 0
 2415 022a 4FF40023 		mov	r3, #524288
 2416 022e 1393     		str	r3, [sp, #76]
 767:/home/rdu/Workspace/project_templates/mcu/stm32_ws/src/libraries/STM32F4xx_StdPeriph_Driver/src/stm32f4xx_cryp_aes.c ****     AES_CRYP_InitStructure.CRYP_DataType = CRYP_DataType_8b;
 2417              		.loc 1 767 0
 2418 0230 8023     		movs	r3, #128
 2419 0232 1493     		str	r3, [sp, #80]
 768:/home/rdu/Workspace/project_templates/mcu/stm32_ws/src/libraries/STM32F4xx_StdPeriph_Driver/src/stm32f4xx_cryp_aes.c ****     CRYP_Init(&AES_CRYP_InitStructure);
 2420              		.loc 1 768 0
 2421 0234 12AB     		add	r3, sp, #72
 2422 0236 1846     		mov	r0, r3
 2423 0238 FFF7FEFF 		bl	CRYP_Init
 769:/home/rdu/Workspace/project_templates/mcu/stm32_ws/src/libraries/STM32F4xx_StdPeriph_Driver/src/stm32f4xx_cryp_aes.c ****     
 770:/home/rdu/Workspace/project_templates/mcu/stm32_ws/src/libraries/STM32F4xx_StdPeriph_Driver/src/stm32f4xx_cryp_aes.c ****     /***************************** Init phase *********************************/
 771:/home/rdu/Workspace/project_templates/mcu/stm32_ws/src/libraries/STM32F4xx_StdPeriph_Driver/src/stm32f4xx_cryp_aes.c ****     /* Select init phase */
 772:/home/rdu/Workspace/project_templates/mcu/stm32_ws/src/libraries/STM32F4xx_StdPeriph_Driver/src/stm32f4xx_cryp_aes.c ****     CRYP_PhaseConfig(CRYP_Phase_Init);
 2424              		.loc 1 772 0
 2425 023c 0020     		movs	r0, #0
 2426 023e FFF7FEFF 		bl	CRYP_PhaseConfig
 773:/home/rdu/Workspace/project_templates/mcu/stm32_ws/src/libraries/STM32F4xx_StdPeriph_Driver/src/stm32f4xx_cryp_aes.c ****     
 774:/home/rdu/Workspace/project_templates/mcu/stm32_ws/src/libraries/STM32F4xx_StdPeriph_Driver/src/stm32f4xx_cryp_aes.c ****     /* Enable Crypto processor */
 775:/home/rdu/Workspace/project_templates/mcu/stm32_ws/src/libraries/STM32F4xx_StdPeriph_Driver/src/stm32f4xx_cryp_aes.c ****     CRYP_Cmd(ENABLE);
 2427              		.loc 1 775 0
 2428 0242 0120     		movs	r0, #1
 2429 0244 FFF7FEFF 		bl	CRYP_Cmd
 776:/home/rdu/Workspace/project_templates/mcu/stm32_ws/src/libraries/STM32F4xx_StdPeriph_Driver/src/stm32f4xx_cryp_aes.c ****     
 777:/home/rdu/Workspace/project_templates/mcu/stm32_ws/src/libraries/STM32F4xx_StdPeriph_Driver/src/stm32f4xx_cryp_aes.c ****     /* Wait for CRYPEN bit to be 0 */
 778:/home/rdu/Workspace/project_templates/mcu/stm32_ws/src/libraries/STM32F4xx_StdPeriph_Driver/src/stm32f4xx_cryp_aes.c ****     while(CRYP_GetCmdStatus() == ENABLE)
 2430              		.loc 1 778 0
 2431 0248 00BF     		nop
 2432              	.L154:
 2433              		.loc 1 778 0 is_stmt 0 discriminator 1
 2434 024a FFF7FEFF 		bl	CRYP_GetCmdStatus
 2435 024e 0346     		mov	r3, r0
 2436 0250 012B     		cmp	r3, #1
 2437 0252 FAD0     		beq	.L154
 779:/home/rdu/Workspace/project_templates/mcu/stm32_ws/src/libraries/STM32F4xx_StdPeriph_Driver/src/stm32f4xx_cryp_aes.c ****     {
 780:/home/rdu/Workspace/project_templates/mcu/stm32_ws/src/libraries/STM32F4xx_StdPeriph_Driver/src/stm32f4xx_cryp_aes.c ****     }
 781:/home/rdu/Workspace/project_templates/mcu/stm32_ws/src/libraries/STM32F4xx_StdPeriph_Driver/src/stm32f4xx_cryp_aes.c ****     
 782:/home/rdu/Workspace/project_templates/mcu/stm32_ws/src/libraries/STM32F4xx_StdPeriph_Driver/src/stm32f4xx_cryp_aes.c ****     /***************************** header phase *******************************/
 783:/home/rdu/Workspace/project_templates/mcu/stm32_ws/src/libraries/STM32F4xx_StdPeriph_Driver/src/stm32f4xx_cryp_aes.c ****     if(HLength != 0)
 2438              		.loc 1 783 0 is_stmt 1
 2439 0254 479B     		ldr	r3, [sp, #284]
 2440 0256 002B     		cmp	r3, #0
 2441 0258 55D0     		beq	.L155
 784:/home/rdu/Workspace/project_templates/mcu/stm32_ws/src/libraries/STM32F4xx_StdPeriph_Driver/src/stm32f4xx_cryp_aes.c ****     {
 785:/home/rdu/Workspace/project_templates/mcu/stm32_ws/src/libraries/STM32F4xx_StdPeriph_Driver/src/stm32f4xx_cryp_aes.c ****       /* Select header phase */
 786:/home/rdu/Workspace/project_templates/mcu/stm32_ws/src/libraries/STM32F4xx_StdPeriph_Driver/src/stm32f4xx_cryp_aes.c ****       CRYP_PhaseConfig(CRYP_Phase_Header);
 2442              		.loc 1 786 0
 2443 025a 4FF48030 		mov	r0, #65536
 2444 025e FFF7FEFF 		bl	CRYP_PhaseConfig
 787:/home/rdu/Workspace/project_templates/mcu/stm32_ws/src/libraries/STM32F4xx_StdPeriph_Driver/src/stm32f4xx_cryp_aes.c ****       
 788:/home/rdu/Workspace/project_templates/mcu/stm32_ws/src/libraries/STM32F4xx_StdPeriph_Driver/src/stm32f4xx_cryp_aes.c ****       /* Enable Crypto processor */
 789:/home/rdu/Workspace/project_templates/mcu/stm32_ws/src/libraries/STM32F4xx_StdPeriph_Driver/src/stm32f4xx_cryp_aes.c ****       CRYP_Cmd(ENABLE);
 2445              		.loc 1 789 0
 2446 0262 0120     		movs	r0, #1
 2447 0264 FFF7FEFF 		bl	CRYP_Cmd
 790:/home/rdu/Workspace/project_templates/mcu/stm32_ws/src/libraries/STM32F4xx_StdPeriph_Driver/src/stm32f4xx_cryp_aes.c ****       
 791:/home/rdu/Workspace/project_templates/mcu/stm32_ws/src/libraries/STM32F4xx_StdPeriph_Driver/src/stm32f4xx_cryp_aes.c ****       if(CRYP_GetCmdStatus() == DISABLE)
 2448              		.loc 1 791 0
 2449 0268 FFF7FEFF 		bl	CRYP_GetCmdStatus
 2450 026c 0346     		mov	r3, r0
 2451 026e 002B     		cmp	r3, #0
 2452 0270 01D1     		bne	.L156
 792:/home/rdu/Workspace/project_templates/mcu/stm32_ws/src/libraries/STM32F4xx_StdPeriph_Driver/src/stm32f4xx_cryp_aes.c ****       {
 793:/home/rdu/Workspace/project_templates/mcu/stm32_ws/src/libraries/STM32F4xx_StdPeriph_Driver/src/stm32f4xx_cryp_aes.c ****          /* The CRYP peripheral clock is not enabled or the device doesn't embed 
 794:/home/rdu/Workspace/project_templates/mcu/stm32_ws/src/libraries/STM32F4xx_StdPeriph_Driver/src/stm32f4xx_cryp_aes.c ****             the CRYP peripheral (please check the device sales type. */
 795:/home/rdu/Workspace/project_templates/mcu/stm32_ws/src/libraries/STM32F4xx_StdPeriph_Driver/src/stm32f4xx_cryp_aes.c ****          return(ERROR);
 2453              		.loc 1 795 0
 2454 0272 0023     		movs	r3, #0
 2455 0274 95E2     		b	.L204
 2456              	.L156:
 796:/home/rdu/Workspace/project_templates/mcu/stm32_ws/src/libraries/STM32F4xx_StdPeriph_Driver/src/stm32f4xx_cryp_aes.c ****       }
 797:/home/rdu/Workspace/project_templates/mcu/stm32_ws/src/libraries/STM32F4xx_StdPeriph_Driver/src/stm32f4xx_cryp_aes.c ****       
 798:/home/rdu/Workspace/project_templates/mcu/stm32_ws/src/libraries/STM32F4xx_StdPeriph_Driver/src/stm32f4xx_cryp_aes.c ****       for(loopcounter = 0; (loopcounter < HLength); loopcounter+=16)
 2457              		.loc 1 798 0
 2458 0276 0023     		movs	r3, #0
 2459 0278 3D93     		str	r3, [sp, #244]
 2460 027a 29E0     		b	.L158
 2461              	.L160:
 799:/home/rdu/Workspace/project_templates/mcu/stm32_ws/src/libraries/STM32F4xx_StdPeriph_Driver/src/stm32f4xx_cryp_aes.c ****       {
 800:/home/rdu/Workspace/project_templates/mcu/stm32_ws/src/libraries/STM32F4xx_StdPeriph_Driver/src/stm32f4xx_cryp_aes.c ****         /* Wait until the IFEM flag is reset */
 801:/home/rdu/Workspace/project_templates/mcu/stm32_ws/src/libraries/STM32F4xx_StdPeriph_Driver/src/stm32f4xx_cryp_aes.c ****         while(CRYP_GetFlagStatus(CRYP_FLAG_IFEM) == RESET)
 2462              		.loc 1 801 0
 2463 027c 00BF     		nop
 2464              	.L159:
 2465              		.loc 1 801 0 is_stmt 0 discriminator 1
 2466 027e 0120     		movs	r0, #1
 2467 0280 FFF7FEFF 		bl	CRYP_GetFlagStatus
 2468 0284 0346     		mov	r3, r0
 2469 0286 002B     		cmp	r3, #0
 2470 0288 F9D0     		beq	.L159
 802:/home/rdu/Workspace/project_templates/mcu/stm32_ws/src/libraries/STM32F4xx_StdPeriph_Driver/src/stm32f4xx_cryp_aes.c ****         {
 803:/home/rdu/Workspace/project_templates/mcu/stm32_ws/src/libraries/STM32F4xx_StdPeriph_Driver/src/stm32f4xx_cryp_aes.c ****         }
 804:/home/rdu/Workspace/project_templates/mcu/stm32_ws/src/libraries/STM32F4xx_StdPeriph_Driver/src/stm32f4xx_cryp_aes.c ****         
 805:/home/rdu/Workspace/project_templates/mcu/stm32_ws/src/libraries/STM32F4xx_StdPeriph_Driver/src/stm32f4xx_cryp_aes.c ****         /* Write the Input block in the IN FIFO */
 806:/home/rdu/Workspace/project_templates/mcu/stm32_ws/src/libraries/STM32F4xx_StdPeriph_Driver/src/stm32f4xx_cryp_aes.c ****         CRYP_DataIn(*(uint32_t*)(headeraddr));
 2471              		.loc 1 806 0 is_stmt 1 discriminator 2
 2472 028a 3E9B     		ldr	r3, [sp, #248]
 2473 028c 1B68     		ldr	r3, [r3]
 2474 028e 1846     		mov	r0, r3
 2475 0290 FFF7FEFF 		bl	CRYP_DataIn
 807:/home/rdu/Workspace/project_templates/mcu/stm32_ws/src/libraries/STM32F4xx_StdPeriph_Driver/src/stm32f4xx_cryp_aes.c ****         headeraddr+=4;
 2476              		.loc 1 807 0 discriminator 2
 2477 0294 3E9B     		ldr	r3, [sp, #248]
 2478 0296 0433     		adds	r3, r3, #4
 2479 0298 3E93     		str	r3, [sp, #248]
 808:/home/rdu/Workspace/project_templates/mcu/stm32_ws/src/libraries/STM32F4xx_StdPeriph_Driver/src/stm32f4xx_cryp_aes.c ****         CRYP_DataIn(*(uint32_t*)(headeraddr));
 2480              		.loc 1 808 0 discriminator 2
 2481 029a 3E9B     		ldr	r3, [sp, #248]
 2482 029c 1B68     		ldr	r3, [r3]
 2483 029e 1846     		mov	r0, r3
 2484 02a0 FFF7FEFF 		bl	CRYP_DataIn
 809:/home/rdu/Workspace/project_templates/mcu/stm32_ws/src/libraries/STM32F4xx_StdPeriph_Driver/src/stm32f4xx_cryp_aes.c ****         headeraddr+=4;
 2485              		.loc 1 809 0 discriminator 2
 2486 02a4 3E9B     		ldr	r3, [sp, #248]
 2487 02a6 0433     		adds	r3, r3, #4
 2488 02a8 3E93     		str	r3, [sp, #248]
 810:/home/rdu/Workspace/project_templates/mcu/stm32_ws/src/libraries/STM32F4xx_StdPeriph_Driver/src/stm32f4xx_cryp_aes.c ****         CRYP_DataIn(*(uint32_t*)(headeraddr));
 2489              		.loc 1 810 0 discriminator 2
 2490 02aa 3E9B     		ldr	r3, [sp, #248]
 2491 02ac 1B68     		ldr	r3, [r3]
 2492 02ae 1846     		mov	r0, r3
 2493 02b0 FFF7FEFF 		bl	CRYP_DataIn
 811:/home/rdu/Workspace/project_templates/mcu/stm32_ws/src/libraries/STM32F4xx_StdPeriph_Driver/src/stm32f4xx_cryp_aes.c ****         headeraddr+=4;
 2494              		.loc 1 811 0 discriminator 2
 2495 02b4 3E9B     		ldr	r3, [sp, #248]
 2496 02b6 0433     		adds	r3, r3, #4
 2497 02b8 3E93     		str	r3, [sp, #248]
 812:/home/rdu/Workspace/project_templates/mcu/stm32_ws/src/libraries/STM32F4xx_StdPeriph_Driver/src/stm32f4xx_cryp_aes.c ****         CRYP_DataIn(*(uint32_t*)(headeraddr));
 2498              		.loc 1 812 0 discriminator 2
 2499 02ba 3E9B     		ldr	r3, [sp, #248]
 2500 02bc 1B68     		ldr	r3, [r3]
 2501 02be 1846     		mov	r0, r3
 2502 02c0 FFF7FEFF 		bl	CRYP_DataIn
 813:/home/rdu/Workspace/project_templates/mcu/stm32_ws/src/libraries/STM32F4xx_StdPeriph_Driver/src/stm32f4xx_cryp_aes.c ****         headeraddr+=4;
 2503              		.loc 1 813 0 discriminator 2
 2504 02c4 3E9B     		ldr	r3, [sp, #248]
 2505 02c6 0433     		adds	r3, r3, #4
 2506 02c8 3E93     		str	r3, [sp, #248]
 798:/home/rdu/Workspace/project_templates/mcu/stm32_ws/src/libraries/STM32F4xx_StdPeriph_Driver/src/stm32f4xx_cryp_aes.c ****       {
 2507              		.loc 1 798 0 discriminator 2
 2508 02ca 3D9B     		ldr	r3, [sp, #244]
 2509 02cc 1033     		adds	r3, r3, #16
 2510 02ce 3D93     		str	r3, [sp, #244]
 2511              	.L158:
 798:/home/rdu/Workspace/project_templates/mcu/stm32_ws/src/libraries/STM32F4xx_StdPeriph_Driver/src/stm32f4xx_cryp_aes.c ****       {
 2512              		.loc 1 798 0 is_stmt 0 discriminator 1
 2513 02d0 3D9A     		ldr	r2, [sp, #244]
 2514 02d2 479B     		ldr	r3, [sp, #284]
 2515 02d4 9A42     		cmp	r2, r3
 2516 02d6 D1D3     		bcc	.L160
 814:/home/rdu/Workspace/project_templates/mcu/stm32_ws/src/libraries/STM32F4xx_StdPeriph_Driver/src/stm32f4xx_cryp_aes.c ****       }
 815:/home/rdu/Workspace/project_templates/mcu/stm32_ws/src/libraries/STM32F4xx_StdPeriph_Driver/src/stm32f4xx_cryp_aes.c ****       
 816:/home/rdu/Workspace/project_templates/mcu/stm32_ws/src/libraries/STM32F4xx_StdPeriph_Driver/src/stm32f4xx_cryp_aes.c ****       /* Wait until the complete message has been processed */
 817:/home/rdu/Workspace/project_templates/mcu/stm32_ws/src/libraries/STM32F4xx_StdPeriph_Driver/src/stm32f4xx_cryp_aes.c ****       counter = 0;
 2517              		.loc 1 817 0 is_stmt 1
 2518 02d8 0023     		movs	r3, #0
 2519 02da 0593     		str	r3, [sp, #20]
 2520              	.L162:
 818:/home/rdu/Workspace/project_templates/mcu/stm32_ws/src/libraries/STM32F4xx_StdPeriph_Driver/src/stm32f4xx_cryp_aes.c ****       do
 819:/home/rdu/Workspace/project_templates/mcu/stm32_ws/src/libraries/STM32F4xx_StdPeriph_Driver/src/stm32f4xx_cryp_aes.c ****       {
 820:/home/rdu/Workspace/project_templates/mcu/stm32_ws/src/libraries/STM32F4xx_StdPeriph_Driver/src/stm32f4xx_cryp_aes.c ****         busystatus = CRYP_GetFlagStatus(CRYP_FLAG_BUSY);
 2521              		.loc 1 820 0 discriminator 2
 2522 02dc 1020     		movs	r0, #16
 2523 02de FFF7FEFF 		bl	CRYP_GetFlagStatus
 2524 02e2 0346     		mov	r3, r0
 2525 02e4 3C93     		str	r3, [sp, #240]
 821:/home/rdu/Workspace/project_templates/mcu/stm32_ws/src/libraries/STM32F4xx_StdPeriph_Driver/src/stm32f4xx_cryp_aes.c ****         counter++;
 2526              		.loc 1 821 0 discriminator 2
 2527 02e6 059B     		ldr	r3, [sp, #20]
 2528 02e8 0133     		adds	r3, r3, #1
 2529 02ea 0593     		str	r3, [sp, #20]
 822:/home/rdu/Workspace/project_templates/mcu/stm32_ws/src/libraries/STM32F4xx_StdPeriph_Driver/src/stm32f4xx_cryp_aes.c ****       }while ((counter != AESBUSY_TIMEOUT) && (busystatus != RESET));
 2530              		.loc 1 822 0 discriminator 2
 2531 02ec 059B     		ldr	r3, [sp, #20]
 2532 02ee B3F5803F 		cmp	r3, #65536
 2533 02f2 02D0     		beq	.L161
 2534              		.loc 1 822 0 is_stmt 0 discriminator 1
 2535 02f4 3C9B     		ldr	r3, [sp, #240]
 2536 02f6 002B     		cmp	r3, #0
 2537 02f8 F0D1     		bne	.L162
 2538              	.L161:
 823:/home/rdu/Workspace/project_templates/mcu/stm32_ws/src/libraries/STM32F4xx_StdPeriph_Driver/src/stm32f4xx_cryp_aes.c **** 
 824:/home/rdu/Workspace/project_templates/mcu/stm32_ws/src/libraries/STM32F4xx_StdPeriph_Driver/src/stm32f4xx_cryp_aes.c ****       if (busystatus != RESET)
 2539              		.loc 1 824 0 is_stmt 1
 2540 02fa 3C9B     		ldr	r3, [sp, #240]
 2541 02fc 002B     		cmp	r3, #0
 2542 02fe 02D0     		beq	.L155
 825:/home/rdu/Workspace/project_templates/mcu/stm32_ws/src/libraries/STM32F4xx_StdPeriph_Driver/src/stm32f4xx_cryp_aes.c ****       {
 826:/home/rdu/Workspace/project_templates/mcu/stm32_ws/src/libraries/STM32F4xx_StdPeriph_Driver/src/stm32f4xx_cryp_aes.c ****         status = ERROR;
 2543              		.loc 1 826 0
 2544 0300 0023     		movs	r3, #0
 2545 0302 8DF80731 		strb	r3, [sp, #263]
 2546              	.L155:
 827:/home/rdu/Workspace/project_templates/mcu/stm32_ws/src/libraries/STM32F4xx_StdPeriph_Driver/src/stm32f4xx_cryp_aes.c ****       }
 828:/home/rdu/Workspace/project_templates/mcu/stm32_ws/src/libraries/STM32F4xx_StdPeriph_Driver/src/stm32f4xx_cryp_aes.c ****     }
 829:/home/rdu/Workspace/project_templates/mcu/stm32_ws/src/libraries/STM32F4xx_StdPeriph_Driver/src/stm32f4xx_cryp_aes.c ****     
 830:/home/rdu/Workspace/project_templates/mcu/stm32_ws/src/libraries/STM32F4xx_StdPeriph_Driver/src/stm32f4xx_cryp_aes.c ****     /**************************** payload phase *******************************/
 831:/home/rdu/Workspace/project_templates/mcu/stm32_ws/src/libraries/STM32F4xx_StdPeriph_Driver/src/stm32f4xx_cryp_aes.c ****     if(ILength != 0)
 2547              		.loc 1 831 0
 2548 0306 459B     		ldr	r3, [sp, #276]
 2549 0308 002B     		cmp	r3, #0
 2550 030a 00F08280 		beq	.L163
 832:/home/rdu/Workspace/project_templates/mcu/stm32_ws/src/libraries/STM32F4xx_StdPeriph_Driver/src/stm32f4xx_cryp_aes.c ****     {
 833:/home/rdu/Workspace/project_templates/mcu/stm32_ws/src/libraries/STM32F4xx_StdPeriph_Driver/src/stm32f4xx_cryp_aes.c ****       /* Select payload phase */
 834:/home/rdu/Workspace/project_templates/mcu/stm32_ws/src/libraries/STM32F4xx_StdPeriph_Driver/src/stm32f4xx_cryp_aes.c ****       CRYP_PhaseConfig(CRYP_Phase_Payload);
 2551              		.loc 1 834 0
 2552 030e 4FF40030 		mov	r0, #131072
 2553 0312 FFF7FEFF 		bl	CRYP_PhaseConfig
 835:/home/rdu/Workspace/project_templates/mcu/stm32_ws/src/libraries/STM32F4xx_StdPeriph_Driver/src/stm32f4xx_cryp_aes.c ****       
 836:/home/rdu/Workspace/project_templates/mcu/stm32_ws/src/libraries/STM32F4xx_StdPeriph_Driver/src/stm32f4xx_cryp_aes.c ****       /* Enable Crypto processor */
 837:/home/rdu/Workspace/project_templates/mcu/stm32_ws/src/libraries/STM32F4xx_StdPeriph_Driver/src/stm32f4xx_cryp_aes.c ****       CRYP_Cmd(ENABLE);
 2554              		.loc 1 837 0
 2555 0316 0120     		movs	r0, #1
 2556 0318 FFF7FEFF 		bl	CRYP_Cmd
 838:/home/rdu/Workspace/project_templates/mcu/stm32_ws/src/libraries/STM32F4xx_StdPeriph_Driver/src/stm32f4xx_cryp_aes.c ****       
 839:/home/rdu/Workspace/project_templates/mcu/stm32_ws/src/libraries/STM32F4xx_StdPeriph_Driver/src/stm32f4xx_cryp_aes.c ****       if(CRYP_GetCmdStatus() == DISABLE)
 2557              		.loc 1 839 0
 2558 031c FFF7FEFF 		bl	CRYP_GetCmdStatus
 2559 0320 0346     		mov	r3, r0
 2560 0322 002B     		cmp	r3, #0
 2561 0324 01D1     		bne	.L164
 840:/home/rdu/Workspace/project_templates/mcu/stm32_ws/src/libraries/STM32F4xx_StdPeriph_Driver/src/stm32f4xx_cryp_aes.c ****       {
 841:/home/rdu/Workspace/project_templates/mcu/stm32_ws/src/libraries/STM32F4xx_StdPeriph_Driver/src/stm32f4xx_cryp_aes.c ****         /* The CRYP peripheral clock is not enabled or the device doesn't embed 
 842:/home/rdu/Workspace/project_templates/mcu/stm32_ws/src/libraries/STM32F4xx_StdPeriph_Driver/src/stm32f4xx_cryp_aes.c ****            the CRYP peripheral (please check the device sales type. */
 843:/home/rdu/Workspace/project_templates/mcu/stm32_ws/src/libraries/STM32F4xx_StdPeriph_Driver/src/stm32f4xx_cryp_aes.c ****         return(ERROR);
 2562              		.loc 1 843 0
 2563 0326 0023     		movs	r3, #0
 2564 0328 3BE2     		b	.L204
 2565              	.L164:
 844:/home/rdu/Workspace/project_templates/mcu/stm32_ws/src/libraries/STM32F4xx_StdPeriph_Driver/src/stm32f4xx_cryp_aes.c ****       }
 845:/home/rdu/Workspace/project_templates/mcu/stm32_ws/src/libraries/STM32F4xx_StdPeriph_Driver/src/stm32f4xx_cryp_aes.c ****       
 846:/home/rdu/Workspace/project_templates/mcu/stm32_ws/src/libraries/STM32F4xx_StdPeriph_Driver/src/stm32f4xx_cryp_aes.c ****       for(loopcounter = 0; ((loopcounter < ILength) && (status != ERROR)); loopcounter+=16)
 2566              		.loc 1 846 0
 2567 032a 0023     		movs	r3, #0
 2568 032c 3D93     		str	r3, [sp, #244]
 2569 032e 68E0     		b	.L165
 2570              	.L172:
 847:/home/rdu/Workspace/project_templates/mcu/stm32_ws/src/libraries/STM32F4xx_StdPeriph_Driver/src/stm32f4xx_cryp_aes.c ****       {
 848:/home/rdu/Workspace/project_templates/mcu/stm32_ws/src/libraries/STM32F4xx_StdPeriph_Driver/src/stm32f4xx_cryp_aes.c ****         /* Wait until the IFEM flag is reset */
 849:/home/rdu/Workspace/project_templates/mcu/stm32_ws/src/libraries/STM32F4xx_StdPeriph_Driver/src/stm32f4xx_cryp_aes.c ****         while(CRYP_GetFlagStatus(CRYP_FLAG_IFEM) == RESET)
 2571              		.loc 1 849 0
 2572 0330 00BF     		nop
 2573              	.L166:
 2574              		.loc 1 849 0 is_stmt 0 discriminator 1
 2575 0332 0120     		movs	r0, #1
 2576 0334 FFF7FEFF 		bl	CRYP_GetFlagStatus
 2577 0338 0346     		mov	r3, r0
 2578 033a 002B     		cmp	r3, #0
 2579 033c F9D0     		beq	.L166
 850:/home/rdu/Workspace/project_templates/mcu/stm32_ws/src/libraries/STM32F4xx_StdPeriph_Driver/src/stm32f4xx_cryp_aes.c ****         {
 851:/home/rdu/Workspace/project_templates/mcu/stm32_ws/src/libraries/STM32F4xx_StdPeriph_Driver/src/stm32f4xx_cryp_aes.c ****         }
 852:/home/rdu/Workspace/project_templates/mcu/stm32_ws/src/libraries/STM32F4xx_StdPeriph_Driver/src/stm32f4xx_cryp_aes.c ****         /* Write the Input block in the IN FIFO */
 853:/home/rdu/Workspace/project_templates/mcu/stm32_ws/src/libraries/STM32F4xx_StdPeriph_Driver/src/stm32f4xx_cryp_aes.c ****         CRYP_DataIn(*(uint32_t*)(inputaddr));
 2580              		.loc 1 853 0 is_stmt 1
 2581 033e 409B     		ldr	r3, [sp, #256]
 2582 0340 1B68     		ldr	r3, [r3]
 2583 0342 1846     		mov	r0, r3
 2584 0344 FFF7FEFF 		bl	CRYP_DataIn
 854:/home/rdu/Workspace/project_templates/mcu/stm32_ws/src/libraries/STM32F4xx_StdPeriph_Driver/src/stm32f4xx_cryp_aes.c ****         inputaddr+=4;
 2585              		.loc 1 854 0
 2586 0348 409B     		ldr	r3, [sp, #256]
 2587 034a 0433     		adds	r3, r3, #4
 2588 034c 4093     		str	r3, [sp, #256]
 855:/home/rdu/Workspace/project_templates/mcu/stm32_ws/src/libraries/STM32F4xx_StdPeriph_Driver/src/stm32f4xx_cryp_aes.c ****         CRYP_DataIn(*(uint32_t*)(inputaddr));
 2589              		.loc 1 855 0
 2590 034e 409B     		ldr	r3, [sp, #256]
 2591 0350 1B68     		ldr	r3, [r3]
 2592 0352 1846     		mov	r0, r3
 2593 0354 FFF7FEFF 		bl	CRYP_DataIn
 856:/home/rdu/Workspace/project_templates/mcu/stm32_ws/src/libraries/STM32F4xx_StdPeriph_Driver/src/stm32f4xx_cryp_aes.c ****         inputaddr+=4;
 2594              		.loc 1 856 0
 2595 0358 409B     		ldr	r3, [sp, #256]
 2596 035a 0433     		adds	r3, r3, #4
 2597 035c 4093     		str	r3, [sp, #256]
 857:/home/rdu/Workspace/project_templates/mcu/stm32_ws/src/libraries/STM32F4xx_StdPeriph_Driver/src/stm32f4xx_cryp_aes.c ****         CRYP_DataIn(*(uint32_t*)(inputaddr));
 2598              		.loc 1 857 0
 2599 035e 409B     		ldr	r3, [sp, #256]
 2600 0360 1B68     		ldr	r3, [r3]
 2601 0362 1846     		mov	r0, r3
 2602 0364 FFF7FEFF 		bl	CRYP_DataIn
 858:/home/rdu/Workspace/project_templates/mcu/stm32_ws/src/libraries/STM32F4xx_StdPeriph_Driver/src/stm32f4xx_cryp_aes.c ****         inputaddr+=4;
 2603              		.loc 1 858 0
 2604 0368 409B     		ldr	r3, [sp, #256]
 2605 036a 0433     		adds	r3, r3, #4
 2606 036c 4093     		str	r3, [sp, #256]
 859:/home/rdu/Workspace/project_templates/mcu/stm32_ws/src/libraries/STM32F4xx_StdPeriph_Driver/src/stm32f4xx_cryp_aes.c ****         CRYP_DataIn(*(uint32_t*)(inputaddr));
 2607              		.loc 1 859 0
 2608 036e 409B     		ldr	r3, [sp, #256]
 2609 0370 1B68     		ldr	r3, [r3]
 2610 0372 1846     		mov	r0, r3
 2611 0374 FFF7FEFF 		bl	CRYP_DataIn
 860:/home/rdu/Workspace/project_templates/mcu/stm32_ws/src/libraries/STM32F4xx_StdPeriph_Driver/src/stm32f4xx_cryp_aes.c ****         inputaddr+=4;
 2612              		.loc 1 860 0
 2613 0378 409B     		ldr	r3, [sp, #256]
 2614 037a 0433     		adds	r3, r3, #4
 2615 037c 4093     		str	r3, [sp, #256]
 861:/home/rdu/Workspace/project_templates/mcu/stm32_ws/src/libraries/STM32F4xx_StdPeriph_Driver/src/stm32f4xx_cryp_aes.c ****         
 862:/home/rdu/Workspace/project_templates/mcu/stm32_ws/src/libraries/STM32F4xx_StdPeriph_Driver/src/stm32f4xx_cryp_aes.c ****         /* Wait until the complete message has been processed */
 863:/home/rdu/Workspace/project_templates/mcu/stm32_ws/src/libraries/STM32F4xx_StdPeriph_Driver/src/stm32f4xx_cryp_aes.c ****         counter = 0;
 2616              		.loc 1 863 0
 2617 037e 0023     		movs	r3, #0
 2618 0380 0593     		str	r3, [sp, #20]
 2619              	.L168:
 864:/home/rdu/Workspace/project_templates/mcu/stm32_ws/src/libraries/STM32F4xx_StdPeriph_Driver/src/stm32f4xx_cryp_aes.c ****         do
 865:/home/rdu/Workspace/project_templates/mcu/stm32_ws/src/libraries/STM32F4xx_StdPeriph_Driver/src/stm32f4xx_cryp_aes.c ****         {
 866:/home/rdu/Workspace/project_templates/mcu/stm32_ws/src/libraries/STM32F4xx_StdPeriph_Driver/src/stm32f4xx_cryp_aes.c ****           busystatus = CRYP_GetFlagStatus(CRYP_FLAG_BUSY);
 2620              		.loc 1 866 0 discriminator 2
 2621 0382 1020     		movs	r0, #16
 2622 0384 FFF7FEFF 		bl	CRYP_GetFlagStatus
 2623 0388 0346     		mov	r3, r0
 2624 038a 3C93     		str	r3, [sp, #240]
 867:/home/rdu/Workspace/project_templates/mcu/stm32_ws/src/libraries/STM32F4xx_StdPeriph_Driver/src/stm32f4xx_cryp_aes.c ****           counter++;
 2625              		.loc 1 867 0 discriminator 2
 2626 038c 059B     		ldr	r3, [sp, #20]
 2627 038e 0133     		adds	r3, r3, #1
 2628 0390 0593     		str	r3, [sp, #20]
 868:/home/rdu/Workspace/project_templates/mcu/stm32_ws/src/libraries/STM32F4xx_StdPeriph_Driver/src/stm32f4xx_cryp_aes.c ****         }while ((counter != AESBUSY_TIMEOUT) && (busystatus != RESET));
 2629              		.loc 1 868 0 discriminator 2
 2630 0392 059B     		ldr	r3, [sp, #20]
 2631 0394 B3F5803F 		cmp	r3, #65536
 2632 0398 02D0     		beq	.L167
 2633              		.loc 1 868 0 is_stmt 0 discriminator 1
 2634 039a 3C9B     		ldr	r3, [sp, #240]
 2635 039c 002B     		cmp	r3, #0
 2636 039e F0D1     		bne	.L168
 2637              	.L167:
 869:/home/rdu/Workspace/project_templates/mcu/stm32_ws/src/libraries/STM32F4xx_StdPeriph_Driver/src/stm32f4xx_cryp_aes.c **** 
 870:/home/rdu/Workspace/project_templates/mcu/stm32_ws/src/libraries/STM32F4xx_StdPeriph_Driver/src/stm32f4xx_cryp_aes.c ****         if (busystatus != RESET)
 2638              		.loc 1 870 0 is_stmt 1
 2639 03a0 3C9B     		ldr	r3, [sp, #240]
 2640 03a2 002B     		cmp	r3, #0
 2641 03a4 03D0     		beq	.L205
 871:/home/rdu/Workspace/project_templates/mcu/stm32_ws/src/libraries/STM32F4xx_StdPeriph_Driver/src/stm32f4xx_cryp_aes.c ****         {
 872:/home/rdu/Workspace/project_templates/mcu/stm32_ws/src/libraries/STM32F4xx_StdPeriph_Driver/src/stm32f4xx_cryp_aes.c ****           status = ERROR;
 2642              		.loc 1 872 0
 2643 03a6 0023     		movs	r3, #0
 2644 03a8 8DF80731 		strb	r3, [sp, #263]
 2645 03ac 26E0     		b	.L170
 2646              	.L205:
 873:/home/rdu/Workspace/project_templates/mcu/stm32_ws/src/libraries/STM32F4xx_StdPeriph_Driver/src/stm32f4xx_cryp_aes.c ****         }
 874:/home/rdu/Workspace/project_templates/mcu/stm32_ws/src/libraries/STM32F4xx_StdPeriph_Driver/src/stm32f4xx_cryp_aes.c ****         else
 875:/home/rdu/Workspace/project_templates/mcu/stm32_ws/src/libraries/STM32F4xx_StdPeriph_Driver/src/stm32f4xx_cryp_aes.c ****         {
 876:/home/rdu/Workspace/project_templates/mcu/stm32_ws/src/libraries/STM32F4xx_StdPeriph_Driver/src/stm32f4xx_cryp_aes.c ****           /* Wait until the OFNE flag is reset */
 877:/home/rdu/Workspace/project_templates/mcu/stm32_ws/src/libraries/STM32F4xx_StdPeriph_Driver/src/stm32f4xx_cryp_aes.c ****           while(CRYP_GetFlagStatus(CRYP_FLAG_OFNE) == RESET)
 2647              		.loc 1 877 0
 2648 03ae 00BF     		nop
 2649              	.L171:
 2650              		.loc 1 877 0 is_stmt 0 discriminator 1
 2651 03b0 0420     		movs	r0, #4
 2652 03b2 FFF7FEFF 		bl	CRYP_GetFlagStatus
 2653 03b6 0346     		mov	r3, r0
 2654 03b8 002B     		cmp	r3, #0
 2655 03ba F9D0     		beq	.L171
 878:/home/rdu/Workspace/project_templates/mcu/stm32_ws/src/libraries/STM32F4xx_StdPeriph_Driver/src/stm32f4xx_cryp_aes.c ****           {
 879:/home/rdu/Workspace/project_templates/mcu/stm32_ws/src/libraries/STM32F4xx_StdPeriph_Driver/src/stm32f4xx_cryp_aes.c ****           }
 880:/home/rdu/Workspace/project_templates/mcu/stm32_ws/src/libraries/STM32F4xx_StdPeriph_Driver/src/stm32f4xx_cryp_aes.c ****           
 881:/home/rdu/Workspace/project_templates/mcu/stm32_ws/src/libraries/STM32F4xx_StdPeriph_Driver/src/stm32f4xx_cryp_aes.c ****           /* Read the Output block from the Output FIFO */
 882:/home/rdu/Workspace/project_templates/mcu/stm32_ws/src/libraries/STM32F4xx_StdPeriph_Driver/src/stm32f4xx_cryp_aes.c ****           *(uint32_t*)(outputaddr) = CRYP_DataOut();
 2656              		.loc 1 882 0 is_stmt 1
 2657 03bc 3F9C     		ldr	r4, [sp, #252]
 2658 03be FFF7FEFF 		bl	CRYP_DataOut
 2659 03c2 0346     		mov	r3, r0
 2660 03c4 2360     		str	r3, [r4]
 883:/home/rdu/Workspace/project_templates/mcu/stm32_ws/src/libraries/STM32F4xx_StdPeriph_Driver/src/stm32f4xx_cryp_aes.c ****           outputaddr+=4;
 2661              		.loc 1 883 0
 2662 03c6 3F9B     		ldr	r3, [sp, #252]
 2663 03c8 0433     		adds	r3, r3, #4
 2664 03ca 3F93     		str	r3, [sp, #252]
 884:/home/rdu/Workspace/project_templates/mcu/stm32_ws/src/libraries/STM32F4xx_StdPeriph_Driver/src/stm32f4xx_cryp_aes.c ****           *(uint32_t*)(outputaddr) = CRYP_DataOut();
 2665              		.loc 1 884 0
 2666 03cc 3F9C     		ldr	r4, [sp, #252]
 2667 03ce FFF7FEFF 		bl	CRYP_DataOut
 2668 03d2 0346     		mov	r3, r0
 2669 03d4 2360     		str	r3, [r4]
 885:/home/rdu/Workspace/project_templates/mcu/stm32_ws/src/libraries/STM32F4xx_StdPeriph_Driver/src/stm32f4xx_cryp_aes.c ****           outputaddr+=4;
 2670              		.loc 1 885 0
 2671 03d6 3F9B     		ldr	r3, [sp, #252]
 2672 03d8 0433     		adds	r3, r3, #4
 2673 03da 3F93     		str	r3, [sp, #252]
 886:/home/rdu/Workspace/project_templates/mcu/stm32_ws/src/libraries/STM32F4xx_StdPeriph_Driver/src/stm32f4xx_cryp_aes.c ****           *(uint32_t*)(outputaddr) = CRYP_DataOut();
 2674              		.loc 1 886 0
 2675 03dc 3F9C     		ldr	r4, [sp, #252]
 2676 03de FFF7FEFF 		bl	CRYP_DataOut
 2677 03e2 0346     		mov	r3, r0
 2678 03e4 2360     		str	r3, [r4]
 887:/home/rdu/Workspace/project_templates/mcu/stm32_ws/src/libraries/STM32F4xx_StdPeriph_Driver/src/stm32f4xx_cryp_aes.c ****           outputaddr+=4;
 2679              		.loc 1 887 0
 2680 03e6 3F9B     		ldr	r3, [sp, #252]
 2681 03e8 0433     		adds	r3, r3, #4
 2682 03ea 3F93     		str	r3, [sp, #252]
 888:/home/rdu/Workspace/project_templates/mcu/stm32_ws/src/libraries/STM32F4xx_StdPeriph_Driver/src/stm32f4xx_cryp_aes.c ****           *(uint32_t*)(outputaddr) = CRYP_DataOut();
 2683              		.loc 1 888 0
 2684 03ec 3F9C     		ldr	r4, [sp, #252]
 2685 03ee FFF7FEFF 		bl	CRYP_DataOut
 2686 03f2 0346     		mov	r3, r0
 2687 03f4 2360     		str	r3, [r4]
 889:/home/rdu/Workspace/project_templates/mcu/stm32_ws/src/libraries/STM32F4xx_StdPeriph_Driver/src/stm32f4xx_cryp_aes.c ****           outputaddr+=4;
 2688              		.loc 1 889 0
 2689 03f6 3F9B     		ldr	r3, [sp, #252]
 2690 03f8 0433     		adds	r3, r3, #4
 2691 03fa 3F93     		str	r3, [sp, #252]
 2692              	.L170:
 846:/home/rdu/Workspace/project_templates/mcu/stm32_ws/src/libraries/STM32F4xx_StdPeriph_Driver/src/stm32f4xx_cryp_aes.c ****       {
 2693              		.loc 1 846 0 discriminator 2
 2694 03fc 3D9B     		ldr	r3, [sp, #244]
 2695 03fe 1033     		adds	r3, r3, #16
 2696 0400 3D93     		str	r3, [sp, #244]
 2697              	.L165:
 846:/home/rdu/Workspace/project_templates/mcu/stm32_ws/src/libraries/STM32F4xx_StdPeriph_Driver/src/stm32f4xx_cryp_aes.c ****       {
 2698              		.loc 1 846 0 is_stmt 0 discriminator 1
 2699 0402 3D9A     		ldr	r2, [sp, #244]
 2700 0404 459B     		ldr	r3, [sp, #276]
 2701 0406 9A42     		cmp	r2, r3
 2702 0408 03D2     		bcs	.L163
 846:/home/rdu/Workspace/project_templates/mcu/stm32_ws/src/libraries/STM32F4xx_StdPeriph_Driver/src/stm32f4xx_cryp_aes.c ****       {
 2703              		.loc 1 846 0 discriminator 3
 2704 040a 9DF80731 		ldrb	r3, [sp, #263]	@ zero_extendqisi2
 2705 040e 002B     		cmp	r3, #0
 2706 0410 8ED1     		bne	.L172
 2707              	.L163:
 890:/home/rdu/Workspace/project_templates/mcu/stm32_ws/src/libraries/STM32F4xx_StdPeriph_Driver/src/stm32f4xx_cryp_aes.c ****         }
 891:/home/rdu/Workspace/project_templates/mcu/stm32_ws/src/libraries/STM32F4xx_StdPeriph_Driver/src/stm32f4xx_cryp_aes.c ****       }
 892:/home/rdu/Workspace/project_templates/mcu/stm32_ws/src/libraries/STM32F4xx_StdPeriph_Driver/src/stm32f4xx_cryp_aes.c ****     }
 893:/home/rdu/Workspace/project_templates/mcu/stm32_ws/src/libraries/STM32F4xx_StdPeriph_Driver/src/stm32f4xx_cryp_aes.c ****     
 894:/home/rdu/Workspace/project_templates/mcu/stm32_ws/src/libraries/STM32F4xx_StdPeriph_Driver/src/stm32f4xx_cryp_aes.c ****     /***************************** final phase ********************************/
 895:/home/rdu/Workspace/project_templates/mcu/stm32_ws/src/libraries/STM32F4xx_StdPeriph_Driver/src/stm32f4xx_cryp_aes.c ****     /* Select final phase */
 896:/home/rdu/Workspace/project_templates/mcu/stm32_ws/src/libraries/STM32F4xx_StdPeriph_Driver/src/stm32f4xx_cryp_aes.c ****     CRYP_PhaseConfig(CRYP_Phase_Final);
 2708              		.loc 1 896 0 is_stmt 1
 2709 0412 4FF44030 		mov	r0, #196608
 2710 0416 FFF7FEFF 		bl	CRYP_PhaseConfig
 897:/home/rdu/Workspace/project_templates/mcu/stm32_ws/src/libraries/STM32F4xx_StdPeriph_Driver/src/stm32f4xx_cryp_aes.c ****     
 898:/home/rdu/Workspace/project_templates/mcu/stm32_ws/src/libraries/STM32F4xx_StdPeriph_Driver/src/stm32f4xx_cryp_aes.c ****     /* Enable Crypto processor */
 899:/home/rdu/Workspace/project_templates/mcu/stm32_ws/src/libraries/STM32F4xx_StdPeriph_Driver/src/stm32f4xx_cryp_aes.c ****     CRYP_Cmd(ENABLE);
 2711              		.loc 1 899 0
 2712 041a 0120     		movs	r0, #1
 2713 041c FFF7FEFF 		bl	CRYP_Cmd
 900:/home/rdu/Workspace/project_templates/mcu/stm32_ws/src/libraries/STM32F4xx_StdPeriph_Driver/src/stm32f4xx_cryp_aes.c ****     
 901:/home/rdu/Workspace/project_templates/mcu/stm32_ws/src/libraries/STM32F4xx_StdPeriph_Driver/src/stm32f4xx_cryp_aes.c ****     if(CRYP_GetCmdStatus() == DISABLE)
 2714              		.loc 1 901 0
 2715 0420 FFF7FEFF 		bl	CRYP_GetCmdStatus
 2716 0424 0346     		mov	r3, r0
 2717 0426 002B     		cmp	r3, #0
 2718 0428 01D1     		bne	.L173
 902:/home/rdu/Workspace/project_templates/mcu/stm32_ws/src/libraries/STM32F4xx_StdPeriph_Driver/src/stm32f4xx_cryp_aes.c ****     {
 903:/home/rdu/Workspace/project_templates/mcu/stm32_ws/src/libraries/STM32F4xx_StdPeriph_Driver/src/stm32f4xx_cryp_aes.c ****       /* The CRYP peripheral clock is not enabled or the device doesn't embed 
 904:/home/rdu/Workspace/project_templates/mcu/stm32_ws/src/libraries/STM32F4xx_StdPeriph_Driver/src/stm32f4xx_cryp_aes.c ****          the CRYP peripheral (please check the device sales type. */
 905:/home/rdu/Workspace/project_templates/mcu/stm32_ws/src/libraries/STM32F4xx_StdPeriph_Driver/src/stm32f4xx_cryp_aes.c ****       return(ERROR);
 2719              		.loc 1 905 0
 2720 042a 0023     		movs	r3, #0
 2721 042c B9E1     		b	.L204
 2722              	.L173:
 906:/home/rdu/Workspace/project_templates/mcu/stm32_ws/src/libraries/STM32F4xx_StdPeriph_Driver/src/stm32f4xx_cryp_aes.c ****     }
 907:/home/rdu/Workspace/project_templates/mcu/stm32_ws/src/libraries/STM32F4xx_StdPeriph_Driver/src/stm32f4xx_cryp_aes.c ****     
 908:/home/rdu/Workspace/project_templates/mcu/stm32_ws/src/libraries/STM32F4xx_StdPeriph_Driver/src/stm32f4xx_cryp_aes.c ****     /* Write number of bits concatenated with header in the IN FIFO */
 909:/home/rdu/Workspace/project_templates/mcu/stm32_ws/src/libraries/STM32F4xx_StdPeriph_Driver/src/stm32f4xx_cryp_aes.c ****     CRYP_DataIn(__REV(headerlength>>32));
 2723              		.loc 1 909 0
 2724 042e DDE93612 		ldrd	r1, [sp, #216]
 2725 0432 4FF00003 		mov	r3, #0
 2726 0436 4FF00004 		mov	r4, #0
 2727 043a 1300     		movs	r3, r2
 2728 043c 0024     		movs	r4, #0
 2729 043e 1A93     		str	r3, [sp, #104]
 2730              	.LBB398:
 2731              	.LBB399:
 2732              		.loc 2 498 0
 2733 0440 1A9B     		ldr	r3, [sp, #104]
 2734 0442 1BBA     		rev	r3, r3
 2735              	.LBE399:
 2736              	.LBE398:
 2737              		.loc 1 909 0
 2738 0444 1846     		mov	r0, r3
 2739 0446 FFF7FEFF 		bl	CRYP_DataIn
 910:/home/rdu/Workspace/project_templates/mcu/stm32_ws/src/libraries/STM32F4xx_StdPeriph_Driver/src/stm32f4xx_cryp_aes.c ****     CRYP_DataIn(__REV(headerlength));
 2740              		.loc 1 910 0
 2741 044a 369B     		ldr	r3, [sp, #216]
 2742 044c 1B93     		str	r3, [sp, #108]
 2743              	.LBB400:
 2744              	.LBB401:
 2745              		.loc 2 498 0
 2746 044e 1B9B     		ldr	r3, [sp, #108]
 2747 0450 1BBA     		rev	r3, r3
 2748              	.LBE401:
 2749              	.LBE400:
 2750              		.loc 1 910 0
 2751 0452 1846     		mov	r0, r3
 2752 0454 FFF7FEFF 		bl	CRYP_DataIn
 911:/home/rdu/Workspace/project_templates/mcu/stm32_ws/src/libraries/STM32F4xx_StdPeriph_Driver/src/stm32f4xx_cryp_aes.c ****     CRYP_DataIn(__REV(inputlength>>32));
 2753              		.loc 1 911 0
 2754 0458 DDE93412 		ldrd	r1, [sp, #208]
 2755 045c 4FF00003 		mov	r3, #0
 2756 0460 4FF00004 		mov	r4, #0
 2757 0464 1300     		movs	r3, r2
 2758 0466 0024     		movs	r4, #0
 2759 0468 1C93     		str	r3, [sp, #112]
 2760              	.LBB402:
 2761              	.LBB403:
 2762              		.loc 2 498 0
 2763 046a 1C9B     		ldr	r3, [sp, #112]
 2764 046c 1BBA     		rev	r3, r3
 2765              	.LBE403:
 2766              	.LBE402:
 2767              		.loc 1 911 0
 2768 046e 1846     		mov	r0, r3
 2769 0470 FFF7FEFF 		bl	CRYP_DataIn
 912:/home/rdu/Workspace/project_templates/mcu/stm32_ws/src/libraries/STM32F4xx_StdPeriph_Driver/src/stm32f4xx_cryp_aes.c ****     CRYP_DataIn(__REV(inputlength));
 2770              		.loc 1 912 0
 2771 0474 349B     		ldr	r3, [sp, #208]
 2772 0476 1D93     		str	r3, [sp, #116]
 2773              	.LBB404:
 2774              	.LBB405:
 2775              		.loc 2 498 0
 2776 0478 1D9B     		ldr	r3, [sp, #116]
 2777 047a 1BBA     		rev	r3, r3
 2778              	.LBE405:
 2779              	.LBE404:
 2780              		.loc 1 912 0
 2781 047c 1846     		mov	r0, r3
 2782 047e FFF7FEFF 		bl	CRYP_DataIn
 913:/home/rdu/Workspace/project_templates/mcu/stm32_ws/src/libraries/STM32F4xx_StdPeriph_Driver/src/stm32f4xx_cryp_aes.c ****     /* Wait until the OFNE flag is reset */
 914:/home/rdu/Workspace/project_templates/mcu/stm32_ws/src/libraries/STM32F4xx_StdPeriph_Driver/src/stm32f4xx_cryp_aes.c ****     while(CRYP_GetFlagStatus(CRYP_FLAG_OFNE) == RESET)
 2783              		.loc 1 914 0
 2784 0482 00BF     		nop
 2785              	.L178:
 2786              		.loc 1 914 0 is_stmt 0 discriminator 1
 2787 0484 0420     		movs	r0, #4
 2788 0486 FFF7FEFF 		bl	CRYP_GetFlagStatus
 2789 048a 0346     		mov	r3, r0
 2790 048c 002B     		cmp	r3, #0
 2791 048e F9D0     		beq	.L178
 915:/home/rdu/Workspace/project_templates/mcu/stm32_ws/src/libraries/STM32F4xx_StdPeriph_Driver/src/stm32f4xx_cryp_aes.c ****     {
 916:/home/rdu/Workspace/project_templates/mcu/stm32_ws/src/libraries/STM32F4xx_StdPeriph_Driver/src/stm32f4xx_cryp_aes.c ****     }
 917:/home/rdu/Workspace/project_templates/mcu/stm32_ws/src/libraries/STM32F4xx_StdPeriph_Driver/src/stm32f4xx_cryp_aes.c ****     
 918:/home/rdu/Workspace/project_templates/mcu/stm32_ws/src/libraries/STM32F4xx_StdPeriph_Driver/src/stm32f4xx_cryp_aes.c ****     tagaddr = (uint32_t)AuthTAG;
 2792              		.loc 1 918 0 is_stmt 1
 2793 0490 499B     		ldr	r3, [sp, #292]
 2794 0492 3993     		str	r3, [sp, #228]
 919:/home/rdu/Workspace/project_templates/mcu/stm32_ws/src/libraries/STM32F4xx_StdPeriph_Driver/src/stm32f4xx_cryp_aes.c ****     /* Read the Auth TAG in the IN FIFO */
 920:/home/rdu/Workspace/project_templates/mcu/stm32_ws/src/libraries/STM32F4xx_StdPeriph_Driver/src/stm32f4xx_cryp_aes.c ****     *(uint32_t*)(tagaddr) = CRYP_DataOut();
 2795              		.loc 1 920 0
 2796 0494 399C     		ldr	r4, [sp, #228]
 2797 0496 FFF7FEFF 		bl	CRYP_DataOut
 2798 049a 0346     		mov	r3, r0
 2799 049c 2360     		str	r3, [r4]
 921:/home/rdu/Workspace/project_templates/mcu/stm32_ws/src/libraries/STM32F4xx_StdPeriph_Driver/src/stm32f4xx_cryp_aes.c ****     tagaddr+=4;
 2800              		.loc 1 921 0
 2801 049e 399B     		ldr	r3, [sp, #228]
 2802 04a0 0433     		adds	r3, r3, #4
 2803 04a2 3993     		str	r3, [sp, #228]
 922:/home/rdu/Workspace/project_templates/mcu/stm32_ws/src/libraries/STM32F4xx_StdPeriph_Driver/src/stm32f4xx_cryp_aes.c ****     *(uint32_t*)(tagaddr) = CRYP_DataOut();
 2804              		.loc 1 922 0
 2805 04a4 399C     		ldr	r4, [sp, #228]
 2806 04a6 FFF7FEFF 		bl	CRYP_DataOut
 2807 04aa 0346     		mov	r3, r0
 2808 04ac 2360     		str	r3, [r4]
 923:/home/rdu/Workspace/project_templates/mcu/stm32_ws/src/libraries/STM32F4xx_StdPeriph_Driver/src/stm32f4xx_cryp_aes.c ****     tagaddr+=4;
 2809              		.loc 1 923 0
 2810 04ae 399B     		ldr	r3, [sp, #228]
 2811 04b0 0433     		adds	r3, r3, #4
 2812 04b2 3993     		str	r3, [sp, #228]
 924:/home/rdu/Workspace/project_templates/mcu/stm32_ws/src/libraries/STM32F4xx_StdPeriph_Driver/src/stm32f4xx_cryp_aes.c ****     *(uint32_t*)(tagaddr) = CRYP_DataOut();
 2813              		.loc 1 924 0
 2814 04b4 399C     		ldr	r4, [sp, #228]
 2815 04b6 FFF7FEFF 		bl	CRYP_DataOut
 2816 04ba 0346     		mov	r3, r0
 2817 04bc 2360     		str	r3, [r4]
 925:/home/rdu/Workspace/project_templates/mcu/stm32_ws/src/libraries/STM32F4xx_StdPeriph_Driver/src/stm32f4xx_cryp_aes.c ****     tagaddr+=4;
 2818              		.loc 1 925 0
 2819 04be 399B     		ldr	r3, [sp, #228]
 2820 04c0 0433     		adds	r3, r3, #4
 2821 04c2 3993     		str	r3, [sp, #228]
 926:/home/rdu/Workspace/project_templates/mcu/stm32_ws/src/libraries/STM32F4xx_StdPeriph_Driver/src/stm32f4xx_cryp_aes.c ****     *(uint32_t*)(tagaddr) = CRYP_DataOut();
 2822              		.loc 1 926 0
 2823 04c4 399C     		ldr	r4, [sp, #228]
 2824 04c6 FFF7FEFF 		bl	CRYP_DataOut
 2825 04ca 0346     		mov	r3, r0
 2826 04cc 2360     		str	r3, [r4]
 927:/home/rdu/Workspace/project_templates/mcu/stm32_ws/src/libraries/STM32F4xx_StdPeriph_Driver/src/stm32f4xx_cryp_aes.c ****     tagaddr+=4;
 2827              		.loc 1 927 0
 2828 04ce 399B     		ldr	r3, [sp, #228]
 2829 04d0 0433     		adds	r3, r3, #4
 2830 04d2 3993     		str	r3, [sp, #228]
 2831 04d4 60E1     		b	.L179
 2832              	.L153:
 928:/home/rdu/Workspace/project_templates/mcu/stm32_ws/src/libraries/STM32F4xx_StdPeriph_Driver/src/stm32f4xx_cryp_aes.c ****   }
 929:/home/rdu/Workspace/project_templates/mcu/stm32_ws/src/libraries/STM32F4xx_StdPeriph_Driver/src/stm32f4xx_cryp_aes.c ****   /*------------------ AES Decryption ------------------*/
 930:/home/rdu/Workspace/project_templates/mcu/stm32_ws/src/libraries/STM32F4xx_StdPeriph_Driver/src/stm32f4xx_cryp_aes.c ****   else /* AES decryption */
 931:/home/rdu/Workspace/project_templates/mcu/stm32_ws/src/libraries/STM32F4xx_StdPeriph_Driver/src/stm32f4xx_cryp_aes.c ****   {
 932:/home/rdu/Workspace/project_templates/mcu/stm32_ws/src/libraries/STM32F4xx_StdPeriph_Driver/src/stm32f4xx_cryp_aes.c ****     /* Flush IN/OUT FIFOs */
 933:/home/rdu/Workspace/project_templates/mcu/stm32_ws/src/libraries/STM32F4xx_StdPeriph_Driver/src/stm32f4xx_cryp_aes.c ****     CRYP_FIFOFlush();
 2833              		.loc 1 933 0
 2834 04d6 FFF7FEFF 		bl	CRYP_FIFOFlush
 934:/home/rdu/Workspace/project_templates/mcu/stm32_ws/src/libraries/STM32F4xx_StdPeriph_Driver/src/stm32f4xx_cryp_aes.c ****     
 935:/home/rdu/Workspace/project_templates/mcu/stm32_ws/src/libraries/STM32F4xx_StdPeriph_Driver/src/stm32f4xx_cryp_aes.c ****     /* Key Initialisation */
 936:/home/rdu/Workspace/project_templates/mcu/stm32_ws/src/libraries/STM32F4xx_StdPeriph_Driver/src/stm32f4xx_cryp_aes.c ****     CRYP_KeyInit(&AES_CRYP_KeyInitStructure);
 2835              		.loc 1 936 0
 2836 04da 0AAB     		add	r3, sp, #40
 2837 04dc 1846     		mov	r0, r3
 2838 04de FFF7FEFF 		bl	CRYP_KeyInit
 937:/home/rdu/Workspace/project_templates/mcu/stm32_ws/src/libraries/STM32F4xx_StdPeriph_Driver/src/stm32f4xx_cryp_aes.c ****     
 938:/home/rdu/Workspace/project_templates/mcu/stm32_ws/src/libraries/STM32F4xx_StdPeriph_Driver/src/stm32f4xx_cryp_aes.c ****     /* CRYP Initialization Vectors */
 939:/home/rdu/Workspace/project_templates/mcu/stm32_ws/src/libraries/STM32F4xx_StdPeriph_Driver/src/stm32f4xx_cryp_aes.c ****     CRYP_IVInit(&AES_CRYP_IVInitStructure);
 2839              		.loc 1 939 0
 2840 04e2 06AB     		add	r3, sp, #24
 2841 04e4 1846     		mov	r0, r3
 2842 04e6 FFF7FEFF 		bl	CRYP_IVInit
 940:/home/rdu/Workspace/project_templates/mcu/stm32_ws/src/libraries/STM32F4xx_StdPeriph_Driver/src/stm32f4xx_cryp_aes.c ****     
 941:/home/rdu/Workspace/project_templates/mcu/stm32_ws/src/libraries/STM32F4xx_StdPeriph_Driver/src/stm32f4xx_cryp_aes.c ****     /* Crypto Init for Key preparation for decryption process */
 942:/home/rdu/Workspace/project_templates/mcu/stm32_ws/src/libraries/STM32F4xx_StdPeriph_Driver/src/stm32f4xx_cryp_aes.c ****     AES_CRYP_InitStructure.CRYP_AlgoDir = CRYP_AlgoDir_Decrypt;
 2843              		.loc 1 942 0
 2844 04ea 0423     		movs	r3, #4
 2845 04ec 1293     		str	r3, [sp, #72]
 943:/home/rdu/Workspace/project_templates/mcu/stm32_ws/src/libraries/STM32F4xx_StdPeriph_Driver/src/stm32f4xx_cryp_aes.c ****     AES_CRYP_InitStructure.CRYP_AlgoMode = CRYP_AlgoMode_AES_GCM;
 2846              		.loc 1 943 0
 2847 04ee 4FF40023 		mov	r3, #524288
 2848 04f2 1393     		str	r3, [sp, #76]
 944:/home/rdu/Workspace/project_templates/mcu/stm32_ws/src/libraries/STM32F4xx_StdPeriph_Driver/src/stm32f4xx_cryp_aes.c ****     AES_CRYP_InitStructure.CRYP_DataType = CRYP_DataType_8b;
 2849              		.loc 1 944 0
 2850 04f4 8023     		movs	r3, #128
 2851 04f6 1493     		str	r3, [sp, #80]
 945:/home/rdu/Workspace/project_templates/mcu/stm32_ws/src/libraries/STM32F4xx_StdPeriph_Driver/src/stm32f4xx_cryp_aes.c ****     CRYP_Init(&AES_CRYP_InitStructure);
 2852              		.loc 1 945 0
 2853 04f8 12AB     		add	r3, sp, #72
 2854 04fa 1846     		mov	r0, r3
 2855 04fc FFF7FEFF 		bl	CRYP_Init
 946:/home/rdu/Workspace/project_templates/mcu/stm32_ws/src/libraries/STM32F4xx_StdPeriph_Driver/src/stm32f4xx_cryp_aes.c ****     
 947:/home/rdu/Workspace/project_templates/mcu/stm32_ws/src/libraries/STM32F4xx_StdPeriph_Driver/src/stm32f4xx_cryp_aes.c ****     /***************************** Init phase *********************************/
 948:/home/rdu/Workspace/project_templates/mcu/stm32_ws/src/libraries/STM32F4xx_StdPeriph_Driver/src/stm32f4xx_cryp_aes.c ****     /* Select init phase */
 949:/home/rdu/Workspace/project_templates/mcu/stm32_ws/src/libraries/STM32F4xx_StdPeriph_Driver/src/stm32f4xx_cryp_aes.c ****     CRYP_PhaseConfig(CRYP_Phase_Init);
 2856              		.loc 1 949 0
 2857 0500 0020     		movs	r0, #0
 2858 0502 FFF7FEFF 		bl	CRYP_PhaseConfig
 950:/home/rdu/Workspace/project_templates/mcu/stm32_ws/src/libraries/STM32F4xx_StdPeriph_Driver/src/stm32f4xx_cryp_aes.c ****     
 951:/home/rdu/Workspace/project_templates/mcu/stm32_ws/src/libraries/STM32F4xx_StdPeriph_Driver/src/stm32f4xx_cryp_aes.c ****     /* Enable Crypto processor */
 952:/home/rdu/Workspace/project_templates/mcu/stm32_ws/src/libraries/STM32F4xx_StdPeriph_Driver/src/stm32f4xx_cryp_aes.c ****     CRYP_Cmd(ENABLE);
 2859              		.loc 1 952 0
 2860 0506 0120     		movs	r0, #1
 2861 0508 FFF7FEFF 		bl	CRYP_Cmd
 953:/home/rdu/Workspace/project_templates/mcu/stm32_ws/src/libraries/STM32F4xx_StdPeriph_Driver/src/stm32f4xx_cryp_aes.c ****     
 954:/home/rdu/Workspace/project_templates/mcu/stm32_ws/src/libraries/STM32F4xx_StdPeriph_Driver/src/stm32f4xx_cryp_aes.c ****     /* Wait for CRYPEN bit to be 0 */
 955:/home/rdu/Workspace/project_templates/mcu/stm32_ws/src/libraries/STM32F4xx_StdPeriph_Driver/src/stm32f4xx_cryp_aes.c ****     while(CRYP_GetCmdStatus() == ENABLE)
 2862              		.loc 1 955 0
 2863 050c 00BF     		nop
 2864              	.L180:
 2865              		.loc 1 955 0 is_stmt 0 discriminator 1
 2866 050e FFF7FEFF 		bl	CRYP_GetCmdStatus
 2867 0512 0346     		mov	r3, r0
 2868 0514 012B     		cmp	r3, #1
 2869 0516 FAD0     		beq	.L180
 956:/home/rdu/Workspace/project_templates/mcu/stm32_ws/src/libraries/STM32F4xx_StdPeriph_Driver/src/stm32f4xx_cryp_aes.c ****     {
 957:/home/rdu/Workspace/project_templates/mcu/stm32_ws/src/libraries/STM32F4xx_StdPeriph_Driver/src/stm32f4xx_cryp_aes.c ****     }
 958:/home/rdu/Workspace/project_templates/mcu/stm32_ws/src/libraries/STM32F4xx_StdPeriph_Driver/src/stm32f4xx_cryp_aes.c ****     
 959:/home/rdu/Workspace/project_templates/mcu/stm32_ws/src/libraries/STM32F4xx_StdPeriph_Driver/src/stm32f4xx_cryp_aes.c ****     /***************************** header phase *******************************/
 960:/home/rdu/Workspace/project_templates/mcu/stm32_ws/src/libraries/STM32F4xx_StdPeriph_Driver/src/stm32f4xx_cryp_aes.c ****     if(HLength != 0)
 2870              		.loc 1 960 0 is_stmt 1
 2871 0518 479B     		ldr	r3, [sp, #284]
 2872 051a 002B     		cmp	r3, #0
 2873 051c 55D0     		beq	.L181
 961:/home/rdu/Workspace/project_templates/mcu/stm32_ws/src/libraries/STM32F4xx_StdPeriph_Driver/src/stm32f4xx_cryp_aes.c ****     {
 962:/home/rdu/Workspace/project_templates/mcu/stm32_ws/src/libraries/STM32F4xx_StdPeriph_Driver/src/stm32f4xx_cryp_aes.c ****       /* Select header phase */
 963:/home/rdu/Workspace/project_templates/mcu/stm32_ws/src/libraries/STM32F4xx_StdPeriph_Driver/src/stm32f4xx_cryp_aes.c ****       CRYP_PhaseConfig(CRYP_Phase_Header);
 2874              		.loc 1 963 0
 2875 051e 4FF48030 		mov	r0, #65536
 2876 0522 FFF7FEFF 		bl	CRYP_PhaseConfig
 964:/home/rdu/Workspace/project_templates/mcu/stm32_ws/src/libraries/STM32F4xx_StdPeriph_Driver/src/stm32f4xx_cryp_aes.c ****       
 965:/home/rdu/Workspace/project_templates/mcu/stm32_ws/src/libraries/STM32F4xx_StdPeriph_Driver/src/stm32f4xx_cryp_aes.c ****       /* Enable Crypto processor */
 966:/home/rdu/Workspace/project_templates/mcu/stm32_ws/src/libraries/STM32F4xx_StdPeriph_Driver/src/stm32f4xx_cryp_aes.c ****       CRYP_Cmd(ENABLE);
 2877              		.loc 1 966 0
 2878 0526 0120     		movs	r0, #1
 2879 0528 FFF7FEFF 		bl	CRYP_Cmd
 967:/home/rdu/Workspace/project_templates/mcu/stm32_ws/src/libraries/STM32F4xx_StdPeriph_Driver/src/stm32f4xx_cryp_aes.c ****       
 968:/home/rdu/Workspace/project_templates/mcu/stm32_ws/src/libraries/STM32F4xx_StdPeriph_Driver/src/stm32f4xx_cryp_aes.c ****       if(CRYP_GetCmdStatus() == DISABLE)
 2880              		.loc 1 968 0
 2881 052c FFF7FEFF 		bl	CRYP_GetCmdStatus
 2882 0530 0346     		mov	r3, r0
 2883 0532 002B     		cmp	r3, #0
 2884 0534 01D1     		bne	.L182
 969:/home/rdu/Workspace/project_templates/mcu/stm32_ws/src/libraries/STM32F4xx_StdPeriph_Driver/src/stm32f4xx_cryp_aes.c ****       {
 970:/home/rdu/Workspace/project_templates/mcu/stm32_ws/src/libraries/STM32F4xx_StdPeriph_Driver/src/stm32f4xx_cryp_aes.c ****         /* The CRYP peripheral clock is not enabled or the device doesn't embed 
 971:/home/rdu/Workspace/project_templates/mcu/stm32_ws/src/libraries/STM32F4xx_StdPeriph_Driver/src/stm32f4xx_cryp_aes.c ****            the CRYP peripheral (please check the device sales type. */
 972:/home/rdu/Workspace/project_templates/mcu/stm32_ws/src/libraries/STM32F4xx_StdPeriph_Driver/src/stm32f4xx_cryp_aes.c ****         return(ERROR);
 2885              		.loc 1 972 0
 2886 0536 0023     		movs	r3, #0
 2887 0538 33E1     		b	.L204
 2888              	.L182:
 973:/home/rdu/Workspace/project_templates/mcu/stm32_ws/src/libraries/STM32F4xx_StdPeriph_Driver/src/stm32f4xx_cryp_aes.c ****       }
 974:/home/rdu/Workspace/project_templates/mcu/stm32_ws/src/libraries/STM32F4xx_StdPeriph_Driver/src/stm32f4xx_cryp_aes.c ****       
 975:/home/rdu/Workspace/project_templates/mcu/stm32_ws/src/libraries/STM32F4xx_StdPeriph_Driver/src/stm32f4xx_cryp_aes.c ****       for(loopcounter = 0; (loopcounter < HLength); loopcounter+=16)
 2889              		.loc 1 975 0
 2890 053a 0023     		movs	r3, #0
 2891 053c 3D93     		str	r3, [sp, #244]
 2892 053e 29E0     		b	.L183
 2893              	.L185:
 976:/home/rdu/Workspace/project_templates/mcu/stm32_ws/src/libraries/STM32F4xx_StdPeriph_Driver/src/stm32f4xx_cryp_aes.c ****       {
 977:/home/rdu/Workspace/project_templates/mcu/stm32_ws/src/libraries/STM32F4xx_StdPeriph_Driver/src/stm32f4xx_cryp_aes.c ****         /* Wait until the IFEM flag is reset */
 978:/home/rdu/Workspace/project_templates/mcu/stm32_ws/src/libraries/STM32F4xx_StdPeriph_Driver/src/stm32f4xx_cryp_aes.c ****         while(CRYP_GetFlagStatus(CRYP_FLAG_IFEM) == RESET)
 2894              		.loc 1 978 0
 2895 0540 00BF     		nop
 2896              	.L184:
 2897              		.loc 1 978 0 is_stmt 0 discriminator 1
 2898 0542 0120     		movs	r0, #1
 2899 0544 FFF7FEFF 		bl	CRYP_GetFlagStatus
 2900 0548 0346     		mov	r3, r0
 2901 054a 002B     		cmp	r3, #0
 2902 054c F9D0     		beq	.L184
 979:/home/rdu/Workspace/project_templates/mcu/stm32_ws/src/libraries/STM32F4xx_StdPeriph_Driver/src/stm32f4xx_cryp_aes.c ****         {
 980:/home/rdu/Workspace/project_templates/mcu/stm32_ws/src/libraries/STM32F4xx_StdPeriph_Driver/src/stm32f4xx_cryp_aes.c ****         }
 981:/home/rdu/Workspace/project_templates/mcu/stm32_ws/src/libraries/STM32F4xx_StdPeriph_Driver/src/stm32f4xx_cryp_aes.c ****         
 982:/home/rdu/Workspace/project_templates/mcu/stm32_ws/src/libraries/STM32F4xx_StdPeriph_Driver/src/stm32f4xx_cryp_aes.c ****         /* Write the Input block in the IN FIFO */
 983:/home/rdu/Workspace/project_templates/mcu/stm32_ws/src/libraries/STM32F4xx_StdPeriph_Driver/src/stm32f4xx_cryp_aes.c ****         CRYP_DataIn(*(uint32_t*)(headeraddr));
 2903              		.loc 1 983 0 is_stmt 1 discriminator 2
 2904 054e 3E9B     		ldr	r3, [sp, #248]
 2905 0550 1B68     		ldr	r3, [r3]
 2906 0552 1846     		mov	r0, r3
 2907 0554 FFF7FEFF 		bl	CRYP_DataIn
 984:/home/rdu/Workspace/project_templates/mcu/stm32_ws/src/libraries/STM32F4xx_StdPeriph_Driver/src/stm32f4xx_cryp_aes.c ****         headeraddr+=4;
 2908              		.loc 1 984 0 discriminator 2
 2909 0558 3E9B     		ldr	r3, [sp, #248]
 2910 055a 0433     		adds	r3, r3, #4
 2911 055c 3E93     		str	r3, [sp, #248]
 985:/home/rdu/Workspace/project_templates/mcu/stm32_ws/src/libraries/STM32F4xx_StdPeriph_Driver/src/stm32f4xx_cryp_aes.c ****         CRYP_DataIn(*(uint32_t*)(headeraddr));
 2912              		.loc 1 985 0 discriminator 2
 2913 055e 3E9B     		ldr	r3, [sp, #248]
 2914 0560 1B68     		ldr	r3, [r3]
 2915 0562 1846     		mov	r0, r3
 2916 0564 FFF7FEFF 		bl	CRYP_DataIn
 986:/home/rdu/Workspace/project_templates/mcu/stm32_ws/src/libraries/STM32F4xx_StdPeriph_Driver/src/stm32f4xx_cryp_aes.c ****         headeraddr+=4;
 2917              		.loc 1 986 0 discriminator 2
 2918 0568 3E9B     		ldr	r3, [sp, #248]
 2919 056a 0433     		adds	r3, r3, #4
 2920 056c 3E93     		str	r3, [sp, #248]
 987:/home/rdu/Workspace/project_templates/mcu/stm32_ws/src/libraries/STM32F4xx_StdPeriph_Driver/src/stm32f4xx_cryp_aes.c ****         CRYP_DataIn(*(uint32_t*)(headeraddr));
 2921              		.loc 1 987 0 discriminator 2
 2922 056e 3E9B     		ldr	r3, [sp, #248]
 2923 0570 1B68     		ldr	r3, [r3]
 2924 0572 1846     		mov	r0, r3
 2925 0574 FFF7FEFF 		bl	CRYP_DataIn
 988:/home/rdu/Workspace/project_templates/mcu/stm32_ws/src/libraries/STM32F4xx_StdPeriph_Driver/src/stm32f4xx_cryp_aes.c ****         headeraddr+=4;
 2926              		.loc 1 988 0 discriminator 2
 2927 0578 3E9B     		ldr	r3, [sp, #248]
 2928 057a 0433     		adds	r3, r3, #4
 2929 057c 3E93     		str	r3, [sp, #248]
 989:/home/rdu/Workspace/project_templates/mcu/stm32_ws/src/libraries/STM32F4xx_StdPeriph_Driver/src/stm32f4xx_cryp_aes.c ****         CRYP_DataIn(*(uint32_t*)(headeraddr));
 2930              		.loc 1 989 0 discriminator 2
 2931 057e 3E9B     		ldr	r3, [sp, #248]
 2932 0580 1B68     		ldr	r3, [r3]
 2933 0582 1846     		mov	r0, r3
 2934 0584 FFF7FEFF 		bl	CRYP_DataIn
 990:/home/rdu/Workspace/project_templates/mcu/stm32_ws/src/libraries/STM32F4xx_StdPeriph_Driver/src/stm32f4xx_cryp_aes.c ****         headeraddr+=4;
 2935              		.loc 1 990 0 discriminator 2
 2936 0588 3E9B     		ldr	r3, [sp, #248]
 2937 058a 0433     		adds	r3, r3, #4
 2938 058c 3E93     		str	r3, [sp, #248]
 975:/home/rdu/Workspace/project_templates/mcu/stm32_ws/src/libraries/STM32F4xx_StdPeriph_Driver/src/stm32f4xx_cryp_aes.c ****       {
 2939              		.loc 1 975 0 discriminator 2
 2940 058e 3D9B     		ldr	r3, [sp, #244]
 2941 0590 1033     		adds	r3, r3, #16
 2942 0592 3D93     		str	r3, [sp, #244]
 2943              	.L183:
 975:/home/rdu/Workspace/project_templates/mcu/stm32_ws/src/libraries/STM32F4xx_StdPeriph_Driver/src/stm32f4xx_cryp_aes.c ****       {
 2944              		.loc 1 975 0 is_stmt 0 discriminator 1
 2945 0594 3D9A     		ldr	r2, [sp, #244]
 2946 0596 479B     		ldr	r3, [sp, #284]
 2947 0598 9A42     		cmp	r2, r3
 2948 059a D1D3     		bcc	.L185
 991:/home/rdu/Workspace/project_templates/mcu/stm32_ws/src/libraries/STM32F4xx_StdPeriph_Driver/src/stm32f4xx_cryp_aes.c ****       }
 992:/home/rdu/Workspace/project_templates/mcu/stm32_ws/src/libraries/STM32F4xx_StdPeriph_Driver/src/stm32f4xx_cryp_aes.c ****       
 993:/home/rdu/Workspace/project_templates/mcu/stm32_ws/src/libraries/STM32F4xx_StdPeriph_Driver/src/stm32f4xx_cryp_aes.c ****       /* Wait until the complete message has been processed */
 994:/home/rdu/Workspace/project_templates/mcu/stm32_ws/src/libraries/STM32F4xx_StdPeriph_Driver/src/stm32f4xx_cryp_aes.c ****       counter = 0;
 2949              		.loc 1 994 0 is_stmt 1
 2950 059c 0023     		movs	r3, #0
 2951 059e 0593     		str	r3, [sp, #20]
 2952              	.L187:
 995:/home/rdu/Workspace/project_templates/mcu/stm32_ws/src/libraries/STM32F4xx_StdPeriph_Driver/src/stm32f4xx_cryp_aes.c ****       do
 996:/home/rdu/Workspace/project_templates/mcu/stm32_ws/src/libraries/STM32F4xx_StdPeriph_Driver/src/stm32f4xx_cryp_aes.c ****       {
 997:/home/rdu/Workspace/project_templates/mcu/stm32_ws/src/libraries/STM32F4xx_StdPeriph_Driver/src/stm32f4xx_cryp_aes.c ****         busystatus = CRYP_GetFlagStatus(CRYP_FLAG_BUSY);
 2953              		.loc 1 997 0 discriminator 2
 2954 05a0 1020     		movs	r0, #16
 2955 05a2 FFF7FEFF 		bl	CRYP_GetFlagStatus
 2956 05a6 0346     		mov	r3, r0
 2957 05a8 3C93     		str	r3, [sp, #240]
 998:/home/rdu/Workspace/project_templates/mcu/stm32_ws/src/libraries/STM32F4xx_StdPeriph_Driver/src/stm32f4xx_cryp_aes.c ****         counter++;
 2958              		.loc 1 998 0 discriminator 2
 2959 05aa 059B     		ldr	r3, [sp, #20]
 2960 05ac 0133     		adds	r3, r3, #1
 2961 05ae 0593     		str	r3, [sp, #20]
 999:/home/rdu/Workspace/project_templates/mcu/stm32_ws/src/libraries/STM32F4xx_StdPeriph_Driver/src/stm32f4xx_cryp_aes.c ****       }while ((counter != AESBUSY_TIMEOUT) && (busystatus != RESET));
 2962              		.loc 1 999 0 discriminator 2
 2963 05b0 059B     		ldr	r3, [sp, #20]
 2964 05b2 B3F5803F 		cmp	r3, #65536
 2965 05b6 02D0     		beq	.L186
 2966              		.loc 1 999 0 is_stmt 0 discriminator 1
 2967 05b8 3C9B     		ldr	r3, [sp, #240]
 2968 05ba 002B     		cmp	r3, #0
 2969 05bc F0D1     		bne	.L187
 2970              	.L186:
1000:/home/rdu/Workspace/project_templates/mcu/stm32_ws/src/libraries/STM32F4xx_StdPeriph_Driver/src/stm32f4xx_cryp_aes.c **** 
1001:/home/rdu/Workspace/project_templates/mcu/stm32_ws/src/libraries/STM32F4xx_StdPeriph_Driver/src/stm32f4xx_cryp_aes.c ****       if (busystatus != RESET)
 2971              		.loc 1 1001 0 is_stmt 1
 2972 05be 3C9B     		ldr	r3, [sp, #240]
 2973 05c0 002B     		cmp	r3, #0
 2974 05c2 02D0     		beq	.L181
1002:/home/rdu/Workspace/project_templates/mcu/stm32_ws/src/libraries/STM32F4xx_StdPeriph_Driver/src/stm32f4xx_cryp_aes.c ****       {
1003:/home/rdu/Workspace/project_templates/mcu/stm32_ws/src/libraries/STM32F4xx_StdPeriph_Driver/src/stm32f4xx_cryp_aes.c ****         status = ERROR;
 2975              		.loc 1 1003 0
 2976 05c4 0023     		movs	r3, #0
 2977 05c6 8DF80731 		strb	r3, [sp, #263]
 2978              	.L181:
1004:/home/rdu/Workspace/project_templates/mcu/stm32_ws/src/libraries/STM32F4xx_StdPeriph_Driver/src/stm32f4xx_cryp_aes.c ****       }
1005:/home/rdu/Workspace/project_templates/mcu/stm32_ws/src/libraries/STM32F4xx_StdPeriph_Driver/src/stm32f4xx_cryp_aes.c ****     }
1006:/home/rdu/Workspace/project_templates/mcu/stm32_ws/src/libraries/STM32F4xx_StdPeriph_Driver/src/stm32f4xx_cryp_aes.c ****     
1007:/home/rdu/Workspace/project_templates/mcu/stm32_ws/src/libraries/STM32F4xx_StdPeriph_Driver/src/stm32f4xx_cryp_aes.c ****     /**************************** payload phase *******************************/
1008:/home/rdu/Workspace/project_templates/mcu/stm32_ws/src/libraries/STM32F4xx_StdPeriph_Driver/src/stm32f4xx_cryp_aes.c ****     if(ILength != 0)
 2979              		.loc 1 1008 0
 2980 05ca 459B     		ldr	r3, [sp, #276]
 2981 05cc 002B     		cmp	r3, #0
 2982 05ce 00F08280 		beq	.L188
1009:/home/rdu/Workspace/project_templates/mcu/stm32_ws/src/libraries/STM32F4xx_StdPeriph_Driver/src/stm32f4xx_cryp_aes.c ****     {
1010:/home/rdu/Workspace/project_templates/mcu/stm32_ws/src/libraries/STM32F4xx_StdPeriph_Driver/src/stm32f4xx_cryp_aes.c ****       /* Select payload phase */
1011:/home/rdu/Workspace/project_templates/mcu/stm32_ws/src/libraries/STM32F4xx_StdPeriph_Driver/src/stm32f4xx_cryp_aes.c ****       CRYP_PhaseConfig(CRYP_Phase_Payload);
 2983              		.loc 1 1011 0
 2984 05d2 4FF40030 		mov	r0, #131072
 2985 05d6 FFF7FEFF 		bl	CRYP_PhaseConfig
1012:/home/rdu/Workspace/project_templates/mcu/stm32_ws/src/libraries/STM32F4xx_StdPeriph_Driver/src/stm32f4xx_cryp_aes.c **** 
1013:/home/rdu/Workspace/project_templates/mcu/stm32_ws/src/libraries/STM32F4xx_StdPeriph_Driver/src/stm32f4xx_cryp_aes.c ****       /* Enable Crypto processor */
1014:/home/rdu/Workspace/project_templates/mcu/stm32_ws/src/libraries/STM32F4xx_StdPeriph_Driver/src/stm32f4xx_cryp_aes.c ****       CRYP_Cmd(ENABLE);
 2986              		.loc 1 1014 0
 2987 05da 0120     		movs	r0, #1
 2988 05dc FFF7FEFF 		bl	CRYP_Cmd
1015:/home/rdu/Workspace/project_templates/mcu/stm32_ws/src/libraries/STM32F4xx_StdPeriph_Driver/src/stm32f4xx_cryp_aes.c ****       
1016:/home/rdu/Workspace/project_templates/mcu/stm32_ws/src/libraries/STM32F4xx_StdPeriph_Driver/src/stm32f4xx_cryp_aes.c ****       if(CRYP_GetCmdStatus() == DISABLE)
 2989              		.loc 1 1016 0
 2990 05e0 FFF7FEFF 		bl	CRYP_GetCmdStatus
 2991 05e4 0346     		mov	r3, r0
 2992 05e6 002B     		cmp	r3, #0
 2993 05e8 01D1     		bne	.L189
1017:/home/rdu/Workspace/project_templates/mcu/stm32_ws/src/libraries/STM32F4xx_StdPeriph_Driver/src/stm32f4xx_cryp_aes.c ****       {
1018:/home/rdu/Workspace/project_templates/mcu/stm32_ws/src/libraries/STM32F4xx_StdPeriph_Driver/src/stm32f4xx_cryp_aes.c ****         /* The CRYP peripheral clock is not enabled or the device doesn't embed 
1019:/home/rdu/Workspace/project_templates/mcu/stm32_ws/src/libraries/STM32F4xx_StdPeriph_Driver/src/stm32f4xx_cryp_aes.c ****            the CRYP peripheral (please check the device sales type. */
1020:/home/rdu/Workspace/project_templates/mcu/stm32_ws/src/libraries/STM32F4xx_StdPeriph_Driver/src/stm32f4xx_cryp_aes.c ****         return(ERROR);
 2994              		.loc 1 1020 0
 2995 05ea 0023     		movs	r3, #0
 2996 05ec D9E0     		b	.L204
 2997              	.L189:
1021:/home/rdu/Workspace/project_templates/mcu/stm32_ws/src/libraries/STM32F4xx_StdPeriph_Driver/src/stm32f4xx_cryp_aes.c ****       }
1022:/home/rdu/Workspace/project_templates/mcu/stm32_ws/src/libraries/STM32F4xx_StdPeriph_Driver/src/stm32f4xx_cryp_aes.c ****       
1023:/home/rdu/Workspace/project_templates/mcu/stm32_ws/src/libraries/STM32F4xx_StdPeriph_Driver/src/stm32f4xx_cryp_aes.c ****       for(loopcounter = 0; ((loopcounter < ILength) && (status != ERROR)); loopcounter+=16)
 2998              		.loc 1 1023 0
 2999 05ee 0023     		movs	r3, #0
 3000 05f0 3D93     		str	r3, [sp, #244]
 3001 05f2 68E0     		b	.L190
 3002              	.L197:
1024:/home/rdu/Workspace/project_templates/mcu/stm32_ws/src/libraries/STM32F4xx_StdPeriph_Driver/src/stm32f4xx_cryp_aes.c ****       {
1025:/home/rdu/Workspace/project_templates/mcu/stm32_ws/src/libraries/STM32F4xx_StdPeriph_Driver/src/stm32f4xx_cryp_aes.c ****         /* Wait until the IFEM flag is reset */
1026:/home/rdu/Workspace/project_templates/mcu/stm32_ws/src/libraries/STM32F4xx_StdPeriph_Driver/src/stm32f4xx_cryp_aes.c ****         while(CRYP_GetFlagStatus(CRYP_FLAG_IFEM) == RESET)
 3003              		.loc 1 1026 0
 3004 05f4 00BF     		nop
 3005              	.L191:
 3006              		.loc 1 1026 0 is_stmt 0 discriminator 1
 3007 05f6 0120     		movs	r0, #1
 3008 05f8 FFF7FEFF 		bl	CRYP_GetFlagStatus
 3009 05fc 0346     		mov	r3, r0
 3010 05fe 002B     		cmp	r3, #0
 3011 0600 F9D0     		beq	.L191
1027:/home/rdu/Workspace/project_templates/mcu/stm32_ws/src/libraries/STM32F4xx_StdPeriph_Driver/src/stm32f4xx_cryp_aes.c ****         {
1028:/home/rdu/Workspace/project_templates/mcu/stm32_ws/src/libraries/STM32F4xx_StdPeriph_Driver/src/stm32f4xx_cryp_aes.c ****         }
1029:/home/rdu/Workspace/project_templates/mcu/stm32_ws/src/libraries/STM32F4xx_StdPeriph_Driver/src/stm32f4xx_cryp_aes.c ****         /* Write the Input block in the IN FIFO */
1030:/home/rdu/Workspace/project_templates/mcu/stm32_ws/src/libraries/STM32F4xx_StdPeriph_Driver/src/stm32f4xx_cryp_aes.c ****         CRYP_DataIn(*(uint32_t*)(inputaddr));
 3012              		.loc 1 1030 0 is_stmt 1
 3013 0602 409B     		ldr	r3, [sp, #256]
 3014 0604 1B68     		ldr	r3, [r3]
 3015 0606 1846     		mov	r0, r3
 3016 0608 FFF7FEFF 		bl	CRYP_DataIn
1031:/home/rdu/Workspace/project_templates/mcu/stm32_ws/src/libraries/STM32F4xx_StdPeriph_Driver/src/stm32f4xx_cryp_aes.c ****         inputaddr+=4;
 3017              		.loc 1 1031 0
 3018 060c 409B     		ldr	r3, [sp, #256]
 3019 060e 0433     		adds	r3, r3, #4
 3020 0610 4093     		str	r3, [sp, #256]
1032:/home/rdu/Workspace/project_templates/mcu/stm32_ws/src/libraries/STM32F4xx_StdPeriph_Driver/src/stm32f4xx_cryp_aes.c ****         CRYP_DataIn(*(uint32_t*)(inputaddr));
 3021              		.loc 1 1032 0
 3022 0612 409B     		ldr	r3, [sp, #256]
 3023 0614 1B68     		ldr	r3, [r3]
 3024 0616 1846     		mov	r0, r3
 3025 0618 FFF7FEFF 		bl	CRYP_DataIn
1033:/home/rdu/Workspace/project_templates/mcu/stm32_ws/src/libraries/STM32F4xx_StdPeriph_Driver/src/stm32f4xx_cryp_aes.c ****         inputaddr+=4;
 3026              		.loc 1 1033 0
 3027 061c 409B     		ldr	r3, [sp, #256]
 3028 061e 0433     		adds	r3, r3, #4
 3029 0620 4093     		str	r3, [sp, #256]
1034:/home/rdu/Workspace/project_templates/mcu/stm32_ws/src/libraries/STM32F4xx_StdPeriph_Driver/src/stm32f4xx_cryp_aes.c ****         CRYP_DataIn(*(uint32_t*)(inputaddr));
 3030              		.loc 1 1034 0
 3031 0622 409B     		ldr	r3, [sp, #256]
 3032 0624 1B68     		ldr	r3, [r3]
 3033 0626 1846     		mov	r0, r3
 3034 0628 FFF7FEFF 		bl	CRYP_DataIn
1035:/home/rdu/Workspace/project_templates/mcu/stm32_ws/src/libraries/STM32F4xx_StdPeriph_Driver/src/stm32f4xx_cryp_aes.c ****         inputaddr+=4;
 3035              		.loc 1 1035 0
 3036 062c 409B     		ldr	r3, [sp, #256]
 3037 062e 0433     		adds	r3, r3, #4
 3038 0630 4093     		str	r3, [sp, #256]
1036:/home/rdu/Workspace/project_templates/mcu/stm32_ws/src/libraries/STM32F4xx_StdPeriph_Driver/src/stm32f4xx_cryp_aes.c ****         CRYP_DataIn(*(uint32_t*)(inputaddr));
 3039              		.loc 1 1036 0
 3040 0632 409B     		ldr	r3, [sp, #256]
 3041 0634 1B68     		ldr	r3, [r3]
 3042 0636 1846     		mov	r0, r3
 3043 0638 FFF7FEFF 		bl	CRYP_DataIn
1037:/home/rdu/Workspace/project_templates/mcu/stm32_ws/src/libraries/STM32F4xx_StdPeriph_Driver/src/stm32f4xx_cryp_aes.c ****         inputaddr+=4;
 3044              		.loc 1 1037 0
 3045 063c 409B     		ldr	r3, [sp, #256]
 3046 063e 0433     		adds	r3, r3, #4
 3047 0640 4093     		str	r3, [sp, #256]
1038:/home/rdu/Workspace/project_templates/mcu/stm32_ws/src/libraries/STM32F4xx_StdPeriph_Driver/src/stm32f4xx_cryp_aes.c ****         
1039:/home/rdu/Workspace/project_templates/mcu/stm32_ws/src/libraries/STM32F4xx_StdPeriph_Driver/src/stm32f4xx_cryp_aes.c ****         /* Wait until the complete message has been processed */
1040:/home/rdu/Workspace/project_templates/mcu/stm32_ws/src/libraries/STM32F4xx_StdPeriph_Driver/src/stm32f4xx_cryp_aes.c ****         counter = 0;
 3048              		.loc 1 1040 0
 3049 0642 0023     		movs	r3, #0
 3050 0644 0593     		str	r3, [sp, #20]
 3051              	.L193:
1041:/home/rdu/Workspace/project_templates/mcu/stm32_ws/src/libraries/STM32F4xx_StdPeriph_Driver/src/stm32f4xx_cryp_aes.c ****         do
1042:/home/rdu/Workspace/project_templates/mcu/stm32_ws/src/libraries/STM32F4xx_StdPeriph_Driver/src/stm32f4xx_cryp_aes.c ****         {
1043:/home/rdu/Workspace/project_templates/mcu/stm32_ws/src/libraries/STM32F4xx_StdPeriph_Driver/src/stm32f4xx_cryp_aes.c ****           busystatus = CRYP_GetFlagStatus(CRYP_FLAG_BUSY);
 3052              		.loc 1 1043 0 discriminator 2
 3053 0646 1020     		movs	r0, #16
 3054 0648 FFF7FEFF 		bl	CRYP_GetFlagStatus
 3055 064c 0346     		mov	r3, r0
 3056 064e 3C93     		str	r3, [sp, #240]
1044:/home/rdu/Workspace/project_templates/mcu/stm32_ws/src/libraries/STM32F4xx_StdPeriph_Driver/src/stm32f4xx_cryp_aes.c ****           counter++;
 3057              		.loc 1 1044 0 discriminator 2
 3058 0650 059B     		ldr	r3, [sp, #20]
 3059 0652 0133     		adds	r3, r3, #1
 3060 0654 0593     		str	r3, [sp, #20]
1045:/home/rdu/Workspace/project_templates/mcu/stm32_ws/src/libraries/STM32F4xx_StdPeriph_Driver/src/stm32f4xx_cryp_aes.c ****         }while ((counter != AESBUSY_TIMEOUT) && (busystatus != RESET));
 3061              		.loc 1 1045 0 discriminator 2
 3062 0656 059B     		ldr	r3, [sp, #20]
 3063 0658 B3F5803F 		cmp	r3, #65536
 3064 065c 02D0     		beq	.L192
 3065              		.loc 1 1045 0 is_stmt 0 discriminator 1
 3066 065e 3C9B     		ldr	r3, [sp, #240]
 3067 0660 002B     		cmp	r3, #0
 3068 0662 F0D1     		bne	.L193
 3069              	.L192:
1046:/home/rdu/Workspace/project_templates/mcu/stm32_ws/src/libraries/STM32F4xx_StdPeriph_Driver/src/stm32f4xx_cryp_aes.c **** 
1047:/home/rdu/Workspace/project_templates/mcu/stm32_ws/src/libraries/STM32F4xx_StdPeriph_Driver/src/stm32f4xx_cryp_aes.c ****         if (busystatus != RESET)
 3070              		.loc 1 1047 0 is_stmt 1
 3071 0664 3C9B     		ldr	r3, [sp, #240]
 3072 0666 002B     		cmp	r3, #0
 3073 0668 03D0     		beq	.L206
1048:/home/rdu/Workspace/project_templates/mcu/stm32_ws/src/libraries/STM32F4xx_StdPeriph_Driver/src/stm32f4xx_cryp_aes.c ****         {
1049:/home/rdu/Workspace/project_templates/mcu/stm32_ws/src/libraries/STM32F4xx_StdPeriph_Driver/src/stm32f4xx_cryp_aes.c ****           status = ERROR;
 3074              		.loc 1 1049 0
 3075 066a 0023     		movs	r3, #0
 3076 066c 8DF80731 		strb	r3, [sp, #263]
 3077 0670 26E0     		b	.L195
 3078              	.L206:
1050:/home/rdu/Workspace/project_templates/mcu/stm32_ws/src/libraries/STM32F4xx_StdPeriph_Driver/src/stm32f4xx_cryp_aes.c ****         }
1051:/home/rdu/Workspace/project_templates/mcu/stm32_ws/src/libraries/STM32F4xx_StdPeriph_Driver/src/stm32f4xx_cryp_aes.c ****         else
1052:/home/rdu/Workspace/project_templates/mcu/stm32_ws/src/libraries/STM32F4xx_StdPeriph_Driver/src/stm32f4xx_cryp_aes.c ****         {
1053:/home/rdu/Workspace/project_templates/mcu/stm32_ws/src/libraries/STM32F4xx_StdPeriph_Driver/src/stm32f4xx_cryp_aes.c ****           /* Wait until the OFNE flag is reset */
1054:/home/rdu/Workspace/project_templates/mcu/stm32_ws/src/libraries/STM32F4xx_StdPeriph_Driver/src/stm32f4xx_cryp_aes.c ****           while(CRYP_GetFlagStatus(CRYP_FLAG_OFNE) == RESET)
 3079              		.loc 1 1054 0
 3080 0672 00BF     		nop
 3081              	.L196:
 3082              		.loc 1 1054 0 is_stmt 0 discriminator 1
 3083 0674 0420     		movs	r0, #4
 3084 0676 FFF7FEFF 		bl	CRYP_GetFlagStatus
 3085 067a 0346     		mov	r3, r0
 3086 067c 002B     		cmp	r3, #0
 3087 067e F9D0     		beq	.L196
1055:/home/rdu/Workspace/project_templates/mcu/stm32_ws/src/libraries/STM32F4xx_StdPeriph_Driver/src/stm32f4xx_cryp_aes.c ****           {
1056:/home/rdu/Workspace/project_templates/mcu/stm32_ws/src/libraries/STM32F4xx_StdPeriph_Driver/src/stm32f4xx_cryp_aes.c ****           }
1057:/home/rdu/Workspace/project_templates/mcu/stm32_ws/src/libraries/STM32F4xx_StdPeriph_Driver/src/stm32f4xx_cryp_aes.c ****           
1058:/home/rdu/Workspace/project_templates/mcu/stm32_ws/src/libraries/STM32F4xx_StdPeriph_Driver/src/stm32f4xx_cryp_aes.c ****           /* Read the Output block from the Output FIFO */
1059:/home/rdu/Workspace/project_templates/mcu/stm32_ws/src/libraries/STM32F4xx_StdPeriph_Driver/src/stm32f4xx_cryp_aes.c ****           *(uint32_t*)(outputaddr) = CRYP_DataOut();
 3088              		.loc 1 1059 0 is_stmt 1
 3089 0680 3F9C     		ldr	r4, [sp, #252]
 3090 0682 FFF7FEFF 		bl	CRYP_DataOut
 3091 0686 0346     		mov	r3, r0
 3092 0688 2360     		str	r3, [r4]
1060:/home/rdu/Workspace/project_templates/mcu/stm32_ws/src/libraries/STM32F4xx_StdPeriph_Driver/src/stm32f4xx_cryp_aes.c ****           outputaddr+=4;
 3093              		.loc 1 1060 0
 3094 068a 3F9B     		ldr	r3, [sp, #252]
 3095 068c 0433     		adds	r3, r3, #4
 3096 068e 3F93     		str	r3, [sp, #252]
1061:/home/rdu/Workspace/project_templates/mcu/stm32_ws/src/libraries/STM32F4xx_StdPeriph_Driver/src/stm32f4xx_cryp_aes.c ****           *(uint32_t*)(outputaddr) = CRYP_DataOut();
 3097              		.loc 1 1061 0
 3098 0690 3F9C     		ldr	r4, [sp, #252]
 3099 0692 FFF7FEFF 		bl	CRYP_DataOut
 3100 0696 0346     		mov	r3, r0
 3101 0698 2360     		str	r3, [r4]
1062:/home/rdu/Workspace/project_templates/mcu/stm32_ws/src/libraries/STM32F4xx_StdPeriph_Driver/src/stm32f4xx_cryp_aes.c ****           outputaddr+=4;
 3102              		.loc 1 1062 0
 3103 069a 3F9B     		ldr	r3, [sp, #252]
 3104 069c 0433     		adds	r3, r3, #4
 3105 069e 3F93     		str	r3, [sp, #252]
1063:/home/rdu/Workspace/project_templates/mcu/stm32_ws/src/libraries/STM32F4xx_StdPeriph_Driver/src/stm32f4xx_cryp_aes.c ****           *(uint32_t*)(outputaddr) = CRYP_DataOut();
 3106              		.loc 1 1063 0
 3107 06a0 3F9C     		ldr	r4, [sp, #252]
 3108 06a2 FFF7FEFF 		bl	CRYP_DataOut
 3109 06a6 0346     		mov	r3, r0
 3110 06a8 2360     		str	r3, [r4]
1064:/home/rdu/Workspace/project_templates/mcu/stm32_ws/src/libraries/STM32F4xx_StdPeriph_Driver/src/stm32f4xx_cryp_aes.c ****           outputaddr+=4;
 3111              		.loc 1 1064 0
 3112 06aa 3F9B     		ldr	r3, [sp, #252]
 3113 06ac 0433     		adds	r3, r3, #4
 3114 06ae 3F93     		str	r3, [sp, #252]
1065:/home/rdu/Workspace/project_templates/mcu/stm32_ws/src/libraries/STM32F4xx_StdPeriph_Driver/src/stm32f4xx_cryp_aes.c ****           *(uint32_t*)(outputaddr) = CRYP_DataOut();
 3115              		.loc 1 1065 0
 3116 06b0 3F9C     		ldr	r4, [sp, #252]
 3117 06b2 FFF7FEFF 		bl	CRYP_DataOut
 3118 06b6 0346     		mov	r3, r0
 3119 06b8 2360     		str	r3, [r4]
1066:/home/rdu/Workspace/project_templates/mcu/stm32_ws/src/libraries/STM32F4xx_StdPeriph_Driver/src/stm32f4xx_cryp_aes.c ****           outputaddr+=4;
 3120              		.loc 1 1066 0
 3121 06ba 3F9B     		ldr	r3, [sp, #252]
 3122 06bc 0433     		adds	r3, r3, #4
 3123 06be 3F93     		str	r3, [sp, #252]
 3124              	.L195:
1023:/home/rdu/Workspace/project_templates/mcu/stm32_ws/src/libraries/STM32F4xx_StdPeriph_Driver/src/stm32f4xx_cryp_aes.c ****       {
 3125              		.loc 1 1023 0 discriminator 2
 3126 06c0 3D9B     		ldr	r3, [sp, #244]
 3127 06c2 1033     		adds	r3, r3, #16
 3128 06c4 3D93     		str	r3, [sp, #244]
 3129              	.L190:
1023:/home/rdu/Workspace/project_templates/mcu/stm32_ws/src/libraries/STM32F4xx_StdPeriph_Driver/src/stm32f4xx_cryp_aes.c ****       {
 3130              		.loc 1 1023 0 is_stmt 0 discriminator 1
 3131 06c6 3D9A     		ldr	r2, [sp, #244]
 3132 06c8 459B     		ldr	r3, [sp, #276]
 3133 06ca 9A42     		cmp	r2, r3
 3134 06cc 03D2     		bcs	.L188
1023:/home/rdu/Workspace/project_templates/mcu/stm32_ws/src/libraries/STM32F4xx_StdPeriph_Driver/src/stm32f4xx_cryp_aes.c ****       {
 3135              		.loc 1 1023 0 discriminator 3
 3136 06ce 9DF80731 		ldrb	r3, [sp, #263]	@ zero_extendqisi2
 3137 06d2 002B     		cmp	r3, #0
 3138 06d4 8ED1     		bne	.L197
 3139              	.L188:
1067:/home/rdu/Workspace/project_templates/mcu/stm32_ws/src/libraries/STM32F4xx_StdPeriph_Driver/src/stm32f4xx_cryp_aes.c ****         }
1068:/home/rdu/Workspace/project_templates/mcu/stm32_ws/src/libraries/STM32F4xx_StdPeriph_Driver/src/stm32f4xx_cryp_aes.c ****       }
1069:/home/rdu/Workspace/project_templates/mcu/stm32_ws/src/libraries/STM32F4xx_StdPeriph_Driver/src/stm32f4xx_cryp_aes.c ****     }
1070:/home/rdu/Workspace/project_templates/mcu/stm32_ws/src/libraries/STM32F4xx_StdPeriph_Driver/src/stm32f4xx_cryp_aes.c ****     
1071:/home/rdu/Workspace/project_templates/mcu/stm32_ws/src/libraries/STM32F4xx_StdPeriph_Driver/src/stm32f4xx_cryp_aes.c ****     /***************************** final phase ********************************/
1072:/home/rdu/Workspace/project_templates/mcu/stm32_ws/src/libraries/STM32F4xx_StdPeriph_Driver/src/stm32f4xx_cryp_aes.c ****     /* Select final phase */
1073:/home/rdu/Workspace/project_templates/mcu/stm32_ws/src/libraries/STM32F4xx_StdPeriph_Driver/src/stm32f4xx_cryp_aes.c ****     CRYP_PhaseConfig(CRYP_Phase_Final);
 3140              		.loc 1 1073 0 is_stmt 1
 3141 06d6 4FF44030 		mov	r0, #196608
 3142 06da FFF7FEFF 		bl	CRYP_PhaseConfig
1074:/home/rdu/Workspace/project_templates/mcu/stm32_ws/src/libraries/STM32F4xx_StdPeriph_Driver/src/stm32f4xx_cryp_aes.c **** 
1075:/home/rdu/Workspace/project_templates/mcu/stm32_ws/src/libraries/STM32F4xx_StdPeriph_Driver/src/stm32f4xx_cryp_aes.c ****     /* Enable Crypto processor */
1076:/home/rdu/Workspace/project_templates/mcu/stm32_ws/src/libraries/STM32F4xx_StdPeriph_Driver/src/stm32f4xx_cryp_aes.c ****     CRYP_Cmd(ENABLE);
 3143              		.loc 1 1076 0
 3144 06de 0120     		movs	r0, #1
 3145 06e0 FFF7FEFF 		bl	CRYP_Cmd
1077:/home/rdu/Workspace/project_templates/mcu/stm32_ws/src/libraries/STM32F4xx_StdPeriph_Driver/src/stm32f4xx_cryp_aes.c ****     
1078:/home/rdu/Workspace/project_templates/mcu/stm32_ws/src/libraries/STM32F4xx_StdPeriph_Driver/src/stm32f4xx_cryp_aes.c ****     if(CRYP_GetCmdStatus() == DISABLE)
 3146              		.loc 1 1078 0
 3147 06e4 FFF7FEFF 		bl	CRYP_GetCmdStatus
 3148 06e8 0346     		mov	r3, r0
 3149 06ea 002B     		cmp	r3, #0
 3150 06ec 01D1     		bne	.L198
1079:/home/rdu/Workspace/project_templates/mcu/stm32_ws/src/libraries/STM32F4xx_StdPeriph_Driver/src/stm32f4xx_cryp_aes.c ****     {
1080:/home/rdu/Workspace/project_templates/mcu/stm32_ws/src/libraries/STM32F4xx_StdPeriph_Driver/src/stm32f4xx_cryp_aes.c ****       /* The CRYP peripheral clock is not enabled or the device doesn't embed 
1081:/home/rdu/Workspace/project_templates/mcu/stm32_ws/src/libraries/STM32F4xx_StdPeriph_Driver/src/stm32f4xx_cryp_aes.c ****          the CRYP peripheral (please check the device sales type. */
1082:/home/rdu/Workspace/project_templates/mcu/stm32_ws/src/libraries/STM32F4xx_StdPeriph_Driver/src/stm32f4xx_cryp_aes.c ****       return(ERROR);
 3151              		.loc 1 1082 0
 3152 06ee 0023     		movs	r3, #0
 3153 06f0 57E0     		b	.L204
 3154              	.L198:
1083:/home/rdu/Workspace/project_templates/mcu/stm32_ws/src/libraries/STM32F4xx_StdPeriph_Driver/src/stm32f4xx_cryp_aes.c ****     }
1084:/home/rdu/Workspace/project_templates/mcu/stm32_ws/src/libraries/STM32F4xx_StdPeriph_Driver/src/stm32f4xx_cryp_aes.c ****     
1085:/home/rdu/Workspace/project_templates/mcu/stm32_ws/src/libraries/STM32F4xx_StdPeriph_Driver/src/stm32f4xx_cryp_aes.c ****     /* Write number of bits concatenated with header in the IN FIFO */
1086:/home/rdu/Workspace/project_templates/mcu/stm32_ws/src/libraries/STM32F4xx_StdPeriph_Driver/src/stm32f4xx_cryp_aes.c ****     CRYP_DataIn(__REV(headerlength>>32));
 3155              		.loc 1 1086 0
 3156 06f2 DDE93612 		ldrd	r1, [sp, #216]
 3157 06f6 4FF00003 		mov	r3, #0
 3158 06fa 4FF00004 		mov	r4, #0
 3159 06fe 1300     		movs	r3, r2
 3160 0700 0024     		movs	r4, #0
 3161 0702 1693     		str	r3, [sp, #88]
 3162              	.LBB406:
 3163              	.LBB407:
 3164              		.loc 2 498 0
 3165 0704 169B     		ldr	r3, [sp, #88]
 3166 0706 1BBA     		rev	r3, r3
 3167              	.LBE407:
 3168              	.LBE406:
 3169              		.loc 1 1086 0
 3170 0708 1846     		mov	r0, r3
 3171 070a FFF7FEFF 		bl	CRYP_DataIn
1087:/home/rdu/Workspace/project_templates/mcu/stm32_ws/src/libraries/STM32F4xx_StdPeriph_Driver/src/stm32f4xx_cryp_aes.c ****     CRYP_DataIn(__REV(headerlength));
 3172              		.loc 1 1087 0
 3173 070e 369B     		ldr	r3, [sp, #216]
 3174 0710 1793     		str	r3, [sp, #92]
 3175              	.LBB408:
 3176              	.LBB409:
 3177              		.loc 2 498 0
 3178 0712 179B     		ldr	r3, [sp, #92]
 3179 0714 1BBA     		rev	r3, r3
 3180              	.LBE409:
 3181              	.LBE408:
 3182              		.loc 1 1087 0
 3183 0716 1846     		mov	r0, r3
 3184 0718 FFF7FEFF 		bl	CRYP_DataIn
1088:/home/rdu/Workspace/project_templates/mcu/stm32_ws/src/libraries/STM32F4xx_StdPeriph_Driver/src/stm32f4xx_cryp_aes.c ****     CRYP_DataIn(__REV(inputlength>>32));
 3185              		.loc 1 1088 0
 3186 071c DDE93412 		ldrd	r1, [sp, #208]
 3187 0720 4FF00003 		mov	r3, #0
 3188 0724 4FF00004 		mov	r4, #0
 3189 0728 1300     		movs	r3, r2
 3190 072a 0024     		movs	r4, #0
 3191 072c 1893     		str	r3, [sp, #96]
 3192              	.LBB410:
 3193              	.LBB411:
 3194              		.loc 2 498 0
 3195 072e 189B     		ldr	r3, [sp, #96]
 3196 0730 1BBA     		rev	r3, r3
 3197              	.LBE411:
 3198              	.LBE410:
 3199              		.loc 1 1088 0
 3200 0732 1846     		mov	r0, r3
 3201 0734 FFF7FEFF 		bl	CRYP_DataIn
1089:/home/rdu/Workspace/project_templates/mcu/stm32_ws/src/libraries/STM32F4xx_StdPeriph_Driver/src/stm32f4xx_cryp_aes.c ****     CRYP_DataIn(__REV(inputlength));
 3202              		.loc 1 1089 0
 3203 0738 349B     		ldr	r3, [sp, #208]
 3204 073a 1993     		str	r3, [sp, #100]
 3205              	.LBB412:
 3206              	.LBB413:
 3207              		.loc 2 498 0
 3208 073c 199B     		ldr	r3, [sp, #100]
 3209 073e 1BBA     		rev	r3, r3
 3210              	.LBE413:
 3211              	.LBE412:
 3212              		.loc 1 1089 0
 3213 0740 1846     		mov	r0, r3
 3214 0742 FFF7FEFF 		bl	CRYP_DataIn
1090:/home/rdu/Workspace/project_templates/mcu/stm32_ws/src/libraries/STM32F4xx_StdPeriph_Driver/src/stm32f4xx_cryp_aes.c ****     /* Wait until the OFNE flag is reset */
1091:/home/rdu/Workspace/project_templates/mcu/stm32_ws/src/libraries/STM32F4xx_StdPeriph_Driver/src/stm32f4xx_cryp_aes.c ****     while(CRYP_GetFlagStatus(CRYP_FLAG_OFNE) == RESET)
 3215              		.loc 1 1091 0
 3216 0746 00BF     		nop
 3217              	.L203:
 3218              		.loc 1 1091 0 is_stmt 0 discriminator 1
 3219 0748 0420     		movs	r0, #4
 3220 074a FFF7FEFF 		bl	CRYP_GetFlagStatus
 3221 074e 0346     		mov	r3, r0
 3222 0750 002B     		cmp	r3, #0
 3223 0752 F9D0     		beq	.L203
1092:/home/rdu/Workspace/project_templates/mcu/stm32_ws/src/libraries/STM32F4xx_StdPeriph_Driver/src/stm32f4xx_cryp_aes.c ****     {
1093:/home/rdu/Workspace/project_templates/mcu/stm32_ws/src/libraries/STM32F4xx_StdPeriph_Driver/src/stm32f4xx_cryp_aes.c ****     }
1094:/home/rdu/Workspace/project_templates/mcu/stm32_ws/src/libraries/STM32F4xx_StdPeriph_Driver/src/stm32f4xx_cryp_aes.c ****     
1095:/home/rdu/Workspace/project_templates/mcu/stm32_ws/src/libraries/STM32F4xx_StdPeriph_Driver/src/stm32f4xx_cryp_aes.c ****     tagaddr = (uint32_t)AuthTAG;
 3224              		.loc 1 1095 0 is_stmt 1
 3225 0754 499B     		ldr	r3, [sp, #292]
 3226 0756 3993     		str	r3, [sp, #228]
1096:/home/rdu/Workspace/project_templates/mcu/stm32_ws/src/libraries/STM32F4xx_StdPeriph_Driver/src/stm32f4xx_cryp_aes.c ****     /* Read the Auth TAG in the IN FIFO */
1097:/home/rdu/Workspace/project_templates/mcu/stm32_ws/src/libraries/STM32F4xx_StdPeriph_Driver/src/stm32f4xx_cryp_aes.c ****     *(uint32_t*)(tagaddr) = CRYP_DataOut();
 3227              		.loc 1 1097 0
 3228 0758 399C     		ldr	r4, [sp, #228]
 3229 075a FFF7FEFF 		bl	CRYP_DataOut
 3230 075e 0346     		mov	r3, r0
 3231 0760 2360     		str	r3, [r4]
1098:/home/rdu/Workspace/project_templates/mcu/stm32_ws/src/libraries/STM32F4xx_StdPeriph_Driver/src/stm32f4xx_cryp_aes.c ****     tagaddr+=4;
 3232              		.loc 1 1098 0
 3233 0762 399B     		ldr	r3, [sp, #228]
 3234 0764 0433     		adds	r3, r3, #4
 3235 0766 3993     		str	r3, [sp, #228]
1099:/home/rdu/Workspace/project_templates/mcu/stm32_ws/src/libraries/STM32F4xx_StdPeriph_Driver/src/stm32f4xx_cryp_aes.c ****     *(uint32_t*)(tagaddr) = CRYP_DataOut();
 3236              		.loc 1 1099 0
 3237 0768 399C     		ldr	r4, [sp, #228]
 3238 076a FFF7FEFF 		bl	CRYP_DataOut
 3239 076e 0346     		mov	r3, r0
 3240 0770 2360     		str	r3, [r4]
1100:/home/rdu/Workspace/project_templates/mcu/stm32_ws/src/libraries/STM32F4xx_StdPeriph_Driver/src/stm32f4xx_cryp_aes.c ****     tagaddr+=4;
 3241              		.loc 1 1100 0
 3242 0772 399B     		ldr	r3, [sp, #228]
 3243 0774 0433     		adds	r3, r3, #4
 3244 0776 3993     		str	r3, [sp, #228]
1101:/home/rdu/Workspace/project_templates/mcu/stm32_ws/src/libraries/STM32F4xx_StdPeriph_Driver/src/stm32f4xx_cryp_aes.c ****     *(uint32_t*)(tagaddr) = CRYP_DataOut();
 3245              		.loc 1 1101 0
 3246 0778 399C     		ldr	r4, [sp, #228]
 3247 077a FFF7FEFF 		bl	CRYP_DataOut
 3248 077e 0346     		mov	r3, r0
 3249 0780 2360     		str	r3, [r4]
1102:/home/rdu/Workspace/project_templates/mcu/stm32_ws/src/libraries/STM32F4xx_StdPeriph_Driver/src/stm32f4xx_cryp_aes.c ****     tagaddr+=4;
 3250              		.loc 1 1102 0
 3251 0782 399B     		ldr	r3, [sp, #228]
 3252 0784 0433     		adds	r3, r3, #4
 3253 0786 3993     		str	r3, [sp, #228]
1103:/home/rdu/Workspace/project_templates/mcu/stm32_ws/src/libraries/STM32F4xx_StdPeriph_Driver/src/stm32f4xx_cryp_aes.c ****     *(uint32_t*)(tagaddr) = CRYP_DataOut();
 3254              		.loc 1 1103 0
 3255 0788 399C     		ldr	r4, [sp, #228]
 3256 078a FFF7FEFF 		bl	CRYP_DataOut
 3257 078e 0346     		mov	r3, r0
 3258 0790 2360     		str	r3, [r4]
1104:/home/rdu/Workspace/project_templates/mcu/stm32_ws/src/libraries/STM32F4xx_StdPeriph_Driver/src/stm32f4xx_cryp_aes.c ****     tagaddr+=4;
 3259              		.loc 1 1104 0
 3260 0792 399B     		ldr	r3, [sp, #228]
 3261 0794 0433     		adds	r3, r3, #4
 3262 0796 3993     		str	r3, [sp, #228]
 3263              	.L179:
1105:/home/rdu/Workspace/project_templates/mcu/stm32_ws/src/libraries/STM32F4xx_StdPeriph_Driver/src/stm32f4xx_cryp_aes.c ****   }
1106:/home/rdu/Workspace/project_templates/mcu/stm32_ws/src/libraries/STM32F4xx_StdPeriph_Driver/src/stm32f4xx_cryp_aes.c ****   /* Disable Crypto */
1107:/home/rdu/Workspace/project_templates/mcu/stm32_ws/src/libraries/STM32F4xx_StdPeriph_Driver/src/stm32f4xx_cryp_aes.c ****   CRYP_Cmd(DISABLE);
 3264              		.loc 1 1107 0
 3265 0798 0020     		movs	r0, #0
 3266 079a FFF7FEFF 		bl	CRYP_Cmd
1108:/home/rdu/Workspace/project_templates/mcu/stm32_ws/src/libraries/STM32F4xx_StdPeriph_Driver/src/stm32f4xx_cryp_aes.c **** 
1109:/home/rdu/Workspace/project_templates/mcu/stm32_ws/src/libraries/STM32F4xx_StdPeriph_Driver/src/stm32f4xx_cryp_aes.c ****   return status;
 3267              		.loc 1 1109 0
 3268 079e 9DF80731 		ldrb	r3, [sp, #263]	@ zero_extendqisi2
 3269              	.L204:
1110:/home/rdu/Workspace/project_templates/mcu/stm32_ws/src/libraries/STM32F4xx_StdPeriph_Driver/src/stm32f4xx_cryp_aes.c **** }
 3270              		.loc 1 1110 0 discriminator 1
 3271 07a2 1846     		mov	r0, r3
 3272 07a4 42B0     		add	sp, sp, #264
 3273              	.LCFI11:
 3274              		.cfi_def_cfa_offset 8
 3275              		@ sp needed
 3276 07a6 10BD     		pop	{r4, pc}
 3277              		.cfi_endproc
 3278              	.LFE126:
 3280              		.section	.text.CRYP_AES_CCM,"ax",%progbits
 3281              		.align	1
 3282              		.global	CRYP_AES_CCM
 3283              		.syntax unified
 3284              		.thumb
 3285              		.thumb_func
 3286              		.fpu fpv4-sp-d16
 3288              	CRYP_AES_CCM:
 3289              	.LFB127:
1111:/home/rdu/Workspace/project_templates/mcu/stm32_ws/src/libraries/STM32F4xx_StdPeriph_Driver/src/stm32f4xx_cryp_aes.c **** 
1112:/home/rdu/Workspace/project_templates/mcu/stm32_ws/src/libraries/STM32F4xx_StdPeriph_Driver/src/stm32f4xx_cryp_aes.c **** /**
1113:/home/rdu/Workspace/project_templates/mcu/stm32_ws/src/libraries/STM32F4xx_StdPeriph_Driver/src/stm32f4xx_cryp_aes.c ****   * @brief  Encrypt and decrypt using AES in CCM Mode. The GCM and CCM modes
1114:/home/rdu/Workspace/project_templates/mcu/stm32_ws/src/libraries/STM32F4xx_StdPeriph_Driver/src/stm32f4xx_cryp_aes.c ****   *         are available only on STM32F437x Devices.
1115:/home/rdu/Workspace/project_templates/mcu/stm32_ws/src/libraries/STM32F4xx_StdPeriph_Driver/src/stm32f4xx_cryp_aes.c ****   * @param  Mode: encryption or decryption Mode.
1116:/home/rdu/Workspace/project_templates/mcu/stm32_ws/src/libraries/STM32F4xx_StdPeriph_Driver/src/stm32f4xx_cryp_aes.c ****   *          This parameter can be one of the following values:
1117:/home/rdu/Workspace/project_templates/mcu/stm32_ws/src/libraries/STM32F4xx_StdPeriph_Driver/src/stm32f4xx_cryp_aes.c ****   *            @arg MODE_ENCRYPT: Encryption
1118:/home/rdu/Workspace/project_templates/mcu/stm32_ws/src/libraries/STM32F4xx_StdPeriph_Driver/src/stm32f4xx_cryp_aes.c ****   *            @arg MODE_DECRYPT: Decryption
1119:/home/rdu/Workspace/project_templates/mcu/stm32_ws/src/libraries/STM32F4xx_StdPeriph_Driver/src/stm32f4xx_cryp_aes.c ****   * @param  Nonce: the nonce used for AES algorithm. It shall be unique for each processing.
1120:/home/rdu/Workspace/project_templates/mcu/stm32_ws/src/libraries/STM32F4xx_StdPeriph_Driver/src/stm32f4xx_cryp_aes.c ****   * @param  Key: Key used for AES algorithm.
1121:/home/rdu/Workspace/project_templates/mcu/stm32_ws/src/libraries/STM32F4xx_StdPeriph_Driver/src/stm32f4xx_cryp_aes.c ****   * @param  Keysize: length of the Key, must be a 128, 192 or 256.
1122:/home/rdu/Workspace/project_templates/mcu/stm32_ws/src/libraries/STM32F4xx_StdPeriph_Driver/src/stm32f4xx_cryp_aes.c ****   * @param  Input: pointer to the Input buffer.
1123:/home/rdu/Workspace/project_templates/mcu/stm32_ws/src/libraries/STM32F4xx_StdPeriph_Driver/src/stm32f4xx_cryp_aes.c ****   * @param  Ilength: length of the Input buffer in bytes, must be a multiple of 16.
1124:/home/rdu/Workspace/project_templates/mcu/stm32_ws/src/libraries/STM32F4xx_StdPeriph_Driver/src/stm32f4xx_cryp_aes.c ****   * @param  Header: pointer to the header buffer.
1125:/home/rdu/Workspace/project_templates/mcu/stm32_ws/src/libraries/STM32F4xx_StdPeriph_Driver/src/stm32f4xx_cryp_aes.c ****   * @param  Hlength: length of the header buffer in bytes.
1126:/home/rdu/Workspace/project_templates/mcu/stm32_ws/src/libraries/STM32F4xx_StdPeriph_Driver/src/stm32f4xx_cryp_aes.c ****   * @param  HBuffer: pointer to temporary buffer used to append the header
1127:/home/rdu/Workspace/project_templates/mcu/stm32_ws/src/libraries/STM32F4xx_StdPeriph_Driver/src/stm32f4xx_cryp_aes.c ****   *         HBuffer size must be equal to Hlength + 21
1128:/home/rdu/Workspace/project_templates/mcu/stm32_ws/src/libraries/STM32F4xx_StdPeriph_Driver/src/stm32f4xx_cryp_aes.c ****   * @param  Output: pointer to the returned buffer.
1129:/home/rdu/Workspace/project_templates/mcu/stm32_ws/src/libraries/STM32F4xx_StdPeriph_Driver/src/stm32f4xx_cryp_aes.c ****   * @param  AuthTAG: pointer to the authentication TAG buffer.
1130:/home/rdu/Workspace/project_templates/mcu/stm32_ws/src/libraries/STM32F4xx_StdPeriph_Driver/src/stm32f4xx_cryp_aes.c ****   * @param  TAGSize: the size of the TAG (called also MAC).
1131:/home/rdu/Workspace/project_templates/mcu/stm32_ws/src/libraries/STM32F4xx_StdPeriph_Driver/src/stm32f4xx_cryp_aes.c ****   * @retval An ErrorStatus enumeration value:
1132:/home/rdu/Workspace/project_templates/mcu/stm32_ws/src/libraries/STM32F4xx_StdPeriph_Driver/src/stm32f4xx_cryp_aes.c ****   *          - SUCCESS: Operation done
1133:/home/rdu/Workspace/project_templates/mcu/stm32_ws/src/libraries/STM32F4xx_StdPeriph_Driver/src/stm32f4xx_cryp_aes.c ****   *          - ERROR: Operation failed
1134:/home/rdu/Workspace/project_templates/mcu/stm32_ws/src/libraries/STM32F4xx_StdPeriph_Driver/src/stm32f4xx_cryp_aes.c ****   */
1135:/home/rdu/Workspace/project_templates/mcu/stm32_ws/src/libraries/STM32F4xx_StdPeriph_Driver/src/stm32f4xx_cryp_aes.c **** ErrorStatus CRYP_AES_CCM(uint8_t Mode, 
1136:/home/rdu/Workspace/project_templates/mcu/stm32_ws/src/libraries/STM32F4xx_StdPeriph_Driver/src/stm32f4xx_cryp_aes.c ****                          uint8_t* Nonce, uint32_t NonceSize,
1137:/home/rdu/Workspace/project_templates/mcu/stm32_ws/src/libraries/STM32F4xx_StdPeriph_Driver/src/stm32f4xx_cryp_aes.c ****                          uint8_t *Key, uint16_t Keysize,
1138:/home/rdu/Workspace/project_templates/mcu/stm32_ws/src/libraries/STM32F4xx_StdPeriph_Driver/src/stm32f4xx_cryp_aes.c ****                          uint8_t *Input, uint32_t ILength,
1139:/home/rdu/Workspace/project_templates/mcu/stm32_ws/src/libraries/STM32F4xx_StdPeriph_Driver/src/stm32f4xx_cryp_aes.c ****                          uint8_t *Header, uint32_t HLength, uint8_t *HBuffer,
1140:/home/rdu/Workspace/project_templates/mcu/stm32_ws/src/libraries/STM32F4xx_StdPeriph_Driver/src/stm32f4xx_cryp_aes.c ****                          uint8_t *Output,
1141:/home/rdu/Workspace/project_templates/mcu/stm32_ws/src/libraries/STM32F4xx_StdPeriph_Driver/src/stm32f4xx_cryp_aes.c ****                          uint8_t *AuthTAG, uint32_t TAGSize)
1142:/home/rdu/Workspace/project_templates/mcu/stm32_ws/src/libraries/STM32F4xx_StdPeriph_Driver/src/stm32f4xx_cryp_aes.c **** {
 3290              		.loc 1 1142 0
 3291              		.cfi_startproc
 3292              		@ args = 36, pretend = 0, frame = 272
 3293              		@ frame_needed = 0, uses_anonymous_args = 0
 3294 0000 10B5     		push	{r4, lr}
 3295              	.LCFI12:
 3296              		.cfi_def_cfa_offset 8
 3297              		.cfi_offset 4, -8
 3298              		.cfi_offset 14, -4
 3299 0002 C4B0     		sub	sp, sp, #272
 3300              	.LCFI13:
 3301              		.cfi_def_cfa_offset 280
 3302 0004 0446     		mov	r4, r0
 3303 0006 02A8     		add	r0, sp, #8
 3304 0008 0160     		str	r1, [r0]
 3305 000a 01A9     		add	r1, sp, #4
 3306 000c 0A60     		str	r2, [r1]
 3307 000e 6A46     		mov	r2, sp
 3308 0010 1360     		str	r3, [r2]
 3309 0012 0DF10F03 		add	r3, sp, #15
 3310 0016 2246     		mov	r2, r4
 3311 0018 1A70     		strb	r2, [r3]
1143:/home/rdu/Workspace/project_templates/mcu/stm32_ws/src/libraries/STM32F4xx_StdPeriph_Driver/src/stm32f4xx_cryp_aes.c ****   CRYP_InitTypeDef AES_CRYP_InitStructure;
1144:/home/rdu/Workspace/project_templates/mcu/stm32_ws/src/libraries/STM32F4xx_StdPeriph_Driver/src/stm32f4xx_cryp_aes.c ****   CRYP_KeyInitTypeDef AES_CRYP_KeyInitStructure;
1145:/home/rdu/Workspace/project_templates/mcu/stm32_ws/src/libraries/STM32F4xx_StdPeriph_Driver/src/stm32f4xx_cryp_aes.c ****   CRYP_IVInitTypeDef AES_CRYP_IVInitStructure;
1146:/home/rdu/Workspace/project_templates/mcu/stm32_ws/src/libraries/STM32F4xx_StdPeriph_Driver/src/stm32f4xx_cryp_aes.c ****   __IO uint32_t counter = 0;
 3312              		.loc 1 1146 0
 3313 001a 0023     		movs	r3, #0
 3314 001c 1193     		str	r3, [sp, #68]
1147:/home/rdu/Workspace/project_templates/mcu/stm32_ws/src/libraries/STM32F4xx_StdPeriph_Driver/src/stm32f4xx_cryp_aes.c ****   uint32_t busystatus = 0;
 3315              		.loc 1 1147 0
 3316 001e 0023     		movs	r3, #0
 3317 0020 3C93     		str	r3, [sp, #240]
1148:/home/rdu/Workspace/project_templates/mcu/stm32_ws/src/libraries/STM32F4xx_StdPeriph_Driver/src/stm32f4xx_cryp_aes.c ****   ErrorStatus status = SUCCESS;
 3318              		.loc 1 1148 0
 3319 0022 0123     		movs	r3, #1
 3320 0024 8DF80F31 		strb	r3, [sp, #271]
1149:/home/rdu/Workspace/project_templates/mcu/stm32_ws/src/libraries/STM32F4xx_StdPeriph_Driver/src/stm32f4xx_cryp_aes.c ****   uint32_t keyaddr    = (uint32_t)Key;
 3321              		.loc 1 1149 0
 3322 0028 6B46     		mov	r3, sp
 3323 002a 1B68     		ldr	r3, [r3]
 3324 002c 3B93     		str	r3, [sp, #236]
1150:/home/rdu/Workspace/project_templates/mcu/stm32_ws/src/libraries/STM32F4xx_StdPeriph_Driver/src/stm32f4xx_cryp_aes.c ****   uint32_t inputaddr  = (uint32_t)Input;
 3325              		.loc 1 1150 0
 3326 002e 479B     		ldr	r3, [sp, #284]
 3327 0030 4293     		str	r3, [sp, #264]
1151:/home/rdu/Workspace/project_templates/mcu/stm32_ws/src/libraries/STM32F4xx_StdPeriph_Driver/src/stm32f4xx_cryp_aes.c ****   uint32_t outputaddr = (uint32_t)Output;
 3328              		.loc 1 1151 0
 3329 0032 4C9B     		ldr	r3, [sp, #304]
 3330 0034 4193     		str	r3, [sp, #260]
1152:/home/rdu/Workspace/project_templates/mcu/stm32_ws/src/libraries/STM32F4xx_StdPeriph_Driver/src/stm32f4xx_cryp_aes.c ****   uint32_t headeraddr = (uint32_t)Header;
 3331              		.loc 1 1152 0
 3332 0036 499B     		ldr	r3, [sp, #292]
 3333 0038 4093     		str	r3, [sp, #256]
1153:/home/rdu/Workspace/project_templates/mcu/stm32_ws/src/libraries/STM32F4xx_StdPeriph_Driver/src/stm32f4xx_cryp_aes.c ****   uint32_t tagaddr = (uint32_t)AuthTAG;
 3334              		.loc 1 1153 0
 3335 003a 4D9B     		ldr	r3, [sp, #308]
 3336 003c 3A93     		str	r3, [sp, #232]
1154:/home/rdu/Workspace/project_templates/mcu/stm32_ws/src/libraries/STM32F4xx_StdPeriph_Driver/src/stm32f4xx_cryp_aes.c ****   uint32_t headersize = HLength;
 3337              		.loc 1 1154 0
 3338 003e 4A9B     		ldr	r3, [sp, #296]
 3339 0040 3F93     		str	r3, [sp, #252]
1155:/home/rdu/Workspace/project_templates/mcu/stm32_ws/src/libraries/STM32F4xx_StdPeriph_Driver/src/stm32f4xx_cryp_aes.c ****   uint32_t loopcounter = 0;
 3340              		.loc 1 1155 0
 3341 0042 0023     		movs	r3, #0
 3342 0044 3E93     		str	r3, [sp, #248]
1156:/home/rdu/Workspace/project_templates/mcu/stm32_ws/src/libraries/STM32F4xx_StdPeriph_Driver/src/stm32f4xx_cryp_aes.c ****   uint32_t bufferidx = 0;
 3343              		.loc 1 1156 0
 3344 0046 0023     		movs	r3, #0
 3345 0048 3D93     		str	r3, [sp, #244]
1157:/home/rdu/Workspace/project_templates/mcu/stm32_ws/src/libraries/STM32F4xx_StdPeriph_Driver/src/stm32f4xx_cryp_aes.c ****   uint8_t blockb0[16] = {0};/* Block B0 */
 3346              		.loc 1 1157 0
 3347 004a 0DAB     		add	r3, sp, #52
 3348 004c 0022     		movs	r2, #0
 3349 004e 1A60     		str	r2, [r3]
 3350 0050 5A60     		str	r2, [r3, #4]
 3351 0052 9A60     		str	r2, [r3, #8]
 3352 0054 DA60     		str	r2, [r3, #12]
1158:/home/rdu/Workspace/project_templates/mcu/stm32_ws/src/libraries/STM32F4xx_StdPeriph_Driver/src/stm32f4xx_cryp_aes.c ****   uint8_t ctr[16] = {0}; /* Counter */
 3353              		.loc 1 1158 0
 3354 0056 09AB     		add	r3, sp, #36
 3355 0058 0022     		movs	r2, #0
 3356 005a 1A60     		str	r2, [r3]
 3357 005c 5A60     		str	r2, [r3, #4]
 3358 005e 9A60     		str	r2, [r3, #8]
 3359 0060 DA60     		str	r2, [r3, #12]
1159:/home/rdu/Workspace/project_templates/mcu/stm32_ws/src/libraries/STM32F4xx_StdPeriph_Driver/src/stm32f4xx_cryp_aes.c ****   uint32_t temptag[4] = {0}; /* temporary TAG (MAC) */
 3360              		.loc 1 1159 0
 3361 0062 05AB     		add	r3, sp, #20
 3362 0064 0022     		movs	r2, #0
 3363 0066 1A60     		str	r2, [r3]
 3364 0068 5A60     		str	r2, [r3, #4]
 3365 006a 9A60     		str	r2, [r3, #8]
 3366 006c DA60     		str	r2, [r3, #12]
1160:/home/rdu/Workspace/project_templates/mcu/stm32_ws/src/libraries/STM32F4xx_StdPeriph_Driver/src/stm32f4xx_cryp_aes.c ****   uint32_t ctraddr = (uint32_t)ctr;
 3367              		.loc 1 1160 0
 3368 006e 09AB     		add	r3, sp, #36
 3369 0070 3993     		str	r3, [sp, #228]
1161:/home/rdu/Workspace/project_templates/mcu/stm32_ws/src/libraries/STM32F4xx_StdPeriph_Driver/src/stm32f4xx_cryp_aes.c ****   uint32_t b0addr = (uint32_t)blockb0;
 3370              		.loc 1 1161 0
 3371 0072 0DAB     		add	r3, sp, #52
 3372 0074 3893     		str	r3, [sp, #224]
1162:/home/rdu/Workspace/project_templates/mcu/stm32_ws/src/libraries/STM32F4xx_StdPeriph_Driver/src/stm32f4xx_cryp_aes.c ****   
1163:/home/rdu/Workspace/project_templates/mcu/stm32_ws/src/libraries/STM32F4xx_StdPeriph_Driver/src/stm32f4xx_cryp_aes.c ****   /************************ Formatting the header block ***********************/
1164:/home/rdu/Workspace/project_templates/mcu/stm32_ws/src/libraries/STM32F4xx_StdPeriph_Driver/src/stm32f4xx_cryp_aes.c ****   if(headersize != 0)
 3373              		.loc 1 1164 0
 3374 0076 3F9B     		ldr	r3, [sp, #252]
 3375 0078 002B     		cmp	r3, #0
 3376 007a 78D0     		beq	.L208
1165:/home/rdu/Workspace/project_templates/mcu/stm32_ws/src/libraries/STM32F4xx_StdPeriph_Driver/src/stm32f4xx_cryp_aes.c ****   {
1166:/home/rdu/Workspace/project_templates/mcu/stm32_ws/src/libraries/STM32F4xx_StdPeriph_Driver/src/stm32f4xx_cryp_aes.c ****     /* Check that the associated data (or header) length is lower than 2^16 - 2^8 = 65536 - 256 = 6
1167:/home/rdu/Workspace/project_templates/mcu/stm32_ws/src/libraries/STM32F4xx_StdPeriph_Driver/src/stm32f4xx_cryp_aes.c ****     if(headersize < 65280)
 3377              		.loc 1 1167 0
 3378 007c 3F9B     		ldr	r3, [sp, #252]
 3379 007e B3F57F4F 		cmp	r3, #65280
 3380 0082 14D2     		bcs	.L209
1168:/home/rdu/Workspace/project_templates/mcu/stm32_ws/src/libraries/STM32F4xx_StdPeriph_Driver/src/stm32f4xx_cryp_aes.c ****     {
1169:/home/rdu/Workspace/project_templates/mcu/stm32_ws/src/libraries/STM32F4xx_StdPeriph_Driver/src/stm32f4xx_cryp_aes.c ****       HBuffer[bufferidx++] = (uint8_t) ((headersize >> 8) & 0xFF);
 3381              		.loc 1 1169 0
 3382 0084 3F9B     		ldr	r3, [sp, #252]
 3383 0086 190A     		lsrs	r1, r3, #8
 3384 0088 3D9B     		ldr	r3, [sp, #244]
 3385 008a 5A1C     		adds	r2, r3, #1
 3386 008c 3D92     		str	r2, [sp, #244]
 3387 008e 4B9A     		ldr	r2, [sp, #300]
 3388 0090 1344     		add	r3, r3, r2
 3389 0092 CAB2     		uxtb	r2, r1
 3390 0094 1A70     		strb	r2, [r3]
1170:/home/rdu/Workspace/project_templates/mcu/stm32_ws/src/libraries/STM32F4xx_StdPeriph_Driver/src/stm32f4xx_cryp_aes.c ****       HBuffer[bufferidx++] = (uint8_t) ((headersize) & 0xFF);
 3391              		.loc 1 1170 0
 3392 0096 3D9B     		ldr	r3, [sp, #244]
 3393 0098 5A1C     		adds	r2, r3, #1
 3394 009a 3D92     		str	r2, [sp, #244]
 3395 009c 4B9A     		ldr	r2, [sp, #300]
 3396 009e 1344     		add	r3, r3, r2
 3397 00a0 3F9A     		ldr	r2, [sp, #252]
 3398 00a2 D2B2     		uxtb	r2, r2
 3399 00a4 1A70     		strb	r2, [r3]
1171:/home/rdu/Workspace/project_templates/mcu/stm32_ws/src/libraries/STM32F4xx_StdPeriph_Driver/src/stm32f4xx_cryp_aes.c ****       headersize += 2;
 3400              		.loc 1 1171 0
 3401 00a6 3F9B     		ldr	r3, [sp, #252]
 3402 00a8 0233     		adds	r3, r3, #2
 3403 00aa 3F93     		str	r3, [sp, #252]
 3404 00ac 2DE0     		b	.L210
 3405              	.L209:
1172:/home/rdu/Workspace/project_templates/mcu/stm32_ws/src/libraries/STM32F4xx_StdPeriph_Driver/src/stm32f4xx_cryp_aes.c ****     }
1173:/home/rdu/Workspace/project_templates/mcu/stm32_ws/src/libraries/STM32F4xx_StdPeriph_Driver/src/stm32f4xx_cryp_aes.c ****     else
1174:/home/rdu/Workspace/project_templates/mcu/stm32_ws/src/libraries/STM32F4xx_StdPeriph_Driver/src/stm32f4xx_cryp_aes.c ****     {
1175:/home/rdu/Workspace/project_templates/mcu/stm32_ws/src/libraries/STM32F4xx_StdPeriph_Driver/src/stm32f4xx_cryp_aes.c ****       /* header is encoded as 0xff || 0xfe || [headersize]32, i.e., six octets */
1176:/home/rdu/Workspace/project_templates/mcu/stm32_ws/src/libraries/STM32F4xx_StdPeriph_Driver/src/stm32f4xx_cryp_aes.c ****       HBuffer[bufferidx++] = 0xFF;
 3406              		.loc 1 1176 0
 3407 00ae 3D9B     		ldr	r3, [sp, #244]
 3408 00b0 5A1C     		adds	r2, r3, #1
 3409 00b2 3D92     		str	r2, [sp, #244]
 3410 00b4 4B9A     		ldr	r2, [sp, #300]
 3411 00b6 1344     		add	r3, r3, r2
 3412 00b8 FF22     		movs	r2, #255
 3413 00ba 1A70     		strb	r2, [r3]
1177:/home/rdu/Workspace/project_templates/mcu/stm32_ws/src/libraries/STM32F4xx_StdPeriph_Driver/src/stm32f4xx_cryp_aes.c ****       HBuffer[bufferidx++] = 0xFE;
 3414              		.loc 1 1177 0
 3415 00bc 3D9B     		ldr	r3, [sp, #244]
 3416 00be 5A1C     		adds	r2, r3, #1
 3417 00c0 3D92     		str	r2, [sp, #244]
 3418 00c2 4B9A     		ldr	r2, [sp, #300]
 3419 00c4 1344     		add	r3, r3, r2
 3420 00c6 FE22     		movs	r2, #254
 3421 00c8 1A70     		strb	r2, [r3]
1178:/home/rdu/Workspace/project_templates/mcu/stm32_ws/src/libraries/STM32F4xx_StdPeriph_Driver/src/stm32f4xx_cryp_aes.c ****       HBuffer[bufferidx++] = headersize & 0xff000000;
 3422              		.loc 1 1178 0
 3423 00ca 3D9B     		ldr	r3, [sp, #244]
 3424 00cc 5A1C     		adds	r2, r3, #1
 3425 00ce 3D92     		str	r2, [sp, #244]
 3426 00d0 4B9A     		ldr	r2, [sp, #300]
 3427 00d2 1344     		add	r3, r3, r2
 3428 00d4 0022     		movs	r2, #0
 3429 00d6 1A70     		strb	r2, [r3]
1179:/home/rdu/Workspace/project_templates/mcu/stm32_ws/src/libraries/STM32F4xx_StdPeriph_Driver/src/stm32f4xx_cryp_aes.c ****       HBuffer[bufferidx++] = headersize & 0x00ff0000;
 3430              		.loc 1 1179 0
 3431 00d8 3D9B     		ldr	r3, [sp, #244]
 3432 00da 5A1C     		adds	r2, r3, #1
 3433 00dc 3D92     		str	r2, [sp, #244]
 3434 00de 4B9A     		ldr	r2, [sp, #300]
 3435 00e0 1344     		add	r3, r3, r2
 3436 00e2 0022     		movs	r2, #0
 3437 00e4 1A70     		strb	r2, [r3]
1180:/home/rdu/Workspace/project_templates/mcu/stm32_ws/src/libraries/STM32F4xx_StdPeriph_Driver/src/stm32f4xx_cryp_aes.c ****       HBuffer[bufferidx++] = headersize & 0x0000ff00;
 3438              		.loc 1 1180 0
 3439 00e6 3D9B     		ldr	r3, [sp, #244]
 3440 00e8 5A1C     		adds	r2, r3, #1
 3441 00ea 3D92     		str	r2, [sp, #244]
 3442 00ec 4B9A     		ldr	r2, [sp, #300]
 3443 00ee 1344     		add	r3, r3, r2
 3444 00f0 0022     		movs	r2, #0
 3445 00f2 1A70     		strb	r2, [r3]
1181:/home/rdu/Workspace/project_templates/mcu/stm32_ws/src/libraries/STM32F4xx_StdPeriph_Driver/src/stm32f4xx_cryp_aes.c ****       HBuffer[bufferidx++] = headersize & 0x000000ff;
 3446              		.loc 1 1181 0
 3447 00f4 3D9B     		ldr	r3, [sp, #244]
 3448 00f6 5A1C     		adds	r2, r3, #1
 3449 00f8 3D92     		str	r2, [sp, #244]
 3450 00fa 4B9A     		ldr	r2, [sp, #300]
 3451 00fc 1344     		add	r3, r3, r2
 3452 00fe 3F9A     		ldr	r2, [sp, #252]
 3453 0100 D2B2     		uxtb	r2, r2
 3454 0102 1A70     		strb	r2, [r3]
1182:/home/rdu/Workspace/project_templates/mcu/stm32_ws/src/libraries/STM32F4xx_StdPeriph_Driver/src/stm32f4xx_cryp_aes.c ****       headersize += 6;
 3455              		.loc 1 1182 0
 3456 0104 3F9B     		ldr	r3, [sp, #252]
 3457 0106 0633     		adds	r3, r3, #6
 3458 0108 3F93     		str	r3, [sp, #252]
 3459              	.L210:
1183:/home/rdu/Workspace/project_templates/mcu/stm32_ws/src/libraries/STM32F4xx_StdPeriph_Driver/src/stm32f4xx_cryp_aes.c ****     }
1184:/home/rdu/Workspace/project_templates/mcu/stm32_ws/src/libraries/STM32F4xx_StdPeriph_Driver/src/stm32f4xx_cryp_aes.c ****     /* Copy the header buffer in internal buffer "HBuffer" */
1185:/home/rdu/Workspace/project_templates/mcu/stm32_ws/src/libraries/STM32F4xx_StdPeriph_Driver/src/stm32f4xx_cryp_aes.c ****     for(loopcounter = 0; loopcounter < headersize; loopcounter++)
 3460              		.loc 1 1185 0
 3461 010a 0023     		movs	r3, #0
 3462 010c 3E93     		str	r3, [sp, #248]
 3463 010e 0CE0     		b	.L211
 3464              	.L212:
1186:/home/rdu/Workspace/project_templates/mcu/stm32_ws/src/libraries/STM32F4xx_StdPeriph_Driver/src/stm32f4xx_cryp_aes.c ****     {
1187:/home/rdu/Workspace/project_templates/mcu/stm32_ws/src/libraries/STM32F4xx_StdPeriph_Driver/src/stm32f4xx_cryp_aes.c ****       HBuffer[bufferidx++] = Header[loopcounter];
 3465              		.loc 1 1187 0 discriminator 3
 3466 0110 499A     		ldr	r2, [sp, #292]
 3467 0112 3E9B     		ldr	r3, [sp, #248]
 3468 0114 1A44     		add	r2, r2, r3
 3469 0116 3D9B     		ldr	r3, [sp, #244]
 3470 0118 591C     		adds	r1, r3, #1
 3471 011a 3D91     		str	r1, [sp, #244]
 3472 011c 4B99     		ldr	r1, [sp, #300]
 3473 011e 0B44     		add	r3, r3, r1
 3474 0120 1278     		ldrb	r2, [r2]	@ zero_extendqisi2
 3475 0122 1A70     		strb	r2, [r3]
1185:/home/rdu/Workspace/project_templates/mcu/stm32_ws/src/libraries/STM32F4xx_StdPeriph_Driver/src/stm32f4xx_cryp_aes.c ****     {
 3476              		.loc 1 1185 0 discriminator 3
 3477 0124 3E9B     		ldr	r3, [sp, #248]
 3478 0126 0133     		adds	r3, r3, #1
 3479 0128 3E93     		str	r3, [sp, #248]
 3480              	.L211:
1185:/home/rdu/Workspace/project_templates/mcu/stm32_ws/src/libraries/STM32F4xx_StdPeriph_Driver/src/stm32f4xx_cryp_aes.c ****     {
 3481              		.loc 1 1185 0 is_stmt 0 discriminator 1
 3482 012a 3E9A     		ldr	r2, [sp, #248]
 3483 012c 3F9B     		ldr	r3, [sp, #252]
 3484 012e 9A42     		cmp	r2, r3
 3485 0130 EED3     		bcc	.L212
1188:/home/rdu/Workspace/project_templates/mcu/stm32_ws/src/libraries/STM32F4xx_StdPeriph_Driver/src/stm32f4xx_cryp_aes.c ****     }
1189:/home/rdu/Workspace/project_templates/mcu/stm32_ws/src/libraries/STM32F4xx_StdPeriph_Driver/src/stm32f4xx_cryp_aes.c ****     /* Check if the header size is modulo 16 */
1190:/home/rdu/Workspace/project_templates/mcu/stm32_ws/src/libraries/STM32F4xx_StdPeriph_Driver/src/stm32f4xx_cryp_aes.c ****     if ((headersize % 16) != 0)
 3486              		.loc 1 1190 0 is_stmt 1
 3487 0132 3F9B     		ldr	r3, [sp, #252]
 3488 0134 03F00F03 		and	r3, r3, #15
 3489 0138 002B     		cmp	r3, #0
 3490 013a 16D0     		beq	.L213
1191:/home/rdu/Workspace/project_templates/mcu/stm32_ws/src/libraries/STM32F4xx_StdPeriph_Driver/src/stm32f4xx_cryp_aes.c ****     {
1192:/home/rdu/Workspace/project_templates/mcu/stm32_ws/src/libraries/STM32F4xx_StdPeriph_Driver/src/stm32f4xx_cryp_aes.c ****       /* Padd the header buffer with 0s till the HBuffer length is modulo 16 */
1193:/home/rdu/Workspace/project_templates/mcu/stm32_ws/src/libraries/STM32F4xx_StdPeriph_Driver/src/stm32f4xx_cryp_aes.c ****       for(loopcounter = headersize; loopcounter <= ((headersize/16) + 1) * 16; loopcounter++)
 3491              		.loc 1 1193 0
 3492 013c 3F9B     		ldr	r3, [sp, #252]
 3493 013e 3E93     		str	r3, [sp, #248]
 3494 0140 07E0     		b	.L214
 3495              	.L215:
1194:/home/rdu/Workspace/project_templates/mcu/stm32_ws/src/libraries/STM32F4xx_StdPeriph_Driver/src/stm32f4xx_cryp_aes.c ****       {
1195:/home/rdu/Workspace/project_templates/mcu/stm32_ws/src/libraries/STM32F4xx_StdPeriph_Driver/src/stm32f4xx_cryp_aes.c ****         HBuffer[loopcounter] = 0;
 3496              		.loc 1 1195 0 discriminator 3
 3497 0142 4B9A     		ldr	r2, [sp, #300]
 3498 0144 3E9B     		ldr	r3, [sp, #248]
 3499 0146 1344     		add	r3, r3, r2
 3500 0148 0022     		movs	r2, #0
 3501 014a 1A70     		strb	r2, [r3]
1193:/home/rdu/Workspace/project_templates/mcu/stm32_ws/src/libraries/STM32F4xx_StdPeriph_Driver/src/stm32f4xx_cryp_aes.c ****       {
 3502              		.loc 1 1193 0 discriminator 3
 3503 014c 3E9B     		ldr	r3, [sp, #248]
 3504 014e 0133     		adds	r3, r3, #1
 3505 0150 3E93     		str	r3, [sp, #248]
 3506              	.L214:
1193:/home/rdu/Workspace/project_templates/mcu/stm32_ws/src/libraries/STM32F4xx_StdPeriph_Driver/src/stm32f4xx_cryp_aes.c ****       {
 3507              		.loc 1 1193 0 is_stmt 0 discriminator 1
 3508 0152 3F9B     		ldr	r3, [sp, #252]
 3509 0154 23F00F03 		bic	r3, r3, #15
 3510 0158 1033     		adds	r3, r3, #16
 3511 015a 3E9A     		ldr	r2, [sp, #248]
 3512 015c 9A42     		cmp	r2, r3
 3513 015e F0D9     		bls	.L215
1196:/home/rdu/Workspace/project_templates/mcu/stm32_ws/src/libraries/STM32F4xx_StdPeriph_Driver/src/stm32f4xx_cryp_aes.c ****       }
1197:/home/rdu/Workspace/project_templates/mcu/stm32_ws/src/libraries/STM32F4xx_StdPeriph_Driver/src/stm32f4xx_cryp_aes.c ****       /* Set the header size to modulo 16 */
1198:/home/rdu/Workspace/project_templates/mcu/stm32_ws/src/libraries/STM32F4xx_StdPeriph_Driver/src/stm32f4xx_cryp_aes.c ****       headersize = ((headersize/16) + 1) * 16;
 3514              		.loc 1 1198 0 is_stmt 1
 3515 0160 3F9B     		ldr	r3, [sp, #252]
 3516 0162 23F00F03 		bic	r3, r3, #15
 3517 0166 1033     		adds	r3, r3, #16
 3518 0168 3F93     		str	r3, [sp, #252]
 3519              	.L213:
1199:/home/rdu/Workspace/project_templates/mcu/stm32_ws/src/libraries/STM32F4xx_StdPeriph_Driver/src/stm32f4xx_cryp_aes.c ****     }
1200:/home/rdu/Workspace/project_templates/mcu/stm32_ws/src/libraries/STM32F4xx_StdPeriph_Driver/src/stm32f4xx_cryp_aes.c ****     /* set the pointer headeraddr to HBuffer */
1201:/home/rdu/Workspace/project_templates/mcu/stm32_ws/src/libraries/STM32F4xx_StdPeriph_Driver/src/stm32f4xx_cryp_aes.c ****     headeraddr = (uint32_t)HBuffer;
 3520              		.loc 1 1201 0
 3521 016a 4B9B     		ldr	r3, [sp, #300]
 3522 016c 4093     		str	r3, [sp, #256]
 3523              	.L208:
1202:/home/rdu/Workspace/project_templates/mcu/stm32_ws/src/libraries/STM32F4xx_StdPeriph_Driver/src/stm32f4xx_cryp_aes.c ****   }
1203:/home/rdu/Workspace/project_templates/mcu/stm32_ws/src/libraries/STM32F4xx_StdPeriph_Driver/src/stm32f4xx_cryp_aes.c ****   /************************* Formatting the block B0 **************************/
1204:/home/rdu/Workspace/project_templates/mcu/stm32_ws/src/libraries/STM32F4xx_StdPeriph_Driver/src/stm32f4xx_cryp_aes.c ****   if(headersize != 0)
 3524              		.loc 1 1204 0
 3525 016e 3F9B     		ldr	r3, [sp, #252]
 3526 0170 002B     		cmp	r3, #0
 3527 0172 02D0     		beq	.L216
1205:/home/rdu/Workspace/project_templates/mcu/stm32_ws/src/libraries/STM32F4xx_StdPeriph_Driver/src/stm32f4xx_cryp_aes.c ****   {
1206:/home/rdu/Workspace/project_templates/mcu/stm32_ws/src/libraries/STM32F4xx_StdPeriph_Driver/src/stm32f4xx_cryp_aes.c ****     blockb0[0] = 0x40;
 3528              		.loc 1 1206 0
 3529 0174 4023     		movs	r3, #64
 3530 0176 8DF83430 		strb	r3, [sp, #52]
 3531              	.L216:
1207:/home/rdu/Workspace/project_templates/mcu/stm32_ws/src/libraries/STM32F4xx_StdPeriph_Driver/src/stm32f4xx_cryp_aes.c ****   }
1208:/home/rdu/Workspace/project_templates/mcu/stm32_ws/src/libraries/STM32F4xx_StdPeriph_Driver/src/stm32f4xx_cryp_aes.c ****   /* Flags byte */
1209:/home/rdu/Workspace/project_templates/mcu/stm32_ws/src/libraries/STM32F4xx_StdPeriph_Driver/src/stm32f4xx_cryp_aes.c ****   blockb0[0] |= 0u | (((( (uint8_t) TAGSize - 2) / 2) & 0x07 ) << 3 ) | ( ( (uint8_t) (15 - NonceSi
 3532              		.loc 1 1209 0
 3533 017a 9DF83420 		ldrb	r2, [sp, #52]	@ zero_extendqisi2
 3534 017e 4E9B     		ldr	r3, [sp, #312]
 3535 0180 DBB2     		uxtb	r3, r3
 3536 0182 023B     		subs	r3, r3, #2
 3537 0184 D90F     		lsrs	r1, r3, #31
 3538 0186 0B44     		add	r3, r3, r1
 3539 0188 5B10     		asrs	r3, r3, #1
 3540 018a DBB2     		uxtb	r3, r3
 3541 018c DB00     		lsls	r3, r3, #3
 3542 018e DBB2     		uxtb	r3, r3
 3543 0190 03F03803 		and	r3, r3, #56
 3544 0194 D9B2     		uxtb	r1, r3
 3545 0196 01AB     		add	r3, sp, #4
 3546 0198 1B68     		ldr	r3, [r3]
 3547 019a DBB2     		uxtb	r3, r3
 3548 019c C3F10E03 		rsb	r3, r3, #14
 3549 01a0 DBB2     		uxtb	r3, r3
 3550 01a2 03F00703 		and	r3, r3, #7
 3551 01a6 DBB2     		uxtb	r3, r3
 3552 01a8 0B43     		orrs	r3, r3, r1
 3553 01aa DBB2     		uxtb	r3, r3
 3554 01ac 1343     		orrs	r3, r3, r2
 3555 01ae DBB2     		uxtb	r3, r3
 3556 01b0 8DF83430 		strb	r3, [sp, #52]
1210:/home/rdu/Workspace/project_templates/mcu/stm32_ws/src/libraries/STM32F4xx_StdPeriph_Driver/src/stm32f4xx_cryp_aes.c ****   
1211:/home/rdu/Workspace/project_templates/mcu/stm32_ws/src/libraries/STM32F4xx_StdPeriph_Driver/src/stm32f4xx_cryp_aes.c ****   for (loopcounter = 0; loopcounter < NonceSize; loopcounter++)
 3557              		.loc 1 1211 0
 3558 01b4 0023     		movs	r3, #0
 3559 01b6 3E93     		str	r3, [sp, #248]
 3560 01b8 0DE0     		b	.L217
 3561              	.L218:
1212:/home/rdu/Workspace/project_templates/mcu/stm32_ws/src/libraries/STM32F4xx_StdPeriph_Driver/src/stm32f4xx_cryp_aes.c ****   {
1213:/home/rdu/Workspace/project_templates/mcu/stm32_ws/src/libraries/STM32F4xx_StdPeriph_Driver/src/stm32f4xx_cryp_aes.c ****     blockb0[loopcounter+1] = Nonce[loopcounter];
 3562              		.loc 1 1213 0 discriminator 3
 3563 01ba 02AB     		add	r3, sp, #8
 3564 01bc 1A68     		ldr	r2, [r3]
 3565 01be 3E9B     		ldr	r3, [sp, #248]
 3566 01c0 1A44     		add	r2, r2, r3
 3567 01c2 3E9B     		ldr	r3, [sp, #248]
 3568 01c4 0133     		adds	r3, r3, #1
 3569 01c6 1278     		ldrb	r2, [r2]	@ zero_extendqisi2
 3570 01c8 44A9     		add	r1, sp, #272
 3571 01ca 0B44     		add	r3, r3, r1
 3572 01cc 03F8DC2C 		strb	r2, [r3, #-220]
1211:/home/rdu/Workspace/project_templates/mcu/stm32_ws/src/libraries/STM32F4xx_StdPeriph_Driver/src/stm32f4xx_cryp_aes.c ****   {
 3573              		.loc 1 1211 0 discriminator 3
 3574 01d0 3E9B     		ldr	r3, [sp, #248]
 3575 01d2 0133     		adds	r3, r3, #1
 3576 01d4 3E93     		str	r3, [sp, #248]
 3577              	.L217:
1211:/home/rdu/Workspace/project_templates/mcu/stm32_ws/src/libraries/STM32F4xx_StdPeriph_Driver/src/stm32f4xx_cryp_aes.c ****   {
 3578              		.loc 1 1211 0 is_stmt 0 discriminator 1
 3579 01d6 01AB     		add	r3, sp, #4
 3580 01d8 3E9A     		ldr	r2, [sp, #248]
 3581 01da 1B68     		ldr	r3, [r3]
 3582 01dc 9A42     		cmp	r2, r3
 3583 01de ECD3     		bcc	.L218
1214:/home/rdu/Workspace/project_templates/mcu/stm32_ws/src/libraries/STM32F4xx_StdPeriph_Driver/src/stm32f4xx_cryp_aes.c ****   }
1215:/home/rdu/Workspace/project_templates/mcu/stm32_ws/src/libraries/STM32F4xx_StdPeriph_Driver/src/stm32f4xx_cryp_aes.c ****   for ( ; loopcounter < 13; loopcounter++)
 3584              		.loc 1 1215 0 is_stmt 1
 3585 01e0 09E0     		b	.L219
 3586              	.L220:
1216:/home/rdu/Workspace/project_templates/mcu/stm32_ws/src/libraries/STM32F4xx_StdPeriph_Driver/src/stm32f4xx_cryp_aes.c ****   {
1217:/home/rdu/Workspace/project_templates/mcu/stm32_ws/src/libraries/STM32F4xx_StdPeriph_Driver/src/stm32f4xx_cryp_aes.c ****     blockb0[loopcounter+1] = 0;
 3587              		.loc 1 1217 0 discriminator 2
 3588 01e2 3E9B     		ldr	r3, [sp, #248]
 3589 01e4 0133     		adds	r3, r3, #1
 3590 01e6 44AA     		add	r2, sp, #272
 3591 01e8 1344     		add	r3, r3, r2
 3592 01ea 0022     		movs	r2, #0
 3593 01ec 03F8DC2C 		strb	r2, [r3, #-220]
1215:/home/rdu/Workspace/project_templates/mcu/stm32_ws/src/libraries/STM32F4xx_StdPeriph_Driver/src/stm32f4xx_cryp_aes.c ****   {
 3594              		.loc 1 1215 0 discriminator 2
 3595 01f0 3E9B     		ldr	r3, [sp, #248]
 3596 01f2 0133     		adds	r3, r3, #1
 3597 01f4 3E93     		str	r3, [sp, #248]
 3598              	.L219:
1215:/home/rdu/Workspace/project_templates/mcu/stm32_ws/src/libraries/STM32F4xx_StdPeriph_Driver/src/stm32f4xx_cryp_aes.c ****   {
 3599              		.loc 1 1215 0 is_stmt 0 discriminator 1
 3600 01f6 3E9B     		ldr	r3, [sp, #248]
 3601 01f8 0C2B     		cmp	r3, #12
 3602 01fa F2D9     		bls	.L220
1218:/home/rdu/Workspace/project_templates/mcu/stm32_ws/src/libraries/STM32F4xx_StdPeriph_Driver/src/stm32f4xx_cryp_aes.c ****   }
1219:/home/rdu/Workspace/project_templates/mcu/stm32_ws/src/libraries/STM32F4xx_StdPeriph_Driver/src/stm32f4xx_cryp_aes.c ****   
1220:/home/rdu/Workspace/project_templates/mcu/stm32_ws/src/libraries/STM32F4xx_StdPeriph_Driver/src/stm32f4xx_cryp_aes.c ****   blockb0[14] = ((ILength >> 8) & 0xFF);
 3603              		.loc 1 1220 0 is_stmt 1
 3604 01fc 489B     		ldr	r3, [sp, #288]
 3605 01fe 1B0A     		lsrs	r3, r3, #8
 3606 0200 DBB2     		uxtb	r3, r3
 3607 0202 8DF84230 		strb	r3, [sp, #66]
1221:/home/rdu/Workspace/project_templates/mcu/stm32_ws/src/libraries/STM32F4xx_StdPeriph_Driver/src/stm32f4xx_cryp_aes.c ****   blockb0[15] = (ILength & 0xFF);
 3608              		.loc 1 1221 0
 3609 0206 489B     		ldr	r3, [sp, #288]
 3610 0208 DBB2     		uxtb	r3, r3
 3611 020a 8DF84330 		strb	r3, [sp, #67]
1222:/home/rdu/Workspace/project_templates/mcu/stm32_ws/src/libraries/STM32F4xx_StdPeriph_Driver/src/stm32f4xx_cryp_aes.c ****   
1223:/home/rdu/Workspace/project_templates/mcu/stm32_ws/src/libraries/STM32F4xx_StdPeriph_Driver/src/stm32f4xx_cryp_aes.c ****   /************************* Formatting the initial counter *******************/
1224:/home/rdu/Workspace/project_templates/mcu/stm32_ws/src/libraries/STM32F4xx_StdPeriph_Driver/src/stm32f4xx_cryp_aes.c ****   /* Byte 0:
1225:/home/rdu/Workspace/project_templates/mcu/stm32_ws/src/libraries/STM32F4xx_StdPeriph_Driver/src/stm32f4xx_cryp_aes.c ****      Bits 7 and 6 are reserved and shall be set to 0
1226:/home/rdu/Workspace/project_templates/mcu/stm32_ws/src/libraries/STM32F4xx_StdPeriph_Driver/src/stm32f4xx_cryp_aes.c ****      Bits 3, 4, and 5 shall also be set to 0, to ensure that all the counter blocks
1227:/home/rdu/Workspace/project_templates/mcu/stm32_ws/src/libraries/STM32F4xx_StdPeriph_Driver/src/stm32f4xx_cryp_aes.c ****      are distinct from B0
1228:/home/rdu/Workspace/project_templates/mcu/stm32_ws/src/libraries/STM32F4xx_StdPeriph_Driver/src/stm32f4xx_cryp_aes.c ****      Bits 0, 1, and 2 contain the same encoding of q as in B0
1229:/home/rdu/Workspace/project_templates/mcu/stm32_ws/src/libraries/STM32F4xx_StdPeriph_Driver/src/stm32f4xx_cryp_aes.c ****   */
1230:/home/rdu/Workspace/project_templates/mcu/stm32_ws/src/libraries/STM32F4xx_StdPeriph_Driver/src/stm32f4xx_cryp_aes.c ****   ctr[0] = blockb0[0] & 0x07;
 3612              		.loc 1 1230 0
 3613 020e 9DF83430 		ldrb	r3, [sp, #52]	@ zero_extendqisi2
 3614 0212 03F00703 		and	r3, r3, #7
 3615 0216 DBB2     		uxtb	r3, r3
 3616 0218 8DF82430 		strb	r3, [sp, #36]
1231:/home/rdu/Workspace/project_templates/mcu/stm32_ws/src/libraries/STM32F4xx_StdPeriph_Driver/src/stm32f4xx_cryp_aes.c ****   /* byte 1 to NonceSize is the IV (Nonce) */
1232:/home/rdu/Workspace/project_templates/mcu/stm32_ws/src/libraries/STM32F4xx_StdPeriph_Driver/src/stm32f4xx_cryp_aes.c ****   for(loopcounter = 1; loopcounter < NonceSize + 1; loopcounter++)
 3617              		.loc 1 1232 0
 3618 021c 0123     		movs	r3, #1
 3619 021e 3E93     		str	r3, [sp, #248]
 3620 0220 0BE0     		b	.L221
 3621              	.L222:
1233:/home/rdu/Workspace/project_templates/mcu/stm32_ws/src/libraries/STM32F4xx_StdPeriph_Driver/src/stm32f4xx_cryp_aes.c ****   {
1234:/home/rdu/Workspace/project_templates/mcu/stm32_ws/src/libraries/STM32F4xx_StdPeriph_Driver/src/stm32f4xx_cryp_aes.c ****     ctr[loopcounter] = blockb0[loopcounter];
 3622              		.loc 1 1234 0 discriminator 3
 3623 0222 0DAA     		add	r2, sp, #52
 3624 0224 3E9B     		ldr	r3, [sp, #248]
 3625 0226 1344     		add	r3, r3, r2
 3626 0228 1978     		ldrb	r1, [r3]	@ zero_extendqisi2
 3627 022a 09AA     		add	r2, sp, #36
 3628 022c 3E9B     		ldr	r3, [sp, #248]
 3629 022e 1344     		add	r3, r3, r2
 3630 0230 0A46     		mov	r2, r1
 3631 0232 1A70     		strb	r2, [r3]
1232:/home/rdu/Workspace/project_templates/mcu/stm32_ws/src/libraries/STM32F4xx_StdPeriph_Driver/src/stm32f4xx_cryp_aes.c ****   {
 3632              		.loc 1 1232 0 discriminator 3
 3633 0234 3E9B     		ldr	r3, [sp, #248]
 3634 0236 0133     		adds	r3, r3, #1
 3635 0238 3E93     		str	r3, [sp, #248]
 3636              	.L221:
1232:/home/rdu/Workspace/project_templates/mcu/stm32_ws/src/libraries/STM32F4xx_StdPeriph_Driver/src/stm32f4xx_cryp_aes.c ****   {
 3637              		.loc 1 1232 0 is_stmt 0 discriminator 1
 3638 023a 01AB     		add	r3, sp, #4
 3639 023c 1B68     		ldr	r3, [r3]
 3640 023e 0133     		adds	r3, r3, #1
 3641 0240 3E9A     		ldr	r2, [sp, #248]
 3642 0242 9A42     		cmp	r2, r3
 3643 0244 EDD3     		bcc	.L222
1235:/home/rdu/Workspace/project_templates/mcu/stm32_ws/src/libraries/STM32F4xx_StdPeriph_Driver/src/stm32f4xx_cryp_aes.c ****   }
1236:/home/rdu/Workspace/project_templates/mcu/stm32_ws/src/libraries/STM32F4xx_StdPeriph_Driver/src/stm32f4xx_cryp_aes.c ****   /* Set the LSB to 1 */
1237:/home/rdu/Workspace/project_templates/mcu/stm32_ws/src/libraries/STM32F4xx_StdPeriph_Driver/src/stm32f4xx_cryp_aes.c ****   ctr[15] |= 0x01;
 3644              		.loc 1 1237 0 is_stmt 1
 3645 0246 9DF83330 		ldrb	r3, [sp, #51]	@ zero_extendqisi2
 3646 024a 43F00103 		orr	r3, r3, #1
 3647 024e DBB2     		uxtb	r3, r3
 3648 0250 8DF83330 		strb	r3, [sp, #51]
1238:/home/rdu/Workspace/project_templates/mcu/stm32_ws/src/libraries/STM32F4xx_StdPeriph_Driver/src/stm32f4xx_cryp_aes.c ****   
1239:/home/rdu/Workspace/project_templates/mcu/stm32_ws/src/libraries/STM32F4xx_StdPeriph_Driver/src/stm32f4xx_cryp_aes.c ****   /* Crypto structures initialisation*/
1240:/home/rdu/Workspace/project_templates/mcu/stm32_ws/src/libraries/STM32F4xx_StdPeriph_Driver/src/stm32f4xx_cryp_aes.c ****   CRYP_KeyStructInit(&AES_CRYP_KeyInitStructure);
 3649              		.loc 1 1240 0
 3650 0254 16AB     		add	r3, sp, #88
 3651 0256 1846     		mov	r0, r3
 3652 0258 FFF7FEFF 		bl	CRYP_KeyStructInit
1241:/home/rdu/Workspace/project_templates/mcu/stm32_ws/src/libraries/STM32F4xx_StdPeriph_Driver/src/stm32f4xx_cryp_aes.c ****   
1242:/home/rdu/Workspace/project_templates/mcu/stm32_ws/src/libraries/STM32F4xx_StdPeriph_Driver/src/stm32f4xx_cryp_aes.c ****   switch(Keysize)
 3653              		.loc 1 1242 0
 3654 025c BDF81831 		ldrh	r3, [sp, #280]
 3655 0260 C02B     		cmp	r3, #192
 3656 0262 29D0     		beq	.L224
 3657 0264 B3F5807F 		cmp	r3, #256
 3658 0268 5DD0     		beq	.L225
 3659 026a 802B     		cmp	r3, #128
 3660 026c 00D0     		beq	.L226
1243:/home/rdu/Workspace/project_templates/mcu/stm32_ws/src/libraries/STM32F4xx_StdPeriph_Driver/src/stm32f4xx_cryp_aes.c ****   {
1244:/home/rdu/Workspace/project_templates/mcu/stm32_ws/src/libraries/STM32F4xx_StdPeriph_Driver/src/stm32f4xx_cryp_aes.c ****     case 128:
1245:/home/rdu/Workspace/project_templates/mcu/stm32_ws/src/libraries/STM32F4xx_StdPeriph_Driver/src/stm32f4xx_cryp_aes.c ****     AES_CRYP_InitStructure.CRYP_KeySize = CRYP_KeySize_128b;
1246:/home/rdu/Workspace/project_templates/mcu/stm32_ws/src/libraries/STM32F4xx_StdPeriph_Driver/src/stm32f4xx_cryp_aes.c ****     AES_CRYP_KeyInitStructure.CRYP_Key2Left = __REV(*(uint32_t*)(keyaddr));
1247:/home/rdu/Workspace/project_templates/mcu/stm32_ws/src/libraries/STM32F4xx_StdPeriph_Driver/src/stm32f4xx_cryp_aes.c ****     keyaddr+=4;
1248:/home/rdu/Workspace/project_templates/mcu/stm32_ws/src/libraries/STM32F4xx_StdPeriph_Driver/src/stm32f4xx_cryp_aes.c ****     AES_CRYP_KeyInitStructure.CRYP_Key2Right= __REV(*(uint32_t*)(keyaddr));
1249:/home/rdu/Workspace/project_templates/mcu/stm32_ws/src/libraries/STM32F4xx_StdPeriph_Driver/src/stm32f4xx_cryp_aes.c ****     keyaddr+=4;
1250:/home/rdu/Workspace/project_templates/mcu/stm32_ws/src/libraries/STM32F4xx_StdPeriph_Driver/src/stm32f4xx_cryp_aes.c ****     AES_CRYP_KeyInitStructure.CRYP_Key3Left = __REV(*(uint32_t*)(keyaddr));
1251:/home/rdu/Workspace/project_templates/mcu/stm32_ws/src/libraries/STM32F4xx_StdPeriph_Driver/src/stm32f4xx_cryp_aes.c ****     keyaddr+=4;
1252:/home/rdu/Workspace/project_templates/mcu/stm32_ws/src/libraries/STM32F4xx_StdPeriph_Driver/src/stm32f4xx_cryp_aes.c ****     AES_CRYP_KeyInitStructure.CRYP_Key3Right= __REV(*(uint32_t*)(keyaddr));
1253:/home/rdu/Workspace/project_templates/mcu/stm32_ws/src/libraries/STM32F4xx_StdPeriph_Driver/src/stm32f4xx_cryp_aes.c ****     break;
1254:/home/rdu/Workspace/project_templates/mcu/stm32_ws/src/libraries/STM32F4xx_StdPeriph_Driver/src/stm32f4xx_cryp_aes.c ****     case 192:
1255:/home/rdu/Workspace/project_templates/mcu/stm32_ws/src/libraries/STM32F4xx_StdPeriph_Driver/src/stm32f4xx_cryp_aes.c ****     AES_CRYP_InitStructure.CRYP_KeySize  = CRYP_KeySize_192b;
1256:/home/rdu/Workspace/project_templates/mcu/stm32_ws/src/libraries/STM32F4xx_StdPeriph_Driver/src/stm32f4xx_cryp_aes.c ****     AES_CRYP_KeyInitStructure.CRYP_Key1Left = __REV(*(uint32_t*)(keyaddr));
1257:/home/rdu/Workspace/project_templates/mcu/stm32_ws/src/libraries/STM32F4xx_StdPeriph_Driver/src/stm32f4xx_cryp_aes.c ****     keyaddr+=4;
1258:/home/rdu/Workspace/project_templates/mcu/stm32_ws/src/libraries/STM32F4xx_StdPeriph_Driver/src/stm32f4xx_cryp_aes.c ****     AES_CRYP_KeyInitStructure.CRYP_Key1Right= __REV(*(uint32_t*)(keyaddr));
1259:/home/rdu/Workspace/project_templates/mcu/stm32_ws/src/libraries/STM32F4xx_StdPeriph_Driver/src/stm32f4xx_cryp_aes.c ****     keyaddr+=4;
1260:/home/rdu/Workspace/project_templates/mcu/stm32_ws/src/libraries/STM32F4xx_StdPeriph_Driver/src/stm32f4xx_cryp_aes.c ****     AES_CRYP_KeyInitStructure.CRYP_Key2Left = __REV(*(uint32_t*)(keyaddr));
1261:/home/rdu/Workspace/project_templates/mcu/stm32_ws/src/libraries/STM32F4xx_StdPeriph_Driver/src/stm32f4xx_cryp_aes.c ****     keyaddr+=4;
1262:/home/rdu/Workspace/project_templates/mcu/stm32_ws/src/libraries/STM32F4xx_StdPeriph_Driver/src/stm32f4xx_cryp_aes.c ****     AES_CRYP_KeyInitStructure.CRYP_Key2Right= __REV(*(uint32_t*)(keyaddr));
1263:/home/rdu/Workspace/project_templates/mcu/stm32_ws/src/libraries/STM32F4xx_StdPeriph_Driver/src/stm32f4xx_cryp_aes.c ****     keyaddr+=4;
1264:/home/rdu/Workspace/project_templates/mcu/stm32_ws/src/libraries/STM32F4xx_StdPeriph_Driver/src/stm32f4xx_cryp_aes.c ****     AES_CRYP_KeyInitStructure.CRYP_Key3Left = __REV(*(uint32_t*)(keyaddr));
1265:/home/rdu/Workspace/project_templates/mcu/stm32_ws/src/libraries/STM32F4xx_StdPeriph_Driver/src/stm32f4xx_cryp_aes.c ****     keyaddr+=4;
1266:/home/rdu/Workspace/project_templates/mcu/stm32_ws/src/libraries/STM32F4xx_StdPeriph_Driver/src/stm32f4xx_cryp_aes.c ****     AES_CRYP_KeyInitStructure.CRYP_Key3Right= __REV(*(uint32_t*)(keyaddr));
1267:/home/rdu/Workspace/project_templates/mcu/stm32_ws/src/libraries/STM32F4xx_StdPeriph_Driver/src/stm32f4xx_cryp_aes.c ****     break;
1268:/home/rdu/Workspace/project_templates/mcu/stm32_ws/src/libraries/STM32F4xx_StdPeriph_Driver/src/stm32f4xx_cryp_aes.c ****     case 256:
1269:/home/rdu/Workspace/project_templates/mcu/stm32_ws/src/libraries/STM32F4xx_StdPeriph_Driver/src/stm32f4xx_cryp_aes.c ****     AES_CRYP_InitStructure.CRYP_KeySize  = CRYP_KeySize_256b;
1270:/home/rdu/Workspace/project_templates/mcu/stm32_ws/src/libraries/STM32F4xx_StdPeriph_Driver/src/stm32f4xx_cryp_aes.c ****     AES_CRYP_KeyInitStructure.CRYP_Key0Left = __REV(*(uint32_t*)(keyaddr));
1271:/home/rdu/Workspace/project_templates/mcu/stm32_ws/src/libraries/STM32F4xx_StdPeriph_Driver/src/stm32f4xx_cryp_aes.c ****     keyaddr+=4;
1272:/home/rdu/Workspace/project_templates/mcu/stm32_ws/src/libraries/STM32F4xx_StdPeriph_Driver/src/stm32f4xx_cryp_aes.c ****     AES_CRYP_KeyInitStructure.CRYP_Key0Right= __REV(*(uint32_t*)(keyaddr));
1273:/home/rdu/Workspace/project_templates/mcu/stm32_ws/src/libraries/STM32F4xx_StdPeriph_Driver/src/stm32f4xx_cryp_aes.c ****     keyaddr+=4;
1274:/home/rdu/Workspace/project_templates/mcu/stm32_ws/src/libraries/STM32F4xx_StdPeriph_Driver/src/stm32f4xx_cryp_aes.c ****     AES_CRYP_KeyInitStructure.CRYP_Key1Left = __REV(*(uint32_t*)(keyaddr));
1275:/home/rdu/Workspace/project_templates/mcu/stm32_ws/src/libraries/STM32F4xx_StdPeriph_Driver/src/stm32f4xx_cryp_aes.c ****     keyaddr+=4;
1276:/home/rdu/Workspace/project_templates/mcu/stm32_ws/src/libraries/STM32F4xx_StdPeriph_Driver/src/stm32f4xx_cryp_aes.c ****     AES_CRYP_KeyInitStructure.CRYP_Key1Right= __REV(*(uint32_t*)(keyaddr));
1277:/home/rdu/Workspace/project_templates/mcu/stm32_ws/src/libraries/STM32F4xx_StdPeriph_Driver/src/stm32f4xx_cryp_aes.c ****     keyaddr+=4;
1278:/home/rdu/Workspace/project_templates/mcu/stm32_ws/src/libraries/STM32F4xx_StdPeriph_Driver/src/stm32f4xx_cryp_aes.c ****     AES_CRYP_KeyInitStructure.CRYP_Key2Left = __REV(*(uint32_t*)(keyaddr));
1279:/home/rdu/Workspace/project_templates/mcu/stm32_ws/src/libraries/STM32F4xx_StdPeriph_Driver/src/stm32f4xx_cryp_aes.c ****     keyaddr+=4;
1280:/home/rdu/Workspace/project_templates/mcu/stm32_ws/src/libraries/STM32F4xx_StdPeriph_Driver/src/stm32f4xx_cryp_aes.c ****     AES_CRYP_KeyInitStructure.CRYP_Key2Right= __REV(*(uint32_t*)(keyaddr));
1281:/home/rdu/Workspace/project_templates/mcu/stm32_ws/src/libraries/STM32F4xx_StdPeriph_Driver/src/stm32f4xx_cryp_aes.c ****     keyaddr+=4;
1282:/home/rdu/Workspace/project_templates/mcu/stm32_ws/src/libraries/STM32F4xx_StdPeriph_Driver/src/stm32f4xx_cryp_aes.c ****     AES_CRYP_KeyInitStructure.CRYP_Key3Left = __REV(*(uint32_t*)(keyaddr));
1283:/home/rdu/Workspace/project_templates/mcu/stm32_ws/src/libraries/STM32F4xx_StdPeriph_Driver/src/stm32f4xx_cryp_aes.c ****     keyaddr+=4;
1284:/home/rdu/Workspace/project_templates/mcu/stm32_ws/src/libraries/STM32F4xx_StdPeriph_Driver/src/stm32f4xx_cryp_aes.c ****     AES_CRYP_KeyInitStructure.CRYP_Key3Right= __REV(*(uint32_t*)(keyaddr));
1285:/home/rdu/Workspace/project_templates/mcu/stm32_ws/src/libraries/STM32F4xx_StdPeriph_Driver/src/stm32f4xx_cryp_aes.c ****     break;
1286:/home/rdu/Workspace/project_templates/mcu/stm32_ws/src/libraries/STM32F4xx_StdPeriph_Driver/src/stm32f4xx_cryp_aes.c ****     default:
1287:/home/rdu/Workspace/project_templates/mcu/stm32_ws/src/libraries/STM32F4xx_StdPeriph_Driver/src/stm32f4xx_cryp_aes.c ****     break;
 3661              		.loc 1 1287 0
 3662 026e A3E0     		b	.L231
 3663              	.L226:
1245:/home/rdu/Workspace/project_templates/mcu/stm32_ws/src/libraries/STM32F4xx_StdPeriph_Driver/src/stm32f4xx_cryp_aes.c ****     AES_CRYP_KeyInitStructure.CRYP_Key2Left = __REV(*(uint32_t*)(keyaddr));
 3664              		.loc 1 1245 0
 3665 0270 0023     		movs	r3, #0
 3666 0272 2193     		str	r3, [sp, #132]
1246:/home/rdu/Workspace/project_templates/mcu/stm32_ws/src/libraries/STM32F4xx_StdPeriph_Driver/src/stm32f4xx_cryp_aes.c ****     keyaddr+=4;
 3667              		.loc 1 1246 0
 3668 0274 3B9B     		ldr	r3, [sp, #236]
 3669 0276 1B68     		ldr	r3, [r3]
 3670 0278 3493     		str	r3, [sp, #208]
 3671              	.LBB414:
 3672              	.LBB415:
 3673              		.loc 2 498 0
 3674 027a 349B     		ldr	r3, [sp, #208]
 3675 027c 1BBA     		rev	r3, r3
 3676              	.LBE415:
 3677              	.LBE414:
1246:/home/rdu/Workspace/project_templates/mcu/stm32_ws/src/libraries/STM32F4xx_StdPeriph_Driver/src/stm32f4xx_cryp_aes.c ****     keyaddr+=4;
 3678              		.loc 1 1246 0
 3679 027e 1A93     		str	r3, [sp, #104]
1247:/home/rdu/Workspace/project_templates/mcu/stm32_ws/src/libraries/STM32F4xx_StdPeriph_Driver/src/stm32f4xx_cryp_aes.c ****     AES_CRYP_KeyInitStructure.CRYP_Key2Right= __REV(*(uint32_t*)(keyaddr));
 3680              		.loc 1 1247 0
 3681 0280 3B9B     		ldr	r3, [sp, #236]
 3682 0282 0433     		adds	r3, r3, #4
 3683 0284 3B93     		str	r3, [sp, #236]
1248:/home/rdu/Workspace/project_templates/mcu/stm32_ws/src/libraries/STM32F4xx_StdPeriph_Driver/src/stm32f4xx_cryp_aes.c ****     keyaddr+=4;
 3684              		.loc 1 1248 0
 3685 0286 3B9B     		ldr	r3, [sp, #236]
 3686 0288 1B68     		ldr	r3, [r3]
 3687 028a 3593     		str	r3, [sp, #212]
 3688              	.LBB416:
 3689              	.LBB417:
 3690              		.loc 2 498 0
 3691 028c 359B     		ldr	r3, [sp, #212]
 3692 028e 1BBA     		rev	r3, r3
 3693              	.LBE417:
 3694              	.LBE416:
1248:/home/rdu/Workspace/project_templates/mcu/stm32_ws/src/libraries/STM32F4xx_StdPeriph_Driver/src/stm32f4xx_cryp_aes.c ****     keyaddr+=4;
 3695              		.loc 1 1248 0
 3696 0290 1B93     		str	r3, [sp, #108]
1249:/home/rdu/Workspace/project_templates/mcu/stm32_ws/src/libraries/STM32F4xx_StdPeriph_Driver/src/stm32f4xx_cryp_aes.c ****     AES_CRYP_KeyInitStructure.CRYP_Key3Left = __REV(*(uint32_t*)(keyaddr));
 3697              		.loc 1 1249 0
 3698 0292 3B9B     		ldr	r3, [sp, #236]
 3699 0294 0433     		adds	r3, r3, #4
 3700 0296 3B93     		str	r3, [sp, #236]
1250:/home/rdu/Workspace/project_templates/mcu/stm32_ws/src/libraries/STM32F4xx_StdPeriph_Driver/src/stm32f4xx_cryp_aes.c ****     keyaddr+=4;
 3701              		.loc 1 1250 0
 3702 0298 3B9B     		ldr	r3, [sp, #236]
 3703 029a 1B68     		ldr	r3, [r3]
 3704 029c 3693     		str	r3, [sp, #216]
 3705              	.LBB418:
 3706              	.LBB419:
 3707              		.loc 2 498 0
 3708 029e 369B     		ldr	r3, [sp, #216]
 3709 02a0 1BBA     		rev	r3, r3
 3710              	.LBE419:
 3711              	.LBE418:
1250:/home/rdu/Workspace/project_templates/mcu/stm32_ws/src/libraries/STM32F4xx_StdPeriph_Driver/src/stm32f4xx_cryp_aes.c ****     keyaddr+=4;
 3712              		.loc 1 1250 0
 3713 02a2 1C93     		str	r3, [sp, #112]
1251:/home/rdu/Workspace/project_templates/mcu/stm32_ws/src/libraries/STM32F4xx_StdPeriph_Driver/src/stm32f4xx_cryp_aes.c ****     AES_CRYP_KeyInitStructure.CRYP_Key3Right= __REV(*(uint32_t*)(keyaddr));
 3714              		.loc 1 1251 0
 3715 02a4 3B9B     		ldr	r3, [sp, #236]
 3716 02a6 0433     		adds	r3, r3, #4
 3717 02a8 3B93     		str	r3, [sp, #236]
1252:/home/rdu/Workspace/project_templates/mcu/stm32_ws/src/libraries/STM32F4xx_StdPeriph_Driver/src/stm32f4xx_cryp_aes.c ****     break;
 3718              		.loc 1 1252 0
 3719 02aa 3B9B     		ldr	r3, [sp, #236]
 3720 02ac 1B68     		ldr	r3, [r3]
 3721 02ae 3793     		str	r3, [sp, #220]
 3722              	.LBB420:
 3723              	.LBB421:
 3724              		.loc 2 498 0
 3725 02b0 379B     		ldr	r3, [sp, #220]
 3726 02b2 1BBA     		rev	r3, r3
 3727              	.LBE421:
 3728              	.LBE420:
1252:/home/rdu/Workspace/project_templates/mcu/stm32_ws/src/libraries/STM32F4xx_StdPeriph_Driver/src/stm32f4xx_cryp_aes.c ****     break;
 3729              		.loc 1 1252 0
 3730 02b4 1D93     		str	r3, [sp, #116]
1253:/home/rdu/Workspace/project_templates/mcu/stm32_ws/src/libraries/STM32F4xx_StdPeriph_Driver/src/stm32f4xx_cryp_aes.c ****     case 192:
 3731              		.loc 1 1253 0
 3732 02b6 7FE0     		b	.L231
 3733              	.L224:
1255:/home/rdu/Workspace/project_templates/mcu/stm32_ws/src/libraries/STM32F4xx_StdPeriph_Driver/src/stm32f4xx_cryp_aes.c ****     AES_CRYP_KeyInitStructure.CRYP_Key1Left = __REV(*(uint32_t*)(keyaddr));
 3734              		.loc 1 1255 0
 3735 02b8 4FF48073 		mov	r3, #256
 3736 02bc 2193     		str	r3, [sp, #132]
1256:/home/rdu/Workspace/project_templates/mcu/stm32_ws/src/libraries/STM32F4xx_StdPeriph_Driver/src/stm32f4xx_cryp_aes.c ****     keyaddr+=4;
 3737              		.loc 1 1256 0
 3738 02be 3B9B     		ldr	r3, [sp, #236]
 3739 02c0 1B68     		ldr	r3, [r3]
 3740 02c2 2E93     		str	r3, [sp, #184]
 3741              	.LBB422:
 3742              	.LBB423:
 3743              		.loc 2 498 0
 3744 02c4 2E9B     		ldr	r3, [sp, #184]
 3745 02c6 1BBA     		rev	r3, r3
 3746              	.LBE423:
 3747              	.LBE422:
1256:/home/rdu/Workspace/project_templates/mcu/stm32_ws/src/libraries/STM32F4xx_StdPeriph_Driver/src/stm32f4xx_cryp_aes.c ****     keyaddr+=4;
 3748              		.loc 1 1256 0
 3749 02c8 1893     		str	r3, [sp, #96]
1257:/home/rdu/Workspace/project_templates/mcu/stm32_ws/src/libraries/STM32F4xx_StdPeriph_Driver/src/stm32f4xx_cryp_aes.c ****     AES_CRYP_KeyInitStructure.CRYP_Key1Right= __REV(*(uint32_t*)(keyaddr));
 3750              		.loc 1 1257 0
 3751 02ca 3B9B     		ldr	r3, [sp, #236]
 3752 02cc 0433     		adds	r3, r3, #4
 3753 02ce 3B93     		str	r3, [sp, #236]
1258:/home/rdu/Workspace/project_templates/mcu/stm32_ws/src/libraries/STM32F4xx_StdPeriph_Driver/src/stm32f4xx_cryp_aes.c ****     keyaddr+=4;
 3754              		.loc 1 1258 0
 3755 02d0 3B9B     		ldr	r3, [sp, #236]
 3756 02d2 1B68     		ldr	r3, [r3]
 3757 02d4 2F93     		str	r3, [sp, #188]
 3758              	.LBB424:
 3759              	.LBB425:
 3760              		.loc 2 498 0
 3761 02d6 2F9B     		ldr	r3, [sp, #188]
 3762 02d8 1BBA     		rev	r3, r3
 3763              	.LBE425:
 3764              	.LBE424:
1258:/home/rdu/Workspace/project_templates/mcu/stm32_ws/src/libraries/STM32F4xx_StdPeriph_Driver/src/stm32f4xx_cryp_aes.c ****     keyaddr+=4;
 3765              		.loc 1 1258 0
 3766 02da 1993     		str	r3, [sp, #100]
1259:/home/rdu/Workspace/project_templates/mcu/stm32_ws/src/libraries/STM32F4xx_StdPeriph_Driver/src/stm32f4xx_cryp_aes.c ****     AES_CRYP_KeyInitStructure.CRYP_Key2Left = __REV(*(uint32_t*)(keyaddr));
 3767              		.loc 1 1259 0
 3768 02dc 3B9B     		ldr	r3, [sp, #236]
 3769 02de 0433     		adds	r3, r3, #4
 3770 02e0 3B93     		str	r3, [sp, #236]
1260:/home/rdu/Workspace/project_templates/mcu/stm32_ws/src/libraries/STM32F4xx_StdPeriph_Driver/src/stm32f4xx_cryp_aes.c ****     keyaddr+=4;
 3771              		.loc 1 1260 0
 3772 02e2 3B9B     		ldr	r3, [sp, #236]
 3773 02e4 1B68     		ldr	r3, [r3]
 3774 02e6 3093     		str	r3, [sp, #192]
 3775              	.LBB426:
 3776              	.LBB427:
 3777              		.loc 2 498 0
 3778 02e8 309B     		ldr	r3, [sp, #192]
 3779 02ea 1BBA     		rev	r3, r3
 3780              	.LBE427:
 3781              	.LBE426:
1260:/home/rdu/Workspace/project_templates/mcu/stm32_ws/src/libraries/STM32F4xx_StdPeriph_Driver/src/stm32f4xx_cryp_aes.c ****     keyaddr+=4;
 3782              		.loc 1 1260 0
 3783 02ec 1A93     		str	r3, [sp, #104]
1261:/home/rdu/Workspace/project_templates/mcu/stm32_ws/src/libraries/STM32F4xx_StdPeriph_Driver/src/stm32f4xx_cryp_aes.c ****     AES_CRYP_KeyInitStructure.CRYP_Key2Right= __REV(*(uint32_t*)(keyaddr));
 3784              		.loc 1 1261 0
 3785 02ee 3B9B     		ldr	r3, [sp, #236]
 3786 02f0 0433     		adds	r3, r3, #4
 3787 02f2 3B93     		str	r3, [sp, #236]
1262:/home/rdu/Workspace/project_templates/mcu/stm32_ws/src/libraries/STM32F4xx_StdPeriph_Driver/src/stm32f4xx_cryp_aes.c ****     keyaddr+=4;
 3788              		.loc 1 1262 0
 3789 02f4 3B9B     		ldr	r3, [sp, #236]
 3790 02f6 1B68     		ldr	r3, [r3]
 3791 02f8 3193     		str	r3, [sp, #196]
 3792              	.LBB428:
 3793              	.LBB429:
 3794              		.loc 2 498 0
 3795 02fa 319B     		ldr	r3, [sp, #196]
 3796 02fc 1BBA     		rev	r3, r3
 3797              	.LBE429:
 3798              	.LBE428:
1262:/home/rdu/Workspace/project_templates/mcu/stm32_ws/src/libraries/STM32F4xx_StdPeriph_Driver/src/stm32f4xx_cryp_aes.c ****     keyaddr+=4;
 3799              		.loc 1 1262 0
 3800 02fe 1B93     		str	r3, [sp, #108]
1263:/home/rdu/Workspace/project_templates/mcu/stm32_ws/src/libraries/STM32F4xx_StdPeriph_Driver/src/stm32f4xx_cryp_aes.c ****     AES_CRYP_KeyInitStructure.CRYP_Key3Left = __REV(*(uint32_t*)(keyaddr));
 3801              		.loc 1 1263 0
 3802 0300 3B9B     		ldr	r3, [sp, #236]
 3803 0302 0433     		adds	r3, r3, #4
 3804 0304 3B93     		str	r3, [sp, #236]
1264:/home/rdu/Workspace/project_templates/mcu/stm32_ws/src/libraries/STM32F4xx_StdPeriph_Driver/src/stm32f4xx_cryp_aes.c ****     keyaddr+=4;
 3805              		.loc 1 1264 0
 3806 0306 3B9B     		ldr	r3, [sp, #236]
 3807 0308 1B68     		ldr	r3, [r3]
 3808 030a 3293     		str	r3, [sp, #200]
 3809              	.LBB430:
 3810              	.LBB431:
 3811              		.loc 2 498 0
 3812 030c 329B     		ldr	r3, [sp, #200]
 3813 030e 1BBA     		rev	r3, r3
 3814              	.LBE431:
 3815              	.LBE430:
1264:/home/rdu/Workspace/project_templates/mcu/stm32_ws/src/libraries/STM32F4xx_StdPeriph_Driver/src/stm32f4xx_cryp_aes.c ****     keyaddr+=4;
 3816              		.loc 1 1264 0
 3817 0310 1C93     		str	r3, [sp, #112]
1265:/home/rdu/Workspace/project_templates/mcu/stm32_ws/src/libraries/STM32F4xx_StdPeriph_Driver/src/stm32f4xx_cryp_aes.c ****     AES_CRYP_KeyInitStructure.CRYP_Key3Right= __REV(*(uint32_t*)(keyaddr));
 3818              		.loc 1 1265 0
 3819 0312 3B9B     		ldr	r3, [sp, #236]
 3820 0314 0433     		adds	r3, r3, #4
 3821 0316 3B93     		str	r3, [sp, #236]
1266:/home/rdu/Workspace/project_templates/mcu/stm32_ws/src/libraries/STM32F4xx_StdPeriph_Driver/src/stm32f4xx_cryp_aes.c ****     break;
 3822              		.loc 1 1266 0
 3823 0318 3B9B     		ldr	r3, [sp, #236]
 3824 031a 1B68     		ldr	r3, [r3]
 3825 031c 3393     		str	r3, [sp, #204]
 3826              	.LBB432:
 3827              	.LBB433:
 3828              		.loc 2 498 0
 3829 031e 339B     		ldr	r3, [sp, #204]
 3830 0320 1BBA     		rev	r3, r3
 3831              	.LBE433:
 3832              	.LBE432:
1266:/home/rdu/Workspace/project_templates/mcu/stm32_ws/src/libraries/STM32F4xx_StdPeriph_Driver/src/stm32f4xx_cryp_aes.c ****     break;
 3833              		.loc 1 1266 0
 3834 0322 1D93     		str	r3, [sp, #116]
1267:/home/rdu/Workspace/project_templates/mcu/stm32_ws/src/libraries/STM32F4xx_StdPeriph_Driver/src/stm32f4xx_cryp_aes.c ****     case 256:
 3835              		.loc 1 1267 0
 3836 0324 48E0     		b	.L231
 3837              	.L225:
1269:/home/rdu/Workspace/project_templates/mcu/stm32_ws/src/libraries/STM32F4xx_StdPeriph_Driver/src/stm32f4xx_cryp_aes.c ****     AES_CRYP_KeyInitStructure.CRYP_Key0Left = __REV(*(uint32_t*)(keyaddr));
 3838              		.loc 1 1269 0
 3839 0326 4FF40073 		mov	r3, #512
 3840 032a 2193     		str	r3, [sp, #132]
1270:/home/rdu/Workspace/project_templates/mcu/stm32_ws/src/libraries/STM32F4xx_StdPeriph_Driver/src/stm32f4xx_cryp_aes.c ****     keyaddr+=4;
 3841              		.loc 1 1270 0
 3842 032c 3B9B     		ldr	r3, [sp, #236]
 3843 032e 1B68     		ldr	r3, [r3]
 3844 0330 2693     		str	r3, [sp, #152]
 3845              	.LBB434:
 3846              	.LBB435:
 3847              		.loc 2 498 0
 3848 0332 269B     		ldr	r3, [sp, #152]
 3849 0334 1BBA     		rev	r3, r3
 3850              	.LBE435:
 3851              	.LBE434:
1270:/home/rdu/Workspace/project_templates/mcu/stm32_ws/src/libraries/STM32F4xx_StdPeriph_Driver/src/stm32f4xx_cryp_aes.c ****     keyaddr+=4;
 3852              		.loc 1 1270 0
 3853 0336 1693     		str	r3, [sp, #88]
1271:/home/rdu/Workspace/project_templates/mcu/stm32_ws/src/libraries/STM32F4xx_StdPeriph_Driver/src/stm32f4xx_cryp_aes.c ****     AES_CRYP_KeyInitStructure.CRYP_Key0Right= __REV(*(uint32_t*)(keyaddr));
 3854              		.loc 1 1271 0
 3855 0338 3B9B     		ldr	r3, [sp, #236]
 3856 033a 0433     		adds	r3, r3, #4
 3857 033c 3B93     		str	r3, [sp, #236]
1272:/home/rdu/Workspace/project_templates/mcu/stm32_ws/src/libraries/STM32F4xx_StdPeriph_Driver/src/stm32f4xx_cryp_aes.c ****     keyaddr+=4;
 3858              		.loc 1 1272 0
 3859 033e 3B9B     		ldr	r3, [sp, #236]
 3860 0340 1B68     		ldr	r3, [r3]
 3861 0342 2793     		str	r3, [sp, #156]
 3862              	.LBB436:
 3863              	.LBB437:
 3864              		.loc 2 498 0
 3865 0344 279B     		ldr	r3, [sp, #156]
 3866 0346 1BBA     		rev	r3, r3
 3867              	.LBE437:
 3868              	.LBE436:
1272:/home/rdu/Workspace/project_templates/mcu/stm32_ws/src/libraries/STM32F4xx_StdPeriph_Driver/src/stm32f4xx_cryp_aes.c ****     keyaddr+=4;
 3869              		.loc 1 1272 0
 3870 0348 1793     		str	r3, [sp, #92]
1273:/home/rdu/Workspace/project_templates/mcu/stm32_ws/src/libraries/STM32F4xx_StdPeriph_Driver/src/stm32f4xx_cryp_aes.c ****     AES_CRYP_KeyInitStructure.CRYP_Key1Left = __REV(*(uint32_t*)(keyaddr));
 3871              		.loc 1 1273 0
 3872 034a 3B9B     		ldr	r3, [sp, #236]
 3873 034c 0433     		adds	r3, r3, #4
 3874 034e 3B93     		str	r3, [sp, #236]
1274:/home/rdu/Workspace/project_templates/mcu/stm32_ws/src/libraries/STM32F4xx_StdPeriph_Driver/src/stm32f4xx_cryp_aes.c ****     keyaddr+=4;
 3875              		.loc 1 1274 0
 3876 0350 3B9B     		ldr	r3, [sp, #236]
 3877 0352 1B68     		ldr	r3, [r3]
 3878 0354 2893     		str	r3, [sp, #160]
 3879              	.LBB438:
 3880              	.LBB439:
 3881              		.loc 2 498 0
 3882 0356 289B     		ldr	r3, [sp, #160]
 3883 0358 1BBA     		rev	r3, r3
 3884              	.LBE439:
 3885              	.LBE438:
1274:/home/rdu/Workspace/project_templates/mcu/stm32_ws/src/libraries/STM32F4xx_StdPeriph_Driver/src/stm32f4xx_cryp_aes.c ****     keyaddr+=4;
 3886              		.loc 1 1274 0
 3887 035a 1893     		str	r3, [sp, #96]
1275:/home/rdu/Workspace/project_templates/mcu/stm32_ws/src/libraries/STM32F4xx_StdPeriph_Driver/src/stm32f4xx_cryp_aes.c ****     AES_CRYP_KeyInitStructure.CRYP_Key1Right= __REV(*(uint32_t*)(keyaddr));
 3888              		.loc 1 1275 0
 3889 035c 3B9B     		ldr	r3, [sp, #236]
 3890 035e 0433     		adds	r3, r3, #4
 3891 0360 3B93     		str	r3, [sp, #236]
1276:/home/rdu/Workspace/project_templates/mcu/stm32_ws/src/libraries/STM32F4xx_StdPeriph_Driver/src/stm32f4xx_cryp_aes.c ****     keyaddr+=4;
 3892              		.loc 1 1276 0
 3893 0362 3B9B     		ldr	r3, [sp, #236]
 3894 0364 1B68     		ldr	r3, [r3]
 3895 0366 2993     		str	r3, [sp, #164]
 3896              	.LBB440:
 3897              	.LBB441:
 3898              		.loc 2 498 0
 3899 0368 299B     		ldr	r3, [sp, #164]
 3900 036a 1BBA     		rev	r3, r3
 3901              	.LBE441:
 3902              	.LBE440:
1276:/home/rdu/Workspace/project_templates/mcu/stm32_ws/src/libraries/STM32F4xx_StdPeriph_Driver/src/stm32f4xx_cryp_aes.c ****     keyaddr+=4;
 3903              		.loc 1 1276 0
 3904 036c 1993     		str	r3, [sp, #100]
1277:/home/rdu/Workspace/project_templates/mcu/stm32_ws/src/libraries/STM32F4xx_StdPeriph_Driver/src/stm32f4xx_cryp_aes.c ****     AES_CRYP_KeyInitStructure.CRYP_Key2Left = __REV(*(uint32_t*)(keyaddr));
 3905              		.loc 1 1277 0
 3906 036e 3B9B     		ldr	r3, [sp, #236]
 3907 0370 0433     		adds	r3, r3, #4
 3908 0372 3B93     		str	r3, [sp, #236]
1278:/home/rdu/Workspace/project_templates/mcu/stm32_ws/src/libraries/STM32F4xx_StdPeriph_Driver/src/stm32f4xx_cryp_aes.c ****     keyaddr+=4;
 3909              		.loc 1 1278 0
 3910 0374 3B9B     		ldr	r3, [sp, #236]
 3911 0376 1B68     		ldr	r3, [r3]
 3912 0378 2A93     		str	r3, [sp, #168]
 3913              	.LBB442:
 3914              	.LBB443:
 3915              		.loc 2 498 0
 3916 037a 2A9B     		ldr	r3, [sp, #168]
 3917 037c 1BBA     		rev	r3, r3
 3918              	.LBE443:
 3919              	.LBE442:
1278:/home/rdu/Workspace/project_templates/mcu/stm32_ws/src/libraries/STM32F4xx_StdPeriph_Driver/src/stm32f4xx_cryp_aes.c ****     keyaddr+=4;
 3920              		.loc 1 1278 0
 3921 037e 1A93     		str	r3, [sp, #104]
1279:/home/rdu/Workspace/project_templates/mcu/stm32_ws/src/libraries/STM32F4xx_StdPeriph_Driver/src/stm32f4xx_cryp_aes.c ****     AES_CRYP_KeyInitStructure.CRYP_Key2Right= __REV(*(uint32_t*)(keyaddr));
 3922              		.loc 1 1279 0
 3923 0380 3B9B     		ldr	r3, [sp, #236]
 3924 0382 0433     		adds	r3, r3, #4
 3925 0384 3B93     		str	r3, [sp, #236]
1280:/home/rdu/Workspace/project_templates/mcu/stm32_ws/src/libraries/STM32F4xx_StdPeriph_Driver/src/stm32f4xx_cryp_aes.c ****     keyaddr+=4;
 3926              		.loc 1 1280 0
 3927 0386 3B9B     		ldr	r3, [sp, #236]
 3928 0388 1B68     		ldr	r3, [r3]
 3929 038a 2B93     		str	r3, [sp, #172]
 3930              	.LBB444:
 3931              	.LBB445:
 3932              		.loc 2 498 0
 3933 038c 2B9B     		ldr	r3, [sp, #172]
 3934 038e 1BBA     		rev	r3, r3
 3935              	.LBE445:
 3936              	.LBE444:
1280:/home/rdu/Workspace/project_templates/mcu/stm32_ws/src/libraries/STM32F4xx_StdPeriph_Driver/src/stm32f4xx_cryp_aes.c ****     keyaddr+=4;
 3937              		.loc 1 1280 0
 3938 0390 1B93     		str	r3, [sp, #108]
1281:/home/rdu/Workspace/project_templates/mcu/stm32_ws/src/libraries/STM32F4xx_StdPeriph_Driver/src/stm32f4xx_cryp_aes.c ****     AES_CRYP_KeyInitStructure.CRYP_Key3Left = __REV(*(uint32_t*)(keyaddr));
 3939              		.loc 1 1281 0
 3940 0392 3B9B     		ldr	r3, [sp, #236]
 3941 0394 0433     		adds	r3, r3, #4
 3942 0396 3B93     		str	r3, [sp, #236]
1282:/home/rdu/Workspace/project_templates/mcu/stm32_ws/src/libraries/STM32F4xx_StdPeriph_Driver/src/stm32f4xx_cryp_aes.c ****     keyaddr+=4;
 3943              		.loc 1 1282 0
 3944 0398 3B9B     		ldr	r3, [sp, #236]
 3945 039a 1B68     		ldr	r3, [r3]
 3946 039c 2C93     		str	r3, [sp, #176]
 3947              	.LBB446:
 3948              	.LBB447:
 3949              		.loc 2 498 0
 3950 039e 2C9B     		ldr	r3, [sp, #176]
 3951 03a0 1BBA     		rev	r3, r3
 3952              	.LBE447:
 3953              	.LBE446:
1282:/home/rdu/Workspace/project_templates/mcu/stm32_ws/src/libraries/STM32F4xx_StdPeriph_Driver/src/stm32f4xx_cryp_aes.c ****     keyaddr+=4;
 3954              		.loc 1 1282 0
 3955 03a2 1C93     		str	r3, [sp, #112]
1283:/home/rdu/Workspace/project_templates/mcu/stm32_ws/src/libraries/STM32F4xx_StdPeriph_Driver/src/stm32f4xx_cryp_aes.c ****     AES_CRYP_KeyInitStructure.CRYP_Key3Right= __REV(*(uint32_t*)(keyaddr));
 3956              		.loc 1 1283 0
 3957 03a4 3B9B     		ldr	r3, [sp, #236]
 3958 03a6 0433     		adds	r3, r3, #4
 3959 03a8 3B93     		str	r3, [sp, #236]
1284:/home/rdu/Workspace/project_templates/mcu/stm32_ws/src/libraries/STM32F4xx_StdPeriph_Driver/src/stm32f4xx_cryp_aes.c ****     break;
 3960              		.loc 1 1284 0
 3961 03aa 3B9B     		ldr	r3, [sp, #236]
 3962 03ac 1B68     		ldr	r3, [r3]
 3963 03ae 2D93     		str	r3, [sp, #180]
 3964              	.LBB448:
 3965              	.LBB449:
 3966              		.loc 2 498 0
 3967 03b0 2D9B     		ldr	r3, [sp, #180]
 3968 03b2 1BBA     		rev	r3, r3
 3969              	.LBE449:
 3970              	.LBE448:
1284:/home/rdu/Workspace/project_templates/mcu/stm32_ws/src/libraries/STM32F4xx_StdPeriph_Driver/src/stm32f4xx_cryp_aes.c ****     break;
 3971              		.loc 1 1284 0
 3972 03b4 1D93     		str	r3, [sp, #116]
1285:/home/rdu/Workspace/project_templates/mcu/stm32_ws/src/libraries/STM32F4xx_StdPeriph_Driver/src/stm32f4xx_cryp_aes.c ****     default:
 3973              		.loc 1 1285 0
 3974 03b6 00BF     		nop
 3975              	.L231:
1288:/home/rdu/Workspace/project_templates/mcu/stm32_ws/src/libraries/STM32F4xx_StdPeriph_Driver/src/stm32f4xx_cryp_aes.c ****   }
1289:/home/rdu/Workspace/project_templates/mcu/stm32_ws/src/libraries/STM32F4xx_StdPeriph_Driver/src/stm32f4xx_cryp_aes.c ****   
1290:/home/rdu/Workspace/project_templates/mcu/stm32_ws/src/libraries/STM32F4xx_StdPeriph_Driver/src/stm32f4xx_cryp_aes.c ****   /* CRYP Initialization Vectors */
1291:/home/rdu/Workspace/project_templates/mcu/stm32_ws/src/libraries/STM32F4xx_StdPeriph_Driver/src/stm32f4xx_cryp_aes.c ****   AES_CRYP_IVInitStructure.CRYP_IV0Left = (__REV(*(uint32_t*)(ctraddr)));
 3976              		.loc 1 1291 0
 3977 03b8 399B     		ldr	r3, [sp, #228]
 3978 03ba 1B68     		ldr	r3, [r3]
 3979 03bc 2293     		str	r3, [sp, #136]
 3980              	.LBB450:
 3981              	.LBB451:
 3982              		.loc 2 498 0
 3983 03be 229B     		ldr	r3, [sp, #136]
 3984 03c0 1BBA     		rev	r3, r3
 3985              	.LBE451:
 3986              	.LBE450:
 3987              		.loc 1 1291 0
 3988 03c2 1293     		str	r3, [sp, #72]
1292:/home/rdu/Workspace/project_templates/mcu/stm32_ws/src/libraries/STM32F4xx_StdPeriph_Driver/src/stm32f4xx_cryp_aes.c ****   ctraddr+=4;
 3989              		.loc 1 1292 0
 3990 03c4 399B     		ldr	r3, [sp, #228]
 3991 03c6 0433     		adds	r3, r3, #4
 3992 03c8 3993     		str	r3, [sp, #228]
1293:/home/rdu/Workspace/project_templates/mcu/stm32_ws/src/libraries/STM32F4xx_StdPeriph_Driver/src/stm32f4xx_cryp_aes.c ****   AES_CRYP_IVInitStructure.CRYP_IV0Right= (__REV(*(uint32_t*)(ctraddr)));
 3993              		.loc 1 1293 0
 3994 03ca 399B     		ldr	r3, [sp, #228]
 3995 03cc 1B68     		ldr	r3, [r3]
 3996 03ce 2393     		str	r3, [sp, #140]
 3997              	.LBB452:
 3998              	.LBB453:
 3999              		.loc 2 498 0
 4000 03d0 239B     		ldr	r3, [sp, #140]
 4001 03d2 1BBA     		rev	r3, r3
 4002              	.LBE453:
 4003              	.LBE452:
 4004              		.loc 1 1293 0
 4005 03d4 1393     		str	r3, [sp, #76]
1294:/home/rdu/Workspace/project_templates/mcu/stm32_ws/src/libraries/STM32F4xx_StdPeriph_Driver/src/stm32f4xx_cryp_aes.c ****   ctraddr+=4;
 4006              		.loc 1 1294 0
 4007 03d6 399B     		ldr	r3, [sp, #228]
 4008 03d8 0433     		adds	r3, r3, #4
 4009 03da 3993     		str	r3, [sp, #228]
1295:/home/rdu/Workspace/project_templates/mcu/stm32_ws/src/libraries/STM32F4xx_StdPeriph_Driver/src/stm32f4xx_cryp_aes.c ****   AES_CRYP_IVInitStructure.CRYP_IV1Left = (__REV(*(uint32_t*)(ctraddr)));
 4010              		.loc 1 1295 0
 4011 03dc 399B     		ldr	r3, [sp, #228]
 4012 03de 1B68     		ldr	r3, [r3]
 4013 03e0 2493     		str	r3, [sp, #144]
 4014              	.LBB454:
 4015              	.LBB455:
 4016              		.loc 2 498 0
 4017 03e2 249B     		ldr	r3, [sp, #144]
 4018 03e4 1BBA     		rev	r3, r3
 4019              	.LBE455:
 4020              	.LBE454:
 4021              		.loc 1 1295 0
 4022 03e6 1493     		str	r3, [sp, #80]
1296:/home/rdu/Workspace/project_templates/mcu/stm32_ws/src/libraries/STM32F4xx_StdPeriph_Driver/src/stm32f4xx_cryp_aes.c ****   ctraddr+=4;
 4023              		.loc 1 1296 0
 4024 03e8 399B     		ldr	r3, [sp, #228]
 4025 03ea 0433     		adds	r3, r3, #4
 4026 03ec 3993     		str	r3, [sp, #228]
1297:/home/rdu/Workspace/project_templates/mcu/stm32_ws/src/libraries/STM32F4xx_StdPeriph_Driver/src/stm32f4xx_cryp_aes.c ****   AES_CRYP_IVInitStructure.CRYP_IV1Right= (__REV(*(uint32_t*)(ctraddr)));
 4027              		.loc 1 1297 0
 4028 03ee 399B     		ldr	r3, [sp, #228]
 4029 03f0 1B68     		ldr	r3, [r3]
 4030 03f2 2593     		str	r3, [sp, #148]
 4031              	.LBB456:
 4032              	.LBB457:
 4033              		.loc 2 498 0
 4034 03f4 259B     		ldr	r3, [sp, #148]
 4035 03f6 1BBA     		rev	r3, r3
 4036              	.LBE457:
 4037              	.LBE456:
 4038              		.loc 1 1297 0
 4039 03f8 1593     		str	r3, [sp, #84]
1298:/home/rdu/Workspace/project_templates/mcu/stm32_ws/src/libraries/STM32F4xx_StdPeriph_Driver/src/stm32f4xx_cryp_aes.c ****   
1299:/home/rdu/Workspace/project_templates/mcu/stm32_ws/src/libraries/STM32F4xx_StdPeriph_Driver/src/stm32f4xx_cryp_aes.c ****   /*------------------ AES Encryption ------------------*/
1300:/home/rdu/Workspace/project_templates/mcu/stm32_ws/src/libraries/STM32F4xx_StdPeriph_Driver/src/stm32f4xx_cryp_aes.c ****   if(Mode == MODE_ENCRYPT) /* AES encryption */
 4040              		.loc 1 1300 0
 4041 03fa 0DF10F03 		add	r3, sp, #15
 4042 03fe 1B78     		ldrb	r3, [r3]	@ zero_extendqisi2
 4043 0400 012B     		cmp	r3, #1
 4044 0402 40F06681 		bne	.L250
1301:/home/rdu/Workspace/project_templates/mcu/stm32_ws/src/libraries/STM32F4xx_StdPeriph_Driver/src/stm32f4xx_cryp_aes.c ****   {
1302:/home/rdu/Workspace/project_templates/mcu/stm32_ws/src/libraries/STM32F4xx_StdPeriph_Driver/src/stm32f4xx_cryp_aes.c ****     /* Flush IN/OUT FIFOs */
1303:/home/rdu/Workspace/project_templates/mcu/stm32_ws/src/libraries/STM32F4xx_StdPeriph_Driver/src/stm32f4xx_cryp_aes.c ****     CRYP_FIFOFlush();
 4045              		.loc 1 1303 0
 4046 0406 FFF7FEFF 		bl	CRYP_FIFOFlush
1304:/home/rdu/Workspace/project_templates/mcu/stm32_ws/src/libraries/STM32F4xx_StdPeriph_Driver/src/stm32f4xx_cryp_aes.c ****     
1305:/home/rdu/Workspace/project_templates/mcu/stm32_ws/src/libraries/STM32F4xx_StdPeriph_Driver/src/stm32f4xx_cryp_aes.c ****     /* Key Initialisation */
1306:/home/rdu/Workspace/project_templates/mcu/stm32_ws/src/libraries/STM32F4xx_StdPeriph_Driver/src/stm32f4xx_cryp_aes.c ****     CRYP_KeyInit(&AES_CRYP_KeyInitStructure);
 4047              		.loc 1 1306 0
 4048 040a 16AB     		add	r3, sp, #88
 4049 040c 1846     		mov	r0, r3
 4050 040e FFF7FEFF 		bl	CRYP_KeyInit
1307:/home/rdu/Workspace/project_templates/mcu/stm32_ws/src/libraries/STM32F4xx_StdPeriph_Driver/src/stm32f4xx_cryp_aes.c ****     
1308:/home/rdu/Workspace/project_templates/mcu/stm32_ws/src/libraries/STM32F4xx_StdPeriph_Driver/src/stm32f4xx_cryp_aes.c ****     /* CRYP Initialization Vectors */
1309:/home/rdu/Workspace/project_templates/mcu/stm32_ws/src/libraries/STM32F4xx_StdPeriph_Driver/src/stm32f4xx_cryp_aes.c ****     CRYP_IVInit(&AES_CRYP_IVInitStructure);
 4051              		.loc 1 1309 0
 4052 0412 12AB     		add	r3, sp, #72
 4053 0414 1846     		mov	r0, r3
 4054 0416 FFF7FEFF 		bl	CRYP_IVInit
1310:/home/rdu/Workspace/project_templates/mcu/stm32_ws/src/libraries/STM32F4xx_StdPeriph_Driver/src/stm32f4xx_cryp_aes.c ****     
1311:/home/rdu/Workspace/project_templates/mcu/stm32_ws/src/libraries/STM32F4xx_StdPeriph_Driver/src/stm32f4xx_cryp_aes.c ****     /* Crypto Init for Key preparation for decryption process */
1312:/home/rdu/Workspace/project_templates/mcu/stm32_ws/src/libraries/STM32F4xx_StdPeriph_Driver/src/stm32f4xx_cryp_aes.c ****     AES_CRYP_InitStructure.CRYP_AlgoDir = CRYP_AlgoDir_Encrypt;
 4055              		.loc 1 1312 0
 4056 041a 0023     		movs	r3, #0
 4057 041c 1E93     		str	r3, [sp, #120]
1313:/home/rdu/Workspace/project_templates/mcu/stm32_ws/src/libraries/STM32F4xx_StdPeriph_Driver/src/stm32f4xx_cryp_aes.c ****     AES_CRYP_InitStructure.CRYP_AlgoMode = CRYP_AlgoMode_AES_CCM;
 4058              		.loc 1 1313 0
 4059 041e 4FF00813 		mov	r3, #524296
 4060 0422 1F93     		str	r3, [sp, #124]
1314:/home/rdu/Workspace/project_templates/mcu/stm32_ws/src/libraries/STM32F4xx_StdPeriph_Driver/src/stm32f4xx_cryp_aes.c ****     AES_CRYP_InitStructure.CRYP_DataType = CRYP_DataType_8b;
 4061              		.loc 1 1314 0
 4062 0424 8023     		movs	r3, #128
 4063 0426 2093     		str	r3, [sp, #128]
1315:/home/rdu/Workspace/project_templates/mcu/stm32_ws/src/libraries/STM32F4xx_StdPeriph_Driver/src/stm32f4xx_cryp_aes.c ****     CRYP_Init(&AES_CRYP_InitStructure);
 4064              		.loc 1 1315 0
 4065 0428 1EAB     		add	r3, sp, #120
 4066 042a 1846     		mov	r0, r3
 4067 042c FFF7FEFF 		bl	CRYP_Init
1316:/home/rdu/Workspace/project_templates/mcu/stm32_ws/src/libraries/STM32F4xx_StdPeriph_Driver/src/stm32f4xx_cryp_aes.c ****     
1317:/home/rdu/Workspace/project_templates/mcu/stm32_ws/src/libraries/STM32F4xx_StdPeriph_Driver/src/stm32f4xx_cryp_aes.c ****     /***************************** Init phase *********************************/
1318:/home/rdu/Workspace/project_templates/mcu/stm32_ws/src/libraries/STM32F4xx_StdPeriph_Driver/src/stm32f4xx_cryp_aes.c ****     /* Select init phase */
1319:/home/rdu/Workspace/project_templates/mcu/stm32_ws/src/libraries/STM32F4xx_StdPeriph_Driver/src/stm32f4xx_cryp_aes.c ****     CRYP_PhaseConfig(CRYP_Phase_Init);
 4068              		.loc 1 1319 0
 4069 0430 0020     		movs	r0, #0
 4070 0432 FFF7FEFF 		bl	CRYP_PhaseConfig
1320:/home/rdu/Workspace/project_templates/mcu/stm32_ws/src/libraries/STM32F4xx_StdPeriph_Driver/src/stm32f4xx_cryp_aes.c ****     
1321:/home/rdu/Workspace/project_templates/mcu/stm32_ws/src/libraries/STM32F4xx_StdPeriph_Driver/src/stm32f4xx_cryp_aes.c ****     b0addr = (uint32_t)blockb0;
 4071              		.loc 1 1321 0
 4072 0436 0DAB     		add	r3, sp, #52
 4073 0438 3893     		str	r3, [sp, #224]
1322:/home/rdu/Workspace/project_templates/mcu/stm32_ws/src/libraries/STM32F4xx_StdPeriph_Driver/src/stm32f4xx_cryp_aes.c ****     /* Write the blockb0 block in the IN FIFO */
1323:/home/rdu/Workspace/project_templates/mcu/stm32_ws/src/libraries/STM32F4xx_StdPeriph_Driver/src/stm32f4xx_cryp_aes.c ****     CRYP_DataIn((*(uint32_t*)(b0addr)));
 4074              		.loc 1 1323 0
 4075 043a 389B     		ldr	r3, [sp, #224]
 4076 043c 1B68     		ldr	r3, [r3]
 4077 043e 1846     		mov	r0, r3
 4078 0440 FFF7FEFF 		bl	CRYP_DataIn
1324:/home/rdu/Workspace/project_templates/mcu/stm32_ws/src/libraries/STM32F4xx_StdPeriph_Driver/src/stm32f4xx_cryp_aes.c ****     b0addr+=4;
 4079              		.loc 1 1324 0
 4080 0444 389B     		ldr	r3, [sp, #224]
 4081 0446 0433     		adds	r3, r3, #4
 4082 0448 3893     		str	r3, [sp, #224]
1325:/home/rdu/Workspace/project_templates/mcu/stm32_ws/src/libraries/STM32F4xx_StdPeriph_Driver/src/stm32f4xx_cryp_aes.c ****     CRYP_DataIn((*(uint32_t*)(b0addr)));
 4083              		.loc 1 1325 0
 4084 044a 389B     		ldr	r3, [sp, #224]
 4085 044c 1B68     		ldr	r3, [r3]
 4086 044e 1846     		mov	r0, r3
 4087 0450 FFF7FEFF 		bl	CRYP_DataIn
1326:/home/rdu/Workspace/project_templates/mcu/stm32_ws/src/libraries/STM32F4xx_StdPeriph_Driver/src/stm32f4xx_cryp_aes.c ****     b0addr+=4;
 4088              		.loc 1 1326 0
 4089 0454 389B     		ldr	r3, [sp, #224]
 4090 0456 0433     		adds	r3, r3, #4
 4091 0458 3893     		str	r3, [sp, #224]
1327:/home/rdu/Workspace/project_templates/mcu/stm32_ws/src/libraries/STM32F4xx_StdPeriph_Driver/src/stm32f4xx_cryp_aes.c ****     CRYP_DataIn((*(uint32_t*)(b0addr)));
 4092              		.loc 1 1327 0
 4093 045a 389B     		ldr	r3, [sp, #224]
 4094 045c 1B68     		ldr	r3, [r3]
 4095 045e 1846     		mov	r0, r3
 4096 0460 FFF7FEFF 		bl	CRYP_DataIn
1328:/home/rdu/Workspace/project_templates/mcu/stm32_ws/src/libraries/STM32F4xx_StdPeriph_Driver/src/stm32f4xx_cryp_aes.c ****     b0addr+=4;
 4097              		.loc 1 1328 0
 4098 0464 389B     		ldr	r3, [sp, #224]
 4099 0466 0433     		adds	r3, r3, #4
 4100 0468 3893     		str	r3, [sp, #224]
1329:/home/rdu/Workspace/project_templates/mcu/stm32_ws/src/libraries/STM32F4xx_StdPeriph_Driver/src/stm32f4xx_cryp_aes.c ****     CRYP_DataIn((*(uint32_t*)(b0addr)));
 4101              		.loc 1 1329 0
 4102 046a 389B     		ldr	r3, [sp, #224]
 4103 046c 1B68     		ldr	r3, [r3]
 4104 046e 1846     		mov	r0, r3
 4105 0470 FFF7FEFF 		bl	CRYP_DataIn
1330:/home/rdu/Workspace/project_templates/mcu/stm32_ws/src/libraries/STM32F4xx_StdPeriph_Driver/src/stm32f4xx_cryp_aes.c ****     
1331:/home/rdu/Workspace/project_templates/mcu/stm32_ws/src/libraries/STM32F4xx_StdPeriph_Driver/src/stm32f4xx_cryp_aes.c ****     /* Enable Crypto processor */
1332:/home/rdu/Workspace/project_templates/mcu/stm32_ws/src/libraries/STM32F4xx_StdPeriph_Driver/src/stm32f4xx_cryp_aes.c ****     CRYP_Cmd(ENABLE);
 4106              		.loc 1 1332 0
 4107 0474 0120     		movs	r0, #1
 4108 0476 FFF7FEFF 		bl	CRYP_Cmd
1333:/home/rdu/Workspace/project_templates/mcu/stm32_ws/src/libraries/STM32F4xx_StdPeriph_Driver/src/stm32f4xx_cryp_aes.c ****     
1334:/home/rdu/Workspace/project_templates/mcu/stm32_ws/src/libraries/STM32F4xx_StdPeriph_Driver/src/stm32f4xx_cryp_aes.c ****     /* Wait for CRYPEN bit to be 0 */
1335:/home/rdu/Workspace/project_templates/mcu/stm32_ws/src/libraries/STM32F4xx_StdPeriph_Driver/src/stm32f4xx_cryp_aes.c ****     while(CRYP_GetCmdStatus() == ENABLE)
 4109              		.loc 1 1335 0
 4110 047a 00BF     		nop
 4111              	.L251:
 4112              		.loc 1 1335 0 is_stmt 0 discriminator 1
 4113 047c FFF7FEFF 		bl	CRYP_GetCmdStatus
 4114 0480 0346     		mov	r3, r0
 4115 0482 012B     		cmp	r3, #1
 4116 0484 FAD0     		beq	.L251
1336:/home/rdu/Workspace/project_templates/mcu/stm32_ws/src/libraries/STM32F4xx_StdPeriph_Driver/src/stm32f4xx_cryp_aes.c ****     {
1337:/home/rdu/Workspace/project_templates/mcu/stm32_ws/src/libraries/STM32F4xx_StdPeriph_Driver/src/stm32f4xx_cryp_aes.c ****     }
1338:/home/rdu/Workspace/project_templates/mcu/stm32_ws/src/libraries/STM32F4xx_StdPeriph_Driver/src/stm32f4xx_cryp_aes.c ****     /***************************** header phase *******************************/
1339:/home/rdu/Workspace/project_templates/mcu/stm32_ws/src/libraries/STM32F4xx_StdPeriph_Driver/src/stm32f4xx_cryp_aes.c ****     if(headersize != 0)
 4117              		.loc 1 1339 0 is_stmt 1
 4118 0486 3F9B     		ldr	r3, [sp, #252]
 4119 0488 002B     		cmp	r3, #0
 4120 048a 55D0     		beq	.L252
1340:/home/rdu/Workspace/project_templates/mcu/stm32_ws/src/libraries/STM32F4xx_StdPeriph_Driver/src/stm32f4xx_cryp_aes.c ****     {
1341:/home/rdu/Workspace/project_templates/mcu/stm32_ws/src/libraries/STM32F4xx_StdPeriph_Driver/src/stm32f4xx_cryp_aes.c ****       /* Select header phase */
1342:/home/rdu/Workspace/project_templates/mcu/stm32_ws/src/libraries/STM32F4xx_StdPeriph_Driver/src/stm32f4xx_cryp_aes.c ****       CRYP_PhaseConfig(CRYP_Phase_Header);
 4121              		.loc 1 1342 0
 4122 048c 4FF48030 		mov	r0, #65536
 4123 0490 FFF7FEFF 		bl	CRYP_PhaseConfig
1343:/home/rdu/Workspace/project_templates/mcu/stm32_ws/src/libraries/STM32F4xx_StdPeriph_Driver/src/stm32f4xx_cryp_aes.c ****       
1344:/home/rdu/Workspace/project_templates/mcu/stm32_ws/src/libraries/STM32F4xx_StdPeriph_Driver/src/stm32f4xx_cryp_aes.c ****       /* Enable Crypto processor */
1345:/home/rdu/Workspace/project_templates/mcu/stm32_ws/src/libraries/STM32F4xx_StdPeriph_Driver/src/stm32f4xx_cryp_aes.c ****       CRYP_Cmd(ENABLE);
 4124              		.loc 1 1345 0
 4125 0494 0120     		movs	r0, #1
 4126 0496 FFF7FEFF 		bl	CRYP_Cmd
1346:/home/rdu/Workspace/project_templates/mcu/stm32_ws/src/libraries/STM32F4xx_StdPeriph_Driver/src/stm32f4xx_cryp_aes.c ****       
1347:/home/rdu/Workspace/project_templates/mcu/stm32_ws/src/libraries/STM32F4xx_StdPeriph_Driver/src/stm32f4xx_cryp_aes.c ****       if(CRYP_GetCmdStatus() == DISABLE)
 4127              		.loc 1 1347 0
 4128 049a FFF7FEFF 		bl	CRYP_GetCmdStatus
 4129 049e 0346     		mov	r3, r0
 4130 04a0 002B     		cmp	r3, #0
 4131 04a2 01D1     		bne	.L253
1348:/home/rdu/Workspace/project_templates/mcu/stm32_ws/src/libraries/STM32F4xx_StdPeriph_Driver/src/stm32f4xx_cryp_aes.c ****       {
1349:/home/rdu/Workspace/project_templates/mcu/stm32_ws/src/libraries/STM32F4xx_StdPeriph_Driver/src/stm32f4xx_cryp_aes.c ****          /* The CRYP peripheral clock is not enabled or the device doesn't embed 
1350:/home/rdu/Workspace/project_templates/mcu/stm32_ws/src/libraries/STM32F4xx_StdPeriph_Driver/src/stm32f4xx_cryp_aes.c ****             the CRYP peripheral (please check the device sales type. */
1351:/home/rdu/Workspace/project_templates/mcu/stm32_ws/src/libraries/STM32F4xx_StdPeriph_Driver/src/stm32f4xx_cryp_aes.c ****          return(ERROR);
 4132              		.loc 1 1351 0
 4133 04a4 0023     		movs	r3, #0
 4134 04a6 90E2     		b	.L295
 4135              	.L253:
1352:/home/rdu/Workspace/project_templates/mcu/stm32_ws/src/libraries/STM32F4xx_StdPeriph_Driver/src/stm32f4xx_cryp_aes.c ****       }
1353:/home/rdu/Workspace/project_templates/mcu/stm32_ws/src/libraries/STM32F4xx_StdPeriph_Driver/src/stm32f4xx_cryp_aes.c ****       
1354:/home/rdu/Workspace/project_templates/mcu/stm32_ws/src/libraries/STM32F4xx_StdPeriph_Driver/src/stm32f4xx_cryp_aes.c ****       for(loopcounter = 0; (loopcounter < headersize); loopcounter+=16)
 4136              		.loc 1 1354 0
 4137 04a8 0023     		movs	r3, #0
 4138 04aa 3E93     		str	r3, [sp, #248]
 4139 04ac 29E0     		b	.L255
 4140              	.L257:
1355:/home/rdu/Workspace/project_templates/mcu/stm32_ws/src/libraries/STM32F4xx_StdPeriph_Driver/src/stm32f4xx_cryp_aes.c ****       {
1356:/home/rdu/Workspace/project_templates/mcu/stm32_ws/src/libraries/STM32F4xx_StdPeriph_Driver/src/stm32f4xx_cryp_aes.c ****         /* Wait until the IFEM flag is reset */
1357:/home/rdu/Workspace/project_templates/mcu/stm32_ws/src/libraries/STM32F4xx_StdPeriph_Driver/src/stm32f4xx_cryp_aes.c ****         while(CRYP_GetFlagStatus(CRYP_FLAG_IFEM) == RESET)
 4141              		.loc 1 1357 0
 4142 04ae 00BF     		nop
 4143              	.L256:
 4144              		.loc 1 1357 0 is_stmt 0 discriminator 1
 4145 04b0 0120     		movs	r0, #1
 4146 04b2 FFF7FEFF 		bl	CRYP_GetFlagStatus
 4147 04b6 0346     		mov	r3, r0
 4148 04b8 002B     		cmp	r3, #0
 4149 04ba F9D0     		beq	.L256
1358:/home/rdu/Workspace/project_templates/mcu/stm32_ws/src/libraries/STM32F4xx_StdPeriph_Driver/src/stm32f4xx_cryp_aes.c ****         {
1359:/home/rdu/Workspace/project_templates/mcu/stm32_ws/src/libraries/STM32F4xx_StdPeriph_Driver/src/stm32f4xx_cryp_aes.c ****         }
1360:/home/rdu/Workspace/project_templates/mcu/stm32_ws/src/libraries/STM32F4xx_StdPeriph_Driver/src/stm32f4xx_cryp_aes.c ****         
1361:/home/rdu/Workspace/project_templates/mcu/stm32_ws/src/libraries/STM32F4xx_StdPeriph_Driver/src/stm32f4xx_cryp_aes.c ****         /* Write the Input block in the IN FIFO */
1362:/home/rdu/Workspace/project_templates/mcu/stm32_ws/src/libraries/STM32F4xx_StdPeriph_Driver/src/stm32f4xx_cryp_aes.c ****         CRYP_DataIn(*(uint32_t*)(headeraddr));
 4150              		.loc 1 1362 0 is_stmt 1 discriminator 2
 4151 04bc 409B     		ldr	r3, [sp, #256]
 4152 04be 1B68     		ldr	r3, [r3]
 4153 04c0 1846     		mov	r0, r3
 4154 04c2 FFF7FEFF 		bl	CRYP_DataIn
1363:/home/rdu/Workspace/project_templates/mcu/stm32_ws/src/libraries/STM32F4xx_StdPeriph_Driver/src/stm32f4xx_cryp_aes.c ****         headeraddr+=4;
 4155              		.loc 1 1363 0 discriminator 2
 4156 04c6 409B     		ldr	r3, [sp, #256]
 4157 04c8 0433     		adds	r3, r3, #4
 4158 04ca 4093     		str	r3, [sp, #256]
1364:/home/rdu/Workspace/project_templates/mcu/stm32_ws/src/libraries/STM32F4xx_StdPeriph_Driver/src/stm32f4xx_cryp_aes.c ****         CRYP_DataIn(*(uint32_t*)(headeraddr));
 4159              		.loc 1 1364 0 discriminator 2
 4160 04cc 409B     		ldr	r3, [sp, #256]
 4161 04ce 1B68     		ldr	r3, [r3]
 4162 04d0 1846     		mov	r0, r3
 4163 04d2 FFF7FEFF 		bl	CRYP_DataIn
1365:/home/rdu/Workspace/project_templates/mcu/stm32_ws/src/libraries/STM32F4xx_StdPeriph_Driver/src/stm32f4xx_cryp_aes.c ****         headeraddr+=4;
 4164              		.loc 1 1365 0 discriminator 2
 4165 04d6 409B     		ldr	r3, [sp, #256]
 4166 04d8 0433     		adds	r3, r3, #4
 4167 04da 4093     		str	r3, [sp, #256]
1366:/home/rdu/Workspace/project_templates/mcu/stm32_ws/src/libraries/STM32F4xx_StdPeriph_Driver/src/stm32f4xx_cryp_aes.c ****         CRYP_DataIn(*(uint32_t*)(headeraddr));
 4168              		.loc 1 1366 0 discriminator 2
 4169 04dc 409B     		ldr	r3, [sp, #256]
 4170 04de 1B68     		ldr	r3, [r3]
 4171 04e0 1846     		mov	r0, r3
 4172 04e2 FFF7FEFF 		bl	CRYP_DataIn
1367:/home/rdu/Workspace/project_templates/mcu/stm32_ws/src/libraries/STM32F4xx_StdPeriph_Driver/src/stm32f4xx_cryp_aes.c ****         headeraddr+=4;
 4173              		.loc 1 1367 0 discriminator 2
 4174 04e6 409B     		ldr	r3, [sp, #256]
 4175 04e8 0433     		adds	r3, r3, #4
 4176 04ea 4093     		str	r3, [sp, #256]
1368:/home/rdu/Workspace/project_templates/mcu/stm32_ws/src/libraries/STM32F4xx_StdPeriph_Driver/src/stm32f4xx_cryp_aes.c ****         CRYP_DataIn(*(uint32_t*)(headeraddr));
 4177              		.loc 1 1368 0 discriminator 2
 4178 04ec 409B     		ldr	r3, [sp, #256]
 4179 04ee 1B68     		ldr	r3, [r3]
 4180 04f0 1846     		mov	r0, r3
 4181 04f2 FFF7FEFF 		bl	CRYP_DataIn
1369:/home/rdu/Workspace/project_templates/mcu/stm32_ws/src/libraries/STM32F4xx_StdPeriph_Driver/src/stm32f4xx_cryp_aes.c ****         headeraddr+=4;
 4182              		.loc 1 1369 0 discriminator 2
 4183 04f6 409B     		ldr	r3, [sp, #256]
 4184 04f8 0433     		adds	r3, r3, #4
 4185 04fa 4093     		str	r3, [sp, #256]
1354:/home/rdu/Workspace/project_templates/mcu/stm32_ws/src/libraries/STM32F4xx_StdPeriph_Driver/src/stm32f4xx_cryp_aes.c ****       {
 4186              		.loc 1 1354 0 discriminator 2
 4187 04fc 3E9B     		ldr	r3, [sp, #248]
 4188 04fe 1033     		adds	r3, r3, #16
 4189 0500 3E93     		str	r3, [sp, #248]
 4190              	.L255:
1354:/home/rdu/Workspace/project_templates/mcu/stm32_ws/src/libraries/STM32F4xx_StdPeriph_Driver/src/stm32f4xx_cryp_aes.c ****       {
 4191              		.loc 1 1354 0 is_stmt 0 discriminator 1
 4192 0502 3E9A     		ldr	r2, [sp, #248]
 4193 0504 3F9B     		ldr	r3, [sp, #252]
 4194 0506 9A42     		cmp	r2, r3
 4195 0508 D1D3     		bcc	.L257
1370:/home/rdu/Workspace/project_templates/mcu/stm32_ws/src/libraries/STM32F4xx_StdPeriph_Driver/src/stm32f4xx_cryp_aes.c ****       }
1371:/home/rdu/Workspace/project_templates/mcu/stm32_ws/src/libraries/STM32F4xx_StdPeriph_Driver/src/stm32f4xx_cryp_aes.c ****       
1372:/home/rdu/Workspace/project_templates/mcu/stm32_ws/src/libraries/STM32F4xx_StdPeriph_Driver/src/stm32f4xx_cryp_aes.c ****       /* Wait until the complete message has been processed */
1373:/home/rdu/Workspace/project_templates/mcu/stm32_ws/src/libraries/STM32F4xx_StdPeriph_Driver/src/stm32f4xx_cryp_aes.c ****       counter = 0;
 4196              		.loc 1 1373 0 is_stmt 1
 4197 050a 0023     		movs	r3, #0
 4198 050c 1193     		str	r3, [sp, #68]
 4199              	.L259:
1374:/home/rdu/Workspace/project_templates/mcu/stm32_ws/src/libraries/STM32F4xx_StdPeriph_Driver/src/stm32f4xx_cryp_aes.c ****       do
1375:/home/rdu/Workspace/project_templates/mcu/stm32_ws/src/libraries/STM32F4xx_StdPeriph_Driver/src/stm32f4xx_cryp_aes.c ****       {
1376:/home/rdu/Workspace/project_templates/mcu/stm32_ws/src/libraries/STM32F4xx_StdPeriph_Driver/src/stm32f4xx_cryp_aes.c ****         busystatus = CRYP_GetFlagStatus(CRYP_FLAG_BUSY);
 4200              		.loc 1 1376 0 discriminator 2
 4201 050e 1020     		movs	r0, #16
 4202 0510 FFF7FEFF 		bl	CRYP_GetFlagStatus
 4203 0514 0346     		mov	r3, r0
 4204 0516 3C93     		str	r3, [sp, #240]
1377:/home/rdu/Workspace/project_templates/mcu/stm32_ws/src/libraries/STM32F4xx_StdPeriph_Driver/src/stm32f4xx_cryp_aes.c ****         counter++;
 4205              		.loc 1 1377 0 discriminator 2
 4206 0518 119B     		ldr	r3, [sp, #68]
 4207 051a 0133     		adds	r3, r3, #1
 4208 051c 1193     		str	r3, [sp, #68]
1378:/home/rdu/Workspace/project_templates/mcu/stm32_ws/src/libraries/STM32F4xx_StdPeriph_Driver/src/stm32f4xx_cryp_aes.c ****       }while ((counter != AESBUSY_TIMEOUT) && (busystatus != RESET));
 4209              		.loc 1 1378 0 discriminator 2
 4210 051e 119B     		ldr	r3, [sp, #68]
 4211 0520 B3F5803F 		cmp	r3, #65536
 4212 0524 02D0     		beq	.L258
 4213              		.loc 1 1378 0 is_stmt 0 discriminator 1
 4214 0526 3C9B     		ldr	r3, [sp, #240]
 4215 0528 002B     		cmp	r3, #0
 4216 052a F0D1     		bne	.L259
 4217              	.L258:
1379:/home/rdu/Workspace/project_templates/mcu/stm32_ws/src/libraries/STM32F4xx_StdPeriph_Driver/src/stm32f4xx_cryp_aes.c **** 
1380:/home/rdu/Workspace/project_templates/mcu/stm32_ws/src/libraries/STM32F4xx_StdPeriph_Driver/src/stm32f4xx_cryp_aes.c ****       if (busystatus != RESET)
 4218              		.loc 1 1380 0 is_stmt 1
 4219 052c 3C9B     		ldr	r3, [sp, #240]
 4220 052e 002B     		cmp	r3, #0
 4221 0530 02D0     		beq	.L252
1381:/home/rdu/Workspace/project_templates/mcu/stm32_ws/src/libraries/STM32F4xx_StdPeriph_Driver/src/stm32f4xx_cryp_aes.c ****       {
1382:/home/rdu/Workspace/project_templates/mcu/stm32_ws/src/libraries/STM32F4xx_StdPeriph_Driver/src/stm32f4xx_cryp_aes.c ****         status = ERROR;
 4222              		.loc 1 1382 0
 4223 0532 0023     		movs	r3, #0
 4224 0534 8DF80F31 		strb	r3, [sp, #271]
 4225              	.L252:
1383:/home/rdu/Workspace/project_templates/mcu/stm32_ws/src/libraries/STM32F4xx_StdPeriph_Driver/src/stm32f4xx_cryp_aes.c ****       }
1384:/home/rdu/Workspace/project_templates/mcu/stm32_ws/src/libraries/STM32F4xx_StdPeriph_Driver/src/stm32f4xx_cryp_aes.c ****     }
1385:/home/rdu/Workspace/project_templates/mcu/stm32_ws/src/libraries/STM32F4xx_StdPeriph_Driver/src/stm32f4xx_cryp_aes.c ****     
1386:/home/rdu/Workspace/project_templates/mcu/stm32_ws/src/libraries/STM32F4xx_StdPeriph_Driver/src/stm32f4xx_cryp_aes.c ****     /**************************** payload phase *******************************/
1387:/home/rdu/Workspace/project_templates/mcu/stm32_ws/src/libraries/STM32F4xx_StdPeriph_Driver/src/stm32f4xx_cryp_aes.c ****     if(ILength != 0)
 4226              		.loc 1 1387 0
 4227 0538 489B     		ldr	r3, [sp, #288]
 4228 053a 002B     		cmp	r3, #0
 4229 053c 00F08280 		beq	.L260
1388:/home/rdu/Workspace/project_templates/mcu/stm32_ws/src/libraries/STM32F4xx_StdPeriph_Driver/src/stm32f4xx_cryp_aes.c ****     {
1389:/home/rdu/Workspace/project_templates/mcu/stm32_ws/src/libraries/STM32F4xx_StdPeriph_Driver/src/stm32f4xx_cryp_aes.c ****       /* Select payload phase */
1390:/home/rdu/Workspace/project_templates/mcu/stm32_ws/src/libraries/STM32F4xx_StdPeriph_Driver/src/stm32f4xx_cryp_aes.c ****       CRYP_PhaseConfig(CRYP_Phase_Payload);
 4230              		.loc 1 1390 0
 4231 0540 4FF40030 		mov	r0, #131072
 4232 0544 FFF7FEFF 		bl	CRYP_PhaseConfig
1391:/home/rdu/Workspace/project_templates/mcu/stm32_ws/src/libraries/STM32F4xx_StdPeriph_Driver/src/stm32f4xx_cryp_aes.c ****       
1392:/home/rdu/Workspace/project_templates/mcu/stm32_ws/src/libraries/STM32F4xx_StdPeriph_Driver/src/stm32f4xx_cryp_aes.c ****       /* Enable Crypto processor */
1393:/home/rdu/Workspace/project_templates/mcu/stm32_ws/src/libraries/STM32F4xx_StdPeriph_Driver/src/stm32f4xx_cryp_aes.c ****       CRYP_Cmd(ENABLE);
 4233              		.loc 1 1393 0
 4234 0548 0120     		movs	r0, #1
 4235 054a FFF7FEFF 		bl	CRYP_Cmd
1394:/home/rdu/Workspace/project_templates/mcu/stm32_ws/src/libraries/STM32F4xx_StdPeriph_Driver/src/stm32f4xx_cryp_aes.c ****       
1395:/home/rdu/Workspace/project_templates/mcu/stm32_ws/src/libraries/STM32F4xx_StdPeriph_Driver/src/stm32f4xx_cryp_aes.c ****       if(CRYP_GetCmdStatus() == DISABLE)
 4236              		.loc 1 1395 0
 4237 054e FFF7FEFF 		bl	CRYP_GetCmdStatus
 4238 0552 0346     		mov	r3, r0
 4239 0554 002B     		cmp	r3, #0
 4240 0556 01D1     		bne	.L261
1396:/home/rdu/Workspace/project_templates/mcu/stm32_ws/src/libraries/STM32F4xx_StdPeriph_Driver/src/stm32f4xx_cryp_aes.c ****       {
1397:/home/rdu/Workspace/project_templates/mcu/stm32_ws/src/libraries/STM32F4xx_StdPeriph_Driver/src/stm32f4xx_cryp_aes.c ****         /* The CRYP peripheral clock is not enabled or the device doesn't embed 
1398:/home/rdu/Workspace/project_templates/mcu/stm32_ws/src/libraries/STM32F4xx_StdPeriph_Driver/src/stm32f4xx_cryp_aes.c ****            the CRYP peripheral (please check the device sales type. */
1399:/home/rdu/Workspace/project_templates/mcu/stm32_ws/src/libraries/STM32F4xx_StdPeriph_Driver/src/stm32f4xx_cryp_aes.c ****         return(ERROR);
 4241              		.loc 1 1399 0
 4242 0558 0023     		movs	r3, #0
 4243 055a 36E2     		b	.L295
 4244              	.L261:
1400:/home/rdu/Workspace/project_templates/mcu/stm32_ws/src/libraries/STM32F4xx_StdPeriph_Driver/src/stm32f4xx_cryp_aes.c ****       }
1401:/home/rdu/Workspace/project_templates/mcu/stm32_ws/src/libraries/STM32F4xx_StdPeriph_Driver/src/stm32f4xx_cryp_aes.c ****       
1402:/home/rdu/Workspace/project_templates/mcu/stm32_ws/src/libraries/STM32F4xx_StdPeriph_Driver/src/stm32f4xx_cryp_aes.c ****       for(loopcounter = 0; ((loopcounter < ILength) && (status != ERROR)); loopcounter+=16)
 4245              		.loc 1 1402 0
 4246 055c 0023     		movs	r3, #0
 4247 055e 3E93     		str	r3, [sp, #248]
 4248 0560 68E0     		b	.L262
 4249              	.L269:
1403:/home/rdu/Workspace/project_templates/mcu/stm32_ws/src/libraries/STM32F4xx_StdPeriph_Driver/src/stm32f4xx_cryp_aes.c ****       {
1404:/home/rdu/Workspace/project_templates/mcu/stm32_ws/src/libraries/STM32F4xx_StdPeriph_Driver/src/stm32f4xx_cryp_aes.c ****         /* Wait until the IFEM flag is reset */
1405:/home/rdu/Workspace/project_templates/mcu/stm32_ws/src/libraries/STM32F4xx_StdPeriph_Driver/src/stm32f4xx_cryp_aes.c ****         while(CRYP_GetFlagStatus(CRYP_FLAG_IFEM) == RESET)
 4250              		.loc 1 1405 0
 4251 0562 00BF     		nop
 4252              	.L263:
 4253              		.loc 1 1405 0 is_stmt 0 discriminator 1
 4254 0564 0120     		movs	r0, #1
 4255 0566 FFF7FEFF 		bl	CRYP_GetFlagStatus
 4256 056a 0346     		mov	r3, r0
 4257 056c 002B     		cmp	r3, #0
 4258 056e F9D0     		beq	.L263
1406:/home/rdu/Workspace/project_templates/mcu/stm32_ws/src/libraries/STM32F4xx_StdPeriph_Driver/src/stm32f4xx_cryp_aes.c ****         {
1407:/home/rdu/Workspace/project_templates/mcu/stm32_ws/src/libraries/STM32F4xx_StdPeriph_Driver/src/stm32f4xx_cryp_aes.c ****         }
1408:/home/rdu/Workspace/project_templates/mcu/stm32_ws/src/libraries/STM32F4xx_StdPeriph_Driver/src/stm32f4xx_cryp_aes.c ****         
1409:/home/rdu/Workspace/project_templates/mcu/stm32_ws/src/libraries/STM32F4xx_StdPeriph_Driver/src/stm32f4xx_cryp_aes.c ****         /* Write the Input block in the IN FIFO */
1410:/home/rdu/Workspace/project_templates/mcu/stm32_ws/src/libraries/STM32F4xx_StdPeriph_Driver/src/stm32f4xx_cryp_aes.c ****         CRYP_DataIn(*(uint32_t*)(inputaddr));
 4259              		.loc 1 1410 0 is_stmt 1
 4260 0570 429B     		ldr	r3, [sp, #264]
 4261 0572 1B68     		ldr	r3, [r3]
 4262 0574 1846     		mov	r0, r3
 4263 0576 FFF7FEFF 		bl	CRYP_DataIn
1411:/home/rdu/Workspace/project_templates/mcu/stm32_ws/src/libraries/STM32F4xx_StdPeriph_Driver/src/stm32f4xx_cryp_aes.c ****         inputaddr+=4;
 4264              		.loc 1 1411 0
 4265 057a 429B     		ldr	r3, [sp, #264]
 4266 057c 0433     		adds	r3, r3, #4
 4267 057e 4293     		str	r3, [sp, #264]
1412:/home/rdu/Workspace/project_templates/mcu/stm32_ws/src/libraries/STM32F4xx_StdPeriph_Driver/src/stm32f4xx_cryp_aes.c ****         CRYP_DataIn(*(uint32_t*)(inputaddr));
 4268              		.loc 1 1412 0
 4269 0580 429B     		ldr	r3, [sp, #264]
 4270 0582 1B68     		ldr	r3, [r3]
 4271 0584 1846     		mov	r0, r3
 4272 0586 FFF7FEFF 		bl	CRYP_DataIn
1413:/home/rdu/Workspace/project_templates/mcu/stm32_ws/src/libraries/STM32F4xx_StdPeriph_Driver/src/stm32f4xx_cryp_aes.c ****         inputaddr+=4;
 4273              		.loc 1 1413 0
 4274 058a 429B     		ldr	r3, [sp, #264]
 4275 058c 0433     		adds	r3, r3, #4
 4276 058e 4293     		str	r3, [sp, #264]
1414:/home/rdu/Workspace/project_templates/mcu/stm32_ws/src/libraries/STM32F4xx_StdPeriph_Driver/src/stm32f4xx_cryp_aes.c ****         CRYP_DataIn(*(uint32_t*)(inputaddr));
 4277              		.loc 1 1414 0
 4278 0590 429B     		ldr	r3, [sp, #264]
 4279 0592 1B68     		ldr	r3, [r3]
 4280 0594 1846     		mov	r0, r3
 4281 0596 FFF7FEFF 		bl	CRYP_DataIn
1415:/home/rdu/Workspace/project_templates/mcu/stm32_ws/src/libraries/STM32F4xx_StdPeriph_Driver/src/stm32f4xx_cryp_aes.c ****         inputaddr+=4;
 4282              		.loc 1 1415 0
 4283 059a 429B     		ldr	r3, [sp, #264]
 4284 059c 0433     		adds	r3, r3, #4
 4285 059e 4293     		str	r3, [sp, #264]
1416:/home/rdu/Workspace/project_templates/mcu/stm32_ws/src/libraries/STM32F4xx_StdPeriph_Driver/src/stm32f4xx_cryp_aes.c ****         CRYP_DataIn(*(uint32_t*)(inputaddr));
 4286              		.loc 1 1416 0
 4287 05a0 429B     		ldr	r3, [sp, #264]
 4288 05a2 1B68     		ldr	r3, [r3]
 4289 05a4 1846     		mov	r0, r3
 4290 05a6 FFF7FEFF 		bl	CRYP_DataIn
1417:/home/rdu/Workspace/project_templates/mcu/stm32_ws/src/libraries/STM32F4xx_StdPeriph_Driver/src/stm32f4xx_cryp_aes.c ****         inputaddr+=4;
 4291              		.loc 1 1417 0
 4292 05aa 429B     		ldr	r3, [sp, #264]
 4293 05ac 0433     		adds	r3, r3, #4
 4294 05ae 4293     		str	r3, [sp, #264]
1418:/home/rdu/Workspace/project_templates/mcu/stm32_ws/src/libraries/STM32F4xx_StdPeriph_Driver/src/stm32f4xx_cryp_aes.c ****         
1419:/home/rdu/Workspace/project_templates/mcu/stm32_ws/src/libraries/STM32F4xx_StdPeriph_Driver/src/stm32f4xx_cryp_aes.c ****         /* Wait until the complete message has been processed */
1420:/home/rdu/Workspace/project_templates/mcu/stm32_ws/src/libraries/STM32F4xx_StdPeriph_Driver/src/stm32f4xx_cryp_aes.c ****         counter = 0;
 4295              		.loc 1 1420 0
 4296 05b0 0023     		movs	r3, #0
 4297 05b2 1193     		str	r3, [sp, #68]
 4298              	.L265:
1421:/home/rdu/Workspace/project_templates/mcu/stm32_ws/src/libraries/STM32F4xx_StdPeriph_Driver/src/stm32f4xx_cryp_aes.c ****         do
1422:/home/rdu/Workspace/project_templates/mcu/stm32_ws/src/libraries/STM32F4xx_StdPeriph_Driver/src/stm32f4xx_cryp_aes.c ****         {
1423:/home/rdu/Workspace/project_templates/mcu/stm32_ws/src/libraries/STM32F4xx_StdPeriph_Driver/src/stm32f4xx_cryp_aes.c ****           busystatus = CRYP_GetFlagStatus(CRYP_FLAG_BUSY);
 4299              		.loc 1 1423 0 discriminator 2
 4300 05b4 1020     		movs	r0, #16
 4301 05b6 FFF7FEFF 		bl	CRYP_GetFlagStatus
 4302 05ba 0346     		mov	r3, r0
 4303 05bc 3C93     		str	r3, [sp, #240]
1424:/home/rdu/Workspace/project_templates/mcu/stm32_ws/src/libraries/STM32F4xx_StdPeriph_Driver/src/stm32f4xx_cryp_aes.c ****           counter++;
 4304              		.loc 1 1424 0 discriminator 2
 4305 05be 119B     		ldr	r3, [sp, #68]
 4306 05c0 0133     		adds	r3, r3, #1
 4307 05c2 1193     		str	r3, [sp, #68]
1425:/home/rdu/Workspace/project_templates/mcu/stm32_ws/src/libraries/STM32F4xx_StdPeriph_Driver/src/stm32f4xx_cryp_aes.c ****         }while ((counter != AESBUSY_TIMEOUT) && (busystatus != RESET));
 4308              		.loc 1 1425 0 discriminator 2
 4309 05c4 119B     		ldr	r3, [sp, #68]
 4310 05c6 B3F5803F 		cmp	r3, #65536
 4311 05ca 02D0     		beq	.L264
 4312              		.loc 1 1425 0 is_stmt 0 discriminator 1
 4313 05cc 3C9B     		ldr	r3, [sp, #240]
 4314 05ce 002B     		cmp	r3, #0
 4315 05d0 F0D1     		bne	.L265
 4316              	.L264:
1426:/home/rdu/Workspace/project_templates/mcu/stm32_ws/src/libraries/STM32F4xx_StdPeriph_Driver/src/stm32f4xx_cryp_aes.c **** 
1427:/home/rdu/Workspace/project_templates/mcu/stm32_ws/src/libraries/STM32F4xx_StdPeriph_Driver/src/stm32f4xx_cryp_aes.c ****         if (busystatus != RESET)
 4317              		.loc 1 1427 0 is_stmt 1
 4318 05d2 3C9B     		ldr	r3, [sp, #240]
 4319 05d4 002B     		cmp	r3, #0
 4320 05d6 03D0     		beq	.L296
1428:/home/rdu/Workspace/project_templates/mcu/stm32_ws/src/libraries/STM32F4xx_StdPeriph_Driver/src/stm32f4xx_cryp_aes.c ****         {
1429:/home/rdu/Workspace/project_templates/mcu/stm32_ws/src/libraries/STM32F4xx_StdPeriph_Driver/src/stm32f4xx_cryp_aes.c ****           status = ERROR;
 4321              		.loc 1 1429 0
 4322 05d8 0023     		movs	r3, #0
 4323 05da 8DF80F31 		strb	r3, [sp, #271]
 4324 05de 26E0     		b	.L267
 4325              	.L296:
1430:/home/rdu/Workspace/project_templates/mcu/stm32_ws/src/libraries/STM32F4xx_StdPeriph_Driver/src/stm32f4xx_cryp_aes.c ****         }
1431:/home/rdu/Workspace/project_templates/mcu/stm32_ws/src/libraries/STM32F4xx_StdPeriph_Driver/src/stm32f4xx_cryp_aes.c ****         else
1432:/home/rdu/Workspace/project_templates/mcu/stm32_ws/src/libraries/STM32F4xx_StdPeriph_Driver/src/stm32f4xx_cryp_aes.c ****         {
1433:/home/rdu/Workspace/project_templates/mcu/stm32_ws/src/libraries/STM32F4xx_StdPeriph_Driver/src/stm32f4xx_cryp_aes.c ****           /* Wait until the OFNE flag is reset */
1434:/home/rdu/Workspace/project_templates/mcu/stm32_ws/src/libraries/STM32F4xx_StdPeriph_Driver/src/stm32f4xx_cryp_aes.c ****           while(CRYP_GetFlagStatus(CRYP_FLAG_OFNE) == RESET)
 4326              		.loc 1 1434 0
 4327 05e0 00BF     		nop
 4328              	.L268:
 4329              		.loc 1 1434 0 is_stmt 0 discriminator 1
 4330 05e2 0420     		movs	r0, #4
 4331 05e4 FFF7FEFF 		bl	CRYP_GetFlagStatus
 4332 05e8 0346     		mov	r3, r0
 4333 05ea 002B     		cmp	r3, #0
 4334 05ec F9D0     		beq	.L268
1435:/home/rdu/Workspace/project_templates/mcu/stm32_ws/src/libraries/STM32F4xx_StdPeriph_Driver/src/stm32f4xx_cryp_aes.c ****           {
1436:/home/rdu/Workspace/project_templates/mcu/stm32_ws/src/libraries/STM32F4xx_StdPeriph_Driver/src/stm32f4xx_cryp_aes.c ****           }
1437:/home/rdu/Workspace/project_templates/mcu/stm32_ws/src/libraries/STM32F4xx_StdPeriph_Driver/src/stm32f4xx_cryp_aes.c ****           
1438:/home/rdu/Workspace/project_templates/mcu/stm32_ws/src/libraries/STM32F4xx_StdPeriph_Driver/src/stm32f4xx_cryp_aes.c ****           /* Read the Output block from the Output FIFO */
1439:/home/rdu/Workspace/project_templates/mcu/stm32_ws/src/libraries/STM32F4xx_StdPeriph_Driver/src/stm32f4xx_cryp_aes.c ****           *(uint32_t*)(outputaddr) = CRYP_DataOut();
 4335              		.loc 1 1439 0 is_stmt 1
 4336 05ee 419C     		ldr	r4, [sp, #260]
 4337 05f0 FFF7FEFF 		bl	CRYP_DataOut
 4338 05f4 0346     		mov	r3, r0
 4339 05f6 2360     		str	r3, [r4]
1440:/home/rdu/Workspace/project_templates/mcu/stm32_ws/src/libraries/STM32F4xx_StdPeriph_Driver/src/stm32f4xx_cryp_aes.c ****           outputaddr+=4;
 4340              		.loc 1 1440 0
 4341 05f8 419B     		ldr	r3, [sp, #260]
 4342 05fa 0433     		adds	r3, r3, #4
 4343 05fc 4193     		str	r3, [sp, #260]
1441:/home/rdu/Workspace/project_templates/mcu/stm32_ws/src/libraries/STM32F4xx_StdPeriph_Driver/src/stm32f4xx_cryp_aes.c ****           *(uint32_t*)(outputaddr) = CRYP_DataOut();
 4344              		.loc 1 1441 0
 4345 05fe 419C     		ldr	r4, [sp, #260]
 4346 0600 FFF7FEFF 		bl	CRYP_DataOut
 4347 0604 0346     		mov	r3, r0
 4348 0606 2360     		str	r3, [r4]
1442:/home/rdu/Workspace/project_templates/mcu/stm32_ws/src/libraries/STM32F4xx_StdPeriph_Driver/src/stm32f4xx_cryp_aes.c ****           outputaddr+=4;
 4349              		.loc 1 1442 0
 4350 0608 419B     		ldr	r3, [sp, #260]
 4351 060a 0433     		adds	r3, r3, #4
 4352 060c 4193     		str	r3, [sp, #260]
1443:/home/rdu/Workspace/project_templates/mcu/stm32_ws/src/libraries/STM32F4xx_StdPeriph_Driver/src/stm32f4xx_cryp_aes.c ****           *(uint32_t*)(outputaddr) = CRYP_DataOut();
 4353              		.loc 1 1443 0
 4354 060e 419C     		ldr	r4, [sp, #260]
 4355 0610 FFF7FEFF 		bl	CRYP_DataOut
 4356 0614 0346     		mov	r3, r0
 4357 0616 2360     		str	r3, [r4]
1444:/home/rdu/Workspace/project_templates/mcu/stm32_ws/src/libraries/STM32F4xx_StdPeriph_Driver/src/stm32f4xx_cryp_aes.c ****           outputaddr+=4;
 4358              		.loc 1 1444 0
 4359 0618 419B     		ldr	r3, [sp, #260]
 4360 061a 0433     		adds	r3, r3, #4
 4361 061c 4193     		str	r3, [sp, #260]
1445:/home/rdu/Workspace/project_templates/mcu/stm32_ws/src/libraries/STM32F4xx_StdPeriph_Driver/src/stm32f4xx_cryp_aes.c ****           *(uint32_t*)(outputaddr) = CRYP_DataOut();
 4362              		.loc 1 1445 0
 4363 061e 419C     		ldr	r4, [sp, #260]
 4364 0620 FFF7FEFF 		bl	CRYP_DataOut
 4365 0624 0346     		mov	r3, r0
 4366 0626 2360     		str	r3, [r4]
1446:/home/rdu/Workspace/project_templates/mcu/stm32_ws/src/libraries/STM32F4xx_StdPeriph_Driver/src/stm32f4xx_cryp_aes.c ****           outputaddr+=4;
 4367              		.loc 1 1446 0
 4368 0628 419B     		ldr	r3, [sp, #260]
 4369 062a 0433     		adds	r3, r3, #4
 4370 062c 4193     		str	r3, [sp, #260]
 4371              	.L267:
1402:/home/rdu/Workspace/project_templates/mcu/stm32_ws/src/libraries/STM32F4xx_StdPeriph_Driver/src/stm32f4xx_cryp_aes.c ****       {
 4372              		.loc 1 1402 0 discriminator 2
 4373 062e 3E9B     		ldr	r3, [sp, #248]
 4374 0630 1033     		adds	r3, r3, #16
 4375 0632 3E93     		str	r3, [sp, #248]
 4376              	.L262:
1402:/home/rdu/Workspace/project_templates/mcu/stm32_ws/src/libraries/STM32F4xx_StdPeriph_Driver/src/stm32f4xx_cryp_aes.c ****       {
 4377              		.loc 1 1402 0 is_stmt 0 discriminator 1
 4378 0634 3E9A     		ldr	r2, [sp, #248]
 4379 0636 489B     		ldr	r3, [sp, #288]
 4380 0638 9A42     		cmp	r2, r3
 4381 063a 03D2     		bcs	.L260
1402:/home/rdu/Workspace/project_templates/mcu/stm32_ws/src/libraries/STM32F4xx_StdPeriph_Driver/src/stm32f4xx_cryp_aes.c ****       {
 4382              		.loc 1 1402 0 discriminator 3
 4383 063c 9DF80F31 		ldrb	r3, [sp, #271]	@ zero_extendqisi2
 4384 0640 002B     		cmp	r3, #0
 4385 0642 8ED1     		bne	.L269
 4386              	.L260:
1447:/home/rdu/Workspace/project_templates/mcu/stm32_ws/src/libraries/STM32F4xx_StdPeriph_Driver/src/stm32f4xx_cryp_aes.c ****         }
1448:/home/rdu/Workspace/project_templates/mcu/stm32_ws/src/libraries/STM32F4xx_StdPeriph_Driver/src/stm32f4xx_cryp_aes.c ****       }
1449:/home/rdu/Workspace/project_templates/mcu/stm32_ws/src/libraries/STM32F4xx_StdPeriph_Driver/src/stm32f4xx_cryp_aes.c ****     }
1450:/home/rdu/Workspace/project_templates/mcu/stm32_ws/src/libraries/STM32F4xx_StdPeriph_Driver/src/stm32f4xx_cryp_aes.c ****     
1451:/home/rdu/Workspace/project_templates/mcu/stm32_ws/src/libraries/STM32F4xx_StdPeriph_Driver/src/stm32f4xx_cryp_aes.c ****     /***************************** final phase ********************************/
1452:/home/rdu/Workspace/project_templates/mcu/stm32_ws/src/libraries/STM32F4xx_StdPeriph_Driver/src/stm32f4xx_cryp_aes.c ****     /* Select final phase */
1453:/home/rdu/Workspace/project_templates/mcu/stm32_ws/src/libraries/STM32F4xx_StdPeriph_Driver/src/stm32f4xx_cryp_aes.c ****     CRYP_PhaseConfig(CRYP_Phase_Final);
 4387              		.loc 1 1453 0 is_stmt 1
 4388 0644 4FF44030 		mov	r0, #196608
 4389 0648 FFF7FEFF 		bl	CRYP_PhaseConfig
1454:/home/rdu/Workspace/project_templates/mcu/stm32_ws/src/libraries/STM32F4xx_StdPeriph_Driver/src/stm32f4xx_cryp_aes.c ****     
1455:/home/rdu/Workspace/project_templates/mcu/stm32_ws/src/libraries/STM32F4xx_StdPeriph_Driver/src/stm32f4xx_cryp_aes.c ****     /* Enable Crypto processor */
1456:/home/rdu/Workspace/project_templates/mcu/stm32_ws/src/libraries/STM32F4xx_StdPeriph_Driver/src/stm32f4xx_cryp_aes.c ****     CRYP_Cmd(ENABLE);
 4390              		.loc 1 1456 0
 4391 064c 0120     		movs	r0, #1
 4392 064e FFF7FEFF 		bl	CRYP_Cmd
1457:/home/rdu/Workspace/project_templates/mcu/stm32_ws/src/libraries/STM32F4xx_StdPeriph_Driver/src/stm32f4xx_cryp_aes.c ****     
1458:/home/rdu/Workspace/project_templates/mcu/stm32_ws/src/libraries/STM32F4xx_StdPeriph_Driver/src/stm32f4xx_cryp_aes.c ****     if(CRYP_GetCmdStatus() == DISABLE)
 4393              		.loc 1 1458 0
 4394 0652 FFF7FEFF 		bl	CRYP_GetCmdStatus
 4395 0656 0346     		mov	r3, r0
 4396 0658 002B     		cmp	r3, #0
 4397 065a 01D1     		bne	.L270
1459:/home/rdu/Workspace/project_templates/mcu/stm32_ws/src/libraries/STM32F4xx_StdPeriph_Driver/src/stm32f4xx_cryp_aes.c ****     {
1460:/home/rdu/Workspace/project_templates/mcu/stm32_ws/src/libraries/STM32F4xx_StdPeriph_Driver/src/stm32f4xx_cryp_aes.c ****       /* The CRYP peripheral clock is not enabled or the device doesn't embed 
1461:/home/rdu/Workspace/project_templates/mcu/stm32_ws/src/libraries/STM32F4xx_StdPeriph_Driver/src/stm32f4xx_cryp_aes.c ****          the CRYP peripheral (please check the device sales type. */
1462:/home/rdu/Workspace/project_templates/mcu/stm32_ws/src/libraries/STM32F4xx_StdPeriph_Driver/src/stm32f4xx_cryp_aes.c ****       return(ERROR);
 4398              		.loc 1 1462 0
 4399 065c 0023     		movs	r3, #0
 4400 065e B4E1     		b	.L295
 4401              	.L270:
1463:/home/rdu/Workspace/project_templates/mcu/stm32_ws/src/libraries/STM32F4xx_StdPeriph_Driver/src/stm32f4xx_cryp_aes.c ****     }
1464:/home/rdu/Workspace/project_templates/mcu/stm32_ws/src/libraries/STM32F4xx_StdPeriph_Driver/src/stm32f4xx_cryp_aes.c ****     
1465:/home/rdu/Workspace/project_templates/mcu/stm32_ws/src/libraries/STM32F4xx_StdPeriph_Driver/src/stm32f4xx_cryp_aes.c ****     ctraddr = (uint32_t)ctr;
 4402              		.loc 1 1465 0
 4403 0660 09AB     		add	r3, sp, #36
 4404 0662 3993     		str	r3, [sp, #228]
1466:/home/rdu/Workspace/project_templates/mcu/stm32_ws/src/libraries/STM32F4xx_StdPeriph_Driver/src/stm32f4xx_cryp_aes.c ****     /* Write the counter block in the IN FIFO */
1467:/home/rdu/Workspace/project_templates/mcu/stm32_ws/src/libraries/STM32F4xx_StdPeriph_Driver/src/stm32f4xx_cryp_aes.c ****     CRYP_DataIn(*(uint32_t*)(ctraddr));
 4405              		.loc 1 1467 0
 4406 0664 399B     		ldr	r3, [sp, #228]
 4407 0666 1B68     		ldr	r3, [r3]
 4408 0668 1846     		mov	r0, r3
 4409 066a FFF7FEFF 		bl	CRYP_DataIn
1468:/home/rdu/Workspace/project_templates/mcu/stm32_ws/src/libraries/STM32F4xx_StdPeriph_Driver/src/stm32f4xx_cryp_aes.c ****     ctraddr+=4;
 4410              		.loc 1 1468 0
 4411 066e 399B     		ldr	r3, [sp, #228]
 4412 0670 0433     		adds	r3, r3, #4
 4413 0672 3993     		str	r3, [sp, #228]
1469:/home/rdu/Workspace/project_templates/mcu/stm32_ws/src/libraries/STM32F4xx_StdPeriph_Driver/src/stm32f4xx_cryp_aes.c ****     CRYP_DataIn(*(uint32_t*)(ctraddr));
 4414              		.loc 1 1469 0
 4415 0674 399B     		ldr	r3, [sp, #228]
 4416 0676 1B68     		ldr	r3, [r3]
 4417 0678 1846     		mov	r0, r3
 4418 067a FFF7FEFF 		bl	CRYP_DataIn
1470:/home/rdu/Workspace/project_templates/mcu/stm32_ws/src/libraries/STM32F4xx_StdPeriph_Driver/src/stm32f4xx_cryp_aes.c ****     ctraddr+=4;
 4419              		.loc 1 1470 0
 4420 067e 399B     		ldr	r3, [sp, #228]
 4421 0680 0433     		adds	r3, r3, #4
 4422 0682 3993     		str	r3, [sp, #228]
1471:/home/rdu/Workspace/project_templates/mcu/stm32_ws/src/libraries/STM32F4xx_StdPeriph_Driver/src/stm32f4xx_cryp_aes.c ****     CRYP_DataIn(*(uint32_t*)(ctraddr));
 4423              		.loc 1 1471 0
 4424 0684 399B     		ldr	r3, [sp, #228]
 4425 0686 1B68     		ldr	r3, [r3]
 4426 0688 1846     		mov	r0, r3
 4427 068a FFF7FEFF 		bl	CRYP_DataIn
1472:/home/rdu/Workspace/project_templates/mcu/stm32_ws/src/libraries/STM32F4xx_StdPeriph_Driver/src/stm32f4xx_cryp_aes.c ****     ctraddr+=4;
 4428              		.loc 1 1472 0
 4429 068e 399B     		ldr	r3, [sp, #228]
 4430 0690 0433     		adds	r3, r3, #4
 4431 0692 3993     		str	r3, [sp, #228]
1473:/home/rdu/Workspace/project_templates/mcu/stm32_ws/src/libraries/STM32F4xx_StdPeriph_Driver/src/stm32f4xx_cryp_aes.c ****     /* Reset bit 0 (after 8-bit swap) is equivalent to reset bit 24 (before 8-bit swap) */
1474:/home/rdu/Workspace/project_templates/mcu/stm32_ws/src/libraries/STM32F4xx_StdPeriph_Driver/src/stm32f4xx_cryp_aes.c ****     CRYP_DataIn(*(uint32_t*)(ctraddr) & 0xfeffffff);
 4432              		.loc 1 1474 0
 4433 0694 399B     		ldr	r3, [sp, #228]
 4434 0696 1B68     		ldr	r3, [r3]
 4435 0698 23F08073 		bic	r3, r3, #16777216
 4436 069c 1846     		mov	r0, r3
 4437 069e FFF7FEFF 		bl	CRYP_DataIn
1475:/home/rdu/Workspace/project_templates/mcu/stm32_ws/src/libraries/STM32F4xx_StdPeriph_Driver/src/stm32f4xx_cryp_aes.c ****     
1476:/home/rdu/Workspace/project_templates/mcu/stm32_ws/src/libraries/STM32F4xx_StdPeriph_Driver/src/stm32f4xx_cryp_aes.c ****     /* Wait until the OFNE flag is reset */
1477:/home/rdu/Workspace/project_templates/mcu/stm32_ws/src/libraries/STM32F4xx_StdPeriph_Driver/src/stm32f4xx_cryp_aes.c ****     while(CRYP_GetFlagStatus(CRYP_FLAG_OFNE) == RESET)
 4438              		.loc 1 1477 0
 4439 06a2 00BF     		nop
 4440              	.L271:
 4441              		.loc 1 1477 0 is_stmt 0 discriminator 1
 4442 06a4 0420     		movs	r0, #4
 4443 06a6 FFF7FEFF 		bl	CRYP_GetFlagStatus
 4444 06aa 0346     		mov	r3, r0
 4445 06ac 002B     		cmp	r3, #0
 4446 06ae F9D0     		beq	.L271
1478:/home/rdu/Workspace/project_templates/mcu/stm32_ws/src/libraries/STM32F4xx_StdPeriph_Driver/src/stm32f4xx_cryp_aes.c ****     {
1479:/home/rdu/Workspace/project_templates/mcu/stm32_ws/src/libraries/STM32F4xx_StdPeriph_Driver/src/stm32f4xx_cryp_aes.c ****     }
1480:/home/rdu/Workspace/project_templates/mcu/stm32_ws/src/libraries/STM32F4xx_StdPeriph_Driver/src/stm32f4xx_cryp_aes.c ****     
1481:/home/rdu/Workspace/project_templates/mcu/stm32_ws/src/libraries/STM32F4xx_StdPeriph_Driver/src/stm32f4xx_cryp_aes.c ****     /* Read the Auth TAG in the IN FIFO */
1482:/home/rdu/Workspace/project_templates/mcu/stm32_ws/src/libraries/STM32F4xx_StdPeriph_Driver/src/stm32f4xx_cryp_aes.c ****     temptag[0] = CRYP_DataOut();
 4447              		.loc 1 1482 0 is_stmt 1
 4448 06b0 FFF7FEFF 		bl	CRYP_DataOut
 4449 06b4 0346     		mov	r3, r0
 4450 06b6 0593     		str	r3, [sp, #20]
1483:/home/rdu/Workspace/project_templates/mcu/stm32_ws/src/libraries/STM32F4xx_StdPeriph_Driver/src/stm32f4xx_cryp_aes.c ****     temptag[1] = CRYP_DataOut();
 4451              		.loc 1 1483 0
 4452 06b8 FFF7FEFF 		bl	CRYP_DataOut
 4453 06bc 0346     		mov	r3, r0
 4454 06be 0693     		str	r3, [sp, #24]
1484:/home/rdu/Workspace/project_templates/mcu/stm32_ws/src/libraries/STM32F4xx_StdPeriph_Driver/src/stm32f4xx_cryp_aes.c ****     temptag[2] = CRYP_DataOut();
 4455              		.loc 1 1484 0
 4456 06c0 FFF7FEFF 		bl	CRYP_DataOut
 4457 06c4 0346     		mov	r3, r0
 4458 06c6 0793     		str	r3, [sp, #28]
1485:/home/rdu/Workspace/project_templates/mcu/stm32_ws/src/libraries/STM32F4xx_StdPeriph_Driver/src/stm32f4xx_cryp_aes.c ****     temptag[3] = CRYP_DataOut();
 4459              		.loc 1 1485 0
 4460 06c8 FFF7FEFF 		bl	CRYP_DataOut
 4461 06cc 0346     		mov	r3, r0
 4462 06ce 0893     		str	r3, [sp, #32]
 4463 06d0 64E1     		b	.L272
 4464              	.L250:
1486:/home/rdu/Workspace/project_templates/mcu/stm32_ws/src/libraries/STM32F4xx_StdPeriph_Driver/src/stm32f4xx_cryp_aes.c ****   }
1487:/home/rdu/Workspace/project_templates/mcu/stm32_ws/src/libraries/STM32F4xx_StdPeriph_Driver/src/stm32f4xx_cryp_aes.c ****   /*------------------ AES Decryption ------------------*/
1488:/home/rdu/Workspace/project_templates/mcu/stm32_ws/src/libraries/STM32F4xx_StdPeriph_Driver/src/stm32f4xx_cryp_aes.c ****   else /* AES decryption */
1489:/home/rdu/Workspace/project_templates/mcu/stm32_ws/src/libraries/STM32F4xx_StdPeriph_Driver/src/stm32f4xx_cryp_aes.c ****   {
1490:/home/rdu/Workspace/project_templates/mcu/stm32_ws/src/libraries/STM32F4xx_StdPeriph_Driver/src/stm32f4xx_cryp_aes.c ****     /* Flush IN/OUT FIFOs */
1491:/home/rdu/Workspace/project_templates/mcu/stm32_ws/src/libraries/STM32F4xx_StdPeriph_Driver/src/stm32f4xx_cryp_aes.c ****     CRYP_FIFOFlush();
 4465              		.loc 1 1491 0
 4466 06d2 FFF7FEFF 		bl	CRYP_FIFOFlush
1492:/home/rdu/Workspace/project_templates/mcu/stm32_ws/src/libraries/STM32F4xx_StdPeriph_Driver/src/stm32f4xx_cryp_aes.c ****     
1493:/home/rdu/Workspace/project_templates/mcu/stm32_ws/src/libraries/STM32F4xx_StdPeriph_Driver/src/stm32f4xx_cryp_aes.c ****     /* Key Initialisation */
1494:/home/rdu/Workspace/project_templates/mcu/stm32_ws/src/libraries/STM32F4xx_StdPeriph_Driver/src/stm32f4xx_cryp_aes.c ****     CRYP_KeyInit(&AES_CRYP_KeyInitStructure);
 4467              		.loc 1 1494 0
 4468 06d6 16AB     		add	r3, sp, #88
 4469 06d8 1846     		mov	r0, r3
 4470 06da FFF7FEFF 		bl	CRYP_KeyInit
1495:/home/rdu/Workspace/project_templates/mcu/stm32_ws/src/libraries/STM32F4xx_StdPeriph_Driver/src/stm32f4xx_cryp_aes.c ****     
1496:/home/rdu/Workspace/project_templates/mcu/stm32_ws/src/libraries/STM32F4xx_StdPeriph_Driver/src/stm32f4xx_cryp_aes.c ****     /* CRYP Initialization Vectors */
1497:/home/rdu/Workspace/project_templates/mcu/stm32_ws/src/libraries/STM32F4xx_StdPeriph_Driver/src/stm32f4xx_cryp_aes.c ****     CRYP_IVInit(&AES_CRYP_IVInitStructure);
 4471              		.loc 1 1497 0
 4472 06de 12AB     		add	r3, sp, #72
 4473 06e0 1846     		mov	r0, r3
 4474 06e2 FFF7FEFF 		bl	CRYP_IVInit
1498:/home/rdu/Workspace/project_templates/mcu/stm32_ws/src/libraries/STM32F4xx_StdPeriph_Driver/src/stm32f4xx_cryp_aes.c ****     
1499:/home/rdu/Workspace/project_templates/mcu/stm32_ws/src/libraries/STM32F4xx_StdPeriph_Driver/src/stm32f4xx_cryp_aes.c ****     /* Crypto Init for Key preparation for decryption process */
1500:/home/rdu/Workspace/project_templates/mcu/stm32_ws/src/libraries/STM32F4xx_StdPeriph_Driver/src/stm32f4xx_cryp_aes.c ****     AES_CRYP_InitStructure.CRYP_AlgoDir = CRYP_AlgoDir_Decrypt;
 4475              		.loc 1 1500 0
 4476 06e6 0423     		movs	r3, #4
 4477 06e8 1E93     		str	r3, [sp, #120]
1501:/home/rdu/Workspace/project_templates/mcu/stm32_ws/src/libraries/STM32F4xx_StdPeriph_Driver/src/stm32f4xx_cryp_aes.c ****     AES_CRYP_InitStructure.CRYP_AlgoMode = CRYP_AlgoMode_AES_CCM;
 4478              		.loc 1 1501 0
 4479 06ea 4FF00813 		mov	r3, #524296
 4480 06ee 1F93     		str	r3, [sp, #124]
1502:/home/rdu/Workspace/project_templates/mcu/stm32_ws/src/libraries/STM32F4xx_StdPeriph_Driver/src/stm32f4xx_cryp_aes.c ****     AES_CRYP_InitStructure.CRYP_DataType = CRYP_DataType_8b;
 4481              		.loc 1 1502 0
 4482 06f0 8023     		movs	r3, #128
 4483 06f2 2093     		str	r3, [sp, #128]
1503:/home/rdu/Workspace/project_templates/mcu/stm32_ws/src/libraries/STM32F4xx_StdPeriph_Driver/src/stm32f4xx_cryp_aes.c ****     CRYP_Init(&AES_CRYP_InitStructure);
 4484              		.loc 1 1503 0
 4485 06f4 1EAB     		add	r3, sp, #120
 4486 06f6 1846     		mov	r0, r3
 4487 06f8 FFF7FEFF 		bl	CRYP_Init
1504:/home/rdu/Workspace/project_templates/mcu/stm32_ws/src/libraries/STM32F4xx_StdPeriph_Driver/src/stm32f4xx_cryp_aes.c ****     
1505:/home/rdu/Workspace/project_templates/mcu/stm32_ws/src/libraries/STM32F4xx_StdPeriph_Driver/src/stm32f4xx_cryp_aes.c ****     /***************************** Init phase *********************************/
1506:/home/rdu/Workspace/project_templates/mcu/stm32_ws/src/libraries/STM32F4xx_StdPeriph_Driver/src/stm32f4xx_cryp_aes.c ****     /* Select init phase */
1507:/home/rdu/Workspace/project_templates/mcu/stm32_ws/src/libraries/STM32F4xx_StdPeriph_Driver/src/stm32f4xx_cryp_aes.c ****     CRYP_PhaseConfig(CRYP_Phase_Init);
 4488              		.loc 1 1507 0
 4489 06fc 0020     		movs	r0, #0
 4490 06fe FFF7FEFF 		bl	CRYP_PhaseConfig
1508:/home/rdu/Workspace/project_templates/mcu/stm32_ws/src/libraries/STM32F4xx_StdPeriph_Driver/src/stm32f4xx_cryp_aes.c ****     
1509:/home/rdu/Workspace/project_templates/mcu/stm32_ws/src/libraries/STM32F4xx_StdPeriph_Driver/src/stm32f4xx_cryp_aes.c ****     b0addr = (uint32_t)blockb0;
 4491              		.loc 1 1509 0
 4492 0702 0DAB     		add	r3, sp, #52
 4493 0704 3893     		str	r3, [sp, #224]
1510:/home/rdu/Workspace/project_templates/mcu/stm32_ws/src/libraries/STM32F4xx_StdPeriph_Driver/src/stm32f4xx_cryp_aes.c ****     /* Write the blockb0 block in the IN FIFO */
1511:/home/rdu/Workspace/project_templates/mcu/stm32_ws/src/libraries/STM32F4xx_StdPeriph_Driver/src/stm32f4xx_cryp_aes.c ****     CRYP_DataIn((*(uint32_t*)(b0addr)));
 4494              		.loc 1 1511 0
 4495 0706 389B     		ldr	r3, [sp, #224]
 4496 0708 1B68     		ldr	r3, [r3]
 4497 070a 1846     		mov	r0, r3
 4498 070c FFF7FEFF 		bl	CRYP_DataIn
1512:/home/rdu/Workspace/project_templates/mcu/stm32_ws/src/libraries/STM32F4xx_StdPeriph_Driver/src/stm32f4xx_cryp_aes.c ****     b0addr+=4;
 4499              		.loc 1 1512 0
 4500 0710 389B     		ldr	r3, [sp, #224]
 4501 0712 0433     		adds	r3, r3, #4
 4502 0714 3893     		str	r3, [sp, #224]
1513:/home/rdu/Workspace/project_templates/mcu/stm32_ws/src/libraries/STM32F4xx_StdPeriph_Driver/src/stm32f4xx_cryp_aes.c ****     CRYP_DataIn((*(uint32_t*)(b0addr)));
 4503              		.loc 1 1513 0
 4504 0716 389B     		ldr	r3, [sp, #224]
 4505 0718 1B68     		ldr	r3, [r3]
 4506 071a 1846     		mov	r0, r3
 4507 071c FFF7FEFF 		bl	CRYP_DataIn
1514:/home/rdu/Workspace/project_templates/mcu/stm32_ws/src/libraries/STM32F4xx_StdPeriph_Driver/src/stm32f4xx_cryp_aes.c ****     b0addr+=4;
 4508              		.loc 1 1514 0
 4509 0720 389B     		ldr	r3, [sp, #224]
 4510 0722 0433     		adds	r3, r3, #4
 4511 0724 3893     		str	r3, [sp, #224]
1515:/home/rdu/Workspace/project_templates/mcu/stm32_ws/src/libraries/STM32F4xx_StdPeriph_Driver/src/stm32f4xx_cryp_aes.c ****     CRYP_DataIn((*(uint32_t*)(b0addr)));
 4512              		.loc 1 1515 0
 4513 0726 389B     		ldr	r3, [sp, #224]
 4514 0728 1B68     		ldr	r3, [r3]
 4515 072a 1846     		mov	r0, r3
 4516 072c FFF7FEFF 		bl	CRYP_DataIn
1516:/home/rdu/Workspace/project_templates/mcu/stm32_ws/src/libraries/STM32F4xx_StdPeriph_Driver/src/stm32f4xx_cryp_aes.c ****     b0addr+=4;
 4517              		.loc 1 1516 0
 4518 0730 389B     		ldr	r3, [sp, #224]
 4519 0732 0433     		adds	r3, r3, #4
 4520 0734 3893     		str	r3, [sp, #224]
1517:/home/rdu/Workspace/project_templates/mcu/stm32_ws/src/libraries/STM32F4xx_StdPeriph_Driver/src/stm32f4xx_cryp_aes.c ****     CRYP_DataIn((*(uint32_t*)(b0addr)));
 4521              		.loc 1 1517 0
 4522 0736 389B     		ldr	r3, [sp, #224]
 4523 0738 1B68     		ldr	r3, [r3]
 4524 073a 1846     		mov	r0, r3
 4525 073c FFF7FEFF 		bl	CRYP_DataIn
1518:/home/rdu/Workspace/project_templates/mcu/stm32_ws/src/libraries/STM32F4xx_StdPeriph_Driver/src/stm32f4xx_cryp_aes.c ****     
1519:/home/rdu/Workspace/project_templates/mcu/stm32_ws/src/libraries/STM32F4xx_StdPeriph_Driver/src/stm32f4xx_cryp_aes.c ****     /* Enable Crypto processor */
1520:/home/rdu/Workspace/project_templates/mcu/stm32_ws/src/libraries/STM32F4xx_StdPeriph_Driver/src/stm32f4xx_cryp_aes.c ****     CRYP_Cmd(ENABLE);
 4526              		.loc 1 1520 0
 4527 0740 0120     		movs	r0, #1
 4528 0742 FFF7FEFF 		bl	CRYP_Cmd
1521:/home/rdu/Workspace/project_templates/mcu/stm32_ws/src/libraries/STM32F4xx_StdPeriph_Driver/src/stm32f4xx_cryp_aes.c ****     
1522:/home/rdu/Workspace/project_templates/mcu/stm32_ws/src/libraries/STM32F4xx_StdPeriph_Driver/src/stm32f4xx_cryp_aes.c ****     /* Wait for CRYPEN bit to be 0 */
1523:/home/rdu/Workspace/project_templates/mcu/stm32_ws/src/libraries/STM32F4xx_StdPeriph_Driver/src/stm32f4xx_cryp_aes.c ****     while(CRYP_GetCmdStatus() == ENABLE)
 4529              		.loc 1 1523 0
 4530 0746 00BF     		nop
 4531              	.L273:
 4532              		.loc 1 1523 0 is_stmt 0 discriminator 1
 4533 0748 FFF7FEFF 		bl	CRYP_GetCmdStatus
 4534 074c 0346     		mov	r3, r0
 4535 074e 012B     		cmp	r3, #1
 4536 0750 FAD0     		beq	.L273
1524:/home/rdu/Workspace/project_templates/mcu/stm32_ws/src/libraries/STM32F4xx_StdPeriph_Driver/src/stm32f4xx_cryp_aes.c ****     {
1525:/home/rdu/Workspace/project_templates/mcu/stm32_ws/src/libraries/STM32F4xx_StdPeriph_Driver/src/stm32f4xx_cryp_aes.c ****     }
1526:/home/rdu/Workspace/project_templates/mcu/stm32_ws/src/libraries/STM32F4xx_StdPeriph_Driver/src/stm32f4xx_cryp_aes.c ****     
1527:/home/rdu/Workspace/project_templates/mcu/stm32_ws/src/libraries/STM32F4xx_StdPeriph_Driver/src/stm32f4xx_cryp_aes.c ****     /***************************** header phase *******************************/
1528:/home/rdu/Workspace/project_templates/mcu/stm32_ws/src/libraries/STM32F4xx_StdPeriph_Driver/src/stm32f4xx_cryp_aes.c ****     if(headersize != 0)
 4537              		.loc 1 1528 0 is_stmt 1
 4538 0752 3F9B     		ldr	r3, [sp, #252]
 4539 0754 002B     		cmp	r3, #0
 4540 0756 55D0     		beq	.L274
1529:/home/rdu/Workspace/project_templates/mcu/stm32_ws/src/libraries/STM32F4xx_StdPeriph_Driver/src/stm32f4xx_cryp_aes.c ****     {
1530:/home/rdu/Workspace/project_templates/mcu/stm32_ws/src/libraries/STM32F4xx_StdPeriph_Driver/src/stm32f4xx_cryp_aes.c ****       /* Select header phase */
1531:/home/rdu/Workspace/project_templates/mcu/stm32_ws/src/libraries/STM32F4xx_StdPeriph_Driver/src/stm32f4xx_cryp_aes.c ****       CRYP_PhaseConfig(CRYP_Phase_Header);
 4541              		.loc 1 1531 0
 4542 0758 4FF48030 		mov	r0, #65536
 4543 075c FFF7FEFF 		bl	CRYP_PhaseConfig
1532:/home/rdu/Workspace/project_templates/mcu/stm32_ws/src/libraries/STM32F4xx_StdPeriph_Driver/src/stm32f4xx_cryp_aes.c ****       
1533:/home/rdu/Workspace/project_templates/mcu/stm32_ws/src/libraries/STM32F4xx_StdPeriph_Driver/src/stm32f4xx_cryp_aes.c ****       /* Enable Crypto processor */
1534:/home/rdu/Workspace/project_templates/mcu/stm32_ws/src/libraries/STM32F4xx_StdPeriph_Driver/src/stm32f4xx_cryp_aes.c ****       CRYP_Cmd(ENABLE);
 4544              		.loc 1 1534 0
 4545 0760 0120     		movs	r0, #1
 4546 0762 FFF7FEFF 		bl	CRYP_Cmd
1535:/home/rdu/Workspace/project_templates/mcu/stm32_ws/src/libraries/STM32F4xx_StdPeriph_Driver/src/stm32f4xx_cryp_aes.c ****       
1536:/home/rdu/Workspace/project_templates/mcu/stm32_ws/src/libraries/STM32F4xx_StdPeriph_Driver/src/stm32f4xx_cryp_aes.c ****       if(CRYP_GetCmdStatus() == DISABLE)
 4547              		.loc 1 1536 0
 4548 0766 FFF7FEFF 		bl	CRYP_GetCmdStatus
 4549 076a 0346     		mov	r3, r0
 4550 076c 002B     		cmp	r3, #0
 4551 076e 01D1     		bne	.L275
1537:/home/rdu/Workspace/project_templates/mcu/stm32_ws/src/libraries/STM32F4xx_StdPeriph_Driver/src/stm32f4xx_cryp_aes.c ****       {
1538:/home/rdu/Workspace/project_templates/mcu/stm32_ws/src/libraries/STM32F4xx_StdPeriph_Driver/src/stm32f4xx_cryp_aes.c ****         /* The CRYP peripheral clock is not enabled or the device doesn't embed 
1539:/home/rdu/Workspace/project_templates/mcu/stm32_ws/src/libraries/STM32F4xx_StdPeriph_Driver/src/stm32f4xx_cryp_aes.c ****            the CRYP peripheral (please check the device sales type. */
1540:/home/rdu/Workspace/project_templates/mcu/stm32_ws/src/libraries/STM32F4xx_StdPeriph_Driver/src/stm32f4xx_cryp_aes.c ****         return(ERROR);
 4552              		.loc 1 1540 0
 4553 0770 0023     		movs	r3, #0
 4554 0772 2AE1     		b	.L295
 4555              	.L275:
1541:/home/rdu/Workspace/project_templates/mcu/stm32_ws/src/libraries/STM32F4xx_StdPeriph_Driver/src/stm32f4xx_cryp_aes.c ****       }
1542:/home/rdu/Workspace/project_templates/mcu/stm32_ws/src/libraries/STM32F4xx_StdPeriph_Driver/src/stm32f4xx_cryp_aes.c ****       
1543:/home/rdu/Workspace/project_templates/mcu/stm32_ws/src/libraries/STM32F4xx_StdPeriph_Driver/src/stm32f4xx_cryp_aes.c ****       for(loopcounter = 0; (loopcounter < headersize); loopcounter+=16)
 4556              		.loc 1 1543 0
 4557 0774 0023     		movs	r3, #0
 4558 0776 3E93     		str	r3, [sp, #248]
 4559 0778 29E0     		b	.L276
 4560              	.L278:
1544:/home/rdu/Workspace/project_templates/mcu/stm32_ws/src/libraries/STM32F4xx_StdPeriph_Driver/src/stm32f4xx_cryp_aes.c ****       {
1545:/home/rdu/Workspace/project_templates/mcu/stm32_ws/src/libraries/STM32F4xx_StdPeriph_Driver/src/stm32f4xx_cryp_aes.c ****         /* Wait until the IFEM flag is reset */
1546:/home/rdu/Workspace/project_templates/mcu/stm32_ws/src/libraries/STM32F4xx_StdPeriph_Driver/src/stm32f4xx_cryp_aes.c ****         while(CRYP_GetFlagStatus(CRYP_FLAG_IFEM) == RESET)
 4561              		.loc 1 1546 0
 4562 077a 00BF     		nop
 4563              	.L277:
 4564              		.loc 1 1546 0 is_stmt 0 discriminator 1
 4565 077c 0120     		movs	r0, #1
 4566 077e FFF7FEFF 		bl	CRYP_GetFlagStatus
 4567 0782 0346     		mov	r3, r0
 4568 0784 002B     		cmp	r3, #0
 4569 0786 F9D0     		beq	.L277
1547:/home/rdu/Workspace/project_templates/mcu/stm32_ws/src/libraries/STM32F4xx_StdPeriph_Driver/src/stm32f4xx_cryp_aes.c ****         {
1548:/home/rdu/Workspace/project_templates/mcu/stm32_ws/src/libraries/STM32F4xx_StdPeriph_Driver/src/stm32f4xx_cryp_aes.c ****         }
1549:/home/rdu/Workspace/project_templates/mcu/stm32_ws/src/libraries/STM32F4xx_StdPeriph_Driver/src/stm32f4xx_cryp_aes.c ****         
1550:/home/rdu/Workspace/project_templates/mcu/stm32_ws/src/libraries/STM32F4xx_StdPeriph_Driver/src/stm32f4xx_cryp_aes.c ****         /* Write the Input block in the IN FIFO */
1551:/home/rdu/Workspace/project_templates/mcu/stm32_ws/src/libraries/STM32F4xx_StdPeriph_Driver/src/stm32f4xx_cryp_aes.c ****         CRYP_DataIn(*(uint32_t*)(headeraddr));
 4570              		.loc 1 1551 0 is_stmt 1 discriminator 2
 4571 0788 409B     		ldr	r3, [sp, #256]
 4572 078a 1B68     		ldr	r3, [r3]
 4573 078c 1846     		mov	r0, r3
 4574 078e FFF7FEFF 		bl	CRYP_DataIn
1552:/home/rdu/Workspace/project_templates/mcu/stm32_ws/src/libraries/STM32F4xx_StdPeriph_Driver/src/stm32f4xx_cryp_aes.c ****         headeraddr+=4;
 4575              		.loc 1 1552 0 discriminator 2
 4576 0792 409B     		ldr	r3, [sp, #256]
 4577 0794 0433     		adds	r3, r3, #4
 4578 0796 4093     		str	r3, [sp, #256]
1553:/home/rdu/Workspace/project_templates/mcu/stm32_ws/src/libraries/STM32F4xx_StdPeriph_Driver/src/stm32f4xx_cryp_aes.c ****         CRYP_DataIn(*(uint32_t*)(headeraddr));
 4579              		.loc 1 1553 0 discriminator 2
 4580 0798 409B     		ldr	r3, [sp, #256]
 4581 079a 1B68     		ldr	r3, [r3]
 4582 079c 1846     		mov	r0, r3
 4583 079e FFF7FEFF 		bl	CRYP_DataIn
1554:/home/rdu/Workspace/project_templates/mcu/stm32_ws/src/libraries/STM32F4xx_StdPeriph_Driver/src/stm32f4xx_cryp_aes.c ****         headeraddr+=4;
 4584              		.loc 1 1554 0 discriminator 2
 4585 07a2 409B     		ldr	r3, [sp, #256]
 4586 07a4 0433     		adds	r3, r3, #4
 4587 07a6 4093     		str	r3, [sp, #256]
1555:/home/rdu/Workspace/project_templates/mcu/stm32_ws/src/libraries/STM32F4xx_StdPeriph_Driver/src/stm32f4xx_cryp_aes.c ****         CRYP_DataIn(*(uint32_t*)(headeraddr));
 4588              		.loc 1 1555 0 discriminator 2
 4589 07a8 409B     		ldr	r3, [sp, #256]
 4590 07aa 1B68     		ldr	r3, [r3]
 4591 07ac 1846     		mov	r0, r3
 4592 07ae FFF7FEFF 		bl	CRYP_DataIn
1556:/home/rdu/Workspace/project_templates/mcu/stm32_ws/src/libraries/STM32F4xx_StdPeriph_Driver/src/stm32f4xx_cryp_aes.c ****         headeraddr+=4;
 4593              		.loc 1 1556 0 discriminator 2
 4594 07b2 409B     		ldr	r3, [sp, #256]
 4595 07b4 0433     		adds	r3, r3, #4
 4596 07b6 4093     		str	r3, [sp, #256]
1557:/home/rdu/Workspace/project_templates/mcu/stm32_ws/src/libraries/STM32F4xx_StdPeriph_Driver/src/stm32f4xx_cryp_aes.c ****         CRYP_DataIn(*(uint32_t*)(headeraddr));
 4597              		.loc 1 1557 0 discriminator 2
 4598 07b8 409B     		ldr	r3, [sp, #256]
 4599 07ba 1B68     		ldr	r3, [r3]
 4600 07bc 1846     		mov	r0, r3
 4601 07be FFF7FEFF 		bl	CRYP_DataIn
1558:/home/rdu/Workspace/project_templates/mcu/stm32_ws/src/libraries/STM32F4xx_StdPeriph_Driver/src/stm32f4xx_cryp_aes.c ****         headeraddr+=4;
 4602              		.loc 1 1558 0 discriminator 2
 4603 07c2 409B     		ldr	r3, [sp, #256]
 4604 07c4 0433     		adds	r3, r3, #4
 4605 07c6 4093     		str	r3, [sp, #256]
1543:/home/rdu/Workspace/project_templates/mcu/stm32_ws/src/libraries/STM32F4xx_StdPeriph_Driver/src/stm32f4xx_cryp_aes.c ****       {
 4606              		.loc 1 1543 0 discriminator 2
 4607 07c8 3E9B     		ldr	r3, [sp, #248]
 4608 07ca 1033     		adds	r3, r3, #16
 4609 07cc 3E93     		str	r3, [sp, #248]
 4610              	.L276:
1543:/home/rdu/Workspace/project_templates/mcu/stm32_ws/src/libraries/STM32F4xx_StdPeriph_Driver/src/stm32f4xx_cryp_aes.c ****       {
 4611              		.loc 1 1543 0 is_stmt 0 discriminator 1
 4612 07ce 3E9A     		ldr	r2, [sp, #248]
 4613 07d0 3F9B     		ldr	r3, [sp, #252]
 4614 07d2 9A42     		cmp	r2, r3
 4615 07d4 D1D3     		bcc	.L278
1559:/home/rdu/Workspace/project_templates/mcu/stm32_ws/src/libraries/STM32F4xx_StdPeriph_Driver/src/stm32f4xx_cryp_aes.c ****       }
1560:/home/rdu/Workspace/project_templates/mcu/stm32_ws/src/libraries/STM32F4xx_StdPeriph_Driver/src/stm32f4xx_cryp_aes.c ****       
1561:/home/rdu/Workspace/project_templates/mcu/stm32_ws/src/libraries/STM32F4xx_StdPeriph_Driver/src/stm32f4xx_cryp_aes.c ****       /* Wait until the complete message has been processed */
1562:/home/rdu/Workspace/project_templates/mcu/stm32_ws/src/libraries/STM32F4xx_StdPeriph_Driver/src/stm32f4xx_cryp_aes.c ****       counter = 0;
 4616              		.loc 1 1562 0 is_stmt 1
 4617 07d6 0023     		movs	r3, #0
 4618 07d8 1193     		str	r3, [sp, #68]
 4619              	.L280:
1563:/home/rdu/Workspace/project_templates/mcu/stm32_ws/src/libraries/STM32F4xx_StdPeriph_Driver/src/stm32f4xx_cryp_aes.c ****       do
1564:/home/rdu/Workspace/project_templates/mcu/stm32_ws/src/libraries/STM32F4xx_StdPeriph_Driver/src/stm32f4xx_cryp_aes.c ****       {
1565:/home/rdu/Workspace/project_templates/mcu/stm32_ws/src/libraries/STM32F4xx_StdPeriph_Driver/src/stm32f4xx_cryp_aes.c ****         busystatus = CRYP_GetFlagStatus(CRYP_FLAG_BUSY);
 4620              		.loc 1 1565 0 discriminator 2
 4621 07da 1020     		movs	r0, #16
 4622 07dc FFF7FEFF 		bl	CRYP_GetFlagStatus
 4623 07e0 0346     		mov	r3, r0
 4624 07e2 3C93     		str	r3, [sp, #240]
1566:/home/rdu/Workspace/project_templates/mcu/stm32_ws/src/libraries/STM32F4xx_StdPeriph_Driver/src/stm32f4xx_cryp_aes.c ****         counter++;
 4625              		.loc 1 1566 0 discriminator 2
 4626 07e4 119B     		ldr	r3, [sp, #68]
 4627 07e6 0133     		adds	r3, r3, #1
 4628 07e8 1193     		str	r3, [sp, #68]
1567:/home/rdu/Workspace/project_templates/mcu/stm32_ws/src/libraries/STM32F4xx_StdPeriph_Driver/src/stm32f4xx_cryp_aes.c ****       }while ((counter != AESBUSY_TIMEOUT) && (busystatus != RESET));
 4629              		.loc 1 1567 0 discriminator 2
 4630 07ea 119B     		ldr	r3, [sp, #68]
 4631 07ec B3F5803F 		cmp	r3, #65536
 4632 07f0 02D0     		beq	.L279
 4633              		.loc 1 1567 0 is_stmt 0 discriminator 1
 4634 07f2 3C9B     		ldr	r3, [sp, #240]
 4635 07f4 002B     		cmp	r3, #0
 4636 07f6 F0D1     		bne	.L280
 4637              	.L279:
1568:/home/rdu/Workspace/project_templates/mcu/stm32_ws/src/libraries/STM32F4xx_StdPeriph_Driver/src/stm32f4xx_cryp_aes.c **** 
1569:/home/rdu/Workspace/project_templates/mcu/stm32_ws/src/libraries/STM32F4xx_StdPeriph_Driver/src/stm32f4xx_cryp_aes.c ****       if (busystatus != RESET)
 4638              		.loc 1 1569 0 is_stmt 1
 4639 07f8 3C9B     		ldr	r3, [sp, #240]
 4640 07fa 002B     		cmp	r3, #0
 4641 07fc 02D0     		beq	.L274
1570:/home/rdu/Workspace/project_templates/mcu/stm32_ws/src/libraries/STM32F4xx_StdPeriph_Driver/src/stm32f4xx_cryp_aes.c ****       {
1571:/home/rdu/Workspace/project_templates/mcu/stm32_ws/src/libraries/STM32F4xx_StdPeriph_Driver/src/stm32f4xx_cryp_aes.c ****         status = ERROR;
 4642              		.loc 1 1571 0
 4643 07fe 0023     		movs	r3, #0
 4644 0800 8DF80F31 		strb	r3, [sp, #271]
 4645              	.L274:
1572:/home/rdu/Workspace/project_templates/mcu/stm32_ws/src/libraries/STM32F4xx_StdPeriph_Driver/src/stm32f4xx_cryp_aes.c ****       }
1573:/home/rdu/Workspace/project_templates/mcu/stm32_ws/src/libraries/STM32F4xx_StdPeriph_Driver/src/stm32f4xx_cryp_aes.c ****     }
1574:/home/rdu/Workspace/project_templates/mcu/stm32_ws/src/libraries/STM32F4xx_StdPeriph_Driver/src/stm32f4xx_cryp_aes.c ****     
1575:/home/rdu/Workspace/project_templates/mcu/stm32_ws/src/libraries/STM32F4xx_StdPeriph_Driver/src/stm32f4xx_cryp_aes.c ****     /**************************** payload phase *******************************/
1576:/home/rdu/Workspace/project_templates/mcu/stm32_ws/src/libraries/STM32F4xx_StdPeriph_Driver/src/stm32f4xx_cryp_aes.c ****     if(ILength != 0)
 4646              		.loc 1 1576 0
 4647 0804 489B     		ldr	r3, [sp, #288]
 4648 0806 002B     		cmp	r3, #0
 4649 0808 00F08280 		beq	.L281
1577:/home/rdu/Workspace/project_templates/mcu/stm32_ws/src/libraries/STM32F4xx_StdPeriph_Driver/src/stm32f4xx_cryp_aes.c ****     {
1578:/home/rdu/Workspace/project_templates/mcu/stm32_ws/src/libraries/STM32F4xx_StdPeriph_Driver/src/stm32f4xx_cryp_aes.c ****       /* Select payload phase */
1579:/home/rdu/Workspace/project_templates/mcu/stm32_ws/src/libraries/STM32F4xx_StdPeriph_Driver/src/stm32f4xx_cryp_aes.c ****       CRYP_PhaseConfig(CRYP_Phase_Payload);
 4650              		.loc 1 1579 0
 4651 080c 4FF40030 		mov	r0, #131072
 4652 0810 FFF7FEFF 		bl	CRYP_PhaseConfig
1580:/home/rdu/Workspace/project_templates/mcu/stm32_ws/src/libraries/STM32F4xx_StdPeriph_Driver/src/stm32f4xx_cryp_aes.c **** 
1581:/home/rdu/Workspace/project_templates/mcu/stm32_ws/src/libraries/STM32F4xx_StdPeriph_Driver/src/stm32f4xx_cryp_aes.c ****       /* Enable Crypto processor */
1582:/home/rdu/Workspace/project_templates/mcu/stm32_ws/src/libraries/STM32F4xx_StdPeriph_Driver/src/stm32f4xx_cryp_aes.c ****       CRYP_Cmd(ENABLE);
 4653              		.loc 1 1582 0
 4654 0814 0120     		movs	r0, #1
 4655 0816 FFF7FEFF 		bl	CRYP_Cmd
1583:/home/rdu/Workspace/project_templates/mcu/stm32_ws/src/libraries/STM32F4xx_StdPeriph_Driver/src/stm32f4xx_cryp_aes.c ****       
1584:/home/rdu/Workspace/project_templates/mcu/stm32_ws/src/libraries/STM32F4xx_StdPeriph_Driver/src/stm32f4xx_cryp_aes.c ****       if(CRYP_GetCmdStatus() == DISABLE)
 4656              		.loc 1 1584 0
 4657 081a FFF7FEFF 		bl	CRYP_GetCmdStatus
 4658 081e 0346     		mov	r3, r0
 4659 0820 002B     		cmp	r3, #0
 4660 0822 01D1     		bne	.L282
1585:/home/rdu/Workspace/project_templates/mcu/stm32_ws/src/libraries/STM32F4xx_StdPeriph_Driver/src/stm32f4xx_cryp_aes.c ****       {
1586:/home/rdu/Workspace/project_templates/mcu/stm32_ws/src/libraries/STM32F4xx_StdPeriph_Driver/src/stm32f4xx_cryp_aes.c ****         /* The CRYP peripheral clock is not enabled or the device doesn't embed 
1587:/home/rdu/Workspace/project_templates/mcu/stm32_ws/src/libraries/STM32F4xx_StdPeriph_Driver/src/stm32f4xx_cryp_aes.c ****            the CRYP peripheral (please check the device sales type. */
1588:/home/rdu/Workspace/project_templates/mcu/stm32_ws/src/libraries/STM32F4xx_StdPeriph_Driver/src/stm32f4xx_cryp_aes.c ****         return(ERROR);
 4661              		.loc 1 1588 0
 4662 0824 0023     		movs	r3, #0
 4663 0826 D0E0     		b	.L295
 4664              	.L282:
1589:/home/rdu/Workspace/project_templates/mcu/stm32_ws/src/libraries/STM32F4xx_StdPeriph_Driver/src/stm32f4xx_cryp_aes.c ****       }
1590:/home/rdu/Workspace/project_templates/mcu/stm32_ws/src/libraries/STM32F4xx_StdPeriph_Driver/src/stm32f4xx_cryp_aes.c ****       
1591:/home/rdu/Workspace/project_templates/mcu/stm32_ws/src/libraries/STM32F4xx_StdPeriph_Driver/src/stm32f4xx_cryp_aes.c ****       for(loopcounter = 0; ((loopcounter < ILength) && (status != ERROR)); loopcounter+=16)
 4665              		.loc 1 1591 0
 4666 0828 0023     		movs	r3, #0
 4667 082a 3E93     		str	r3, [sp, #248]
 4668 082c 68E0     		b	.L283
 4669              	.L290:
1592:/home/rdu/Workspace/project_templates/mcu/stm32_ws/src/libraries/STM32F4xx_StdPeriph_Driver/src/stm32f4xx_cryp_aes.c ****       {
1593:/home/rdu/Workspace/project_templates/mcu/stm32_ws/src/libraries/STM32F4xx_StdPeriph_Driver/src/stm32f4xx_cryp_aes.c ****         /* Wait until the IFEM flag is reset */
1594:/home/rdu/Workspace/project_templates/mcu/stm32_ws/src/libraries/STM32F4xx_StdPeriph_Driver/src/stm32f4xx_cryp_aes.c ****         while(CRYP_GetFlagStatus(CRYP_FLAG_IFEM) == RESET)
 4670              		.loc 1 1594 0
 4671 082e 00BF     		nop
 4672              	.L284:
 4673              		.loc 1 1594 0 is_stmt 0 discriminator 1
 4674 0830 0120     		movs	r0, #1
 4675 0832 FFF7FEFF 		bl	CRYP_GetFlagStatus
 4676 0836 0346     		mov	r3, r0
 4677 0838 002B     		cmp	r3, #0
 4678 083a F9D0     		beq	.L284
1595:/home/rdu/Workspace/project_templates/mcu/stm32_ws/src/libraries/STM32F4xx_StdPeriph_Driver/src/stm32f4xx_cryp_aes.c ****         {
1596:/home/rdu/Workspace/project_templates/mcu/stm32_ws/src/libraries/STM32F4xx_StdPeriph_Driver/src/stm32f4xx_cryp_aes.c ****         }
1597:/home/rdu/Workspace/project_templates/mcu/stm32_ws/src/libraries/STM32F4xx_StdPeriph_Driver/src/stm32f4xx_cryp_aes.c ****         
1598:/home/rdu/Workspace/project_templates/mcu/stm32_ws/src/libraries/STM32F4xx_StdPeriph_Driver/src/stm32f4xx_cryp_aes.c ****         /* Write the Input block in the IN FIFO */
1599:/home/rdu/Workspace/project_templates/mcu/stm32_ws/src/libraries/STM32F4xx_StdPeriph_Driver/src/stm32f4xx_cryp_aes.c ****         CRYP_DataIn(*(uint32_t*)(inputaddr));
 4679              		.loc 1 1599 0 is_stmt 1
 4680 083c 429B     		ldr	r3, [sp, #264]
 4681 083e 1B68     		ldr	r3, [r3]
 4682 0840 1846     		mov	r0, r3
 4683 0842 FFF7FEFF 		bl	CRYP_DataIn
1600:/home/rdu/Workspace/project_templates/mcu/stm32_ws/src/libraries/STM32F4xx_StdPeriph_Driver/src/stm32f4xx_cryp_aes.c ****         inputaddr+=4;
 4684              		.loc 1 1600 0
 4685 0846 429B     		ldr	r3, [sp, #264]
 4686 0848 0433     		adds	r3, r3, #4
 4687 084a 4293     		str	r3, [sp, #264]
1601:/home/rdu/Workspace/project_templates/mcu/stm32_ws/src/libraries/STM32F4xx_StdPeriph_Driver/src/stm32f4xx_cryp_aes.c ****         CRYP_DataIn(*(uint32_t*)(inputaddr));
 4688              		.loc 1 1601 0
 4689 084c 429B     		ldr	r3, [sp, #264]
 4690 084e 1B68     		ldr	r3, [r3]
 4691 0850 1846     		mov	r0, r3
 4692 0852 FFF7FEFF 		bl	CRYP_DataIn
1602:/home/rdu/Workspace/project_templates/mcu/stm32_ws/src/libraries/STM32F4xx_StdPeriph_Driver/src/stm32f4xx_cryp_aes.c ****         inputaddr+=4;
 4693              		.loc 1 1602 0
 4694 0856 429B     		ldr	r3, [sp, #264]
 4695 0858 0433     		adds	r3, r3, #4
 4696 085a 4293     		str	r3, [sp, #264]
1603:/home/rdu/Workspace/project_templates/mcu/stm32_ws/src/libraries/STM32F4xx_StdPeriph_Driver/src/stm32f4xx_cryp_aes.c ****         CRYP_DataIn(*(uint32_t*)(inputaddr));
 4697              		.loc 1 1603 0
 4698 085c 429B     		ldr	r3, [sp, #264]
 4699 085e 1B68     		ldr	r3, [r3]
 4700 0860 1846     		mov	r0, r3
 4701 0862 FFF7FEFF 		bl	CRYP_DataIn
1604:/home/rdu/Workspace/project_templates/mcu/stm32_ws/src/libraries/STM32F4xx_StdPeriph_Driver/src/stm32f4xx_cryp_aes.c ****         inputaddr+=4;
 4702              		.loc 1 1604 0
 4703 0866 429B     		ldr	r3, [sp, #264]
 4704 0868 0433     		adds	r3, r3, #4
 4705 086a 4293     		str	r3, [sp, #264]
1605:/home/rdu/Workspace/project_templates/mcu/stm32_ws/src/libraries/STM32F4xx_StdPeriph_Driver/src/stm32f4xx_cryp_aes.c ****         CRYP_DataIn(*(uint32_t*)(inputaddr));
 4706              		.loc 1 1605 0
 4707 086c 429B     		ldr	r3, [sp, #264]
 4708 086e 1B68     		ldr	r3, [r3]
 4709 0870 1846     		mov	r0, r3
 4710 0872 FFF7FEFF 		bl	CRYP_DataIn
1606:/home/rdu/Workspace/project_templates/mcu/stm32_ws/src/libraries/STM32F4xx_StdPeriph_Driver/src/stm32f4xx_cryp_aes.c ****         inputaddr+=4;
 4711              		.loc 1 1606 0
 4712 0876 429B     		ldr	r3, [sp, #264]
 4713 0878 0433     		adds	r3, r3, #4
 4714 087a 4293     		str	r3, [sp, #264]
1607:/home/rdu/Workspace/project_templates/mcu/stm32_ws/src/libraries/STM32F4xx_StdPeriph_Driver/src/stm32f4xx_cryp_aes.c ****         
1608:/home/rdu/Workspace/project_templates/mcu/stm32_ws/src/libraries/STM32F4xx_StdPeriph_Driver/src/stm32f4xx_cryp_aes.c ****         /* Wait until the complete message has been processed */
1609:/home/rdu/Workspace/project_templates/mcu/stm32_ws/src/libraries/STM32F4xx_StdPeriph_Driver/src/stm32f4xx_cryp_aes.c ****         counter = 0;
 4715              		.loc 1 1609 0
 4716 087c 0023     		movs	r3, #0
 4717 087e 1193     		str	r3, [sp, #68]
 4718              	.L286:
1610:/home/rdu/Workspace/project_templates/mcu/stm32_ws/src/libraries/STM32F4xx_StdPeriph_Driver/src/stm32f4xx_cryp_aes.c ****         do
1611:/home/rdu/Workspace/project_templates/mcu/stm32_ws/src/libraries/STM32F4xx_StdPeriph_Driver/src/stm32f4xx_cryp_aes.c ****         {
1612:/home/rdu/Workspace/project_templates/mcu/stm32_ws/src/libraries/STM32F4xx_StdPeriph_Driver/src/stm32f4xx_cryp_aes.c ****           busystatus = CRYP_GetFlagStatus(CRYP_FLAG_BUSY);
 4719              		.loc 1 1612 0 discriminator 2
 4720 0880 1020     		movs	r0, #16
 4721 0882 FFF7FEFF 		bl	CRYP_GetFlagStatus
 4722 0886 0346     		mov	r3, r0
 4723 0888 3C93     		str	r3, [sp, #240]
1613:/home/rdu/Workspace/project_templates/mcu/stm32_ws/src/libraries/STM32F4xx_StdPeriph_Driver/src/stm32f4xx_cryp_aes.c ****           counter++;
 4724              		.loc 1 1613 0 discriminator 2
 4725 088a 119B     		ldr	r3, [sp, #68]
 4726 088c 0133     		adds	r3, r3, #1
 4727 088e 1193     		str	r3, [sp, #68]
1614:/home/rdu/Workspace/project_templates/mcu/stm32_ws/src/libraries/STM32F4xx_StdPeriph_Driver/src/stm32f4xx_cryp_aes.c ****         }while ((counter != AESBUSY_TIMEOUT) && (busystatus != RESET));
 4728              		.loc 1 1614 0 discriminator 2
 4729 0890 119B     		ldr	r3, [sp, #68]
 4730 0892 B3F5803F 		cmp	r3, #65536
 4731 0896 02D0     		beq	.L285
 4732              		.loc 1 1614 0 is_stmt 0 discriminator 1
 4733 0898 3C9B     		ldr	r3, [sp, #240]
 4734 089a 002B     		cmp	r3, #0
 4735 089c F0D1     		bne	.L286
 4736              	.L285:
1615:/home/rdu/Workspace/project_templates/mcu/stm32_ws/src/libraries/STM32F4xx_StdPeriph_Driver/src/stm32f4xx_cryp_aes.c **** 
1616:/home/rdu/Workspace/project_templates/mcu/stm32_ws/src/libraries/STM32F4xx_StdPeriph_Driver/src/stm32f4xx_cryp_aes.c ****         if (busystatus != RESET)
 4737              		.loc 1 1616 0 is_stmt 1
 4738 089e 3C9B     		ldr	r3, [sp, #240]
 4739 08a0 002B     		cmp	r3, #0
 4740 08a2 03D0     		beq	.L297
1617:/home/rdu/Workspace/project_templates/mcu/stm32_ws/src/libraries/STM32F4xx_StdPeriph_Driver/src/stm32f4xx_cryp_aes.c ****         {
1618:/home/rdu/Workspace/project_templates/mcu/stm32_ws/src/libraries/STM32F4xx_StdPeriph_Driver/src/stm32f4xx_cryp_aes.c ****           status = ERROR;
 4741              		.loc 1 1618 0
 4742 08a4 0023     		movs	r3, #0
 4743 08a6 8DF80F31 		strb	r3, [sp, #271]
 4744 08aa 26E0     		b	.L288
 4745              	.L297:
1619:/home/rdu/Workspace/project_templates/mcu/stm32_ws/src/libraries/STM32F4xx_StdPeriph_Driver/src/stm32f4xx_cryp_aes.c ****         }
1620:/home/rdu/Workspace/project_templates/mcu/stm32_ws/src/libraries/STM32F4xx_StdPeriph_Driver/src/stm32f4xx_cryp_aes.c ****         else
1621:/home/rdu/Workspace/project_templates/mcu/stm32_ws/src/libraries/STM32F4xx_StdPeriph_Driver/src/stm32f4xx_cryp_aes.c ****         {
1622:/home/rdu/Workspace/project_templates/mcu/stm32_ws/src/libraries/STM32F4xx_StdPeriph_Driver/src/stm32f4xx_cryp_aes.c ****           /* Wait until the OFNE flag is reset */
1623:/home/rdu/Workspace/project_templates/mcu/stm32_ws/src/libraries/STM32F4xx_StdPeriph_Driver/src/stm32f4xx_cryp_aes.c ****           while(CRYP_GetFlagStatus(CRYP_FLAG_OFNE) == RESET)
 4746              		.loc 1 1623 0
 4747 08ac 00BF     		nop
 4748              	.L289:
 4749              		.loc 1 1623 0 is_stmt 0 discriminator 1
 4750 08ae 0420     		movs	r0, #4
 4751 08b0 FFF7FEFF 		bl	CRYP_GetFlagStatus
 4752 08b4 0346     		mov	r3, r0
 4753 08b6 002B     		cmp	r3, #0
 4754 08b8 F9D0     		beq	.L289
1624:/home/rdu/Workspace/project_templates/mcu/stm32_ws/src/libraries/STM32F4xx_StdPeriph_Driver/src/stm32f4xx_cryp_aes.c ****           {
1625:/home/rdu/Workspace/project_templates/mcu/stm32_ws/src/libraries/STM32F4xx_StdPeriph_Driver/src/stm32f4xx_cryp_aes.c ****           }
1626:/home/rdu/Workspace/project_templates/mcu/stm32_ws/src/libraries/STM32F4xx_StdPeriph_Driver/src/stm32f4xx_cryp_aes.c ****           
1627:/home/rdu/Workspace/project_templates/mcu/stm32_ws/src/libraries/STM32F4xx_StdPeriph_Driver/src/stm32f4xx_cryp_aes.c ****           /* Read the Output block from the Output FIFO */
1628:/home/rdu/Workspace/project_templates/mcu/stm32_ws/src/libraries/STM32F4xx_StdPeriph_Driver/src/stm32f4xx_cryp_aes.c ****           *(uint32_t*)(outputaddr) = CRYP_DataOut();
 4755              		.loc 1 1628 0 is_stmt 1
 4756 08ba 419C     		ldr	r4, [sp, #260]
 4757 08bc FFF7FEFF 		bl	CRYP_DataOut
 4758 08c0 0346     		mov	r3, r0
 4759 08c2 2360     		str	r3, [r4]
1629:/home/rdu/Workspace/project_templates/mcu/stm32_ws/src/libraries/STM32F4xx_StdPeriph_Driver/src/stm32f4xx_cryp_aes.c ****           outputaddr+=4;
 4760              		.loc 1 1629 0
 4761 08c4 419B     		ldr	r3, [sp, #260]
 4762 08c6 0433     		adds	r3, r3, #4
 4763 08c8 4193     		str	r3, [sp, #260]
1630:/home/rdu/Workspace/project_templates/mcu/stm32_ws/src/libraries/STM32F4xx_StdPeriph_Driver/src/stm32f4xx_cryp_aes.c ****           *(uint32_t*)(outputaddr) = CRYP_DataOut();
 4764              		.loc 1 1630 0
 4765 08ca 419C     		ldr	r4, [sp, #260]
 4766 08cc FFF7FEFF 		bl	CRYP_DataOut
 4767 08d0 0346     		mov	r3, r0
 4768 08d2 2360     		str	r3, [r4]
1631:/home/rdu/Workspace/project_templates/mcu/stm32_ws/src/libraries/STM32F4xx_StdPeriph_Driver/src/stm32f4xx_cryp_aes.c ****           outputaddr+=4;
 4769              		.loc 1 1631 0
 4770 08d4 419B     		ldr	r3, [sp, #260]
 4771 08d6 0433     		adds	r3, r3, #4
 4772 08d8 4193     		str	r3, [sp, #260]
1632:/home/rdu/Workspace/project_templates/mcu/stm32_ws/src/libraries/STM32F4xx_StdPeriph_Driver/src/stm32f4xx_cryp_aes.c ****           *(uint32_t*)(outputaddr) = CRYP_DataOut();
 4773              		.loc 1 1632 0
 4774 08da 419C     		ldr	r4, [sp, #260]
 4775 08dc FFF7FEFF 		bl	CRYP_DataOut
 4776 08e0 0346     		mov	r3, r0
 4777 08e2 2360     		str	r3, [r4]
1633:/home/rdu/Workspace/project_templates/mcu/stm32_ws/src/libraries/STM32F4xx_StdPeriph_Driver/src/stm32f4xx_cryp_aes.c ****           outputaddr+=4;
 4778              		.loc 1 1633 0
 4779 08e4 419B     		ldr	r3, [sp, #260]
 4780 08e6 0433     		adds	r3, r3, #4
 4781 08e8 4193     		str	r3, [sp, #260]
1634:/home/rdu/Workspace/project_templates/mcu/stm32_ws/src/libraries/STM32F4xx_StdPeriph_Driver/src/stm32f4xx_cryp_aes.c ****           *(uint32_t*)(outputaddr) = CRYP_DataOut();
 4782              		.loc 1 1634 0
 4783 08ea 419C     		ldr	r4, [sp, #260]
 4784 08ec FFF7FEFF 		bl	CRYP_DataOut
 4785 08f0 0346     		mov	r3, r0
 4786 08f2 2360     		str	r3, [r4]
1635:/home/rdu/Workspace/project_templates/mcu/stm32_ws/src/libraries/STM32F4xx_StdPeriph_Driver/src/stm32f4xx_cryp_aes.c ****           outputaddr+=4;
 4787              		.loc 1 1635 0
 4788 08f4 419B     		ldr	r3, [sp, #260]
 4789 08f6 0433     		adds	r3, r3, #4
 4790 08f8 4193     		str	r3, [sp, #260]
 4791              	.L288:
1591:/home/rdu/Workspace/project_templates/mcu/stm32_ws/src/libraries/STM32F4xx_StdPeriph_Driver/src/stm32f4xx_cryp_aes.c ****       {
 4792              		.loc 1 1591 0 discriminator 2
 4793 08fa 3E9B     		ldr	r3, [sp, #248]
 4794 08fc 1033     		adds	r3, r3, #16
 4795 08fe 3E93     		str	r3, [sp, #248]
 4796              	.L283:
1591:/home/rdu/Workspace/project_templates/mcu/stm32_ws/src/libraries/STM32F4xx_StdPeriph_Driver/src/stm32f4xx_cryp_aes.c ****       {
 4797              		.loc 1 1591 0 is_stmt 0 discriminator 1
 4798 0900 3E9A     		ldr	r2, [sp, #248]
 4799 0902 489B     		ldr	r3, [sp, #288]
 4800 0904 9A42     		cmp	r2, r3
 4801 0906 03D2     		bcs	.L281
1591:/home/rdu/Workspace/project_templates/mcu/stm32_ws/src/libraries/STM32F4xx_StdPeriph_Driver/src/stm32f4xx_cryp_aes.c ****       {
 4802              		.loc 1 1591 0 discriminator 3
 4803 0908 9DF80F31 		ldrb	r3, [sp, #271]	@ zero_extendqisi2
 4804 090c 002B     		cmp	r3, #0
 4805 090e 8ED1     		bne	.L290
 4806              	.L281:
1636:/home/rdu/Workspace/project_templates/mcu/stm32_ws/src/libraries/STM32F4xx_StdPeriph_Driver/src/stm32f4xx_cryp_aes.c ****         }
1637:/home/rdu/Workspace/project_templates/mcu/stm32_ws/src/libraries/STM32F4xx_StdPeriph_Driver/src/stm32f4xx_cryp_aes.c ****       }
1638:/home/rdu/Workspace/project_templates/mcu/stm32_ws/src/libraries/STM32F4xx_StdPeriph_Driver/src/stm32f4xx_cryp_aes.c ****     }
1639:/home/rdu/Workspace/project_templates/mcu/stm32_ws/src/libraries/STM32F4xx_StdPeriph_Driver/src/stm32f4xx_cryp_aes.c ****     
1640:/home/rdu/Workspace/project_templates/mcu/stm32_ws/src/libraries/STM32F4xx_StdPeriph_Driver/src/stm32f4xx_cryp_aes.c ****     /***************************** final phase ********************************/
1641:/home/rdu/Workspace/project_templates/mcu/stm32_ws/src/libraries/STM32F4xx_StdPeriph_Driver/src/stm32f4xx_cryp_aes.c ****     /* Select final phase */
1642:/home/rdu/Workspace/project_templates/mcu/stm32_ws/src/libraries/STM32F4xx_StdPeriph_Driver/src/stm32f4xx_cryp_aes.c ****     CRYP_PhaseConfig(CRYP_Phase_Final);
 4807              		.loc 1 1642 0 is_stmt 1
 4808 0910 4FF44030 		mov	r0, #196608
 4809 0914 FFF7FEFF 		bl	CRYP_PhaseConfig
1643:/home/rdu/Workspace/project_templates/mcu/stm32_ws/src/libraries/STM32F4xx_StdPeriph_Driver/src/stm32f4xx_cryp_aes.c ****     
1644:/home/rdu/Workspace/project_templates/mcu/stm32_ws/src/libraries/STM32F4xx_StdPeriph_Driver/src/stm32f4xx_cryp_aes.c ****     /* Enable Crypto processor */
1645:/home/rdu/Workspace/project_templates/mcu/stm32_ws/src/libraries/STM32F4xx_StdPeriph_Driver/src/stm32f4xx_cryp_aes.c ****     CRYP_Cmd(ENABLE);
 4810              		.loc 1 1645 0
 4811 0918 0120     		movs	r0, #1
 4812 091a FFF7FEFF 		bl	CRYP_Cmd
1646:/home/rdu/Workspace/project_templates/mcu/stm32_ws/src/libraries/STM32F4xx_StdPeriph_Driver/src/stm32f4xx_cryp_aes.c ****     
1647:/home/rdu/Workspace/project_templates/mcu/stm32_ws/src/libraries/STM32F4xx_StdPeriph_Driver/src/stm32f4xx_cryp_aes.c ****     if(CRYP_GetCmdStatus() == DISABLE)
 4813              		.loc 1 1647 0
 4814 091e FFF7FEFF 		bl	CRYP_GetCmdStatus
 4815 0922 0346     		mov	r3, r0
 4816 0924 002B     		cmp	r3, #0
 4817 0926 01D1     		bne	.L291
1648:/home/rdu/Workspace/project_templates/mcu/stm32_ws/src/libraries/STM32F4xx_StdPeriph_Driver/src/stm32f4xx_cryp_aes.c ****     {
1649:/home/rdu/Workspace/project_templates/mcu/stm32_ws/src/libraries/STM32F4xx_StdPeriph_Driver/src/stm32f4xx_cryp_aes.c ****       /* The CRYP peripheral clock is not enabled or the device doesn't embed 
1650:/home/rdu/Workspace/project_templates/mcu/stm32_ws/src/libraries/STM32F4xx_StdPeriph_Driver/src/stm32f4xx_cryp_aes.c ****          the CRYP peripheral (please check the device sales type. */
1651:/home/rdu/Workspace/project_templates/mcu/stm32_ws/src/libraries/STM32F4xx_StdPeriph_Driver/src/stm32f4xx_cryp_aes.c ****       return(ERROR);
 4818              		.loc 1 1651 0
 4819 0928 0023     		movs	r3, #0
 4820 092a 4EE0     		b	.L295
 4821              	.L291:
1652:/home/rdu/Workspace/project_templates/mcu/stm32_ws/src/libraries/STM32F4xx_StdPeriph_Driver/src/stm32f4xx_cryp_aes.c ****     }
1653:/home/rdu/Workspace/project_templates/mcu/stm32_ws/src/libraries/STM32F4xx_StdPeriph_Driver/src/stm32f4xx_cryp_aes.c ****     
1654:/home/rdu/Workspace/project_templates/mcu/stm32_ws/src/libraries/STM32F4xx_StdPeriph_Driver/src/stm32f4xx_cryp_aes.c ****     ctraddr = (uint32_t)ctr;
 4822              		.loc 1 1654 0
 4823 092c 09AB     		add	r3, sp, #36
 4824 092e 3993     		str	r3, [sp, #228]
1655:/home/rdu/Workspace/project_templates/mcu/stm32_ws/src/libraries/STM32F4xx_StdPeriph_Driver/src/stm32f4xx_cryp_aes.c ****     /* Write the counter block in the IN FIFO */
1656:/home/rdu/Workspace/project_templates/mcu/stm32_ws/src/libraries/STM32F4xx_StdPeriph_Driver/src/stm32f4xx_cryp_aes.c ****     CRYP_DataIn(*(uint32_t*)(ctraddr));
 4825              		.loc 1 1656 0
 4826 0930 399B     		ldr	r3, [sp, #228]
 4827 0932 1B68     		ldr	r3, [r3]
 4828 0934 1846     		mov	r0, r3
 4829 0936 FFF7FEFF 		bl	CRYP_DataIn
1657:/home/rdu/Workspace/project_templates/mcu/stm32_ws/src/libraries/STM32F4xx_StdPeriph_Driver/src/stm32f4xx_cryp_aes.c ****     ctraddr+=4;
 4830              		.loc 1 1657 0
 4831 093a 399B     		ldr	r3, [sp, #228]
 4832 093c 0433     		adds	r3, r3, #4
 4833 093e 3993     		str	r3, [sp, #228]
1658:/home/rdu/Workspace/project_templates/mcu/stm32_ws/src/libraries/STM32F4xx_StdPeriph_Driver/src/stm32f4xx_cryp_aes.c ****     CRYP_DataIn(*(uint32_t*)(ctraddr));
 4834              		.loc 1 1658 0
 4835 0940 399B     		ldr	r3, [sp, #228]
 4836 0942 1B68     		ldr	r3, [r3]
 4837 0944 1846     		mov	r0, r3
 4838 0946 FFF7FEFF 		bl	CRYP_DataIn
1659:/home/rdu/Workspace/project_templates/mcu/stm32_ws/src/libraries/STM32F4xx_StdPeriph_Driver/src/stm32f4xx_cryp_aes.c ****     ctraddr+=4;
 4839              		.loc 1 1659 0
 4840 094a 399B     		ldr	r3, [sp, #228]
 4841 094c 0433     		adds	r3, r3, #4
 4842 094e 3993     		str	r3, [sp, #228]
1660:/home/rdu/Workspace/project_templates/mcu/stm32_ws/src/libraries/STM32F4xx_StdPeriph_Driver/src/stm32f4xx_cryp_aes.c ****     CRYP_DataIn(*(uint32_t*)(ctraddr));
 4843              		.loc 1 1660 0
 4844 0950 399B     		ldr	r3, [sp, #228]
 4845 0952 1B68     		ldr	r3, [r3]
 4846 0954 1846     		mov	r0, r3
 4847 0956 FFF7FEFF 		bl	CRYP_DataIn
1661:/home/rdu/Workspace/project_templates/mcu/stm32_ws/src/libraries/STM32F4xx_StdPeriph_Driver/src/stm32f4xx_cryp_aes.c ****     ctraddr+=4;
 4848              		.loc 1 1661 0
 4849 095a 399B     		ldr	r3, [sp, #228]
 4850 095c 0433     		adds	r3, r3, #4
 4851 095e 3993     		str	r3, [sp, #228]
1662:/home/rdu/Workspace/project_templates/mcu/stm32_ws/src/libraries/STM32F4xx_StdPeriph_Driver/src/stm32f4xx_cryp_aes.c ****     /* Reset bit 0 (after 8-bit swap) is equivalent to reset bit 24 (before 8-bit swap) */
1663:/home/rdu/Workspace/project_templates/mcu/stm32_ws/src/libraries/STM32F4xx_StdPeriph_Driver/src/stm32f4xx_cryp_aes.c ****     CRYP_DataIn(*(uint32_t*)(ctraddr) & 0xfeffffff);
 4852              		.loc 1 1663 0
 4853 0960 399B     		ldr	r3, [sp, #228]
 4854 0962 1B68     		ldr	r3, [r3]
 4855 0964 23F08073 		bic	r3, r3, #16777216
 4856 0968 1846     		mov	r0, r3
 4857 096a FFF7FEFF 		bl	CRYP_DataIn
1664:/home/rdu/Workspace/project_templates/mcu/stm32_ws/src/libraries/STM32F4xx_StdPeriph_Driver/src/stm32f4xx_cryp_aes.c ****     
1665:/home/rdu/Workspace/project_templates/mcu/stm32_ws/src/libraries/STM32F4xx_StdPeriph_Driver/src/stm32f4xx_cryp_aes.c ****     /* Wait until the OFNE flag is reset */
1666:/home/rdu/Workspace/project_templates/mcu/stm32_ws/src/libraries/STM32F4xx_StdPeriph_Driver/src/stm32f4xx_cryp_aes.c ****     while(CRYP_GetFlagStatus(CRYP_FLAG_OFNE) == RESET)
 4858              		.loc 1 1666 0
 4859 096e 00BF     		nop
 4860              	.L292:
 4861              		.loc 1 1666 0 is_stmt 0 discriminator 1
 4862 0970 0420     		movs	r0, #4
 4863 0972 FFF7FEFF 		bl	CRYP_GetFlagStatus
 4864 0976 0346     		mov	r3, r0
 4865 0978 002B     		cmp	r3, #0
 4866 097a F9D0     		beq	.L292
1667:/home/rdu/Workspace/project_templates/mcu/stm32_ws/src/libraries/STM32F4xx_StdPeriph_Driver/src/stm32f4xx_cryp_aes.c ****     {
1668:/home/rdu/Workspace/project_templates/mcu/stm32_ws/src/libraries/STM32F4xx_StdPeriph_Driver/src/stm32f4xx_cryp_aes.c ****     }
1669:/home/rdu/Workspace/project_templates/mcu/stm32_ws/src/libraries/STM32F4xx_StdPeriph_Driver/src/stm32f4xx_cryp_aes.c ****     
1670:/home/rdu/Workspace/project_templates/mcu/stm32_ws/src/libraries/STM32F4xx_StdPeriph_Driver/src/stm32f4xx_cryp_aes.c ****     /* Read the Authentification TAG (MAC) in the IN FIFO */
1671:/home/rdu/Workspace/project_templates/mcu/stm32_ws/src/libraries/STM32F4xx_StdPeriph_Driver/src/stm32f4xx_cryp_aes.c ****     temptag[0] = CRYP_DataOut();
 4867              		.loc 1 1671 0 is_stmt 1
 4868 097c FFF7FEFF 		bl	CRYP_DataOut
 4869 0980 0346     		mov	r3, r0
 4870 0982 0593     		str	r3, [sp, #20]
1672:/home/rdu/Workspace/project_templates/mcu/stm32_ws/src/libraries/STM32F4xx_StdPeriph_Driver/src/stm32f4xx_cryp_aes.c ****     temptag[1] = CRYP_DataOut();
 4871              		.loc 1 1672 0
 4872 0984 FFF7FEFF 		bl	CRYP_DataOut
 4873 0988 0346     		mov	r3, r0
 4874 098a 0693     		str	r3, [sp, #24]
1673:/home/rdu/Workspace/project_templates/mcu/stm32_ws/src/libraries/STM32F4xx_StdPeriph_Driver/src/stm32f4xx_cryp_aes.c ****     temptag[2] = CRYP_DataOut();
 4875              		.loc 1 1673 0
 4876 098c FFF7FEFF 		bl	CRYP_DataOut
 4877 0990 0346     		mov	r3, r0
 4878 0992 0793     		str	r3, [sp, #28]
1674:/home/rdu/Workspace/project_templates/mcu/stm32_ws/src/libraries/STM32F4xx_StdPeriph_Driver/src/stm32f4xx_cryp_aes.c ****     temptag[3] = CRYP_DataOut();
 4879              		.loc 1 1674 0
 4880 0994 FFF7FEFF 		bl	CRYP_DataOut
 4881 0998 0346     		mov	r3, r0
 4882 099a 0893     		str	r3, [sp, #32]
 4883              	.L272:
1675:/home/rdu/Workspace/project_templates/mcu/stm32_ws/src/libraries/STM32F4xx_StdPeriph_Driver/src/stm32f4xx_cryp_aes.c ****   }
1676:/home/rdu/Workspace/project_templates/mcu/stm32_ws/src/libraries/STM32F4xx_StdPeriph_Driver/src/stm32f4xx_cryp_aes.c ****   
1677:/home/rdu/Workspace/project_templates/mcu/stm32_ws/src/libraries/STM32F4xx_StdPeriph_Driver/src/stm32f4xx_cryp_aes.c ****   /* Copy temporary authentication TAG in user TAG buffer */
1678:/home/rdu/Workspace/project_templates/mcu/stm32_ws/src/libraries/STM32F4xx_StdPeriph_Driver/src/stm32f4xx_cryp_aes.c ****   for(loopcounter = 0; (loopcounter < TAGSize); loopcounter++)
 4884              		.loc 1 1678 0
 4885 099c 0023     		movs	r3, #0
 4886 099e 3E93     		str	r3, [sp, #248]
 4887 09a0 0AE0     		b	.L293
 4888              	.L294:
1679:/home/rdu/Workspace/project_templates/mcu/stm32_ws/src/libraries/STM32F4xx_StdPeriph_Driver/src/stm32f4xx_cryp_aes.c ****   {
1680:/home/rdu/Workspace/project_templates/mcu/stm32_ws/src/libraries/STM32F4xx_StdPeriph_Driver/src/stm32f4xx_cryp_aes.c ****     /* Set the authentication TAG buffer */
1681:/home/rdu/Workspace/project_templates/mcu/stm32_ws/src/libraries/STM32F4xx_StdPeriph_Driver/src/stm32f4xx_cryp_aes.c ****     *((uint8_t*)tagaddr+loopcounter) = *((uint8_t*)temptag+loopcounter);
 4889              		.loc 1 1681 0 discriminator 3
 4890 09a2 05AA     		add	r2, sp, #20
 4891 09a4 3E9B     		ldr	r3, [sp, #248]
 4892 09a6 1344     		add	r3, r3, r2
 4893 09a8 3E99     		ldr	r1, [sp, #248]
 4894 09aa 3A9A     		ldr	r2, [sp, #232]
 4895 09ac 0A44     		add	r2, r2, r1
 4896 09ae 1B78     		ldrb	r3, [r3]	@ zero_extendqisi2
 4897 09b0 1370     		strb	r3, [r2]
1678:/home/rdu/Workspace/project_templates/mcu/stm32_ws/src/libraries/STM32F4xx_StdPeriph_Driver/src/stm32f4xx_cryp_aes.c ****   {
 4898              		.loc 1 1678 0 discriminator 3
 4899 09b2 3E9B     		ldr	r3, [sp, #248]
 4900 09b4 0133     		adds	r3, r3, #1
 4901 09b6 3E93     		str	r3, [sp, #248]
 4902              	.L293:
1678:/home/rdu/Workspace/project_templates/mcu/stm32_ws/src/libraries/STM32F4xx_StdPeriph_Driver/src/stm32f4xx_cryp_aes.c ****   {
 4903              		.loc 1 1678 0 is_stmt 0 discriminator 1
 4904 09b8 3E9A     		ldr	r2, [sp, #248]
 4905 09ba 4E9B     		ldr	r3, [sp, #312]
 4906 09bc 9A42     		cmp	r2, r3
 4907 09be F0D3     		bcc	.L294
1682:/home/rdu/Workspace/project_templates/mcu/stm32_ws/src/libraries/STM32F4xx_StdPeriph_Driver/src/stm32f4xx_cryp_aes.c ****   }
1683:/home/rdu/Workspace/project_templates/mcu/stm32_ws/src/libraries/STM32F4xx_StdPeriph_Driver/src/stm32f4xx_cryp_aes.c ****   
1684:/home/rdu/Workspace/project_templates/mcu/stm32_ws/src/libraries/STM32F4xx_StdPeriph_Driver/src/stm32f4xx_cryp_aes.c ****   /* Disable Crypto */
1685:/home/rdu/Workspace/project_templates/mcu/stm32_ws/src/libraries/STM32F4xx_StdPeriph_Driver/src/stm32f4xx_cryp_aes.c ****   CRYP_Cmd(DISABLE);
 4908              		.loc 1 1685 0 is_stmt 1
 4909 09c0 0020     		movs	r0, #0
 4910 09c2 FFF7FEFF 		bl	CRYP_Cmd
1686:/home/rdu/Workspace/project_templates/mcu/stm32_ws/src/libraries/STM32F4xx_StdPeriph_Driver/src/stm32f4xx_cryp_aes.c **** 
1687:/home/rdu/Workspace/project_templates/mcu/stm32_ws/src/libraries/STM32F4xx_StdPeriph_Driver/src/stm32f4xx_cryp_aes.c ****   return status;
 4911              		.loc 1 1687 0
 4912 09c6 9DF80F31 		ldrb	r3, [sp, #271]	@ zero_extendqisi2
 4913              	.L295:
1688:/home/rdu/Workspace/project_templates/mcu/stm32_ws/src/libraries/STM32F4xx_StdPeriph_Driver/src/stm32f4xx_cryp_aes.c **** }
 4914              		.loc 1 1688 0 discriminator 1
 4915 09ca 1846     		mov	r0, r3
 4916 09cc 44B0     		add	sp, sp, #272
 4917              	.LCFI14:
 4918              		.cfi_def_cfa_offset 8
 4919              		@ sp needed
 4920 09ce 10BD     		pop	{r4, pc}
 4921              		.cfi_endproc
 4922              	.LFE127:
 4924              		.text
 4925              	.Letext0:
 4926              		.file 3 "/home/rdu/Software/gcc-arm-none-eabi-7-2017-q4-major/arm-none-eabi/include/machine/_defau
 4927              		.file 4 "/home/rdu/Software/gcc-arm-none-eabi-7-2017-q4-major/arm-none-eabi/include/sys/_stdint.h"
 4928              		.file 5 "/home/rdu/Workspace/project_templates/mcu/stm32_ws/src/libraries/CMSIS/CMSIS_STM32F4/Incl
 4929              		.file 6 "/home/rdu/Workspace/project_templates/mcu/stm32_ws/src/libraries/CMSIS/CMSIS_STM32F4/Devi
 4930              		.file 7 "/home/rdu/Workspace/project_templates/mcu/stm32_ws/src/libraries/CMSIS/CMSIS_STM32F4/Devi
 4931              		.file 8 "/home/rdu/Workspace/project_templates/mcu/stm32_ws/src/libraries/STM32F4xx_StdPeriph_Driv
DEFINED SYMBOLS
                            *ABS*:0000000000000000 stm32f4xx_cryp_aes.c
     /tmp/cccFdMgz.s:16     .text.CRYP_AES_ECB:0000000000000000 $t
     /tmp/cccFdMgz.s:23     .text.CRYP_AES_ECB:0000000000000000 CRYP_AES_ECB
     /tmp/cccFdMgz.s:625    .text.CRYP_AES_CBC:0000000000000000 $t
     /tmp/cccFdMgz.s:632    .text.CRYP_AES_CBC:0000000000000000 CRYP_AES_CBC
     /tmp/cccFdMgz.s:1304   .text.CRYP_AES_CTR:0000000000000000 $t
     /tmp/cccFdMgz.s:1311   .text.CRYP_AES_CTR:0000000000000000 CRYP_AES_CTR
     /tmp/cccFdMgz.s:1933   .text.CRYP_AES_GCM:0000000000000000 $t
     /tmp/cccFdMgz.s:1940   .text.CRYP_AES_GCM:0000000000000000 CRYP_AES_GCM
     /tmp/cccFdMgz.s:3281   .text.CRYP_AES_CCM:0000000000000000 $t
     /tmp/cccFdMgz.s:3288   .text.CRYP_AES_CCM:0000000000000000 CRYP_AES_CCM

UNDEFINED SYMBOLS
CRYP_KeyStructInit
CRYP_FIFOFlush
CRYP_Init
CRYP_KeyInit
CRYP_Cmd
CRYP_GetFlagStatus
CRYP_GetCmdStatus
CRYP_DataIn
CRYP_DataOut
CRYP_IVInit
CRYP_PhaseConfig
