   1              		.cpu cortex-m4
   2              		.eabi_attribute 27, 1
   3              		.eabi_attribute 28, 1
   4              		.eabi_attribute 23, 1
   5              		.eabi_attribute 24, 1
   6              		.eabi_attribute 25, 1
   7              		.eabi_attribute 26, 1
   8              		.eabi_attribute 30, 6
   9              		.eabi_attribute 34, 1
  10              		.eabi_attribute 18, 4
  11              		.file	"stm32f4xx_rtc.c"
  12              		.text
  13              	.Ltext0:
  14              		.cfi_sections	.debug_frame
  15              		.section	.text.RTC_DeInit,"ax",%progbits
  16              		.align	1
  17              		.global	RTC_DeInit
  18              		.syntax unified
  19              		.thumb
  20              		.thumb_func
  21              		.fpu fpv4-sp-d16
  23              	RTC_DeInit:
  24              	.LFB123:
  25              		.file 1 "/home/rdu/Workspace/project_templates/mcu/stm32_ws/src/libraries/STM32F4xx_StdPeriph_Driv
   1:/home/rdu/Workspace/project_templates/mcu/stm32_ws/src/libraries/STM32F4xx_StdPeriph_Driver/src/stm32f4xx_rtc.c **** /**
   2:/home/rdu/Workspace/project_templates/mcu/stm32_ws/src/libraries/STM32F4xx_StdPeriph_Driver/src/stm32f4xx_rtc.c ****   ******************************************************************************
   3:/home/rdu/Workspace/project_templates/mcu/stm32_ws/src/libraries/STM32F4xx_StdPeriph_Driver/src/stm32f4xx_rtc.c ****   * @file    stm32f4xx_rtc.c
   4:/home/rdu/Workspace/project_templates/mcu/stm32_ws/src/libraries/STM32F4xx_StdPeriph_Driver/src/stm32f4xx_rtc.c ****   * @author  MCD Application Team
   5:/home/rdu/Workspace/project_templates/mcu/stm32_ws/src/libraries/STM32F4xx_StdPeriph_Driver/src/stm32f4xx_rtc.c ****   * @version V1.8.0
   6:/home/rdu/Workspace/project_templates/mcu/stm32_ws/src/libraries/STM32F4xx_StdPeriph_Driver/src/stm32f4xx_rtc.c ****   * @date    04-November-2016
   7:/home/rdu/Workspace/project_templates/mcu/stm32_ws/src/libraries/STM32F4xx_StdPeriph_Driver/src/stm32f4xx_rtc.c ****   * @brief   This file provides firmware functions to manage the following 
   8:/home/rdu/Workspace/project_templates/mcu/stm32_ws/src/libraries/STM32F4xx_StdPeriph_Driver/src/stm32f4xx_rtc.c ****   *          functionalities of the Real-Time Clock (RTC) peripheral:
   9:/home/rdu/Workspace/project_templates/mcu/stm32_ws/src/libraries/STM32F4xx_StdPeriph_Driver/src/stm32f4xx_rtc.c ****   *           + Initialization
  10:/home/rdu/Workspace/project_templates/mcu/stm32_ws/src/libraries/STM32F4xx_StdPeriph_Driver/src/stm32f4xx_rtc.c ****   *           + Calendar (Time and Date) configuration
  11:/home/rdu/Workspace/project_templates/mcu/stm32_ws/src/libraries/STM32F4xx_StdPeriph_Driver/src/stm32f4xx_rtc.c ****   *           + Alarms (Alarm A and Alarm B) configuration
  12:/home/rdu/Workspace/project_templates/mcu/stm32_ws/src/libraries/STM32F4xx_StdPeriph_Driver/src/stm32f4xx_rtc.c ****   *           + WakeUp Timer configuration
  13:/home/rdu/Workspace/project_templates/mcu/stm32_ws/src/libraries/STM32F4xx_StdPeriph_Driver/src/stm32f4xx_rtc.c ****   *           + Daylight Saving configuration
  14:/home/rdu/Workspace/project_templates/mcu/stm32_ws/src/libraries/STM32F4xx_StdPeriph_Driver/src/stm32f4xx_rtc.c ****   *           + Output pin Configuration
  15:/home/rdu/Workspace/project_templates/mcu/stm32_ws/src/libraries/STM32F4xx_StdPeriph_Driver/src/stm32f4xx_rtc.c ****   *           + Coarse digital Calibration configuration
  16:/home/rdu/Workspace/project_templates/mcu/stm32_ws/src/libraries/STM32F4xx_StdPeriph_Driver/src/stm32f4xx_rtc.c ****   *           + Smooth digital Calibration configuration
  17:/home/rdu/Workspace/project_templates/mcu/stm32_ws/src/libraries/STM32F4xx_StdPeriph_Driver/src/stm32f4xx_rtc.c ****   *           + TimeStamp configuration
  18:/home/rdu/Workspace/project_templates/mcu/stm32_ws/src/libraries/STM32F4xx_StdPeriph_Driver/src/stm32f4xx_rtc.c ****   *           + Tampers configuration
  19:/home/rdu/Workspace/project_templates/mcu/stm32_ws/src/libraries/STM32F4xx_StdPeriph_Driver/src/stm32f4xx_rtc.c ****   *           + Backup Data Registers configuration
  20:/home/rdu/Workspace/project_templates/mcu/stm32_ws/src/libraries/STM32F4xx_StdPeriph_Driver/src/stm32f4xx_rtc.c ****   *           + Shift control synchronisation    
  21:/home/rdu/Workspace/project_templates/mcu/stm32_ws/src/libraries/STM32F4xx_StdPeriph_Driver/src/stm32f4xx_rtc.c ****   *           + RTC Tamper and TimeStamp Pins Selection and Output Type Config configuration
  22:/home/rdu/Workspace/project_templates/mcu/stm32_ws/src/libraries/STM32F4xx_StdPeriph_Driver/src/stm32f4xx_rtc.c ****   *           + Interrupts and flags management
  23:/home/rdu/Workspace/project_templates/mcu/stm32_ws/src/libraries/STM32F4xx_StdPeriph_Driver/src/stm32f4xx_rtc.c ****   *
  24:/home/rdu/Workspace/project_templates/mcu/stm32_ws/src/libraries/STM32F4xx_StdPeriph_Driver/src/stm32f4xx_rtc.c **** @verbatim
  25:/home/rdu/Workspace/project_templates/mcu/stm32_ws/src/libraries/STM32F4xx_StdPeriph_Driver/src/stm32f4xx_rtc.c **** 
  26:/home/rdu/Workspace/project_templates/mcu/stm32_ws/src/libraries/STM32F4xx_StdPeriph_Driver/src/stm32f4xx_rtc.c ****  ===================================================================
  27:/home/rdu/Workspace/project_templates/mcu/stm32_ws/src/libraries/STM32F4xx_StdPeriph_Driver/src/stm32f4xx_rtc.c ****               ##### Backup Domain Operating Condition #####
  28:/home/rdu/Workspace/project_templates/mcu/stm32_ws/src/libraries/STM32F4xx_StdPeriph_Driver/src/stm32f4xx_rtc.c ****  ===================================================================
  29:/home/rdu/Workspace/project_templates/mcu/stm32_ws/src/libraries/STM32F4xx_StdPeriph_Driver/src/stm32f4xx_rtc.c ****  [..] The real-time clock (RTC), the RTC backup registers, and the backup 
  30:/home/rdu/Workspace/project_templates/mcu/stm32_ws/src/libraries/STM32F4xx_StdPeriph_Driver/src/stm32f4xx_rtc.c ****       SRAM (BKP SRAM) can be powered from the VBAT voltage when the main 
  31:/home/rdu/Workspace/project_templates/mcu/stm32_ws/src/libraries/STM32F4xx_StdPeriph_Driver/src/stm32f4xx_rtc.c ****       VDD supply is powered off.
  32:/home/rdu/Workspace/project_templates/mcu/stm32_ws/src/libraries/STM32F4xx_StdPeriph_Driver/src/stm32f4xx_rtc.c ****       To retain the content of the RTC backup registers, backup SRAM, and supply 
  33:/home/rdu/Workspace/project_templates/mcu/stm32_ws/src/libraries/STM32F4xx_StdPeriph_Driver/src/stm32f4xx_rtc.c ****       the RTC when VDD is turned off, VBAT pin can be connected to an optional 
  34:/home/rdu/Workspace/project_templates/mcu/stm32_ws/src/libraries/STM32F4xx_StdPeriph_Driver/src/stm32f4xx_rtc.c ****       standby voltage supplied by a battery or by another source.
  35:/home/rdu/Workspace/project_templates/mcu/stm32_ws/src/libraries/STM32F4xx_StdPeriph_Driver/src/stm32f4xx_rtc.c **** 
  36:/home/rdu/Workspace/project_templates/mcu/stm32_ws/src/libraries/STM32F4xx_StdPeriph_Driver/src/stm32f4xx_rtc.c ****  [..] To allow the RTC to operate even when the main digital supply (VDD) is turned
  37:/home/rdu/Workspace/project_templates/mcu/stm32_ws/src/libraries/STM32F4xx_StdPeriph_Driver/src/stm32f4xx_rtc.c ****       off, the VBAT pin powers the following blocks:
  38:/home/rdu/Workspace/project_templates/mcu/stm32_ws/src/libraries/STM32F4xx_StdPeriph_Driver/src/stm32f4xx_rtc.c ****    (#) The RTC
  39:/home/rdu/Workspace/project_templates/mcu/stm32_ws/src/libraries/STM32F4xx_StdPeriph_Driver/src/stm32f4xx_rtc.c ****    (#) The LSE oscillator
  40:/home/rdu/Workspace/project_templates/mcu/stm32_ws/src/libraries/STM32F4xx_StdPeriph_Driver/src/stm32f4xx_rtc.c ****    (#) The backup SRAM when the low power backup regulator is enabled
  41:/home/rdu/Workspace/project_templates/mcu/stm32_ws/src/libraries/STM32F4xx_StdPeriph_Driver/src/stm32f4xx_rtc.c ****    (#) PC13 to PC15 I/Os, plus PI8 I/O (when available)
  42:/home/rdu/Workspace/project_templates/mcu/stm32_ws/src/libraries/STM32F4xx_StdPeriph_Driver/src/stm32f4xx_rtc.c ****   
  43:/home/rdu/Workspace/project_templates/mcu/stm32_ws/src/libraries/STM32F4xx_StdPeriph_Driver/src/stm32f4xx_rtc.c ****  [..] When the backup domain is supplied by VDD (analog switch connected to VDD),
  44:/home/rdu/Workspace/project_templates/mcu/stm32_ws/src/libraries/STM32F4xx_StdPeriph_Driver/src/stm32f4xx_rtc.c ****       the following functions are available:
  45:/home/rdu/Workspace/project_templates/mcu/stm32_ws/src/libraries/STM32F4xx_StdPeriph_Driver/src/stm32f4xx_rtc.c ****    (#) PC14 and PC15 can be used as either GPIO or LSE pins
  46:/home/rdu/Workspace/project_templates/mcu/stm32_ws/src/libraries/STM32F4xx_StdPeriph_Driver/src/stm32f4xx_rtc.c ****    (#) PC13 can be used as a GPIO or as the RTC_AF1 pin
  47:/home/rdu/Workspace/project_templates/mcu/stm32_ws/src/libraries/STM32F4xx_StdPeriph_Driver/src/stm32f4xx_rtc.c ****    (#) PI8 can be used as a GPIO or as the RTC_AF2 pin
  48:/home/rdu/Workspace/project_templates/mcu/stm32_ws/src/libraries/STM32F4xx_StdPeriph_Driver/src/stm32f4xx_rtc.c ****   
  49:/home/rdu/Workspace/project_templates/mcu/stm32_ws/src/libraries/STM32F4xx_StdPeriph_Driver/src/stm32f4xx_rtc.c ****  [..] When the backup domain is supplied by VBAT (analog switch connected to VBAT 
  50:/home/rdu/Workspace/project_templates/mcu/stm32_ws/src/libraries/STM32F4xx_StdPeriph_Driver/src/stm32f4xx_rtc.c ****       because VDD is not present), the following functions are available:
  51:/home/rdu/Workspace/project_templates/mcu/stm32_ws/src/libraries/STM32F4xx_StdPeriph_Driver/src/stm32f4xx_rtc.c ****    (#) PC14 and PC15 can be used as LSE pins only
  52:/home/rdu/Workspace/project_templates/mcu/stm32_ws/src/libraries/STM32F4xx_StdPeriph_Driver/src/stm32f4xx_rtc.c ****    (#) PC13 can be used as the RTC_AF1 pin 
  53:/home/rdu/Workspace/project_templates/mcu/stm32_ws/src/libraries/STM32F4xx_StdPeriph_Driver/src/stm32f4xx_rtc.c ****    (#) PI8 can be used as the RTC_AF2 pin
  54:/home/rdu/Workspace/project_templates/mcu/stm32_ws/src/libraries/STM32F4xx_StdPeriph_Driver/src/stm32f4xx_rtc.c ****   
  55:/home/rdu/Workspace/project_templates/mcu/stm32_ws/src/libraries/STM32F4xx_StdPeriph_Driver/src/stm32f4xx_rtc.c ****             
  56:/home/rdu/Workspace/project_templates/mcu/stm32_ws/src/libraries/STM32F4xx_StdPeriph_Driver/src/stm32f4xx_rtc.c ****                    ##### Backup Domain Reset #####
  57:/home/rdu/Workspace/project_templates/mcu/stm32_ws/src/libraries/STM32F4xx_StdPeriph_Driver/src/stm32f4xx_rtc.c ****  ===================================================================
  58:/home/rdu/Workspace/project_templates/mcu/stm32_ws/src/libraries/STM32F4xx_StdPeriph_Driver/src/stm32f4xx_rtc.c ****  [..] The backup domain reset sets all RTC registers and the RCC_BDCR register 
  59:/home/rdu/Workspace/project_templates/mcu/stm32_ws/src/libraries/STM32F4xx_StdPeriph_Driver/src/stm32f4xx_rtc.c ****       to their reset values. The BKPSRAM is not affected by this reset. The only
  60:/home/rdu/Workspace/project_templates/mcu/stm32_ws/src/libraries/STM32F4xx_StdPeriph_Driver/src/stm32f4xx_rtc.c ****       way of resetting the BKPSRAM is through the Flash interface by requesting 
  61:/home/rdu/Workspace/project_templates/mcu/stm32_ws/src/libraries/STM32F4xx_StdPeriph_Driver/src/stm32f4xx_rtc.c ****       a protection level change from 1 to 0.
  62:/home/rdu/Workspace/project_templates/mcu/stm32_ws/src/libraries/STM32F4xx_StdPeriph_Driver/src/stm32f4xx_rtc.c ****  [..] A backup domain reset is generated when one of the following events occurs:
  63:/home/rdu/Workspace/project_templates/mcu/stm32_ws/src/libraries/STM32F4xx_StdPeriph_Driver/src/stm32f4xx_rtc.c ****    (#) Software reset, triggered by setting the BDRST bit in the 
  64:/home/rdu/Workspace/project_templates/mcu/stm32_ws/src/libraries/STM32F4xx_StdPeriph_Driver/src/stm32f4xx_rtc.c ****        RCC Backup domain control register (RCC_BDCR). You can use the
  65:/home/rdu/Workspace/project_templates/mcu/stm32_ws/src/libraries/STM32F4xx_StdPeriph_Driver/src/stm32f4xx_rtc.c ****        RCC_BackupResetCmd().
  66:/home/rdu/Workspace/project_templates/mcu/stm32_ws/src/libraries/STM32F4xx_StdPeriph_Driver/src/stm32f4xx_rtc.c ****    (#) VDD or VBAT power on, if both supplies have previously been powered off.
  67:/home/rdu/Workspace/project_templates/mcu/stm32_ws/src/libraries/STM32F4xx_StdPeriph_Driver/src/stm32f4xx_rtc.c ****   
  68:/home/rdu/Workspace/project_templates/mcu/stm32_ws/src/libraries/STM32F4xx_StdPeriph_Driver/src/stm32f4xx_rtc.c **** 
  69:/home/rdu/Workspace/project_templates/mcu/stm32_ws/src/libraries/STM32F4xx_StdPeriph_Driver/src/stm32f4xx_rtc.c ****                    ##### Backup Domain Access #####
  70:/home/rdu/Workspace/project_templates/mcu/stm32_ws/src/libraries/STM32F4xx_StdPeriph_Driver/src/stm32f4xx_rtc.c ****  ===================================================================
  71:/home/rdu/Workspace/project_templates/mcu/stm32_ws/src/libraries/STM32F4xx_StdPeriph_Driver/src/stm32f4xx_rtc.c ****  [..] After reset, the backup domain (RTC registers, RTC backup data 
  72:/home/rdu/Workspace/project_templates/mcu/stm32_ws/src/libraries/STM32F4xx_StdPeriph_Driver/src/stm32f4xx_rtc.c ****       registers and backup SRAM) is protected against possible unwanted write 
  73:/home/rdu/Workspace/project_templates/mcu/stm32_ws/src/libraries/STM32F4xx_StdPeriph_Driver/src/stm32f4xx_rtc.c ****       accesses. 
  74:/home/rdu/Workspace/project_templates/mcu/stm32_ws/src/libraries/STM32F4xx_StdPeriph_Driver/src/stm32f4xx_rtc.c ****  [..] To enable access to the RTC Domain and RTC registers, proceed as follows:
  75:/home/rdu/Workspace/project_templates/mcu/stm32_ws/src/libraries/STM32F4xx_StdPeriph_Driver/src/stm32f4xx_rtc.c ****    (+) Enable the Power Controller (PWR) APB1 interface clock using the
  76:/home/rdu/Workspace/project_templates/mcu/stm32_ws/src/libraries/STM32F4xx_StdPeriph_Driver/src/stm32f4xx_rtc.c ****        RCC_APB1PeriphClockCmd() function.
  77:/home/rdu/Workspace/project_templates/mcu/stm32_ws/src/libraries/STM32F4xx_StdPeriph_Driver/src/stm32f4xx_rtc.c ****    (+) Enable access to RTC domain using the PWR_BackupAccessCmd() function.
  78:/home/rdu/Workspace/project_templates/mcu/stm32_ws/src/libraries/STM32F4xx_StdPeriph_Driver/src/stm32f4xx_rtc.c ****    (+) Select the RTC clock source using the RCC_RTCCLKConfig() function.
  79:/home/rdu/Workspace/project_templates/mcu/stm32_ws/src/libraries/STM32F4xx_StdPeriph_Driver/src/stm32f4xx_rtc.c ****    (+) Enable RTC Clock using the RCC_RTCCLKCmd() function.
  80:/home/rdu/Workspace/project_templates/mcu/stm32_ws/src/libraries/STM32F4xx_StdPeriph_Driver/src/stm32f4xx_rtc.c ****   
  81:/home/rdu/Workspace/project_templates/mcu/stm32_ws/src/libraries/STM32F4xx_StdPeriph_Driver/src/stm32f4xx_rtc.c ****   
  82:/home/rdu/Workspace/project_templates/mcu/stm32_ws/src/libraries/STM32F4xx_StdPeriph_Driver/src/stm32f4xx_rtc.c ****                   ##### How to use RTC Driver #####
  83:/home/rdu/Workspace/project_templates/mcu/stm32_ws/src/libraries/STM32F4xx_StdPeriph_Driver/src/stm32f4xx_rtc.c ****  ===================================================================
  84:/home/rdu/Workspace/project_templates/mcu/stm32_ws/src/libraries/STM32F4xx_StdPeriph_Driver/src/stm32f4xx_rtc.c ****  [..] 
  85:/home/rdu/Workspace/project_templates/mcu/stm32_ws/src/libraries/STM32F4xx_StdPeriph_Driver/src/stm32f4xx_rtc.c ****    (+) Enable the RTC domain access (see description in the section above)
  86:/home/rdu/Workspace/project_templates/mcu/stm32_ws/src/libraries/STM32F4xx_StdPeriph_Driver/src/stm32f4xx_rtc.c ****    (+) Configure the RTC Prescaler (Asynchronous and Synchronous) and RTC hour 
  87:/home/rdu/Workspace/project_templates/mcu/stm32_ws/src/libraries/STM32F4xx_StdPeriph_Driver/src/stm32f4xx_rtc.c ****        format using the RTC_Init() function.
  88:/home/rdu/Workspace/project_templates/mcu/stm32_ws/src/libraries/STM32F4xx_StdPeriph_Driver/src/stm32f4xx_rtc.c ****   
  89:/home/rdu/Workspace/project_templates/mcu/stm32_ws/src/libraries/STM32F4xx_StdPeriph_Driver/src/stm32f4xx_rtc.c ****  *** Time and Date configuration ***
  90:/home/rdu/Workspace/project_templates/mcu/stm32_ws/src/libraries/STM32F4xx_StdPeriph_Driver/src/stm32f4xx_rtc.c ****  ===================================
  91:/home/rdu/Workspace/project_templates/mcu/stm32_ws/src/libraries/STM32F4xx_StdPeriph_Driver/src/stm32f4xx_rtc.c ****  [..] 
  92:/home/rdu/Workspace/project_templates/mcu/stm32_ws/src/libraries/STM32F4xx_StdPeriph_Driver/src/stm32f4xx_rtc.c ****    (+) To configure the RTC Calendar (Time and Date) use the RTC_SetTime()
  93:/home/rdu/Workspace/project_templates/mcu/stm32_ws/src/libraries/STM32F4xx_StdPeriph_Driver/src/stm32f4xx_rtc.c ****        and RTC_SetDate() functions.
  94:/home/rdu/Workspace/project_templates/mcu/stm32_ws/src/libraries/STM32F4xx_StdPeriph_Driver/src/stm32f4xx_rtc.c ****    (+) To read the RTC Calendar, use the RTC_GetTime() and RTC_GetDate() functions.
  95:/home/rdu/Workspace/project_templates/mcu/stm32_ws/src/libraries/STM32F4xx_StdPeriph_Driver/src/stm32f4xx_rtc.c ****    (+) Use the RTC_DayLightSavingConfig() function to add or sub one
  96:/home/rdu/Workspace/project_templates/mcu/stm32_ws/src/libraries/STM32F4xx_StdPeriph_Driver/src/stm32f4xx_rtc.c ****        hour to the RTC Calendar.    
  97:/home/rdu/Workspace/project_templates/mcu/stm32_ws/src/libraries/STM32F4xx_StdPeriph_Driver/src/stm32f4xx_rtc.c ****   
  98:/home/rdu/Workspace/project_templates/mcu/stm32_ws/src/libraries/STM32F4xx_StdPeriph_Driver/src/stm32f4xx_rtc.c ****  *** Alarm configuration ***
  99:/home/rdu/Workspace/project_templates/mcu/stm32_ws/src/libraries/STM32F4xx_StdPeriph_Driver/src/stm32f4xx_rtc.c ****  ===========================
 100:/home/rdu/Workspace/project_templates/mcu/stm32_ws/src/libraries/STM32F4xx_StdPeriph_Driver/src/stm32f4xx_rtc.c ****  [..]
 101:/home/rdu/Workspace/project_templates/mcu/stm32_ws/src/libraries/STM32F4xx_StdPeriph_Driver/src/stm32f4xx_rtc.c ****    (+) To configure the RTC Alarm use the RTC_SetAlarm() function.
 102:/home/rdu/Workspace/project_templates/mcu/stm32_ws/src/libraries/STM32F4xx_StdPeriph_Driver/src/stm32f4xx_rtc.c ****    (+) Enable the selected RTC Alarm using the RTC_AlarmCmd() function
 103:/home/rdu/Workspace/project_templates/mcu/stm32_ws/src/libraries/STM32F4xx_StdPeriph_Driver/src/stm32f4xx_rtc.c ****    (+) To read the RTC Alarm, use the RTC_GetAlarm() function.
 104:/home/rdu/Workspace/project_templates/mcu/stm32_ws/src/libraries/STM32F4xx_StdPeriph_Driver/src/stm32f4xx_rtc.c ****    (+) To read the RTC alarm SubSecond, use the RTC_GetAlarmSubSecond() function.
 105:/home/rdu/Workspace/project_templates/mcu/stm32_ws/src/libraries/STM32F4xx_StdPeriph_Driver/src/stm32f4xx_rtc.c ****   
 106:/home/rdu/Workspace/project_templates/mcu/stm32_ws/src/libraries/STM32F4xx_StdPeriph_Driver/src/stm32f4xx_rtc.c ****  *** RTC Wakeup configuration ***
 107:/home/rdu/Workspace/project_templates/mcu/stm32_ws/src/libraries/STM32F4xx_StdPeriph_Driver/src/stm32f4xx_rtc.c ****  ================================
 108:/home/rdu/Workspace/project_templates/mcu/stm32_ws/src/libraries/STM32F4xx_StdPeriph_Driver/src/stm32f4xx_rtc.c ****  [..] 
 109:/home/rdu/Workspace/project_templates/mcu/stm32_ws/src/libraries/STM32F4xx_StdPeriph_Driver/src/stm32f4xx_rtc.c ****    (+) Configure the RTC Wakeup Clock source use the RTC_WakeUpClockConfig()
 110:/home/rdu/Workspace/project_templates/mcu/stm32_ws/src/libraries/STM32F4xx_StdPeriph_Driver/src/stm32f4xx_rtc.c ****        function.
 111:/home/rdu/Workspace/project_templates/mcu/stm32_ws/src/libraries/STM32F4xx_StdPeriph_Driver/src/stm32f4xx_rtc.c ****    (+) Configure the RTC WakeUp Counter using the RTC_SetWakeUpCounter() function  
 112:/home/rdu/Workspace/project_templates/mcu/stm32_ws/src/libraries/STM32F4xx_StdPeriph_Driver/src/stm32f4xx_rtc.c ****    (+) Enable the RTC WakeUp using the RTC_WakeUpCmd() function  
 113:/home/rdu/Workspace/project_templates/mcu/stm32_ws/src/libraries/STM32F4xx_StdPeriph_Driver/src/stm32f4xx_rtc.c ****    (+) To read the RTC WakeUp Counter register, use the RTC_GetWakeUpCounter() 
 114:/home/rdu/Workspace/project_templates/mcu/stm32_ws/src/libraries/STM32F4xx_StdPeriph_Driver/src/stm32f4xx_rtc.c ****        function.
 115:/home/rdu/Workspace/project_templates/mcu/stm32_ws/src/libraries/STM32F4xx_StdPeriph_Driver/src/stm32f4xx_rtc.c ****   
 116:/home/rdu/Workspace/project_templates/mcu/stm32_ws/src/libraries/STM32F4xx_StdPeriph_Driver/src/stm32f4xx_rtc.c ****  *** Outputs configuration ***
 117:/home/rdu/Workspace/project_templates/mcu/stm32_ws/src/libraries/STM32F4xx_StdPeriph_Driver/src/stm32f4xx_rtc.c ****  =============================
 118:/home/rdu/Workspace/project_templates/mcu/stm32_ws/src/libraries/STM32F4xx_StdPeriph_Driver/src/stm32f4xx_rtc.c ****  [..] The RTC has 2 different outputs:
 119:/home/rdu/Workspace/project_templates/mcu/stm32_ws/src/libraries/STM32F4xx_StdPeriph_Driver/src/stm32f4xx_rtc.c ****    (+) AFO_ALARM: this output is used to manage the RTC Alarm A, Alarm B
 120:/home/rdu/Workspace/project_templates/mcu/stm32_ws/src/libraries/STM32F4xx_StdPeriph_Driver/src/stm32f4xx_rtc.c ****        and WaKeUp signals. To output the selected RTC signal on RTC_AF1 pin, use the 
 121:/home/rdu/Workspace/project_templates/mcu/stm32_ws/src/libraries/STM32F4xx_StdPeriph_Driver/src/stm32f4xx_rtc.c ****        RTC_OutputConfig() function.                
 122:/home/rdu/Workspace/project_templates/mcu/stm32_ws/src/libraries/STM32F4xx_StdPeriph_Driver/src/stm32f4xx_rtc.c ****    (+) AFO_CALIB: this output is 512Hz signal or 1Hz. To output the RTC Clock on 
 123:/home/rdu/Workspace/project_templates/mcu/stm32_ws/src/libraries/STM32F4xx_StdPeriph_Driver/src/stm32f4xx_rtc.c ****        RTC_AF1 pin, use the RTC_CalibOutputCmd() function.
 124:/home/rdu/Workspace/project_templates/mcu/stm32_ws/src/libraries/STM32F4xx_StdPeriph_Driver/src/stm32f4xx_rtc.c ****   
 125:/home/rdu/Workspace/project_templates/mcu/stm32_ws/src/libraries/STM32F4xx_StdPeriph_Driver/src/stm32f4xx_rtc.c ****  *** Smooth digital Calibration configuration ***
 126:/home/rdu/Workspace/project_templates/mcu/stm32_ws/src/libraries/STM32F4xx_StdPeriph_Driver/src/stm32f4xx_rtc.c ****  ================================================    
 127:/home/rdu/Workspace/project_templates/mcu/stm32_ws/src/libraries/STM32F4xx_StdPeriph_Driver/src/stm32f4xx_rtc.c ****  [..]
 128:/home/rdu/Workspace/project_templates/mcu/stm32_ws/src/libraries/STM32F4xx_StdPeriph_Driver/src/stm32f4xx_rtc.c ****    (+) Configure the RTC Original Digital Calibration Value and the corresponding
 129:/home/rdu/Workspace/project_templates/mcu/stm32_ws/src/libraries/STM32F4xx_StdPeriph_Driver/src/stm32f4xx_rtc.c ****        calibration cycle period (32s,16s and 8s) using the RTC_SmoothCalibConfig() 
 130:/home/rdu/Workspace/project_templates/mcu/stm32_ws/src/libraries/STM32F4xx_StdPeriph_Driver/src/stm32f4xx_rtc.c ****        function.
 131:/home/rdu/Workspace/project_templates/mcu/stm32_ws/src/libraries/STM32F4xx_StdPeriph_Driver/src/stm32f4xx_rtc.c ****   
 132:/home/rdu/Workspace/project_templates/mcu/stm32_ws/src/libraries/STM32F4xx_StdPeriph_Driver/src/stm32f4xx_rtc.c ****  *** Coarse digital Calibration configuration ***
 133:/home/rdu/Workspace/project_templates/mcu/stm32_ws/src/libraries/STM32F4xx_StdPeriph_Driver/src/stm32f4xx_rtc.c ****  ================================================
 134:/home/rdu/Workspace/project_templates/mcu/stm32_ws/src/libraries/STM32F4xx_StdPeriph_Driver/src/stm32f4xx_rtc.c ****  [..]
 135:/home/rdu/Workspace/project_templates/mcu/stm32_ws/src/libraries/STM32F4xx_StdPeriph_Driver/src/stm32f4xx_rtc.c ****    (+) Configure the RTC Coarse Calibration Value and the corresponding
 136:/home/rdu/Workspace/project_templates/mcu/stm32_ws/src/libraries/STM32F4xx_StdPeriph_Driver/src/stm32f4xx_rtc.c ****        sign using the RTC_CoarseCalibConfig() function.
 137:/home/rdu/Workspace/project_templates/mcu/stm32_ws/src/libraries/STM32F4xx_StdPeriph_Driver/src/stm32f4xx_rtc.c ****    (+) Enable the RTC Coarse Calibration using the RTC_CoarseCalibCmd() function  
 138:/home/rdu/Workspace/project_templates/mcu/stm32_ws/src/libraries/STM32F4xx_StdPeriph_Driver/src/stm32f4xx_rtc.c ****   
 139:/home/rdu/Workspace/project_templates/mcu/stm32_ws/src/libraries/STM32F4xx_StdPeriph_Driver/src/stm32f4xx_rtc.c ****  *** TimeStamp configuration ***
 140:/home/rdu/Workspace/project_templates/mcu/stm32_ws/src/libraries/STM32F4xx_StdPeriph_Driver/src/stm32f4xx_rtc.c ****  ===============================
 141:/home/rdu/Workspace/project_templates/mcu/stm32_ws/src/libraries/STM32F4xx_StdPeriph_Driver/src/stm32f4xx_rtc.c ****  [..]
 142:/home/rdu/Workspace/project_templates/mcu/stm32_ws/src/libraries/STM32F4xx_StdPeriph_Driver/src/stm32f4xx_rtc.c ****    (+) Configure the RTC_AF1 trigger and enables the RTC TimeStamp using the RTC
 143:/home/rdu/Workspace/project_templates/mcu/stm32_ws/src/libraries/STM32F4xx_StdPeriph_Driver/src/stm32f4xx_rtc.c ****       _TimeStampCmd() function.
 144:/home/rdu/Workspace/project_templates/mcu/stm32_ws/src/libraries/STM32F4xx_StdPeriph_Driver/src/stm32f4xx_rtc.c ****    (+) To read the RTC TimeStamp Time and Date register, use the RTC_GetTimeStamp()
 145:/home/rdu/Workspace/project_templates/mcu/stm32_ws/src/libraries/STM32F4xx_StdPeriph_Driver/src/stm32f4xx_rtc.c ****        function.
 146:/home/rdu/Workspace/project_templates/mcu/stm32_ws/src/libraries/STM32F4xx_StdPeriph_Driver/src/stm32f4xx_rtc.c ****    (+) To read the RTC TimeStamp SubSecond register, use the 
 147:/home/rdu/Workspace/project_templates/mcu/stm32_ws/src/libraries/STM32F4xx_StdPeriph_Driver/src/stm32f4xx_rtc.c ****        RTC_GetTimeStampSubSecond() function.
 148:/home/rdu/Workspace/project_templates/mcu/stm32_ws/src/libraries/STM32F4xx_StdPeriph_Driver/src/stm32f4xx_rtc.c ****    (+) The TAMPER1 alternate function can be mapped either to RTC_AF1(PC13)
 149:/home/rdu/Workspace/project_templates/mcu/stm32_ws/src/libraries/STM32F4xx_StdPeriph_Driver/src/stm32f4xx_rtc.c ****        or RTC_AF2 (PI8) depending on the value of TAMP1INSEL bit in 
 150:/home/rdu/Workspace/project_templates/mcu/stm32_ws/src/libraries/STM32F4xx_StdPeriph_Driver/src/stm32f4xx_rtc.c ****        RTC_TAFCR register. You can use the  RTC_TamperPinSelection() function to
 151:/home/rdu/Workspace/project_templates/mcu/stm32_ws/src/libraries/STM32F4xx_StdPeriph_Driver/src/stm32f4xx_rtc.c ****        select the corresponding pin.     
 152:/home/rdu/Workspace/project_templates/mcu/stm32_ws/src/libraries/STM32F4xx_StdPeriph_Driver/src/stm32f4xx_rtc.c ****   
 153:/home/rdu/Workspace/project_templates/mcu/stm32_ws/src/libraries/STM32F4xx_StdPeriph_Driver/src/stm32f4xx_rtc.c ****  *** Tamper configuration ***
 154:/home/rdu/Workspace/project_templates/mcu/stm32_ws/src/libraries/STM32F4xx_StdPeriph_Driver/src/stm32f4xx_rtc.c ****  ============================
 155:/home/rdu/Workspace/project_templates/mcu/stm32_ws/src/libraries/STM32F4xx_StdPeriph_Driver/src/stm32f4xx_rtc.c ****  [..]
 156:/home/rdu/Workspace/project_templates/mcu/stm32_ws/src/libraries/STM32F4xx_StdPeriph_Driver/src/stm32f4xx_rtc.c ****    (+) Enable the RTC Tamper using the RTC_TamperCmd() function.
 157:/home/rdu/Workspace/project_templates/mcu/stm32_ws/src/libraries/STM32F4xx_StdPeriph_Driver/src/stm32f4xx_rtc.c ****    (+) Configure the Tamper filter count using RTC_TamperFilterConfig()
 158:/home/rdu/Workspace/project_templates/mcu/stm32_ws/src/libraries/STM32F4xx_StdPeriph_Driver/src/stm32f4xx_rtc.c ****        function. 
 159:/home/rdu/Workspace/project_templates/mcu/stm32_ws/src/libraries/STM32F4xx_StdPeriph_Driver/src/stm32f4xx_rtc.c ****    (+) Configure the RTC Tamper trigger Edge or Level according to the Tamper 
 160:/home/rdu/Workspace/project_templates/mcu/stm32_ws/src/libraries/STM32F4xx_StdPeriph_Driver/src/stm32f4xx_rtc.c ****        filter (if equal to 0 Edge else Level) value using the RTC_TamperConfig() 
 161:/home/rdu/Workspace/project_templates/mcu/stm32_ws/src/libraries/STM32F4xx_StdPeriph_Driver/src/stm32f4xx_rtc.c ****        function.
 162:/home/rdu/Workspace/project_templates/mcu/stm32_ws/src/libraries/STM32F4xx_StdPeriph_Driver/src/stm32f4xx_rtc.c ****    (+) Configure the Tamper sampling frequency using RTC_TamperSamplingFreqConfig()
 163:/home/rdu/Workspace/project_templates/mcu/stm32_ws/src/libraries/STM32F4xx_StdPeriph_Driver/src/stm32f4xx_rtc.c ****        function.
 164:/home/rdu/Workspace/project_templates/mcu/stm32_ws/src/libraries/STM32F4xx_StdPeriph_Driver/src/stm32f4xx_rtc.c ****    (+) Configure the Tamper precharge or discharge duration using 
 165:/home/rdu/Workspace/project_templates/mcu/stm32_ws/src/libraries/STM32F4xx_StdPeriph_Driver/src/stm32f4xx_rtc.c ****        RTC_TamperPinsPrechargeDuration() function.
 166:/home/rdu/Workspace/project_templates/mcu/stm32_ws/src/libraries/STM32F4xx_StdPeriph_Driver/src/stm32f4xx_rtc.c ****    (+) Enable the Tamper Pull-UP using RTC_TamperPullUpDisableCmd() function.
 167:/home/rdu/Workspace/project_templates/mcu/stm32_ws/src/libraries/STM32F4xx_StdPeriph_Driver/src/stm32f4xx_rtc.c ****    (+) Enable the Time stamp on Tamper detection event using  
 168:/home/rdu/Workspace/project_templates/mcu/stm32_ws/src/libraries/STM32F4xx_StdPeriph_Driver/src/stm32f4xx_rtc.c ****        TC_TSOnTamperDetecCmd() function.
 169:/home/rdu/Workspace/project_templates/mcu/stm32_ws/src/libraries/STM32F4xx_StdPeriph_Driver/src/stm32f4xx_rtc.c ****    (+) The TIMESTAMP alternate function can be mapped to either RTC_AF1 
 170:/home/rdu/Workspace/project_templates/mcu/stm32_ws/src/libraries/STM32F4xx_StdPeriph_Driver/src/stm32f4xx_rtc.c ****        or RTC_AF2 depending on the value of the TSINSEL bit in the RTC_TAFCR 
 171:/home/rdu/Workspace/project_templates/mcu/stm32_ws/src/libraries/STM32F4xx_StdPeriph_Driver/src/stm32f4xx_rtc.c ****        register. You can use the  RTC_TimeStampPinSelection() function to select 
 172:/home/rdu/Workspace/project_templates/mcu/stm32_ws/src/libraries/STM32F4xx_StdPeriph_Driver/src/stm32f4xx_rtc.c ****        the corresponding pin. 
 173:/home/rdu/Workspace/project_templates/mcu/stm32_ws/src/libraries/STM32F4xx_StdPeriph_Driver/src/stm32f4xx_rtc.c ****   
 174:/home/rdu/Workspace/project_templates/mcu/stm32_ws/src/libraries/STM32F4xx_StdPeriph_Driver/src/stm32f4xx_rtc.c ****  *** Backup Data Registers configuration ***
 175:/home/rdu/Workspace/project_templates/mcu/stm32_ws/src/libraries/STM32F4xx_StdPeriph_Driver/src/stm32f4xx_rtc.c ****  ===========================================
 176:/home/rdu/Workspace/project_templates/mcu/stm32_ws/src/libraries/STM32F4xx_StdPeriph_Driver/src/stm32f4xx_rtc.c ****  [..]
 177:/home/rdu/Workspace/project_templates/mcu/stm32_ws/src/libraries/STM32F4xx_StdPeriph_Driver/src/stm32f4xx_rtc.c ****    (+) To write to the RTC Backup Data registers, use the RTC_WriteBackupRegister()
 178:/home/rdu/Workspace/project_templates/mcu/stm32_ws/src/libraries/STM32F4xx_StdPeriph_Driver/src/stm32f4xx_rtc.c ****        function.  
 179:/home/rdu/Workspace/project_templates/mcu/stm32_ws/src/libraries/STM32F4xx_StdPeriph_Driver/src/stm32f4xx_rtc.c ****    (+) To read the RTC Backup Data registers, use the RTC_ReadBackupRegister()
 180:/home/rdu/Workspace/project_templates/mcu/stm32_ws/src/libraries/STM32F4xx_StdPeriph_Driver/src/stm32f4xx_rtc.c ****        function.
 181:/home/rdu/Workspace/project_templates/mcu/stm32_ws/src/libraries/STM32F4xx_StdPeriph_Driver/src/stm32f4xx_rtc.c ****    
 182:/home/rdu/Workspace/project_templates/mcu/stm32_ws/src/libraries/STM32F4xx_StdPeriph_Driver/src/stm32f4xx_rtc.c **** 
 183:/home/rdu/Workspace/project_templates/mcu/stm32_ws/src/libraries/STM32F4xx_StdPeriph_Driver/src/stm32f4xx_rtc.c ****                   ##### RTC and low power modes #####
 184:/home/rdu/Workspace/project_templates/mcu/stm32_ws/src/libraries/STM32F4xx_StdPeriph_Driver/src/stm32f4xx_rtc.c ****  ===================================================================
 185:/home/rdu/Workspace/project_templates/mcu/stm32_ws/src/libraries/STM32F4xx_StdPeriph_Driver/src/stm32f4xx_rtc.c ****  [..] The MCU can be woken up from a low power mode by an RTC alternate 
 186:/home/rdu/Workspace/project_templates/mcu/stm32_ws/src/libraries/STM32F4xx_StdPeriph_Driver/src/stm32f4xx_rtc.c ****       function.
 187:/home/rdu/Workspace/project_templates/mcu/stm32_ws/src/libraries/STM32F4xx_StdPeriph_Driver/src/stm32f4xx_rtc.c ****  [..] The RTC alternate functions are the RTC alarms (Alarm A and Alarm B), 
 188:/home/rdu/Workspace/project_templates/mcu/stm32_ws/src/libraries/STM32F4xx_StdPeriph_Driver/src/stm32f4xx_rtc.c ****       RTC wakeup, RTC tamper event detection and RTC time stamp event detection.
 189:/home/rdu/Workspace/project_templates/mcu/stm32_ws/src/libraries/STM32F4xx_StdPeriph_Driver/src/stm32f4xx_rtc.c ****       These RTC alternate functions can wake up the system from the Stop and 
 190:/home/rdu/Workspace/project_templates/mcu/stm32_ws/src/libraries/STM32F4xx_StdPeriph_Driver/src/stm32f4xx_rtc.c ****       Standby lowpower modes.
 191:/home/rdu/Workspace/project_templates/mcu/stm32_ws/src/libraries/STM32F4xx_StdPeriph_Driver/src/stm32f4xx_rtc.c ****  [..] The system can also wake up from low power modes without depending 
 192:/home/rdu/Workspace/project_templates/mcu/stm32_ws/src/libraries/STM32F4xx_StdPeriph_Driver/src/stm32f4xx_rtc.c ****       on an external interrupt (Auto-wakeup mode), by using the RTC alarm 
 193:/home/rdu/Workspace/project_templates/mcu/stm32_ws/src/libraries/STM32F4xx_StdPeriph_Driver/src/stm32f4xx_rtc.c ****       or the RTC wakeup events.
 194:/home/rdu/Workspace/project_templates/mcu/stm32_ws/src/libraries/STM32F4xx_StdPeriph_Driver/src/stm32f4xx_rtc.c ****  [..] The RTC provides a programmable time base for waking up from the 
 195:/home/rdu/Workspace/project_templates/mcu/stm32_ws/src/libraries/STM32F4xx_StdPeriph_Driver/src/stm32f4xx_rtc.c ****       Stop or Standby mode at regular intervals.
 196:/home/rdu/Workspace/project_templates/mcu/stm32_ws/src/libraries/STM32F4xx_StdPeriph_Driver/src/stm32f4xx_rtc.c ****       Wakeup from STOP and Standby modes is possible only when the RTC clock source
 197:/home/rdu/Workspace/project_templates/mcu/stm32_ws/src/libraries/STM32F4xx_StdPeriph_Driver/src/stm32f4xx_rtc.c ****       is LSE or LSI.
 198:/home/rdu/Workspace/project_templates/mcu/stm32_ws/src/libraries/STM32F4xx_StdPeriph_Driver/src/stm32f4xx_rtc.c ****   
 199:/home/rdu/Workspace/project_templates/mcu/stm32_ws/src/libraries/STM32F4xx_StdPeriph_Driver/src/stm32f4xx_rtc.c **** 
 200:/home/rdu/Workspace/project_templates/mcu/stm32_ws/src/libraries/STM32F4xx_StdPeriph_Driver/src/stm32f4xx_rtc.c ****           ##### Selection of RTC_AF1 alternate functions #####
 201:/home/rdu/Workspace/project_templates/mcu/stm32_ws/src/libraries/STM32F4xx_StdPeriph_Driver/src/stm32f4xx_rtc.c ****  ===================================================================
 202:/home/rdu/Workspace/project_templates/mcu/stm32_ws/src/libraries/STM32F4xx_StdPeriph_Driver/src/stm32f4xx_rtc.c ****  [..] The RTC_AF1 pin (PC13) can be used for the following purposes:
 203:/home/rdu/Workspace/project_templates/mcu/stm32_ws/src/libraries/STM32F4xx_StdPeriph_Driver/src/stm32f4xx_rtc.c ****    (+) AFO_ALARM output
 204:/home/rdu/Workspace/project_templates/mcu/stm32_ws/src/libraries/STM32F4xx_StdPeriph_Driver/src/stm32f4xx_rtc.c ****    (+) AFO_CALIB output
 205:/home/rdu/Workspace/project_templates/mcu/stm32_ws/src/libraries/STM32F4xx_StdPeriph_Driver/src/stm32f4xx_rtc.c ****    (+) AFI_TAMPER
 206:/home/rdu/Workspace/project_templates/mcu/stm32_ws/src/libraries/STM32F4xx_StdPeriph_Driver/src/stm32f4xx_rtc.c ****    (+) AFI_TIMESTAMP
 207:/home/rdu/Workspace/project_templates/mcu/stm32_ws/src/libraries/STM32F4xx_StdPeriph_Driver/src/stm32f4xx_rtc.c ****  
 208:/home/rdu/Workspace/project_templates/mcu/stm32_ws/src/libraries/STM32F4xx_StdPeriph_Driver/src/stm32f4xx_rtc.c ****  [..]   
 209:/home/rdu/Workspace/project_templates/mcu/stm32_ws/src/libraries/STM32F4xx_StdPeriph_Driver/src/stm32f4xx_rtc.c ****    +-----------------------------------------------------------------------------------------------
 210:/home/rdu/Workspace/project_templates/mcu/stm32_ws/src/libraries/STM32F4xx_StdPeriph_Driver/src/stm32f4xx_rtc.c ****    |     Pin         |AFO_ALARM |AFO_CALIB |AFI_TAMPER |AFI_TIMESTAMP | TAMP1INSEL |   TSINSEL    |
 211:/home/rdu/Workspace/project_templates/mcu/stm32_ws/src/libraries/STM32F4xx_StdPeriph_Driver/src/stm32f4xx_rtc.c ****    |  configuration  | ENABLED  | ENABLED  |  ENABLED  |   ENABLED    |TAMPER1 pin |TIMESTAMP pin |
 212:/home/rdu/Workspace/project_templates/mcu/stm32_ws/src/libraries/STM32F4xx_StdPeriph_Driver/src/stm32f4xx_rtc.c ****    |  and function   |          |          |           |              | selection  |  selection   |
 213:/home/rdu/Workspace/project_templates/mcu/stm32_ws/src/libraries/STM32F4xx_StdPeriph_Driver/src/stm32f4xx_rtc.c ****    |-----------------|----------|----------|-----------|--------------|------------|--------------|
 214:/home/rdu/Workspace/project_templates/mcu/stm32_ws/src/libraries/STM32F4xx_StdPeriph_Driver/src/stm32f4xx_rtc.c ****    |   Alarm out     |          |          |           |              |    Don't   |     Don't    |
 215:/home/rdu/Workspace/project_templates/mcu/stm32_ws/src/libraries/STM32F4xx_StdPeriph_Driver/src/stm32f4xx_rtc.c ****    |   output OD     |     1    |Don't care|Don't care | Don't care   |    care    |     care     |
 216:/home/rdu/Workspace/project_templates/mcu/stm32_ws/src/libraries/STM32F4xx_StdPeriph_Driver/src/stm32f4xx_rtc.c ****    |-----------------|----------|----------|-----------|--------------|------------|--------------|
 217:/home/rdu/Workspace/project_templates/mcu/stm32_ws/src/libraries/STM32F4xx_StdPeriph_Driver/src/stm32f4xx_rtc.c ****    |   Alarm out     |          |          |           |              |    Don't   |     Don't    |
 218:/home/rdu/Workspace/project_templates/mcu/stm32_ws/src/libraries/STM32F4xx_StdPeriph_Driver/src/stm32f4xx_rtc.c ****    |   output PP     |     1    |Don't care|Don't care | Don't care   |    care    |     care     |
 219:/home/rdu/Workspace/project_templates/mcu/stm32_ws/src/libraries/STM32F4xx_StdPeriph_Driver/src/stm32f4xx_rtc.c ****    |-----------------|----------|----------|-----------|--------------|------------|--------------|
 220:/home/rdu/Workspace/project_templates/mcu/stm32_ws/src/libraries/STM32F4xx_StdPeriph_Driver/src/stm32f4xx_rtc.c ****    | Calibration out |          |          |           |              |    Don't   |     Don't    |
 221:/home/rdu/Workspace/project_templates/mcu/stm32_ws/src/libraries/STM32F4xx_StdPeriph_Driver/src/stm32f4xx_rtc.c ****    |   output PP     |     0    |    1     |Don't care | Don't care   |    care    |     care     |
 222:/home/rdu/Workspace/project_templates/mcu/stm32_ws/src/libraries/STM32F4xx_StdPeriph_Driver/src/stm32f4xx_rtc.c ****    |-----------------|----------|----------|-----------|--------------|------------|--------------|
 223:/home/rdu/Workspace/project_templates/mcu/stm32_ws/src/libraries/STM32F4xx_StdPeriph_Driver/src/stm32f4xx_rtc.c ****    |  TAMPER input   |          |          |           |              |            |     Don't    |
 224:/home/rdu/Workspace/project_templates/mcu/stm32_ws/src/libraries/STM32F4xx_StdPeriph_Driver/src/stm32f4xx_rtc.c ****    |   floating      |     0    |    0     |     1     |      0       |      0     |     care     |
 225:/home/rdu/Workspace/project_templates/mcu/stm32_ws/src/libraries/STM32F4xx_StdPeriph_Driver/src/stm32f4xx_rtc.c ****    |-----------------|----------|----------|-----------|--------------|------------|--------------|
 226:/home/rdu/Workspace/project_templates/mcu/stm32_ws/src/libraries/STM32F4xx_StdPeriph_Driver/src/stm32f4xx_rtc.c ****    |  TIMESTAMP and  |          |          |           |              |            |              |
 227:/home/rdu/Workspace/project_templates/mcu/stm32_ws/src/libraries/STM32F4xx_StdPeriph_Driver/src/stm32f4xx_rtc.c ****    |  TAMPER input   |     0    |    0     |     1     |      1       |      0     |      0       |
 228:/home/rdu/Workspace/project_templates/mcu/stm32_ws/src/libraries/STM32F4xx_StdPeriph_Driver/src/stm32f4xx_rtc.c ****    |   floating      |          |          |           |              |            |              |
 229:/home/rdu/Workspace/project_templates/mcu/stm32_ws/src/libraries/STM32F4xx_StdPeriph_Driver/src/stm32f4xx_rtc.c ****    |-----------------|----------|----------|-----------|--------------|------------|--------------|
 230:/home/rdu/Workspace/project_templates/mcu/stm32_ws/src/libraries/STM32F4xx_StdPeriph_Driver/src/stm32f4xx_rtc.c ****    | TIMESTAMP input |          |          |           |              |    Don't   |              |
 231:/home/rdu/Workspace/project_templates/mcu/stm32_ws/src/libraries/STM32F4xx_StdPeriph_Driver/src/stm32f4xx_rtc.c ****    |    floating     |     0    |    0     |     0     |      1       |    care    |      0       |
 232:/home/rdu/Workspace/project_templates/mcu/stm32_ws/src/libraries/STM32F4xx_StdPeriph_Driver/src/stm32f4xx_rtc.c ****    |-----------------|----------|----------|-----------|--------------|------------|--------------|
 233:/home/rdu/Workspace/project_templates/mcu/stm32_ws/src/libraries/STM32F4xx_StdPeriph_Driver/src/stm32f4xx_rtc.c ****    |  Standard GPIO  |     0    |    0     |     0     |      0       | Don't care |  Don't care  |
 234:/home/rdu/Workspace/project_templates/mcu/stm32_ws/src/libraries/STM32F4xx_StdPeriph_Driver/src/stm32f4xx_rtc.c ****    +-----------------------------------------------------------------------------------------------
 235:/home/rdu/Workspace/project_templates/mcu/stm32_ws/src/libraries/STM32F4xx_StdPeriph_Driver/src/stm32f4xx_rtc.c **** 
 236:/home/rdu/Workspace/project_templates/mcu/stm32_ws/src/libraries/STM32F4xx_StdPeriph_Driver/src/stm32f4xx_rtc.c ****             
 237:/home/rdu/Workspace/project_templates/mcu/stm32_ws/src/libraries/STM32F4xx_StdPeriph_Driver/src/stm32f4xx_rtc.c ****         #####  Selection of RTC_AF2 alternate functions #####
 238:/home/rdu/Workspace/project_templates/mcu/stm32_ws/src/libraries/STM32F4xx_StdPeriph_Driver/src/stm32f4xx_rtc.c ****  ===================================================================
 239:/home/rdu/Workspace/project_templates/mcu/stm32_ws/src/libraries/STM32F4xx_StdPeriph_Driver/src/stm32f4xx_rtc.c ****  [..] The RTC_AF2 pin (PI8) can be used for the following purposes:
 240:/home/rdu/Workspace/project_templates/mcu/stm32_ws/src/libraries/STM32F4xx_StdPeriph_Driver/src/stm32f4xx_rtc.c ****    (+) AFI_TAMPER
 241:/home/rdu/Workspace/project_templates/mcu/stm32_ws/src/libraries/STM32F4xx_StdPeriph_Driver/src/stm32f4xx_rtc.c ****    (+) AFI_TIMESTAMP
 242:/home/rdu/Workspace/project_templates/mcu/stm32_ws/src/libraries/STM32F4xx_StdPeriph_Driver/src/stm32f4xx_rtc.c ****  [..]
 243:/home/rdu/Workspace/project_templates/mcu/stm32_ws/src/libraries/STM32F4xx_StdPeriph_Driver/src/stm32f4xx_rtc.c ****    +---------------------------------------------------------------------------------------+
 244:/home/rdu/Workspace/project_templates/mcu/stm32_ws/src/libraries/STM32F4xx_StdPeriph_Driver/src/stm32f4xx_rtc.c ****    |     Pin         |AFI_TAMPER |AFI_TIMESTAMP | TAMP1INSEL |   TSINSEL    |ALARMOUTTYPE  |
 245:/home/rdu/Workspace/project_templates/mcu/stm32_ws/src/libraries/STM32F4xx_StdPeriph_Driver/src/stm32f4xx_rtc.c ****    |  configuration  |  ENABLED  |   ENABLED    |TAMPER1 pin |TIMESTAMP pin |  AFO_ALARM   |
 246:/home/rdu/Workspace/project_templates/mcu/stm32_ws/src/libraries/STM32F4xx_StdPeriph_Driver/src/stm32f4xx_rtc.c ****    |  and function   |           |              | selection  |  selection   |Configuration |
 247:/home/rdu/Workspace/project_templates/mcu/stm32_ws/src/libraries/STM32F4xx_StdPeriph_Driver/src/stm32f4xx_rtc.c ****    |-----------------|-----------|--------------|------------|--------------|--------------|
 248:/home/rdu/Workspace/project_templates/mcu/stm32_ws/src/libraries/STM32F4xx_StdPeriph_Driver/src/stm32f4xx_rtc.c ****    |  TAMPER input   |           |              |            |     Don't    |              |
 249:/home/rdu/Workspace/project_templates/mcu/stm32_ws/src/libraries/STM32F4xx_StdPeriph_Driver/src/stm32f4xx_rtc.c ****    |   floating      |     1     |      0       |      1     |     care     |  Don't care  |
 250:/home/rdu/Workspace/project_templates/mcu/stm32_ws/src/libraries/STM32F4xx_StdPeriph_Driver/src/stm32f4xx_rtc.c ****    |-----------------|-----------|--------------|------------|--------------|--------------|
 251:/home/rdu/Workspace/project_templates/mcu/stm32_ws/src/libraries/STM32F4xx_StdPeriph_Driver/src/stm32f4xx_rtc.c ****    |  TIMESTAMP and  |           |              |            |              |              |
 252:/home/rdu/Workspace/project_templates/mcu/stm32_ws/src/libraries/STM32F4xx_StdPeriph_Driver/src/stm32f4xx_rtc.c ****    |  TAMPER input   |     1     |      1       |      1     |      1       |  Don't care  |
 253:/home/rdu/Workspace/project_templates/mcu/stm32_ws/src/libraries/STM32F4xx_StdPeriph_Driver/src/stm32f4xx_rtc.c ****    |   floating      |           |              |            |              |              |
 254:/home/rdu/Workspace/project_templates/mcu/stm32_ws/src/libraries/STM32F4xx_StdPeriph_Driver/src/stm32f4xx_rtc.c ****    |-----------------|-----------|--------------|------------|--------------|--------------|
 255:/home/rdu/Workspace/project_templates/mcu/stm32_ws/src/libraries/STM32F4xx_StdPeriph_Driver/src/stm32f4xx_rtc.c ****    | TIMESTAMP input |           |              |    Don't   |              |              |
 256:/home/rdu/Workspace/project_templates/mcu/stm32_ws/src/libraries/STM32F4xx_StdPeriph_Driver/src/stm32f4xx_rtc.c ****    |    floating     |     0     |      1       |    care    |      1       |  Don't care  |
 257:/home/rdu/Workspace/project_templates/mcu/stm32_ws/src/libraries/STM32F4xx_StdPeriph_Driver/src/stm32f4xx_rtc.c ****    |-----------------|-----------|--------------|------------|--------------|--------------|
 258:/home/rdu/Workspace/project_templates/mcu/stm32_ws/src/libraries/STM32F4xx_StdPeriph_Driver/src/stm32f4xx_rtc.c ****    |  Standard GPIO  |     0     |      0       | Don't care |  Don't care  |  Don't care  |
 259:/home/rdu/Workspace/project_templates/mcu/stm32_ws/src/libraries/STM32F4xx_StdPeriph_Driver/src/stm32f4xx_rtc.c ****    +---------------------------------------------------------------------------------------+   
 260:/home/rdu/Workspace/project_templates/mcu/stm32_ws/src/libraries/STM32F4xx_StdPeriph_Driver/src/stm32f4xx_rtc.c ****  
 261:/home/rdu/Workspace/project_templates/mcu/stm32_ws/src/libraries/STM32F4xx_StdPeriph_Driver/src/stm32f4xx_rtc.c ****      
 262:/home/rdu/Workspace/project_templates/mcu/stm32_ws/src/libraries/STM32F4xx_StdPeriph_Driver/src/stm32f4xx_rtc.c **** @endverbatim
 263:/home/rdu/Workspace/project_templates/mcu/stm32_ws/src/libraries/STM32F4xx_StdPeriph_Driver/src/stm32f4xx_rtc.c ****   
 264:/home/rdu/Workspace/project_templates/mcu/stm32_ws/src/libraries/STM32F4xx_StdPeriph_Driver/src/stm32f4xx_rtc.c ****   ******************************************************************************
 265:/home/rdu/Workspace/project_templates/mcu/stm32_ws/src/libraries/STM32F4xx_StdPeriph_Driver/src/stm32f4xx_rtc.c ****   * @attention
 266:/home/rdu/Workspace/project_templates/mcu/stm32_ws/src/libraries/STM32F4xx_StdPeriph_Driver/src/stm32f4xx_rtc.c ****   *
 267:/home/rdu/Workspace/project_templates/mcu/stm32_ws/src/libraries/STM32F4xx_StdPeriph_Driver/src/stm32f4xx_rtc.c ****   * <h2><center>&copy; COPYRIGHT 2016 STMicroelectronics</center></h2>
 268:/home/rdu/Workspace/project_templates/mcu/stm32_ws/src/libraries/STM32F4xx_StdPeriph_Driver/src/stm32f4xx_rtc.c ****   *
 269:/home/rdu/Workspace/project_templates/mcu/stm32_ws/src/libraries/STM32F4xx_StdPeriph_Driver/src/stm32f4xx_rtc.c ****   * Licensed under MCD-ST Liberty SW License Agreement V2, (the "License");
 270:/home/rdu/Workspace/project_templates/mcu/stm32_ws/src/libraries/STM32F4xx_StdPeriph_Driver/src/stm32f4xx_rtc.c ****   * You may not use this file except in compliance with the License.
 271:/home/rdu/Workspace/project_templates/mcu/stm32_ws/src/libraries/STM32F4xx_StdPeriph_Driver/src/stm32f4xx_rtc.c ****   * You may obtain a copy of the License at:
 272:/home/rdu/Workspace/project_templates/mcu/stm32_ws/src/libraries/STM32F4xx_StdPeriph_Driver/src/stm32f4xx_rtc.c ****   *
 273:/home/rdu/Workspace/project_templates/mcu/stm32_ws/src/libraries/STM32F4xx_StdPeriph_Driver/src/stm32f4xx_rtc.c ****   *        http://www.st.com/software_license_agreement_liberty_v2
 274:/home/rdu/Workspace/project_templates/mcu/stm32_ws/src/libraries/STM32F4xx_StdPeriph_Driver/src/stm32f4xx_rtc.c ****   *
 275:/home/rdu/Workspace/project_templates/mcu/stm32_ws/src/libraries/STM32F4xx_StdPeriph_Driver/src/stm32f4xx_rtc.c ****   * Unless required by applicable law or agreed to in writing, software 
 276:/home/rdu/Workspace/project_templates/mcu/stm32_ws/src/libraries/STM32F4xx_StdPeriph_Driver/src/stm32f4xx_rtc.c ****   * distributed under the License is distributed on an "AS IS" BASIS, 
 277:/home/rdu/Workspace/project_templates/mcu/stm32_ws/src/libraries/STM32F4xx_StdPeriph_Driver/src/stm32f4xx_rtc.c ****   * WITHOUT WARRANTIES OR CONDITIONS OF ANY KIND, either express or implied.
 278:/home/rdu/Workspace/project_templates/mcu/stm32_ws/src/libraries/STM32F4xx_StdPeriph_Driver/src/stm32f4xx_rtc.c ****   * See the License for the specific language governing permissions and
 279:/home/rdu/Workspace/project_templates/mcu/stm32_ws/src/libraries/STM32F4xx_StdPeriph_Driver/src/stm32f4xx_rtc.c ****   * limitations under the License.
 280:/home/rdu/Workspace/project_templates/mcu/stm32_ws/src/libraries/STM32F4xx_StdPeriph_Driver/src/stm32f4xx_rtc.c ****   *
 281:/home/rdu/Workspace/project_templates/mcu/stm32_ws/src/libraries/STM32F4xx_StdPeriph_Driver/src/stm32f4xx_rtc.c ****   ******************************************************************************
 282:/home/rdu/Workspace/project_templates/mcu/stm32_ws/src/libraries/STM32F4xx_StdPeriph_Driver/src/stm32f4xx_rtc.c ****   */ 
 283:/home/rdu/Workspace/project_templates/mcu/stm32_ws/src/libraries/STM32F4xx_StdPeriph_Driver/src/stm32f4xx_rtc.c **** 
 284:/home/rdu/Workspace/project_templates/mcu/stm32_ws/src/libraries/STM32F4xx_StdPeriph_Driver/src/stm32f4xx_rtc.c **** /* Includes ------------------------------------------------------------------*/
 285:/home/rdu/Workspace/project_templates/mcu/stm32_ws/src/libraries/STM32F4xx_StdPeriph_Driver/src/stm32f4xx_rtc.c **** #include "stm32f4xx_rtc.h"
 286:/home/rdu/Workspace/project_templates/mcu/stm32_ws/src/libraries/STM32F4xx_StdPeriph_Driver/src/stm32f4xx_rtc.c **** 
 287:/home/rdu/Workspace/project_templates/mcu/stm32_ws/src/libraries/STM32F4xx_StdPeriph_Driver/src/stm32f4xx_rtc.c **** /** @addtogroup STM32F4xx_StdPeriph_Driver
 288:/home/rdu/Workspace/project_templates/mcu/stm32_ws/src/libraries/STM32F4xx_StdPeriph_Driver/src/stm32f4xx_rtc.c ****   * @{
 289:/home/rdu/Workspace/project_templates/mcu/stm32_ws/src/libraries/STM32F4xx_StdPeriph_Driver/src/stm32f4xx_rtc.c ****   */
 290:/home/rdu/Workspace/project_templates/mcu/stm32_ws/src/libraries/STM32F4xx_StdPeriph_Driver/src/stm32f4xx_rtc.c **** 
 291:/home/rdu/Workspace/project_templates/mcu/stm32_ws/src/libraries/STM32F4xx_StdPeriph_Driver/src/stm32f4xx_rtc.c **** /** @defgroup RTC 
 292:/home/rdu/Workspace/project_templates/mcu/stm32_ws/src/libraries/STM32F4xx_StdPeriph_Driver/src/stm32f4xx_rtc.c ****   * @brief RTC driver modules
 293:/home/rdu/Workspace/project_templates/mcu/stm32_ws/src/libraries/STM32F4xx_StdPeriph_Driver/src/stm32f4xx_rtc.c ****   * @{
 294:/home/rdu/Workspace/project_templates/mcu/stm32_ws/src/libraries/STM32F4xx_StdPeriph_Driver/src/stm32f4xx_rtc.c ****   */
 295:/home/rdu/Workspace/project_templates/mcu/stm32_ws/src/libraries/STM32F4xx_StdPeriph_Driver/src/stm32f4xx_rtc.c **** 
 296:/home/rdu/Workspace/project_templates/mcu/stm32_ws/src/libraries/STM32F4xx_StdPeriph_Driver/src/stm32f4xx_rtc.c **** /* Private typedef -----------------------------------------------------------*/
 297:/home/rdu/Workspace/project_templates/mcu/stm32_ws/src/libraries/STM32F4xx_StdPeriph_Driver/src/stm32f4xx_rtc.c **** /* Private define ------------------------------------------------------------*/
 298:/home/rdu/Workspace/project_templates/mcu/stm32_ws/src/libraries/STM32F4xx_StdPeriph_Driver/src/stm32f4xx_rtc.c **** 
 299:/home/rdu/Workspace/project_templates/mcu/stm32_ws/src/libraries/STM32F4xx_StdPeriph_Driver/src/stm32f4xx_rtc.c **** /* Masks Definition */
 300:/home/rdu/Workspace/project_templates/mcu/stm32_ws/src/libraries/STM32F4xx_StdPeriph_Driver/src/stm32f4xx_rtc.c **** #define RTC_TR_RESERVED_MASK    ((uint32_t)0x007F7F7F)
 301:/home/rdu/Workspace/project_templates/mcu/stm32_ws/src/libraries/STM32F4xx_StdPeriph_Driver/src/stm32f4xx_rtc.c **** #define RTC_DR_RESERVED_MASK    ((uint32_t)0x00FFFF3F) 
 302:/home/rdu/Workspace/project_templates/mcu/stm32_ws/src/libraries/STM32F4xx_StdPeriph_Driver/src/stm32f4xx_rtc.c **** #define RTC_INIT_MASK           ((uint32_t)0xFFFFFFFF)  
 303:/home/rdu/Workspace/project_templates/mcu/stm32_ws/src/libraries/STM32F4xx_StdPeriph_Driver/src/stm32f4xx_rtc.c **** #define RTC_RSF_MASK            ((uint32_t)0xFFFFFF5F)
 304:/home/rdu/Workspace/project_templates/mcu/stm32_ws/src/libraries/STM32F4xx_StdPeriph_Driver/src/stm32f4xx_rtc.c **** #define RTC_FLAGS_MASK          ((uint32_t)(RTC_FLAG_TSOVF | RTC_FLAG_TSF | RTC_FLAG_WUTF | \
 305:/home/rdu/Workspace/project_templates/mcu/stm32_ws/src/libraries/STM32F4xx_StdPeriph_Driver/src/stm32f4xx_rtc.c ****                                             RTC_FLAG_ALRBF | RTC_FLAG_ALRAF | RTC_FLAG_INITF | \
 306:/home/rdu/Workspace/project_templates/mcu/stm32_ws/src/libraries/STM32F4xx_StdPeriph_Driver/src/stm32f4xx_rtc.c ****                                             RTC_FLAG_RSF | RTC_FLAG_INITS | RTC_FLAG_WUTWF | \
 307:/home/rdu/Workspace/project_templates/mcu/stm32_ws/src/libraries/STM32F4xx_StdPeriph_Driver/src/stm32f4xx_rtc.c ****                                             RTC_FLAG_ALRBWF | RTC_FLAG_ALRAWF | RTC_FLAG_TAMP1F | \
 308:/home/rdu/Workspace/project_templates/mcu/stm32_ws/src/libraries/STM32F4xx_StdPeriph_Driver/src/stm32f4xx_rtc.c ****                                             RTC_FLAG_TAMP2F | RTC_FLAG_RECALPF | RTC_FLAG_SHPF))
 309:/home/rdu/Workspace/project_templates/mcu/stm32_ws/src/libraries/STM32F4xx_StdPeriph_Driver/src/stm32f4xx_rtc.c **** 
 310:/home/rdu/Workspace/project_templates/mcu/stm32_ws/src/libraries/STM32F4xx_StdPeriph_Driver/src/stm32f4xx_rtc.c **** #define INITMODE_TIMEOUT         ((uint32_t) 0x00010000)
 311:/home/rdu/Workspace/project_templates/mcu/stm32_ws/src/libraries/STM32F4xx_StdPeriph_Driver/src/stm32f4xx_rtc.c **** #define SYNCHRO_TIMEOUT          ((uint32_t) 0x00020000)
 312:/home/rdu/Workspace/project_templates/mcu/stm32_ws/src/libraries/STM32F4xx_StdPeriph_Driver/src/stm32f4xx_rtc.c **** #define RECALPF_TIMEOUT          ((uint32_t) 0x00020000)
 313:/home/rdu/Workspace/project_templates/mcu/stm32_ws/src/libraries/STM32F4xx_StdPeriph_Driver/src/stm32f4xx_rtc.c **** #define SHPF_TIMEOUT             ((uint32_t) 0x00001000)
 314:/home/rdu/Workspace/project_templates/mcu/stm32_ws/src/libraries/STM32F4xx_StdPeriph_Driver/src/stm32f4xx_rtc.c **** 
 315:/home/rdu/Workspace/project_templates/mcu/stm32_ws/src/libraries/STM32F4xx_StdPeriph_Driver/src/stm32f4xx_rtc.c **** /* Private macro -------------------------------------------------------------*/
 316:/home/rdu/Workspace/project_templates/mcu/stm32_ws/src/libraries/STM32F4xx_StdPeriph_Driver/src/stm32f4xx_rtc.c **** /* Private variables ---------------------------------------------------------*/
 317:/home/rdu/Workspace/project_templates/mcu/stm32_ws/src/libraries/STM32F4xx_StdPeriph_Driver/src/stm32f4xx_rtc.c **** /* Private function prototypes -----------------------------------------------*/
 318:/home/rdu/Workspace/project_templates/mcu/stm32_ws/src/libraries/STM32F4xx_StdPeriph_Driver/src/stm32f4xx_rtc.c **** static uint8_t RTC_ByteToBcd2(uint8_t Value);
 319:/home/rdu/Workspace/project_templates/mcu/stm32_ws/src/libraries/STM32F4xx_StdPeriph_Driver/src/stm32f4xx_rtc.c **** static uint8_t RTC_Bcd2ToByte(uint8_t Value);
 320:/home/rdu/Workspace/project_templates/mcu/stm32_ws/src/libraries/STM32F4xx_StdPeriph_Driver/src/stm32f4xx_rtc.c **** 
 321:/home/rdu/Workspace/project_templates/mcu/stm32_ws/src/libraries/STM32F4xx_StdPeriph_Driver/src/stm32f4xx_rtc.c **** /* Private functions ---------------------------------------------------------*/
 322:/home/rdu/Workspace/project_templates/mcu/stm32_ws/src/libraries/STM32F4xx_StdPeriph_Driver/src/stm32f4xx_rtc.c **** 
 323:/home/rdu/Workspace/project_templates/mcu/stm32_ws/src/libraries/STM32F4xx_StdPeriph_Driver/src/stm32f4xx_rtc.c **** /** @defgroup RTC_Private_Functions
 324:/home/rdu/Workspace/project_templates/mcu/stm32_ws/src/libraries/STM32F4xx_StdPeriph_Driver/src/stm32f4xx_rtc.c ****   * @{
 325:/home/rdu/Workspace/project_templates/mcu/stm32_ws/src/libraries/STM32F4xx_StdPeriph_Driver/src/stm32f4xx_rtc.c ****   */ 
 326:/home/rdu/Workspace/project_templates/mcu/stm32_ws/src/libraries/STM32F4xx_StdPeriph_Driver/src/stm32f4xx_rtc.c **** 
 327:/home/rdu/Workspace/project_templates/mcu/stm32_ws/src/libraries/STM32F4xx_StdPeriph_Driver/src/stm32f4xx_rtc.c **** /** @defgroup RTC_Group1 Initialization and Configuration functions
 328:/home/rdu/Workspace/project_templates/mcu/stm32_ws/src/libraries/STM32F4xx_StdPeriph_Driver/src/stm32f4xx_rtc.c ****  *  @brief   Initialization and Configuration functions 
 329:/home/rdu/Workspace/project_templates/mcu/stm32_ws/src/libraries/STM32F4xx_StdPeriph_Driver/src/stm32f4xx_rtc.c ****  *
 330:/home/rdu/Workspace/project_templates/mcu/stm32_ws/src/libraries/STM32F4xx_StdPeriph_Driver/src/stm32f4xx_rtc.c **** @verbatim   
 331:/home/rdu/Workspace/project_templates/mcu/stm32_ws/src/libraries/STM32F4xx_StdPeriph_Driver/src/stm32f4xx_rtc.c ****  ===============================================================================
 332:/home/rdu/Workspace/project_templates/mcu/stm32_ws/src/libraries/STM32F4xx_StdPeriph_Driver/src/stm32f4xx_rtc.c ****              ##### Initialization and Configuration functions #####
 333:/home/rdu/Workspace/project_templates/mcu/stm32_ws/src/libraries/STM32F4xx_StdPeriph_Driver/src/stm32f4xx_rtc.c ****  ===============================================================================
 334:/home/rdu/Workspace/project_templates/mcu/stm32_ws/src/libraries/STM32F4xx_StdPeriph_Driver/src/stm32f4xx_rtc.c ****  
 335:/home/rdu/Workspace/project_templates/mcu/stm32_ws/src/libraries/STM32F4xx_StdPeriph_Driver/src/stm32f4xx_rtc.c ****  [..] This section provide functions allowing to initialize and configure the RTC
 336:/home/rdu/Workspace/project_templates/mcu/stm32_ws/src/libraries/STM32F4xx_StdPeriph_Driver/src/stm32f4xx_rtc.c ****       Prescaler (Synchronous and Asynchronous), RTC Hour format, disable RTC registers
 337:/home/rdu/Workspace/project_templates/mcu/stm32_ws/src/libraries/STM32F4xx_StdPeriph_Driver/src/stm32f4xx_rtc.c ****       Write protection, enter and exit the RTC initialization mode, RTC registers
 338:/home/rdu/Workspace/project_templates/mcu/stm32_ws/src/libraries/STM32F4xx_StdPeriph_Driver/src/stm32f4xx_rtc.c ****       synchronization check and reference clock detection enable.
 339:/home/rdu/Workspace/project_templates/mcu/stm32_ws/src/libraries/STM32F4xx_StdPeriph_Driver/src/stm32f4xx_rtc.c ****   
 340:/home/rdu/Workspace/project_templates/mcu/stm32_ws/src/libraries/STM32F4xx_StdPeriph_Driver/src/stm32f4xx_rtc.c ****    (#) The RTC Prescaler is programmed to generate the RTC 1Hz time base. It is
 341:/home/rdu/Workspace/project_templates/mcu/stm32_ws/src/libraries/STM32F4xx_StdPeriph_Driver/src/stm32f4xx_rtc.c ****        split into 2 programmable prescalers to minimize power consumption.
 342:/home/rdu/Workspace/project_templates/mcu/stm32_ws/src/libraries/STM32F4xx_StdPeriph_Driver/src/stm32f4xx_rtc.c ****        (++) A 7-bit asynchronous prescaler and A 13-bit synchronous prescaler.
 343:/home/rdu/Workspace/project_templates/mcu/stm32_ws/src/libraries/STM32F4xx_StdPeriph_Driver/src/stm32f4xx_rtc.c ****        (++) When both prescalers are used, it is recommended to configure the 
 344:/home/rdu/Workspace/project_templates/mcu/stm32_ws/src/libraries/STM32F4xx_StdPeriph_Driver/src/stm32f4xx_rtc.c ****             asynchronous prescaler to a high value to minimize consumption.
 345:/home/rdu/Workspace/project_templates/mcu/stm32_ws/src/libraries/STM32F4xx_StdPeriph_Driver/src/stm32f4xx_rtc.c **** 
 346:/home/rdu/Workspace/project_templates/mcu/stm32_ws/src/libraries/STM32F4xx_StdPeriph_Driver/src/stm32f4xx_rtc.c ****    (#) All RTC registers are Write protected. Writing to the RTC registers
 347:/home/rdu/Workspace/project_templates/mcu/stm32_ws/src/libraries/STM32F4xx_StdPeriph_Driver/src/stm32f4xx_rtc.c ****        is enabled by writing a key into the Write Protection register, RTC_WPR.
 348:/home/rdu/Workspace/project_templates/mcu/stm32_ws/src/libraries/STM32F4xx_StdPeriph_Driver/src/stm32f4xx_rtc.c **** 
 349:/home/rdu/Workspace/project_templates/mcu/stm32_ws/src/libraries/STM32F4xx_StdPeriph_Driver/src/stm32f4xx_rtc.c ****    (#) To Configure the RTC Calendar, user application should enter initialization
 350:/home/rdu/Workspace/project_templates/mcu/stm32_ws/src/libraries/STM32F4xx_StdPeriph_Driver/src/stm32f4xx_rtc.c ****        mode. In this mode, the calendar counter is stopped and its value can be 
 351:/home/rdu/Workspace/project_templates/mcu/stm32_ws/src/libraries/STM32F4xx_StdPeriph_Driver/src/stm32f4xx_rtc.c ****        updated. When the initialization sequence is complete, the calendar restarts 
 352:/home/rdu/Workspace/project_templates/mcu/stm32_ws/src/libraries/STM32F4xx_StdPeriph_Driver/src/stm32f4xx_rtc.c ****        counting after 4 RTCCLK cycles.
 353:/home/rdu/Workspace/project_templates/mcu/stm32_ws/src/libraries/STM32F4xx_StdPeriph_Driver/src/stm32f4xx_rtc.c **** 
 354:/home/rdu/Workspace/project_templates/mcu/stm32_ws/src/libraries/STM32F4xx_StdPeriph_Driver/src/stm32f4xx_rtc.c ****    (#) To read the calendar through the shadow registers after Calendar initialization,
 355:/home/rdu/Workspace/project_templates/mcu/stm32_ws/src/libraries/STM32F4xx_StdPeriph_Driver/src/stm32f4xx_rtc.c ****        calendar update or after wakeup from low power modes the software must first 
 356:/home/rdu/Workspace/project_templates/mcu/stm32_ws/src/libraries/STM32F4xx_StdPeriph_Driver/src/stm32f4xx_rtc.c ****        clear the RSF flag. The software must then wait until it is set again before 
 357:/home/rdu/Workspace/project_templates/mcu/stm32_ws/src/libraries/STM32F4xx_StdPeriph_Driver/src/stm32f4xx_rtc.c ****        reading the calendar, which means that the calendar registers have been 
 358:/home/rdu/Workspace/project_templates/mcu/stm32_ws/src/libraries/STM32F4xx_StdPeriph_Driver/src/stm32f4xx_rtc.c ****        correctly copied into the RTC_TR and RTC_DR shadow registers.
 359:/home/rdu/Workspace/project_templates/mcu/stm32_ws/src/libraries/STM32F4xx_StdPeriph_Driver/src/stm32f4xx_rtc.c ****        The RTC_WaitForSynchro() function implements the above software sequence 
 360:/home/rdu/Workspace/project_templates/mcu/stm32_ws/src/libraries/STM32F4xx_StdPeriph_Driver/src/stm32f4xx_rtc.c ****        (RSF clear and RSF check).
 361:/home/rdu/Workspace/project_templates/mcu/stm32_ws/src/libraries/STM32F4xx_StdPeriph_Driver/src/stm32f4xx_rtc.c **** 
 362:/home/rdu/Workspace/project_templates/mcu/stm32_ws/src/libraries/STM32F4xx_StdPeriph_Driver/src/stm32f4xx_rtc.c **** @endverbatim
 363:/home/rdu/Workspace/project_templates/mcu/stm32_ws/src/libraries/STM32F4xx_StdPeriph_Driver/src/stm32f4xx_rtc.c ****   * @{
 364:/home/rdu/Workspace/project_templates/mcu/stm32_ws/src/libraries/STM32F4xx_StdPeriph_Driver/src/stm32f4xx_rtc.c ****   */
 365:/home/rdu/Workspace/project_templates/mcu/stm32_ws/src/libraries/STM32F4xx_StdPeriph_Driver/src/stm32f4xx_rtc.c **** 
 366:/home/rdu/Workspace/project_templates/mcu/stm32_ws/src/libraries/STM32F4xx_StdPeriph_Driver/src/stm32f4xx_rtc.c **** /**
 367:/home/rdu/Workspace/project_templates/mcu/stm32_ws/src/libraries/STM32F4xx_StdPeriph_Driver/src/stm32f4xx_rtc.c ****   * @brief  Deinitializes the RTC registers to their default reset values.
 368:/home/rdu/Workspace/project_templates/mcu/stm32_ws/src/libraries/STM32F4xx_StdPeriph_Driver/src/stm32f4xx_rtc.c ****   * @note   This function doesn't reset the RTC Clock source and RTC Backup Data
 369:/home/rdu/Workspace/project_templates/mcu/stm32_ws/src/libraries/STM32F4xx_StdPeriph_Driver/src/stm32f4xx_rtc.c ****   *         registers.       
 370:/home/rdu/Workspace/project_templates/mcu/stm32_ws/src/libraries/STM32F4xx_StdPeriph_Driver/src/stm32f4xx_rtc.c ****   * @param  None
 371:/home/rdu/Workspace/project_templates/mcu/stm32_ws/src/libraries/STM32F4xx_StdPeriph_Driver/src/stm32f4xx_rtc.c ****   * @retval An ErrorStatus enumeration value:
 372:/home/rdu/Workspace/project_templates/mcu/stm32_ws/src/libraries/STM32F4xx_StdPeriph_Driver/src/stm32f4xx_rtc.c ****   *          - SUCCESS: RTC registers are deinitialized
 373:/home/rdu/Workspace/project_templates/mcu/stm32_ws/src/libraries/STM32F4xx_StdPeriph_Driver/src/stm32f4xx_rtc.c ****   *          - ERROR: RTC registers are not deinitialized
 374:/home/rdu/Workspace/project_templates/mcu/stm32_ws/src/libraries/STM32F4xx_StdPeriph_Driver/src/stm32f4xx_rtc.c ****   */
 375:/home/rdu/Workspace/project_templates/mcu/stm32_ws/src/libraries/STM32F4xx_StdPeriph_Driver/src/stm32f4xx_rtc.c **** ErrorStatus RTC_DeInit(void)
 376:/home/rdu/Workspace/project_templates/mcu/stm32_ws/src/libraries/STM32F4xx_StdPeriph_Driver/src/stm32f4xx_rtc.c **** {
  26              		.loc 1 376 0
  27              		.cfi_startproc
  28              		@ args = 0, pretend = 0, frame = 16
  29              		@ frame_needed = 0, uses_anonymous_args = 0
  30 0000 00B5     		push	{lr}
  31              	.LCFI0:
  32              		.cfi_def_cfa_offset 4
  33              		.cfi_offset 14, -4
  34 0002 85B0     		sub	sp, sp, #20
  35              	.LCFI1:
  36              		.cfi_def_cfa_offset 24
 377:/home/rdu/Workspace/project_templates/mcu/stm32_ws/src/libraries/STM32F4xx_StdPeriph_Driver/src/stm32f4xx_rtc.c ****   __IO uint32_t wutcounter = 0x00;
  37              		.loc 1 377 0
  38 0004 0023     		movs	r3, #0
  39 0006 0193     		str	r3, [sp, #4]
 378:/home/rdu/Workspace/project_templates/mcu/stm32_ws/src/libraries/STM32F4xx_StdPeriph_Driver/src/stm32f4xx_rtc.c ****   uint32_t wutwfstatus = 0x00;
  40              		.loc 1 378 0
  41 0008 0023     		movs	r3, #0
  42 000a 0293     		str	r3, [sp, #8]
 379:/home/rdu/Workspace/project_templates/mcu/stm32_ws/src/libraries/STM32F4xx_StdPeriph_Driver/src/stm32f4xx_rtc.c ****   ErrorStatus status = ERROR;
  43              		.loc 1 379 0
  44 000c 0023     		movs	r3, #0
  45 000e 8DF80F30 		strb	r3, [sp, #15]
 380:/home/rdu/Workspace/project_templates/mcu/stm32_ws/src/libraries/STM32F4xx_StdPeriph_Driver/src/stm32f4xx_rtc.c ****   
 381:/home/rdu/Workspace/project_templates/mcu/stm32_ws/src/libraries/STM32F4xx_StdPeriph_Driver/src/stm32f4xx_rtc.c ****   /* Disable the write protection for RTC registers */
 382:/home/rdu/Workspace/project_templates/mcu/stm32_ws/src/libraries/STM32F4xx_StdPeriph_Driver/src/stm32f4xx_rtc.c ****   RTC->WPR = 0xCA;
  46              		.loc 1 382 0
  47 0012 384B     		ldr	r3, .L9
  48 0014 CA22     		movs	r2, #202
  49 0016 5A62     		str	r2, [r3, #36]
 383:/home/rdu/Workspace/project_templates/mcu/stm32_ws/src/libraries/STM32F4xx_StdPeriph_Driver/src/stm32f4xx_rtc.c ****   RTC->WPR = 0x53;
  50              		.loc 1 383 0
  51 0018 364B     		ldr	r3, .L9
  52 001a 5322     		movs	r2, #83
  53 001c 5A62     		str	r2, [r3, #36]
 384:/home/rdu/Workspace/project_templates/mcu/stm32_ws/src/libraries/STM32F4xx_StdPeriph_Driver/src/stm32f4xx_rtc.c **** 
 385:/home/rdu/Workspace/project_templates/mcu/stm32_ws/src/libraries/STM32F4xx_StdPeriph_Driver/src/stm32f4xx_rtc.c ****   /* Set Initialization mode */
 386:/home/rdu/Workspace/project_templates/mcu/stm32_ws/src/libraries/STM32F4xx_StdPeriph_Driver/src/stm32f4xx_rtc.c ****   if (RTC_EnterInitMode() == ERROR)
  54              		.loc 1 386 0
  55 001e FFF7FEFF 		bl	RTC_EnterInitMode
  56 0022 0346     		mov	r3, r0
  57 0024 002B     		cmp	r3, #0
  58 0026 03D1     		bne	.L2
 387:/home/rdu/Workspace/project_templates/mcu/stm32_ws/src/libraries/STM32F4xx_StdPeriph_Driver/src/stm32f4xx_rtc.c ****   {
 388:/home/rdu/Workspace/project_templates/mcu/stm32_ws/src/libraries/STM32F4xx_StdPeriph_Driver/src/stm32f4xx_rtc.c ****     status = ERROR;
  59              		.loc 1 388 0
  60 0028 0023     		movs	r3, #0
  61 002a 8DF80F30 		strb	r3, [sp, #15]
  62 002e 58E0     		b	.L3
  63              	.L2:
 389:/home/rdu/Workspace/project_templates/mcu/stm32_ws/src/libraries/STM32F4xx_StdPeriph_Driver/src/stm32f4xx_rtc.c ****   }  
 390:/home/rdu/Workspace/project_templates/mcu/stm32_ws/src/libraries/STM32F4xx_StdPeriph_Driver/src/stm32f4xx_rtc.c ****   else
 391:/home/rdu/Workspace/project_templates/mcu/stm32_ws/src/libraries/STM32F4xx_StdPeriph_Driver/src/stm32f4xx_rtc.c ****   {
 392:/home/rdu/Workspace/project_templates/mcu/stm32_ws/src/libraries/STM32F4xx_StdPeriph_Driver/src/stm32f4xx_rtc.c ****     /* Reset TR, DR and CR registers */
 393:/home/rdu/Workspace/project_templates/mcu/stm32_ws/src/libraries/STM32F4xx_StdPeriph_Driver/src/stm32f4xx_rtc.c ****     RTC->TR = (uint32_t)0x00000000;
  64              		.loc 1 393 0
  65 0030 304B     		ldr	r3, .L9
  66 0032 0022     		movs	r2, #0
  67 0034 1A60     		str	r2, [r3]
 394:/home/rdu/Workspace/project_templates/mcu/stm32_ws/src/libraries/STM32F4xx_StdPeriph_Driver/src/stm32f4xx_rtc.c ****     RTC->DR = (uint32_t)0x00002101;
  68              		.loc 1 394 0
  69 0036 2F4B     		ldr	r3, .L9
  70 0038 42F20112 		movw	r2, #8449
  71 003c 5A60     		str	r2, [r3, #4]
 395:/home/rdu/Workspace/project_templates/mcu/stm32_ws/src/libraries/STM32F4xx_StdPeriph_Driver/src/stm32f4xx_rtc.c ****     /* Reset All CR bits except CR[2:0] */
 396:/home/rdu/Workspace/project_templates/mcu/stm32_ws/src/libraries/STM32F4xx_StdPeriph_Driver/src/stm32f4xx_rtc.c ****     RTC->CR &= (uint32_t)0x00000007;
  72              		.loc 1 396 0
  73 003e 2D4B     		ldr	r3, .L9
  74 0040 9B68     		ldr	r3, [r3, #8]
  75 0042 2C4A     		ldr	r2, .L9
  76 0044 03F00703 		and	r3, r3, #7
  77 0048 9360     		str	r3, [r2, #8]
  78              	.L5:
 397:/home/rdu/Workspace/project_templates/mcu/stm32_ws/src/libraries/STM32F4xx_StdPeriph_Driver/src/stm32f4xx_rtc.c ****   
 398:/home/rdu/Workspace/project_templates/mcu/stm32_ws/src/libraries/STM32F4xx_StdPeriph_Driver/src/stm32f4xx_rtc.c ****     /* Wait till RTC WUTWF flag is set and if Time out is reached exit */
 399:/home/rdu/Workspace/project_templates/mcu/stm32_ws/src/libraries/STM32F4xx_StdPeriph_Driver/src/stm32f4xx_rtc.c ****     do
 400:/home/rdu/Workspace/project_templates/mcu/stm32_ws/src/libraries/STM32F4xx_StdPeriph_Driver/src/stm32f4xx_rtc.c ****     {
 401:/home/rdu/Workspace/project_templates/mcu/stm32_ws/src/libraries/STM32F4xx_StdPeriph_Driver/src/stm32f4xx_rtc.c ****       wutwfstatus = RTC->ISR & RTC_ISR_WUTWF;
  79              		.loc 1 401 0 discriminator 2
  80 004a 2A4B     		ldr	r3, .L9
  81 004c DB68     		ldr	r3, [r3, #12]
  82 004e 03F00403 		and	r3, r3, #4
  83 0052 0293     		str	r3, [sp, #8]
 402:/home/rdu/Workspace/project_templates/mcu/stm32_ws/src/libraries/STM32F4xx_StdPeriph_Driver/src/stm32f4xx_rtc.c ****       wutcounter++;  
  84              		.loc 1 402 0 discriminator 2
  85 0054 019B     		ldr	r3, [sp, #4]
  86 0056 0133     		adds	r3, r3, #1
  87 0058 0193     		str	r3, [sp, #4]
 403:/home/rdu/Workspace/project_templates/mcu/stm32_ws/src/libraries/STM32F4xx_StdPeriph_Driver/src/stm32f4xx_rtc.c ****     } while((wutcounter != INITMODE_TIMEOUT) && (wutwfstatus == 0x00));
  88              		.loc 1 403 0 discriminator 2
  89 005a 019B     		ldr	r3, [sp, #4]
  90 005c B3F5803F 		cmp	r3, #65536
  91 0060 02D0     		beq	.L4
  92              		.loc 1 403 0 is_stmt 0 discriminator 1
  93 0062 029B     		ldr	r3, [sp, #8]
  94 0064 002B     		cmp	r3, #0
  95 0066 F0D0     		beq	.L5
  96              	.L4:
 404:/home/rdu/Workspace/project_templates/mcu/stm32_ws/src/libraries/STM32F4xx_StdPeriph_Driver/src/stm32f4xx_rtc.c ****     
 405:/home/rdu/Workspace/project_templates/mcu/stm32_ws/src/libraries/STM32F4xx_StdPeriph_Driver/src/stm32f4xx_rtc.c ****     if ((RTC->ISR & RTC_ISR_WUTWF) == RESET)
  97              		.loc 1 405 0 is_stmt 1
  98 0068 224B     		ldr	r3, .L9
  99 006a DB68     		ldr	r3, [r3, #12]
 100 006c 03F00403 		and	r3, r3, #4
 101 0070 002B     		cmp	r3, #0
 102 0072 03D1     		bne	.L6
 406:/home/rdu/Workspace/project_templates/mcu/stm32_ws/src/libraries/STM32F4xx_StdPeriph_Driver/src/stm32f4xx_rtc.c ****     {
 407:/home/rdu/Workspace/project_templates/mcu/stm32_ws/src/libraries/STM32F4xx_StdPeriph_Driver/src/stm32f4xx_rtc.c ****       status = ERROR;
 103              		.loc 1 407 0
 104 0074 0023     		movs	r3, #0
 105 0076 8DF80F30 		strb	r3, [sp, #15]
 106 007a 32E0     		b	.L3
 107              	.L6:
 408:/home/rdu/Workspace/project_templates/mcu/stm32_ws/src/libraries/STM32F4xx_StdPeriph_Driver/src/stm32f4xx_rtc.c ****     }
 409:/home/rdu/Workspace/project_templates/mcu/stm32_ws/src/libraries/STM32F4xx_StdPeriph_Driver/src/stm32f4xx_rtc.c ****     else
 410:/home/rdu/Workspace/project_templates/mcu/stm32_ws/src/libraries/STM32F4xx_StdPeriph_Driver/src/stm32f4xx_rtc.c ****     {
 411:/home/rdu/Workspace/project_templates/mcu/stm32_ws/src/libraries/STM32F4xx_StdPeriph_Driver/src/stm32f4xx_rtc.c ****       /* Reset all RTC CR register bits */
 412:/home/rdu/Workspace/project_templates/mcu/stm32_ws/src/libraries/STM32F4xx_StdPeriph_Driver/src/stm32f4xx_rtc.c ****       RTC->CR &= (uint32_t)0x00000000;
 108              		.loc 1 412 0
 109 007c 1D4B     		ldr	r3, .L9
 110 007e 9B68     		ldr	r3, [r3, #8]
 111 0080 1C4B     		ldr	r3, .L9
 112 0082 0022     		movs	r2, #0
 113 0084 9A60     		str	r2, [r3, #8]
 413:/home/rdu/Workspace/project_templates/mcu/stm32_ws/src/libraries/STM32F4xx_StdPeriph_Driver/src/stm32f4xx_rtc.c ****       RTC->WUTR = (uint32_t)0x0000FFFF;
 114              		.loc 1 413 0
 115 0086 1B4B     		ldr	r3, .L9
 116 0088 4FF6FF72 		movw	r2, #65535
 117 008c 5A61     		str	r2, [r3, #20]
 414:/home/rdu/Workspace/project_templates/mcu/stm32_ws/src/libraries/STM32F4xx_StdPeriph_Driver/src/stm32f4xx_rtc.c ****       RTC->PRER = (uint32_t)0x007F00FF;
 118              		.loc 1 414 0
 119 008e 194B     		ldr	r3, .L9
 120 0090 194A     		ldr	r2, .L9+4
 121 0092 1A61     		str	r2, [r3, #16]
 415:/home/rdu/Workspace/project_templates/mcu/stm32_ws/src/libraries/STM32F4xx_StdPeriph_Driver/src/stm32f4xx_rtc.c ****       RTC->CALIBR = (uint32_t)0x00000000;
 122              		.loc 1 415 0
 123 0094 174B     		ldr	r3, .L9
 124 0096 0022     		movs	r2, #0
 125 0098 9A61     		str	r2, [r3, #24]
 416:/home/rdu/Workspace/project_templates/mcu/stm32_ws/src/libraries/STM32F4xx_StdPeriph_Driver/src/stm32f4xx_rtc.c ****       RTC->ALRMAR = (uint32_t)0x00000000;        
 126              		.loc 1 416 0
 127 009a 164B     		ldr	r3, .L9
 128 009c 0022     		movs	r2, #0
 129 009e DA61     		str	r2, [r3, #28]
 417:/home/rdu/Workspace/project_templates/mcu/stm32_ws/src/libraries/STM32F4xx_StdPeriph_Driver/src/stm32f4xx_rtc.c ****       RTC->ALRMBR = (uint32_t)0x00000000;
 130              		.loc 1 417 0
 131 00a0 144B     		ldr	r3, .L9
 132 00a2 0022     		movs	r2, #0
 133 00a4 1A62     		str	r2, [r3, #32]
 418:/home/rdu/Workspace/project_templates/mcu/stm32_ws/src/libraries/STM32F4xx_StdPeriph_Driver/src/stm32f4xx_rtc.c ****       RTC->SHIFTR = (uint32_t)0x00000000;
 134              		.loc 1 418 0
 135 00a6 134B     		ldr	r3, .L9
 136 00a8 0022     		movs	r2, #0
 137 00aa DA62     		str	r2, [r3, #44]
 419:/home/rdu/Workspace/project_templates/mcu/stm32_ws/src/libraries/STM32F4xx_StdPeriph_Driver/src/stm32f4xx_rtc.c ****       RTC->CALR = (uint32_t)0x00000000;
 138              		.loc 1 419 0
 139 00ac 114B     		ldr	r3, .L9
 140 00ae 0022     		movs	r2, #0
 141 00b0 DA63     		str	r2, [r3, #60]
 420:/home/rdu/Workspace/project_templates/mcu/stm32_ws/src/libraries/STM32F4xx_StdPeriph_Driver/src/stm32f4xx_rtc.c ****       RTC->ALRMASSR = (uint32_t)0x00000000;
 142              		.loc 1 420 0
 143 00b2 104B     		ldr	r3, .L9
 144 00b4 0022     		movs	r2, #0
 145 00b6 5A64     		str	r2, [r3, #68]
 421:/home/rdu/Workspace/project_templates/mcu/stm32_ws/src/libraries/STM32F4xx_StdPeriph_Driver/src/stm32f4xx_rtc.c ****       RTC->ALRMBSSR = (uint32_t)0x00000000;
 146              		.loc 1 421 0
 147 00b8 0E4B     		ldr	r3, .L9
 148 00ba 0022     		movs	r2, #0
 149 00bc 9A64     		str	r2, [r3, #72]
 422:/home/rdu/Workspace/project_templates/mcu/stm32_ws/src/libraries/STM32F4xx_StdPeriph_Driver/src/stm32f4xx_rtc.c ****       
 423:/home/rdu/Workspace/project_templates/mcu/stm32_ws/src/libraries/STM32F4xx_StdPeriph_Driver/src/stm32f4xx_rtc.c ****       /* Reset ISR register and exit initialization mode */
 424:/home/rdu/Workspace/project_templates/mcu/stm32_ws/src/libraries/STM32F4xx_StdPeriph_Driver/src/stm32f4xx_rtc.c ****       RTC->ISR = (uint32_t)0x00000000;
 150              		.loc 1 424 0
 151 00be 0D4B     		ldr	r3, .L9
 152 00c0 0022     		movs	r2, #0
 153 00c2 DA60     		str	r2, [r3, #12]
 425:/home/rdu/Workspace/project_templates/mcu/stm32_ws/src/libraries/STM32F4xx_StdPeriph_Driver/src/stm32f4xx_rtc.c ****       
 426:/home/rdu/Workspace/project_templates/mcu/stm32_ws/src/libraries/STM32F4xx_StdPeriph_Driver/src/stm32f4xx_rtc.c ****       /* Reset Tamper and alternate functions configuration register */
 427:/home/rdu/Workspace/project_templates/mcu/stm32_ws/src/libraries/STM32F4xx_StdPeriph_Driver/src/stm32f4xx_rtc.c ****       RTC->TAFCR = 0x00000000;
 154              		.loc 1 427 0
 155 00c4 0B4B     		ldr	r3, .L9
 156 00c6 0022     		movs	r2, #0
 157 00c8 1A64     		str	r2, [r3, #64]
 428:/home/rdu/Workspace/project_templates/mcu/stm32_ws/src/libraries/STM32F4xx_StdPeriph_Driver/src/stm32f4xx_rtc.c ****   
 429:/home/rdu/Workspace/project_templates/mcu/stm32_ws/src/libraries/STM32F4xx_StdPeriph_Driver/src/stm32f4xx_rtc.c ****       if(RTC_WaitForSynchro() == ERROR)
 158              		.loc 1 429 0
 159 00ca FFF7FEFF 		bl	RTC_WaitForSynchro
 160 00ce 0346     		mov	r3, r0
 161 00d0 002B     		cmp	r3, #0
 162 00d2 03D1     		bne	.L7
 430:/home/rdu/Workspace/project_templates/mcu/stm32_ws/src/libraries/STM32F4xx_StdPeriph_Driver/src/stm32f4xx_rtc.c ****       {
 431:/home/rdu/Workspace/project_templates/mcu/stm32_ws/src/libraries/STM32F4xx_StdPeriph_Driver/src/stm32f4xx_rtc.c ****         status = ERROR;
 163              		.loc 1 431 0
 164 00d4 0023     		movs	r3, #0
 165 00d6 8DF80F30 		strb	r3, [sp, #15]
 166 00da 02E0     		b	.L3
 167              	.L7:
 432:/home/rdu/Workspace/project_templates/mcu/stm32_ws/src/libraries/STM32F4xx_StdPeriph_Driver/src/stm32f4xx_rtc.c ****       }
 433:/home/rdu/Workspace/project_templates/mcu/stm32_ws/src/libraries/STM32F4xx_StdPeriph_Driver/src/stm32f4xx_rtc.c ****       else
 434:/home/rdu/Workspace/project_templates/mcu/stm32_ws/src/libraries/STM32F4xx_StdPeriph_Driver/src/stm32f4xx_rtc.c ****       {
 435:/home/rdu/Workspace/project_templates/mcu/stm32_ws/src/libraries/STM32F4xx_StdPeriph_Driver/src/stm32f4xx_rtc.c ****         status = SUCCESS;      
 168              		.loc 1 435 0
 169 00dc 0123     		movs	r3, #1
 170 00de 8DF80F30 		strb	r3, [sp, #15]
 171              	.L3:
 436:/home/rdu/Workspace/project_templates/mcu/stm32_ws/src/libraries/STM32F4xx_StdPeriph_Driver/src/stm32f4xx_rtc.c ****       }
 437:/home/rdu/Workspace/project_templates/mcu/stm32_ws/src/libraries/STM32F4xx_StdPeriph_Driver/src/stm32f4xx_rtc.c ****     }
 438:/home/rdu/Workspace/project_templates/mcu/stm32_ws/src/libraries/STM32F4xx_StdPeriph_Driver/src/stm32f4xx_rtc.c ****   }
 439:/home/rdu/Workspace/project_templates/mcu/stm32_ws/src/libraries/STM32F4xx_StdPeriph_Driver/src/stm32f4xx_rtc.c ****   
 440:/home/rdu/Workspace/project_templates/mcu/stm32_ws/src/libraries/STM32F4xx_StdPeriph_Driver/src/stm32f4xx_rtc.c ****   /* Enable the write protection for RTC registers */
 441:/home/rdu/Workspace/project_templates/mcu/stm32_ws/src/libraries/STM32F4xx_StdPeriph_Driver/src/stm32f4xx_rtc.c ****   RTC->WPR = 0xFF;  
 172              		.loc 1 441 0
 173 00e2 044B     		ldr	r3, .L9
 174 00e4 FF22     		movs	r2, #255
 175 00e6 5A62     		str	r2, [r3, #36]
 442:/home/rdu/Workspace/project_templates/mcu/stm32_ws/src/libraries/STM32F4xx_StdPeriph_Driver/src/stm32f4xx_rtc.c ****   
 443:/home/rdu/Workspace/project_templates/mcu/stm32_ws/src/libraries/STM32F4xx_StdPeriph_Driver/src/stm32f4xx_rtc.c ****   return status;
 176              		.loc 1 443 0
 177 00e8 9DF80F30 		ldrb	r3, [sp, #15]	@ zero_extendqisi2
 444:/home/rdu/Workspace/project_templates/mcu/stm32_ws/src/libraries/STM32F4xx_StdPeriph_Driver/src/stm32f4xx_rtc.c **** }
 178              		.loc 1 444 0
 179 00ec 1846     		mov	r0, r3
 180 00ee 05B0     		add	sp, sp, #20
 181              	.LCFI2:
 182              		.cfi_def_cfa_offset 4
 183              		@ sp needed
 184 00f0 5DF804FB 		ldr	pc, [sp], #4
 185              	.L10:
 186              		.align	2
 187              	.L9:
 188 00f4 00280040 		.word	1073752064
 189 00f8 FF007F00 		.word	8323327
 190              		.cfi_endproc
 191              	.LFE123:
 193              		.section	.text.RTC_Init,"ax",%progbits
 194              		.align	1
 195              		.global	RTC_Init
 196              		.syntax unified
 197              		.thumb
 198              		.thumb_func
 199              		.fpu fpv4-sp-d16
 201              	RTC_Init:
 202              	.LFB124:
 445:/home/rdu/Workspace/project_templates/mcu/stm32_ws/src/libraries/STM32F4xx_StdPeriph_Driver/src/stm32f4xx_rtc.c **** 
 446:/home/rdu/Workspace/project_templates/mcu/stm32_ws/src/libraries/STM32F4xx_StdPeriph_Driver/src/stm32f4xx_rtc.c **** /**
 447:/home/rdu/Workspace/project_templates/mcu/stm32_ws/src/libraries/STM32F4xx_StdPeriph_Driver/src/stm32f4xx_rtc.c ****   * @brief  Initializes the RTC registers according to the specified parameters 
 448:/home/rdu/Workspace/project_templates/mcu/stm32_ws/src/libraries/STM32F4xx_StdPeriph_Driver/src/stm32f4xx_rtc.c ****   *         in RTC_InitStruct.
 449:/home/rdu/Workspace/project_templates/mcu/stm32_ws/src/libraries/STM32F4xx_StdPeriph_Driver/src/stm32f4xx_rtc.c ****   * @param  RTC_InitStruct: pointer to a RTC_InitTypeDef structure that contains 
 450:/home/rdu/Workspace/project_templates/mcu/stm32_ws/src/libraries/STM32F4xx_StdPeriph_Driver/src/stm32f4xx_rtc.c ****   *         the configuration information for the RTC peripheral.
 451:/home/rdu/Workspace/project_templates/mcu/stm32_ws/src/libraries/STM32F4xx_StdPeriph_Driver/src/stm32f4xx_rtc.c ****   * @note   The RTC Prescaler register is write protected and can be written in 
 452:/home/rdu/Workspace/project_templates/mcu/stm32_ws/src/libraries/STM32F4xx_StdPeriph_Driver/src/stm32f4xx_rtc.c ****   *         initialization mode only.  
 453:/home/rdu/Workspace/project_templates/mcu/stm32_ws/src/libraries/STM32F4xx_StdPeriph_Driver/src/stm32f4xx_rtc.c ****   * @retval An ErrorStatus enumeration value:
 454:/home/rdu/Workspace/project_templates/mcu/stm32_ws/src/libraries/STM32F4xx_StdPeriph_Driver/src/stm32f4xx_rtc.c ****   *          - SUCCESS: RTC registers are initialized
 455:/home/rdu/Workspace/project_templates/mcu/stm32_ws/src/libraries/STM32F4xx_StdPeriph_Driver/src/stm32f4xx_rtc.c ****   *          - ERROR: RTC registers are not initialized  
 456:/home/rdu/Workspace/project_templates/mcu/stm32_ws/src/libraries/STM32F4xx_StdPeriph_Driver/src/stm32f4xx_rtc.c ****   */
 457:/home/rdu/Workspace/project_templates/mcu/stm32_ws/src/libraries/STM32F4xx_StdPeriph_Driver/src/stm32f4xx_rtc.c **** ErrorStatus RTC_Init(RTC_InitTypeDef* RTC_InitStruct)
 458:/home/rdu/Workspace/project_templates/mcu/stm32_ws/src/libraries/STM32F4xx_StdPeriph_Driver/src/stm32f4xx_rtc.c **** {
 203              		.loc 1 458 0
 204              		.cfi_startproc
 205              		@ args = 0, pretend = 0, frame = 16
 206              		@ frame_needed = 0, uses_anonymous_args = 0
 207 0000 00B5     		push	{lr}
 208              	.LCFI3:
 209              		.cfi_def_cfa_offset 4
 210              		.cfi_offset 14, -4
 211 0002 85B0     		sub	sp, sp, #20
 212              	.LCFI4:
 213              		.cfi_def_cfa_offset 24
 214 0004 0190     		str	r0, [sp, #4]
 459:/home/rdu/Workspace/project_templates/mcu/stm32_ws/src/libraries/STM32F4xx_StdPeriph_Driver/src/stm32f4xx_rtc.c ****   ErrorStatus status = ERROR;
 215              		.loc 1 459 0
 216 0006 0023     		movs	r3, #0
 217 0008 8DF80F30 		strb	r3, [sp, #15]
 460:/home/rdu/Workspace/project_templates/mcu/stm32_ws/src/libraries/STM32F4xx_StdPeriph_Driver/src/stm32f4xx_rtc.c ****   
 461:/home/rdu/Workspace/project_templates/mcu/stm32_ws/src/libraries/STM32F4xx_StdPeriph_Driver/src/stm32f4xx_rtc.c ****   /* Check the parameters */
 462:/home/rdu/Workspace/project_templates/mcu/stm32_ws/src/libraries/STM32F4xx_StdPeriph_Driver/src/stm32f4xx_rtc.c ****   assert_param(IS_RTC_HOUR_FORMAT(RTC_InitStruct->RTC_HourFormat));
 463:/home/rdu/Workspace/project_templates/mcu/stm32_ws/src/libraries/STM32F4xx_StdPeriph_Driver/src/stm32f4xx_rtc.c ****   assert_param(IS_RTC_ASYNCH_PREDIV(RTC_InitStruct->RTC_AsynchPrediv));
 464:/home/rdu/Workspace/project_templates/mcu/stm32_ws/src/libraries/STM32F4xx_StdPeriph_Driver/src/stm32f4xx_rtc.c ****   assert_param(IS_RTC_SYNCH_PREDIV(RTC_InitStruct->RTC_SynchPrediv));
 465:/home/rdu/Workspace/project_templates/mcu/stm32_ws/src/libraries/STM32F4xx_StdPeriph_Driver/src/stm32f4xx_rtc.c **** 
 466:/home/rdu/Workspace/project_templates/mcu/stm32_ws/src/libraries/STM32F4xx_StdPeriph_Driver/src/stm32f4xx_rtc.c ****   /* Disable the write protection for RTC registers */
 467:/home/rdu/Workspace/project_templates/mcu/stm32_ws/src/libraries/STM32F4xx_StdPeriph_Driver/src/stm32f4xx_rtc.c ****   RTC->WPR = 0xCA;
 218              		.loc 1 467 0
 219 000c 1A4B     		ldr	r3, .L15
 220 000e CA22     		movs	r2, #202
 221 0010 5A62     		str	r2, [r3, #36]
 468:/home/rdu/Workspace/project_templates/mcu/stm32_ws/src/libraries/STM32F4xx_StdPeriph_Driver/src/stm32f4xx_rtc.c ****   RTC->WPR = 0x53;
 222              		.loc 1 468 0
 223 0012 194B     		ldr	r3, .L15
 224 0014 5322     		movs	r2, #83
 225 0016 5A62     		str	r2, [r3, #36]
 469:/home/rdu/Workspace/project_templates/mcu/stm32_ws/src/libraries/STM32F4xx_StdPeriph_Driver/src/stm32f4xx_rtc.c **** 
 470:/home/rdu/Workspace/project_templates/mcu/stm32_ws/src/libraries/STM32F4xx_StdPeriph_Driver/src/stm32f4xx_rtc.c ****   /* Set Initialization mode */
 471:/home/rdu/Workspace/project_templates/mcu/stm32_ws/src/libraries/STM32F4xx_StdPeriph_Driver/src/stm32f4xx_rtc.c ****   if (RTC_EnterInitMode() == ERROR)
 226              		.loc 1 471 0
 227 0018 FFF7FEFF 		bl	RTC_EnterInitMode
 228 001c 0346     		mov	r3, r0
 229 001e 002B     		cmp	r3, #0
 230 0020 03D1     		bne	.L12
 472:/home/rdu/Workspace/project_templates/mcu/stm32_ws/src/libraries/STM32F4xx_StdPeriph_Driver/src/stm32f4xx_rtc.c ****   {
 473:/home/rdu/Workspace/project_templates/mcu/stm32_ws/src/libraries/STM32F4xx_StdPeriph_Driver/src/stm32f4xx_rtc.c ****     status = ERROR;
 231              		.loc 1 473 0
 232 0022 0023     		movs	r3, #0
 233 0024 8DF80F30 		strb	r3, [sp, #15]
 234 0028 1DE0     		b	.L13
 235              	.L12:
 474:/home/rdu/Workspace/project_templates/mcu/stm32_ws/src/libraries/STM32F4xx_StdPeriph_Driver/src/stm32f4xx_rtc.c ****   } 
 475:/home/rdu/Workspace/project_templates/mcu/stm32_ws/src/libraries/STM32F4xx_StdPeriph_Driver/src/stm32f4xx_rtc.c ****   else
 476:/home/rdu/Workspace/project_templates/mcu/stm32_ws/src/libraries/STM32F4xx_StdPeriph_Driver/src/stm32f4xx_rtc.c ****   {
 477:/home/rdu/Workspace/project_templates/mcu/stm32_ws/src/libraries/STM32F4xx_StdPeriph_Driver/src/stm32f4xx_rtc.c ****     /* Clear RTC CR FMT Bit */
 478:/home/rdu/Workspace/project_templates/mcu/stm32_ws/src/libraries/STM32F4xx_StdPeriph_Driver/src/stm32f4xx_rtc.c ****     RTC->CR &= ((uint32_t)~(RTC_CR_FMT));
 236              		.loc 1 478 0
 237 002a 134B     		ldr	r3, .L15
 238 002c 9B68     		ldr	r3, [r3, #8]
 239 002e 124A     		ldr	r2, .L15
 240 0030 23F04003 		bic	r3, r3, #64
 241 0034 9360     		str	r3, [r2, #8]
 479:/home/rdu/Workspace/project_templates/mcu/stm32_ws/src/libraries/STM32F4xx_StdPeriph_Driver/src/stm32f4xx_rtc.c ****     /* Set RTC_CR register */
 480:/home/rdu/Workspace/project_templates/mcu/stm32_ws/src/libraries/STM32F4xx_StdPeriph_Driver/src/stm32f4xx_rtc.c ****     RTC->CR |=  ((uint32_t)(RTC_InitStruct->RTC_HourFormat));
 242              		.loc 1 480 0
 243 0036 104B     		ldr	r3, .L15
 244 0038 9A68     		ldr	r2, [r3, #8]
 245 003a 019B     		ldr	r3, [sp, #4]
 246 003c 1B68     		ldr	r3, [r3]
 247 003e 0E49     		ldr	r1, .L15
 248 0040 1343     		orrs	r3, r3, r2
 249 0042 8B60     		str	r3, [r1, #8]
 481:/home/rdu/Workspace/project_templates/mcu/stm32_ws/src/libraries/STM32F4xx_StdPeriph_Driver/src/stm32f4xx_rtc.c ****   
 482:/home/rdu/Workspace/project_templates/mcu/stm32_ws/src/libraries/STM32F4xx_StdPeriph_Driver/src/stm32f4xx_rtc.c ****     /* Configure the RTC PRER */
 483:/home/rdu/Workspace/project_templates/mcu/stm32_ws/src/libraries/STM32F4xx_StdPeriph_Driver/src/stm32f4xx_rtc.c ****     RTC->PRER = (uint32_t)(RTC_InitStruct->RTC_SynchPrediv);
 250              		.loc 1 483 0
 251 0044 0C4A     		ldr	r2, .L15
 252 0046 019B     		ldr	r3, [sp, #4]
 253 0048 9B68     		ldr	r3, [r3, #8]
 254 004a 1361     		str	r3, [r2, #16]
 484:/home/rdu/Workspace/project_templates/mcu/stm32_ws/src/libraries/STM32F4xx_StdPeriph_Driver/src/stm32f4xx_rtc.c ****     RTC->PRER |= (uint32_t)(RTC_InitStruct->RTC_AsynchPrediv << 16);
 255              		.loc 1 484 0
 256 004c 0A4B     		ldr	r3, .L15
 257 004e 1A69     		ldr	r2, [r3, #16]
 258 0050 019B     		ldr	r3, [sp, #4]
 259 0052 5B68     		ldr	r3, [r3, #4]
 260 0054 1B04     		lsls	r3, r3, #16
 261 0056 0849     		ldr	r1, .L15
 262 0058 1343     		orrs	r3, r3, r2
 263 005a 0B61     		str	r3, [r1, #16]
 485:/home/rdu/Workspace/project_templates/mcu/stm32_ws/src/libraries/STM32F4xx_StdPeriph_Driver/src/stm32f4xx_rtc.c **** 
 486:/home/rdu/Workspace/project_templates/mcu/stm32_ws/src/libraries/STM32F4xx_StdPeriph_Driver/src/stm32f4xx_rtc.c ****     /* Exit Initialization mode */
 487:/home/rdu/Workspace/project_templates/mcu/stm32_ws/src/libraries/STM32F4xx_StdPeriph_Driver/src/stm32f4xx_rtc.c ****     RTC_ExitInitMode();
 264              		.loc 1 487 0
 265 005c FFF7FEFF 		bl	RTC_ExitInitMode
 488:/home/rdu/Workspace/project_templates/mcu/stm32_ws/src/libraries/STM32F4xx_StdPeriph_Driver/src/stm32f4xx_rtc.c **** 
 489:/home/rdu/Workspace/project_templates/mcu/stm32_ws/src/libraries/STM32F4xx_StdPeriph_Driver/src/stm32f4xx_rtc.c ****     status = SUCCESS;    
 266              		.loc 1 489 0
 267 0060 0123     		movs	r3, #1
 268 0062 8DF80F30 		strb	r3, [sp, #15]
 269              	.L13:
 490:/home/rdu/Workspace/project_templates/mcu/stm32_ws/src/libraries/STM32F4xx_StdPeriph_Driver/src/stm32f4xx_rtc.c ****   }
 491:/home/rdu/Workspace/project_templates/mcu/stm32_ws/src/libraries/STM32F4xx_StdPeriph_Driver/src/stm32f4xx_rtc.c ****   /* Enable the write protection for RTC registers */
 492:/home/rdu/Workspace/project_templates/mcu/stm32_ws/src/libraries/STM32F4xx_StdPeriph_Driver/src/stm32f4xx_rtc.c ****   RTC->WPR = 0xFF; 
 270              		.loc 1 492 0
 271 0066 044B     		ldr	r3, .L15
 272 0068 FF22     		movs	r2, #255
 273 006a 5A62     		str	r2, [r3, #36]
 493:/home/rdu/Workspace/project_templates/mcu/stm32_ws/src/libraries/STM32F4xx_StdPeriph_Driver/src/stm32f4xx_rtc.c ****   
 494:/home/rdu/Workspace/project_templates/mcu/stm32_ws/src/libraries/STM32F4xx_StdPeriph_Driver/src/stm32f4xx_rtc.c ****   return status;
 274              		.loc 1 494 0
 275 006c 9DF80F30 		ldrb	r3, [sp, #15]	@ zero_extendqisi2
 495:/home/rdu/Workspace/project_templates/mcu/stm32_ws/src/libraries/STM32F4xx_StdPeriph_Driver/src/stm32f4xx_rtc.c **** }
 276              		.loc 1 495 0
 277 0070 1846     		mov	r0, r3
 278 0072 05B0     		add	sp, sp, #20
 279              	.LCFI5:
 280              		.cfi_def_cfa_offset 4
 281              		@ sp needed
 282 0074 5DF804FB 		ldr	pc, [sp], #4
 283              	.L16:
 284              		.align	2
 285              	.L15:
 286 0078 00280040 		.word	1073752064
 287              		.cfi_endproc
 288              	.LFE124:
 290              		.section	.text.RTC_StructInit,"ax",%progbits
 291              		.align	1
 292              		.global	RTC_StructInit
 293              		.syntax unified
 294              		.thumb
 295              		.thumb_func
 296              		.fpu fpv4-sp-d16
 298              	RTC_StructInit:
 299              	.LFB125:
 496:/home/rdu/Workspace/project_templates/mcu/stm32_ws/src/libraries/STM32F4xx_StdPeriph_Driver/src/stm32f4xx_rtc.c **** 
 497:/home/rdu/Workspace/project_templates/mcu/stm32_ws/src/libraries/STM32F4xx_StdPeriph_Driver/src/stm32f4xx_rtc.c **** /**
 498:/home/rdu/Workspace/project_templates/mcu/stm32_ws/src/libraries/STM32F4xx_StdPeriph_Driver/src/stm32f4xx_rtc.c ****   * @brief  Fills each RTC_InitStruct member with its default value.
 499:/home/rdu/Workspace/project_templates/mcu/stm32_ws/src/libraries/STM32F4xx_StdPeriph_Driver/src/stm32f4xx_rtc.c ****   * @param  RTC_InitStruct: pointer to a RTC_InitTypeDef structure which will be 
 500:/home/rdu/Workspace/project_templates/mcu/stm32_ws/src/libraries/STM32F4xx_StdPeriph_Driver/src/stm32f4xx_rtc.c ****   *         initialized.
 501:/home/rdu/Workspace/project_templates/mcu/stm32_ws/src/libraries/STM32F4xx_StdPeriph_Driver/src/stm32f4xx_rtc.c ****   * @retval None
 502:/home/rdu/Workspace/project_templates/mcu/stm32_ws/src/libraries/STM32F4xx_StdPeriph_Driver/src/stm32f4xx_rtc.c ****   */
 503:/home/rdu/Workspace/project_templates/mcu/stm32_ws/src/libraries/STM32F4xx_StdPeriph_Driver/src/stm32f4xx_rtc.c **** void RTC_StructInit(RTC_InitTypeDef* RTC_InitStruct)
 504:/home/rdu/Workspace/project_templates/mcu/stm32_ws/src/libraries/STM32F4xx_StdPeriph_Driver/src/stm32f4xx_rtc.c **** {
 300              		.loc 1 504 0
 301              		.cfi_startproc
 302              		@ args = 0, pretend = 0, frame = 8
 303              		@ frame_needed = 0, uses_anonymous_args = 0
 304              		@ link register save eliminated.
 305 0000 82B0     		sub	sp, sp, #8
 306              	.LCFI6:
 307              		.cfi_def_cfa_offset 8
 308 0002 0190     		str	r0, [sp, #4]
 505:/home/rdu/Workspace/project_templates/mcu/stm32_ws/src/libraries/STM32F4xx_StdPeriph_Driver/src/stm32f4xx_rtc.c ****   /* Initialize the RTC_HourFormat member */
 506:/home/rdu/Workspace/project_templates/mcu/stm32_ws/src/libraries/STM32F4xx_StdPeriph_Driver/src/stm32f4xx_rtc.c ****   RTC_InitStruct->RTC_HourFormat = RTC_HourFormat_24;
 309              		.loc 1 506 0
 310 0004 019B     		ldr	r3, [sp, #4]
 311 0006 0022     		movs	r2, #0
 312 0008 1A60     		str	r2, [r3]
 507:/home/rdu/Workspace/project_templates/mcu/stm32_ws/src/libraries/STM32F4xx_StdPeriph_Driver/src/stm32f4xx_rtc.c ****     
 508:/home/rdu/Workspace/project_templates/mcu/stm32_ws/src/libraries/STM32F4xx_StdPeriph_Driver/src/stm32f4xx_rtc.c ****   /* Initialize the RTC_AsynchPrediv member */
 509:/home/rdu/Workspace/project_templates/mcu/stm32_ws/src/libraries/STM32F4xx_StdPeriph_Driver/src/stm32f4xx_rtc.c ****   RTC_InitStruct->RTC_AsynchPrediv = (uint32_t)0x7F;
 313              		.loc 1 509 0
 314 000a 019B     		ldr	r3, [sp, #4]
 315 000c 7F22     		movs	r2, #127
 316 000e 5A60     		str	r2, [r3, #4]
 510:/home/rdu/Workspace/project_templates/mcu/stm32_ws/src/libraries/STM32F4xx_StdPeriph_Driver/src/stm32f4xx_rtc.c **** 
 511:/home/rdu/Workspace/project_templates/mcu/stm32_ws/src/libraries/STM32F4xx_StdPeriph_Driver/src/stm32f4xx_rtc.c ****   /* Initialize the RTC_SynchPrediv member */
 512:/home/rdu/Workspace/project_templates/mcu/stm32_ws/src/libraries/STM32F4xx_StdPeriph_Driver/src/stm32f4xx_rtc.c ****   RTC_InitStruct->RTC_SynchPrediv = (uint32_t)0xFF; 
 317              		.loc 1 512 0
 318 0010 019B     		ldr	r3, [sp, #4]
 319 0012 FF22     		movs	r2, #255
 320 0014 9A60     		str	r2, [r3, #8]
 513:/home/rdu/Workspace/project_templates/mcu/stm32_ws/src/libraries/STM32F4xx_StdPeriph_Driver/src/stm32f4xx_rtc.c **** }
 321              		.loc 1 513 0
 322 0016 00BF     		nop
 323 0018 02B0     		add	sp, sp, #8
 324              	.LCFI7:
 325              		.cfi_def_cfa_offset 0
 326              		@ sp needed
 327 001a 7047     		bx	lr
 328              		.cfi_endproc
 329              	.LFE125:
 331              		.section	.text.RTC_WriteProtectionCmd,"ax",%progbits
 332              		.align	1
 333              		.global	RTC_WriteProtectionCmd
 334              		.syntax unified
 335              		.thumb
 336              		.thumb_func
 337              		.fpu fpv4-sp-d16
 339              	RTC_WriteProtectionCmd:
 340              	.LFB126:
 514:/home/rdu/Workspace/project_templates/mcu/stm32_ws/src/libraries/STM32F4xx_StdPeriph_Driver/src/stm32f4xx_rtc.c **** 
 515:/home/rdu/Workspace/project_templates/mcu/stm32_ws/src/libraries/STM32F4xx_StdPeriph_Driver/src/stm32f4xx_rtc.c **** /**
 516:/home/rdu/Workspace/project_templates/mcu/stm32_ws/src/libraries/STM32F4xx_StdPeriph_Driver/src/stm32f4xx_rtc.c ****   * @brief  Enables or disables the RTC registers write protection.
 517:/home/rdu/Workspace/project_templates/mcu/stm32_ws/src/libraries/STM32F4xx_StdPeriph_Driver/src/stm32f4xx_rtc.c ****   * @note   All the RTC registers are write protected except for RTC_ISR[13:8], 
 518:/home/rdu/Workspace/project_templates/mcu/stm32_ws/src/libraries/STM32F4xx_StdPeriph_Driver/src/stm32f4xx_rtc.c ****   *         RTC_TAFCR and RTC_BKPxR.
 519:/home/rdu/Workspace/project_templates/mcu/stm32_ws/src/libraries/STM32F4xx_StdPeriph_Driver/src/stm32f4xx_rtc.c ****   * @note   Writing a wrong key reactivates the write protection.
 520:/home/rdu/Workspace/project_templates/mcu/stm32_ws/src/libraries/STM32F4xx_StdPeriph_Driver/src/stm32f4xx_rtc.c ****   * @note   The protection mechanism is not affected by system reset.  
 521:/home/rdu/Workspace/project_templates/mcu/stm32_ws/src/libraries/STM32F4xx_StdPeriph_Driver/src/stm32f4xx_rtc.c ****   * @param  NewState: new state of the write protection.
 522:/home/rdu/Workspace/project_templates/mcu/stm32_ws/src/libraries/STM32F4xx_StdPeriph_Driver/src/stm32f4xx_rtc.c ****   *          This parameter can be: ENABLE or DISABLE.
 523:/home/rdu/Workspace/project_templates/mcu/stm32_ws/src/libraries/STM32F4xx_StdPeriph_Driver/src/stm32f4xx_rtc.c ****   * @retval None
 524:/home/rdu/Workspace/project_templates/mcu/stm32_ws/src/libraries/STM32F4xx_StdPeriph_Driver/src/stm32f4xx_rtc.c ****   */
 525:/home/rdu/Workspace/project_templates/mcu/stm32_ws/src/libraries/STM32F4xx_StdPeriph_Driver/src/stm32f4xx_rtc.c **** void RTC_WriteProtectionCmd(FunctionalState NewState)
 526:/home/rdu/Workspace/project_templates/mcu/stm32_ws/src/libraries/STM32F4xx_StdPeriph_Driver/src/stm32f4xx_rtc.c **** {
 341              		.loc 1 526 0
 342              		.cfi_startproc
 343              		@ args = 0, pretend = 0, frame = 8
 344              		@ frame_needed = 0, uses_anonymous_args = 0
 345              		@ link register save eliminated.
 346 0000 82B0     		sub	sp, sp, #8
 347              	.LCFI8:
 348              		.cfi_def_cfa_offset 8
 349 0002 0346     		mov	r3, r0
 350 0004 8DF80730 		strb	r3, [sp, #7]
 527:/home/rdu/Workspace/project_templates/mcu/stm32_ws/src/libraries/STM32F4xx_StdPeriph_Driver/src/stm32f4xx_rtc.c ****   /* Check the parameters */
 528:/home/rdu/Workspace/project_templates/mcu/stm32_ws/src/libraries/STM32F4xx_StdPeriph_Driver/src/stm32f4xx_rtc.c ****   assert_param(IS_FUNCTIONAL_STATE(NewState));
 529:/home/rdu/Workspace/project_templates/mcu/stm32_ws/src/libraries/STM32F4xx_StdPeriph_Driver/src/stm32f4xx_rtc.c ****     
 530:/home/rdu/Workspace/project_templates/mcu/stm32_ws/src/libraries/STM32F4xx_StdPeriph_Driver/src/stm32f4xx_rtc.c ****   if (NewState != DISABLE)
 351              		.loc 1 530 0
 352 0008 9DF80730 		ldrb	r3, [sp, #7]	@ zero_extendqisi2
 353 000c 002B     		cmp	r3, #0
 354 000e 03D0     		beq	.L19
 531:/home/rdu/Workspace/project_templates/mcu/stm32_ws/src/libraries/STM32F4xx_StdPeriph_Driver/src/stm32f4xx_rtc.c ****   {
 532:/home/rdu/Workspace/project_templates/mcu/stm32_ws/src/libraries/STM32F4xx_StdPeriph_Driver/src/stm32f4xx_rtc.c ****     /* Enable the write protection for RTC registers */
 533:/home/rdu/Workspace/project_templates/mcu/stm32_ws/src/libraries/STM32F4xx_StdPeriph_Driver/src/stm32f4xx_rtc.c ****     RTC->WPR = 0xFF;   
 355              		.loc 1 533 0
 356 0010 064B     		ldr	r3, .L22
 357 0012 FF22     		movs	r2, #255
 358 0014 5A62     		str	r2, [r3, #36]
 534:/home/rdu/Workspace/project_templates/mcu/stm32_ws/src/libraries/STM32F4xx_StdPeriph_Driver/src/stm32f4xx_rtc.c ****   }
 535:/home/rdu/Workspace/project_templates/mcu/stm32_ws/src/libraries/STM32F4xx_StdPeriph_Driver/src/stm32f4xx_rtc.c ****   else
 536:/home/rdu/Workspace/project_templates/mcu/stm32_ws/src/libraries/STM32F4xx_StdPeriph_Driver/src/stm32f4xx_rtc.c ****   {
 537:/home/rdu/Workspace/project_templates/mcu/stm32_ws/src/libraries/STM32F4xx_StdPeriph_Driver/src/stm32f4xx_rtc.c ****     /* Disable the write protection for RTC registers */
 538:/home/rdu/Workspace/project_templates/mcu/stm32_ws/src/libraries/STM32F4xx_StdPeriph_Driver/src/stm32f4xx_rtc.c ****     RTC->WPR = 0xCA;
 539:/home/rdu/Workspace/project_templates/mcu/stm32_ws/src/libraries/STM32F4xx_StdPeriph_Driver/src/stm32f4xx_rtc.c ****     RTC->WPR = 0x53;    
 540:/home/rdu/Workspace/project_templates/mcu/stm32_ws/src/libraries/STM32F4xx_StdPeriph_Driver/src/stm32f4xx_rtc.c ****   }
 541:/home/rdu/Workspace/project_templates/mcu/stm32_ws/src/libraries/STM32F4xx_StdPeriph_Driver/src/stm32f4xx_rtc.c **** }
 359              		.loc 1 541 0
 360 0016 05E0     		b	.L21
 361              	.L19:
 538:/home/rdu/Workspace/project_templates/mcu/stm32_ws/src/libraries/STM32F4xx_StdPeriph_Driver/src/stm32f4xx_rtc.c ****     RTC->WPR = 0x53;    
 362              		.loc 1 538 0
 363 0018 044B     		ldr	r3, .L22
 364 001a CA22     		movs	r2, #202
 365 001c 5A62     		str	r2, [r3, #36]
 539:/home/rdu/Workspace/project_templates/mcu/stm32_ws/src/libraries/STM32F4xx_StdPeriph_Driver/src/stm32f4xx_rtc.c ****   }
 366              		.loc 1 539 0
 367 001e 034B     		ldr	r3, .L22
 368 0020 5322     		movs	r2, #83
 369 0022 5A62     		str	r2, [r3, #36]
 370              	.L21:
 371              		.loc 1 541 0
 372 0024 00BF     		nop
 373 0026 02B0     		add	sp, sp, #8
 374              	.LCFI9:
 375              		.cfi_def_cfa_offset 0
 376              		@ sp needed
 377 0028 7047     		bx	lr
 378              	.L23:
 379 002a 00BF     		.align	2
 380              	.L22:
 381 002c 00280040 		.word	1073752064
 382              		.cfi_endproc
 383              	.LFE126:
 385              		.section	.text.RTC_EnterInitMode,"ax",%progbits
 386              		.align	1
 387              		.global	RTC_EnterInitMode
 388              		.syntax unified
 389              		.thumb
 390              		.thumb_func
 391              		.fpu fpv4-sp-d16
 393              	RTC_EnterInitMode:
 394              	.LFB127:
 542:/home/rdu/Workspace/project_templates/mcu/stm32_ws/src/libraries/STM32F4xx_StdPeriph_Driver/src/stm32f4xx_rtc.c **** 
 543:/home/rdu/Workspace/project_templates/mcu/stm32_ws/src/libraries/STM32F4xx_StdPeriph_Driver/src/stm32f4xx_rtc.c **** /**
 544:/home/rdu/Workspace/project_templates/mcu/stm32_ws/src/libraries/STM32F4xx_StdPeriph_Driver/src/stm32f4xx_rtc.c ****   * @brief  Enters the RTC Initialization mode.
 545:/home/rdu/Workspace/project_templates/mcu/stm32_ws/src/libraries/STM32F4xx_StdPeriph_Driver/src/stm32f4xx_rtc.c ****   * @note   The RTC Initialization mode is write protected, use the 
 546:/home/rdu/Workspace/project_templates/mcu/stm32_ws/src/libraries/STM32F4xx_StdPeriph_Driver/src/stm32f4xx_rtc.c ****   *         RTC_WriteProtectionCmd(DISABLE) before calling this function.    
 547:/home/rdu/Workspace/project_templates/mcu/stm32_ws/src/libraries/STM32F4xx_StdPeriph_Driver/src/stm32f4xx_rtc.c ****   * @param  None
 548:/home/rdu/Workspace/project_templates/mcu/stm32_ws/src/libraries/STM32F4xx_StdPeriph_Driver/src/stm32f4xx_rtc.c ****   * @retval An ErrorStatus enumeration value:
 549:/home/rdu/Workspace/project_templates/mcu/stm32_ws/src/libraries/STM32F4xx_StdPeriph_Driver/src/stm32f4xx_rtc.c ****   *          - SUCCESS: RTC is in Init mode
 550:/home/rdu/Workspace/project_templates/mcu/stm32_ws/src/libraries/STM32F4xx_StdPeriph_Driver/src/stm32f4xx_rtc.c ****   *          - ERROR: RTC is not in Init mode  
 551:/home/rdu/Workspace/project_templates/mcu/stm32_ws/src/libraries/STM32F4xx_StdPeriph_Driver/src/stm32f4xx_rtc.c ****   */
 552:/home/rdu/Workspace/project_templates/mcu/stm32_ws/src/libraries/STM32F4xx_StdPeriph_Driver/src/stm32f4xx_rtc.c **** ErrorStatus RTC_EnterInitMode(void)
 553:/home/rdu/Workspace/project_templates/mcu/stm32_ws/src/libraries/STM32F4xx_StdPeriph_Driver/src/stm32f4xx_rtc.c **** {
 395              		.loc 1 553 0
 396              		.cfi_startproc
 397              		@ args = 0, pretend = 0, frame = 16
 398              		@ frame_needed = 0, uses_anonymous_args = 0
 399              		@ link register save eliminated.
 400 0000 84B0     		sub	sp, sp, #16
 401              	.LCFI10:
 402              		.cfi_def_cfa_offset 16
 554:/home/rdu/Workspace/project_templates/mcu/stm32_ws/src/libraries/STM32F4xx_StdPeriph_Driver/src/stm32f4xx_rtc.c ****   __IO uint32_t initcounter = 0x00;
 403              		.loc 1 554 0
 404 0002 0023     		movs	r3, #0
 405 0004 0193     		str	r3, [sp, #4]
 555:/home/rdu/Workspace/project_templates/mcu/stm32_ws/src/libraries/STM32F4xx_StdPeriph_Driver/src/stm32f4xx_rtc.c ****   ErrorStatus status = ERROR;
 406              		.loc 1 555 0
 407 0006 0023     		movs	r3, #0
 408 0008 8DF80F30 		strb	r3, [sp, #15]
 556:/home/rdu/Workspace/project_templates/mcu/stm32_ws/src/libraries/STM32F4xx_StdPeriph_Driver/src/stm32f4xx_rtc.c ****   uint32_t initstatus = 0x00;
 409              		.loc 1 556 0
 410 000c 0023     		movs	r3, #0
 411 000e 0293     		str	r3, [sp, #8]
 557:/home/rdu/Workspace/project_templates/mcu/stm32_ws/src/libraries/STM32F4xx_StdPeriph_Driver/src/stm32f4xx_rtc.c ****      
 558:/home/rdu/Workspace/project_templates/mcu/stm32_ws/src/libraries/STM32F4xx_StdPeriph_Driver/src/stm32f4xx_rtc.c ****   /* Check if the Initialization mode is set */
 559:/home/rdu/Workspace/project_templates/mcu/stm32_ws/src/libraries/STM32F4xx_StdPeriph_Driver/src/stm32f4xx_rtc.c ****   if ((RTC->ISR & RTC_ISR_INITF) == (uint32_t)RESET)
 412              		.loc 1 559 0
 413 0010 174B     		ldr	r3, .L32
 414 0012 DB68     		ldr	r3, [r3, #12]
 415 0014 03F04003 		and	r3, r3, #64
 416 0018 002B     		cmp	r3, #0
 417 001a 20D1     		bne	.L25
 560:/home/rdu/Workspace/project_templates/mcu/stm32_ws/src/libraries/STM32F4xx_StdPeriph_Driver/src/stm32f4xx_rtc.c ****   {
 561:/home/rdu/Workspace/project_templates/mcu/stm32_ws/src/libraries/STM32F4xx_StdPeriph_Driver/src/stm32f4xx_rtc.c ****     /* Set the Initialization mode */
 562:/home/rdu/Workspace/project_templates/mcu/stm32_ws/src/libraries/STM32F4xx_StdPeriph_Driver/src/stm32f4xx_rtc.c ****     RTC->ISR = (uint32_t)RTC_INIT_MASK;
 418              		.loc 1 562 0
 419 001c 144B     		ldr	r3, .L32
 420 001e 4FF0FF32 		mov	r2, #-1
 421 0022 DA60     		str	r2, [r3, #12]
 422              	.L27:
 563:/home/rdu/Workspace/project_templates/mcu/stm32_ws/src/libraries/STM32F4xx_StdPeriph_Driver/src/stm32f4xx_rtc.c ****     
 564:/home/rdu/Workspace/project_templates/mcu/stm32_ws/src/libraries/STM32F4xx_StdPeriph_Driver/src/stm32f4xx_rtc.c ****     /* Wait till RTC is in INIT state and if Time out is reached exit */
 565:/home/rdu/Workspace/project_templates/mcu/stm32_ws/src/libraries/STM32F4xx_StdPeriph_Driver/src/stm32f4xx_rtc.c ****     do
 566:/home/rdu/Workspace/project_templates/mcu/stm32_ws/src/libraries/STM32F4xx_StdPeriph_Driver/src/stm32f4xx_rtc.c ****     {
 567:/home/rdu/Workspace/project_templates/mcu/stm32_ws/src/libraries/STM32F4xx_StdPeriph_Driver/src/stm32f4xx_rtc.c ****       initstatus = RTC->ISR & RTC_ISR_INITF;
 423              		.loc 1 567 0 discriminator 2
 424 0024 124B     		ldr	r3, .L32
 425 0026 DB68     		ldr	r3, [r3, #12]
 426 0028 03F04003 		and	r3, r3, #64
 427 002c 0293     		str	r3, [sp, #8]
 568:/home/rdu/Workspace/project_templates/mcu/stm32_ws/src/libraries/STM32F4xx_StdPeriph_Driver/src/stm32f4xx_rtc.c ****       initcounter++;  
 428              		.loc 1 568 0 discriminator 2
 429 002e 019B     		ldr	r3, [sp, #4]
 430 0030 0133     		adds	r3, r3, #1
 431 0032 0193     		str	r3, [sp, #4]
 569:/home/rdu/Workspace/project_templates/mcu/stm32_ws/src/libraries/STM32F4xx_StdPeriph_Driver/src/stm32f4xx_rtc.c ****     } while((initcounter != INITMODE_TIMEOUT) && (initstatus == 0x00));
 432              		.loc 1 569 0 discriminator 2
 433 0034 019B     		ldr	r3, [sp, #4]
 434 0036 B3F5803F 		cmp	r3, #65536
 435 003a 02D0     		beq	.L26
 436              		.loc 1 569 0 is_stmt 0 discriminator 1
 437 003c 029B     		ldr	r3, [sp, #8]
 438 003e 002B     		cmp	r3, #0
 439 0040 F0D0     		beq	.L27
 440              	.L26:
 570:/home/rdu/Workspace/project_templates/mcu/stm32_ws/src/libraries/STM32F4xx_StdPeriph_Driver/src/stm32f4xx_rtc.c ****     
 571:/home/rdu/Workspace/project_templates/mcu/stm32_ws/src/libraries/STM32F4xx_StdPeriph_Driver/src/stm32f4xx_rtc.c ****     if ((RTC->ISR & RTC_ISR_INITF) != RESET)
 441              		.loc 1 571 0 is_stmt 1
 442 0042 0B4B     		ldr	r3, .L32
 443 0044 DB68     		ldr	r3, [r3, #12]
 444 0046 03F04003 		and	r3, r3, #64
 445 004a 002B     		cmp	r3, #0
 446 004c 03D0     		beq	.L28
 572:/home/rdu/Workspace/project_templates/mcu/stm32_ws/src/libraries/STM32F4xx_StdPeriph_Driver/src/stm32f4xx_rtc.c ****     {
 573:/home/rdu/Workspace/project_templates/mcu/stm32_ws/src/libraries/STM32F4xx_StdPeriph_Driver/src/stm32f4xx_rtc.c ****       status = SUCCESS;
 447              		.loc 1 573 0
 448 004e 0123     		movs	r3, #1
 449 0050 8DF80F30 		strb	r3, [sp, #15]
 450 0054 06E0     		b	.L30
 451              	.L28:
 574:/home/rdu/Workspace/project_templates/mcu/stm32_ws/src/libraries/STM32F4xx_StdPeriph_Driver/src/stm32f4xx_rtc.c ****     }
 575:/home/rdu/Workspace/project_templates/mcu/stm32_ws/src/libraries/STM32F4xx_StdPeriph_Driver/src/stm32f4xx_rtc.c ****     else
 576:/home/rdu/Workspace/project_templates/mcu/stm32_ws/src/libraries/STM32F4xx_StdPeriph_Driver/src/stm32f4xx_rtc.c ****     {
 577:/home/rdu/Workspace/project_templates/mcu/stm32_ws/src/libraries/STM32F4xx_StdPeriph_Driver/src/stm32f4xx_rtc.c ****       status = ERROR;
 452              		.loc 1 577 0
 453 0056 0023     		movs	r3, #0
 454 0058 8DF80F30 		strb	r3, [sp, #15]
 455 005c 02E0     		b	.L30
 456              	.L25:
 578:/home/rdu/Workspace/project_templates/mcu/stm32_ws/src/libraries/STM32F4xx_StdPeriph_Driver/src/stm32f4xx_rtc.c ****     }        
 579:/home/rdu/Workspace/project_templates/mcu/stm32_ws/src/libraries/STM32F4xx_StdPeriph_Driver/src/stm32f4xx_rtc.c ****   }
 580:/home/rdu/Workspace/project_templates/mcu/stm32_ws/src/libraries/STM32F4xx_StdPeriph_Driver/src/stm32f4xx_rtc.c ****   else
 581:/home/rdu/Workspace/project_templates/mcu/stm32_ws/src/libraries/STM32F4xx_StdPeriph_Driver/src/stm32f4xx_rtc.c ****   {
 582:/home/rdu/Workspace/project_templates/mcu/stm32_ws/src/libraries/STM32F4xx_StdPeriph_Driver/src/stm32f4xx_rtc.c ****     status = SUCCESS;  
 457              		.loc 1 582 0
 458 005e 0123     		movs	r3, #1
 459 0060 8DF80F30 		strb	r3, [sp, #15]
 460              	.L30:
 583:/home/rdu/Workspace/project_templates/mcu/stm32_ws/src/libraries/STM32F4xx_StdPeriph_Driver/src/stm32f4xx_rtc.c ****   } 
 584:/home/rdu/Workspace/project_templates/mcu/stm32_ws/src/libraries/STM32F4xx_StdPeriph_Driver/src/stm32f4xx_rtc.c ****     
 585:/home/rdu/Workspace/project_templates/mcu/stm32_ws/src/libraries/STM32F4xx_StdPeriph_Driver/src/stm32f4xx_rtc.c ****   return (status);  
 461              		.loc 1 585 0
 462 0064 9DF80F30 		ldrb	r3, [sp, #15]	@ zero_extendqisi2
 586:/home/rdu/Workspace/project_templates/mcu/stm32_ws/src/libraries/STM32F4xx_StdPeriph_Driver/src/stm32f4xx_rtc.c **** }
 463              		.loc 1 586 0
 464 0068 1846     		mov	r0, r3
 465 006a 04B0     		add	sp, sp, #16
 466              	.LCFI11:
 467              		.cfi_def_cfa_offset 0
 468              		@ sp needed
 469 006c 7047     		bx	lr
 470              	.L33:
 471 006e 00BF     		.align	2
 472              	.L32:
 473 0070 00280040 		.word	1073752064
 474              		.cfi_endproc
 475              	.LFE127:
 477              		.section	.text.RTC_ExitInitMode,"ax",%progbits
 478              		.align	1
 479              		.global	RTC_ExitInitMode
 480              		.syntax unified
 481              		.thumb
 482              		.thumb_func
 483              		.fpu fpv4-sp-d16
 485              	RTC_ExitInitMode:
 486              	.LFB128:
 587:/home/rdu/Workspace/project_templates/mcu/stm32_ws/src/libraries/STM32F4xx_StdPeriph_Driver/src/stm32f4xx_rtc.c **** 
 588:/home/rdu/Workspace/project_templates/mcu/stm32_ws/src/libraries/STM32F4xx_StdPeriph_Driver/src/stm32f4xx_rtc.c **** /**
 589:/home/rdu/Workspace/project_templates/mcu/stm32_ws/src/libraries/STM32F4xx_StdPeriph_Driver/src/stm32f4xx_rtc.c ****   * @brief  Exits the RTC Initialization mode.
 590:/home/rdu/Workspace/project_templates/mcu/stm32_ws/src/libraries/STM32F4xx_StdPeriph_Driver/src/stm32f4xx_rtc.c ****   * @note   When the initialization sequence is complete, the calendar restarts 
 591:/home/rdu/Workspace/project_templates/mcu/stm32_ws/src/libraries/STM32F4xx_StdPeriph_Driver/src/stm32f4xx_rtc.c ****   *         counting after 4 RTCCLK cycles.  
 592:/home/rdu/Workspace/project_templates/mcu/stm32_ws/src/libraries/STM32F4xx_StdPeriph_Driver/src/stm32f4xx_rtc.c ****   * @note   The RTC Initialization mode is write protected, use the 
 593:/home/rdu/Workspace/project_templates/mcu/stm32_ws/src/libraries/STM32F4xx_StdPeriph_Driver/src/stm32f4xx_rtc.c ****   *         RTC_WriteProtectionCmd(DISABLE) before calling this function.      
 594:/home/rdu/Workspace/project_templates/mcu/stm32_ws/src/libraries/STM32F4xx_StdPeriph_Driver/src/stm32f4xx_rtc.c ****   * @param  None
 595:/home/rdu/Workspace/project_templates/mcu/stm32_ws/src/libraries/STM32F4xx_StdPeriph_Driver/src/stm32f4xx_rtc.c ****   * @retval None
 596:/home/rdu/Workspace/project_templates/mcu/stm32_ws/src/libraries/STM32F4xx_StdPeriph_Driver/src/stm32f4xx_rtc.c ****   */
 597:/home/rdu/Workspace/project_templates/mcu/stm32_ws/src/libraries/STM32F4xx_StdPeriph_Driver/src/stm32f4xx_rtc.c **** void RTC_ExitInitMode(void)
 598:/home/rdu/Workspace/project_templates/mcu/stm32_ws/src/libraries/STM32F4xx_StdPeriph_Driver/src/stm32f4xx_rtc.c **** { 
 487              		.loc 1 598 0
 488              		.cfi_startproc
 489              		@ args = 0, pretend = 0, frame = 0
 490              		@ frame_needed = 0, uses_anonymous_args = 0
 491              		@ link register save eliminated.
 599:/home/rdu/Workspace/project_templates/mcu/stm32_ws/src/libraries/STM32F4xx_StdPeriph_Driver/src/stm32f4xx_rtc.c ****   /* Exit Initialization mode */
 600:/home/rdu/Workspace/project_templates/mcu/stm32_ws/src/libraries/STM32F4xx_StdPeriph_Driver/src/stm32f4xx_rtc.c ****   RTC->ISR &= (uint32_t)~RTC_ISR_INIT;  
 492              		.loc 1 600 0
 493 0000 034B     		ldr	r3, .L35
 494 0002 DB68     		ldr	r3, [r3, #12]
 495 0004 024A     		ldr	r2, .L35
 496 0006 23F08003 		bic	r3, r3, #128
 497 000a D360     		str	r3, [r2, #12]
 601:/home/rdu/Workspace/project_templates/mcu/stm32_ws/src/libraries/STM32F4xx_StdPeriph_Driver/src/stm32f4xx_rtc.c **** }
 498              		.loc 1 601 0
 499 000c 00BF     		nop
 500 000e 7047     		bx	lr
 501              	.L36:
 502              		.align	2
 503              	.L35:
 504 0010 00280040 		.word	1073752064
 505              		.cfi_endproc
 506              	.LFE128:
 508              		.section	.text.RTC_WaitForSynchro,"ax",%progbits
 509              		.align	1
 510              		.global	RTC_WaitForSynchro
 511              		.syntax unified
 512              		.thumb
 513              		.thumb_func
 514              		.fpu fpv4-sp-d16
 516              	RTC_WaitForSynchro:
 517              	.LFB129:
 602:/home/rdu/Workspace/project_templates/mcu/stm32_ws/src/libraries/STM32F4xx_StdPeriph_Driver/src/stm32f4xx_rtc.c **** 
 603:/home/rdu/Workspace/project_templates/mcu/stm32_ws/src/libraries/STM32F4xx_StdPeriph_Driver/src/stm32f4xx_rtc.c **** /**
 604:/home/rdu/Workspace/project_templates/mcu/stm32_ws/src/libraries/STM32F4xx_StdPeriph_Driver/src/stm32f4xx_rtc.c ****   * @brief  Waits until the RTC Time and Date registers (RTC_TR and RTC_DR) are 
 605:/home/rdu/Workspace/project_templates/mcu/stm32_ws/src/libraries/STM32F4xx_StdPeriph_Driver/src/stm32f4xx_rtc.c ****   *         synchronized with RTC APB clock.
 606:/home/rdu/Workspace/project_templates/mcu/stm32_ws/src/libraries/STM32F4xx_StdPeriph_Driver/src/stm32f4xx_rtc.c ****   * @note   The RTC Resynchronization mode is write protected, use the 
 607:/home/rdu/Workspace/project_templates/mcu/stm32_ws/src/libraries/STM32F4xx_StdPeriph_Driver/src/stm32f4xx_rtc.c ****   *         RTC_WriteProtectionCmd(DISABLE) before calling this function. 
 608:/home/rdu/Workspace/project_templates/mcu/stm32_ws/src/libraries/STM32F4xx_StdPeriph_Driver/src/stm32f4xx_rtc.c ****   * @note   To read the calendar through the shadow registers after Calendar 
 609:/home/rdu/Workspace/project_templates/mcu/stm32_ws/src/libraries/STM32F4xx_StdPeriph_Driver/src/stm32f4xx_rtc.c ****   *         initialization, calendar update or after wakeup from low power modes 
 610:/home/rdu/Workspace/project_templates/mcu/stm32_ws/src/libraries/STM32F4xx_StdPeriph_Driver/src/stm32f4xx_rtc.c ****   *         the software must first clear the RSF flag. 
 611:/home/rdu/Workspace/project_templates/mcu/stm32_ws/src/libraries/STM32F4xx_StdPeriph_Driver/src/stm32f4xx_rtc.c ****   *         The software must then wait until it is set again before reading 
 612:/home/rdu/Workspace/project_templates/mcu/stm32_ws/src/libraries/STM32F4xx_StdPeriph_Driver/src/stm32f4xx_rtc.c ****   *         the calendar, which means that the calendar registers have been 
 613:/home/rdu/Workspace/project_templates/mcu/stm32_ws/src/libraries/STM32F4xx_StdPeriph_Driver/src/stm32f4xx_rtc.c ****   *         correctly copied into the RTC_TR and RTC_DR shadow registers.   
 614:/home/rdu/Workspace/project_templates/mcu/stm32_ws/src/libraries/STM32F4xx_StdPeriph_Driver/src/stm32f4xx_rtc.c ****   * @param  None
 615:/home/rdu/Workspace/project_templates/mcu/stm32_ws/src/libraries/STM32F4xx_StdPeriph_Driver/src/stm32f4xx_rtc.c ****   * @retval An ErrorStatus enumeration value:
 616:/home/rdu/Workspace/project_templates/mcu/stm32_ws/src/libraries/STM32F4xx_StdPeriph_Driver/src/stm32f4xx_rtc.c ****   *          - SUCCESS: RTC registers are synchronised
 617:/home/rdu/Workspace/project_templates/mcu/stm32_ws/src/libraries/STM32F4xx_StdPeriph_Driver/src/stm32f4xx_rtc.c ****   *          - ERROR: RTC registers are not synchronised
 618:/home/rdu/Workspace/project_templates/mcu/stm32_ws/src/libraries/STM32F4xx_StdPeriph_Driver/src/stm32f4xx_rtc.c ****   */
 619:/home/rdu/Workspace/project_templates/mcu/stm32_ws/src/libraries/STM32F4xx_StdPeriph_Driver/src/stm32f4xx_rtc.c **** ErrorStatus RTC_WaitForSynchro(void)
 620:/home/rdu/Workspace/project_templates/mcu/stm32_ws/src/libraries/STM32F4xx_StdPeriph_Driver/src/stm32f4xx_rtc.c **** {
 518              		.loc 1 620 0
 519              		.cfi_startproc
 520              		@ args = 0, pretend = 0, frame = 16
 521              		@ frame_needed = 0, uses_anonymous_args = 0
 522              		@ link register save eliminated.
 523 0000 84B0     		sub	sp, sp, #16
 524              	.LCFI12:
 525              		.cfi_def_cfa_offset 16
 621:/home/rdu/Workspace/project_templates/mcu/stm32_ws/src/libraries/STM32F4xx_StdPeriph_Driver/src/stm32f4xx_rtc.c ****   __IO uint32_t synchrocounter = 0;
 526              		.loc 1 621 0
 527 0002 0023     		movs	r3, #0
 528 0004 0193     		str	r3, [sp, #4]
 622:/home/rdu/Workspace/project_templates/mcu/stm32_ws/src/libraries/STM32F4xx_StdPeriph_Driver/src/stm32f4xx_rtc.c ****   ErrorStatus status = ERROR;
 529              		.loc 1 622 0
 530 0006 0023     		movs	r3, #0
 531 0008 8DF80F30 		strb	r3, [sp, #15]
 623:/home/rdu/Workspace/project_templates/mcu/stm32_ws/src/libraries/STM32F4xx_StdPeriph_Driver/src/stm32f4xx_rtc.c ****   uint32_t synchrostatus = 0x00;
 532              		.loc 1 623 0
 533 000c 0023     		movs	r3, #0
 534 000e 0293     		str	r3, [sp, #8]
 624:/home/rdu/Workspace/project_templates/mcu/stm32_ws/src/libraries/STM32F4xx_StdPeriph_Driver/src/stm32f4xx_rtc.c **** 
 625:/home/rdu/Workspace/project_templates/mcu/stm32_ws/src/libraries/STM32F4xx_StdPeriph_Driver/src/stm32f4xx_rtc.c ****   /* Disable the write protection for RTC registers */
 626:/home/rdu/Workspace/project_templates/mcu/stm32_ws/src/libraries/STM32F4xx_StdPeriph_Driver/src/stm32f4xx_rtc.c ****   RTC->WPR = 0xCA;
 535              		.loc 1 626 0
 536 0010 174B     		ldr	r3, .L43
 537 0012 CA22     		movs	r2, #202
 538 0014 5A62     		str	r2, [r3, #36]
 627:/home/rdu/Workspace/project_templates/mcu/stm32_ws/src/libraries/STM32F4xx_StdPeriph_Driver/src/stm32f4xx_rtc.c ****   RTC->WPR = 0x53;
 539              		.loc 1 627 0
 540 0016 164B     		ldr	r3, .L43
 541 0018 5322     		movs	r2, #83
 542 001a 5A62     		str	r2, [r3, #36]
 628:/home/rdu/Workspace/project_templates/mcu/stm32_ws/src/libraries/STM32F4xx_StdPeriph_Driver/src/stm32f4xx_rtc.c ****     
 629:/home/rdu/Workspace/project_templates/mcu/stm32_ws/src/libraries/STM32F4xx_StdPeriph_Driver/src/stm32f4xx_rtc.c ****   /* Clear RSF flag */
 630:/home/rdu/Workspace/project_templates/mcu/stm32_ws/src/libraries/STM32F4xx_StdPeriph_Driver/src/stm32f4xx_rtc.c ****   RTC->ISR &= (uint32_t)RTC_RSF_MASK;
 543              		.loc 1 630 0
 544 001c 144B     		ldr	r3, .L43
 545 001e DB68     		ldr	r3, [r3, #12]
 546 0020 134A     		ldr	r2, .L43
 547 0022 23F0A003 		bic	r3, r3, #160
 548 0026 D360     		str	r3, [r2, #12]
 549              	.L39:
 631:/home/rdu/Workspace/project_templates/mcu/stm32_ws/src/libraries/STM32F4xx_StdPeriph_Driver/src/stm32f4xx_rtc.c ****     
 632:/home/rdu/Workspace/project_templates/mcu/stm32_ws/src/libraries/STM32F4xx_StdPeriph_Driver/src/stm32f4xx_rtc.c ****   /* Wait the registers to be synchronised */
 633:/home/rdu/Workspace/project_templates/mcu/stm32_ws/src/libraries/STM32F4xx_StdPeriph_Driver/src/stm32f4xx_rtc.c ****   do
 634:/home/rdu/Workspace/project_templates/mcu/stm32_ws/src/libraries/STM32F4xx_StdPeriph_Driver/src/stm32f4xx_rtc.c ****   {
 635:/home/rdu/Workspace/project_templates/mcu/stm32_ws/src/libraries/STM32F4xx_StdPeriph_Driver/src/stm32f4xx_rtc.c ****     synchrostatus = RTC->ISR & RTC_ISR_RSF;
 550              		.loc 1 635 0 discriminator 2
 551 0028 114B     		ldr	r3, .L43
 552 002a DB68     		ldr	r3, [r3, #12]
 553 002c 03F02003 		and	r3, r3, #32
 554 0030 0293     		str	r3, [sp, #8]
 636:/home/rdu/Workspace/project_templates/mcu/stm32_ws/src/libraries/STM32F4xx_StdPeriph_Driver/src/stm32f4xx_rtc.c ****     synchrocounter++;  
 555              		.loc 1 636 0 discriminator 2
 556 0032 019B     		ldr	r3, [sp, #4]
 557 0034 0133     		adds	r3, r3, #1
 558 0036 0193     		str	r3, [sp, #4]
 637:/home/rdu/Workspace/project_templates/mcu/stm32_ws/src/libraries/STM32F4xx_StdPeriph_Driver/src/stm32f4xx_rtc.c ****   } while((synchrocounter != SYNCHRO_TIMEOUT) && (synchrostatus == 0x00));
 559              		.loc 1 637 0 discriminator 2
 560 0038 019B     		ldr	r3, [sp, #4]
 561 003a B3F5003F 		cmp	r3, #131072
 562 003e 02D0     		beq	.L38
 563              		.loc 1 637 0 is_stmt 0 discriminator 1
 564 0040 029B     		ldr	r3, [sp, #8]
 565 0042 002B     		cmp	r3, #0
 566 0044 F0D0     		beq	.L39
 567              	.L38:
 638:/home/rdu/Workspace/project_templates/mcu/stm32_ws/src/libraries/STM32F4xx_StdPeriph_Driver/src/stm32f4xx_rtc.c ****     
 639:/home/rdu/Workspace/project_templates/mcu/stm32_ws/src/libraries/STM32F4xx_StdPeriph_Driver/src/stm32f4xx_rtc.c ****   if ((RTC->ISR & RTC_ISR_RSF) != RESET)
 568              		.loc 1 639 0 is_stmt 1
 569 0046 0A4B     		ldr	r3, .L43
 570 0048 DB68     		ldr	r3, [r3, #12]
 571 004a 03F02003 		and	r3, r3, #32
 572 004e 002B     		cmp	r3, #0
 573 0050 03D0     		beq	.L40
 640:/home/rdu/Workspace/project_templates/mcu/stm32_ws/src/libraries/STM32F4xx_StdPeriph_Driver/src/stm32f4xx_rtc.c ****   {
 641:/home/rdu/Workspace/project_templates/mcu/stm32_ws/src/libraries/STM32F4xx_StdPeriph_Driver/src/stm32f4xx_rtc.c ****     status = SUCCESS;
 574              		.loc 1 641 0
 575 0052 0123     		movs	r3, #1
 576 0054 8DF80F30 		strb	r3, [sp, #15]
 577 0058 02E0     		b	.L41
 578              	.L40:
 642:/home/rdu/Workspace/project_templates/mcu/stm32_ws/src/libraries/STM32F4xx_StdPeriph_Driver/src/stm32f4xx_rtc.c ****   }
 643:/home/rdu/Workspace/project_templates/mcu/stm32_ws/src/libraries/STM32F4xx_StdPeriph_Driver/src/stm32f4xx_rtc.c ****   else
 644:/home/rdu/Workspace/project_templates/mcu/stm32_ws/src/libraries/STM32F4xx_StdPeriph_Driver/src/stm32f4xx_rtc.c ****   {
 645:/home/rdu/Workspace/project_templates/mcu/stm32_ws/src/libraries/STM32F4xx_StdPeriph_Driver/src/stm32f4xx_rtc.c ****     status = ERROR;
 579              		.loc 1 645 0
 580 005a 0023     		movs	r3, #0
 581 005c 8DF80F30 		strb	r3, [sp, #15]
 582              	.L41:
 646:/home/rdu/Workspace/project_templates/mcu/stm32_ws/src/libraries/STM32F4xx_StdPeriph_Driver/src/stm32f4xx_rtc.c ****   }        
 647:/home/rdu/Workspace/project_templates/mcu/stm32_ws/src/libraries/STM32F4xx_StdPeriph_Driver/src/stm32f4xx_rtc.c **** 
 648:/home/rdu/Workspace/project_templates/mcu/stm32_ws/src/libraries/STM32F4xx_StdPeriph_Driver/src/stm32f4xx_rtc.c ****   /* Enable the write protection for RTC registers */
 649:/home/rdu/Workspace/project_templates/mcu/stm32_ws/src/libraries/STM32F4xx_StdPeriph_Driver/src/stm32f4xx_rtc.c ****   RTC->WPR = 0xFF; 
 583              		.loc 1 649 0
 584 0060 034B     		ldr	r3, .L43
 585 0062 FF22     		movs	r2, #255
 586 0064 5A62     		str	r2, [r3, #36]
 650:/home/rdu/Workspace/project_templates/mcu/stm32_ws/src/libraries/STM32F4xx_StdPeriph_Driver/src/stm32f4xx_rtc.c ****     
 651:/home/rdu/Workspace/project_templates/mcu/stm32_ws/src/libraries/STM32F4xx_StdPeriph_Driver/src/stm32f4xx_rtc.c ****   return (status); 
 587              		.loc 1 651 0
 588 0066 9DF80F30 		ldrb	r3, [sp, #15]	@ zero_extendqisi2
 652:/home/rdu/Workspace/project_templates/mcu/stm32_ws/src/libraries/STM32F4xx_StdPeriph_Driver/src/stm32f4xx_rtc.c **** }
 589              		.loc 1 652 0
 590 006a 1846     		mov	r0, r3
 591 006c 04B0     		add	sp, sp, #16
 592              	.LCFI13:
 593              		.cfi_def_cfa_offset 0
 594              		@ sp needed
 595 006e 7047     		bx	lr
 596              	.L44:
 597              		.align	2
 598              	.L43:
 599 0070 00280040 		.word	1073752064
 600              		.cfi_endproc
 601              	.LFE129:
 603              		.section	.text.RTC_RefClockCmd,"ax",%progbits
 604              		.align	1
 605              		.global	RTC_RefClockCmd
 606              		.syntax unified
 607              		.thumb
 608              		.thumb_func
 609              		.fpu fpv4-sp-d16
 611              	RTC_RefClockCmd:
 612              	.LFB130:
 653:/home/rdu/Workspace/project_templates/mcu/stm32_ws/src/libraries/STM32F4xx_StdPeriph_Driver/src/stm32f4xx_rtc.c **** 
 654:/home/rdu/Workspace/project_templates/mcu/stm32_ws/src/libraries/STM32F4xx_StdPeriph_Driver/src/stm32f4xx_rtc.c **** /**
 655:/home/rdu/Workspace/project_templates/mcu/stm32_ws/src/libraries/STM32F4xx_StdPeriph_Driver/src/stm32f4xx_rtc.c ****   * @brief  Enables or disables the RTC reference clock detection.
 656:/home/rdu/Workspace/project_templates/mcu/stm32_ws/src/libraries/STM32F4xx_StdPeriph_Driver/src/stm32f4xx_rtc.c ****   * @param  NewState: new state of the RTC reference clock.
 657:/home/rdu/Workspace/project_templates/mcu/stm32_ws/src/libraries/STM32F4xx_StdPeriph_Driver/src/stm32f4xx_rtc.c ****   *          This parameter can be: ENABLE or DISABLE.
 658:/home/rdu/Workspace/project_templates/mcu/stm32_ws/src/libraries/STM32F4xx_StdPeriph_Driver/src/stm32f4xx_rtc.c ****   * @retval An ErrorStatus enumeration value:
 659:/home/rdu/Workspace/project_templates/mcu/stm32_ws/src/libraries/STM32F4xx_StdPeriph_Driver/src/stm32f4xx_rtc.c ****   *          - SUCCESS: RTC reference clock detection is enabled
 660:/home/rdu/Workspace/project_templates/mcu/stm32_ws/src/libraries/STM32F4xx_StdPeriph_Driver/src/stm32f4xx_rtc.c ****   *          - ERROR: RTC reference clock detection is disabled  
 661:/home/rdu/Workspace/project_templates/mcu/stm32_ws/src/libraries/STM32F4xx_StdPeriph_Driver/src/stm32f4xx_rtc.c ****   */
 662:/home/rdu/Workspace/project_templates/mcu/stm32_ws/src/libraries/STM32F4xx_StdPeriph_Driver/src/stm32f4xx_rtc.c **** ErrorStatus RTC_RefClockCmd(FunctionalState NewState)
 663:/home/rdu/Workspace/project_templates/mcu/stm32_ws/src/libraries/STM32F4xx_StdPeriph_Driver/src/stm32f4xx_rtc.c **** { 
 613              		.loc 1 663 0
 614              		.cfi_startproc
 615              		@ args = 0, pretend = 0, frame = 16
 616              		@ frame_needed = 0, uses_anonymous_args = 0
 617 0000 00B5     		push	{lr}
 618              	.LCFI14:
 619              		.cfi_def_cfa_offset 4
 620              		.cfi_offset 14, -4
 621 0002 85B0     		sub	sp, sp, #20
 622              	.LCFI15:
 623              		.cfi_def_cfa_offset 24
 624 0004 0346     		mov	r3, r0
 625 0006 8DF80730 		strb	r3, [sp, #7]
 664:/home/rdu/Workspace/project_templates/mcu/stm32_ws/src/libraries/STM32F4xx_StdPeriph_Driver/src/stm32f4xx_rtc.c ****   ErrorStatus status = ERROR;
 626              		.loc 1 664 0
 627 000a 0023     		movs	r3, #0
 628 000c 8DF80F30 		strb	r3, [sp, #15]
 665:/home/rdu/Workspace/project_templates/mcu/stm32_ws/src/libraries/STM32F4xx_StdPeriph_Driver/src/stm32f4xx_rtc.c ****   
 666:/home/rdu/Workspace/project_templates/mcu/stm32_ws/src/libraries/STM32F4xx_StdPeriph_Driver/src/stm32f4xx_rtc.c ****   /* Check the parameters */
 667:/home/rdu/Workspace/project_templates/mcu/stm32_ws/src/libraries/STM32F4xx_StdPeriph_Driver/src/stm32f4xx_rtc.c ****   assert_param(IS_FUNCTIONAL_STATE(NewState));
 668:/home/rdu/Workspace/project_templates/mcu/stm32_ws/src/libraries/STM32F4xx_StdPeriph_Driver/src/stm32f4xx_rtc.c ****   
 669:/home/rdu/Workspace/project_templates/mcu/stm32_ws/src/libraries/STM32F4xx_StdPeriph_Driver/src/stm32f4xx_rtc.c ****   /* Disable the write protection for RTC registers */
 670:/home/rdu/Workspace/project_templates/mcu/stm32_ws/src/libraries/STM32F4xx_StdPeriph_Driver/src/stm32f4xx_rtc.c ****   RTC->WPR = 0xCA;
 629              		.loc 1 670 0
 630 0010 164B     		ldr	r3, .L51
 631 0012 CA22     		movs	r2, #202
 632 0014 5A62     		str	r2, [r3, #36]
 671:/home/rdu/Workspace/project_templates/mcu/stm32_ws/src/libraries/STM32F4xx_StdPeriph_Driver/src/stm32f4xx_rtc.c ****   RTC->WPR = 0x53;
 633              		.loc 1 671 0
 634 0016 154B     		ldr	r3, .L51
 635 0018 5322     		movs	r2, #83
 636 001a 5A62     		str	r2, [r3, #36]
 672:/home/rdu/Workspace/project_templates/mcu/stm32_ws/src/libraries/STM32F4xx_StdPeriph_Driver/src/stm32f4xx_rtc.c ****     
 673:/home/rdu/Workspace/project_templates/mcu/stm32_ws/src/libraries/STM32F4xx_StdPeriph_Driver/src/stm32f4xx_rtc.c ****   /* Set Initialization mode */
 674:/home/rdu/Workspace/project_templates/mcu/stm32_ws/src/libraries/STM32F4xx_StdPeriph_Driver/src/stm32f4xx_rtc.c ****   if (RTC_EnterInitMode() == ERROR)
 637              		.loc 1 674 0
 638 001c FFF7FEFF 		bl	RTC_EnterInitMode
 639 0020 0346     		mov	r3, r0
 640 0022 002B     		cmp	r3, #0
 641 0024 03D1     		bne	.L46
 675:/home/rdu/Workspace/project_templates/mcu/stm32_ws/src/libraries/STM32F4xx_StdPeriph_Driver/src/stm32f4xx_rtc.c ****   {
 676:/home/rdu/Workspace/project_templates/mcu/stm32_ws/src/libraries/STM32F4xx_StdPeriph_Driver/src/stm32f4xx_rtc.c ****     status = ERROR;
 642              		.loc 1 676 0
 643 0026 0023     		movs	r3, #0
 644 0028 8DF80F30 		strb	r3, [sp, #15]
 645 002c 15E0     		b	.L47
 646              	.L46:
 677:/home/rdu/Workspace/project_templates/mcu/stm32_ws/src/libraries/STM32F4xx_StdPeriph_Driver/src/stm32f4xx_rtc.c ****   } 
 678:/home/rdu/Workspace/project_templates/mcu/stm32_ws/src/libraries/STM32F4xx_StdPeriph_Driver/src/stm32f4xx_rtc.c ****   else
 679:/home/rdu/Workspace/project_templates/mcu/stm32_ws/src/libraries/STM32F4xx_StdPeriph_Driver/src/stm32f4xx_rtc.c ****   {  
 680:/home/rdu/Workspace/project_templates/mcu/stm32_ws/src/libraries/STM32F4xx_StdPeriph_Driver/src/stm32f4xx_rtc.c ****     if (NewState != DISABLE)
 647              		.loc 1 680 0
 648 002e 9DF80730 		ldrb	r3, [sp, #7]	@ zero_extendqisi2
 649 0032 002B     		cmp	r3, #0
 650 0034 06D0     		beq	.L48
 681:/home/rdu/Workspace/project_templates/mcu/stm32_ws/src/libraries/STM32F4xx_StdPeriph_Driver/src/stm32f4xx_rtc.c ****     {
 682:/home/rdu/Workspace/project_templates/mcu/stm32_ws/src/libraries/STM32F4xx_StdPeriph_Driver/src/stm32f4xx_rtc.c ****       /* Enable the RTC reference clock detection */
 683:/home/rdu/Workspace/project_templates/mcu/stm32_ws/src/libraries/STM32F4xx_StdPeriph_Driver/src/stm32f4xx_rtc.c ****       RTC->CR |= RTC_CR_REFCKON;   
 651              		.loc 1 683 0
 652 0036 0D4B     		ldr	r3, .L51
 653 0038 9B68     		ldr	r3, [r3, #8]
 654 003a 0C4A     		ldr	r2, .L51
 655 003c 43F01003 		orr	r3, r3, #16
 656 0040 9360     		str	r3, [r2, #8]
 657 0042 05E0     		b	.L49
 658              	.L48:
 684:/home/rdu/Workspace/project_templates/mcu/stm32_ws/src/libraries/STM32F4xx_StdPeriph_Driver/src/stm32f4xx_rtc.c ****     }
 685:/home/rdu/Workspace/project_templates/mcu/stm32_ws/src/libraries/STM32F4xx_StdPeriph_Driver/src/stm32f4xx_rtc.c ****     else
 686:/home/rdu/Workspace/project_templates/mcu/stm32_ws/src/libraries/STM32F4xx_StdPeriph_Driver/src/stm32f4xx_rtc.c ****     {
 687:/home/rdu/Workspace/project_templates/mcu/stm32_ws/src/libraries/STM32F4xx_StdPeriph_Driver/src/stm32f4xx_rtc.c ****       /* Disable the RTC reference clock detection */
 688:/home/rdu/Workspace/project_templates/mcu/stm32_ws/src/libraries/STM32F4xx_StdPeriph_Driver/src/stm32f4xx_rtc.c ****       RTC->CR &= ~RTC_CR_REFCKON;    
 659              		.loc 1 688 0
 660 0044 094B     		ldr	r3, .L51
 661 0046 9B68     		ldr	r3, [r3, #8]
 662 0048 084A     		ldr	r2, .L51
 663 004a 23F01003 		bic	r3, r3, #16
 664 004e 9360     		str	r3, [r2, #8]
 665              	.L49:
 689:/home/rdu/Workspace/project_templates/mcu/stm32_ws/src/libraries/STM32F4xx_StdPeriph_Driver/src/stm32f4xx_rtc.c ****     }
 690:/home/rdu/Workspace/project_templates/mcu/stm32_ws/src/libraries/STM32F4xx_StdPeriph_Driver/src/stm32f4xx_rtc.c ****     /* Exit Initialization mode */
 691:/home/rdu/Workspace/project_templates/mcu/stm32_ws/src/libraries/STM32F4xx_StdPeriph_Driver/src/stm32f4xx_rtc.c ****     RTC_ExitInitMode();
 666              		.loc 1 691 0
 667 0050 FFF7FEFF 		bl	RTC_ExitInitMode
 692:/home/rdu/Workspace/project_templates/mcu/stm32_ws/src/libraries/STM32F4xx_StdPeriph_Driver/src/stm32f4xx_rtc.c ****     
 693:/home/rdu/Workspace/project_templates/mcu/stm32_ws/src/libraries/STM32F4xx_StdPeriph_Driver/src/stm32f4xx_rtc.c ****     status = SUCCESS;
 668              		.loc 1 693 0
 669 0054 0123     		movs	r3, #1
 670 0056 8DF80F30 		strb	r3, [sp, #15]
 671              	.L47:
 694:/home/rdu/Workspace/project_templates/mcu/stm32_ws/src/libraries/STM32F4xx_StdPeriph_Driver/src/stm32f4xx_rtc.c ****   }
 695:/home/rdu/Workspace/project_templates/mcu/stm32_ws/src/libraries/STM32F4xx_StdPeriph_Driver/src/stm32f4xx_rtc.c ****   
 696:/home/rdu/Workspace/project_templates/mcu/stm32_ws/src/libraries/STM32F4xx_StdPeriph_Driver/src/stm32f4xx_rtc.c ****   /* Enable the write protection for RTC registers */
 697:/home/rdu/Workspace/project_templates/mcu/stm32_ws/src/libraries/STM32F4xx_StdPeriph_Driver/src/stm32f4xx_rtc.c ****   RTC->WPR = 0xFF;  
 672              		.loc 1 697 0
 673 005a 044B     		ldr	r3, .L51
 674 005c FF22     		movs	r2, #255
 675 005e 5A62     		str	r2, [r3, #36]
 698:/home/rdu/Workspace/project_templates/mcu/stm32_ws/src/libraries/STM32F4xx_StdPeriph_Driver/src/stm32f4xx_rtc.c ****   
 699:/home/rdu/Workspace/project_templates/mcu/stm32_ws/src/libraries/STM32F4xx_StdPeriph_Driver/src/stm32f4xx_rtc.c ****   return status; 
 676              		.loc 1 699 0
 677 0060 9DF80F30 		ldrb	r3, [sp, #15]	@ zero_extendqisi2
 700:/home/rdu/Workspace/project_templates/mcu/stm32_ws/src/libraries/STM32F4xx_StdPeriph_Driver/src/stm32f4xx_rtc.c **** }
 678              		.loc 1 700 0
 679 0064 1846     		mov	r0, r3
 680 0066 05B0     		add	sp, sp, #20
 681              	.LCFI16:
 682              		.cfi_def_cfa_offset 4
 683              		@ sp needed
 684 0068 5DF804FB 		ldr	pc, [sp], #4
 685              	.L52:
 686              		.align	2
 687              	.L51:
 688 006c 00280040 		.word	1073752064
 689              		.cfi_endproc
 690              	.LFE130:
 692              		.section	.text.RTC_BypassShadowCmd,"ax",%progbits
 693              		.align	1
 694              		.global	RTC_BypassShadowCmd
 695              		.syntax unified
 696              		.thumb
 697              		.thumb_func
 698              		.fpu fpv4-sp-d16
 700              	RTC_BypassShadowCmd:
 701              	.LFB131:
 701:/home/rdu/Workspace/project_templates/mcu/stm32_ws/src/libraries/STM32F4xx_StdPeriph_Driver/src/stm32f4xx_rtc.c **** 
 702:/home/rdu/Workspace/project_templates/mcu/stm32_ws/src/libraries/STM32F4xx_StdPeriph_Driver/src/stm32f4xx_rtc.c **** /**
 703:/home/rdu/Workspace/project_templates/mcu/stm32_ws/src/libraries/STM32F4xx_StdPeriph_Driver/src/stm32f4xx_rtc.c ****   * @brief  Enables or Disables the Bypass Shadow feature.
 704:/home/rdu/Workspace/project_templates/mcu/stm32_ws/src/libraries/STM32F4xx_StdPeriph_Driver/src/stm32f4xx_rtc.c ****   * @note   When the Bypass Shadow is enabled the calendar value are taken 
 705:/home/rdu/Workspace/project_templates/mcu/stm32_ws/src/libraries/STM32F4xx_StdPeriph_Driver/src/stm32f4xx_rtc.c ****   *         directly from the Calendar counter.
 706:/home/rdu/Workspace/project_templates/mcu/stm32_ws/src/libraries/STM32F4xx_StdPeriph_Driver/src/stm32f4xx_rtc.c ****   * @param  NewState: new state of the Bypass Shadow feature.
 707:/home/rdu/Workspace/project_templates/mcu/stm32_ws/src/libraries/STM32F4xx_StdPeriph_Driver/src/stm32f4xx_rtc.c ****   *         This parameter can be: ENABLE or DISABLE.
 708:/home/rdu/Workspace/project_templates/mcu/stm32_ws/src/libraries/STM32F4xx_StdPeriph_Driver/src/stm32f4xx_rtc.c ****   * @retval None
 709:/home/rdu/Workspace/project_templates/mcu/stm32_ws/src/libraries/STM32F4xx_StdPeriph_Driver/src/stm32f4xx_rtc.c **** */
 710:/home/rdu/Workspace/project_templates/mcu/stm32_ws/src/libraries/STM32F4xx_StdPeriph_Driver/src/stm32f4xx_rtc.c **** void RTC_BypassShadowCmd(FunctionalState NewState)
 711:/home/rdu/Workspace/project_templates/mcu/stm32_ws/src/libraries/STM32F4xx_StdPeriph_Driver/src/stm32f4xx_rtc.c **** {
 702              		.loc 1 711 0
 703              		.cfi_startproc
 704              		@ args = 0, pretend = 0, frame = 8
 705              		@ frame_needed = 0, uses_anonymous_args = 0
 706              		@ link register save eliminated.
 707 0000 82B0     		sub	sp, sp, #8
 708              	.LCFI17:
 709              		.cfi_def_cfa_offset 8
 710 0002 0346     		mov	r3, r0
 711 0004 8DF80730 		strb	r3, [sp, #7]
 712:/home/rdu/Workspace/project_templates/mcu/stm32_ws/src/libraries/STM32F4xx_StdPeriph_Driver/src/stm32f4xx_rtc.c ****   /* Check the parameters */
 713:/home/rdu/Workspace/project_templates/mcu/stm32_ws/src/libraries/STM32F4xx_StdPeriph_Driver/src/stm32f4xx_rtc.c ****   assert_param(IS_FUNCTIONAL_STATE(NewState));
 714:/home/rdu/Workspace/project_templates/mcu/stm32_ws/src/libraries/STM32F4xx_StdPeriph_Driver/src/stm32f4xx_rtc.c **** 
 715:/home/rdu/Workspace/project_templates/mcu/stm32_ws/src/libraries/STM32F4xx_StdPeriph_Driver/src/stm32f4xx_rtc.c ****   /* Disable the write protection for RTC registers */
 716:/home/rdu/Workspace/project_templates/mcu/stm32_ws/src/libraries/STM32F4xx_StdPeriph_Driver/src/stm32f4xx_rtc.c ****   RTC->WPR = 0xCA;
 712              		.loc 1 716 0
 713 0008 0E4B     		ldr	r3, .L56
 714 000a CA22     		movs	r2, #202
 715 000c 5A62     		str	r2, [r3, #36]
 717:/home/rdu/Workspace/project_templates/mcu/stm32_ws/src/libraries/STM32F4xx_StdPeriph_Driver/src/stm32f4xx_rtc.c ****   RTC->WPR = 0x53;
 716              		.loc 1 717 0
 717 000e 0D4B     		ldr	r3, .L56
 718 0010 5322     		movs	r2, #83
 719 0012 5A62     		str	r2, [r3, #36]
 718:/home/rdu/Workspace/project_templates/mcu/stm32_ws/src/libraries/STM32F4xx_StdPeriph_Driver/src/stm32f4xx_rtc.c ****   
 719:/home/rdu/Workspace/project_templates/mcu/stm32_ws/src/libraries/STM32F4xx_StdPeriph_Driver/src/stm32f4xx_rtc.c ****   if (NewState != DISABLE)
 720              		.loc 1 719 0
 721 0014 9DF80730 		ldrb	r3, [sp, #7]	@ zero_extendqisi2
 722 0018 002B     		cmp	r3, #0
 723 001a 06D0     		beq	.L54
 720:/home/rdu/Workspace/project_templates/mcu/stm32_ws/src/libraries/STM32F4xx_StdPeriph_Driver/src/stm32f4xx_rtc.c ****   {
 721:/home/rdu/Workspace/project_templates/mcu/stm32_ws/src/libraries/STM32F4xx_StdPeriph_Driver/src/stm32f4xx_rtc.c ****     /* Set the BYPSHAD bit */
 722:/home/rdu/Workspace/project_templates/mcu/stm32_ws/src/libraries/STM32F4xx_StdPeriph_Driver/src/stm32f4xx_rtc.c ****     RTC->CR |= (uint8_t)RTC_CR_BYPSHAD;
 724              		.loc 1 722 0
 725 001c 094B     		ldr	r3, .L56
 726 001e 9B68     		ldr	r3, [r3, #8]
 727 0020 084A     		ldr	r2, .L56
 728 0022 43F02003 		orr	r3, r3, #32
 729 0026 9360     		str	r3, [r2, #8]
 730 0028 05E0     		b	.L55
 731              	.L54:
 723:/home/rdu/Workspace/project_templates/mcu/stm32_ws/src/libraries/STM32F4xx_StdPeriph_Driver/src/stm32f4xx_rtc.c ****   }
 724:/home/rdu/Workspace/project_templates/mcu/stm32_ws/src/libraries/STM32F4xx_StdPeriph_Driver/src/stm32f4xx_rtc.c ****   else
 725:/home/rdu/Workspace/project_templates/mcu/stm32_ws/src/libraries/STM32F4xx_StdPeriph_Driver/src/stm32f4xx_rtc.c ****   {
 726:/home/rdu/Workspace/project_templates/mcu/stm32_ws/src/libraries/STM32F4xx_StdPeriph_Driver/src/stm32f4xx_rtc.c ****     /* Reset the BYPSHAD bit */
 727:/home/rdu/Workspace/project_templates/mcu/stm32_ws/src/libraries/STM32F4xx_StdPeriph_Driver/src/stm32f4xx_rtc.c ****     RTC->CR &= (uint8_t)~RTC_CR_BYPSHAD;
 732              		.loc 1 727 0
 733 002a 064B     		ldr	r3, .L56
 734 002c 9B68     		ldr	r3, [r3, #8]
 735 002e 054A     		ldr	r2, .L56
 736 0030 03F0DF03 		and	r3, r3, #223
 737 0034 9360     		str	r3, [r2, #8]
 738              	.L55:
 728:/home/rdu/Workspace/project_templates/mcu/stm32_ws/src/libraries/STM32F4xx_StdPeriph_Driver/src/stm32f4xx_rtc.c ****   }
 729:/home/rdu/Workspace/project_templates/mcu/stm32_ws/src/libraries/STM32F4xx_StdPeriph_Driver/src/stm32f4xx_rtc.c **** 
 730:/home/rdu/Workspace/project_templates/mcu/stm32_ws/src/libraries/STM32F4xx_StdPeriph_Driver/src/stm32f4xx_rtc.c ****   /* Enable the write protection for RTC registers */
 731:/home/rdu/Workspace/project_templates/mcu/stm32_ws/src/libraries/STM32F4xx_StdPeriph_Driver/src/stm32f4xx_rtc.c ****   RTC->WPR = 0xFF;
 739              		.loc 1 731 0
 740 0036 034B     		ldr	r3, .L56
 741 0038 FF22     		movs	r2, #255
 742 003a 5A62     		str	r2, [r3, #36]
 732:/home/rdu/Workspace/project_templates/mcu/stm32_ws/src/libraries/STM32F4xx_StdPeriph_Driver/src/stm32f4xx_rtc.c **** }
 743              		.loc 1 732 0
 744 003c 00BF     		nop
 745 003e 02B0     		add	sp, sp, #8
 746              	.LCFI18:
 747              		.cfi_def_cfa_offset 0
 748              		@ sp needed
 749 0040 7047     		bx	lr
 750              	.L57:
 751 0042 00BF     		.align	2
 752              	.L56:
 753 0044 00280040 		.word	1073752064
 754              		.cfi_endproc
 755              	.LFE131:
 757              		.section	.text.RTC_SetTime,"ax",%progbits
 758              		.align	1
 759              		.global	RTC_SetTime
 760              		.syntax unified
 761              		.thumb
 762              		.thumb_func
 763              		.fpu fpv4-sp-d16
 765              	RTC_SetTime:
 766              	.LFB132:
 733:/home/rdu/Workspace/project_templates/mcu/stm32_ws/src/libraries/STM32F4xx_StdPeriph_Driver/src/stm32f4xx_rtc.c **** 
 734:/home/rdu/Workspace/project_templates/mcu/stm32_ws/src/libraries/STM32F4xx_StdPeriph_Driver/src/stm32f4xx_rtc.c **** /**
 735:/home/rdu/Workspace/project_templates/mcu/stm32_ws/src/libraries/STM32F4xx_StdPeriph_Driver/src/stm32f4xx_rtc.c ****   * @}
 736:/home/rdu/Workspace/project_templates/mcu/stm32_ws/src/libraries/STM32F4xx_StdPeriph_Driver/src/stm32f4xx_rtc.c ****   */
 737:/home/rdu/Workspace/project_templates/mcu/stm32_ws/src/libraries/STM32F4xx_StdPeriph_Driver/src/stm32f4xx_rtc.c **** 
 738:/home/rdu/Workspace/project_templates/mcu/stm32_ws/src/libraries/STM32F4xx_StdPeriph_Driver/src/stm32f4xx_rtc.c **** /** @defgroup RTC_Group2 Time and Date configuration functions
 739:/home/rdu/Workspace/project_templates/mcu/stm32_ws/src/libraries/STM32F4xx_StdPeriph_Driver/src/stm32f4xx_rtc.c ****  *  @brief   Time and Date configuration functions 
 740:/home/rdu/Workspace/project_templates/mcu/stm32_ws/src/libraries/STM32F4xx_StdPeriph_Driver/src/stm32f4xx_rtc.c ****  *
 741:/home/rdu/Workspace/project_templates/mcu/stm32_ws/src/libraries/STM32F4xx_StdPeriph_Driver/src/stm32f4xx_rtc.c **** @verbatim   
 742:/home/rdu/Workspace/project_templates/mcu/stm32_ws/src/libraries/STM32F4xx_StdPeriph_Driver/src/stm32f4xx_rtc.c ****  ===============================================================================
 743:/home/rdu/Workspace/project_templates/mcu/stm32_ws/src/libraries/STM32F4xx_StdPeriph_Driver/src/stm32f4xx_rtc.c ****                  ##### Time and Date configuration functions #####
 744:/home/rdu/Workspace/project_templates/mcu/stm32_ws/src/libraries/STM32F4xx_StdPeriph_Driver/src/stm32f4xx_rtc.c ****  ===============================================================================  
 745:/home/rdu/Workspace/project_templates/mcu/stm32_ws/src/libraries/STM32F4xx_StdPeriph_Driver/src/stm32f4xx_rtc.c ****  
 746:/home/rdu/Workspace/project_templates/mcu/stm32_ws/src/libraries/STM32F4xx_StdPeriph_Driver/src/stm32f4xx_rtc.c ****  [..] This section provide functions allowing to program and read the RTC Calendar
 747:/home/rdu/Workspace/project_templates/mcu/stm32_ws/src/libraries/STM32F4xx_StdPeriph_Driver/src/stm32f4xx_rtc.c ****       (Time and Date).
 748:/home/rdu/Workspace/project_templates/mcu/stm32_ws/src/libraries/STM32F4xx_StdPeriph_Driver/src/stm32f4xx_rtc.c **** 
 749:/home/rdu/Workspace/project_templates/mcu/stm32_ws/src/libraries/STM32F4xx_StdPeriph_Driver/src/stm32f4xx_rtc.c **** @endverbatim
 750:/home/rdu/Workspace/project_templates/mcu/stm32_ws/src/libraries/STM32F4xx_StdPeriph_Driver/src/stm32f4xx_rtc.c ****   * @{
 751:/home/rdu/Workspace/project_templates/mcu/stm32_ws/src/libraries/STM32F4xx_StdPeriph_Driver/src/stm32f4xx_rtc.c ****   */
 752:/home/rdu/Workspace/project_templates/mcu/stm32_ws/src/libraries/STM32F4xx_StdPeriph_Driver/src/stm32f4xx_rtc.c **** 
 753:/home/rdu/Workspace/project_templates/mcu/stm32_ws/src/libraries/STM32F4xx_StdPeriph_Driver/src/stm32f4xx_rtc.c **** /**
 754:/home/rdu/Workspace/project_templates/mcu/stm32_ws/src/libraries/STM32F4xx_StdPeriph_Driver/src/stm32f4xx_rtc.c ****   * @brief  Set the RTC current time.
 755:/home/rdu/Workspace/project_templates/mcu/stm32_ws/src/libraries/STM32F4xx_StdPeriph_Driver/src/stm32f4xx_rtc.c ****   * @param  RTC_Format: specifies the format of the entered parameters.
 756:/home/rdu/Workspace/project_templates/mcu/stm32_ws/src/libraries/STM32F4xx_StdPeriph_Driver/src/stm32f4xx_rtc.c ****   *          This parameter can be  one of the following values:
 757:/home/rdu/Workspace/project_templates/mcu/stm32_ws/src/libraries/STM32F4xx_StdPeriph_Driver/src/stm32f4xx_rtc.c ****   *            @arg RTC_Format_BIN:  Binary data format 
 758:/home/rdu/Workspace/project_templates/mcu/stm32_ws/src/libraries/STM32F4xx_StdPeriph_Driver/src/stm32f4xx_rtc.c ****   *            @arg RTC_Format_BCD:  BCD data format
 759:/home/rdu/Workspace/project_templates/mcu/stm32_ws/src/libraries/STM32F4xx_StdPeriph_Driver/src/stm32f4xx_rtc.c ****   * @param  RTC_TimeStruct: pointer to a RTC_TimeTypeDef structure that contains 
 760:/home/rdu/Workspace/project_templates/mcu/stm32_ws/src/libraries/STM32F4xx_StdPeriph_Driver/src/stm32f4xx_rtc.c ****   *                        the time configuration information for the RTC.     
 761:/home/rdu/Workspace/project_templates/mcu/stm32_ws/src/libraries/STM32F4xx_StdPeriph_Driver/src/stm32f4xx_rtc.c ****   * @retval An ErrorStatus enumeration value:
 762:/home/rdu/Workspace/project_templates/mcu/stm32_ws/src/libraries/STM32F4xx_StdPeriph_Driver/src/stm32f4xx_rtc.c ****   *          - SUCCESS: RTC Time register is configured
 763:/home/rdu/Workspace/project_templates/mcu/stm32_ws/src/libraries/STM32F4xx_StdPeriph_Driver/src/stm32f4xx_rtc.c ****   *          - ERROR: RTC Time register is not configured
 764:/home/rdu/Workspace/project_templates/mcu/stm32_ws/src/libraries/STM32F4xx_StdPeriph_Driver/src/stm32f4xx_rtc.c ****   */
 765:/home/rdu/Workspace/project_templates/mcu/stm32_ws/src/libraries/STM32F4xx_StdPeriph_Driver/src/stm32f4xx_rtc.c **** ErrorStatus RTC_SetTime(uint32_t RTC_Format, RTC_TimeTypeDef* RTC_TimeStruct)
 766:/home/rdu/Workspace/project_templates/mcu/stm32_ws/src/libraries/STM32F4xx_StdPeriph_Driver/src/stm32f4xx_rtc.c **** {
 767              		.loc 1 766 0
 768              		.cfi_startproc
 769              		@ args = 0, pretend = 0, frame = 16
 770              		@ frame_needed = 0, uses_anonymous_args = 0
 771 0000 10B5     		push	{r4, lr}
 772              	.LCFI19:
 773              		.cfi_def_cfa_offset 8
 774              		.cfi_offset 4, -8
 775              		.cfi_offset 14, -4
 776 0002 84B0     		sub	sp, sp, #16
 777              	.LCFI20:
 778              		.cfi_def_cfa_offset 24
 779 0004 0190     		str	r0, [sp, #4]
 780 0006 0091     		str	r1, [sp]
 767:/home/rdu/Workspace/project_templates/mcu/stm32_ws/src/libraries/STM32F4xx_StdPeriph_Driver/src/stm32f4xx_rtc.c ****   uint32_t tmpreg = 0;
 781              		.loc 1 767 0
 782 0008 0023     		movs	r3, #0
 783 000a 0393     		str	r3, [sp, #12]
 768:/home/rdu/Workspace/project_templates/mcu/stm32_ws/src/libraries/STM32F4xx_StdPeriph_Driver/src/stm32f4xx_rtc.c ****   ErrorStatus status = ERROR;
 784              		.loc 1 768 0
 785 000c 0023     		movs	r3, #0
 786 000e 8DF80B30 		strb	r3, [sp, #11]
 769:/home/rdu/Workspace/project_templates/mcu/stm32_ws/src/libraries/STM32F4xx_StdPeriph_Driver/src/stm32f4xx_rtc.c ****     
 770:/home/rdu/Workspace/project_templates/mcu/stm32_ws/src/libraries/STM32F4xx_StdPeriph_Driver/src/stm32f4xx_rtc.c ****   /* Check the parameters */
 771:/home/rdu/Workspace/project_templates/mcu/stm32_ws/src/libraries/STM32F4xx_StdPeriph_Driver/src/stm32f4xx_rtc.c ****   assert_param(IS_RTC_FORMAT(RTC_Format));
 772:/home/rdu/Workspace/project_templates/mcu/stm32_ws/src/libraries/STM32F4xx_StdPeriph_Driver/src/stm32f4xx_rtc.c ****   
 773:/home/rdu/Workspace/project_templates/mcu/stm32_ws/src/libraries/STM32F4xx_StdPeriph_Driver/src/stm32f4xx_rtc.c ****   if (RTC_Format == RTC_Format_BIN)
 787              		.loc 1 773 0
 788 0012 019B     		ldr	r3, [sp, #4]
 789 0014 002B     		cmp	r3, #0
 790 0016 09D1     		bne	.L59
 774:/home/rdu/Workspace/project_templates/mcu/stm32_ws/src/libraries/STM32F4xx_StdPeriph_Driver/src/stm32f4xx_rtc.c ****   {
 775:/home/rdu/Workspace/project_templates/mcu/stm32_ws/src/libraries/STM32F4xx_StdPeriph_Driver/src/stm32f4xx_rtc.c ****     if ((RTC->CR & RTC_CR_FMT) != (uint32_t)RESET)
 791              		.loc 1 775 0
 792 0018 3F4B     		ldr	r3, .L71
 793 001a 9B68     		ldr	r3, [r3, #8]
 794 001c 03F04003 		and	r3, r3, #64
 795 0020 002B     		cmp	r3, #0
 796 0022 14D1     		bne	.L61
 776:/home/rdu/Workspace/project_templates/mcu/stm32_ws/src/libraries/STM32F4xx_StdPeriph_Driver/src/stm32f4xx_rtc.c ****     {
 777:/home/rdu/Workspace/project_templates/mcu/stm32_ws/src/libraries/STM32F4xx_StdPeriph_Driver/src/stm32f4xx_rtc.c ****       assert_param(IS_RTC_HOUR12(RTC_TimeStruct->RTC_Hours));
 778:/home/rdu/Workspace/project_templates/mcu/stm32_ws/src/libraries/STM32F4xx_StdPeriph_Driver/src/stm32f4xx_rtc.c ****       assert_param(IS_RTC_H12(RTC_TimeStruct->RTC_H12));
 779:/home/rdu/Workspace/project_templates/mcu/stm32_ws/src/libraries/STM32F4xx_StdPeriph_Driver/src/stm32f4xx_rtc.c ****     } 
 780:/home/rdu/Workspace/project_templates/mcu/stm32_ws/src/libraries/STM32F4xx_StdPeriph_Driver/src/stm32f4xx_rtc.c ****     else
 781:/home/rdu/Workspace/project_templates/mcu/stm32_ws/src/libraries/STM32F4xx_StdPeriph_Driver/src/stm32f4xx_rtc.c ****     {
 782:/home/rdu/Workspace/project_templates/mcu/stm32_ws/src/libraries/STM32F4xx_StdPeriph_Driver/src/stm32f4xx_rtc.c ****       RTC_TimeStruct->RTC_H12 = 0x00;
 797              		.loc 1 782 0
 798 0024 009B     		ldr	r3, [sp]
 799 0026 0022     		movs	r2, #0
 800 0028 DA70     		strb	r2, [r3, #3]
 801 002a 10E0     		b	.L61
 802              	.L59:
 783:/home/rdu/Workspace/project_templates/mcu/stm32_ws/src/libraries/STM32F4xx_StdPeriph_Driver/src/stm32f4xx_rtc.c ****       assert_param(IS_RTC_HOUR24(RTC_TimeStruct->RTC_Hours));
 784:/home/rdu/Workspace/project_templates/mcu/stm32_ws/src/libraries/STM32F4xx_StdPeriph_Driver/src/stm32f4xx_rtc.c ****     }
 785:/home/rdu/Workspace/project_templates/mcu/stm32_ws/src/libraries/STM32F4xx_StdPeriph_Driver/src/stm32f4xx_rtc.c ****     assert_param(IS_RTC_MINUTES(RTC_TimeStruct->RTC_Minutes));
 786:/home/rdu/Workspace/project_templates/mcu/stm32_ws/src/libraries/STM32F4xx_StdPeriph_Driver/src/stm32f4xx_rtc.c ****     assert_param(IS_RTC_SECONDS(RTC_TimeStruct->RTC_Seconds));
 787:/home/rdu/Workspace/project_templates/mcu/stm32_ws/src/libraries/STM32F4xx_StdPeriph_Driver/src/stm32f4xx_rtc.c ****   }
 788:/home/rdu/Workspace/project_templates/mcu/stm32_ws/src/libraries/STM32F4xx_StdPeriph_Driver/src/stm32f4xx_rtc.c ****   else
 789:/home/rdu/Workspace/project_templates/mcu/stm32_ws/src/libraries/STM32F4xx_StdPeriph_Driver/src/stm32f4xx_rtc.c ****   {
 790:/home/rdu/Workspace/project_templates/mcu/stm32_ws/src/libraries/STM32F4xx_StdPeriph_Driver/src/stm32f4xx_rtc.c ****     if ((RTC->CR & RTC_CR_FMT) != (uint32_t)RESET)
 803              		.loc 1 790 0
 804 002c 3A4B     		ldr	r3, .L71
 805 002e 9B68     		ldr	r3, [r3, #8]
 806 0030 03F04003 		and	r3, r3, #64
 807 0034 002B     		cmp	r3, #0
 808 0036 07D0     		beq	.L62
 791:/home/rdu/Workspace/project_templates/mcu/stm32_ws/src/libraries/STM32F4xx_StdPeriph_Driver/src/stm32f4xx_rtc.c ****     {
 792:/home/rdu/Workspace/project_templates/mcu/stm32_ws/src/libraries/STM32F4xx_StdPeriph_Driver/src/stm32f4xx_rtc.c ****       tmpreg = RTC_Bcd2ToByte(RTC_TimeStruct->RTC_Hours);
 809              		.loc 1 792 0
 810 0038 009B     		ldr	r3, [sp]
 811 003a 1B78     		ldrb	r3, [r3]	@ zero_extendqisi2
 812 003c 1846     		mov	r0, r3
 813 003e FFF7FEFF 		bl	RTC_Bcd2ToByte
 814 0042 0346     		mov	r3, r0
 815 0044 0393     		str	r3, [sp, #12]
 816 0046 02E0     		b	.L61
 817              	.L62:
 793:/home/rdu/Workspace/project_templates/mcu/stm32_ws/src/libraries/STM32F4xx_StdPeriph_Driver/src/stm32f4xx_rtc.c ****       assert_param(IS_RTC_HOUR12(tmpreg));
 794:/home/rdu/Workspace/project_templates/mcu/stm32_ws/src/libraries/STM32F4xx_StdPeriph_Driver/src/stm32f4xx_rtc.c ****       assert_param(IS_RTC_H12(RTC_TimeStruct->RTC_H12)); 
 795:/home/rdu/Workspace/project_templates/mcu/stm32_ws/src/libraries/STM32F4xx_StdPeriph_Driver/src/stm32f4xx_rtc.c ****     } 
 796:/home/rdu/Workspace/project_templates/mcu/stm32_ws/src/libraries/STM32F4xx_StdPeriph_Driver/src/stm32f4xx_rtc.c ****     else
 797:/home/rdu/Workspace/project_templates/mcu/stm32_ws/src/libraries/STM32F4xx_StdPeriph_Driver/src/stm32f4xx_rtc.c ****     {
 798:/home/rdu/Workspace/project_templates/mcu/stm32_ws/src/libraries/STM32F4xx_StdPeriph_Driver/src/stm32f4xx_rtc.c ****       RTC_TimeStruct->RTC_H12 = 0x00;
 818              		.loc 1 798 0
 819 0048 009B     		ldr	r3, [sp]
 820 004a 0022     		movs	r2, #0
 821 004c DA70     		strb	r2, [r3, #3]
 822              	.L61:
 799:/home/rdu/Workspace/project_templates/mcu/stm32_ws/src/libraries/STM32F4xx_StdPeriph_Driver/src/stm32f4xx_rtc.c ****       assert_param(IS_RTC_HOUR24(RTC_Bcd2ToByte(RTC_TimeStruct->RTC_Hours)));
 800:/home/rdu/Workspace/project_templates/mcu/stm32_ws/src/libraries/STM32F4xx_StdPeriph_Driver/src/stm32f4xx_rtc.c ****     }
 801:/home/rdu/Workspace/project_templates/mcu/stm32_ws/src/libraries/STM32F4xx_StdPeriph_Driver/src/stm32f4xx_rtc.c ****     assert_param(IS_RTC_MINUTES(RTC_Bcd2ToByte(RTC_TimeStruct->RTC_Minutes)));
 802:/home/rdu/Workspace/project_templates/mcu/stm32_ws/src/libraries/STM32F4xx_StdPeriph_Driver/src/stm32f4xx_rtc.c ****     assert_param(IS_RTC_SECONDS(RTC_Bcd2ToByte(RTC_TimeStruct->RTC_Seconds)));
 803:/home/rdu/Workspace/project_templates/mcu/stm32_ws/src/libraries/STM32F4xx_StdPeriph_Driver/src/stm32f4xx_rtc.c ****   }
 804:/home/rdu/Workspace/project_templates/mcu/stm32_ws/src/libraries/STM32F4xx_StdPeriph_Driver/src/stm32f4xx_rtc.c ****   
 805:/home/rdu/Workspace/project_templates/mcu/stm32_ws/src/libraries/STM32F4xx_StdPeriph_Driver/src/stm32f4xx_rtc.c ****   /* Check the input parameters format */
 806:/home/rdu/Workspace/project_templates/mcu/stm32_ws/src/libraries/STM32F4xx_StdPeriph_Driver/src/stm32f4xx_rtc.c ****   if (RTC_Format != RTC_Format_BIN)
 823              		.loc 1 806 0
 824 004e 019B     		ldr	r3, [sp, #4]
 825 0050 002B     		cmp	r3, #0
 826 0052 0FD0     		beq	.L63
 807:/home/rdu/Workspace/project_templates/mcu/stm32_ws/src/libraries/STM32F4xx_StdPeriph_Driver/src/stm32f4xx_rtc.c ****   {
 808:/home/rdu/Workspace/project_templates/mcu/stm32_ws/src/libraries/STM32F4xx_StdPeriph_Driver/src/stm32f4xx_rtc.c ****     tmpreg = (((uint32_t)(RTC_TimeStruct->RTC_Hours) << 16) | \
 827              		.loc 1 808 0
 828 0054 009B     		ldr	r3, [sp]
 829 0056 1B78     		ldrb	r3, [r3]	@ zero_extendqisi2
 830 0058 1A04     		lsls	r2, r3, #16
 809:/home/rdu/Workspace/project_templates/mcu/stm32_ws/src/libraries/STM32F4xx_StdPeriph_Driver/src/stm32f4xx_rtc.c ****              ((uint32_t)(RTC_TimeStruct->RTC_Minutes) << 8) | \
 831              		.loc 1 809 0
 832 005a 009B     		ldr	r3, [sp]
 833 005c 5B78     		ldrb	r3, [r3, #1]	@ zero_extendqisi2
 834 005e 1B02     		lsls	r3, r3, #8
 808:/home/rdu/Workspace/project_templates/mcu/stm32_ws/src/libraries/STM32F4xx_StdPeriph_Driver/src/stm32f4xx_rtc.c ****              ((uint32_t)(RTC_TimeStruct->RTC_Minutes) << 8) | \
 835              		.loc 1 808 0
 836 0060 1343     		orrs	r3, r3, r2
 810:/home/rdu/Workspace/project_templates/mcu/stm32_ws/src/libraries/STM32F4xx_StdPeriph_Driver/src/stm32f4xx_rtc.c ****              ((uint32_t)RTC_TimeStruct->RTC_Seconds) | \
 837              		.loc 1 810 0
 838 0062 009A     		ldr	r2, [sp]
 839 0064 9278     		ldrb	r2, [r2, #2]	@ zero_extendqisi2
 809:/home/rdu/Workspace/project_templates/mcu/stm32_ws/src/libraries/STM32F4xx_StdPeriph_Driver/src/stm32f4xx_rtc.c ****              ((uint32_t)(RTC_TimeStruct->RTC_Minutes) << 8) | \
 840              		.loc 1 809 0
 841 0066 1A43     		orrs	r2, r2, r3
 811:/home/rdu/Workspace/project_templates/mcu/stm32_ws/src/libraries/STM32F4xx_StdPeriph_Driver/src/stm32f4xx_rtc.c ****              ((uint32_t)(RTC_TimeStruct->RTC_H12) << 16)); 
 842              		.loc 1 811 0
 843 0068 009B     		ldr	r3, [sp]
 844 006a DB78     		ldrb	r3, [r3, #3]	@ zero_extendqisi2
 845 006c 1B04     		lsls	r3, r3, #16
 808:/home/rdu/Workspace/project_templates/mcu/stm32_ws/src/libraries/STM32F4xx_StdPeriph_Driver/src/stm32f4xx_rtc.c ****              ((uint32_t)(RTC_TimeStruct->RTC_Minutes) << 8) | \
 846              		.loc 1 808 0
 847 006e 1343     		orrs	r3, r3, r2
 848 0070 0393     		str	r3, [sp, #12]
 849 0072 1BE0     		b	.L64
 850              	.L63:
 812:/home/rdu/Workspace/project_templates/mcu/stm32_ws/src/libraries/STM32F4xx_StdPeriph_Driver/src/stm32f4xx_rtc.c ****   }  
 813:/home/rdu/Workspace/project_templates/mcu/stm32_ws/src/libraries/STM32F4xx_StdPeriph_Driver/src/stm32f4xx_rtc.c ****   else
 814:/home/rdu/Workspace/project_templates/mcu/stm32_ws/src/libraries/STM32F4xx_StdPeriph_Driver/src/stm32f4xx_rtc.c ****   {
 815:/home/rdu/Workspace/project_templates/mcu/stm32_ws/src/libraries/STM32F4xx_StdPeriph_Driver/src/stm32f4xx_rtc.c ****     tmpreg = (uint32_t)(((uint32_t)RTC_ByteToBcd2(RTC_TimeStruct->RTC_Hours) << 16) | \
 851              		.loc 1 815 0
 852 0074 009B     		ldr	r3, [sp]
 853 0076 1B78     		ldrb	r3, [r3]	@ zero_extendqisi2
 854 0078 1846     		mov	r0, r3
 855 007a FFF7FEFF 		bl	RTC_ByteToBcd2
 856 007e 0346     		mov	r3, r0
 857 0080 1C04     		lsls	r4, r3, #16
 816:/home/rdu/Workspace/project_templates/mcu/stm32_ws/src/libraries/STM32F4xx_StdPeriph_Driver/src/stm32f4xx_rtc.c ****                    ((uint32_t)RTC_ByteToBcd2(RTC_TimeStruct->RTC_Minutes) << 8) | \
 858              		.loc 1 816 0
 859 0082 009B     		ldr	r3, [sp]
 860 0084 5B78     		ldrb	r3, [r3, #1]	@ zero_extendqisi2
 861 0086 1846     		mov	r0, r3
 862 0088 FFF7FEFF 		bl	RTC_ByteToBcd2
 863 008c 0346     		mov	r3, r0
 864 008e 1B02     		lsls	r3, r3, #8
 815:/home/rdu/Workspace/project_templates/mcu/stm32_ws/src/libraries/STM32F4xx_StdPeriph_Driver/src/stm32f4xx_rtc.c ****                    ((uint32_t)RTC_ByteToBcd2(RTC_TimeStruct->RTC_Minutes) << 8) | \
 865              		.loc 1 815 0
 866 0090 1C43     		orrs	r4, r4, r3
 817:/home/rdu/Workspace/project_templates/mcu/stm32_ws/src/libraries/STM32F4xx_StdPeriph_Driver/src/stm32f4xx_rtc.c ****                    ((uint32_t)RTC_ByteToBcd2(RTC_TimeStruct->RTC_Seconds)) | \
 867              		.loc 1 817 0
 868 0092 009B     		ldr	r3, [sp]
 869 0094 9B78     		ldrb	r3, [r3, #2]	@ zero_extendqisi2
 870 0096 1846     		mov	r0, r3
 871 0098 FFF7FEFF 		bl	RTC_ByteToBcd2
 872 009c 0346     		mov	r3, r0
 816:/home/rdu/Workspace/project_templates/mcu/stm32_ws/src/libraries/STM32F4xx_StdPeriph_Driver/src/stm32f4xx_rtc.c ****                    ((uint32_t)RTC_ByteToBcd2(RTC_TimeStruct->RTC_Minutes) << 8) | \
 873              		.loc 1 816 0
 874 009e 44EA0302 		orr	r2, r4, r3
 818:/home/rdu/Workspace/project_templates/mcu/stm32_ws/src/libraries/STM32F4xx_StdPeriph_Driver/src/stm32f4xx_rtc.c ****                    (((uint32_t)RTC_TimeStruct->RTC_H12) << 16));
 875              		.loc 1 818 0
 876 00a2 009B     		ldr	r3, [sp]
 877 00a4 DB78     		ldrb	r3, [r3, #3]	@ zero_extendqisi2
 878 00a6 1B04     		lsls	r3, r3, #16
 815:/home/rdu/Workspace/project_templates/mcu/stm32_ws/src/libraries/STM32F4xx_StdPeriph_Driver/src/stm32f4xx_rtc.c ****                    ((uint32_t)RTC_ByteToBcd2(RTC_TimeStruct->RTC_Minutes) << 8) | \
 879              		.loc 1 815 0
 880 00a8 1343     		orrs	r3, r3, r2
 881 00aa 0393     		str	r3, [sp, #12]
 882              	.L64:
 819:/home/rdu/Workspace/project_templates/mcu/stm32_ws/src/libraries/STM32F4xx_StdPeriph_Driver/src/stm32f4xx_rtc.c ****   }  
 820:/home/rdu/Workspace/project_templates/mcu/stm32_ws/src/libraries/STM32F4xx_StdPeriph_Driver/src/stm32f4xx_rtc.c **** 
 821:/home/rdu/Workspace/project_templates/mcu/stm32_ws/src/libraries/STM32F4xx_StdPeriph_Driver/src/stm32f4xx_rtc.c ****   /* Disable the write protection for RTC registers */
 822:/home/rdu/Workspace/project_templates/mcu/stm32_ws/src/libraries/STM32F4xx_StdPeriph_Driver/src/stm32f4xx_rtc.c ****   RTC->WPR = 0xCA;
 883              		.loc 1 822 0
 884 00ac 1A4B     		ldr	r3, .L71
 885 00ae CA22     		movs	r2, #202
 886 00b0 5A62     		str	r2, [r3, #36]
 823:/home/rdu/Workspace/project_templates/mcu/stm32_ws/src/libraries/STM32F4xx_StdPeriph_Driver/src/stm32f4xx_rtc.c ****   RTC->WPR = 0x53;
 887              		.loc 1 823 0
 888 00b2 194B     		ldr	r3, .L71
 889 00b4 5322     		movs	r2, #83
 890 00b6 5A62     		str	r2, [r3, #36]
 824:/home/rdu/Workspace/project_templates/mcu/stm32_ws/src/libraries/STM32F4xx_StdPeriph_Driver/src/stm32f4xx_rtc.c **** 
 825:/home/rdu/Workspace/project_templates/mcu/stm32_ws/src/libraries/STM32F4xx_StdPeriph_Driver/src/stm32f4xx_rtc.c ****   /* Set Initialization mode */
 826:/home/rdu/Workspace/project_templates/mcu/stm32_ws/src/libraries/STM32F4xx_StdPeriph_Driver/src/stm32f4xx_rtc.c ****   if (RTC_EnterInitMode() == ERROR)
 891              		.loc 1 826 0
 892 00b8 FFF7FEFF 		bl	RTC_EnterInitMode
 893 00bc 0346     		mov	r3, r0
 894 00be 002B     		cmp	r3, #0
 895 00c0 03D1     		bne	.L65
 827:/home/rdu/Workspace/project_templates/mcu/stm32_ws/src/libraries/STM32F4xx_StdPeriph_Driver/src/stm32f4xx_rtc.c ****   {
 828:/home/rdu/Workspace/project_templates/mcu/stm32_ws/src/libraries/STM32F4xx_StdPeriph_Driver/src/stm32f4xx_rtc.c ****     status = ERROR;
 896              		.loc 1 828 0
 897 00c2 0023     		movs	r3, #0
 898 00c4 8DF80B30 		strb	r3, [sp, #11]
 899 00c8 1EE0     		b	.L66
 900              	.L65:
 829:/home/rdu/Workspace/project_templates/mcu/stm32_ws/src/libraries/STM32F4xx_StdPeriph_Driver/src/stm32f4xx_rtc.c ****   } 
 830:/home/rdu/Workspace/project_templates/mcu/stm32_ws/src/libraries/STM32F4xx_StdPeriph_Driver/src/stm32f4xx_rtc.c ****   else
 831:/home/rdu/Workspace/project_templates/mcu/stm32_ws/src/libraries/STM32F4xx_StdPeriph_Driver/src/stm32f4xx_rtc.c ****   {
 832:/home/rdu/Workspace/project_templates/mcu/stm32_ws/src/libraries/STM32F4xx_StdPeriph_Driver/src/stm32f4xx_rtc.c ****     /* Set the RTC_TR register */
 833:/home/rdu/Workspace/project_templates/mcu/stm32_ws/src/libraries/STM32F4xx_StdPeriph_Driver/src/stm32f4xx_rtc.c ****     RTC->TR = (uint32_t)(tmpreg & RTC_TR_RESERVED_MASK);
 901              		.loc 1 833 0
 902 00ca 134A     		ldr	r2, .L71
 903 00cc 039B     		ldr	r3, [sp, #12]
 904 00ce 03F07F33 		and	r3, r3, #2139062143
 905 00d2 23F0FE43 		bic	r3, r3, #2130706432
 906 00d6 1360     		str	r3, [r2]
 834:/home/rdu/Workspace/project_templates/mcu/stm32_ws/src/libraries/STM32F4xx_StdPeriph_Driver/src/stm32f4xx_rtc.c **** 
 835:/home/rdu/Workspace/project_templates/mcu/stm32_ws/src/libraries/STM32F4xx_StdPeriph_Driver/src/stm32f4xx_rtc.c ****     /* Exit Initialization mode */
 836:/home/rdu/Workspace/project_templates/mcu/stm32_ws/src/libraries/STM32F4xx_StdPeriph_Driver/src/stm32f4xx_rtc.c ****     RTC_ExitInitMode(); 
 907              		.loc 1 836 0
 908 00d8 FFF7FEFF 		bl	RTC_ExitInitMode
 837:/home/rdu/Workspace/project_templates/mcu/stm32_ws/src/libraries/STM32F4xx_StdPeriph_Driver/src/stm32f4xx_rtc.c **** 
 838:/home/rdu/Workspace/project_templates/mcu/stm32_ws/src/libraries/STM32F4xx_StdPeriph_Driver/src/stm32f4xx_rtc.c ****     /* If  RTC_CR_BYPSHAD bit = 0, wait for synchro else this check is not needed */
 839:/home/rdu/Workspace/project_templates/mcu/stm32_ws/src/libraries/STM32F4xx_StdPeriph_Driver/src/stm32f4xx_rtc.c ****     if ((RTC->CR & RTC_CR_BYPSHAD) == RESET)
 909              		.loc 1 839 0
 910 00dc 0E4B     		ldr	r3, .L71
 911 00de 9B68     		ldr	r3, [r3, #8]
 912 00e0 03F02003 		and	r3, r3, #32
 913 00e4 002B     		cmp	r3, #0
 914 00e6 0CD1     		bne	.L67
 840:/home/rdu/Workspace/project_templates/mcu/stm32_ws/src/libraries/STM32F4xx_StdPeriph_Driver/src/stm32f4xx_rtc.c ****     {
 841:/home/rdu/Workspace/project_templates/mcu/stm32_ws/src/libraries/STM32F4xx_StdPeriph_Driver/src/stm32f4xx_rtc.c ****     if(RTC_WaitForSynchro() == ERROR)
 915              		.loc 1 841 0
 916 00e8 FFF7FEFF 		bl	RTC_WaitForSynchro
 917 00ec 0346     		mov	r3, r0
 918 00ee 002B     		cmp	r3, #0
 919 00f0 03D1     		bne	.L68
 842:/home/rdu/Workspace/project_templates/mcu/stm32_ws/src/libraries/STM32F4xx_StdPeriph_Driver/src/stm32f4xx_rtc.c ****     {
 843:/home/rdu/Workspace/project_templates/mcu/stm32_ws/src/libraries/STM32F4xx_StdPeriph_Driver/src/stm32f4xx_rtc.c ****       status = ERROR;
 920              		.loc 1 843 0
 921 00f2 0023     		movs	r3, #0
 922 00f4 8DF80B30 		strb	r3, [sp, #11]
 923 00f8 06E0     		b	.L66
 924              	.L68:
 844:/home/rdu/Workspace/project_templates/mcu/stm32_ws/src/libraries/STM32F4xx_StdPeriph_Driver/src/stm32f4xx_rtc.c ****     }
 845:/home/rdu/Workspace/project_templates/mcu/stm32_ws/src/libraries/STM32F4xx_StdPeriph_Driver/src/stm32f4xx_rtc.c ****     else
 846:/home/rdu/Workspace/project_templates/mcu/stm32_ws/src/libraries/STM32F4xx_StdPeriph_Driver/src/stm32f4xx_rtc.c ****     {
 847:/home/rdu/Workspace/project_templates/mcu/stm32_ws/src/libraries/STM32F4xx_StdPeriph_Driver/src/stm32f4xx_rtc.c ****       status = SUCCESS;
 925              		.loc 1 847 0
 926 00fa 0123     		movs	r3, #1
 927 00fc 8DF80B30 		strb	r3, [sp, #11]
 928 0100 02E0     		b	.L66
 929              	.L67:
 848:/home/rdu/Workspace/project_templates/mcu/stm32_ws/src/libraries/STM32F4xx_StdPeriph_Driver/src/stm32f4xx_rtc.c ****     }
 849:/home/rdu/Workspace/project_templates/mcu/stm32_ws/src/libraries/STM32F4xx_StdPeriph_Driver/src/stm32f4xx_rtc.c ****   }
 850:/home/rdu/Workspace/project_templates/mcu/stm32_ws/src/libraries/STM32F4xx_StdPeriph_Driver/src/stm32f4xx_rtc.c ****     else
 851:/home/rdu/Workspace/project_templates/mcu/stm32_ws/src/libraries/STM32F4xx_StdPeriph_Driver/src/stm32f4xx_rtc.c ****     {
 852:/home/rdu/Workspace/project_templates/mcu/stm32_ws/src/libraries/STM32F4xx_StdPeriph_Driver/src/stm32f4xx_rtc.c ****       status = SUCCESS;
 930              		.loc 1 852 0
 931 0102 0123     		movs	r3, #1
 932 0104 8DF80B30 		strb	r3, [sp, #11]
 933              	.L66:
 853:/home/rdu/Workspace/project_templates/mcu/stm32_ws/src/libraries/STM32F4xx_StdPeriph_Driver/src/stm32f4xx_rtc.c ****     }
 854:/home/rdu/Workspace/project_templates/mcu/stm32_ws/src/libraries/STM32F4xx_StdPeriph_Driver/src/stm32f4xx_rtc.c ****   }
 855:/home/rdu/Workspace/project_templates/mcu/stm32_ws/src/libraries/STM32F4xx_StdPeriph_Driver/src/stm32f4xx_rtc.c ****   /* Enable the write protection for RTC registers */
 856:/home/rdu/Workspace/project_templates/mcu/stm32_ws/src/libraries/STM32F4xx_StdPeriph_Driver/src/stm32f4xx_rtc.c ****   RTC->WPR = 0xFF; 
 934              		.loc 1 856 0
 935 0108 034B     		ldr	r3, .L71
 936 010a FF22     		movs	r2, #255
 937 010c 5A62     		str	r2, [r3, #36]
 857:/home/rdu/Workspace/project_templates/mcu/stm32_ws/src/libraries/STM32F4xx_StdPeriph_Driver/src/stm32f4xx_rtc.c ****     
 858:/home/rdu/Workspace/project_templates/mcu/stm32_ws/src/libraries/STM32F4xx_StdPeriph_Driver/src/stm32f4xx_rtc.c ****   return status;
 938              		.loc 1 858 0
 939 010e 9DF80B30 		ldrb	r3, [sp, #11]	@ zero_extendqisi2
 859:/home/rdu/Workspace/project_templates/mcu/stm32_ws/src/libraries/STM32F4xx_StdPeriph_Driver/src/stm32f4xx_rtc.c **** }
 940              		.loc 1 859 0
 941 0112 1846     		mov	r0, r3
 942 0114 04B0     		add	sp, sp, #16
 943              	.LCFI21:
 944              		.cfi_def_cfa_offset 8
 945              		@ sp needed
 946 0116 10BD     		pop	{r4, pc}
 947              	.L72:
 948              		.align	2
 949              	.L71:
 950 0118 00280040 		.word	1073752064
 951              		.cfi_endproc
 952              	.LFE132:
 954              		.section	.text.RTC_TimeStructInit,"ax",%progbits
 955              		.align	1
 956              		.global	RTC_TimeStructInit
 957              		.syntax unified
 958              		.thumb
 959              		.thumb_func
 960              		.fpu fpv4-sp-d16
 962              	RTC_TimeStructInit:
 963              	.LFB133:
 860:/home/rdu/Workspace/project_templates/mcu/stm32_ws/src/libraries/STM32F4xx_StdPeriph_Driver/src/stm32f4xx_rtc.c **** 
 861:/home/rdu/Workspace/project_templates/mcu/stm32_ws/src/libraries/STM32F4xx_StdPeriph_Driver/src/stm32f4xx_rtc.c **** /**
 862:/home/rdu/Workspace/project_templates/mcu/stm32_ws/src/libraries/STM32F4xx_StdPeriph_Driver/src/stm32f4xx_rtc.c ****   * @brief  Fills each RTC_TimeStruct member with its default value
 863:/home/rdu/Workspace/project_templates/mcu/stm32_ws/src/libraries/STM32F4xx_StdPeriph_Driver/src/stm32f4xx_rtc.c ****   *         (Time = 00h:00min:00sec).
 864:/home/rdu/Workspace/project_templates/mcu/stm32_ws/src/libraries/STM32F4xx_StdPeriph_Driver/src/stm32f4xx_rtc.c ****   * @param  RTC_TimeStruct: pointer to a RTC_TimeTypeDef structure which will be 
 865:/home/rdu/Workspace/project_templates/mcu/stm32_ws/src/libraries/STM32F4xx_StdPeriph_Driver/src/stm32f4xx_rtc.c ****   *         initialized.
 866:/home/rdu/Workspace/project_templates/mcu/stm32_ws/src/libraries/STM32F4xx_StdPeriph_Driver/src/stm32f4xx_rtc.c ****   * @retval None
 867:/home/rdu/Workspace/project_templates/mcu/stm32_ws/src/libraries/STM32F4xx_StdPeriph_Driver/src/stm32f4xx_rtc.c ****   */
 868:/home/rdu/Workspace/project_templates/mcu/stm32_ws/src/libraries/STM32F4xx_StdPeriph_Driver/src/stm32f4xx_rtc.c **** void RTC_TimeStructInit(RTC_TimeTypeDef* RTC_TimeStruct)
 869:/home/rdu/Workspace/project_templates/mcu/stm32_ws/src/libraries/STM32F4xx_StdPeriph_Driver/src/stm32f4xx_rtc.c **** {
 964              		.loc 1 869 0
 965              		.cfi_startproc
 966              		@ args = 0, pretend = 0, frame = 8
 967              		@ frame_needed = 0, uses_anonymous_args = 0
 968              		@ link register save eliminated.
 969 0000 82B0     		sub	sp, sp, #8
 970              	.LCFI22:
 971              		.cfi_def_cfa_offset 8
 972 0002 0190     		str	r0, [sp, #4]
 870:/home/rdu/Workspace/project_templates/mcu/stm32_ws/src/libraries/STM32F4xx_StdPeriph_Driver/src/stm32f4xx_rtc.c ****   /* Time = 00h:00min:00sec */
 871:/home/rdu/Workspace/project_templates/mcu/stm32_ws/src/libraries/STM32F4xx_StdPeriph_Driver/src/stm32f4xx_rtc.c ****   RTC_TimeStruct->RTC_H12 = RTC_H12_AM;
 973              		.loc 1 871 0
 974 0004 019B     		ldr	r3, [sp, #4]
 975 0006 0022     		movs	r2, #0
 976 0008 DA70     		strb	r2, [r3, #3]
 872:/home/rdu/Workspace/project_templates/mcu/stm32_ws/src/libraries/STM32F4xx_StdPeriph_Driver/src/stm32f4xx_rtc.c ****   RTC_TimeStruct->RTC_Hours = 0;
 977              		.loc 1 872 0
 978 000a 019B     		ldr	r3, [sp, #4]
 979 000c 0022     		movs	r2, #0
 980 000e 1A70     		strb	r2, [r3]
 873:/home/rdu/Workspace/project_templates/mcu/stm32_ws/src/libraries/STM32F4xx_StdPeriph_Driver/src/stm32f4xx_rtc.c ****   RTC_TimeStruct->RTC_Minutes = 0;
 981              		.loc 1 873 0
 982 0010 019B     		ldr	r3, [sp, #4]
 983 0012 0022     		movs	r2, #0
 984 0014 5A70     		strb	r2, [r3, #1]
 874:/home/rdu/Workspace/project_templates/mcu/stm32_ws/src/libraries/STM32F4xx_StdPeriph_Driver/src/stm32f4xx_rtc.c ****   RTC_TimeStruct->RTC_Seconds = 0; 
 985              		.loc 1 874 0
 986 0016 019B     		ldr	r3, [sp, #4]
 987 0018 0022     		movs	r2, #0
 988 001a 9A70     		strb	r2, [r3, #2]
 875:/home/rdu/Workspace/project_templates/mcu/stm32_ws/src/libraries/STM32F4xx_StdPeriph_Driver/src/stm32f4xx_rtc.c **** }
 989              		.loc 1 875 0
 990 001c 00BF     		nop
 991 001e 02B0     		add	sp, sp, #8
 992              	.LCFI23:
 993              		.cfi_def_cfa_offset 0
 994              		@ sp needed
 995 0020 7047     		bx	lr
 996              		.cfi_endproc
 997              	.LFE133:
 999              		.section	.text.RTC_GetTime,"ax",%progbits
 1000              		.align	1
 1001              		.global	RTC_GetTime
 1002              		.syntax unified
 1003              		.thumb
 1004              		.thumb_func
 1005              		.fpu fpv4-sp-d16
 1007              	RTC_GetTime:
 1008              	.LFB134:
 876:/home/rdu/Workspace/project_templates/mcu/stm32_ws/src/libraries/STM32F4xx_StdPeriph_Driver/src/stm32f4xx_rtc.c **** 
 877:/home/rdu/Workspace/project_templates/mcu/stm32_ws/src/libraries/STM32F4xx_StdPeriph_Driver/src/stm32f4xx_rtc.c **** /**
 878:/home/rdu/Workspace/project_templates/mcu/stm32_ws/src/libraries/STM32F4xx_StdPeriph_Driver/src/stm32f4xx_rtc.c ****   * @brief  Get the RTC current Time.
 879:/home/rdu/Workspace/project_templates/mcu/stm32_ws/src/libraries/STM32F4xx_StdPeriph_Driver/src/stm32f4xx_rtc.c ****   * @param  RTC_Format: specifies the format of the returned parameters.
 880:/home/rdu/Workspace/project_templates/mcu/stm32_ws/src/libraries/STM32F4xx_StdPeriph_Driver/src/stm32f4xx_rtc.c ****   *          This parameter can be  one of the following values:
 881:/home/rdu/Workspace/project_templates/mcu/stm32_ws/src/libraries/STM32F4xx_StdPeriph_Driver/src/stm32f4xx_rtc.c ****   *            @arg RTC_Format_BIN:  Binary data format 
 882:/home/rdu/Workspace/project_templates/mcu/stm32_ws/src/libraries/STM32F4xx_StdPeriph_Driver/src/stm32f4xx_rtc.c ****   *            @arg RTC_Format_BCD:  BCD data format
 883:/home/rdu/Workspace/project_templates/mcu/stm32_ws/src/libraries/STM32F4xx_StdPeriph_Driver/src/stm32f4xx_rtc.c ****   * @param  RTC_TimeStruct: pointer to a RTC_TimeTypeDef structure that will 
 884:/home/rdu/Workspace/project_templates/mcu/stm32_ws/src/libraries/STM32F4xx_StdPeriph_Driver/src/stm32f4xx_rtc.c ****   *                        contain the returned current time configuration.     
 885:/home/rdu/Workspace/project_templates/mcu/stm32_ws/src/libraries/STM32F4xx_StdPeriph_Driver/src/stm32f4xx_rtc.c ****   * @retval None
 886:/home/rdu/Workspace/project_templates/mcu/stm32_ws/src/libraries/STM32F4xx_StdPeriph_Driver/src/stm32f4xx_rtc.c ****   */
 887:/home/rdu/Workspace/project_templates/mcu/stm32_ws/src/libraries/STM32F4xx_StdPeriph_Driver/src/stm32f4xx_rtc.c **** void RTC_GetTime(uint32_t RTC_Format, RTC_TimeTypeDef* RTC_TimeStruct)
 888:/home/rdu/Workspace/project_templates/mcu/stm32_ws/src/libraries/STM32F4xx_StdPeriph_Driver/src/stm32f4xx_rtc.c **** {
 1009              		.loc 1 888 0
 1010              		.cfi_startproc
 1011              		@ args = 0, pretend = 0, frame = 16
 1012              		@ frame_needed = 0, uses_anonymous_args = 0
 1013 0000 00B5     		push	{lr}
 1014              	.LCFI24:
 1015              		.cfi_def_cfa_offset 4
 1016              		.cfi_offset 14, -4
 1017 0002 85B0     		sub	sp, sp, #20
 1018              	.LCFI25:
 1019              		.cfi_def_cfa_offset 24
 1020 0004 0190     		str	r0, [sp, #4]
 1021 0006 0091     		str	r1, [sp]
 889:/home/rdu/Workspace/project_templates/mcu/stm32_ws/src/libraries/STM32F4xx_StdPeriph_Driver/src/stm32f4xx_rtc.c ****   uint32_t tmpreg = 0;
 1022              		.loc 1 889 0
 1023 0008 0023     		movs	r3, #0
 1024 000a 0393     		str	r3, [sp, #12]
 890:/home/rdu/Workspace/project_templates/mcu/stm32_ws/src/libraries/STM32F4xx_StdPeriph_Driver/src/stm32f4xx_rtc.c **** 
 891:/home/rdu/Workspace/project_templates/mcu/stm32_ws/src/libraries/STM32F4xx_StdPeriph_Driver/src/stm32f4xx_rtc.c ****   /* Check the parameters */
 892:/home/rdu/Workspace/project_templates/mcu/stm32_ws/src/libraries/STM32F4xx_StdPeriph_Driver/src/stm32f4xx_rtc.c ****   assert_param(IS_RTC_FORMAT(RTC_Format));
 893:/home/rdu/Workspace/project_templates/mcu/stm32_ws/src/libraries/STM32F4xx_StdPeriph_Driver/src/stm32f4xx_rtc.c **** 
 894:/home/rdu/Workspace/project_templates/mcu/stm32_ws/src/libraries/STM32F4xx_StdPeriph_Driver/src/stm32f4xx_rtc.c ****   /* Get the RTC_TR register */
 895:/home/rdu/Workspace/project_templates/mcu/stm32_ws/src/libraries/STM32F4xx_StdPeriph_Driver/src/stm32f4xx_rtc.c ****   tmpreg = (uint32_t)(RTC->TR & RTC_TR_RESERVED_MASK); 
 1025              		.loc 1 895 0
 1026 000c 234B     		ldr	r3, .L77
 1027 000e 1B68     		ldr	r3, [r3]
 1028 0010 03F07F33 		and	r3, r3, #2139062143
 1029 0014 23F0FE43 		bic	r3, r3, #2130706432
 1030 0018 0393     		str	r3, [sp, #12]
 896:/home/rdu/Workspace/project_templates/mcu/stm32_ws/src/libraries/STM32F4xx_StdPeriph_Driver/src/stm32f4xx_rtc.c ****   
 897:/home/rdu/Workspace/project_templates/mcu/stm32_ws/src/libraries/STM32F4xx_StdPeriph_Driver/src/stm32f4xx_rtc.c ****   /* Fill the structure fields with the read parameters */
 898:/home/rdu/Workspace/project_templates/mcu/stm32_ws/src/libraries/STM32F4xx_StdPeriph_Driver/src/stm32f4xx_rtc.c ****   RTC_TimeStruct->RTC_Hours = (uint8_t)((tmpreg & (RTC_TR_HT | RTC_TR_HU)) >> 16);
 1031              		.loc 1 898 0
 1032 001a 039B     		ldr	r3, [sp, #12]
 1033 001c 1B0C     		lsrs	r3, r3, #16
 1034 001e DBB2     		uxtb	r3, r3
 1035 0020 03F03F03 		and	r3, r3, #63
 1036 0024 DAB2     		uxtb	r2, r3
 1037 0026 009B     		ldr	r3, [sp]
 1038 0028 1A70     		strb	r2, [r3]
 899:/home/rdu/Workspace/project_templates/mcu/stm32_ws/src/libraries/STM32F4xx_StdPeriph_Driver/src/stm32f4xx_rtc.c ****   RTC_TimeStruct->RTC_Minutes = (uint8_t)((tmpreg & (RTC_TR_MNT | RTC_TR_MNU)) >>8);
 1039              		.loc 1 899 0
 1040 002a 039B     		ldr	r3, [sp, #12]
 1041 002c 1B0A     		lsrs	r3, r3, #8
 1042 002e DBB2     		uxtb	r3, r3
 1043 0030 03F07F03 		and	r3, r3, #127
 1044 0034 DAB2     		uxtb	r2, r3
 1045 0036 009B     		ldr	r3, [sp]
 1046 0038 5A70     		strb	r2, [r3, #1]
 900:/home/rdu/Workspace/project_templates/mcu/stm32_ws/src/libraries/STM32F4xx_StdPeriph_Driver/src/stm32f4xx_rtc.c ****   RTC_TimeStruct->RTC_Seconds = (uint8_t)(tmpreg & (RTC_TR_ST | RTC_TR_SU));
 1047              		.loc 1 900 0
 1048 003a 039B     		ldr	r3, [sp, #12]
 1049 003c DBB2     		uxtb	r3, r3
 1050 003e 03F07F03 		and	r3, r3, #127
 1051 0042 DAB2     		uxtb	r2, r3
 1052 0044 009B     		ldr	r3, [sp]
 1053 0046 9A70     		strb	r2, [r3, #2]
 901:/home/rdu/Workspace/project_templates/mcu/stm32_ws/src/libraries/STM32F4xx_StdPeriph_Driver/src/stm32f4xx_rtc.c ****   RTC_TimeStruct->RTC_H12 = (uint8_t)((tmpreg & (RTC_TR_PM)) >> 16);  
 1054              		.loc 1 901 0
 1055 0048 039B     		ldr	r3, [sp, #12]
 1056 004a 1B0C     		lsrs	r3, r3, #16
 1057 004c DBB2     		uxtb	r3, r3
 1058 004e 03F04003 		and	r3, r3, #64
 1059 0052 DAB2     		uxtb	r2, r3
 1060 0054 009B     		ldr	r3, [sp]
 1061 0056 DA70     		strb	r2, [r3, #3]
 902:/home/rdu/Workspace/project_templates/mcu/stm32_ws/src/libraries/STM32F4xx_StdPeriph_Driver/src/stm32f4xx_rtc.c **** 
 903:/home/rdu/Workspace/project_templates/mcu/stm32_ws/src/libraries/STM32F4xx_StdPeriph_Driver/src/stm32f4xx_rtc.c ****   /* Check the input parameters format */
 904:/home/rdu/Workspace/project_templates/mcu/stm32_ws/src/libraries/STM32F4xx_StdPeriph_Driver/src/stm32f4xx_rtc.c ****   if (RTC_Format == RTC_Format_BIN)
 1062              		.loc 1 904 0
 1063 0058 019B     		ldr	r3, [sp, #4]
 1064 005a 002B     		cmp	r3, #0
 1065 005c 1AD1     		bne	.L76
 905:/home/rdu/Workspace/project_templates/mcu/stm32_ws/src/libraries/STM32F4xx_StdPeriph_Driver/src/stm32f4xx_rtc.c ****   {
 906:/home/rdu/Workspace/project_templates/mcu/stm32_ws/src/libraries/STM32F4xx_StdPeriph_Driver/src/stm32f4xx_rtc.c ****     /* Convert the structure parameters to Binary format */
 907:/home/rdu/Workspace/project_templates/mcu/stm32_ws/src/libraries/STM32F4xx_StdPeriph_Driver/src/stm32f4xx_rtc.c ****     RTC_TimeStruct->RTC_Hours = (uint8_t)RTC_Bcd2ToByte(RTC_TimeStruct->RTC_Hours);
 1066              		.loc 1 907 0
 1067 005e 009B     		ldr	r3, [sp]
 1068 0060 1B78     		ldrb	r3, [r3]	@ zero_extendqisi2
 1069 0062 1846     		mov	r0, r3
 1070 0064 FFF7FEFF 		bl	RTC_Bcd2ToByte
 1071 0068 0346     		mov	r3, r0
 1072 006a 1A46     		mov	r2, r3
 1073 006c 009B     		ldr	r3, [sp]
 1074 006e 1A70     		strb	r2, [r3]
 908:/home/rdu/Workspace/project_templates/mcu/stm32_ws/src/libraries/STM32F4xx_StdPeriph_Driver/src/stm32f4xx_rtc.c ****     RTC_TimeStruct->RTC_Minutes = (uint8_t)RTC_Bcd2ToByte(RTC_TimeStruct->RTC_Minutes);
 1075              		.loc 1 908 0
 1076 0070 009B     		ldr	r3, [sp]
 1077 0072 5B78     		ldrb	r3, [r3, #1]	@ zero_extendqisi2
 1078 0074 1846     		mov	r0, r3
 1079 0076 FFF7FEFF 		bl	RTC_Bcd2ToByte
 1080 007a 0346     		mov	r3, r0
 1081 007c 1A46     		mov	r2, r3
 1082 007e 009B     		ldr	r3, [sp]
 1083 0080 5A70     		strb	r2, [r3, #1]
 909:/home/rdu/Workspace/project_templates/mcu/stm32_ws/src/libraries/STM32F4xx_StdPeriph_Driver/src/stm32f4xx_rtc.c ****     RTC_TimeStruct->RTC_Seconds = (uint8_t)RTC_Bcd2ToByte(RTC_TimeStruct->RTC_Seconds);   
 1084              		.loc 1 909 0
 1085 0082 009B     		ldr	r3, [sp]
 1086 0084 9B78     		ldrb	r3, [r3, #2]	@ zero_extendqisi2
 1087 0086 1846     		mov	r0, r3
 1088 0088 FFF7FEFF 		bl	RTC_Bcd2ToByte
 1089 008c 0346     		mov	r3, r0
 1090 008e 1A46     		mov	r2, r3
 1091 0090 009B     		ldr	r3, [sp]
 1092 0092 9A70     		strb	r2, [r3, #2]
 1093              	.L76:
 910:/home/rdu/Workspace/project_templates/mcu/stm32_ws/src/libraries/STM32F4xx_StdPeriph_Driver/src/stm32f4xx_rtc.c ****   }
 911:/home/rdu/Workspace/project_templates/mcu/stm32_ws/src/libraries/STM32F4xx_StdPeriph_Driver/src/stm32f4xx_rtc.c **** }
 1094              		.loc 1 911 0
 1095 0094 00BF     		nop
 1096 0096 05B0     		add	sp, sp, #20
 1097              	.LCFI26:
 1098              		.cfi_def_cfa_offset 4
 1099              		@ sp needed
 1100 0098 5DF804FB 		ldr	pc, [sp], #4
 1101              	.L78:
 1102              		.align	2
 1103              	.L77:
 1104 009c 00280040 		.word	1073752064
 1105              		.cfi_endproc
 1106              	.LFE134:
 1108              		.section	.text.RTC_GetSubSecond,"ax",%progbits
 1109              		.align	1
 1110              		.global	RTC_GetSubSecond
 1111              		.syntax unified
 1112              		.thumb
 1113              		.thumb_func
 1114              		.fpu fpv4-sp-d16
 1116              	RTC_GetSubSecond:
 1117              	.LFB135:
 912:/home/rdu/Workspace/project_templates/mcu/stm32_ws/src/libraries/STM32F4xx_StdPeriph_Driver/src/stm32f4xx_rtc.c **** 
 913:/home/rdu/Workspace/project_templates/mcu/stm32_ws/src/libraries/STM32F4xx_StdPeriph_Driver/src/stm32f4xx_rtc.c **** /**
 914:/home/rdu/Workspace/project_templates/mcu/stm32_ws/src/libraries/STM32F4xx_StdPeriph_Driver/src/stm32f4xx_rtc.c ****   * @brief  Gets the RTC current Calendar Sub seconds value.
 915:/home/rdu/Workspace/project_templates/mcu/stm32_ws/src/libraries/STM32F4xx_StdPeriph_Driver/src/stm32f4xx_rtc.c ****   * @note   This function freeze the Time and Date registers after reading the 
 916:/home/rdu/Workspace/project_templates/mcu/stm32_ws/src/libraries/STM32F4xx_StdPeriph_Driver/src/stm32f4xx_rtc.c ****   *         SSR register.
 917:/home/rdu/Workspace/project_templates/mcu/stm32_ws/src/libraries/STM32F4xx_StdPeriph_Driver/src/stm32f4xx_rtc.c ****   * @param  None
 918:/home/rdu/Workspace/project_templates/mcu/stm32_ws/src/libraries/STM32F4xx_StdPeriph_Driver/src/stm32f4xx_rtc.c ****   * @retval RTC current Calendar Sub seconds value.
 919:/home/rdu/Workspace/project_templates/mcu/stm32_ws/src/libraries/STM32F4xx_StdPeriph_Driver/src/stm32f4xx_rtc.c ****   */
 920:/home/rdu/Workspace/project_templates/mcu/stm32_ws/src/libraries/STM32F4xx_StdPeriph_Driver/src/stm32f4xx_rtc.c **** uint32_t RTC_GetSubSecond(void)
 921:/home/rdu/Workspace/project_templates/mcu/stm32_ws/src/libraries/STM32F4xx_StdPeriph_Driver/src/stm32f4xx_rtc.c **** {
 1118              		.loc 1 921 0
 1119              		.cfi_startproc
 1120              		@ args = 0, pretend = 0, frame = 8
 1121              		@ frame_needed = 0, uses_anonymous_args = 0
 1122              		@ link register save eliminated.
 1123 0000 82B0     		sub	sp, sp, #8
 1124              	.LCFI27:
 1125              		.cfi_def_cfa_offset 8
 922:/home/rdu/Workspace/project_templates/mcu/stm32_ws/src/libraries/STM32F4xx_StdPeriph_Driver/src/stm32f4xx_rtc.c ****   uint32_t tmpreg = 0;
 1126              		.loc 1 922 0
 1127 0002 0023     		movs	r3, #0
 1128 0004 0193     		str	r3, [sp, #4]
 923:/home/rdu/Workspace/project_templates/mcu/stm32_ws/src/libraries/STM32F4xx_StdPeriph_Driver/src/stm32f4xx_rtc.c ****   
 924:/home/rdu/Workspace/project_templates/mcu/stm32_ws/src/libraries/STM32F4xx_StdPeriph_Driver/src/stm32f4xx_rtc.c ****   /* Get sub seconds values from the correspondent registers*/
 925:/home/rdu/Workspace/project_templates/mcu/stm32_ws/src/libraries/STM32F4xx_StdPeriph_Driver/src/stm32f4xx_rtc.c ****   tmpreg = (uint32_t)(RTC->SSR);
 1129              		.loc 1 925 0
 1130 0006 044B     		ldr	r3, .L81
 1131 0008 9B6A     		ldr	r3, [r3, #40]
 1132 000a 0193     		str	r3, [sp, #4]
 926:/home/rdu/Workspace/project_templates/mcu/stm32_ws/src/libraries/STM32F4xx_StdPeriph_Driver/src/stm32f4xx_rtc.c ****   
 927:/home/rdu/Workspace/project_templates/mcu/stm32_ws/src/libraries/STM32F4xx_StdPeriph_Driver/src/stm32f4xx_rtc.c ****   /* Read DR register to unfroze calendar registers */
 928:/home/rdu/Workspace/project_templates/mcu/stm32_ws/src/libraries/STM32F4xx_StdPeriph_Driver/src/stm32f4xx_rtc.c ****   (void) (RTC->DR);
 1133              		.loc 1 928 0
 1134 000c 024B     		ldr	r3, .L81
 1135 000e 5B68     		ldr	r3, [r3, #4]
 929:/home/rdu/Workspace/project_templates/mcu/stm32_ws/src/libraries/STM32F4xx_StdPeriph_Driver/src/stm32f4xx_rtc.c ****   
 930:/home/rdu/Workspace/project_templates/mcu/stm32_ws/src/libraries/STM32F4xx_StdPeriph_Driver/src/stm32f4xx_rtc.c ****   return (tmpreg);
 1136              		.loc 1 930 0
 1137 0010 019B     		ldr	r3, [sp, #4]
 931:/home/rdu/Workspace/project_templates/mcu/stm32_ws/src/libraries/STM32F4xx_StdPeriph_Driver/src/stm32f4xx_rtc.c **** }
 1138              		.loc 1 931 0
 1139 0012 1846     		mov	r0, r3
 1140 0014 02B0     		add	sp, sp, #8
 1141              	.LCFI28:
 1142              		.cfi_def_cfa_offset 0
 1143              		@ sp needed
 1144 0016 7047     		bx	lr
 1145              	.L82:
 1146              		.align	2
 1147              	.L81:
 1148 0018 00280040 		.word	1073752064
 1149              		.cfi_endproc
 1150              	.LFE135:
 1152              		.section	.text.RTC_SetDate,"ax",%progbits
 1153              		.align	1
 1154              		.global	RTC_SetDate
 1155              		.syntax unified
 1156              		.thumb
 1157              		.thumb_func
 1158              		.fpu fpv4-sp-d16
 1160              	RTC_SetDate:
 1161              	.LFB136:
 932:/home/rdu/Workspace/project_templates/mcu/stm32_ws/src/libraries/STM32F4xx_StdPeriph_Driver/src/stm32f4xx_rtc.c **** 
 933:/home/rdu/Workspace/project_templates/mcu/stm32_ws/src/libraries/STM32F4xx_StdPeriph_Driver/src/stm32f4xx_rtc.c **** /**
 934:/home/rdu/Workspace/project_templates/mcu/stm32_ws/src/libraries/STM32F4xx_StdPeriph_Driver/src/stm32f4xx_rtc.c ****   * @brief  Set the RTC current date.
 935:/home/rdu/Workspace/project_templates/mcu/stm32_ws/src/libraries/STM32F4xx_StdPeriph_Driver/src/stm32f4xx_rtc.c ****   * @param  RTC_Format: specifies the format of the entered parameters.
 936:/home/rdu/Workspace/project_templates/mcu/stm32_ws/src/libraries/STM32F4xx_StdPeriph_Driver/src/stm32f4xx_rtc.c ****   *          This parameter can be  one of the following values:
 937:/home/rdu/Workspace/project_templates/mcu/stm32_ws/src/libraries/STM32F4xx_StdPeriph_Driver/src/stm32f4xx_rtc.c ****   *            @arg RTC_Format_BIN:  Binary data format 
 938:/home/rdu/Workspace/project_templates/mcu/stm32_ws/src/libraries/STM32F4xx_StdPeriph_Driver/src/stm32f4xx_rtc.c ****   *            @arg RTC_Format_BCD:  BCD data format
 939:/home/rdu/Workspace/project_templates/mcu/stm32_ws/src/libraries/STM32F4xx_StdPeriph_Driver/src/stm32f4xx_rtc.c ****   * @param  RTC_DateStruct: pointer to a RTC_DateTypeDef structure that contains 
 940:/home/rdu/Workspace/project_templates/mcu/stm32_ws/src/libraries/STM32F4xx_StdPeriph_Driver/src/stm32f4xx_rtc.c ****   *                         the date configuration information for the RTC.
 941:/home/rdu/Workspace/project_templates/mcu/stm32_ws/src/libraries/STM32F4xx_StdPeriph_Driver/src/stm32f4xx_rtc.c ****   * @retval An ErrorStatus enumeration value:
 942:/home/rdu/Workspace/project_templates/mcu/stm32_ws/src/libraries/STM32F4xx_StdPeriph_Driver/src/stm32f4xx_rtc.c ****   *          - SUCCESS: RTC Date register is configured
 943:/home/rdu/Workspace/project_templates/mcu/stm32_ws/src/libraries/STM32F4xx_StdPeriph_Driver/src/stm32f4xx_rtc.c ****   *          - ERROR: RTC Date register is not configured
 944:/home/rdu/Workspace/project_templates/mcu/stm32_ws/src/libraries/STM32F4xx_StdPeriph_Driver/src/stm32f4xx_rtc.c ****   */
 945:/home/rdu/Workspace/project_templates/mcu/stm32_ws/src/libraries/STM32F4xx_StdPeriph_Driver/src/stm32f4xx_rtc.c **** ErrorStatus RTC_SetDate(uint32_t RTC_Format, RTC_DateTypeDef* RTC_DateStruct)
 946:/home/rdu/Workspace/project_templates/mcu/stm32_ws/src/libraries/STM32F4xx_StdPeriph_Driver/src/stm32f4xx_rtc.c **** {
 1162              		.loc 1 946 0
 1163              		.cfi_startproc
 1164              		@ args = 0, pretend = 0, frame = 16
 1165              		@ frame_needed = 0, uses_anonymous_args = 0
 1166 0000 10B5     		push	{r4, lr}
 1167              	.LCFI29:
 1168              		.cfi_def_cfa_offset 8
 1169              		.cfi_offset 4, -8
 1170              		.cfi_offset 14, -4
 1171 0002 84B0     		sub	sp, sp, #16
 1172              	.LCFI30:
 1173              		.cfi_def_cfa_offset 24
 1174 0004 0190     		str	r0, [sp, #4]
 1175 0006 0091     		str	r1, [sp]
 947:/home/rdu/Workspace/project_templates/mcu/stm32_ws/src/libraries/STM32F4xx_StdPeriph_Driver/src/stm32f4xx_rtc.c ****   uint32_t tmpreg = 0;
 1176              		.loc 1 947 0
 1177 0008 0023     		movs	r3, #0
 1178 000a 0393     		str	r3, [sp, #12]
 948:/home/rdu/Workspace/project_templates/mcu/stm32_ws/src/libraries/STM32F4xx_StdPeriph_Driver/src/stm32f4xx_rtc.c ****   ErrorStatus status = ERROR;
 1179              		.loc 1 948 0
 1180 000c 0023     		movs	r3, #0
 1181 000e 8DF80B30 		strb	r3, [sp, #11]
 949:/home/rdu/Workspace/project_templates/mcu/stm32_ws/src/libraries/STM32F4xx_StdPeriph_Driver/src/stm32f4xx_rtc.c ****   
 950:/home/rdu/Workspace/project_templates/mcu/stm32_ws/src/libraries/STM32F4xx_StdPeriph_Driver/src/stm32f4xx_rtc.c ****   /* Check the parameters */
 951:/home/rdu/Workspace/project_templates/mcu/stm32_ws/src/libraries/STM32F4xx_StdPeriph_Driver/src/stm32f4xx_rtc.c ****   assert_param(IS_RTC_FORMAT(RTC_Format));
 952:/home/rdu/Workspace/project_templates/mcu/stm32_ws/src/libraries/STM32F4xx_StdPeriph_Driver/src/stm32f4xx_rtc.c **** 
 953:/home/rdu/Workspace/project_templates/mcu/stm32_ws/src/libraries/STM32F4xx_StdPeriph_Driver/src/stm32f4xx_rtc.c ****   if ((RTC_Format == RTC_Format_BIN) && ((RTC_DateStruct->RTC_Month & 0x10) == 0x10))
 1182              		.loc 1 953 0
 1183 0012 019B     		ldr	r3, [sp, #4]
 1184 0014 002B     		cmp	r3, #0
 1185 0016 0ED1     		bne	.L84
 1186              		.loc 1 953 0 is_stmt 0 discriminator 1
 1187 0018 009B     		ldr	r3, [sp]
 1188 001a 5B78     		ldrb	r3, [r3, #1]	@ zero_extendqisi2
 1189 001c 03F01003 		and	r3, r3, #16
 1190 0020 002B     		cmp	r3, #0
 1191 0022 08D0     		beq	.L84
 954:/home/rdu/Workspace/project_templates/mcu/stm32_ws/src/libraries/STM32F4xx_StdPeriph_Driver/src/stm32f4xx_rtc.c ****   {
 955:/home/rdu/Workspace/project_templates/mcu/stm32_ws/src/libraries/STM32F4xx_StdPeriph_Driver/src/stm32f4xx_rtc.c ****     RTC_DateStruct->RTC_Month = (RTC_DateStruct->RTC_Month & (uint32_t)~(0x10)) + 0x0A;
 1192              		.loc 1 955 0 is_stmt 1
 1193 0024 009B     		ldr	r3, [sp]
 1194 0026 5B78     		ldrb	r3, [r3, #1]	@ zero_extendqisi2
 1195 0028 23F01003 		bic	r3, r3, #16
 1196 002c DBB2     		uxtb	r3, r3
 1197 002e 0A33     		adds	r3, r3, #10
 1198 0030 DAB2     		uxtb	r2, r3
 1199 0032 009B     		ldr	r3, [sp]
 1200 0034 5A70     		strb	r2, [r3, #1]
 1201              	.L84:
 956:/home/rdu/Workspace/project_templates/mcu/stm32_ws/src/libraries/STM32F4xx_StdPeriph_Driver/src/stm32f4xx_rtc.c ****   }  
 957:/home/rdu/Workspace/project_templates/mcu/stm32_ws/src/libraries/STM32F4xx_StdPeriph_Driver/src/stm32f4xx_rtc.c ****   if (RTC_Format == RTC_Format_BIN)
 1202              		.loc 1 957 0
 1203 0036 019B     		ldr	r3, [sp, #4]
 1204 0038 002B     		cmp	r3, #0
 1205 003a 0DD0     		beq	.L85
 958:/home/rdu/Workspace/project_templates/mcu/stm32_ws/src/libraries/STM32F4xx_StdPeriph_Driver/src/stm32f4xx_rtc.c ****   {
 959:/home/rdu/Workspace/project_templates/mcu/stm32_ws/src/libraries/STM32F4xx_StdPeriph_Driver/src/stm32f4xx_rtc.c ****     assert_param(IS_RTC_YEAR(RTC_DateStruct->RTC_Year));
 960:/home/rdu/Workspace/project_templates/mcu/stm32_ws/src/libraries/STM32F4xx_StdPeriph_Driver/src/stm32f4xx_rtc.c ****     assert_param(IS_RTC_MONTH(RTC_DateStruct->RTC_Month));
 961:/home/rdu/Workspace/project_templates/mcu/stm32_ws/src/libraries/STM32F4xx_StdPeriph_Driver/src/stm32f4xx_rtc.c ****     assert_param(IS_RTC_DATE(RTC_DateStruct->RTC_Date));
 962:/home/rdu/Workspace/project_templates/mcu/stm32_ws/src/libraries/STM32F4xx_StdPeriph_Driver/src/stm32f4xx_rtc.c ****   }
 963:/home/rdu/Workspace/project_templates/mcu/stm32_ws/src/libraries/STM32F4xx_StdPeriph_Driver/src/stm32f4xx_rtc.c ****   else
 964:/home/rdu/Workspace/project_templates/mcu/stm32_ws/src/libraries/STM32F4xx_StdPeriph_Driver/src/stm32f4xx_rtc.c ****   {
 965:/home/rdu/Workspace/project_templates/mcu/stm32_ws/src/libraries/STM32F4xx_StdPeriph_Driver/src/stm32f4xx_rtc.c ****     assert_param(IS_RTC_YEAR(RTC_Bcd2ToByte(RTC_DateStruct->RTC_Year)));
 966:/home/rdu/Workspace/project_templates/mcu/stm32_ws/src/libraries/STM32F4xx_StdPeriph_Driver/src/stm32f4xx_rtc.c ****     tmpreg = RTC_Bcd2ToByte(RTC_DateStruct->RTC_Month);
 1206              		.loc 1 966 0
 1207 003c 009B     		ldr	r3, [sp]
 1208 003e 5B78     		ldrb	r3, [r3, #1]	@ zero_extendqisi2
 1209 0040 1846     		mov	r0, r3
 1210 0042 FFF7FEFF 		bl	RTC_Bcd2ToByte
 1211 0046 0346     		mov	r3, r0
 1212 0048 0393     		str	r3, [sp, #12]
 967:/home/rdu/Workspace/project_templates/mcu/stm32_ws/src/libraries/STM32F4xx_StdPeriph_Driver/src/stm32f4xx_rtc.c ****     assert_param(IS_RTC_MONTH(tmpreg));
 968:/home/rdu/Workspace/project_templates/mcu/stm32_ws/src/libraries/STM32F4xx_StdPeriph_Driver/src/stm32f4xx_rtc.c ****     tmpreg = RTC_Bcd2ToByte(RTC_DateStruct->RTC_Date);
 1213              		.loc 1 968 0
 1214 004a 009B     		ldr	r3, [sp]
 1215 004c 9B78     		ldrb	r3, [r3, #2]	@ zero_extendqisi2
 1216 004e 1846     		mov	r0, r3
 1217 0050 FFF7FEFF 		bl	RTC_Bcd2ToByte
 1218 0054 0346     		mov	r3, r0
 1219 0056 0393     		str	r3, [sp, #12]
 1220              	.L85:
 969:/home/rdu/Workspace/project_templates/mcu/stm32_ws/src/libraries/STM32F4xx_StdPeriph_Driver/src/stm32f4xx_rtc.c ****     assert_param(IS_RTC_DATE(tmpreg));
 970:/home/rdu/Workspace/project_templates/mcu/stm32_ws/src/libraries/STM32F4xx_StdPeriph_Driver/src/stm32f4xx_rtc.c ****   }
 971:/home/rdu/Workspace/project_templates/mcu/stm32_ws/src/libraries/STM32F4xx_StdPeriph_Driver/src/stm32f4xx_rtc.c ****   assert_param(IS_RTC_WEEKDAY(RTC_DateStruct->RTC_WeekDay));
 972:/home/rdu/Workspace/project_templates/mcu/stm32_ws/src/libraries/STM32F4xx_StdPeriph_Driver/src/stm32f4xx_rtc.c **** 
 973:/home/rdu/Workspace/project_templates/mcu/stm32_ws/src/libraries/STM32F4xx_StdPeriph_Driver/src/stm32f4xx_rtc.c ****   /* Check the input parameters format */
 974:/home/rdu/Workspace/project_templates/mcu/stm32_ws/src/libraries/STM32F4xx_StdPeriph_Driver/src/stm32f4xx_rtc.c ****   if (RTC_Format != RTC_Format_BIN)
 1221              		.loc 1 974 0
 1222 0058 019B     		ldr	r3, [sp, #4]
 1223 005a 002B     		cmp	r3, #0
 1224 005c 0FD0     		beq	.L86
 975:/home/rdu/Workspace/project_templates/mcu/stm32_ws/src/libraries/STM32F4xx_StdPeriph_Driver/src/stm32f4xx_rtc.c ****   {
 976:/home/rdu/Workspace/project_templates/mcu/stm32_ws/src/libraries/STM32F4xx_StdPeriph_Driver/src/stm32f4xx_rtc.c ****     tmpreg = ((((uint32_t)RTC_DateStruct->RTC_Year) << 16) | \
 1225              		.loc 1 976 0
 1226 005e 009B     		ldr	r3, [sp]
 1227 0060 DB78     		ldrb	r3, [r3, #3]	@ zero_extendqisi2
 1228 0062 1A04     		lsls	r2, r3, #16
 977:/home/rdu/Workspace/project_templates/mcu/stm32_ws/src/libraries/STM32F4xx_StdPeriph_Driver/src/stm32f4xx_rtc.c ****               (((uint32_t)RTC_DateStruct->RTC_Month) << 8) | \
 1229              		.loc 1 977 0
 1230 0064 009B     		ldr	r3, [sp]
 1231 0066 5B78     		ldrb	r3, [r3, #1]	@ zero_extendqisi2
 1232 0068 1B02     		lsls	r3, r3, #8
 976:/home/rdu/Workspace/project_templates/mcu/stm32_ws/src/libraries/STM32F4xx_StdPeriph_Driver/src/stm32f4xx_rtc.c ****               (((uint32_t)RTC_DateStruct->RTC_Month) << 8) | \
 1233              		.loc 1 976 0
 1234 006a 1343     		orrs	r3, r3, r2
 978:/home/rdu/Workspace/project_templates/mcu/stm32_ws/src/libraries/STM32F4xx_StdPeriph_Driver/src/stm32f4xx_rtc.c ****               ((uint32_t)RTC_DateStruct->RTC_Date) | \
 1235              		.loc 1 978 0
 1236 006c 009A     		ldr	r2, [sp]
 1237 006e 9278     		ldrb	r2, [r2, #2]	@ zero_extendqisi2
 977:/home/rdu/Workspace/project_templates/mcu/stm32_ws/src/libraries/STM32F4xx_StdPeriph_Driver/src/stm32f4xx_rtc.c ****               (((uint32_t)RTC_DateStruct->RTC_Month) << 8) | \
 1238              		.loc 1 977 0
 1239 0070 1A43     		orrs	r2, r2, r3
 979:/home/rdu/Workspace/project_templates/mcu/stm32_ws/src/libraries/STM32F4xx_StdPeriph_Driver/src/stm32f4xx_rtc.c ****               (((uint32_t)RTC_DateStruct->RTC_WeekDay) << 13)); 
 1240              		.loc 1 979 0
 1241 0072 009B     		ldr	r3, [sp]
 1242 0074 1B78     		ldrb	r3, [r3]	@ zero_extendqisi2
 1243 0076 5B03     		lsls	r3, r3, #13
 976:/home/rdu/Workspace/project_templates/mcu/stm32_ws/src/libraries/STM32F4xx_StdPeriph_Driver/src/stm32f4xx_rtc.c ****               (((uint32_t)RTC_DateStruct->RTC_Month) << 8) | \
 1244              		.loc 1 976 0
 1245 0078 1343     		orrs	r3, r3, r2
 1246 007a 0393     		str	r3, [sp, #12]
 1247 007c 1BE0     		b	.L87
 1248              	.L86:
 980:/home/rdu/Workspace/project_templates/mcu/stm32_ws/src/libraries/STM32F4xx_StdPeriph_Driver/src/stm32f4xx_rtc.c ****   }  
 981:/home/rdu/Workspace/project_templates/mcu/stm32_ws/src/libraries/STM32F4xx_StdPeriph_Driver/src/stm32f4xx_rtc.c ****   else
 982:/home/rdu/Workspace/project_templates/mcu/stm32_ws/src/libraries/STM32F4xx_StdPeriph_Driver/src/stm32f4xx_rtc.c ****   {
 983:/home/rdu/Workspace/project_templates/mcu/stm32_ws/src/libraries/STM32F4xx_StdPeriph_Driver/src/stm32f4xx_rtc.c ****     tmpreg = (((uint32_t)RTC_ByteToBcd2(RTC_DateStruct->RTC_Year) << 16) | \
 1249              		.loc 1 983 0
 1250 007e 009B     		ldr	r3, [sp]
 1251 0080 DB78     		ldrb	r3, [r3, #3]	@ zero_extendqisi2
 1252 0082 1846     		mov	r0, r3
 1253 0084 FFF7FEFF 		bl	RTC_ByteToBcd2
 1254 0088 0346     		mov	r3, r0
 1255 008a 1C04     		lsls	r4, r3, #16
 984:/home/rdu/Workspace/project_templates/mcu/stm32_ws/src/libraries/STM32F4xx_StdPeriph_Driver/src/stm32f4xx_rtc.c ****               ((uint32_t)RTC_ByteToBcd2(RTC_DateStruct->RTC_Month) << 8) | \
 1256              		.loc 1 984 0
 1257 008c 009B     		ldr	r3, [sp]
 1258 008e 5B78     		ldrb	r3, [r3, #1]	@ zero_extendqisi2
 1259 0090 1846     		mov	r0, r3
 1260 0092 FFF7FEFF 		bl	RTC_ByteToBcd2
 1261 0096 0346     		mov	r3, r0
 1262 0098 1B02     		lsls	r3, r3, #8
 983:/home/rdu/Workspace/project_templates/mcu/stm32_ws/src/libraries/STM32F4xx_StdPeriph_Driver/src/stm32f4xx_rtc.c ****               ((uint32_t)RTC_ByteToBcd2(RTC_DateStruct->RTC_Month) << 8) | \
 1263              		.loc 1 983 0
 1264 009a 1C43     		orrs	r4, r4, r3
 985:/home/rdu/Workspace/project_templates/mcu/stm32_ws/src/libraries/STM32F4xx_StdPeriph_Driver/src/stm32f4xx_rtc.c ****               ((uint32_t)RTC_ByteToBcd2(RTC_DateStruct->RTC_Date)) | \
 1265              		.loc 1 985 0
 1266 009c 009B     		ldr	r3, [sp]
 1267 009e 9B78     		ldrb	r3, [r3, #2]	@ zero_extendqisi2
 1268 00a0 1846     		mov	r0, r3
 1269 00a2 FFF7FEFF 		bl	RTC_ByteToBcd2
 1270 00a6 0346     		mov	r3, r0
 984:/home/rdu/Workspace/project_templates/mcu/stm32_ws/src/libraries/STM32F4xx_StdPeriph_Driver/src/stm32f4xx_rtc.c ****               ((uint32_t)RTC_ByteToBcd2(RTC_DateStruct->RTC_Month) << 8) | \
 1271              		.loc 1 984 0
 1272 00a8 44EA0302 		orr	r2, r4, r3
 986:/home/rdu/Workspace/project_templates/mcu/stm32_ws/src/libraries/STM32F4xx_StdPeriph_Driver/src/stm32f4xx_rtc.c ****               ((uint32_t)RTC_DateStruct->RTC_WeekDay << 13));
 1273              		.loc 1 986 0
 1274 00ac 009B     		ldr	r3, [sp]
 1275 00ae 1B78     		ldrb	r3, [r3]	@ zero_extendqisi2
 1276 00b0 5B03     		lsls	r3, r3, #13
 983:/home/rdu/Workspace/project_templates/mcu/stm32_ws/src/libraries/STM32F4xx_StdPeriph_Driver/src/stm32f4xx_rtc.c ****               ((uint32_t)RTC_ByteToBcd2(RTC_DateStruct->RTC_Month) << 8) | \
 1277              		.loc 1 983 0
 1278 00b2 1343     		orrs	r3, r3, r2
 1279 00b4 0393     		str	r3, [sp, #12]
 1280              	.L87:
 987:/home/rdu/Workspace/project_templates/mcu/stm32_ws/src/libraries/STM32F4xx_StdPeriph_Driver/src/stm32f4xx_rtc.c ****   }
 988:/home/rdu/Workspace/project_templates/mcu/stm32_ws/src/libraries/STM32F4xx_StdPeriph_Driver/src/stm32f4xx_rtc.c **** 
 989:/home/rdu/Workspace/project_templates/mcu/stm32_ws/src/libraries/STM32F4xx_StdPeriph_Driver/src/stm32f4xx_rtc.c ****   /* Disable the write protection for RTC registers */
 990:/home/rdu/Workspace/project_templates/mcu/stm32_ws/src/libraries/STM32F4xx_StdPeriph_Driver/src/stm32f4xx_rtc.c ****   RTC->WPR = 0xCA;
 1281              		.loc 1 990 0
 1282 00b6 1B4B     		ldr	r3, .L94
 1283 00b8 CA22     		movs	r2, #202
 1284 00ba 5A62     		str	r2, [r3, #36]
 991:/home/rdu/Workspace/project_templates/mcu/stm32_ws/src/libraries/STM32F4xx_StdPeriph_Driver/src/stm32f4xx_rtc.c ****   RTC->WPR = 0x53;
 1285              		.loc 1 991 0
 1286 00bc 194B     		ldr	r3, .L94
 1287 00be 5322     		movs	r2, #83
 1288 00c0 5A62     		str	r2, [r3, #36]
 992:/home/rdu/Workspace/project_templates/mcu/stm32_ws/src/libraries/STM32F4xx_StdPeriph_Driver/src/stm32f4xx_rtc.c **** 
 993:/home/rdu/Workspace/project_templates/mcu/stm32_ws/src/libraries/STM32F4xx_StdPeriph_Driver/src/stm32f4xx_rtc.c ****   /* Set Initialization mode */
 994:/home/rdu/Workspace/project_templates/mcu/stm32_ws/src/libraries/STM32F4xx_StdPeriph_Driver/src/stm32f4xx_rtc.c ****   if (RTC_EnterInitMode() == ERROR)
 1289              		.loc 1 994 0
 1290 00c2 FFF7FEFF 		bl	RTC_EnterInitMode
 1291 00c6 0346     		mov	r3, r0
 1292 00c8 002B     		cmp	r3, #0
 1293 00ca 03D1     		bne	.L88
 995:/home/rdu/Workspace/project_templates/mcu/stm32_ws/src/libraries/STM32F4xx_StdPeriph_Driver/src/stm32f4xx_rtc.c ****   {
 996:/home/rdu/Workspace/project_templates/mcu/stm32_ws/src/libraries/STM32F4xx_StdPeriph_Driver/src/stm32f4xx_rtc.c ****     status = ERROR;
 1294              		.loc 1 996 0
 1295 00cc 0023     		movs	r3, #0
 1296 00ce 8DF80B30 		strb	r3, [sp, #11]
 1297 00d2 1EE0     		b	.L89
 1298              	.L88:
 997:/home/rdu/Workspace/project_templates/mcu/stm32_ws/src/libraries/STM32F4xx_StdPeriph_Driver/src/stm32f4xx_rtc.c ****   } 
 998:/home/rdu/Workspace/project_templates/mcu/stm32_ws/src/libraries/STM32F4xx_StdPeriph_Driver/src/stm32f4xx_rtc.c ****   else
 999:/home/rdu/Workspace/project_templates/mcu/stm32_ws/src/libraries/STM32F4xx_StdPeriph_Driver/src/stm32f4xx_rtc.c ****   {
1000:/home/rdu/Workspace/project_templates/mcu/stm32_ws/src/libraries/STM32F4xx_StdPeriph_Driver/src/stm32f4xx_rtc.c ****     /* Set the RTC_DR register */
1001:/home/rdu/Workspace/project_templates/mcu/stm32_ws/src/libraries/STM32F4xx_StdPeriph_Driver/src/stm32f4xx_rtc.c ****     RTC->DR = (uint32_t)(tmpreg & RTC_DR_RESERVED_MASK);
 1299              		.loc 1 1001 0
 1300 00d4 134A     		ldr	r2, .L94
 1301 00d6 039B     		ldr	r3, [sp, #12]
 1302 00d8 23F07F43 		bic	r3, r3, #-16777216
 1303 00dc 23F0C003 		bic	r3, r3, #192
 1304 00e0 5360     		str	r3, [r2, #4]
1002:/home/rdu/Workspace/project_templates/mcu/stm32_ws/src/libraries/STM32F4xx_StdPeriph_Driver/src/stm32f4xx_rtc.c **** 
1003:/home/rdu/Workspace/project_templates/mcu/stm32_ws/src/libraries/STM32F4xx_StdPeriph_Driver/src/stm32f4xx_rtc.c ****     /* Exit Initialization mode */
1004:/home/rdu/Workspace/project_templates/mcu/stm32_ws/src/libraries/STM32F4xx_StdPeriph_Driver/src/stm32f4xx_rtc.c ****     RTC_ExitInitMode(); 
 1305              		.loc 1 1004 0
 1306 00e2 FFF7FEFF 		bl	RTC_ExitInitMode
1005:/home/rdu/Workspace/project_templates/mcu/stm32_ws/src/libraries/STM32F4xx_StdPeriph_Driver/src/stm32f4xx_rtc.c **** 
1006:/home/rdu/Workspace/project_templates/mcu/stm32_ws/src/libraries/STM32F4xx_StdPeriph_Driver/src/stm32f4xx_rtc.c ****     /* If  RTC_CR_BYPSHAD bit = 0, wait for synchro else this check is not needed */
1007:/home/rdu/Workspace/project_templates/mcu/stm32_ws/src/libraries/STM32F4xx_StdPeriph_Driver/src/stm32f4xx_rtc.c ****     if ((RTC->CR & RTC_CR_BYPSHAD) == RESET)
 1307              		.loc 1 1007 0
 1308 00e6 0F4B     		ldr	r3, .L94
 1309 00e8 9B68     		ldr	r3, [r3, #8]
 1310 00ea 03F02003 		and	r3, r3, #32
 1311 00ee 002B     		cmp	r3, #0
 1312 00f0 0CD1     		bne	.L90
1008:/home/rdu/Workspace/project_templates/mcu/stm32_ws/src/libraries/STM32F4xx_StdPeriph_Driver/src/stm32f4xx_rtc.c ****     {
1009:/home/rdu/Workspace/project_templates/mcu/stm32_ws/src/libraries/STM32F4xx_StdPeriph_Driver/src/stm32f4xx_rtc.c ****     if(RTC_WaitForSynchro() == ERROR)
 1313              		.loc 1 1009 0
 1314 00f2 FFF7FEFF 		bl	RTC_WaitForSynchro
 1315 00f6 0346     		mov	r3, r0
 1316 00f8 002B     		cmp	r3, #0
 1317 00fa 03D1     		bne	.L91
1010:/home/rdu/Workspace/project_templates/mcu/stm32_ws/src/libraries/STM32F4xx_StdPeriph_Driver/src/stm32f4xx_rtc.c ****     {
1011:/home/rdu/Workspace/project_templates/mcu/stm32_ws/src/libraries/STM32F4xx_StdPeriph_Driver/src/stm32f4xx_rtc.c ****       status = ERROR;
 1318              		.loc 1 1011 0
 1319 00fc 0023     		movs	r3, #0
 1320 00fe 8DF80B30 		strb	r3, [sp, #11]
 1321 0102 06E0     		b	.L89
 1322              	.L91:
1012:/home/rdu/Workspace/project_templates/mcu/stm32_ws/src/libraries/STM32F4xx_StdPeriph_Driver/src/stm32f4xx_rtc.c ****     }
1013:/home/rdu/Workspace/project_templates/mcu/stm32_ws/src/libraries/STM32F4xx_StdPeriph_Driver/src/stm32f4xx_rtc.c ****     else
1014:/home/rdu/Workspace/project_templates/mcu/stm32_ws/src/libraries/STM32F4xx_StdPeriph_Driver/src/stm32f4xx_rtc.c ****     {
1015:/home/rdu/Workspace/project_templates/mcu/stm32_ws/src/libraries/STM32F4xx_StdPeriph_Driver/src/stm32f4xx_rtc.c ****       status = SUCCESS;
 1323              		.loc 1 1015 0
 1324 0104 0123     		movs	r3, #1
 1325 0106 8DF80B30 		strb	r3, [sp, #11]
 1326 010a 02E0     		b	.L89
 1327              	.L90:
1016:/home/rdu/Workspace/project_templates/mcu/stm32_ws/src/libraries/STM32F4xx_StdPeriph_Driver/src/stm32f4xx_rtc.c ****     }
1017:/home/rdu/Workspace/project_templates/mcu/stm32_ws/src/libraries/STM32F4xx_StdPeriph_Driver/src/stm32f4xx_rtc.c ****   }
1018:/home/rdu/Workspace/project_templates/mcu/stm32_ws/src/libraries/STM32F4xx_StdPeriph_Driver/src/stm32f4xx_rtc.c ****     else
1019:/home/rdu/Workspace/project_templates/mcu/stm32_ws/src/libraries/STM32F4xx_StdPeriph_Driver/src/stm32f4xx_rtc.c ****     {
1020:/home/rdu/Workspace/project_templates/mcu/stm32_ws/src/libraries/STM32F4xx_StdPeriph_Driver/src/stm32f4xx_rtc.c ****       status = SUCCESS;
 1328              		.loc 1 1020 0
 1329 010c 0123     		movs	r3, #1
 1330 010e 8DF80B30 		strb	r3, [sp, #11]
 1331              	.L89:
1021:/home/rdu/Workspace/project_templates/mcu/stm32_ws/src/libraries/STM32F4xx_StdPeriph_Driver/src/stm32f4xx_rtc.c ****     }
1022:/home/rdu/Workspace/project_templates/mcu/stm32_ws/src/libraries/STM32F4xx_StdPeriph_Driver/src/stm32f4xx_rtc.c ****   }
1023:/home/rdu/Workspace/project_templates/mcu/stm32_ws/src/libraries/STM32F4xx_StdPeriph_Driver/src/stm32f4xx_rtc.c ****   /* Enable the write protection for RTC registers */
1024:/home/rdu/Workspace/project_templates/mcu/stm32_ws/src/libraries/STM32F4xx_StdPeriph_Driver/src/stm32f4xx_rtc.c ****   RTC->WPR = 0xFF;   
 1332              		.loc 1 1024 0
 1333 0112 044B     		ldr	r3, .L94
 1334 0114 FF22     		movs	r2, #255
 1335 0116 5A62     		str	r2, [r3, #36]
1025:/home/rdu/Workspace/project_templates/mcu/stm32_ws/src/libraries/STM32F4xx_StdPeriph_Driver/src/stm32f4xx_rtc.c ****   
1026:/home/rdu/Workspace/project_templates/mcu/stm32_ws/src/libraries/STM32F4xx_StdPeriph_Driver/src/stm32f4xx_rtc.c ****   return status;
 1336              		.loc 1 1026 0
 1337 0118 9DF80B30 		ldrb	r3, [sp, #11]	@ zero_extendqisi2
1027:/home/rdu/Workspace/project_templates/mcu/stm32_ws/src/libraries/STM32F4xx_StdPeriph_Driver/src/stm32f4xx_rtc.c **** }
 1338              		.loc 1 1027 0
 1339 011c 1846     		mov	r0, r3
 1340 011e 04B0     		add	sp, sp, #16
 1341              	.LCFI31:
 1342              		.cfi_def_cfa_offset 8
 1343              		@ sp needed
 1344 0120 10BD     		pop	{r4, pc}
 1345              	.L95:
 1346 0122 00BF     		.align	2
 1347              	.L94:
 1348 0124 00280040 		.word	1073752064
 1349              		.cfi_endproc
 1350              	.LFE136:
 1352              		.section	.text.RTC_DateStructInit,"ax",%progbits
 1353              		.align	1
 1354              		.global	RTC_DateStructInit
 1355              		.syntax unified
 1356              		.thumb
 1357              		.thumb_func
 1358              		.fpu fpv4-sp-d16
 1360              	RTC_DateStructInit:
 1361              	.LFB137:
1028:/home/rdu/Workspace/project_templates/mcu/stm32_ws/src/libraries/STM32F4xx_StdPeriph_Driver/src/stm32f4xx_rtc.c **** 
1029:/home/rdu/Workspace/project_templates/mcu/stm32_ws/src/libraries/STM32F4xx_StdPeriph_Driver/src/stm32f4xx_rtc.c **** /**
1030:/home/rdu/Workspace/project_templates/mcu/stm32_ws/src/libraries/STM32F4xx_StdPeriph_Driver/src/stm32f4xx_rtc.c ****   * @brief  Fills each RTC_DateStruct member with its default value
1031:/home/rdu/Workspace/project_templates/mcu/stm32_ws/src/libraries/STM32F4xx_StdPeriph_Driver/src/stm32f4xx_rtc.c ****   *         (Monday, January 01 xx00).
1032:/home/rdu/Workspace/project_templates/mcu/stm32_ws/src/libraries/STM32F4xx_StdPeriph_Driver/src/stm32f4xx_rtc.c ****   * @param  RTC_DateStruct: pointer to a RTC_DateTypeDef structure which will be 
1033:/home/rdu/Workspace/project_templates/mcu/stm32_ws/src/libraries/STM32F4xx_StdPeriph_Driver/src/stm32f4xx_rtc.c ****   *         initialized.
1034:/home/rdu/Workspace/project_templates/mcu/stm32_ws/src/libraries/STM32F4xx_StdPeriph_Driver/src/stm32f4xx_rtc.c ****   * @retval None
1035:/home/rdu/Workspace/project_templates/mcu/stm32_ws/src/libraries/STM32F4xx_StdPeriph_Driver/src/stm32f4xx_rtc.c ****   */
1036:/home/rdu/Workspace/project_templates/mcu/stm32_ws/src/libraries/STM32F4xx_StdPeriph_Driver/src/stm32f4xx_rtc.c **** void RTC_DateStructInit(RTC_DateTypeDef* RTC_DateStruct)
1037:/home/rdu/Workspace/project_templates/mcu/stm32_ws/src/libraries/STM32F4xx_StdPeriph_Driver/src/stm32f4xx_rtc.c **** {
 1362              		.loc 1 1037 0
 1363              		.cfi_startproc
 1364              		@ args = 0, pretend = 0, frame = 8
 1365              		@ frame_needed = 0, uses_anonymous_args = 0
 1366              		@ link register save eliminated.
 1367 0000 82B0     		sub	sp, sp, #8
 1368              	.LCFI32:
 1369              		.cfi_def_cfa_offset 8
 1370 0002 0190     		str	r0, [sp, #4]
1038:/home/rdu/Workspace/project_templates/mcu/stm32_ws/src/libraries/STM32F4xx_StdPeriph_Driver/src/stm32f4xx_rtc.c ****   /* Monday, January 01 xx00 */
1039:/home/rdu/Workspace/project_templates/mcu/stm32_ws/src/libraries/STM32F4xx_StdPeriph_Driver/src/stm32f4xx_rtc.c ****   RTC_DateStruct->RTC_WeekDay = RTC_Weekday_Monday;
 1371              		.loc 1 1039 0
 1372 0004 019B     		ldr	r3, [sp, #4]
 1373 0006 0122     		movs	r2, #1
 1374 0008 1A70     		strb	r2, [r3]
1040:/home/rdu/Workspace/project_templates/mcu/stm32_ws/src/libraries/STM32F4xx_StdPeriph_Driver/src/stm32f4xx_rtc.c ****   RTC_DateStruct->RTC_Date = 1;
 1375              		.loc 1 1040 0
 1376 000a 019B     		ldr	r3, [sp, #4]
 1377 000c 0122     		movs	r2, #1
 1378 000e 9A70     		strb	r2, [r3, #2]
1041:/home/rdu/Workspace/project_templates/mcu/stm32_ws/src/libraries/STM32F4xx_StdPeriph_Driver/src/stm32f4xx_rtc.c ****   RTC_DateStruct->RTC_Month = RTC_Month_January;
 1379              		.loc 1 1041 0
 1380 0010 019B     		ldr	r3, [sp, #4]
 1381 0012 0122     		movs	r2, #1
 1382 0014 5A70     		strb	r2, [r3, #1]
1042:/home/rdu/Workspace/project_templates/mcu/stm32_ws/src/libraries/STM32F4xx_StdPeriph_Driver/src/stm32f4xx_rtc.c ****   RTC_DateStruct->RTC_Year = 0;
 1383              		.loc 1 1042 0
 1384 0016 019B     		ldr	r3, [sp, #4]
 1385 0018 0022     		movs	r2, #0
 1386 001a DA70     		strb	r2, [r3, #3]
1043:/home/rdu/Workspace/project_templates/mcu/stm32_ws/src/libraries/STM32F4xx_StdPeriph_Driver/src/stm32f4xx_rtc.c **** }
 1387              		.loc 1 1043 0
 1388 001c 00BF     		nop
 1389 001e 02B0     		add	sp, sp, #8
 1390              	.LCFI33:
 1391              		.cfi_def_cfa_offset 0
 1392              		@ sp needed
 1393 0020 7047     		bx	lr
 1394              		.cfi_endproc
 1395              	.LFE137:
 1397              		.section	.text.RTC_GetDate,"ax",%progbits
 1398              		.align	1
 1399              		.global	RTC_GetDate
 1400              		.syntax unified
 1401              		.thumb
 1402              		.thumb_func
 1403              		.fpu fpv4-sp-d16
 1405              	RTC_GetDate:
 1406              	.LFB138:
1044:/home/rdu/Workspace/project_templates/mcu/stm32_ws/src/libraries/STM32F4xx_StdPeriph_Driver/src/stm32f4xx_rtc.c **** 
1045:/home/rdu/Workspace/project_templates/mcu/stm32_ws/src/libraries/STM32F4xx_StdPeriph_Driver/src/stm32f4xx_rtc.c **** /**
1046:/home/rdu/Workspace/project_templates/mcu/stm32_ws/src/libraries/STM32F4xx_StdPeriph_Driver/src/stm32f4xx_rtc.c ****   * @brief  Get the RTC current date. 
1047:/home/rdu/Workspace/project_templates/mcu/stm32_ws/src/libraries/STM32F4xx_StdPeriph_Driver/src/stm32f4xx_rtc.c ****   * @param  RTC_Format: specifies the format of the returned parameters.
1048:/home/rdu/Workspace/project_templates/mcu/stm32_ws/src/libraries/STM32F4xx_StdPeriph_Driver/src/stm32f4xx_rtc.c ****   *          This parameter can be one of the following values:
1049:/home/rdu/Workspace/project_templates/mcu/stm32_ws/src/libraries/STM32F4xx_StdPeriph_Driver/src/stm32f4xx_rtc.c ****   *            @arg RTC_Format_BIN: Binary data format 
1050:/home/rdu/Workspace/project_templates/mcu/stm32_ws/src/libraries/STM32F4xx_StdPeriph_Driver/src/stm32f4xx_rtc.c ****   *            @arg RTC_Format_BCD: BCD data format
1051:/home/rdu/Workspace/project_templates/mcu/stm32_ws/src/libraries/STM32F4xx_StdPeriph_Driver/src/stm32f4xx_rtc.c ****   * @param RTC_DateStruct: pointer to a RTC_DateTypeDef structure that will 
1052:/home/rdu/Workspace/project_templates/mcu/stm32_ws/src/libraries/STM32F4xx_StdPeriph_Driver/src/stm32f4xx_rtc.c ****   *                        contain the returned current date configuration.     
1053:/home/rdu/Workspace/project_templates/mcu/stm32_ws/src/libraries/STM32F4xx_StdPeriph_Driver/src/stm32f4xx_rtc.c ****   * @retval None
1054:/home/rdu/Workspace/project_templates/mcu/stm32_ws/src/libraries/STM32F4xx_StdPeriph_Driver/src/stm32f4xx_rtc.c ****   */
1055:/home/rdu/Workspace/project_templates/mcu/stm32_ws/src/libraries/STM32F4xx_StdPeriph_Driver/src/stm32f4xx_rtc.c **** void RTC_GetDate(uint32_t RTC_Format, RTC_DateTypeDef* RTC_DateStruct)
1056:/home/rdu/Workspace/project_templates/mcu/stm32_ws/src/libraries/STM32F4xx_StdPeriph_Driver/src/stm32f4xx_rtc.c **** {
 1407              		.loc 1 1056 0
 1408              		.cfi_startproc
 1409              		@ args = 0, pretend = 0, frame = 16
 1410              		@ frame_needed = 0, uses_anonymous_args = 0
 1411 0000 00B5     		push	{lr}
 1412              	.LCFI34:
 1413              		.cfi_def_cfa_offset 4
 1414              		.cfi_offset 14, -4
 1415 0002 85B0     		sub	sp, sp, #20
 1416              	.LCFI35:
 1417              		.cfi_def_cfa_offset 24
 1418 0004 0190     		str	r0, [sp, #4]
 1419 0006 0091     		str	r1, [sp]
1057:/home/rdu/Workspace/project_templates/mcu/stm32_ws/src/libraries/STM32F4xx_StdPeriph_Driver/src/stm32f4xx_rtc.c ****   uint32_t tmpreg = 0;
 1420              		.loc 1 1057 0
 1421 0008 0023     		movs	r3, #0
 1422 000a 0393     		str	r3, [sp, #12]
1058:/home/rdu/Workspace/project_templates/mcu/stm32_ws/src/libraries/STM32F4xx_StdPeriph_Driver/src/stm32f4xx_rtc.c **** 
1059:/home/rdu/Workspace/project_templates/mcu/stm32_ws/src/libraries/STM32F4xx_StdPeriph_Driver/src/stm32f4xx_rtc.c ****   /* Check the parameters */
1060:/home/rdu/Workspace/project_templates/mcu/stm32_ws/src/libraries/STM32F4xx_StdPeriph_Driver/src/stm32f4xx_rtc.c ****   assert_param(IS_RTC_FORMAT(RTC_Format));
1061:/home/rdu/Workspace/project_templates/mcu/stm32_ws/src/libraries/STM32F4xx_StdPeriph_Driver/src/stm32f4xx_rtc.c ****   
1062:/home/rdu/Workspace/project_templates/mcu/stm32_ws/src/libraries/STM32F4xx_StdPeriph_Driver/src/stm32f4xx_rtc.c ****   /* Get the RTC_TR register */
1063:/home/rdu/Workspace/project_templates/mcu/stm32_ws/src/libraries/STM32F4xx_StdPeriph_Driver/src/stm32f4xx_rtc.c ****   tmpreg = (uint32_t)(RTC->DR & RTC_DR_RESERVED_MASK); 
 1423              		.loc 1 1063 0
 1424 000c 224B     		ldr	r3, .L100
 1425 000e 5B68     		ldr	r3, [r3, #4]
 1426 0010 23F07F43 		bic	r3, r3, #-16777216
 1427 0014 23F0C003 		bic	r3, r3, #192
 1428 0018 0393     		str	r3, [sp, #12]
1064:/home/rdu/Workspace/project_templates/mcu/stm32_ws/src/libraries/STM32F4xx_StdPeriph_Driver/src/stm32f4xx_rtc.c **** 
1065:/home/rdu/Workspace/project_templates/mcu/stm32_ws/src/libraries/STM32F4xx_StdPeriph_Driver/src/stm32f4xx_rtc.c ****   /* Fill the structure fields with the read parameters */
1066:/home/rdu/Workspace/project_templates/mcu/stm32_ws/src/libraries/STM32F4xx_StdPeriph_Driver/src/stm32f4xx_rtc.c ****   RTC_DateStruct->RTC_Year = (uint8_t)((tmpreg & (RTC_DR_YT | RTC_DR_YU)) >> 16);
 1429              		.loc 1 1066 0
 1430 001a 039B     		ldr	r3, [sp, #12]
 1431 001c 1B0C     		lsrs	r3, r3, #16
 1432 001e DAB2     		uxtb	r2, r3
 1433 0020 009B     		ldr	r3, [sp]
 1434 0022 DA70     		strb	r2, [r3, #3]
1067:/home/rdu/Workspace/project_templates/mcu/stm32_ws/src/libraries/STM32F4xx_StdPeriph_Driver/src/stm32f4xx_rtc.c ****   RTC_DateStruct->RTC_Month = (uint8_t)((tmpreg & (RTC_DR_MT | RTC_DR_MU)) >> 8);
 1435              		.loc 1 1067 0
 1436 0024 039B     		ldr	r3, [sp, #12]
 1437 0026 1B0A     		lsrs	r3, r3, #8
 1438 0028 DBB2     		uxtb	r3, r3
 1439 002a 03F01F03 		and	r3, r3, #31
 1440 002e DAB2     		uxtb	r2, r3
 1441 0030 009B     		ldr	r3, [sp]
 1442 0032 5A70     		strb	r2, [r3, #1]
1068:/home/rdu/Workspace/project_templates/mcu/stm32_ws/src/libraries/STM32F4xx_StdPeriph_Driver/src/stm32f4xx_rtc.c ****   RTC_DateStruct->RTC_Date = (uint8_t)(tmpreg & (RTC_DR_DT | RTC_DR_DU));
 1443              		.loc 1 1068 0
 1444 0034 039B     		ldr	r3, [sp, #12]
 1445 0036 DBB2     		uxtb	r3, r3
 1446 0038 03F03F03 		and	r3, r3, #63
 1447 003c DAB2     		uxtb	r2, r3
 1448 003e 009B     		ldr	r3, [sp]
 1449 0040 9A70     		strb	r2, [r3, #2]
1069:/home/rdu/Workspace/project_templates/mcu/stm32_ws/src/libraries/STM32F4xx_StdPeriph_Driver/src/stm32f4xx_rtc.c ****   RTC_DateStruct->RTC_WeekDay = (uint8_t)((tmpreg & (RTC_DR_WDU)) >> 13);
 1450              		.loc 1 1069 0
 1451 0042 039B     		ldr	r3, [sp, #12]
 1452 0044 5B0B     		lsrs	r3, r3, #13
 1453 0046 DBB2     		uxtb	r3, r3
 1454 0048 03F00703 		and	r3, r3, #7
 1455 004c DAB2     		uxtb	r2, r3
 1456 004e 009B     		ldr	r3, [sp]
 1457 0050 1A70     		strb	r2, [r3]
1070:/home/rdu/Workspace/project_templates/mcu/stm32_ws/src/libraries/STM32F4xx_StdPeriph_Driver/src/stm32f4xx_rtc.c **** 
1071:/home/rdu/Workspace/project_templates/mcu/stm32_ws/src/libraries/STM32F4xx_StdPeriph_Driver/src/stm32f4xx_rtc.c ****   /* Check the input parameters format */
1072:/home/rdu/Workspace/project_templates/mcu/stm32_ws/src/libraries/STM32F4xx_StdPeriph_Driver/src/stm32f4xx_rtc.c ****   if (RTC_Format == RTC_Format_BIN)
 1458              		.loc 1 1072 0
 1459 0052 019B     		ldr	r3, [sp, #4]
 1460 0054 002B     		cmp	r3, #0
 1461 0056 1AD1     		bne	.L99
1073:/home/rdu/Workspace/project_templates/mcu/stm32_ws/src/libraries/STM32F4xx_StdPeriph_Driver/src/stm32f4xx_rtc.c ****   {
1074:/home/rdu/Workspace/project_templates/mcu/stm32_ws/src/libraries/STM32F4xx_StdPeriph_Driver/src/stm32f4xx_rtc.c ****     /* Convert the structure parameters to Binary format */
1075:/home/rdu/Workspace/project_templates/mcu/stm32_ws/src/libraries/STM32F4xx_StdPeriph_Driver/src/stm32f4xx_rtc.c ****     RTC_DateStruct->RTC_Year = (uint8_t)RTC_Bcd2ToByte(RTC_DateStruct->RTC_Year);
 1462              		.loc 1 1075 0
 1463 0058 009B     		ldr	r3, [sp]
 1464 005a DB78     		ldrb	r3, [r3, #3]	@ zero_extendqisi2
 1465 005c 1846     		mov	r0, r3
 1466 005e FFF7FEFF 		bl	RTC_Bcd2ToByte
 1467 0062 0346     		mov	r3, r0
 1468 0064 1A46     		mov	r2, r3
 1469 0066 009B     		ldr	r3, [sp]
 1470 0068 DA70     		strb	r2, [r3, #3]
1076:/home/rdu/Workspace/project_templates/mcu/stm32_ws/src/libraries/STM32F4xx_StdPeriph_Driver/src/stm32f4xx_rtc.c ****     RTC_DateStruct->RTC_Month = (uint8_t)RTC_Bcd2ToByte(RTC_DateStruct->RTC_Month);
 1471              		.loc 1 1076 0
 1472 006a 009B     		ldr	r3, [sp]
 1473 006c 5B78     		ldrb	r3, [r3, #1]	@ zero_extendqisi2
 1474 006e 1846     		mov	r0, r3
 1475 0070 FFF7FEFF 		bl	RTC_Bcd2ToByte
 1476 0074 0346     		mov	r3, r0
 1477 0076 1A46     		mov	r2, r3
 1478 0078 009B     		ldr	r3, [sp]
 1479 007a 5A70     		strb	r2, [r3, #1]
1077:/home/rdu/Workspace/project_templates/mcu/stm32_ws/src/libraries/STM32F4xx_StdPeriph_Driver/src/stm32f4xx_rtc.c ****     RTC_DateStruct->RTC_Date = (uint8_t)RTC_Bcd2ToByte(RTC_DateStruct->RTC_Date);
 1480              		.loc 1 1077 0
 1481 007c 009B     		ldr	r3, [sp]
 1482 007e 9B78     		ldrb	r3, [r3, #2]	@ zero_extendqisi2
 1483 0080 1846     		mov	r0, r3
 1484 0082 FFF7FEFF 		bl	RTC_Bcd2ToByte
 1485 0086 0346     		mov	r3, r0
 1486 0088 1A46     		mov	r2, r3
 1487 008a 009B     		ldr	r3, [sp]
 1488 008c 9A70     		strb	r2, [r3, #2]
 1489              	.L99:
1078:/home/rdu/Workspace/project_templates/mcu/stm32_ws/src/libraries/STM32F4xx_StdPeriph_Driver/src/stm32f4xx_rtc.c ****   }
1079:/home/rdu/Workspace/project_templates/mcu/stm32_ws/src/libraries/STM32F4xx_StdPeriph_Driver/src/stm32f4xx_rtc.c **** }
 1490              		.loc 1 1079 0
 1491 008e 00BF     		nop
 1492 0090 05B0     		add	sp, sp, #20
 1493              	.LCFI36:
 1494              		.cfi_def_cfa_offset 4
 1495              		@ sp needed
 1496 0092 5DF804FB 		ldr	pc, [sp], #4
 1497              	.L101:
 1498 0096 00BF     		.align	2
 1499              	.L100:
 1500 0098 00280040 		.word	1073752064
 1501              		.cfi_endproc
 1502              	.LFE138:
 1504              		.section	.text.RTC_SetAlarm,"ax",%progbits
 1505              		.align	1
 1506              		.global	RTC_SetAlarm
 1507              		.syntax unified
 1508              		.thumb
 1509              		.thumb_func
 1510              		.fpu fpv4-sp-d16
 1512              	RTC_SetAlarm:
 1513              	.LFB139:
1080:/home/rdu/Workspace/project_templates/mcu/stm32_ws/src/libraries/STM32F4xx_StdPeriph_Driver/src/stm32f4xx_rtc.c **** 
1081:/home/rdu/Workspace/project_templates/mcu/stm32_ws/src/libraries/STM32F4xx_StdPeriph_Driver/src/stm32f4xx_rtc.c **** /**
1082:/home/rdu/Workspace/project_templates/mcu/stm32_ws/src/libraries/STM32F4xx_StdPeriph_Driver/src/stm32f4xx_rtc.c ****   * @}
1083:/home/rdu/Workspace/project_templates/mcu/stm32_ws/src/libraries/STM32F4xx_StdPeriph_Driver/src/stm32f4xx_rtc.c ****   */
1084:/home/rdu/Workspace/project_templates/mcu/stm32_ws/src/libraries/STM32F4xx_StdPeriph_Driver/src/stm32f4xx_rtc.c **** 
1085:/home/rdu/Workspace/project_templates/mcu/stm32_ws/src/libraries/STM32F4xx_StdPeriph_Driver/src/stm32f4xx_rtc.c **** /** @defgroup RTC_Group3 Alarms configuration functions
1086:/home/rdu/Workspace/project_templates/mcu/stm32_ws/src/libraries/STM32F4xx_StdPeriph_Driver/src/stm32f4xx_rtc.c ****  *  @brief   Alarms (Alarm A and Alarm B) configuration functions 
1087:/home/rdu/Workspace/project_templates/mcu/stm32_ws/src/libraries/STM32F4xx_StdPeriph_Driver/src/stm32f4xx_rtc.c ****  *
1088:/home/rdu/Workspace/project_templates/mcu/stm32_ws/src/libraries/STM32F4xx_StdPeriph_Driver/src/stm32f4xx_rtc.c **** @verbatim   
1089:/home/rdu/Workspace/project_templates/mcu/stm32_ws/src/libraries/STM32F4xx_StdPeriph_Driver/src/stm32f4xx_rtc.c ****  ===============================================================================
1090:/home/rdu/Workspace/project_templates/mcu/stm32_ws/src/libraries/STM32F4xx_StdPeriph_Driver/src/stm32f4xx_rtc.c ****          ##### Alarms A and B configuration functions #####
1091:/home/rdu/Workspace/project_templates/mcu/stm32_ws/src/libraries/STM32F4xx_StdPeriph_Driver/src/stm32f4xx_rtc.c ****  ===============================================================================  
1092:/home/rdu/Workspace/project_templates/mcu/stm32_ws/src/libraries/STM32F4xx_StdPeriph_Driver/src/stm32f4xx_rtc.c ****  
1093:/home/rdu/Workspace/project_templates/mcu/stm32_ws/src/libraries/STM32F4xx_StdPeriph_Driver/src/stm32f4xx_rtc.c ****  [..] This section provide functions allowing to program and read the RTC Alarms.
1094:/home/rdu/Workspace/project_templates/mcu/stm32_ws/src/libraries/STM32F4xx_StdPeriph_Driver/src/stm32f4xx_rtc.c **** 
1095:/home/rdu/Workspace/project_templates/mcu/stm32_ws/src/libraries/STM32F4xx_StdPeriph_Driver/src/stm32f4xx_rtc.c **** @endverbatim
1096:/home/rdu/Workspace/project_templates/mcu/stm32_ws/src/libraries/STM32F4xx_StdPeriph_Driver/src/stm32f4xx_rtc.c ****   * @{
1097:/home/rdu/Workspace/project_templates/mcu/stm32_ws/src/libraries/STM32F4xx_StdPeriph_Driver/src/stm32f4xx_rtc.c ****   */
1098:/home/rdu/Workspace/project_templates/mcu/stm32_ws/src/libraries/STM32F4xx_StdPeriph_Driver/src/stm32f4xx_rtc.c **** 
1099:/home/rdu/Workspace/project_templates/mcu/stm32_ws/src/libraries/STM32F4xx_StdPeriph_Driver/src/stm32f4xx_rtc.c **** /**
1100:/home/rdu/Workspace/project_templates/mcu/stm32_ws/src/libraries/STM32F4xx_StdPeriph_Driver/src/stm32f4xx_rtc.c ****   * @brief  Set the specified RTC Alarm.
1101:/home/rdu/Workspace/project_templates/mcu/stm32_ws/src/libraries/STM32F4xx_StdPeriph_Driver/src/stm32f4xx_rtc.c ****   * @note   The Alarm register can only be written when the corresponding Alarm
1102:/home/rdu/Workspace/project_templates/mcu/stm32_ws/src/libraries/STM32F4xx_StdPeriph_Driver/src/stm32f4xx_rtc.c ****   *         is disabled (Use the RTC_AlarmCmd(DISABLE)).    
1103:/home/rdu/Workspace/project_templates/mcu/stm32_ws/src/libraries/STM32F4xx_StdPeriph_Driver/src/stm32f4xx_rtc.c ****   * @param  RTC_Format: specifies the format of the returned parameters.
1104:/home/rdu/Workspace/project_templates/mcu/stm32_ws/src/libraries/STM32F4xx_StdPeriph_Driver/src/stm32f4xx_rtc.c ****   *          This parameter can be one of the following values:
1105:/home/rdu/Workspace/project_templates/mcu/stm32_ws/src/libraries/STM32F4xx_StdPeriph_Driver/src/stm32f4xx_rtc.c ****   *            @arg RTC_Format_BIN: Binary data format 
1106:/home/rdu/Workspace/project_templates/mcu/stm32_ws/src/libraries/STM32F4xx_StdPeriph_Driver/src/stm32f4xx_rtc.c ****   *            @arg RTC_Format_BCD: BCD data format
1107:/home/rdu/Workspace/project_templates/mcu/stm32_ws/src/libraries/STM32F4xx_StdPeriph_Driver/src/stm32f4xx_rtc.c ****   * @param  RTC_Alarm: specifies the alarm to be configured.
1108:/home/rdu/Workspace/project_templates/mcu/stm32_ws/src/libraries/STM32F4xx_StdPeriph_Driver/src/stm32f4xx_rtc.c ****   *          This parameter can be one of the following values:
1109:/home/rdu/Workspace/project_templates/mcu/stm32_ws/src/libraries/STM32F4xx_StdPeriph_Driver/src/stm32f4xx_rtc.c ****   *            @arg RTC_Alarm_A: to select Alarm A
1110:/home/rdu/Workspace/project_templates/mcu/stm32_ws/src/libraries/STM32F4xx_StdPeriph_Driver/src/stm32f4xx_rtc.c ****   *            @arg RTC_Alarm_B: to select Alarm B  
1111:/home/rdu/Workspace/project_templates/mcu/stm32_ws/src/libraries/STM32F4xx_StdPeriph_Driver/src/stm32f4xx_rtc.c ****   * @param  RTC_AlarmStruct: pointer to a RTC_AlarmTypeDef structure that 
1112:/home/rdu/Workspace/project_templates/mcu/stm32_ws/src/libraries/STM32F4xx_StdPeriph_Driver/src/stm32f4xx_rtc.c ****   *                          contains the alarm configuration parameters.     
1113:/home/rdu/Workspace/project_templates/mcu/stm32_ws/src/libraries/STM32F4xx_StdPeriph_Driver/src/stm32f4xx_rtc.c ****   * @retval None
1114:/home/rdu/Workspace/project_templates/mcu/stm32_ws/src/libraries/STM32F4xx_StdPeriph_Driver/src/stm32f4xx_rtc.c ****   */
1115:/home/rdu/Workspace/project_templates/mcu/stm32_ws/src/libraries/STM32F4xx_StdPeriph_Driver/src/stm32f4xx_rtc.c **** void RTC_SetAlarm(uint32_t RTC_Format, uint32_t RTC_Alarm, RTC_AlarmTypeDef* RTC_AlarmStruct)
1116:/home/rdu/Workspace/project_templates/mcu/stm32_ws/src/libraries/STM32F4xx_StdPeriph_Driver/src/stm32f4xx_rtc.c **** {
 1514              		.loc 1 1116 0
 1515              		.cfi_startproc
 1516              		@ args = 0, pretend = 0, frame = 24
 1517              		@ frame_needed = 0, uses_anonymous_args = 0
 1518 0000 10B5     		push	{r4, lr}
 1519              	.LCFI37:
 1520              		.cfi_def_cfa_offset 8
 1521              		.cfi_offset 4, -8
 1522              		.cfi_offset 14, -4
 1523 0002 86B0     		sub	sp, sp, #24
 1524              	.LCFI38:
 1525              		.cfi_def_cfa_offset 32
 1526 0004 0390     		str	r0, [sp, #12]
 1527 0006 0291     		str	r1, [sp, #8]
 1528 0008 0192     		str	r2, [sp, #4]
1117:/home/rdu/Workspace/project_templates/mcu/stm32_ws/src/libraries/STM32F4xx_StdPeriph_Driver/src/stm32f4xx_rtc.c ****   uint32_t tmpreg = 0;
 1529              		.loc 1 1117 0
 1530 000a 0023     		movs	r3, #0
 1531 000c 0593     		str	r3, [sp, #20]
1118:/home/rdu/Workspace/project_templates/mcu/stm32_ws/src/libraries/STM32F4xx_StdPeriph_Driver/src/stm32f4xx_rtc.c ****   
1119:/home/rdu/Workspace/project_templates/mcu/stm32_ws/src/libraries/STM32F4xx_StdPeriph_Driver/src/stm32f4xx_rtc.c ****   /* Check the parameters */
1120:/home/rdu/Workspace/project_templates/mcu/stm32_ws/src/libraries/STM32F4xx_StdPeriph_Driver/src/stm32f4xx_rtc.c ****   assert_param(IS_RTC_FORMAT(RTC_Format));
1121:/home/rdu/Workspace/project_templates/mcu/stm32_ws/src/libraries/STM32F4xx_StdPeriph_Driver/src/stm32f4xx_rtc.c ****   assert_param(IS_RTC_ALARM(RTC_Alarm));
1122:/home/rdu/Workspace/project_templates/mcu/stm32_ws/src/libraries/STM32F4xx_StdPeriph_Driver/src/stm32f4xx_rtc.c ****   assert_param(IS_ALARM_MASK(RTC_AlarmStruct->RTC_AlarmMask));
1123:/home/rdu/Workspace/project_templates/mcu/stm32_ws/src/libraries/STM32F4xx_StdPeriph_Driver/src/stm32f4xx_rtc.c ****   assert_param(IS_RTC_ALARM_DATE_WEEKDAY_SEL(RTC_AlarmStruct->RTC_AlarmDateWeekDaySel));
1124:/home/rdu/Workspace/project_templates/mcu/stm32_ws/src/libraries/STM32F4xx_StdPeriph_Driver/src/stm32f4xx_rtc.c **** 
1125:/home/rdu/Workspace/project_templates/mcu/stm32_ws/src/libraries/STM32F4xx_StdPeriph_Driver/src/stm32f4xx_rtc.c ****   if (RTC_Format == RTC_Format_BIN)
 1532              		.loc 1 1125 0
 1533 000e 039B     		ldr	r3, [sp, #12]
 1534 0010 002B     		cmp	r3, #0
 1535 0012 09D1     		bne	.L103
1126:/home/rdu/Workspace/project_templates/mcu/stm32_ws/src/libraries/STM32F4xx_StdPeriph_Driver/src/stm32f4xx_rtc.c ****   {
1127:/home/rdu/Workspace/project_templates/mcu/stm32_ws/src/libraries/STM32F4xx_StdPeriph_Driver/src/stm32f4xx_rtc.c ****     if ((RTC->CR & RTC_CR_FMT) != (uint32_t)RESET)
 1536              		.loc 1 1127 0
 1537 0014 464B     		ldr	r3, .L113
 1538 0016 9B68     		ldr	r3, [r3, #8]
 1539 0018 03F04003 		and	r3, r3, #64
 1540 001c 002B     		cmp	r3, #0
 1541 001e 27D1     		bne	.L105
1128:/home/rdu/Workspace/project_templates/mcu/stm32_ws/src/libraries/STM32F4xx_StdPeriph_Driver/src/stm32f4xx_rtc.c ****     {
1129:/home/rdu/Workspace/project_templates/mcu/stm32_ws/src/libraries/STM32F4xx_StdPeriph_Driver/src/stm32f4xx_rtc.c ****       assert_param(IS_RTC_HOUR12(RTC_AlarmStruct->RTC_AlarmTime.RTC_Hours));
1130:/home/rdu/Workspace/project_templates/mcu/stm32_ws/src/libraries/STM32F4xx_StdPeriph_Driver/src/stm32f4xx_rtc.c ****       assert_param(IS_RTC_H12(RTC_AlarmStruct->RTC_AlarmTime.RTC_H12));
1131:/home/rdu/Workspace/project_templates/mcu/stm32_ws/src/libraries/STM32F4xx_StdPeriph_Driver/src/stm32f4xx_rtc.c ****     } 
1132:/home/rdu/Workspace/project_templates/mcu/stm32_ws/src/libraries/STM32F4xx_StdPeriph_Driver/src/stm32f4xx_rtc.c ****     else
1133:/home/rdu/Workspace/project_templates/mcu/stm32_ws/src/libraries/STM32F4xx_StdPeriph_Driver/src/stm32f4xx_rtc.c ****     {
1134:/home/rdu/Workspace/project_templates/mcu/stm32_ws/src/libraries/STM32F4xx_StdPeriph_Driver/src/stm32f4xx_rtc.c ****       RTC_AlarmStruct->RTC_AlarmTime.RTC_H12 = 0x00;
 1542              		.loc 1 1134 0
 1543 0020 019B     		ldr	r3, [sp, #4]
 1544 0022 0022     		movs	r2, #0
 1545 0024 DA70     		strb	r2, [r3, #3]
 1546 0026 23E0     		b	.L105
 1547              	.L103:
1135:/home/rdu/Workspace/project_templates/mcu/stm32_ws/src/libraries/STM32F4xx_StdPeriph_Driver/src/stm32f4xx_rtc.c ****       assert_param(IS_RTC_HOUR24(RTC_AlarmStruct->RTC_AlarmTime.RTC_Hours));
1136:/home/rdu/Workspace/project_templates/mcu/stm32_ws/src/libraries/STM32F4xx_StdPeriph_Driver/src/stm32f4xx_rtc.c ****     }
1137:/home/rdu/Workspace/project_templates/mcu/stm32_ws/src/libraries/STM32F4xx_StdPeriph_Driver/src/stm32f4xx_rtc.c ****     assert_param(IS_RTC_MINUTES(RTC_AlarmStruct->RTC_AlarmTime.RTC_Minutes));
1138:/home/rdu/Workspace/project_templates/mcu/stm32_ws/src/libraries/STM32F4xx_StdPeriph_Driver/src/stm32f4xx_rtc.c ****     assert_param(IS_RTC_SECONDS(RTC_AlarmStruct->RTC_AlarmTime.RTC_Seconds));
1139:/home/rdu/Workspace/project_templates/mcu/stm32_ws/src/libraries/STM32F4xx_StdPeriph_Driver/src/stm32f4xx_rtc.c ****     
1140:/home/rdu/Workspace/project_templates/mcu/stm32_ws/src/libraries/STM32F4xx_StdPeriph_Driver/src/stm32f4xx_rtc.c ****     if(RTC_AlarmStruct->RTC_AlarmDateWeekDaySel == RTC_AlarmDateWeekDaySel_Date)
1141:/home/rdu/Workspace/project_templates/mcu/stm32_ws/src/libraries/STM32F4xx_StdPeriph_Driver/src/stm32f4xx_rtc.c ****     {
1142:/home/rdu/Workspace/project_templates/mcu/stm32_ws/src/libraries/STM32F4xx_StdPeriph_Driver/src/stm32f4xx_rtc.c ****       assert_param(IS_RTC_ALARM_DATE_WEEKDAY_DATE(RTC_AlarmStruct->RTC_AlarmDateWeekDay));
1143:/home/rdu/Workspace/project_templates/mcu/stm32_ws/src/libraries/STM32F4xx_StdPeriph_Driver/src/stm32f4xx_rtc.c ****     }
1144:/home/rdu/Workspace/project_templates/mcu/stm32_ws/src/libraries/STM32F4xx_StdPeriph_Driver/src/stm32f4xx_rtc.c ****     else
1145:/home/rdu/Workspace/project_templates/mcu/stm32_ws/src/libraries/STM32F4xx_StdPeriph_Driver/src/stm32f4xx_rtc.c ****     {
1146:/home/rdu/Workspace/project_templates/mcu/stm32_ws/src/libraries/STM32F4xx_StdPeriph_Driver/src/stm32f4xx_rtc.c ****       assert_param(IS_RTC_ALARM_DATE_WEEKDAY_WEEKDAY(RTC_AlarmStruct->RTC_AlarmDateWeekDay));
1147:/home/rdu/Workspace/project_templates/mcu/stm32_ws/src/libraries/STM32F4xx_StdPeriph_Driver/src/stm32f4xx_rtc.c ****     }
1148:/home/rdu/Workspace/project_templates/mcu/stm32_ws/src/libraries/STM32F4xx_StdPeriph_Driver/src/stm32f4xx_rtc.c ****   }
1149:/home/rdu/Workspace/project_templates/mcu/stm32_ws/src/libraries/STM32F4xx_StdPeriph_Driver/src/stm32f4xx_rtc.c ****   else
1150:/home/rdu/Workspace/project_templates/mcu/stm32_ws/src/libraries/STM32F4xx_StdPeriph_Driver/src/stm32f4xx_rtc.c ****   {
1151:/home/rdu/Workspace/project_templates/mcu/stm32_ws/src/libraries/STM32F4xx_StdPeriph_Driver/src/stm32f4xx_rtc.c ****     if ((RTC->CR & RTC_CR_FMT) != (uint32_t)RESET)
 1548              		.loc 1 1151 0
 1549 0028 414B     		ldr	r3, .L113
 1550 002a 9B68     		ldr	r3, [r3, #8]
 1551 002c 03F04003 		and	r3, r3, #64
 1552 0030 002B     		cmp	r3, #0
 1553 0032 07D0     		beq	.L106
1152:/home/rdu/Workspace/project_templates/mcu/stm32_ws/src/libraries/STM32F4xx_StdPeriph_Driver/src/stm32f4xx_rtc.c ****     {
1153:/home/rdu/Workspace/project_templates/mcu/stm32_ws/src/libraries/STM32F4xx_StdPeriph_Driver/src/stm32f4xx_rtc.c ****       tmpreg = RTC_Bcd2ToByte(RTC_AlarmStruct->RTC_AlarmTime.RTC_Hours);
 1554              		.loc 1 1153 0
 1555 0034 019B     		ldr	r3, [sp, #4]
 1556 0036 1B78     		ldrb	r3, [r3]	@ zero_extendqisi2
 1557 0038 1846     		mov	r0, r3
 1558 003a FFF7FEFF 		bl	RTC_Bcd2ToByte
 1559 003e 0346     		mov	r3, r0
 1560 0040 0593     		str	r3, [sp, #20]
 1561 0042 02E0     		b	.L107
 1562              	.L106:
1154:/home/rdu/Workspace/project_templates/mcu/stm32_ws/src/libraries/STM32F4xx_StdPeriph_Driver/src/stm32f4xx_rtc.c ****       assert_param(IS_RTC_HOUR12(tmpreg));
1155:/home/rdu/Workspace/project_templates/mcu/stm32_ws/src/libraries/STM32F4xx_StdPeriph_Driver/src/stm32f4xx_rtc.c ****       assert_param(IS_RTC_H12(RTC_AlarmStruct->RTC_AlarmTime.RTC_H12));
1156:/home/rdu/Workspace/project_templates/mcu/stm32_ws/src/libraries/STM32F4xx_StdPeriph_Driver/src/stm32f4xx_rtc.c ****     } 
1157:/home/rdu/Workspace/project_templates/mcu/stm32_ws/src/libraries/STM32F4xx_StdPeriph_Driver/src/stm32f4xx_rtc.c ****     else
1158:/home/rdu/Workspace/project_templates/mcu/stm32_ws/src/libraries/STM32F4xx_StdPeriph_Driver/src/stm32f4xx_rtc.c ****     {
1159:/home/rdu/Workspace/project_templates/mcu/stm32_ws/src/libraries/STM32F4xx_StdPeriph_Driver/src/stm32f4xx_rtc.c ****       RTC_AlarmStruct->RTC_AlarmTime.RTC_H12 = 0x00;
 1563              		.loc 1 1159 0
 1564 0044 019B     		ldr	r3, [sp, #4]
 1565 0046 0022     		movs	r2, #0
 1566 0048 DA70     		strb	r2, [r3, #3]
 1567              	.L107:
1160:/home/rdu/Workspace/project_templates/mcu/stm32_ws/src/libraries/STM32F4xx_StdPeriph_Driver/src/stm32f4xx_rtc.c ****       assert_param(IS_RTC_HOUR24(RTC_Bcd2ToByte(RTC_AlarmStruct->RTC_AlarmTime.RTC_Hours)));
1161:/home/rdu/Workspace/project_templates/mcu/stm32_ws/src/libraries/STM32F4xx_StdPeriph_Driver/src/stm32f4xx_rtc.c ****     }
1162:/home/rdu/Workspace/project_templates/mcu/stm32_ws/src/libraries/STM32F4xx_StdPeriph_Driver/src/stm32f4xx_rtc.c ****     
1163:/home/rdu/Workspace/project_templates/mcu/stm32_ws/src/libraries/STM32F4xx_StdPeriph_Driver/src/stm32f4xx_rtc.c ****     assert_param(IS_RTC_MINUTES(RTC_Bcd2ToByte(RTC_AlarmStruct->RTC_AlarmTime.RTC_Minutes)));
1164:/home/rdu/Workspace/project_templates/mcu/stm32_ws/src/libraries/STM32F4xx_StdPeriph_Driver/src/stm32f4xx_rtc.c ****     assert_param(IS_RTC_SECONDS(RTC_Bcd2ToByte(RTC_AlarmStruct->RTC_AlarmTime.RTC_Seconds)));
1165:/home/rdu/Workspace/project_templates/mcu/stm32_ws/src/libraries/STM32F4xx_StdPeriph_Driver/src/stm32f4xx_rtc.c ****     
1166:/home/rdu/Workspace/project_templates/mcu/stm32_ws/src/libraries/STM32F4xx_StdPeriph_Driver/src/stm32f4xx_rtc.c ****     if(RTC_AlarmStruct->RTC_AlarmDateWeekDaySel == RTC_AlarmDateWeekDaySel_Date)
 1568              		.loc 1 1166 0
 1569 004a 019B     		ldr	r3, [sp, #4]
 1570 004c 9B68     		ldr	r3, [r3, #8]
 1571 004e 002B     		cmp	r3, #0
 1572 0050 07D1     		bne	.L108
1167:/home/rdu/Workspace/project_templates/mcu/stm32_ws/src/libraries/STM32F4xx_StdPeriph_Driver/src/stm32f4xx_rtc.c ****     {
1168:/home/rdu/Workspace/project_templates/mcu/stm32_ws/src/libraries/STM32F4xx_StdPeriph_Driver/src/stm32f4xx_rtc.c ****       tmpreg = RTC_Bcd2ToByte(RTC_AlarmStruct->RTC_AlarmDateWeekDay);
 1573              		.loc 1 1168 0
 1574 0052 019B     		ldr	r3, [sp, #4]
 1575 0054 1B7B     		ldrb	r3, [r3, #12]	@ zero_extendqisi2
 1576 0056 1846     		mov	r0, r3
 1577 0058 FFF7FEFF 		bl	RTC_Bcd2ToByte
 1578 005c 0346     		mov	r3, r0
 1579 005e 0593     		str	r3, [sp, #20]
 1580 0060 06E0     		b	.L105
 1581              	.L108:
1169:/home/rdu/Workspace/project_templates/mcu/stm32_ws/src/libraries/STM32F4xx_StdPeriph_Driver/src/stm32f4xx_rtc.c ****       assert_param(IS_RTC_ALARM_DATE_WEEKDAY_DATE(tmpreg));    
1170:/home/rdu/Workspace/project_templates/mcu/stm32_ws/src/libraries/STM32F4xx_StdPeriph_Driver/src/stm32f4xx_rtc.c ****     }
1171:/home/rdu/Workspace/project_templates/mcu/stm32_ws/src/libraries/STM32F4xx_StdPeriph_Driver/src/stm32f4xx_rtc.c ****     else
1172:/home/rdu/Workspace/project_templates/mcu/stm32_ws/src/libraries/STM32F4xx_StdPeriph_Driver/src/stm32f4xx_rtc.c ****     {
1173:/home/rdu/Workspace/project_templates/mcu/stm32_ws/src/libraries/STM32F4xx_StdPeriph_Driver/src/stm32f4xx_rtc.c ****       tmpreg = RTC_Bcd2ToByte(RTC_AlarmStruct->RTC_AlarmDateWeekDay);
 1582              		.loc 1 1173 0
 1583 0062 019B     		ldr	r3, [sp, #4]
 1584 0064 1B7B     		ldrb	r3, [r3, #12]	@ zero_extendqisi2
 1585 0066 1846     		mov	r0, r3
 1586 0068 FFF7FEFF 		bl	RTC_Bcd2ToByte
 1587 006c 0346     		mov	r3, r0
 1588 006e 0593     		str	r3, [sp, #20]
 1589              	.L105:
1174:/home/rdu/Workspace/project_templates/mcu/stm32_ws/src/libraries/STM32F4xx_StdPeriph_Driver/src/stm32f4xx_rtc.c ****       assert_param(IS_RTC_ALARM_DATE_WEEKDAY_WEEKDAY(tmpreg));      
1175:/home/rdu/Workspace/project_templates/mcu/stm32_ws/src/libraries/STM32F4xx_StdPeriph_Driver/src/stm32f4xx_rtc.c ****     }    
1176:/home/rdu/Workspace/project_templates/mcu/stm32_ws/src/libraries/STM32F4xx_StdPeriph_Driver/src/stm32f4xx_rtc.c ****   }
1177:/home/rdu/Workspace/project_templates/mcu/stm32_ws/src/libraries/STM32F4xx_StdPeriph_Driver/src/stm32f4xx_rtc.c **** 
1178:/home/rdu/Workspace/project_templates/mcu/stm32_ws/src/libraries/STM32F4xx_StdPeriph_Driver/src/stm32f4xx_rtc.c ****   /* Check the input parameters format */
1179:/home/rdu/Workspace/project_templates/mcu/stm32_ws/src/libraries/STM32F4xx_StdPeriph_Driver/src/stm32f4xx_rtc.c ****   if (RTC_Format != RTC_Format_BIN)
 1590              		.loc 1 1179 0
 1591 0070 039B     		ldr	r3, [sp, #12]
 1592 0072 002B     		cmp	r3, #0
 1593 0074 19D0     		beq	.L109
1180:/home/rdu/Workspace/project_templates/mcu/stm32_ws/src/libraries/STM32F4xx_StdPeriph_Driver/src/stm32f4xx_rtc.c ****   {
1181:/home/rdu/Workspace/project_templates/mcu/stm32_ws/src/libraries/STM32F4xx_StdPeriph_Driver/src/stm32f4xx_rtc.c ****     tmpreg = (((uint32_t)(RTC_AlarmStruct->RTC_AlarmTime.RTC_Hours) << 16) | \
 1594              		.loc 1 1181 0
 1595 0076 019B     		ldr	r3, [sp, #4]
 1596 0078 1B78     		ldrb	r3, [r3]	@ zero_extendqisi2
 1597 007a 1A04     		lsls	r2, r3, #16
1182:/home/rdu/Workspace/project_templates/mcu/stm32_ws/src/libraries/STM32F4xx_StdPeriph_Driver/src/stm32f4xx_rtc.c ****               ((uint32_t)(RTC_AlarmStruct->RTC_AlarmTime.RTC_Minutes) << 8) | \
 1598              		.loc 1 1182 0
 1599 007c 019B     		ldr	r3, [sp, #4]
 1600 007e 5B78     		ldrb	r3, [r3, #1]	@ zero_extendqisi2
 1601 0080 1B02     		lsls	r3, r3, #8
1181:/home/rdu/Workspace/project_templates/mcu/stm32_ws/src/libraries/STM32F4xx_StdPeriph_Driver/src/stm32f4xx_rtc.c ****               ((uint32_t)(RTC_AlarmStruct->RTC_AlarmTime.RTC_Minutes) << 8) | \
 1602              		.loc 1 1181 0
 1603 0082 1343     		orrs	r3, r3, r2
1183:/home/rdu/Workspace/project_templates/mcu/stm32_ws/src/libraries/STM32F4xx_StdPeriph_Driver/src/stm32f4xx_rtc.c ****               ((uint32_t)RTC_AlarmStruct->RTC_AlarmTime.RTC_Seconds) | \
 1604              		.loc 1 1183 0
 1605 0084 019A     		ldr	r2, [sp, #4]
 1606 0086 9278     		ldrb	r2, [r2, #2]	@ zero_extendqisi2
1182:/home/rdu/Workspace/project_templates/mcu/stm32_ws/src/libraries/STM32F4xx_StdPeriph_Driver/src/stm32f4xx_rtc.c ****               ((uint32_t)(RTC_AlarmStruct->RTC_AlarmTime.RTC_Minutes) << 8) | \
 1607              		.loc 1 1182 0
 1608 0088 1A43     		orrs	r2, r2, r3
1184:/home/rdu/Workspace/project_templates/mcu/stm32_ws/src/libraries/STM32F4xx_StdPeriph_Driver/src/stm32f4xx_rtc.c ****               ((uint32_t)(RTC_AlarmStruct->RTC_AlarmTime.RTC_H12) << 16) | \
 1609              		.loc 1 1184 0
 1610 008a 019B     		ldr	r3, [sp, #4]
 1611 008c DB78     		ldrb	r3, [r3, #3]	@ zero_extendqisi2
 1612 008e 1B04     		lsls	r3, r3, #16
1183:/home/rdu/Workspace/project_templates/mcu/stm32_ws/src/libraries/STM32F4xx_StdPeriph_Driver/src/stm32f4xx_rtc.c ****               ((uint32_t)RTC_AlarmStruct->RTC_AlarmTime.RTC_Seconds) | \
 1613              		.loc 1 1183 0
 1614 0090 1A43     		orrs	r2, r2, r3
1185:/home/rdu/Workspace/project_templates/mcu/stm32_ws/src/libraries/STM32F4xx_StdPeriph_Driver/src/stm32f4xx_rtc.c ****               ((uint32_t)(RTC_AlarmStruct->RTC_AlarmDateWeekDay) << 24) | \
 1615              		.loc 1 1185 0
