   1              		.cpu cortex-m4
   2              		.eabi_attribute 27, 1
   3              		.eabi_attribute 28, 1
   4              		.eabi_attribute 23, 1
   5              		.eabi_attribute 24, 1
   6              		.eabi_attribute 25, 1
   7              		.eabi_attribute 26, 1
   8              		.eabi_attribute 30, 6
   9              		.eabi_attribute 34, 1
  10              		.eabi_attribute 18, 4
  11              		.file	"stm32f4xx_sdio.c"
  12              		.text
  13              	.Ltext0:
  14              		.cfi_sections	.debug_frame
  15              		.section	.text.SDIO_DeInit,"ax",%progbits
  16              		.align	1
  17              		.global	SDIO_DeInit
  18              		.syntax unified
  19              		.thumb
  20              		.thumb_func
  21              		.fpu fpv4-sp-d16
  23              	SDIO_DeInit:
  24              	.LFB123:
  25              		.file 1 "/home/rdu/Workspace/project_templates/mcu/stm32_ws/src/libraries/STM32F4xx_StdPeriph_Driv
   1:/home/rdu/Workspace/project_templates/mcu/stm32_ws/src/libraries/STM32F4xx_StdPeriph_Driver/src/stm32f4xx_sdio.c **** /**
   2:/home/rdu/Workspace/project_templates/mcu/stm32_ws/src/libraries/STM32F4xx_StdPeriph_Driver/src/stm32f4xx_sdio.c ****   ******************************************************************************
   3:/home/rdu/Workspace/project_templates/mcu/stm32_ws/src/libraries/STM32F4xx_StdPeriph_Driver/src/stm32f4xx_sdio.c ****   * @file    stm32f4xx_sdio.c
   4:/home/rdu/Workspace/project_templates/mcu/stm32_ws/src/libraries/STM32F4xx_StdPeriph_Driver/src/stm32f4xx_sdio.c ****   * @author  MCD Application Team
   5:/home/rdu/Workspace/project_templates/mcu/stm32_ws/src/libraries/STM32F4xx_StdPeriph_Driver/src/stm32f4xx_sdio.c ****   * @version V1.8.0
   6:/home/rdu/Workspace/project_templates/mcu/stm32_ws/src/libraries/STM32F4xx_StdPeriph_Driver/src/stm32f4xx_sdio.c ****   * @date    04-November-2016
   7:/home/rdu/Workspace/project_templates/mcu/stm32_ws/src/libraries/STM32F4xx_StdPeriph_Driver/src/stm32f4xx_sdio.c ****   * @brief   This file provides firmware functions to manage the following 
   8:/home/rdu/Workspace/project_templates/mcu/stm32_ws/src/libraries/STM32F4xx_StdPeriph_Driver/src/stm32f4xx_sdio.c ****   *          functionalities of the Secure digital input/output interface (SDIO) 
   9:/home/rdu/Workspace/project_templates/mcu/stm32_ws/src/libraries/STM32F4xx_StdPeriph_Driver/src/stm32f4xx_sdio.c ****   *          peripheral:
  10:/home/rdu/Workspace/project_templates/mcu/stm32_ws/src/libraries/STM32F4xx_StdPeriph_Driver/src/stm32f4xx_sdio.c ****   *           + Initialization and Configuration
  11:/home/rdu/Workspace/project_templates/mcu/stm32_ws/src/libraries/STM32F4xx_StdPeriph_Driver/src/stm32f4xx_sdio.c ****   *           + Command path state machine (CPSM) management
  12:/home/rdu/Workspace/project_templates/mcu/stm32_ws/src/libraries/STM32F4xx_StdPeriph_Driver/src/stm32f4xx_sdio.c ****   *           + Data path state machine (DPSM) management
  13:/home/rdu/Workspace/project_templates/mcu/stm32_ws/src/libraries/STM32F4xx_StdPeriph_Driver/src/stm32f4xx_sdio.c ****   *           + SDIO IO Cards mode management
  14:/home/rdu/Workspace/project_templates/mcu/stm32_ws/src/libraries/STM32F4xx_StdPeriph_Driver/src/stm32f4xx_sdio.c ****   *           + CE-ATA mode management
  15:/home/rdu/Workspace/project_templates/mcu/stm32_ws/src/libraries/STM32F4xx_StdPeriph_Driver/src/stm32f4xx_sdio.c ****   *           + DMA transfers management
  16:/home/rdu/Workspace/project_templates/mcu/stm32_ws/src/libraries/STM32F4xx_StdPeriph_Driver/src/stm32f4xx_sdio.c ****   *           + Interrupts and flags management
  17:/home/rdu/Workspace/project_templates/mcu/stm32_ws/src/libraries/STM32F4xx_StdPeriph_Driver/src/stm32f4xx_sdio.c ****   *
  18:/home/rdu/Workspace/project_templates/mcu/stm32_ws/src/libraries/STM32F4xx_StdPeriph_Driver/src/stm32f4xx_sdio.c **** @verbatim
  19:/home/rdu/Workspace/project_templates/mcu/stm32_ws/src/libraries/STM32F4xx_StdPeriph_Driver/src/stm32f4xx_sdio.c **** 
  20:/home/rdu/Workspace/project_templates/mcu/stm32_ws/src/libraries/STM32F4xx_StdPeriph_Driver/src/stm32f4xx_sdio.c ****  ===================================================================
  21:/home/rdu/Workspace/project_templates/mcu/stm32_ws/src/libraries/STM32F4xx_StdPeriph_Driver/src/stm32f4xx_sdio.c ****                  ##### How to use this driver #####
  22:/home/rdu/Workspace/project_templates/mcu/stm32_ws/src/libraries/STM32F4xx_StdPeriph_Driver/src/stm32f4xx_sdio.c ****  ===================================================================
  23:/home/rdu/Workspace/project_templates/mcu/stm32_ws/src/libraries/STM32F4xx_StdPeriph_Driver/src/stm32f4xx_sdio.c ****  [..]
  24:/home/rdu/Workspace/project_templates/mcu/stm32_ws/src/libraries/STM32F4xx_StdPeriph_Driver/src/stm32f4xx_sdio.c ****    (#) The SDIO clock (SDIOCLK = 48 MHz) is coming from a specific output of PLL 
  25:/home/rdu/Workspace/project_templates/mcu/stm32_ws/src/libraries/STM32F4xx_StdPeriph_Driver/src/stm32f4xx_sdio.c ****        (PLL48CLK). Before to start working with SDIO peripheral make sure that the
  26:/home/rdu/Workspace/project_templates/mcu/stm32_ws/src/libraries/STM32F4xx_StdPeriph_Driver/src/stm32f4xx_sdio.c ****        PLL is well configured.
  27:/home/rdu/Workspace/project_templates/mcu/stm32_ws/src/libraries/STM32F4xx_StdPeriph_Driver/src/stm32f4xx_sdio.c ****        The SDIO peripheral uses two clock signals:
  28:/home/rdu/Workspace/project_templates/mcu/stm32_ws/src/libraries/STM32F4xx_StdPeriph_Driver/src/stm32f4xx_sdio.c ****        (++) SDIO adapter clock (SDIOCLK = 48 MHz)
  29:/home/rdu/Workspace/project_templates/mcu/stm32_ws/src/libraries/STM32F4xx_StdPeriph_Driver/src/stm32f4xx_sdio.c ****        (++) APB2 bus clock (PCLK2)
  30:/home/rdu/Workspace/project_templates/mcu/stm32_ws/src/libraries/STM32F4xx_StdPeriph_Driver/src/stm32f4xx_sdio.c ****        
  31:/home/rdu/Workspace/project_templates/mcu/stm32_ws/src/libraries/STM32F4xx_StdPeriph_Driver/src/stm32f4xx_sdio.c ****        -@@- PCLK2 and SDIO_CK clock frequencies must respect the following condition:
  32:/home/rdu/Workspace/project_templates/mcu/stm32_ws/src/libraries/STM32F4xx_StdPeriph_Driver/src/stm32f4xx_sdio.c ****            Frequency(PCLK2) >= (3 / 8 x Frequency(SDIO_CK))
  33:/home/rdu/Workspace/project_templates/mcu/stm32_ws/src/libraries/STM32F4xx_StdPeriph_Driver/src/stm32f4xx_sdio.c ****   
  34:/home/rdu/Workspace/project_templates/mcu/stm32_ws/src/libraries/STM32F4xx_StdPeriph_Driver/src/stm32f4xx_sdio.c ****    (#) Enable peripheral clock using RCC_APB2PeriphClockCmd(RCC_APB2Periph_SDIO, ENABLE).
  35:/home/rdu/Workspace/project_templates/mcu/stm32_ws/src/libraries/STM32F4xx_StdPeriph_Driver/src/stm32f4xx_sdio.c ****   
  36:/home/rdu/Workspace/project_templates/mcu/stm32_ws/src/libraries/STM32F4xx_StdPeriph_Driver/src/stm32f4xx_sdio.c ****    (#) According to the SDIO mode, enable the GPIO clocks using 
  37:/home/rdu/Workspace/project_templates/mcu/stm32_ws/src/libraries/STM32F4xx_StdPeriph_Driver/src/stm32f4xx_sdio.c ****        RCC_AHB1PeriphClockCmd() function. 
  38:/home/rdu/Workspace/project_templates/mcu/stm32_ws/src/libraries/STM32F4xx_StdPeriph_Driver/src/stm32f4xx_sdio.c ****        The I/O can be one of the following configurations:
  39:/home/rdu/Workspace/project_templates/mcu/stm32_ws/src/libraries/STM32F4xx_StdPeriph_Driver/src/stm32f4xx_sdio.c ****        (++) 1-bit data length: SDIO_CMD, SDIO_CK and D0.
  40:/home/rdu/Workspace/project_templates/mcu/stm32_ws/src/libraries/STM32F4xx_StdPeriph_Driver/src/stm32f4xx_sdio.c ****        (++) 4-bit data length: SDIO_CMD, SDIO_CK and D[3:0].
  41:/home/rdu/Workspace/project_templates/mcu/stm32_ws/src/libraries/STM32F4xx_StdPeriph_Driver/src/stm32f4xx_sdio.c ****        (++) 8-bit data length: SDIO_CMD, SDIO_CK and D[7:0].      
  42:/home/rdu/Workspace/project_templates/mcu/stm32_ws/src/libraries/STM32F4xx_StdPeriph_Driver/src/stm32f4xx_sdio.c ****   
  43:/home/rdu/Workspace/project_templates/mcu/stm32_ws/src/libraries/STM32F4xx_StdPeriph_Driver/src/stm32f4xx_sdio.c ****    (#) Peripheral alternate function: 
  44:/home/rdu/Workspace/project_templates/mcu/stm32_ws/src/libraries/STM32F4xx_StdPeriph_Driver/src/stm32f4xx_sdio.c ****        (++) Connect the pin to the desired peripherals' Alternate Function (AF) 
  45:/home/rdu/Workspace/project_templates/mcu/stm32_ws/src/libraries/STM32F4xx_StdPeriph_Driver/src/stm32f4xx_sdio.c ****            using GPIO_PinAFConfig() function
  46:/home/rdu/Workspace/project_templates/mcu/stm32_ws/src/libraries/STM32F4xx_StdPeriph_Driver/src/stm32f4xx_sdio.c ****        (++) Configure the desired pin in alternate function by: 
  47:/home/rdu/Workspace/project_templates/mcu/stm32_ws/src/libraries/STM32F4xx_StdPeriph_Driver/src/stm32f4xx_sdio.c ****            GPIO_InitStruct->GPIO_Mode = GPIO_Mode_AF
  48:/home/rdu/Workspace/project_templates/mcu/stm32_ws/src/libraries/STM32F4xx_StdPeriph_Driver/src/stm32f4xx_sdio.c ****        (++) Select the type, pull-up/pull-down and output speed via GPIO_PuPd, 
  49:/home/rdu/Workspace/project_templates/mcu/stm32_ws/src/libraries/STM32F4xx_StdPeriph_Driver/src/stm32f4xx_sdio.c ****            GPIO_OType and GPIO_Speed members
  50:/home/rdu/Workspace/project_templates/mcu/stm32_ws/src/libraries/STM32F4xx_StdPeriph_Driver/src/stm32f4xx_sdio.c ****        (++) Call GPIO_Init() function
  51:/home/rdu/Workspace/project_templates/mcu/stm32_ws/src/libraries/STM32F4xx_StdPeriph_Driver/src/stm32f4xx_sdio.c ****   
  52:/home/rdu/Workspace/project_templates/mcu/stm32_ws/src/libraries/STM32F4xx_StdPeriph_Driver/src/stm32f4xx_sdio.c ****    (#) Program the Clock Edge, Clock Bypass, Clock Power Save, Bus Wide, 
  53:/home/rdu/Workspace/project_templates/mcu/stm32_ws/src/libraries/STM32F4xx_StdPeriph_Driver/src/stm32f4xx_sdio.c ****        hardware, flow control and the Clock Divider using the SDIO_Init()
  54:/home/rdu/Workspace/project_templates/mcu/stm32_ws/src/libraries/STM32F4xx_StdPeriph_Driver/src/stm32f4xx_sdio.c ****        function.
  55:/home/rdu/Workspace/project_templates/mcu/stm32_ws/src/libraries/STM32F4xx_StdPeriph_Driver/src/stm32f4xx_sdio.c ****   
  56:/home/rdu/Workspace/project_templates/mcu/stm32_ws/src/libraries/STM32F4xx_StdPeriph_Driver/src/stm32f4xx_sdio.c ****    (#) Enable the Power ON State using the SDIO_SetPowerState(SDIO_PowerState_ON) 
  57:/home/rdu/Workspace/project_templates/mcu/stm32_ws/src/libraries/STM32F4xx_StdPeriph_Driver/src/stm32f4xx_sdio.c ****        function.
  58:/home/rdu/Workspace/project_templates/mcu/stm32_ws/src/libraries/STM32F4xx_StdPeriph_Driver/src/stm32f4xx_sdio.c ****                 
  59:/home/rdu/Workspace/project_templates/mcu/stm32_ws/src/libraries/STM32F4xx_StdPeriph_Driver/src/stm32f4xx_sdio.c ****    (#) Enable the clock using the SDIO_ClockCmd() function.
  60:/home/rdu/Workspace/project_templates/mcu/stm32_ws/src/libraries/STM32F4xx_StdPeriph_Driver/src/stm32f4xx_sdio.c ****   
  61:/home/rdu/Workspace/project_templates/mcu/stm32_ws/src/libraries/STM32F4xx_StdPeriph_Driver/src/stm32f4xx_sdio.c ****    (#) Enable the NVIC and the corresponding interrupt using the function 
  62:/home/rdu/Workspace/project_templates/mcu/stm32_ws/src/libraries/STM32F4xx_StdPeriph_Driver/src/stm32f4xx_sdio.c ****        SDIO_ITConfig() if you need to use interrupt mode. 
  63:/home/rdu/Workspace/project_templates/mcu/stm32_ws/src/libraries/STM32F4xx_StdPeriph_Driver/src/stm32f4xx_sdio.c ****   
  64:/home/rdu/Workspace/project_templates/mcu/stm32_ws/src/libraries/STM32F4xx_StdPeriph_Driver/src/stm32f4xx_sdio.c ****    (#) When using the DMA mode 
  65:/home/rdu/Workspace/project_templates/mcu/stm32_ws/src/libraries/STM32F4xx_StdPeriph_Driver/src/stm32f4xx_sdio.c ****        (++) Configure the DMA using DMA_Init() function
  66:/home/rdu/Workspace/project_templates/mcu/stm32_ws/src/libraries/STM32F4xx_StdPeriph_Driver/src/stm32f4xx_sdio.c ****        (++) Active the needed channel Request using SDIO_DMACmd() function
  67:/home/rdu/Workspace/project_templates/mcu/stm32_ws/src/libraries/STM32F4xx_StdPeriph_Driver/src/stm32f4xx_sdio.c ****   
  68:/home/rdu/Workspace/project_templates/mcu/stm32_ws/src/libraries/STM32F4xx_StdPeriph_Driver/src/stm32f4xx_sdio.c ****    (#) Enable the DMA using the DMA_Cmd() function, when using DMA mode. 
  69:/home/rdu/Workspace/project_templates/mcu/stm32_ws/src/libraries/STM32F4xx_StdPeriph_Driver/src/stm32f4xx_sdio.c ****   
  70:/home/rdu/Workspace/project_templates/mcu/stm32_ws/src/libraries/STM32F4xx_StdPeriph_Driver/src/stm32f4xx_sdio.c ****    (#) To control the CPSM (Command Path State Machine) and send 
  71:/home/rdu/Workspace/project_templates/mcu/stm32_ws/src/libraries/STM32F4xx_StdPeriph_Driver/src/stm32f4xx_sdio.c ****        commands to the card use the SDIO_SendCommand(), 
  72:/home/rdu/Workspace/project_templates/mcu/stm32_ws/src/libraries/STM32F4xx_StdPeriph_Driver/src/stm32f4xx_sdio.c ****        SDIO_GetCommandResponse() and SDIO_GetResponse() functions. First, user has
  73:/home/rdu/Workspace/project_templates/mcu/stm32_ws/src/libraries/STM32F4xx_StdPeriph_Driver/src/stm32f4xx_sdio.c ****        to fill the command structure (pointer to SDIO_CmdInitTypeDef) according 
  74:/home/rdu/Workspace/project_templates/mcu/stm32_ws/src/libraries/STM32F4xx_StdPeriph_Driver/src/stm32f4xx_sdio.c ****        to the selected command to be sent.
  75:/home/rdu/Workspace/project_templates/mcu/stm32_ws/src/libraries/STM32F4xx_StdPeriph_Driver/src/stm32f4xx_sdio.c ****        The parameters that should be filled are:
  76:/home/rdu/Workspace/project_templates/mcu/stm32_ws/src/libraries/STM32F4xx_StdPeriph_Driver/src/stm32f4xx_sdio.c ****        (++) Command Argument
  77:/home/rdu/Workspace/project_templates/mcu/stm32_ws/src/libraries/STM32F4xx_StdPeriph_Driver/src/stm32f4xx_sdio.c ****        (++) Command Index
  78:/home/rdu/Workspace/project_templates/mcu/stm32_ws/src/libraries/STM32F4xx_StdPeriph_Driver/src/stm32f4xx_sdio.c ****        (++) Command Response type
  79:/home/rdu/Workspace/project_templates/mcu/stm32_ws/src/libraries/STM32F4xx_StdPeriph_Driver/src/stm32f4xx_sdio.c ****        (++) Command Wait
  80:/home/rdu/Workspace/project_templates/mcu/stm32_ws/src/libraries/STM32F4xx_StdPeriph_Driver/src/stm32f4xx_sdio.c ****        (++) CPSM Status (Enable or Disable).
  81:/home/rdu/Workspace/project_templates/mcu/stm32_ws/src/libraries/STM32F4xx_StdPeriph_Driver/src/stm32f4xx_sdio.c ****   
  82:/home/rdu/Workspace/project_templates/mcu/stm32_ws/src/libraries/STM32F4xx_StdPeriph_Driver/src/stm32f4xx_sdio.c ****        -@@- To check if the command is well received, read the SDIO_CMDRESP
  83:/home/rdu/Workspace/project_templates/mcu/stm32_ws/src/libraries/STM32F4xx_StdPeriph_Driver/src/stm32f4xx_sdio.c ****            register using the SDIO_GetCommandResponse().
  84:/home/rdu/Workspace/project_templates/mcu/stm32_ws/src/libraries/STM32F4xx_StdPeriph_Driver/src/stm32f4xx_sdio.c ****            The SDIO responses registers (SDIO_RESP1 to SDIO_RESP2), use the
  85:/home/rdu/Workspace/project_templates/mcu/stm32_ws/src/libraries/STM32F4xx_StdPeriph_Driver/src/stm32f4xx_sdio.c ****            SDIO_GetResponse() function.
  86:/home/rdu/Workspace/project_templates/mcu/stm32_ws/src/libraries/STM32F4xx_StdPeriph_Driver/src/stm32f4xx_sdio.c ****   
  87:/home/rdu/Workspace/project_templates/mcu/stm32_ws/src/libraries/STM32F4xx_StdPeriph_Driver/src/stm32f4xx_sdio.c ****    (#) To control the DPSM (Data Path State Machine) and send/receive 
  88:/home/rdu/Workspace/project_templates/mcu/stm32_ws/src/libraries/STM32F4xx_StdPeriph_Driver/src/stm32f4xx_sdio.c ****        data to/from the card use the SDIO_DataConfig(), SDIO_GetDataCounter(), 
  89:/home/rdu/Workspace/project_templates/mcu/stm32_ws/src/libraries/STM32F4xx_StdPeriph_Driver/src/stm32f4xx_sdio.c ****        SDIO_ReadData(), SDIO_WriteData() and SDIO_GetFIFOCount() functions.
  90:/home/rdu/Workspace/project_templates/mcu/stm32_ws/src/libraries/STM32F4xx_StdPeriph_Driver/src/stm32f4xx_sdio.c ****   
  91:/home/rdu/Workspace/project_templates/mcu/stm32_ws/src/libraries/STM32F4xx_StdPeriph_Driver/src/stm32f4xx_sdio.c ****  *** Read Operations ***
  92:/home/rdu/Workspace/project_templates/mcu/stm32_ws/src/libraries/STM32F4xx_StdPeriph_Driver/src/stm32f4xx_sdio.c ****  =======================
  93:/home/rdu/Workspace/project_templates/mcu/stm32_ws/src/libraries/STM32F4xx_StdPeriph_Driver/src/stm32f4xx_sdio.c ****  [..]
  94:/home/rdu/Workspace/project_templates/mcu/stm32_ws/src/libraries/STM32F4xx_StdPeriph_Driver/src/stm32f4xx_sdio.c ****    (#) First, user has to fill the data structure (pointer to
  95:/home/rdu/Workspace/project_templates/mcu/stm32_ws/src/libraries/STM32F4xx_StdPeriph_Driver/src/stm32f4xx_sdio.c ****        SDIO_DataInitTypeDef) according to the selected data type to be received.
  96:/home/rdu/Workspace/project_templates/mcu/stm32_ws/src/libraries/STM32F4xx_StdPeriph_Driver/src/stm32f4xx_sdio.c ****        The parameters that should be filled are:
  97:/home/rdu/Workspace/project_templates/mcu/stm32_ws/src/libraries/STM32F4xx_StdPeriph_Driver/src/stm32f4xx_sdio.c ****        (++) Data TimeOut
  98:/home/rdu/Workspace/project_templates/mcu/stm32_ws/src/libraries/STM32F4xx_StdPeriph_Driver/src/stm32f4xx_sdio.c ****        (++) Data Length
  99:/home/rdu/Workspace/project_templates/mcu/stm32_ws/src/libraries/STM32F4xx_StdPeriph_Driver/src/stm32f4xx_sdio.c ****        (++) Data Block size
 100:/home/rdu/Workspace/project_templates/mcu/stm32_ws/src/libraries/STM32F4xx_StdPeriph_Driver/src/stm32f4xx_sdio.c ****        (++) Data Transfer direction: should be from card (To SDIO)
 101:/home/rdu/Workspace/project_templates/mcu/stm32_ws/src/libraries/STM32F4xx_StdPeriph_Driver/src/stm32f4xx_sdio.c ****        (++) Data Transfer mode
 102:/home/rdu/Workspace/project_templates/mcu/stm32_ws/src/libraries/STM32F4xx_StdPeriph_Driver/src/stm32f4xx_sdio.c ****        (++) DPSM Status (Enable or Disable)
 103:/home/rdu/Workspace/project_templates/mcu/stm32_ws/src/libraries/STM32F4xx_StdPeriph_Driver/src/stm32f4xx_sdio.c ****                                      
 104:/home/rdu/Workspace/project_templates/mcu/stm32_ws/src/libraries/STM32F4xx_StdPeriph_Driver/src/stm32f4xx_sdio.c ****    (#) Configure the SDIO resources to receive the data from the card
 105:/home/rdu/Workspace/project_templates/mcu/stm32_ws/src/libraries/STM32F4xx_StdPeriph_Driver/src/stm32f4xx_sdio.c ****        according to selected transfer mode (Refer to Step 8, 9 and 10).
 106:/home/rdu/Workspace/project_templates/mcu/stm32_ws/src/libraries/STM32F4xx_StdPeriph_Driver/src/stm32f4xx_sdio.c ****   
 107:/home/rdu/Workspace/project_templates/mcu/stm32_ws/src/libraries/STM32F4xx_StdPeriph_Driver/src/stm32f4xx_sdio.c ****    (#)  Send the selected Read command (refer to step 11).
 108:/home/rdu/Workspace/project_templates/mcu/stm32_ws/src/libraries/STM32F4xx_StdPeriph_Driver/src/stm32f4xx_sdio.c ****                     
 109:/home/rdu/Workspace/project_templates/mcu/stm32_ws/src/libraries/STM32F4xx_StdPeriph_Driver/src/stm32f4xx_sdio.c ****    (#) Use the SDIO flags/interrupts to check the transfer status.
 110:/home/rdu/Workspace/project_templates/mcu/stm32_ws/src/libraries/STM32F4xx_StdPeriph_Driver/src/stm32f4xx_sdio.c ****   
 111:/home/rdu/Workspace/project_templates/mcu/stm32_ws/src/libraries/STM32F4xx_StdPeriph_Driver/src/stm32f4xx_sdio.c ****  *** Write Operations ***
 112:/home/rdu/Workspace/project_templates/mcu/stm32_ws/src/libraries/STM32F4xx_StdPeriph_Driver/src/stm32f4xx_sdio.c ****  ========================
 113:/home/rdu/Workspace/project_templates/mcu/stm32_ws/src/libraries/STM32F4xx_StdPeriph_Driver/src/stm32f4xx_sdio.c ****  [..]
 114:/home/rdu/Workspace/project_templates/mcu/stm32_ws/src/libraries/STM32F4xx_StdPeriph_Driver/src/stm32f4xx_sdio.c ****    (#) First, user has to fill the data structure (pointer to
 115:/home/rdu/Workspace/project_templates/mcu/stm32_ws/src/libraries/STM32F4xx_StdPeriph_Driver/src/stm32f4xx_sdio.c ****        SDIO_DataInitTypeDef) according to the selected data type to be received.
 116:/home/rdu/Workspace/project_templates/mcu/stm32_ws/src/libraries/STM32F4xx_StdPeriph_Driver/src/stm32f4xx_sdio.c ****        The parameters that should be filled are:
 117:/home/rdu/Workspace/project_templates/mcu/stm32_ws/src/libraries/STM32F4xx_StdPeriph_Driver/src/stm32f4xx_sdio.c ****        (++) Data TimeOut
 118:/home/rdu/Workspace/project_templates/mcu/stm32_ws/src/libraries/STM32F4xx_StdPeriph_Driver/src/stm32f4xx_sdio.c ****        (++) Data Length
 119:/home/rdu/Workspace/project_templates/mcu/stm32_ws/src/libraries/STM32F4xx_StdPeriph_Driver/src/stm32f4xx_sdio.c ****        (++) Data Block size
 120:/home/rdu/Workspace/project_templates/mcu/stm32_ws/src/libraries/STM32F4xx_StdPeriph_Driver/src/stm32f4xx_sdio.c ****        (++) Data Transfer direction:  should be to card (To CARD)
 121:/home/rdu/Workspace/project_templates/mcu/stm32_ws/src/libraries/STM32F4xx_StdPeriph_Driver/src/stm32f4xx_sdio.c ****        (++) Data Transfer mode
 122:/home/rdu/Workspace/project_templates/mcu/stm32_ws/src/libraries/STM32F4xx_StdPeriph_Driver/src/stm32f4xx_sdio.c ****        (++) DPSM Status (Enable or Disable)
 123:/home/rdu/Workspace/project_templates/mcu/stm32_ws/src/libraries/STM32F4xx_StdPeriph_Driver/src/stm32f4xx_sdio.c ****   
 124:/home/rdu/Workspace/project_templates/mcu/stm32_ws/src/libraries/STM32F4xx_StdPeriph_Driver/src/stm32f4xx_sdio.c ****    (#) Configure the SDIO resources to send the data to the card according to 
 125:/home/rdu/Workspace/project_templates/mcu/stm32_ws/src/libraries/STM32F4xx_StdPeriph_Driver/src/stm32f4xx_sdio.c ****        selected transfer mode (Refer to Step 8, 9 and 10).
 126:/home/rdu/Workspace/project_templates/mcu/stm32_ws/src/libraries/STM32F4xx_StdPeriph_Driver/src/stm32f4xx_sdio.c ****                      
 127:/home/rdu/Workspace/project_templates/mcu/stm32_ws/src/libraries/STM32F4xx_StdPeriph_Driver/src/stm32f4xx_sdio.c ****    (#) Send the selected Write command (refer to step 11).
 128:/home/rdu/Workspace/project_templates/mcu/stm32_ws/src/libraries/STM32F4xx_StdPeriph_Driver/src/stm32f4xx_sdio.c ****                     
 129:/home/rdu/Workspace/project_templates/mcu/stm32_ws/src/libraries/STM32F4xx_StdPeriph_Driver/src/stm32f4xx_sdio.c ****    (#) Use the SDIO flags/interrupts to check the transfer status.
 130:/home/rdu/Workspace/project_templates/mcu/stm32_ws/src/libraries/STM32F4xx_StdPeriph_Driver/src/stm32f4xx_sdio.c ****   
 131:/home/rdu/Workspace/project_templates/mcu/stm32_ws/src/libraries/STM32F4xx_StdPeriph_Driver/src/stm32f4xx_sdio.c ****   
 132:/home/rdu/Workspace/project_templates/mcu/stm32_ws/src/libraries/STM32F4xx_StdPeriph_Driver/src/stm32f4xx_sdio.c **** @endverbatim
 133:/home/rdu/Workspace/project_templates/mcu/stm32_ws/src/libraries/STM32F4xx_StdPeriph_Driver/src/stm32f4xx_sdio.c ****   *
 134:/home/rdu/Workspace/project_templates/mcu/stm32_ws/src/libraries/STM32F4xx_StdPeriph_Driver/src/stm32f4xx_sdio.c ****   *
 135:/home/rdu/Workspace/project_templates/mcu/stm32_ws/src/libraries/STM32F4xx_StdPeriph_Driver/src/stm32f4xx_sdio.c ****   ******************************************************************************
 136:/home/rdu/Workspace/project_templates/mcu/stm32_ws/src/libraries/STM32F4xx_StdPeriph_Driver/src/stm32f4xx_sdio.c ****   * @attention
 137:/home/rdu/Workspace/project_templates/mcu/stm32_ws/src/libraries/STM32F4xx_StdPeriph_Driver/src/stm32f4xx_sdio.c ****   *
 138:/home/rdu/Workspace/project_templates/mcu/stm32_ws/src/libraries/STM32F4xx_StdPeriph_Driver/src/stm32f4xx_sdio.c ****   * <h2><center>&copy; COPYRIGHT 2016 STMicroelectronics</center></h2>
 139:/home/rdu/Workspace/project_templates/mcu/stm32_ws/src/libraries/STM32F4xx_StdPeriph_Driver/src/stm32f4xx_sdio.c ****   *
 140:/home/rdu/Workspace/project_templates/mcu/stm32_ws/src/libraries/STM32F4xx_StdPeriph_Driver/src/stm32f4xx_sdio.c ****   * Licensed under MCD-ST Liberty SW License Agreement V2, (the "License");
 141:/home/rdu/Workspace/project_templates/mcu/stm32_ws/src/libraries/STM32F4xx_StdPeriph_Driver/src/stm32f4xx_sdio.c ****   * You may not use this file except in compliance with the License.
 142:/home/rdu/Workspace/project_templates/mcu/stm32_ws/src/libraries/STM32F4xx_StdPeriph_Driver/src/stm32f4xx_sdio.c ****   * You may obtain a copy of the License at:
 143:/home/rdu/Workspace/project_templates/mcu/stm32_ws/src/libraries/STM32F4xx_StdPeriph_Driver/src/stm32f4xx_sdio.c ****   *
 144:/home/rdu/Workspace/project_templates/mcu/stm32_ws/src/libraries/STM32F4xx_StdPeriph_Driver/src/stm32f4xx_sdio.c ****   *        http://www.st.com/software_license_agreement_liberty_v2
 145:/home/rdu/Workspace/project_templates/mcu/stm32_ws/src/libraries/STM32F4xx_StdPeriph_Driver/src/stm32f4xx_sdio.c ****   *
 146:/home/rdu/Workspace/project_templates/mcu/stm32_ws/src/libraries/STM32F4xx_StdPeriph_Driver/src/stm32f4xx_sdio.c ****   * Unless required by applicable law or agreed to in writing, software 
 147:/home/rdu/Workspace/project_templates/mcu/stm32_ws/src/libraries/STM32F4xx_StdPeriph_Driver/src/stm32f4xx_sdio.c ****   * distributed under the License is distributed on an "AS IS" BASIS, 
 148:/home/rdu/Workspace/project_templates/mcu/stm32_ws/src/libraries/STM32F4xx_StdPeriph_Driver/src/stm32f4xx_sdio.c ****   * WITHOUT WARRANTIES OR CONDITIONS OF ANY KIND, either express or implied.
 149:/home/rdu/Workspace/project_templates/mcu/stm32_ws/src/libraries/STM32F4xx_StdPeriph_Driver/src/stm32f4xx_sdio.c ****   * See the License for the specific language governing permissions and
 150:/home/rdu/Workspace/project_templates/mcu/stm32_ws/src/libraries/STM32F4xx_StdPeriph_Driver/src/stm32f4xx_sdio.c ****   * limitations under the License.
 151:/home/rdu/Workspace/project_templates/mcu/stm32_ws/src/libraries/STM32F4xx_StdPeriph_Driver/src/stm32f4xx_sdio.c ****   *
 152:/home/rdu/Workspace/project_templates/mcu/stm32_ws/src/libraries/STM32F4xx_StdPeriph_Driver/src/stm32f4xx_sdio.c ****   ******************************************************************************
 153:/home/rdu/Workspace/project_templates/mcu/stm32_ws/src/libraries/STM32F4xx_StdPeriph_Driver/src/stm32f4xx_sdio.c ****   */
 154:/home/rdu/Workspace/project_templates/mcu/stm32_ws/src/libraries/STM32F4xx_StdPeriph_Driver/src/stm32f4xx_sdio.c **** 
 155:/home/rdu/Workspace/project_templates/mcu/stm32_ws/src/libraries/STM32F4xx_StdPeriph_Driver/src/stm32f4xx_sdio.c **** /* Includes ------------------------------------------------------------------*/
 156:/home/rdu/Workspace/project_templates/mcu/stm32_ws/src/libraries/STM32F4xx_StdPeriph_Driver/src/stm32f4xx_sdio.c **** #include "stm32f4xx_sdio.h"
 157:/home/rdu/Workspace/project_templates/mcu/stm32_ws/src/libraries/STM32F4xx_StdPeriph_Driver/src/stm32f4xx_sdio.c **** #include "stm32f4xx_rcc.h"
 158:/home/rdu/Workspace/project_templates/mcu/stm32_ws/src/libraries/STM32F4xx_StdPeriph_Driver/src/stm32f4xx_sdio.c **** 
 159:/home/rdu/Workspace/project_templates/mcu/stm32_ws/src/libraries/STM32F4xx_StdPeriph_Driver/src/stm32f4xx_sdio.c **** /** @addtogroup STM32F4xx_StdPeriph_Driver
 160:/home/rdu/Workspace/project_templates/mcu/stm32_ws/src/libraries/STM32F4xx_StdPeriph_Driver/src/stm32f4xx_sdio.c ****   * @{
 161:/home/rdu/Workspace/project_templates/mcu/stm32_ws/src/libraries/STM32F4xx_StdPeriph_Driver/src/stm32f4xx_sdio.c ****   */
 162:/home/rdu/Workspace/project_templates/mcu/stm32_ws/src/libraries/STM32F4xx_StdPeriph_Driver/src/stm32f4xx_sdio.c **** 
 163:/home/rdu/Workspace/project_templates/mcu/stm32_ws/src/libraries/STM32F4xx_StdPeriph_Driver/src/stm32f4xx_sdio.c **** /** @defgroup SDIO 
 164:/home/rdu/Workspace/project_templates/mcu/stm32_ws/src/libraries/STM32F4xx_StdPeriph_Driver/src/stm32f4xx_sdio.c ****   * @brief SDIO driver modules
 165:/home/rdu/Workspace/project_templates/mcu/stm32_ws/src/libraries/STM32F4xx_StdPeriph_Driver/src/stm32f4xx_sdio.c ****   * @{
 166:/home/rdu/Workspace/project_templates/mcu/stm32_ws/src/libraries/STM32F4xx_StdPeriph_Driver/src/stm32f4xx_sdio.c ****   */ 
 167:/home/rdu/Workspace/project_templates/mcu/stm32_ws/src/libraries/STM32F4xx_StdPeriph_Driver/src/stm32f4xx_sdio.c **** 
 168:/home/rdu/Workspace/project_templates/mcu/stm32_ws/src/libraries/STM32F4xx_StdPeriph_Driver/src/stm32f4xx_sdio.c **** /* Private typedef -----------------------------------------------------------*/
 169:/home/rdu/Workspace/project_templates/mcu/stm32_ws/src/libraries/STM32F4xx_StdPeriph_Driver/src/stm32f4xx_sdio.c **** /* Private define ------------------------------------------------------------*/
 170:/home/rdu/Workspace/project_templates/mcu/stm32_ws/src/libraries/STM32F4xx_StdPeriph_Driver/src/stm32f4xx_sdio.c **** 
 171:/home/rdu/Workspace/project_templates/mcu/stm32_ws/src/libraries/STM32F4xx_StdPeriph_Driver/src/stm32f4xx_sdio.c **** /* ------------ SDIO registers bit address in the alias region ----------- */
 172:/home/rdu/Workspace/project_templates/mcu/stm32_ws/src/libraries/STM32F4xx_StdPeriph_Driver/src/stm32f4xx_sdio.c **** #define SDIO_OFFSET                (SDIO_BASE - PERIPH_BASE)
 173:/home/rdu/Workspace/project_templates/mcu/stm32_ws/src/libraries/STM32F4xx_StdPeriph_Driver/src/stm32f4xx_sdio.c **** 
 174:/home/rdu/Workspace/project_templates/mcu/stm32_ws/src/libraries/STM32F4xx_StdPeriph_Driver/src/stm32f4xx_sdio.c **** /* --- CLKCR Register ---*/
 175:/home/rdu/Workspace/project_templates/mcu/stm32_ws/src/libraries/STM32F4xx_StdPeriph_Driver/src/stm32f4xx_sdio.c **** /* Alias word address of CLKEN bit */
 176:/home/rdu/Workspace/project_templates/mcu/stm32_ws/src/libraries/STM32F4xx_StdPeriph_Driver/src/stm32f4xx_sdio.c **** #define CLKCR_OFFSET              (SDIO_OFFSET + 0x04)
 177:/home/rdu/Workspace/project_templates/mcu/stm32_ws/src/libraries/STM32F4xx_StdPeriph_Driver/src/stm32f4xx_sdio.c **** #define CLKEN_BitNumber           0x08
 178:/home/rdu/Workspace/project_templates/mcu/stm32_ws/src/libraries/STM32F4xx_StdPeriph_Driver/src/stm32f4xx_sdio.c **** #define CLKCR_CLKEN_BB            (PERIPH_BB_BASE + (CLKCR_OFFSET * 32) + (CLKEN_BitNumber * 4))
 179:/home/rdu/Workspace/project_templates/mcu/stm32_ws/src/libraries/STM32F4xx_StdPeriph_Driver/src/stm32f4xx_sdio.c **** 
 180:/home/rdu/Workspace/project_templates/mcu/stm32_ws/src/libraries/STM32F4xx_StdPeriph_Driver/src/stm32f4xx_sdio.c **** /* --- CMD Register ---*/
 181:/home/rdu/Workspace/project_templates/mcu/stm32_ws/src/libraries/STM32F4xx_StdPeriph_Driver/src/stm32f4xx_sdio.c **** /* Alias word address of SDIOSUSPEND bit */
 182:/home/rdu/Workspace/project_templates/mcu/stm32_ws/src/libraries/STM32F4xx_StdPeriph_Driver/src/stm32f4xx_sdio.c **** #define CMD_OFFSET                (SDIO_OFFSET + 0x0C)
 183:/home/rdu/Workspace/project_templates/mcu/stm32_ws/src/libraries/STM32F4xx_StdPeriph_Driver/src/stm32f4xx_sdio.c **** #define SDIOSUSPEND_BitNumber     0x0B
 184:/home/rdu/Workspace/project_templates/mcu/stm32_ws/src/libraries/STM32F4xx_StdPeriph_Driver/src/stm32f4xx_sdio.c **** #define CMD_SDIOSUSPEND_BB        (PERIPH_BB_BASE + (CMD_OFFSET * 32) + (SDIOSUSPEND_BitNumber * 4)
 185:/home/rdu/Workspace/project_templates/mcu/stm32_ws/src/libraries/STM32F4xx_StdPeriph_Driver/src/stm32f4xx_sdio.c **** 
 186:/home/rdu/Workspace/project_templates/mcu/stm32_ws/src/libraries/STM32F4xx_StdPeriph_Driver/src/stm32f4xx_sdio.c **** /* Alias word address of ENCMDCOMPL bit */
 187:/home/rdu/Workspace/project_templates/mcu/stm32_ws/src/libraries/STM32F4xx_StdPeriph_Driver/src/stm32f4xx_sdio.c **** #define ENCMDCOMPL_BitNumber      0x0C
 188:/home/rdu/Workspace/project_templates/mcu/stm32_ws/src/libraries/STM32F4xx_StdPeriph_Driver/src/stm32f4xx_sdio.c **** #define CMD_ENCMDCOMPL_BB         (PERIPH_BB_BASE + (CMD_OFFSET * 32) + (ENCMDCOMPL_BitNumber * 4))
 189:/home/rdu/Workspace/project_templates/mcu/stm32_ws/src/libraries/STM32F4xx_StdPeriph_Driver/src/stm32f4xx_sdio.c **** 
 190:/home/rdu/Workspace/project_templates/mcu/stm32_ws/src/libraries/STM32F4xx_StdPeriph_Driver/src/stm32f4xx_sdio.c **** /* Alias word address of NIEN bit */
 191:/home/rdu/Workspace/project_templates/mcu/stm32_ws/src/libraries/STM32F4xx_StdPeriph_Driver/src/stm32f4xx_sdio.c **** #define NIEN_BitNumber            0x0D
 192:/home/rdu/Workspace/project_templates/mcu/stm32_ws/src/libraries/STM32F4xx_StdPeriph_Driver/src/stm32f4xx_sdio.c **** #define CMD_NIEN_BB               (PERIPH_BB_BASE + (CMD_OFFSET * 32) + (NIEN_BitNumber * 4))
 193:/home/rdu/Workspace/project_templates/mcu/stm32_ws/src/libraries/STM32F4xx_StdPeriph_Driver/src/stm32f4xx_sdio.c **** 
 194:/home/rdu/Workspace/project_templates/mcu/stm32_ws/src/libraries/STM32F4xx_StdPeriph_Driver/src/stm32f4xx_sdio.c **** /* Alias word address of ATACMD bit */
 195:/home/rdu/Workspace/project_templates/mcu/stm32_ws/src/libraries/STM32F4xx_StdPeriph_Driver/src/stm32f4xx_sdio.c **** #define ATACMD_BitNumber          0x0E
 196:/home/rdu/Workspace/project_templates/mcu/stm32_ws/src/libraries/STM32F4xx_StdPeriph_Driver/src/stm32f4xx_sdio.c **** #define CMD_ATACMD_BB             (PERIPH_BB_BASE + (CMD_OFFSET * 32) + (ATACMD_BitNumber * 4))
 197:/home/rdu/Workspace/project_templates/mcu/stm32_ws/src/libraries/STM32F4xx_StdPeriph_Driver/src/stm32f4xx_sdio.c **** 
 198:/home/rdu/Workspace/project_templates/mcu/stm32_ws/src/libraries/STM32F4xx_StdPeriph_Driver/src/stm32f4xx_sdio.c **** /* --- DCTRL Register ---*/
 199:/home/rdu/Workspace/project_templates/mcu/stm32_ws/src/libraries/STM32F4xx_StdPeriph_Driver/src/stm32f4xx_sdio.c **** /* Alias word address of DMAEN bit */
 200:/home/rdu/Workspace/project_templates/mcu/stm32_ws/src/libraries/STM32F4xx_StdPeriph_Driver/src/stm32f4xx_sdio.c **** #define DCTRL_OFFSET              (SDIO_OFFSET + 0x2C)
 201:/home/rdu/Workspace/project_templates/mcu/stm32_ws/src/libraries/STM32F4xx_StdPeriph_Driver/src/stm32f4xx_sdio.c **** #define DMAEN_BitNumber           0x03
 202:/home/rdu/Workspace/project_templates/mcu/stm32_ws/src/libraries/STM32F4xx_StdPeriph_Driver/src/stm32f4xx_sdio.c **** #define DCTRL_DMAEN_BB            (PERIPH_BB_BASE + (DCTRL_OFFSET * 32) + (DMAEN_BitNumber * 4))
 203:/home/rdu/Workspace/project_templates/mcu/stm32_ws/src/libraries/STM32F4xx_StdPeriph_Driver/src/stm32f4xx_sdio.c **** 
 204:/home/rdu/Workspace/project_templates/mcu/stm32_ws/src/libraries/STM32F4xx_StdPeriph_Driver/src/stm32f4xx_sdio.c **** /* Alias word address of RWSTART bit */
 205:/home/rdu/Workspace/project_templates/mcu/stm32_ws/src/libraries/STM32F4xx_StdPeriph_Driver/src/stm32f4xx_sdio.c **** #define RWSTART_BitNumber         0x08
 206:/home/rdu/Workspace/project_templates/mcu/stm32_ws/src/libraries/STM32F4xx_StdPeriph_Driver/src/stm32f4xx_sdio.c **** #define DCTRL_RWSTART_BB          (PERIPH_BB_BASE + (DCTRL_OFFSET * 32) + (RWSTART_BitNumber * 4))
 207:/home/rdu/Workspace/project_templates/mcu/stm32_ws/src/libraries/STM32F4xx_StdPeriph_Driver/src/stm32f4xx_sdio.c **** 
 208:/home/rdu/Workspace/project_templates/mcu/stm32_ws/src/libraries/STM32F4xx_StdPeriph_Driver/src/stm32f4xx_sdio.c **** /* Alias word address of RWSTOP bit */
 209:/home/rdu/Workspace/project_templates/mcu/stm32_ws/src/libraries/STM32F4xx_StdPeriph_Driver/src/stm32f4xx_sdio.c **** #define RWSTOP_BitNumber          0x09
 210:/home/rdu/Workspace/project_templates/mcu/stm32_ws/src/libraries/STM32F4xx_StdPeriph_Driver/src/stm32f4xx_sdio.c **** #define DCTRL_RWSTOP_BB           (PERIPH_BB_BASE + (DCTRL_OFFSET * 32) + (RWSTOP_BitNumber * 4))
 211:/home/rdu/Workspace/project_templates/mcu/stm32_ws/src/libraries/STM32F4xx_StdPeriph_Driver/src/stm32f4xx_sdio.c **** 
 212:/home/rdu/Workspace/project_templates/mcu/stm32_ws/src/libraries/STM32F4xx_StdPeriph_Driver/src/stm32f4xx_sdio.c **** /* Alias word address of RWMOD bit */
 213:/home/rdu/Workspace/project_templates/mcu/stm32_ws/src/libraries/STM32F4xx_StdPeriph_Driver/src/stm32f4xx_sdio.c **** #define RWMOD_BitNumber           0x0A
 214:/home/rdu/Workspace/project_templates/mcu/stm32_ws/src/libraries/STM32F4xx_StdPeriph_Driver/src/stm32f4xx_sdio.c **** #define DCTRL_RWMOD_BB            (PERIPH_BB_BASE + (DCTRL_OFFSET * 32) + (RWMOD_BitNumber * 4))
 215:/home/rdu/Workspace/project_templates/mcu/stm32_ws/src/libraries/STM32F4xx_StdPeriph_Driver/src/stm32f4xx_sdio.c **** 
 216:/home/rdu/Workspace/project_templates/mcu/stm32_ws/src/libraries/STM32F4xx_StdPeriph_Driver/src/stm32f4xx_sdio.c **** /* Alias word address of SDIOEN bit */
 217:/home/rdu/Workspace/project_templates/mcu/stm32_ws/src/libraries/STM32F4xx_StdPeriph_Driver/src/stm32f4xx_sdio.c **** #define SDIOEN_BitNumber          0x0B
 218:/home/rdu/Workspace/project_templates/mcu/stm32_ws/src/libraries/STM32F4xx_StdPeriph_Driver/src/stm32f4xx_sdio.c **** #define DCTRL_SDIOEN_BB           (PERIPH_BB_BASE + (DCTRL_OFFSET * 32) + (SDIOEN_BitNumber * 4))
 219:/home/rdu/Workspace/project_templates/mcu/stm32_ws/src/libraries/STM32F4xx_StdPeriph_Driver/src/stm32f4xx_sdio.c **** 
 220:/home/rdu/Workspace/project_templates/mcu/stm32_ws/src/libraries/STM32F4xx_StdPeriph_Driver/src/stm32f4xx_sdio.c **** /* ---------------------- SDIO registers bit mask ------------------------ */
 221:/home/rdu/Workspace/project_templates/mcu/stm32_ws/src/libraries/STM32F4xx_StdPeriph_Driver/src/stm32f4xx_sdio.c **** /* --- CLKCR Register ---*/
 222:/home/rdu/Workspace/project_templates/mcu/stm32_ws/src/libraries/STM32F4xx_StdPeriph_Driver/src/stm32f4xx_sdio.c **** /* CLKCR register clear mask */
 223:/home/rdu/Workspace/project_templates/mcu/stm32_ws/src/libraries/STM32F4xx_StdPeriph_Driver/src/stm32f4xx_sdio.c **** #define CLKCR_CLEAR_MASK         ((uint32_t)0xFFFF8100) 
 224:/home/rdu/Workspace/project_templates/mcu/stm32_ws/src/libraries/STM32F4xx_StdPeriph_Driver/src/stm32f4xx_sdio.c **** 
 225:/home/rdu/Workspace/project_templates/mcu/stm32_ws/src/libraries/STM32F4xx_StdPeriph_Driver/src/stm32f4xx_sdio.c **** /* --- PWRCTRL Register ---*/
 226:/home/rdu/Workspace/project_templates/mcu/stm32_ws/src/libraries/STM32F4xx_StdPeriph_Driver/src/stm32f4xx_sdio.c **** /* SDIO PWRCTRL Mask */
 227:/home/rdu/Workspace/project_templates/mcu/stm32_ws/src/libraries/STM32F4xx_StdPeriph_Driver/src/stm32f4xx_sdio.c **** #define PWR_PWRCTRL_MASK         ((uint32_t)0xFFFFFFFC)
 228:/home/rdu/Workspace/project_templates/mcu/stm32_ws/src/libraries/STM32F4xx_StdPeriph_Driver/src/stm32f4xx_sdio.c **** 
 229:/home/rdu/Workspace/project_templates/mcu/stm32_ws/src/libraries/STM32F4xx_StdPeriph_Driver/src/stm32f4xx_sdio.c **** /* --- DCTRL Register ---*/
 230:/home/rdu/Workspace/project_templates/mcu/stm32_ws/src/libraries/STM32F4xx_StdPeriph_Driver/src/stm32f4xx_sdio.c **** /* SDIO DCTRL Clear Mask */
 231:/home/rdu/Workspace/project_templates/mcu/stm32_ws/src/libraries/STM32F4xx_StdPeriph_Driver/src/stm32f4xx_sdio.c **** #define DCTRL_CLEAR_MASK         ((uint32_t)0xFFFFFF08)
 232:/home/rdu/Workspace/project_templates/mcu/stm32_ws/src/libraries/STM32F4xx_StdPeriph_Driver/src/stm32f4xx_sdio.c **** 
 233:/home/rdu/Workspace/project_templates/mcu/stm32_ws/src/libraries/STM32F4xx_StdPeriph_Driver/src/stm32f4xx_sdio.c **** /* --- CMD Register ---*/
 234:/home/rdu/Workspace/project_templates/mcu/stm32_ws/src/libraries/STM32F4xx_StdPeriph_Driver/src/stm32f4xx_sdio.c **** /* CMD Register clear mask */
 235:/home/rdu/Workspace/project_templates/mcu/stm32_ws/src/libraries/STM32F4xx_StdPeriph_Driver/src/stm32f4xx_sdio.c **** #define CMD_CLEAR_MASK           ((uint32_t)0xFFFFF800)
 236:/home/rdu/Workspace/project_templates/mcu/stm32_ws/src/libraries/STM32F4xx_StdPeriph_Driver/src/stm32f4xx_sdio.c **** 
 237:/home/rdu/Workspace/project_templates/mcu/stm32_ws/src/libraries/STM32F4xx_StdPeriph_Driver/src/stm32f4xx_sdio.c **** /* SDIO RESP Registers Address */
 238:/home/rdu/Workspace/project_templates/mcu/stm32_ws/src/libraries/STM32F4xx_StdPeriph_Driver/src/stm32f4xx_sdio.c **** #define SDIO_RESP_ADDR           ((uint32_t)(SDIO_BASE + 0x14))
 239:/home/rdu/Workspace/project_templates/mcu/stm32_ws/src/libraries/STM32F4xx_StdPeriph_Driver/src/stm32f4xx_sdio.c **** 
 240:/home/rdu/Workspace/project_templates/mcu/stm32_ws/src/libraries/STM32F4xx_StdPeriph_Driver/src/stm32f4xx_sdio.c **** /* Private macro -------------------------------------------------------------*/
 241:/home/rdu/Workspace/project_templates/mcu/stm32_ws/src/libraries/STM32F4xx_StdPeriph_Driver/src/stm32f4xx_sdio.c **** /* Private variables ---------------------------------------------------------*/
 242:/home/rdu/Workspace/project_templates/mcu/stm32_ws/src/libraries/STM32F4xx_StdPeriph_Driver/src/stm32f4xx_sdio.c **** /* Private function prototypes -----------------------------------------------*/
 243:/home/rdu/Workspace/project_templates/mcu/stm32_ws/src/libraries/STM32F4xx_StdPeriph_Driver/src/stm32f4xx_sdio.c **** /* Private functions ---------------------------------------------------------*/
 244:/home/rdu/Workspace/project_templates/mcu/stm32_ws/src/libraries/STM32F4xx_StdPeriph_Driver/src/stm32f4xx_sdio.c **** 
 245:/home/rdu/Workspace/project_templates/mcu/stm32_ws/src/libraries/STM32F4xx_StdPeriph_Driver/src/stm32f4xx_sdio.c **** /** @defgroup SDIO_Private_Functions
 246:/home/rdu/Workspace/project_templates/mcu/stm32_ws/src/libraries/STM32F4xx_StdPeriph_Driver/src/stm32f4xx_sdio.c ****   * @{
 247:/home/rdu/Workspace/project_templates/mcu/stm32_ws/src/libraries/STM32F4xx_StdPeriph_Driver/src/stm32f4xx_sdio.c ****   */
 248:/home/rdu/Workspace/project_templates/mcu/stm32_ws/src/libraries/STM32F4xx_StdPeriph_Driver/src/stm32f4xx_sdio.c **** 
 249:/home/rdu/Workspace/project_templates/mcu/stm32_ws/src/libraries/STM32F4xx_StdPeriph_Driver/src/stm32f4xx_sdio.c **** /** @defgroup SDIO_Group1 Initialization and Configuration functions
 250:/home/rdu/Workspace/project_templates/mcu/stm32_ws/src/libraries/STM32F4xx_StdPeriph_Driver/src/stm32f4xx_sdio.c ****  *  @brief   Initialization and Configuration functions 
 251:/home/rdu/Workspace/project_templates/mcu/stm32_ws/src/libraries/STM32F4xx_StdPeriph_Driver/src/stm32f4xx_sdio.c ****  *
 252:/home/rdu/Workspace/project_templates/mcu/stm32_ws/src/libraries/STM32F4xx_StdPeriph_Driver/src/stm32f4xx_sdio.c **** @verbatim   
 253:/home/rdu/Workspace/project_templates/mcu/stm32_ws/src/libraries/STM32F4xx_StdPeriph_Driver/src/stm32f4xx_sdio.c ****  ===============================================================================
 254:/home/rdu/Workspace/project_templates/mcu/stm32_ws/src/libraries/STM32F4xx_StdPeriph_Driver/src/stm32f4xx_sdio.c ****               ##### Initialization and Configuration functions #####
 255:/home/rdu/Workspace/project_templates/mcu/stm32_ws/src/libraries/STM32F4xx_StdPeriph_Driver/src/stm32f4xx_sdio.c ****  ===============================================================================
 256:/home/rdu/Workspace/project_templates/mcu/stm32_ws/src/libraries/STM32F4xx_StdPeriph_Driver/src/stm32f4xx_sdio.c **** 
 257:/home/rdu/Workspace/project_templates/mcu/stm32_ws/src/libraries/STM32F4xx_StdPeriph_Driver/src/stm32f4xx_sdio.c **** @endverbatim
 258:/home/rdu/Workspace/project_templates/mcu/stm32_ws/src/libraries/STM32F4xx_StdPeriph_Driver/src/stm32f4xx_sdio.c ****   * @{
 259:/home/rdu/Workspace/project_templates/mcu/stm32_ws/src/libraries/STM32F4xx_StdPeriph_Driver/src/stm32f4xx_sdio.c ****   */
 260:/home/rdu/Workspace/project_templates/mcu/stm32_ws/src/libraries/STM32F4xx_StdPeriph_Driver/src/stm32f4xx_sdio.c **** 
 261:/home/rdu/Workspace/project_templates/mcu/stm32_ws/src/libraries/STM32F4xx_StdPeriph_Driver/src/stm32f4xx_sdio.c **** /**
 262:/home/rdu/Workspace/project_templates/mcu/stm32_ws/src/libraries/STM32F4xx_StdPeriph_Driver/src/stm32f4xx_sdio.c ****   * @brief  Deinitializes the SDIO peripheral registers to their default reset values.
 263:/home/rdu/Workspace/project_templates/mcu/stm32_ws/src/libraries/STM32F4xx_StdPeriph_Driver/src/stm32f4xx_sdio.c ****   * @param  None
 264:/home/rdu/Workspace/project_templates/mcu/stm32_ws/src/libraries/STM32F4xx_StdPeriph_Driver/src/stm32f4xx_sdio.c ****   * @retval None
 265:/home/rdu/Workspace/project_templates/mcu/stm32_ws/src/libraries/STM32F4xx_StdPeriph_Driver/src/stm32f4xx_sdio.c ****   */
 266:/home/rdu/Workspace/project_templates/mcu/stm32_ws/src/libraries/STM32F4xx_StdPeriph_Driver/src/stm32f4xx_sdio.c **** void SDIO_DeInit(void)
 267:/home/rdu/Workspace/project_templates/mcu/stm32_ws/src/libraries/STM32F4xx_StdPeriph_Driver/src/stm32f4xx_sdio.c **** {
  26              		.loc 1 267 0
  27              		.cfi_startproc
  28              		@ args = 0, pretend = 0, frame = 0
  29              		@ frame_needed = 0, uses_anonymous_args = 0
  30 0000 08B5     		push	{r3, lr}
  31              	.LCFI0:
  32              		.cfi_def_cfa_offset 8
  33              		.cfi_offset 3, -8
  34              		.cfi_offset 14, -4
 268:/home/rdu/Workspace/project_templates/mcu/stm32_ws/src/libraries/STM32F4xx_StdPeriph_Driver/src/stm32f4xx_sdio.c ****   RCC_APB2PeriphResetCmd(RCC_APB2Periph_SDIO, ENABLE);
  35              		.loc 1 268 0
  36 0002 0121     		movs	r1, #1
  37 0004 4FF40060 		mov	r0, #2048
  38 0008 FFF7FEFF 		bl	RCC_APB2PeriphResetCmd
 269:/home/rdu/Workspace/project_templates/mcu/stm32_ws/src/libraries/STM32F4xx_StdPeriph_Driver/src/stm32f4xx_sdio.c ****   RCC_APB2PeriphResetCmd(RCC_APB2Periph_SDIO, DISABLE);
  39              		.loc 1 269 0
  40 000c 0021     		movs	r1, #0
  41 000e 4FF40060 		mov	r0, #2048
  42 0012 FFF7FEFF 		bl	RCC_APB2PeriphResetCmd
 270:/home/rdu/Workspace/project_templates/mcu/stm32_ws/src/libraries/STM32F4xx_StdPeriph_Driver/src/stm32f4xx_sdio.c **** }
  43              		.loc 1 270 0
  44 0016 00BF     		nop
  45 0018 08BD     		pop	{r3, pc}
  46              		.cfi_endproc
  47              	.LFE123:
  49              		.section	.text.SDIO_Init,"ax",%progbits
  50              		.align	1
  51              		.global	SDIO_Init
  52              		.syntax unified
  53              		.thumb
  54              		.thumb_func
  55              		.fpu fpv4-sp-d16
  57              	SDIO_Init:
  58              	.LFB124:
 271:/home/rdu/Workspace/project_templates/mcu/stm32_ws/src/libraries/STM32F4xx_StdPeriph_Driver/src/stm32f4xx_sdio.c **** 
 272:/home/rdu/Workspace/project_templates/mcu/stm32_ws/src/libraries/STM32F4xx_StdPeriph_Driver/src/stm32f4xx_sdio.c **** /**
 273:/home/rdu/Workspace/project_templates/mcu/stm32_ws/src/libraries/STM32F4xx_StdPeriph_Driver/src/stm32f4xx_sdio.c ****   * @brief  Initializes the SDIO peripheral according to the specified 
 274:/home/rdu/Workspace/project_templates/mcu/stm32_ws/src/libraries/STM32F4xx_StdPeriph_Driver/src/stm32f4xx_sdio.c ****   *         parameters in the SDIO_InitStruct.
 275:/home/rdu/Workspace/project_templates/mcu/stm32_ws/src/libraries/STM32F4xx_StdPeriph_Driver/src/stm32f4xx_sdio.c ****   * @param  SDIO_InitStruct : pointer to a SDIO_InitTypeDef structure 
 276:/home/rdu/Workspace/project_templates/mcu/stm32_ws/src/libraries/STM32F4xx_StdPeriph_Driver/src/stm32f4xx_sdio.c ****   *         that contains the configuration information for the SDIO peripheral.
 277:/home/rdu/Workspace/project_templates/mcu/stm32_ws/src/libraries/STM32F4xx_StdPeriph_Driver/src/stm32f4xx_sdio.c ****   * @retval None
 278:/home/rdu/Workspace/project_templates/mcu/stm32_ws/src/libraries/STM32F4xx_StdPeriph_Driver/src/stm32f4xx_sdio.c ****   */
 279:/home/rdu/Workspace/project_templates/mcu/stm32_ws/src/libraries/STM32F4xx_StdPeriph_Driver/src/stm32f4xx_sdio.c **** void SDIO_Init(SDIO_InitTypeDef* SDIO_InitStruct)
 280:/home/rdu/Workspace/project_templates/mcu/stm32_ws/src/libraries/STM32F4xx_StdPeriph_Driver/src/stm32f4xx_sdio.c **** {
  59              		.loc 1 280 0
  60              		.cfi_startproc
  61              		@ args = 0, pretend = 0, frame = 16
  62              		@ frame_needed = 0, uses_anonymous_args = 0
  63              		@ link register save eliminated.
  64 0000 84B0     		sub	sp, sp, #16
  65              	.LCFI1:
  66              		.cfi_def_cfa_offset 16
  67 0002 0190     		str	r0, [sp, #4]
 281:/home/rdu/Workspace/project_templates/mcu/stm32_ws/src/libraries/STM32F4xx_StdPeriph_Driver/src/stm32f4xx_sdio.c ****   uint32_t tmpreg = 0;
  68              		.loc 1 281 0
  69 0004 0023     		movs	r3, #0
  70 0006 0393     		str	r3, [sp, #12]
 282:/home/rdu/Workspace/project_templates/mcu/stm32_ws/src/libraries/STM32F4xx_StdPeriph_Driver/src/stm32f4xx_sdio.c ****     
 283:/home/rdu/Workspace/project_templates/mcu/stm32_ws/src/libraries/STM32F4xx_StdPeriph_Driver/src/stm32f4xx_sdio.c ****   /* Check the parameters */
 284:/home/rdu/Workspace/project_templates/mcu/stm32_ws/src/libraries/STM32F4xx_StdPeriph_Driver/src/stm32f4xx_sdio.c ****   assert_param(IS_SDIO_CLOCK_EDGE(SDIO_InitStruct->SDIO_ClockEdge));
 285:/home/rdu/Workspace/project_templates/mcu/stm32_ws/src/libraries/STM32F4xx_StdPeriph_Driver/src/stm32f4xx_sdio.c ****   assert_param(IS_SDIO_CLOCK_BYPASS(SDIO_InitStruct->SDIO_ClockBypass));
 286:/home/rdu/Workspace/project_templates/mcu/stm32_ws/src/libraries/STM32F4xx_StdPeriph_Driver/src/stm32f4xx_sdio.c ****   assert_param(IS_SDIO_CLOCK_POWER_SAVE(SDIO_InitStruct->SDIO_ClockPowerSave));
 287:/home/rdu/Workspace/project_templates/mcu/stm32_ws/src/libraries/STM32F4xx_StdPeriph_Driver/src/stm32f4xx_sdio.c ****   assert_param(IS_SDIO_BUS_WIDE(SDIO_InitStruct->SDIO_BusWide));
 288:/home/rdu/Workspace/project_templates/mcu/stm32_ws/src/libraries/STM32F4xx_StdPeriph_Driver/src/stm32f4xx_sdio.c ****   assert_param(IS_SDIO_HARDWARE_FLOW_CONTROL(SDIO_InitStruct->SDIO_HardwareFlowControl)); 
 289:/home/rdu/Workspace/project_templates/mcu/stm32_ws/src/libraries/STM32F4xx_StdPeriph_Driver/src/stm32f4xx_sdio.c ****    
 290:/home/rdu/Workspace/project_templates/mcu/stm32_ws/src/libraries/STM32F4xx_StdPeriph_Driver/src/stm32f4xx_sdio.c **** /*---------------------------- SDIO CLKCR Configuration ------------------------*/  
 291:/home/rdu/Workspace/project_templates/mcu/stm32_ws/src/libraries/STM32F4xx_StdPeriph_Driver/src/stm32f4xx_sdio.c ****   /* Get the SDIO CLKCR value */
 292:/home/rdu/Workspace/project_templates/mcu/stm32_ws/src/libraries/STM32F4xx_StdPeriph_Driver/src/stm32f4xx_sdio.c ****   tmpreg = SDIO->CLKCR;
  71              		.loc 1 292 0
  72 0008 114B     		ldr	r3, .L3
  73 000a 5B68     		ldr	r3, [r3, #4]
  74 000c 0393     		str	r3, [sp, #12]
 293:/home/rdu/Workspace/project_templates/mcu/stm32_ws/src/libraries/STM32F4xx_StdPeriph_Driver/src/stm32f4xx_sdio.c ****   
 294:/home/rdu/Workspace/project_templates/mcu/stm32_ws/src/libraries/STM32F4xx_StdPeriph_Driver/src/stm32f4xx_sdio.c ****   /* Clear CLKDIV, PWRSAV, BYPASS, WIDBUS, NEGEDGE, HWFC_EN bits */
 295:/home/rdu/Workspace/project_templates/mcu/stm32_ws/src/libraries/STM32F4xx_StdPeriph_Driver/src/stm32f4xx_sdio.c ****   tmpreg &= CLKCR_CLEAR_MASK;
  75              		.loc 1 295 0
  76 000e 039B     		ldr	r3, [sp, #12]
  77 0010 23F4FD43 		bic	r3, r3, #32384
  78 0014 23F07F03 		bic	r3, r3, #127
  79 0018 0393     		str	r3, [sp, #12]
 296:/home/rdu/Workspace/project_templates/mcu/stm32_ws/src/libraries/STM32F4xx_StdPeriph_Driver/src/stm32f4xx_sdio.c ****   
 297:/home/rdu/Workspace/project_templates/mcu/stm32_ws/src/libraries/STM32F4xx_StdPeriph_Driver/src/stm32f4xx_sdio.c ****   /* Set CLKDIV bits according to SDIO_ClockDiv value */
 298:/home/rdu/Workspace/project_templates/mcu/stm32_ws/src/libraries/STM32F4xx_StdPeriph_Driver/src/stm32f4xx_sdio.c ****   /* Set PWRSAV bit according to SDIO_ClockPowerSave value */
 299:/home/rdu/Workspace/project_templates/mcu/stm32_ws/src/libraries/STM32F4xx_StdPeriph_Driver/src/stm32f4xx_sdio.c ****   /* Set BYPASS bit according to SDIO_ClockBypass value */
 300:/home/rdu/Workspace/project_templates/mcu/stm32_ws/src/libraries/STM32F4xx_StdPeriph_Driver/src/stm32f4xx_sdio.c ****   /* Set WIDBUS bits according to SDIO_BusWide value */
 301:/home/rdu/Workspace/project_templates/mcu/stm32_ws/src/libraries/STM32F4xx_StdPeriph_Driver/src/stm32f4xx_sdio.c ****   /* Set NEGEDGE bits according to SDIO_ClockEdge value */
 302:/home/rdu/Workspace/project_templates/mcu/stm32_ws/src/libraries/STM32F4xx_StdPeriph_Driver/src/stm32f4xx_sdio.c ****   /* Set HWFC_EN bits according to SDIO_HardwareFlowControl value */
 303:/home/rdu/Workspace/project_templates/mcu/stm32_ws/src/libraries/STM32F4xx_StdPeriph_Driver/src/stm32f4xx_sdio.c ****   tmpreg |= (SDIO_InitStruct->SDIO_ClockDiv  | SDIO_InitStruct->SDIO_ClockPowerSave |
  80              		.loc 1 303 0
  81 001a 019B     		ldr	r3, [sp, #4]
  82 001c 1B7D     		ldrb	r3, [r3, #20]	@ zero_extendqisi2
  83 001e 1A46     		mov	r2, r3
  84 0020 019B     		ldr	r3, [sp, #4]
  85 0022 9B68     		ldr	r3, [r3, #8]
  86 0024 1A43     		orrs	r2, r2, r3
 304:/home/rdu/Workspace/project_templates/mcu/stm32_ws/src/libraries/STM32F4xx_StdPeriph_Driver/src/stm32f4xx_sdio.c ****              SDIO_InitStruct->SDIO_ClockBypass | SDIO_InitStruct->SDIO_BusWide |
  87              		.loc 1 304 0
  88 0026 019B     		ldr	r3, [sp, #4]
  89 0028 5B68     		ldr	r3, [r3, #4]
 303:/home/rdu/Workspace/project_templates/mcu/stm32_ws/src/libraries/STM32F4xx_StdPeriph_Driver/src/stm32f4xx_sdio.c ****              SDIO_InitStruct->SDIO_ClockBypass | SDIO_InitStruct->SDIO_BusWide |
  90              		.loc 1 303 0
  91 002a 1A43     		orrs	r2, r2, r3
  92              		.loc 1 304 0
  93 002c 019B     		ldr	r3, [sp, #4]
  94 002e DB68     		ldr	r3, [r3, #12]
  95 0030 1A43     		orrs	r2, r2, r3
 305:/home/rdu/Workspace/project_templates/mcu/stm32_ws/src/libraries/STM32F4xx_StdPeriph_Driver/src/stm32f4xx_sdio.c ****              SDIO_InitStruct->SDIO_ClockEdge | SDIO_InitStruct->SDIO_HardwareFlowControl); 
  96              		.loc 1 305 0
  97 0032 019B     		ldr	r3, [sp, #4]
  98 0034 1B68     		ldr	r3, [r3]
 304:/home/rdu/Workspace/project_templates/mcu/stm32_ws/src/libraries/STM32F4xx_StdPeriph_Driver/src/stm32f4xx_sdio.c ****              SDIO_InitStruct->SDIO_ClockBypass | SDIO_InitStruct->SDIO_BusWide |
  99              		.loc 1 304 0
 100 0036 1A43     		orrs	r2, r2, r3
 101              		.loc 1 305 0
 102 0038 019B     		ldr	r3, [sp, #4]
 103 003a 1B69     		ldr	r3, [r3, #16]
 104 003c 1343     		orrs	r3, r3, r2
 303:/home/rdu/Workspace/project_templates/mcu/stm32_ws/src/libraries/STM32F4xx_StdPeriph_Driver/src/stm32f4xx_sdio.c ****              SDIO_InitStruct->SDIO_ClockBypass | SDIO_InitStruct->SDIO_BusWide |
 105              		.loc 1 303 0
 106 003e 039A     		ldr	r2, [sp, #12]
 107 0040 1343     		orrs	r3, r3, r2
 108 0042 0393     		str	r3, [sp, #12]
 306:/home/rdu/Workspace/project_templates/mcu/stm32_ws/src/libraries/STM32F4xx_StdPeriph_Driver/src/stm32f4xx_sdio.c ****   
 307:/home/rdu/Workspace/project_templates/mcu/stm32_ws/src/libraries/STM32F4xx_StdPeriph_Driver/src/stm32f4xx_sdio.c ****   /* Write to SDIO CLKCR */
 308:/home/rdu/Workspace/project_templates/mcu/stm32_ws/src/libraries/STM32F4xx_StdPeriph_Driver/src/stm32f4xx_sdio.c ****   SDIO->CLKCR = tmpreg;
 109              		.loc 1 308 0
 110 0044 024A     		ldr	r2, .L3
 111 0046 039B     		ldr	r3, [sp, #12]
 112 0048 5360     		str	r3, [r2, #4]
 309:/home/rdu/Workspace/project_templates/mcu/stm32_ws/src/libraries/STM32F4xx_StdPeriph_Driver/src/stm32f4xx_sdio.c **** }
 113              		.loc 1 309 0
 114 004a 00BF     		nop
 115 004c 04B0     		add	sp, sp, #16
 116              	.LCFI2:
 117              		.cfi_def_cfa_offset 0
 118              		@ sp needed
 119 004e 7047     		bx	lr
 120              	.L4:
 121              		.align	2
 122              	.L3:
 123 0050 002C0140 		.word	1073818624
 124              		.cfi_endproc
 125              	.LFE124:
 127              		.section	.text.SDIO_StructInit,"ax",%progbits
 128              		.align	1
 129              		.global	SDIO_StructInit
 130              		.syntax unified
 131              		.thumb
 132              		.thumb_func
 133              		.fpu fpv4-sp-d16
 135              	SDIO_StructInit:
 136              	.LFB125:
 310:/home/rdu/Workspace/project_templates/mcu/stm32_ws/src/libraries/STM32F4xx_StdPeriph_Driver/src/stm32f4xx_sdio.c **** 
 311:/home/rdu/Workspace/project_templates/mcu/stm32_ws/src/libraries/STM32F4xx_StdPeriph_Driver/src/stm32f4xx_sdio.c **** /**
 312:/home/rdu/Workspace/project_templates/mcu/stm32_ws/src/libraries/STM32F4xx_StdPeriph_Driver/src/stm32f4xx_sdio.c ****   * @brief  Fills each SDIO_InitStruct member with its default value.
 313:/home/rdu/Workspace/project_templates/mcu/stm32_ws/src/libraries/STM32F4xx_StdPeriph_Driver/src/stm32f4xx_sdio.c ****   * @param  SDIO_InitStruct: pointer to an SDIO_InitTypeDef structure which 
 314:/home/rdu/Workspace/project_templates/mcu/stm32_ws/src/libraries/STM32F4xx_StdPeriph_Driver/src/stm32f4xx_sdio.c ****   *         will be initialized.
 315:/home/rdu/Workspace/project_templates/mcu/stm32_ws/src/libraries/STM32F4xx_StdPeriph_Driver/src/stm32f4xx_sdio.c ****   * @retval None
 316:/home/rdu/Workspace/project_templates/mcu/stm32_ws/src/libraries/STM32F4xx_StdPeriph_Driver/src/stm32f4xx_sdio.c ****   */
 317:/home/rdu/Workspace/project_templates/mcu/stm32_ws/src/libraries/STM32F4xx_StdPeriph_Driver/src/stm32f4xx_sdio.c **** void SDIO_StructInit(SDIO_InitTypeDef* SDIO_InitStruct)
 318:/home/rdu/Workspace/project_templates/mcu/stm32_ws/src/libraries/STM32F4xx_StdPeriph_Driver/src/stm32f4xx_sdio.c **** {
 137              		.loc 1 318 0
 138              		.cfi_startproc
 139              		@ args = 0, pretend = 0, frame = 8
 140              		@ frame_needed = 0, uses_anonymous_args = 0
 141              		@ link register save eliminated.
 142 0000 82B0     		sub	sp, sp, #8
 143              	.LCFI3:
 144              		.cfi_def_cfa_offset 8
 145 0002 0190     		str	r0, [sp, #4]
 319:/home/rdu/Workspace/project_templates/mcu/stm32_ws/src/libraries/STM32F4xx_StdPeriph_Driver/src/stm32f4xx_sdio.c ****   /* SDIO_InitStruct members default value */
 320:/home/rdu/Workspace/project_templates/mcu/stm32_ws/src/libraries/STM32F4xx_StdPeriph_Driver/src/stm32f4xx_sdio.c ****   SDIO_InitStruct->SDIO_ClockDiv = 0x00;
 146              		.loc 1 320 0
 147 0004 019B     		ldr	r3, [sp, #4]
 148 0006 0022     		movs	r2, #0
 149 0008 1A75     		strb	r2, [r3, #20]
 321:/home/rdu/Workspace/project_templates/mcu/stm32_ws/src/libraries/STM32F4xx_StdPeriph_Driver/src/stm32f4xx_sdio.c ****   SDIO_InitStruct->SDIO_ClockEdge = SDIO_ClockEdge_Rising;
 150              		.loc 1 321 0
 151 000a 019B     		ldr	r3, [sp, #4]
 152 000c 0022     		movs	r2, #0
 153 000e 1A60     		str	r2, [r3]
 322:/home/rdu/Workspace/project_templates/mcu/stm32_ws/src/libraries/STM32F4xx_StdPeriph_Driver/src/stm32f4xx_sdio.c ****   SDIO_InitStruct->SDIO_ClockBypass = SDIO_ClockBypass_Disable;
 154              		.loc 1 322 0
 155 0010 019B     		ldr	r3, [sp, #4]
 156 0012 0022     		movs	r2, #0
 157 0014 5A60     		str	r2, [r3, #4]
 323:/home/rdu/Workspace/project_templates/mcu/stm32_ws/src/libraries/STM32F4xx_StdPeriph_Driver/src/stm32f4xx_sdio.c ****   SDIO_InitStruct->SDIO_ClockPowerSave = SDIO_ClockPowerSave_Disable;
 158              		.loc 1 323 0
 159 0016 019B     		ldr	r3, [sp, #4]
 160 0018 0022     		movs	r2, #0
 161 001a 9A60     		str	r2, [r3, #8]
 324:/home/rdu/Workspace/project_templates/mcu/stm32_ws/src/libraries/STM32F4xx_StdPeriph_Driver/src/stm32f4xx_sdio.c ****   SDIO_InitStruct->SDIO_BusWide = SDIO_BusWide_1b;
 162              		.loc 1 324 0
 163 001c 019B     		ldr	r3, [sp, #4]
 164 001e 0022     		movs	r2, #0
 165 0020 DA60     		str	r2, [r3, #12]
 325:/home/rdu/Workspace/project_templates/mcu/stm32_ws/src/libraries/STM32F4xx_StdPeriph_Driver/src/stm32f4xx_sdio.c ****   SDIO_InitStruct->SDIO_HardwareFlowControl = SDIO_HardwareFlowControl_Disable;
 166              		.loc 1 325 0
 167 0022 019B     		ldr	r3, [sp, #4]
 168 0024 0022     		movs	r2, #0
 169 0026 1A61     		str	r2, [r3, #16]
 326:/home/rdu/Workspace/project_templates/mcu/stm32_ws/src/libraries/STM32F4xx_StdPeriph_Driver/src/stm32f4xx_sdio.c **** }
 170              		.loc 1 326 0
 171 0028 00BF     		nop
 172 002a 02B0     		add	sp, sp, #8
 173              	.LCFI4:
 174              		.cfi_def_cfa_offset 0
 175              		@ sp needed
 176 002c 7047     		bx	lr
 177              		.cfi_endproc
 178              	.LFE125:
 180              		.section	.text.SDIO_ClockCmd,"ax",%progbits
 181              		.align	1
 182              		.global	SDIO_ClockCmd
 183              		.syntax unified
 184              		.thumb
 185              		.thumb_func
 186              		.fpu fpv4-sp-d16
 188              	SDIO_ClockCmd:
 189              	.LFB126:
 327:/home/rdu/Workspace/project_templates/mcu/stm32_ws/src/libraries/STM32F4xx_StdPeriph_Driver/src/stm32f4xx_sdio.c **** 
 328:/home/rdu/Workspace/project_templates/mcu/stm32_ws/src/libraries/STM32F4xx_StdPeriph_Driver/src/stm32f4xx_sdio.c **** /**
 329:/home/rdu/Workspace/project_templates/mcu/stm32_ws/src/libraries/STM32F4xx_StdPeriph_Driver/src/stm32f4xx_sdio.c ****   * @brief  Enables or disables the SDIO Clock.
 330:/home/rdu/Workspace/project_templates/mcu/stm32_ws/src/libraries/STM32F4xx_StdPeriph_Driver/src/stm32f4xx_sdio.c ****   * @param  NewState: new state of the SDIO Clock. 
 331:/home/rdu/Workspace/project_templates/mcu/stm32_ws/src/libraries/STM32F4xx_StdPeriph_Driver/src/stm32f4xx_sdio.c ****   *         This parameter can be: ENABLE or DISABLE.
 332:/home/rdu/Workspace/project_templates/mcu/stm32_ws/src/libraries/STM32F4xx_StdPeriph_Driver/src/stm32f4xx_sdio.c ****   * @retval None
 333:/home/rdu/Workspace/project_templates/mcu/stm32_ws/src/libraries/STM32F4xx_StdPeriph_Driver/src/stm32f4xx_sdio.c ****   */
 334:/home/rdu/Workspace/project_templates/mcu/stm32_ws/src/libraries/STM32F4xx_StdPeriph_Driver/src/stm32f4xx_sdio.c **** void SDIO_ClockCmd(FunctionalState NewState)
 335:/home/rdu/Workspace/project_templates/mcu/stm32_ws/src/libraries/STM32F4xx_StdPeriph_Driver/src/stm32f4xx_sdio.c **** {
 190              		.loc 1 335 0
 191              		.cfi_startproc
 192              		@ args = 0, pretend = 0, frame = 8
 193              		@ frame_needed = 0, uses_anonymous_args = 0
 194              		@ link register save eliminated.
 195 0000 82B0     		sub	sp, sp, #8
 196              	.LCFI5:
 197              		.cfi_def_cfa_offset 8
 198 0002 0346     		mov	r3, r0
 199 0004 8DF80730 		strb	r3, [sp, #7]
 336:/home/rdu/Workspace/project_templates/mcu/stm32_ws/src/libraries/STM32F4xx_StdPeriph_Driver/src/stm32f4xx_sdio.c ****   /* Check the parameters */
 337:/home/rdu/Workspace/project_templates/mcu/stm32_ws/src/libraries/STM32F4xx_StdPeriph_Driver/src/stm32f4xx_sdio.c ****   assert_param(IS_FUNCTIONAL_STATE(NewState));
 338:/home/rdu/Workspace/project_templates/mcu/stm32_ws/src/libraries/STM32F4xx_StdPeriph_Driver/src/stm32f4xx_sdio.c ****   
 339:/home/rdu/Workspace/project_templates/mcu/stm32_ws/src/libraries/STM32F4xx_StdPeriph_Driver/src/stm32f4xx_sdio.c ****   *(__IO uint32_t *) CLKCR_CLKEN_BB = (uint32_t)NewState;
 200              		.loc 1 339 0
 201 0008 034A     		ldr	r2, .L7
 202 000a 9DF80730 		ldrb	r3, [sp, #7]	@ zero_extendqisi2
 203 000e 1360     		str	r3, [r2]
 340:/home/rdu/Workspace/project_templates/mcu/stm32_ws/src/libraries/STM32F4xx_StdPeriph_Driver/src/stm32f4xx_sdio.c **** }
 204              		.loc 1 340 0
 205 0010 00BF     		nop
 206 0012 02B0     		add	sp, sp, #8
 207              	.LCFI6:
 208              		.cfi_def_cfa_offset 0
 209              		@ sp needed
 210 0014 7047     		bx	lr
 211              	.L8:
 212 0016 00BF     		.align	2
 213              	.L7:
 214 0018 A0802542 		.word	1109754016
 215              		.cfi_endproc
 216              	.LFE126:
 218              		.section	.text.SDIO_SetPowerState,"ax",%progbits
 219              		.align	1
 220              		.global	SDIO_SetPowerState
 221              		.syntax unified
 222              		.thumb
 223              		.thumb_func
 224              		.fpu fpv4-sp-d16
 226              	SDIO_SetPowerState:
 227              	.LFB127:
 341:/home/rdu/Workspace/project_templates/mcu/stm32_ws/src/libraries/STM32F4xx_StdPeriph_Driver/src/stm32f4xx_sdio.c **** 
 342:/home/rdu/Workspace/project_templates/mcu/stm32_ws/src/libraries/STM32F4xx_StdPeriph_Driver/src/stm32f4xx_sdio.c **** /**
 343:/home/rdu/Workspace/project_templates/mcu/stm32_ws/src/libraries/STM32F4xx_StdPeriph_Driver/src/stm32f4xx_sdio.c ****   * @brief  Sets the power status of the controller.
 344:/home/rdu/Workspace/project_templates/mcu/stm32_ws/src/libraries/STM32F4xx_StdPeriph_Driver/src/stm32f4xx_sdio.c ****   * @param  SDIO_PowerState: new state of the Power state. 
 345:/home/rdu/Workspace/project_templates/mcu/stm32_ws/src/libraries/STM32F4xx_StdPeriph_Driver/src/stm32f4xx_sdio.c ****   *          This parameter can be one of the following values:
 346:/home/rdu/Workspace/project_templates/mcu/stm32_ws/src/libraries/STM32F4xx_StdPeriph_Driver/src/stm32f4xx_sdio.c ****   *            @arg SDIO_PowerState_OFF: SDIO Power OFF
 347:/home/rdu/Workspace/project_templates/mcu/stm32_ws/src/libraries/STM32F4xx_StdPeriph_Driver/src/stm32f4xx_sdio.c ****   *            @arg SDIO_PowerState_ON: SDIO Power ON
 348:/home/rdu/Workspace/project_templates/mcu/stm32_ws/src/libraries/STM32F4xx_StdPeriph_Driver/src/stm32f4xx_sdio.c ****   * @retval None
 349:/home/rdu/Workspace/project_templates/mcu/stm32_ws/src/libraries/STM32F4xx_StdPeriph_Driver/src/stm32f4xx_sdio.c ****   */
 350:/home/rdu/Workspace/project_templates/mcu/stm32_ws/src/libraries/STM32F4xx_StdPeriph_Driver/src/stm32f4xx_sdio.c **** void SDIO_SetPowerState(uint32_t SDIO_PowerState)
 351:/home/rdu/Workspace/project_templates/mcu/stm32_ws/src/libraries/STM32F4xx_StdPeriph_Driver/src/stm32f4xx_sdio.c **** {
 228              		.loc 1 351 0
 229              		.cfi_startproc
 230              		@ args = 0, pretend = 0, frame = 8
 231              		@ frame_needed = 0, uses_anonymous_args = 0
 232              		@ link register save eliminated.
 233 0000 82B0     		sub	sp, sp, #8
 234              	.LCFI7:
 235              		.cfi_def_cfa_offset 8
 236 0002 0190     		str	r0, [sp, #4]
 352:/home/rdu/Workspace/project_templates/mcu/stm32_ws/src/libraries/STM32F4xx_StdPeriph_Driver/src/stm32f4xx_sdio.c ****   /* Check the parameters */
 353:/home/rdu/Workspace/project_templates/mcu/stm32_ws/src/libraries/STM32F4xx_StdPeriph_Driver/src/stm32f4xx_sdio.c ****   assert_param(IS_SDIO_POWER_STATE(SDIO_PowerState));
 354:/home/rdu/Workspace/project_templates/mcu/stm32_ws/src/libraries/STM32F4xx_StdPeriph_Driver/src/stm32f4xx_sdio.c ****   
 355:/home/rdu/Workspace/project_templates/mcu/stm32_ws/src/libraries/STM32F4xx_StdPeriph_Driver/src/stm32f4xx_sdio.c ****   SDIO->POWER = SDIO_PowerState;
 237              		.loc 1 355 0
 238 0004 024A     		ldr	r2, .L10
 239 0006 019B     		ldr	r3, [sp, #4]
 240 0008 1360     		str	r3, [r2]
 356:/home/rdu/Workspace/project_templates/mcu/stm32_ws/src/libraries/STM32F4xx_StdPeriph_Driver/src/stm32f4xx_sdio.c **** }
 241              		.loc 1 356 0
 242 000a 00BF     		nop
 243 000c 02B0     		add	sp, sp, #8
 244              	.LCFI8:
 245              		.cfi_def_cfa_offset 0
 246              		@ sp needed
 247 000e 7047     		bx	lr
 248              	.L11:
 249              		.align	2
 250              	.L10:
 251 0010 002C0140 		.word	1073818624
 252              		.cfi_endproc
 253              	.LFE127:
 255              		.section	.text.SDIO_GetPowerState,"ax",%progbits
 256              		.align	1
 257              		.global	SDIO_GetPowerState
 258              		.syntax unified
 259              		.thumb
 260              		.thumb_func
 261              		.fpu fpv4-sp-d16
 263              	SDIO_GetPowerState:
 264              	.LFB128:
 357:/home/rdu/Workspace/project_templates/mcu/stm32_ws/src/libraries/STM32F4xx_StdPeriph_Driver/src/stm32f4xx_sdio.c **** 
 358:/home/rdu/Workspace/project_templates/mcu/stm32_ws/src/libraries/STM32F4xx_StdPeriph_Driver/src/stm32f4xx_sdio.c **** /**
 359:/home/rdu/Workspace/project_templates/mcu/stm32_ws/src/libraries/STM32F4xx_StdPeriph_Driver/src/stm32f4xx_sdio.c ****   * @brief  Gets the power status of the controller.
 360:/home/rdu/Workspace/project_templates/mcu/stm32_ws/src/libraries/STM32F4xx_StdPeriph_Driver/src/stm32f4xx_sdio.c ****   * @param  None
 361:/home/rdu/Workspace/project_templates/mcu/stm32_ws/src/libraries/STM32F4xx_StdPeriph_Driver/src/stm32f4xx_sdio.c ****   * @retval Power status of the controller. The returned value can be one of the 
 362:/home/rdu/Workspace/project_templates/mcu/stm32_ws/src/libraries/STM32F4xx_StdPeriph_Driver/src/stm32f4xx_sdio.c ****   *         following values:
 363:/home/rdu/Workspace/project_templates/mcu/stm32_ws/src/libraries/STM32F4xx_StdPeriph_Driver/src/stm32f4xx_sdio.c ****   *            - 0x00: Power OFF
 364:/home/rdu/Workspace/project_templates/mcu/stm32_ws/src/libraries/STM32F4xx_StdPeriph_Driver/src/stm32f4xx_sdio.c ****   *            - 0x02: Power UP
 365:/home/rdu/Workspace/project_templates/mcu/stm32_ws/src/libraries/STM32F4xx_StdPeriph_Driver/src/stm32f4xx_sdio.c ****   *            - 0x03: Power ON 
 366:/home/rdu/Workspace/project_templates/mcu/stm32_ws/src/libraries/STM32F4xx_StdPeriph_Driver/src/stm32f4xx_sdio.c ****   */
 367:/home/rdu/Workspace/project_templates/mcu/stm32_ws/src/libraries/STM32F4xx_StdPeriph_Driver/src/stm32f4xx_sdio.c **** uint32_t SDIO_GetPowerState(void)
 368:/home/rdu/Workspace/project_templates/mcu/stm32_ws/src/libraries/STM32F4xx_StdPeriph_Driver/src/stm32f4xx_sdio.c **** {
 265              		.loc 1 368 0
 266              		.cfi_startproc
 267              		@ args = 0, pretend = 0, frame = 0
 268              		@ frame_needed = 0, uses_anonymous_args = 0
 269              		@ link register save eliminated.
 369:/home/rdu/Workspace/project_templates/mcu/stm32_ws/src/libraries/STM32F4xx_StdPeriph_Driver/src/stm32f4xx_sdio.c ****   return (SDIO->POWER & (~PWR_PWRCTRL_MASK));
 270              		.loc 1 369 0
 271 0000 024B     		ldr	r3, .L14
 272 0002 1B68     		ldr	r3, [r3]
 273 0004 03F00303 		and	r3, r3, #3
 370:/home/rdu/Workspace/project_templates/mcu/stm32_ws/src/libraries/STM32F4xx_StdPeriph_Driver/src/stm32f4xx_sdio.c **** }
 274              		.loc 1 370 0
 275 0008 1846     		mov	r0, r3
 276 000a 7047     		bx	lr
 277              	.L15:
 278              		.align	2
 279              	.L14:
 280 000c 002C0140 		.word	1073818624
 281              		.cfi_endproc
 282              	.LFE128:
 284              		.section	.text.SDIO_SendCommand,"ax",%progbits
 285              		.align	1
 286              		.global	SDIO_SendCommand
 287              		.syntax unified
 288              		.thumb
 289              		.thumb_func
 290              		.fpu fpv4-sp-d16
 292              	SDIO_SendCommand:
 293              	.LFB129:
 371:/home/rdu/Workspace/project_templates/mcu/stm32_ws/src/libraries/STM32F4xx_StdPeriph_Driver/src/stm32f4xx_sdio.c **** 
 372:/home/rdu/Workspace/project_templates/mcu/stm32_ws/src/libraries/STM32F4xx_StdPeriph_Driver/src/stm32f4xx_sdio.c **** /**
 373:/home/rdu/Workspace/project_templates/mcu/stm32_ws/src/libraries/STM32F4xx_StdPeriph_Driver/src/stm32f4xx_sdio.c ****   * @}
 374:/home/rdu/Workspace/project_templates/mcu/stm32_ws/src/libraries/STM32F4xx_StdPeriph_Driver/src/stm32f4xx_sdio.c ****   */
 375:/home/rdu/Workspace/project_templates/mcu/stm32_ws/src/libraries/STM32F4xx_StdPeriph_Driver/src/stm32f4xx_sdio.c **** 
 376:/home/rdu/Workspace/project_templates/mcu/stm32_ws/src/libraries/STM32F4xx_StdPeriph_Driver/src/stm32f4xx_sdio.c **** /** @defgroup SDIO_Group2 Command path state machine (CPSM) management functions
 377:/home/rdu/Workspace/project_templates/mcu/stm32_ws/src/libraries/STM32F4xx_StdPeriph_Driver/src/stm32f4xx_sdio.c ****  *  @brief   Command path state machine (CPSM) management functions 
 378:/home/rdu/Workspace/project_templates/mcu/stm32_ws/src/libraries/STM32F4xx_StdPeriph_Driver/src/stm32f4xx_sdio.c ****  *
 379:/home/rdu/Workspace/project_templates/mcu/stm32_ws/src/libraries/STM32F4xx_StdPeriph_Driver/src/stm32f4xx_sdio.c **** @verbatim   
 380:/home/rdu/Workspace/project_templates/mcu/stm32_ws/src/libraries/STM32F4xx_StdPeriph_Driver/src/stm32f4xx_sdio.c ****  ===============================================================================
 381:/home/rdu/Workspace/project_templates/mcu/stm32_ws/src/libraries/STM32F4xx_StdPeriph_Driver/src/stm32f4xx_sdio.c ****         ##### Command path state machine (CPSM) management functions #####
 382:/home/rdu/Workspace/project_templates/mcu/stm32_ws/src/libraries/STM32F4xx_StdPeriph_Driver/src/stm32f4xx_sdio.c ****  ===============================================================================  
 383:/home/rdu/Workspace/project_templates/mcu/stm32_ws/src/libraries/STM32F4xx_StdPeriph_Driver/src/stm32f4xx_sdio.c **** 
 384:/home/rdu/Workspace/project_templates/mcu/stm32_ws/src/libraries/STM32F4xx_StdPeriph_Driver/src/stm32f4xx_sdio.c ****   This section provide functions allowing to program and read the Command path 
 385:/home/rdu/Workspace/project_templates/mcu/stm32_ws/src/libraries/STM32F4xx_StdPeriph_Driver/src/stm32f4xx_sdio.c ****   state machine (CPSM).
 386:/home/rdu/Workspace/project_templates/mcu/stm32_ws/src/libraries/STM32F4xx_StdPeriph_Driver/src/stm32f4xx_sdio.c **** 
 387:/home/rdu/Workspace/project_templates/mcu/stm32_ws/src/libraries/STM32F4xx_StdPeriph_Driver/src/stm32f4xx_sdio.c **** @endverbatim
 388:/home/rdu/Workspace/project_templates/mcu/stm32_ws/src/libraries/STM32F4xx_StdPeriph_Driver/src/stm32f4xx_sdio.c ****   * @{
 389:/home/rdu/Workspace/project_templates/mcu/stm32_ws/src/libraries/STM32F4xx_StdPeriph_Driver/src/stm32f4xx_sdio.c ****   */
 390:/home/rdu/Workspace/project_templates/mcu/stm32_ws/src/libraries/STM32F4xx_StdPeriph_Driver/src/stm32f4xx_sdio.c **** 
 391:/home/rdu/Workspace/project_templates/mcu/stm32_ws/src/libraries/STM32F4xx_StdPeriph_Driver/src/stm32f4xx_sdio.c **** /**
 392:/home/rdu/Workspace/project_templates/mcu/stm32_ws/src/libraries/STM32F4xx_StdPeriph_Driver/src/stm32f4xx_sdio.c ****   * @brief  Initializes the SDIO Command according to the specified 
 393:/home/rdu/Workspace/project_templates/mcu/stm32_ws/src/libraries/STM32F4xx_StdPeriph_Driver/src/stm32f4xx_sdio.c ****   *         parameters in the SDIO_CmdInitStruct and send the command.
 394:/home/rdu/Workspace/project_templates/mcu/stm32_ws/src/libraries/STM32F4xx_StdPeriph_Driver/src/stm32f4xx_sdio.c ****   * @param  SDIO_CmdInitStruct : pointer to a SDIO_CmdInitTypeDef 
 395:/home/rdu/Workspace/project_templates/mcu/stm32_ws/src/libraries/STM32F4xx_StdPeriph_Driver/src/stm32f4xx_sdio.c ****   *         structure that contains the configuration information for the SDIO 
 396:/home/rdu/Workspace/project_templates/mcu/stm32_ws/src/libraries/STM32F4xx_StdPeriph_Driver/src/stm32f4xx_sdio.c ****   *         command.
 397:/home/rdu/Workspace/project_templates/mcu/stm32_ws/src/libraries/STM32F4xx_StdPeriph_Driver/src/stm32f4xx_sdio.c ****   * @retval None
 398:/home/rdu/Workspace/project_templates/mcu/stm32_ws/src/libraries/STM32F4xx_StdPeriph_Driver/src/stm32f4xx_sdio.c ****   */
 399:/home/rdu/Workspace/project_templates/mcu/stm32_ws/src/libraries/STM32F4xx_StdPeriph_Driver/src/stm32f4xx_sdio.c **** void SDIO_SendCommand(SDIO_CmdInitTypeDef *SDIO_CmdInitStruct)
 400:/home/rdu/Workspace/project_templates/mcu/stm32_ws/src/libraries/STM32F4xx_StdPeriph_Driver/src/stm32f4xx_sdio.c **** {
 294              		.loc 1 400 0
 295              		.cfi_startproc
 296              		@ args = 0, pretend = 0, frame = 16
 297              		@ frame_needed = 0, uses_anonymous_args = 0
 298              		@ link register save eliminated.
 299 0000 84B0     		sub	sp, sp, #16
 300              	.LCFI9:
 301              		.cfi_def_cfa_offset 16
 302 0002 0190     		str	r0, [sp, #4]
 401:/home/rdu/Workspace/project_templates/mcu/stm32_ws/src/libraries/STM32F4xx_StdPeriph_Driver/src/stm32f4xx_sdio.c ****   uint32_t tmpreg = 0;
 303              		.loc 1 401 0
 304 0004 0023     		movs	r3, #0
 305 0006 0393     		str	r3, [sp, #12]
 402:/home/rdu/Workspace/project_templates/mcu/stm32_ws/src/libraries/STM32F4xx_StdPeriph_Driver/src/stm32f4xx_sdio.c ****   
 403:/home/rdu/Workspace/project_templates/mcu/stm32_ws/src/libraries/STM32F4xx_StdPeriph_Driver/src/stm32f4xx_sdio.c ****   /* Check the parameters */
 404:/home/rdu/Workspace/project_templates/mcu/stm32_ws/src/libraries/STM32F4xx_StdPeriph_Driver/src/stm32f4xx_sdio.c ****   assert_param(IS_SDIO_CMD_INDEX(SDIO_CmdInitStruct->SDIO_CmdIndex));
 405:/home/rdu/Workspace/project_templates/mcu/stm32_ws/src/libraries/STM32F4xx_StdPeriph_Driver/src/stm32f4xx_sdio.c ****   assert_param(IS_SDIO_RESPONSE(SDIO_CmdInitStruct->SDIO_Response));
 406:/home/rdu/Workspace/project_templates/mcu/stm32_ws/src/libraries/STM32F4xx_StdPeriph_Driver/src/stm32f4xx_sdio.c ****   assert_param(IS_SDIO_WAIT(SDIO_CmdInitStruct->SDIO_Wait));
 407:/home/rdu/Workspace/project_templates/mcu/stm32_ws/src/libraries/STM32F4xx_StdPeriph_Driver/src/stm32f4xx_sdio.c ****   assert_param(IS_SDIO_CPSM(SDIO_CmdInitStruct->SDIO_CPSM));
 408:/home/rdu/Workspace/project_templates/mcu/stm32_ws/src/libraries/STM32F4xx_StdPeriph_Driver/src/stm32f4xx_sdio.c ****   
 409:/home/rdu/Workspace/project_templates/mcu/stm32_ws/src/libraries/STM32F4xx_StdPeriph_Driver/src/stm32f4xx_sdio.c **** /*---------------------------- SDIO ARG Configuration ------------------------*/
 410:/home/rdu/Workspace/project_templates/mcu/stm32_ws/src/libraries/STM32F4xx_StdPeriph_Driver/src/stm32f4xx_sdio.c ****   /* Set the SDIO Argument value */
 411:/home/rdu/Workspace/project_templates/mcu/stm32_ws/src/libraries/STM32F4xx_StdPeriph_Driver/src/stm32f4xx_sdio.c ****   SDIO->ARG = SDIO_CmdInitStruct->SDIO_Argument;
 306              		.loc 1 411 0
 307 0008 104A     		ldr	r2, .L17
 308 000a 019B     		ldr	r3, [sp, #4]
 309 000c 1B68     		ldr	r3, [r3]
 310 000e 9360     		str	r3, [r2, #8]
 412:/home/rdu/Workspace/project_templates/mcu/stm32_ws/src/libraries/STM32F4xx_StdPeriph_Driver/src/stm32f4xx_sdio.c ****   
 413:/home/rdu/Workspace/project_templates/mcu/stm32_ws/src/libraries/STM32F4xx_StdPeriph_Driver/src/stm32f4xx_sdio.c **** /*---------------------------- SDIO CMD Configuration ------------------------*/  
 414:/home/rdu/Workspace/project_templates/mcu/stm32_ws/src/libraries/STM32F4xx_StdPeriph_Driver/src/stm32f4xx_sdio.c ****   /* Get the SDIO CMD value */
 415:/home/rdu/Workspace/project_templates/mcu/stm32_ws/src/libraries/STM32F4xx_StdPeriph_Driver/src/stm32f4xx_sdio.c ****   tmpreg = SDIO->CMD;
 311              		.loc 1 415 0
 312 0010 0E4B     		ldr	r3, .L17
 313 0012 DB68     		ldr	r3, [r3, #12]
 314 0014 0393     		str	r3, [sp, #12]
 416:/home/rdu/Workspace/project_templates/mcu/stm32_ws/src/libraries/STM32F4xx_StdPeriph_Driver/src/stm32f4xx_sdio.c ****   /* Clear CMDINDEX, WAITRESP, WAITINT, WAITPEND, CPSMEN bits */
 417:/home/rdu/Workspace/project_templates/mcu/stm32_ws/src/libraries/STM32F4xx_StdPeriph_Driver/src/stm32f4xx_sdio.c ****   tmpreg &= CMD_CLEAR_MASK;
 315              		.loc 1 417 0
 316 0016 039B     		ldr	r3, [sp, #12]
 317 0018 23F4FF63 		bic	r3, r3, #2040
 318 001c 23F00703 		bic	r3, r3, #7
 319 0020 0393     		str	r3, [sp, #12]
 418:/home/rdu/Workspace/project_templates/mcu/stm32_ws/src/libraries/STM32F4xx_StdPeriph_Driver/src/stm32f4xx_sdio.c ****   /* Set CMDINDEX bits according to SDIO_CmdIndex value */
 419:/home/rdu/Workspace/project_templates/mcu/stm32_ws/src/libraries/STM32F4xx_StdPeriph_Driver/src/stm32f4xx_sdio.c ****   /* Set WAITRESP bits according to SDIO_Response value */
 420:/home/rdu/Workspace/project_templates/mcu/stm32_ws/src/libraries/STM32F4xx_StdPeriph_Driver/src/stm32f4xx_sdio.c ****   /* Set WAITINT and WAITPEND bits according to SDIO_Wait value */
 421:/home/rdu/Workspace/project_templates/mcu/stm32_ws/src/libraries/STM32F4xx_StdPeriph_Driver/src/stm32f4xx_sdio.c ****   /* Set CPSMEN bits according to SDIO_CPSM value */
 422:/home/rdu/Workspace/project_templates/mcu/stm32_ws/src/libraries/STM32F4xx_StdPeriph_Driver/src/stm32f4xx_sdio.c ****   tmpreg |= (uint32_t)SDIO_CmdInitStruct->SDIO_CmdIndex | SDIO_CmdInitStruct->SDIO_Response
 320              		.loc 1 422 0
 321 0022 019B     		ldr	r3, [sp, #4]
 322 0024 5A68     		ldr	r2, [r3, #4]
 323 0026 019B     		ldr	r3, [sp, #4]
 324 0028 9B68     		ldr	r3, [r3, #8]
 325 002a 1A43     		orrs	r2, r2, r3
 423:/home/rdu/Workspace/project_templates/mcu/stm32_ws/src/libraries/STM32F4xx_StdPeriph_Driver/src/stm32f4xx_sdio.c ****            | SDIO_CmdInitStruct->SDIO_Wait | SDIO_CmdInitStruct->SDIO_CPSM;
 326              		.loc 1 423 0
 327 002c 019B     		ldr	r3, [sp, #4]
 328 002e DB68     		ldr	r3, [r3, #12]
 329 0030 1A43     		orrs	r2, r2, r3
 330 0032 019B     		ldr	r3, [sp, #4]
 331 0034 1B69     		ldr	r3, [r3, #16]
 332 0036 1343     		orrs	r3, r3, r2
 422:/home/rdu/Workspace/project_templates/mcu/stm32_ws/src/libraries/STM32F4xx_StdPeriph_Driver/src/stm32f4xx_sdio.c ****            | SDIO_CmdInitStruct->SDIO_Wait | SDIO_CmdInitStruct->SDIO_CPSM;
 333              		.loc 1 422 0
 334 0038 039A     		ldr	r2, [sp, #12]
 335 003a 1343     		orrs	r3, r3, r2
 336 003c 0393     		str	r3, [sp, #12]
 424:/home/rdu/Workspace/project_templates/mcu/stm32_ws/src/libraries/STM32F4xx_StdPeriph_Driver/src/stm32f4xx_sdio.c ****   
 425:/home/rdu/Workspace/project_templates/mcu/stm32_ws/src/libraries/STM32F4xx_StdPeriph_Driver/src/stm32f4xx_sdio.c ****   /* Write to SDIO CMD */
 426:/home/rdu/Workspace/project_templates/mcu/stm32_ws/src/libraries/STM32F4xx_StdPeriph_Driver/src/stm32f4xx_sdio.c ****   SDIO->CMD = tmpreg;
 337              		.loc 1 426 0
 338 003e 034A     		ldr	r2, .L17
 339 0040 039B     		ldr	r3, [sp, #12]
 340 0042 D360     		str	r3, [r2, #12]
 427:/home/rdu/Workspace/project_templates/mcu/stm32_ws/src/libraries/STM32F4xx_StdPeriph_Driver/src/stm32f4xx_sdio.c **** }
 341              		.loc 1 427 0
 342 0044 00BF     		nop
 343 0046 04B0     		add	sp, sp, #16
 344              	.LCFI10:
 345              		.cfi_def_cfa_offset 0
 346              		@ sp needed
 347 0048 7047     		bx	lr
 348              	.L18:
 349 004a 00BF     		.align	2
 350              	.L17:
 351 004c 002C0140 		.word	1073818624
 352              		.cfi_endproc
 353              	.LFE129:
 355              		.section	.text.SDIO_CmdStructInit,"ax",%progbits
 356              		.align	1
 357              		.global	SDIO_CmdStructInit
 358              		.syntax unified
 359              		.thumb
 360              		.thumb_func
 361              		.fpu fpv4-sp-d16
 363              	SDIO_CmdStructInit:
 364              	.LFB130:
 428:/home/rdu/Workspace/project_templates/mcu/stm32_ws/src/libraries/STM32F4xx_StdPeriph_Driver/src/stm32f4xx_sdio.c **** 
 429:/home/rdu/Workspace/project_templates/mcu/stm32_ws/src/libraries/STM32F4xx_StdPeriph_Driver/src/stm32f4xx_sdio.c **** /**
 430:/home/rdu/Workspace/project_templates/mcu/stm32_ws/src/libraries/STM32F4xx_StdPeriph_Driver/src/stm32f4xx_sdio.c ****   * @brief  Fills each SDIO_CmdInitStruct member with its default value.
 431:/home/rdu/Workspace/project_templates/mcu/stm32_ws/src/libraries/STM32F4xx_StdPeriph_Driver/src/stm32f4xx_sdio.c ****   * @param  SDIO_CmdInitStruct: pointer to an SDIO_CmdInitTypeDef 
 432:/home/rdu/Workspace/project_templates/mcu/stm32_ws/src/libraries/STM32F4xx_StdPeriph_Driver/src/stm32f4xx_sdio.c ****   *         structure which will be initialized.
 433:/home/rdu/Workspace/project_templates/mcu/stm32_ws/src/libraries/STM32F4xx_StdPeriph_Driver/src/stm32f4xx_sdio.c ****   * @retval None
 434:/home/rdu/Workspace/project_templates/mcu/stm32_ws/src/libraries/STM32F4xx_StdPeriph_Driver/src/stm32f4xx_sdio.c ****   */
 435:/home/rdu/Workspace/project_templates/mcu/stm32_ws/src/libraries/STM32F4xx_StdPeriph_Driver/src/stm32f4xx_sdio.c **** void SDIO_CmdStructInit(SDIO_CmdInitTypeDef* SDIO_CmdInitStruct)
 436:/home/rdu/Workspace/project_templates/mcu/stm32_ws/src/libraries/STM32F4xx_StdPeriph_Driver/src/stm32f4xx_sdio.c **** {
 365              		.loc 1 436 0
 366              		.cfi_startproc
 367              		@ args = 0, pretend = 0, frame = 8
 368              		@ frame_needed = 0, uses_anonymous_args = 0
 369              		@ link register save eliminated.
 370 0000 82B0     		sub	sp, sp, #8
 371              	.LCFI11:
 372              		.cfi_def_cfa_offset 8
 373 0002 0190     		str	r0, [sp, #4]
 437:/home/rdu/Workspace/project_templates/mcu/stm32_ws/src/libraries/STM32F4xx_StdPeriph_Driver/src/stm32f4xx_sdio.c ****   /* SDIO_CmdInitStruct members default value */
 438:/home/rdu/Workspace/project_templates/mcu/stm32_ws/src/libraries/STM32F4xx_StdPeriph_Driver/src/stm32f4xx_sdio.c ****   SDIO_CmdInitStruct->SDIO_Argument = 0x00;
 374              		.loc 1 438 0
 375 0004 019B     		ldr	r3, [sp, #4]
 376 0006 0022     		movs	r2, #0
 377 0008 1A60     		str	r2, [r3]
 439:/home/rdu/Workspace/project_templates/mcu/stm32_ws/src/libraries/STM32F4xx_StdPeriph_Driver/src/stm32f4xx_sdio.c ****   SDIO_CmdInitStruct->SDIO_CmdIndex = 0x00;
 378              		.loc 1 439 0
 379 000a 019B     		ldr	r3, [sp, #4]
 380 000c 0022     		movs	r2, #0
 381 000e 5A60     		str	r2, [r3, #4]
 440:/home/rdu/Workspace/project_templates/mcu/stm32_ws/src/libraries/STM32F4xx_StdPeriph_Driver/src/stm32f4xx_sdio.c ****   SDIO_CmdInitStruct->SDIO_Response = SDIO_Response_No;
 382              		.loc 1 440 0
 383 0010 019B     		ldr	r3, [sp, #4]
 384 0012 0022     		movs	r2, #0
 385 0014 9A60     		str	r2, [r3, #8]
 441:/home/rdu/Workspace/project_templates/mcu/stm32_ws/src/libraries/STM32F4xx_StdPeriph_Driver/src/stm32f4xx_sdio.c ****   SDIO_CmdInitStruct->SDIO_Wait = SDIO_Wait_No;
 386              		.loc 1 441 0
 387 0016 019B     		ldr	r3, [sp, #4]
 388 0018 0022     		movs	r2, #0
 389 001a DA60     		str	r2, [r3, #12]
 442:/home/rdu/Workspace/project_templates/mcu/stm32_ws/src/libraries/STM32F4xx_StdPeriph_Driver/src/stm32f4xx_sdio.c ****   SDIO_CmdInitStruct->SDIO_CPSM = SDIO_CPSM_Disable;
 390              		.loc 1 442 0
 391 001c 019B     		ldr	r3, [sp, #4]
 392 001e 0022     		movs	r2, #0
 393 0020 1A61     		str	r2, [r3, #16]
 443:/home/rdu/Workspace/project_templates/mcu/stm32_ws/src/libraries/STM32F4xx_StdPeriph_Driver/src/stm32f4xx_sdio.c **** }
 394              		.loc 1 443 0
 395 0022 00BF     		nop
 396 0024 02B0     		add	sp, sp, #8
 397              	.LCFI12:
 398              		.cfi_def_cfa_offset 0
 399              		@ sp needed
 400 0026 7047     		bx	lr
 401              		.cfi_endproc
 402              	.LFE130:
 404              		.section	.text.SDIO_GetCommandResponse,"ax",%progbits
 405              		.align	1
 406              		.global	SDIO_GetCommandResponse
 407              		.syntax unified
 408              		.thumb
 409              		.thumb_func
 410              		.fpu fpv4-sp-d16
 412              	SDIO_GetCommandResponse:
 413              	.LFB131:
 444:/home/rdu/Workspace/project_templates/mcu/stm32_ws/src/libraries/STM32F4xx_StdPeriph_Driver/src/stm32f4xx_sdio.c **** 
 445:/home/rdu/Workspace/project_templates/mcu/stm32_ws/src/libraries/STM32F4xx_StdPeriph_Driver/src/stm32f4xx_sdio.c **** /**
 446:/home/rdu/Workspace/project_templates/mcu/stm32_ws/src/libraries/STM32F4xx_StdPeriph_Driver/src/stm32f4xx_sdio.c ****   * @brief  Returns command index of last command for which response received.
 447:/home/rdu/Workspace/project_templates/mcu/stm32_ws/src/libraries/STM32F4xx_StdPeriph_Driver/src/stm32f4xx_sdio.c ****   * @param  None
 448:/home/rdu/Workspace/project_templates/mcu/stm32_ws/src/libraries/STM32F4xx_StdPeriph_Driver/src/stm32f4xx_sdio.c ****   * @retval Returns the command index of the last command response received.
 449:/home/rdu/Workspace/project_templates/mcu/stm32_ws/src/libraries/STM32F4xx_StdPeriph_Driver/src/stm32f4xx_sdio.c ****   */
 450:/home/rdu/Workspace/project_templates/mcu/stm32_ws/src/libraries/STM32F4xx_StdPeriph_Driver/src/stm32f4xx_sdio.c **** uint8_t SDIO_GetCommandResponse(void)
 451:/home/rdu/Workspace/project_templates/mcu/stm32_ws/src/libraries/STM32F4xx_StdPeriph_Driver/src/stm32f4xx_sdio.c **** {
 414              		.loc 1 451 0
 415              		.cfi_startproc
 416              		@ args = 0, pretend = 0, frame = 0
 417              		@ frame_needed = 0, uses_anonymous_args = 0
 418              		@ link register save eliminated.
 452:/home/rdu/Workspace/project_templates/mcu/stm32_ws/src/libraries/STM32F4xx_StdPeriph_Driver/src/stm32f4xx_sdio.c ****   return (uint8_t)(SDIO->RESPCMD);
 419              		.loc 1 452 0
 420 0000 024B     		ldr	r3, .L22
 421 0002 1B69     		ldr	r3, [r3, #16]
 422 0004 DBB2     		uxtb	r3, r3
 453:/home/rdu/Workspace/project_templates/mcu/stm32_ws/src/libraries/STM32F4xx_StdPeriph_Driver/src/stm32f4xx_sdio.c **** }
 423              		.loc 1 453 0
 424 0006 1846     		mov	r0, r3
 425 0008 7047     		bx	lr
 426              	.L23:
 427 000a 00BF     		.align	2
 428              	.L22:
 429 000c 002C0140 		.word	1073818624
 430              		.cfi_endproc
 431              	.LFE131:
 433              		.section	.text.SDIO_GetResponse,"ax",%progbits
 434              		.align	1
 435              		.global	SDIO_GetResponse
 436              		.syntax unified
 437              		.thumb
 438              		.thumb_func
 439              		.fpu fpv4-sp-d16
 441              	SDIO_GetResponse:
 442              	.LFB132:
 454:/home/rdu/Workspace/project_templates/mcu/stm32_ws/src/libraries/STM32F4xx_StdPeriph_Driver/src/stm32f4xx_sdio.c **** 
 455:/home/rdu/Workspace/project_templates/mcu/stm32_ws/src/libraries/STM32F4xx_StdPeriph_Driver/src/stm32f4xx_sdio.c **** /**
 456:/home/rdu/Workspace/project_templates/mcu/stm32_ws/src/libraries/STM32F4xx_StdPeriph_Driver/src/stm32f4xx_sdio.c ****   * @brief  Returns response received from the card for the last command.
 457:/home/rdu/Workspace/project_templates/mcu/stm32_ws/src/libraries/STM32F4xx_StdPeriph_Driver/src/stm32f4xx_sdio.c ****   * @param  SDIO_RESP: Specifies the SDIO response register. 
 458:/home/rdu/Workspace/project_templates/mcu/stm32_ws/src/libraries/STM32F4xx_StdPeriph_Driver/src/stm32f4xx_sdio.c ****   *          This parameter can be one of the following values:
 459:/home/rdu/Workspace/project_templates/mcu/stm32_ws/src/libraries/STM32F4xx_StdPeriph_Driver/src/stm32f4xx_sdio.c ****   *            @arg SDIO_RESP1: Response Register 1
 460:/home/rdu/Workspace/project_templates/mcu/stm32_ws/src/libraries/STM32F4xx_StdPeriph_Driver/src/stm32f4xx_sdio.c ****   *            @arg SDIO_RESP2: Response Register 2
 461:/home/rdu/Workspace/project_templates/mcu/stm32_ws/src/libraries/STM32F4xx_StdPeriph_Driver/src/stm32f4xx_sdio.c ****   *            @arg SDIO_RESP3: Response Register 3
 462:/home/rdu/Workspace/project_templates/mcu/stm32_ws/src/libraries/STM32F4xx_StdPeriph_Driver/src/stm32f4xx_sdio.c ****   *            @arg SDIO_RESP4: Response Register 4
 463:/home/rdu/Workspace/project_templates/mcu/stm32_ws/src/libraries/STM32F4xx_StdPeriph_Driver/src/stm32f4xx_sdio.c ****   * @retval The Corresponding response register value.
 464:/home/rdu/Workspace/project_templates/mcu/stm32_ws/src/libraries/STM32F4xx_StdPeriph_Driver/src/stm32f4xx_sdio.c ****   */
 465:/home/rdu/Workspace/project_templates/mcu/stm32_ws/src/libraries/STM32F4xx_StdPeriph_Driver/src/stm32f4xx_sdio.c **** uint32_t SDIO_GetResponse(uint32_t SDIO_RESP)
 466:/home/rdu/Workspace/project_templates/mcu/stm32_ws/src/libraries/STM32F4xx_StdPeriph_Driver/src/stm32f4xx_sdio.c **** {
 443              		.loc 1 466 0
 444              		.cfi_startproc
 445              		@ args = 0, pretend = 0, frame = 16
 446              		@ frame_needed = 0, uses_anonymous_args = 0
 447              		@ link register save eliminated.
 448 0000 84B0     		sub	sp, sp, #16
 449              	.LCFI13:
 450              		.cfi_def_cfa_offset 16
 451 0002 0190     		str	r0, [sp, #4]
 467:/home/rdu/Workspace/project_templates/mcu/stm32_ws/src/libraries/STM32F4xx_StdPeriph_Driver/src/stm32f4xx_sdio.c ****   __IO uint32_t tmp = 0;
 452              		.loc 1 467 0
 453 0004 0023     		movs	r3, #0
 454 0006 0393     		str	r3, [sp, #12]
 468:/home/rdu/Workspace/project_templates/mcu/stm32_ws/src/libraries/STM32F4xx_StdPeriph_Driver/src/stm32f4xx_sdio.c **** 
 469:/home/rdu/Workspace/project_templates/mcu/stm32_ws/src/libraries/STM32F4xx_StdPeriph_Driver/src/stm32f4xx_sdio.c ****   /* Check the parameters */
 470:/home/rdu/Workspace/project_templates/mcu/stm32_ws/src/libraries/STM32F4xx_StdPeriph_Driver/src/stm32f4xx_sdio.c ****   assert_param(IS_SDIO_RESP(SDIO_RESP));
 471:/home/rdu/Workspace/project_templates/mcu/stm32_ws/src/libraries/STM32F4xx_StdPeriph_Driver/src/stm32f4xx_sdio.c **** 
 472:/home/rdu/Workspace/project_templates/mcu/stm32_ws/src/libraries/STM32F4xx_StdPeriph_Driver/src/stm32f4xx_sdio.c ****   tmp = SDIO_RESP_ADDR + SDIO_RESP;
 455              		.loc 1 472 0
 456 0008 019A     		ldr	r2, [sp, #4]
 457 000a 044B     		ldr	r3, .L26
 458 000c 1344     		add	r3, r3, r2
 459 000e 0393     		str	r3, [sp, #12]
 473:/home/rdu/Workspace/project_templates/mcu/stm32_ws/src/libraries/STM32F4xx_StdPeriph_Driver/src/stm32f4xx_sdio.c ****   
 474:/home/rdu/Workspace/project_templates/mcu/stm32_ws/src/libraries/STM32F4xx_StdPeriph_Driver/src/stm32f4xx_sdio.c ****   return (*(__IO uint32_t *) tmp); 
 460              		.loc 1 474 0
 461 0010 039B     		ldr	r3, [sp, #12]
 462 0012 1B68     		ldr	r3, [r3]
 475:/home/rdu/Workspace/project_templates/mcu/stm32_ws/src/libraries/STM32F4xx_StdPeriph_Driver/src/stm32f4xx_sdio.c **** }
 463              		.loc 1 475 0
 464 0014 1846     		mov	r0, r3
 465 0016 04B0     		add	sp, sp, #16
 466              	.LCFI14:
 467              		.cfi_def_cfa_offset 0
 468              		@ sp needed
 469 0018 7047     		bx	lr
 470              	.L27:
 471 001a 00BF     		.align	2
 472              	.L26:
 473 001c 142C0140 		.word	1073818644
 474              		.cfi_endproc
 475              	.LFE132:
 477              		.section	.text.SDIO_DataConfig,"ax",%progbits
 478              		.align	1
 479              		.global	SDIO_DataConfig
 480              		.syntax unified
 481              		.thumb
 482              		.thumb_func
 483              		.fpu fpv4-sp-d16
 485              	SDIO_DataConfig:
 486              	.LFB133:
 476:/home/rdu/Workspace/project_templates/mcu/stm32_ws/src/libraries/STM32F4xx_StdPeriph_Driver/src/stm32f4xx_sdio.c **** 
 477:/home/rdu/Workspace/project_templates/mcu/stm32_ws/src/libraries/STM32F4xx_StdPeriph_Driver/src/stm32f4xx_sdio.c **** /**
 478:/home/rdu/Workspace/project_templates/mcu/stm32_ws/src/libraries/STM32F4xx_StdPeriph_Driver/src/stm32f4xx_sdio.c ****   * @}
 479:/home/rdu/Workspace/project_templates/mcu/stm32_ws/src/libraries/STM32F4xx_StdPeriph_Driver/src/stm32f4xx_sdio.c ****   */
 480:/home/rdu/Workspace/project_templates/mcu/stm32_ws/src/libraries/STM32F4xx_StdPeriph_Driver/src/stm32f4xx_sdio.c **** 
 481:/home/rdu/Workspace/project_templates/mcu/stm32_ws/src/libraries/STM32F4xx_StdPeriph_Driver/src/stm32f4xx_sdio.c **** /** @defgroup SDIO_Group3 Data path state machine (DPSM) management functions
 482:/home/rdu/Workspace/project_templates/mcu/stm32_ws/src/libraries/STM32F4xx_StdPeriph_Driver/src/stm32f4xx_sdio.c ****  *  @brief   Data path state machine (DPSM) management functions
 483:/home/rdu/Workspace/project_templates/mcu/stm32_ws/src/libraries/STM32F4xx_StdPeriph_Driver/src/stm32f4xx_sdio.c ****  *
 484:/home/rdu/Workspace/project_templates/mcu/stm32_ws/src/libraries/STM32F4xx_StdPeriph_Driver/src/stm32f4xx_sdio.c **** @verbatim   
 485:/home/rdu/Workspace/project_templates/mcu/stm32_ws/src/libraries/STM32F4xx_StdPeriph_Driver/src/stm32f4xx_sdio.c ****  ===============================================================================
 486:/home/rdu/Workspace/project_templates/mcu/stm32_ws/src/libraries/STM32F4xx_StdPeriph_Driver/src/stm32f4xx_sdio.c ****          ##### Data path state machine (DPSM) management functions #####
 487:/home/rdu/Workspace/project_templates/mcu/stm32_ws/src/libraries/STM32F4xx_StdPeriph_Driver/src/stm32f4xx_sdio.c ****  ===============================================================================  
 488:/home/rdu/Workspace/project_templates/mcu/stm32_ws/src/libraries/STM32F4xx_StdPeriph_Driver/src/stm32f4xx_sdio.c **** 
 489:/home/rdu/Workspace/project_templates/mcu/stm32_ws/src/libraries/STM32F4xx_StdPeriph_Driver/src/stm32f4xx_sdio.c ****   This section provide functions allowing to program and read the Data path 
 490:/home/rdu/Workspace/project_templates/mcu/stm32_ws/src/libraries/STM32F4xx_StdPeriph_Driver/src/stm32f4xx_sdio.c ****   state machine (DPSM).
 491:/home/rdu/Workspace/project_templates/mcu/stm32_ws/src/libraries/STM32F4xx_StdPeriph_Driver/src/stm32f4xx_sdio.c **** 
 492:/home/rdu/Workspace/project_templates/mcu/stm32_ws/src/libraries/STM32F4xx_StdPeriph_Driver/src/stm32f4xx_sdio.c **** @endverbatim
 493:/home/rdu/Workspace/project_templates/mcu/stm32_ws/src/libraries/STM32F4xx_StdPeriph_Driver/src/stm32f4xx_sdio.c ****   * @{
 494:/home/rdu/Workspace/project_templates/mcu/stm32_ws/src/libraries/STM32F4xx_StdPeriph_Driver/src/stm32f4xx_sdio.c ****   */
 495:/home/rdu/Workspace/project_templates/mcu/stm32_ws/src/libraries/STM32F4xx_StdPeriph_Driver/src/stm32f4xx_sdio.c **** 
 496:/home/rdu/Workspace/project_templates/mcu/stm32_ws/src/libraries/STM32F4xx_StdPeriph_Driver/src/stm32f4xx_sdio.c **** /**
 497:/home/rdu/Workspace/project_templates/mcu/stm32_ws/src/libraries/STM32F4xx_StdPeriph_Driver/src/stm32f4xx_sdio.c ****   * @brief  Initializes the SDIO data path according to the specified 
 498:/home/rdu/Workspace/project_templates/mcu/stm32_ws/src/libraries/STM32F4xx_StdPeriph_Driver/src/stm32f4xx_sdio.c ****   *         parameters in the SDIO_DataInitStruct.
 499:/home/rdu/Workspace/project_templates/mcu/stm32_ws/src/libraries/STM32F4xx_StdPeriph_Driver/src/stm32f4xx_sdio.c ****   * @param  SDIO_DataInitStruct : pointer to a SDIO_DataInitTypeDef structure 
 500:/home/rdu/Workspace/project_templates/mcu/stm32_ws/src/libraries/STM32F4xx_StdPeriph_Driver/src/stm32f4xx_sdio.c ****   *         that contains the configuration information for the SDIO command.
 501:/home/rdu/Workspace/project_templates/mcu/stm32_ws/src/libraries/STM32F4xx_StdPeriph_Driver/src/stm32f4xx_sdio.c ****   * @retval None
 502:/home/rdu/Workspace/project_templates/mcu/stm32_ws/src/libraries/STM32F4xx_StdPeriph_Driver/src/stm32f4xx_sdio.c ****   */
 503:/home/rdu/Workspace/project_templates/mcu/stm32_ws/src/libraries/STM32F4xx_StdPeriph_Driver/src/stm32f4xx_sdio.c **** void SDIO_DataConfig(SDIO_DataInitTypeDef* SDIO_DataInitStruct)
 504:/home/rdu/Workspace/project_templates/mcu/stm32_ws/src/libraries/STM32F4xx_StdPeriph_Driver/src/stm32f4xx_sdio.c **** {
 487              		.loc 1 504 0
 488              		.cfi_startproc
 489              		@ args = 0, pretend = 0, frame = 16
 490              		@ frame_needed = 0, uses_anonymous_args = 0
 491              		@ link register save eliminated.
 492 0000 84B0     		sub	sp, sp, #16
 493              	.LCFI15:
 494              		.cfi_def_cfa_offset 16
 495 0002 0190     		str	r0, [sp, #4]
 505:/home/rdu/Workspace/project_templates/mcu/stm32_ws/src/libraries/STM32F4xx_StdPeriph_Driver/src/stm32f4xx_sdio.c ****   uint32_t tmpreg = 0;
 496              		.loc 1 505 0
 497 0004 0023     		movs	r3, #0
 498 0006 0393     		str	r3, [sp, #12]
 506:/home/rdu/Workspace/project_templates/mcu/stm32_ws/src/libraries/STM32F4xx_StdPeriph_Driver/src/stm32f4xx_sdio.c ****   
 507:/home/rdu/Workspace/project_templates/mcu/stm32_ws/src/libraries/STM32F4xx_StdPeriph_Driver/src/stm32f4xx_sdio.c ****   /* Check the parameters */
 508:/home/rdu/Workspace/project_templates/mcu/stm32_ws/src/libraries/STM32F4xx_StdPeriph_Driver/src/stm32f4xx_sdio.c ****   assert_param(IS_SDIO_DATA_LENGTH(SDIO_DataInitStruct->SDIO_DataLength));
 509:/home/rdu/Workspace/project_templates/mcu/stm32_ws/src/libraries/STM32F4xx_StdPeriph_Driver/src/stm32f4xx_sdio.c ****   assert_param(IS_SDIO_BLOCK_SIZE(SDIO_DataInitStruct->SDIO_DataBlockSize));
 510:/home/rdu/Workspace/project_templates/mcu/stm32_ws/src/libraries/STM32F4xx_StdPeriph_Driver/src/stm32f4xx_sdio.c ****   assert_param(IS_SDIO_TRANSFER_DIR(SDIO_DataInitStruct->SDIO_TransferDir));
 511:/home/rdu/Workspace/project_templates/mcu/stm32_ws/src/libraries/STM32F4xx_StdPeriph_Driver/src/stm32f4xx_sdio.c ****   assert_param(IS_SDIO_TRANSFER_MODE(SDIO_DataInitStruct->SDIO_TransferMode));
 512:/home/rdu/Workspace/project_templates/mcu/stm32_ws/src/libraries/STM32F4xx_StdPeriph_Driver/src/stm32f4xx_sdio.c ****   assert_param(IS_SDIO_DPSM(SDIO_DataInitStruct->SDIO_DPSM));
 513:/home/rdu/Workspace/project_templates/mcu/stm32_ws/src/libraries/STM32F4xx_StdPeriph_Driver/src/stm32f4xx_sdio.c **** 
 514:/home/rdu/Workspace/project_templates/mcu/stm32_ws/src/libraries/STM32F4xx_StdPeriph_Driver/src/stm32f4xx_sdio.c **** /*---------------------------- SDIO DTIMER Configuration ---------------------*/
 515:/home/rdu/Workspace/project_templates/mcu/stm32_ws/src/libraries/STM32F4xx_StdPeriph_Driver/src/stm32f4xx_sdio.c ****   /* Set the SDIO Data TimeOut value */
 516:/home/rdu/Workspace/project_templates/mcu/stm32_ws/src/libraries/STM32F4xx_StdPeriph_Driver/src/stm32f4xx_sdio.c ****   SDIO->DTIMER = SDIO_DataInitStruct->SDIO_DataTimeOut;
 499              		.loc 1 516 0
 500 0008 114A     		ldr	r2, .L29
 501 000a 019B     		ldr	r3, [sp, #4]
 502 000c 1B68     		ldr	r3, [r3]
 503 000e 5362     		str	r3, [r2, #36]
 517:/home/rdu/Workspace/project_templates/mcu/stm32_ws/src/libraries/STM32F4xx_StdPeriph_Driver/src/stm32f4xx_sdio.c **** 
 518:/home/rdu/Workspace/project_templates/mcu/stm32_ws/src/libraries/STM32F4xx_StdPeriph_Driver/src/stm32f4xx_sdio.c **** /*---------------------------- SDIO DLEN Configuration -----------------------*/
 519:/home/rdu/Workspace/project_templates/mcu/stm32_ws/src/libraries/STM32F4xx_StdPeriph_Driver/src/stm32f4xx_sdio.c ****   /* Set the SDIO DataLength value */
 520:/home/rdu/Workspace/project_templates/mcu/stm32_ws/src/libraries/STM32F4xx_StdPeriph_Driver/src/stm32f4xx_sdio.c ****   SDIO->DLEN = SDIO_DataInitStruct->SDIO_DataLength;
 504              		.loc 1 520 0
 505 0010 0F4A     		ldr	r2, .L29
 506 0012 019B     		ldr	r3, [sp, #4]
 507 0014 5B68     		ldr	r3, [r3, #4]
 508 0016 9362     		str	r3, [r2, #40]
 521:/home/rdu/Workspace/project_templates/mcu/stm32_ws/src/libraries/STM32F4xx_StdPeriph_Driver/src/stm32f4xx_sdio.c **** 
 522:/home/rdu/Workspace/project_templates/mcu/stm32_ws/src/libraries/STM32F4xx_StdPeriph_Driver/src/stm32f4xx_sdio.c **** /*---------------------------- SDIO DCTRL Configuration ----------------------*/  
 523:/home/rdu/Workspace/project_templates/mcu/stm32_ws/src/libraries/STM32F4xx_StdPeriph_Driver/src/stm32f4xx_sdio.c ****   /* Get the SDIO DCTRL value */
 524:/home/rdu/Workspace/project_templates/mcu/stm32_ws/src/libraries/STM32F4xx_StdPeriph_Driver/src/stm32f4xx_sdio.c ****   tmpreg = SDIO->DCTRL;
 509              		.loc 1 524 0
 510 0018 0D4B     		ldr	r3, .L29
 511 001a DB6A     		ldr	r3, [r3, #44]
 512 001c 0393     		str	r3, [sp, #12]
 525:/home/rdu/Workspace/project_templates/mcu/stm32_ws/src/libraries/STM32F4xx_StdPeriph_Driver/src/stm32f4xx_sdio.c ****   /* Clear DEN, DTMODE, DTDIR and DBCKSIZE bits */
 526:/home/rdu/Workspace/project_templates/mcu/stm32_ws/src/libraries/STM32F4xx_StdPeriph_Driver/src/stm32f4xx_sdio.c ****   tmpreg &= DCTRL_CLEAR_MASK;
 513              		.loc 1 526 0
 514 001e 039B     		ldr	r3, [sp, #12]
 515 0020 23F0F703 		bic	r3, r3, #247
 516 0024 0393     		str	r3, [sp, #12]
 527:/home/rdu/Workspace/project_templates/mcu/stm32_ws/src/libraries/STM32F4xx_StdPeriph_Driver/src/stm32f4xx_sdio.c ****   /* Set DEN bit according to SDIO_DPSM value */
 528:/home/rdu/Workspace/project_templates/mcu/stm32_ws/src/libraries/STM32F4xx_StdPeriph_Driver/src/stm32f4xx_sdio.c ****   /* Set DTMODE bit according to SDIO_TransferMode value */
 529:/home/rdu/Workspace/project_templates/mcu/stm32_ws/src/libraries/STM32F4xx_StdPeriph_Driver/src/stm32f4xx_sdio.c ****   /* Set DTDIR bit according to SDIO_TransferDir value */
 530:/home/rdu/Workspace/project_templates/mcu/stm32_ws/src/libraries/STM32F4xx_StdPeriph_Driver/src/stm32f4xx_sdio.c ****   /* Set DBCKSIZE bits according to SDIO_DataBlockSize value */
 531:/home/rdu/Workspace/project_templates/mcu/stm32_ws/src/libraries/STM32F4xx_StdPeriph_Driver/src/stm32f4xx_sdio.c ****   tmpreg |= (uint32_t)SDIO_DataInitStruct->SDIO_DataBlockSize | SDIO_DataInitStruct->SDIO_TransferD
 517              		.loc 1 531 0
 518 0026 019B     		ldr	r3, [sp, #4]
 519 0028 9A68     		ldr	r2, [r3, #8]
 520 002a 019B     		ldr	r3, [sp, #4]
 521 002c DB68     		ldr	r3, [r3, #12]
 522 002e 1A43     		orrs	r2, r2, r3
 532:/home/rdu/Workspace/project_templates/mcu/stm32_ws/src/libraries/STM32F4xx_StdPeriph_Driver/src/stm32f4xx_sdio.c ****            | SDIO_DataInitStruct->SDIO_TransferMode | SDIO_DataInitStruct->SDIO_DPSM;
 523              		.loc 1 532 0
 524 0030 019B     		ldr	r3, [sp, #4]
 525 0032 1B69     		ldr	r3, [r3, #16]
 526 0034 1A43     		orrs	r2, r2, r3
 527 0036 019B     		ldr	r3, [sp, #4]
 528 0038 5B69     		ldr	r3, [r3, #20]
 529 003a 1343     		orrs	r3, r3, r2
 531:/home/rdu/Workspace/project_templates/mcu/stm32_ws/src/libraries/STM32F4xx_StdPeriph_Driver/src/stm32f4xx_sdio.c ****            | SDIO_DataInitStruct->SDIO_TransferMode | SDIO_DataInitStruct->SDIO_DPSM;
 530              		.loc 1 531 0
 531 003c 039A     		ldr	r2, [sp, #12]
 532 003e 1343     		orrs	r3, r3, r2
 533 0040 0393     		str	r3, [sp, #12]
 533:/home/rdu/Workspace/project_templates/mcu/stm32_ws/src/libraries/STM32F4xx_StdPeriph_Driver/src/stm32f4xx_sdio.c **** 
 534:/home/rdu/Workspace/project_templates/mcu/stm32_ws/src/libraries/STM32F4xx_StdPeriph_Driver/src/stm32f4xx_sdio.c ****   /* Write to SDIO DCTRL */
 535:/home/rdu/Workspace/project_templates/mcu/stm32_ws/src/libraries/STM32F4xx_StdPeriph_Driver/src/stm32f4xx_sdio.c ****   SDIO->DCTRL = tmpreg;
 534              		.loc 1 535 0
 535 0042 034A     		ldr	r2, .L29
 536 0044 039B     		ldr	r3, [sp, #12]
 537 0046 D362     		str	r3, [r2, #44]
 536:/home/rdu/Workspace/project_templates/mcu/stm32_ws/src/libraries/STM32F4xx_StdPeriph_Driver/src/stm32f4xx_sdio.c **** }
 538              		.loc 1 536 0
 539 0048 00BF     		nop
 540 004a 04B0     		add	sp, sp, #16
 541              	.LCFI16:
 542              		.cfi_def_cfa_offset 0
 543              		@ sp needed
 544 004c 7047     		bx	lr
 545              	.L30:
 546 004e 00BF     		.align	2
 547              	.L29:
 548 0050 002C0140 		.word	1073818624
 549              		.cfi_endproc
 550              	.LFE133:
 552              		.section	.text.SDIO_DataStructInit,"ax",%progbits
 553              		.align	1
 554              		.global	SDIO_DataStructInit
 555              		.syntax unified
 556              		.thumb
 557              		.thumb_func
 558              		.fpu fpv4-sp-d16
 560              	SDIO_DataStructInit:
 561              	.LFB134:
 537:/home/rdu/Workspace/project_templates/mcu/stm32_ws/src/libraries/STM32F4xx_StdPeriph_Driver/src/stm32f4xx_sdio.c **** 
 538:/home/rdu/Workspace/project_templates/mcu/stm32_ws/src/libraries/STM32F4xx_StdPeriph_Driver/src/stm32f4xx_sdio.c **** /**
 539:/home/rdu/Workspace/project_templates/mcu/stm32_ws/src/libraries/STM32F4xx_StdPeriph_Driver/src/stm32f4xx_sdio.c ****   * @brief  Fills each SDIO_DataInitStruct member with its default value.
 540:/home/rdu/Workspace/project_templates/mcu/stm32_ws/src/libraries/STM32F4xx_StdPeriph_Driver/src/stm32f4xx_sdio.c ****   * @param  SDIO_DataInitStruct: pointer to an SDIO_DataInitTypeDef structure 
 541:/home/rdu/Workspace/project_templates/mcu/stm32_ws/src/libraries/STM32F4xx_StdPeriph_Driver/src/stm32f4xx_sdio.c ****   *         which will be initialized.
 542:/home/rdu/Workspace/project_templates/mcu/stm32_ws/src/libraries/STM32F4xx_StdPeriph_Driver/src/stm32f4xx_sdio.c ****   * @retval None
 543:/home/rdu/Workspace/project_templates/mcu/stm32_ws/src/libraries/STM32F4xx_StdPeriph_Driver/src/stm32f4xx_sdio.c ****   */
 544:/home/rdu/Workspace/project_templates/mcu/stm32_ws/src/libraries/STM32F4xx_StdPeriph_Driver/src/stm32f4xx_sdio.c **** void SDIO_DataStructInit(SDIO_DataInitTypeDef* SDIO_DataInitStruct)
 545:/home/rdu/Workspace/project_templates/mcu/stm32_ws/src/libraries/STM32F4xx_StdPeriph_Driver/src/stm32f4xx_sdio.c **** {
 562              		.loc 1 545 0
 563              		.cfi_startproc
 564              		@ args = 0, pretend = 0, frame = 8
 565              		@ frame_needed = 0, uses_anonymous_args = 0
 566              		@ link register save eliminated.
 567 0000 82B0     		sub	sp, sp, #8
 568              	.LCFI17:
 569              		.cfi_def_cfa_offset 8
 570 0002 0190     		str	r0, [sp, #4]
 546:/home/rdu/Workspace/project_templates/mcu/stm32_ws/src/libraries/STM32F4xx_StdPeriph_Driver/src/stm32f4xx_sdio.c ****   /* SDIO_DataInitStruct members default value */
 547:/home/rdu/Workspace/project_templates/mcu/stm32_ws/src/libraries/STM32F4xx_StdPeriph_Driver/src/stm32f4xx_sdio.c ****   SDIO_DataInitStruct->SDIO_DataTimeOut = 0xFFFFFFFF;
 571              		.loc 1 547 0
 572 0004 019B     		ldr	r3, [sp, #4]
 573 0006 4FF0FF32 		mov	r2, #-1
 574 000a 1A60     		str	r2, [r3]
 548:/home/rdu/Workspace/project_templates/mcu/stm32_ws/src/libraries/STM32F4xx_StdPeriph_Driver/src/stm32f4xx_sdio.c ****   SDIO_DataInitStruct->SDIO_DataLength = 0x00;
 575              		.loc 1 548 0
 576 000c 019B     		ldr	r3, [sp, #4]
 577 000e 0022     		movs	r2, #0
 578 0010 5A60     		str	r2, [r3, #4]
 549:/home/rdu/Workspace/project_templates/mcu/stm32_ws/src/libraries/STM32F4xx_StdPeriph_Driver/src/stm32f4xx_sdio.c ****   SDIO_DataInitStruct->SDIO_DataBlockSize = SDIO_DataBlockSize_1b;
 579              		.loc 1 549 0
 580 0012 019B     		ldr	r3, [sp, #4]
 581 0014 0022     		movs	r2, #0
 582 0016 9A60     		str	r2, [r3, #8]
 550:/home/rdu/Workspace/project_templates/mcu/stm32_ws/src/libraries/STM32F4xx_StdPeriph_Driver/src/stm32f4xx_sdio.c ****   SDIO_DataInitStruct->SDIO_TransferDir = SDIO_TransferDir_ToCard;
 583              		.loc 1 550 0
 584 0018 019B     		ldr	r3, [sp, #4]
 585 001a 0022     		movs	r2, #0
 586 001c DA60     		str	r2, [r3, #12]
 551:/home/rdu/Workspace/project_templates/mcu/stm32_ws/src/libraries/STM32F4xx_StdPeriph_Driver/src/stm32f4xx_sdio.c ****   SDIO_DataInitStruct->SDIO_TransferMode = SDIO_TransferMode_Block;  
 587              		.loc 1 551 0
 588 001e 019B     		ldr	r3, [sp, #4]
 589 0020 0022     		movs	r2, #0
 590 0022 1A61     		str	r2, [r3, #16]
 552:/home/rdu/Workspace/project_templates/mcu/stm32_ws/src/libraries/STM32F4xx_StdPeriph_Driver/src/stm32f4xx_sdio.c ****   SDIO_DataInitStruct->SDIO_DPSM = SDIO_DPSM_Disable;
 591              		.loc 1 552 0
 592 0024 019B     		ldr	r3, [sp, #4]
 593 0026 0022     		movs	r2, #0
 594 0028 5A61     		str	r2, [r3, #20]
 553:/home/rdu/Workspace/project_templates/mcu/stm32_ws/src/libraries/STM32F4xx_StdPeriph_Driver/src/stm32f4xx_sdio.c **** }
 595              		.loc 1 553 0
 596 002a 00BF     		nop
 597 002c 02B0     		add	sp, sp, #8
 598              	.LCFI18:
 599              		.cfi_def_cfa_offset 0
 600              		@ sp needed
 601 002e 7047     		bx	lr
 602              		.cfi_endproc
 603              	.LFE134:
 605              		.section	.text.SDIO_GetDataCounter,"ax",%progbits
 606              		.align	1
 607              		.global	SDIO_GetDataCounter
 608              		.syntax unified
 609              		.thumb
 610              		.thumb_func
 611              		.fpu fpv4-sp-d16
 613              	SDIO_GetDataCounter:
 614              	.LFB135:
 554:/home/rdu/Workspace/project_templates/mcu/stm32_ws/src/libraries/STM32F4xx_StdPeriph_Driver/src/stm32f4xx_sdio.c **** 
 555:/home/rdu/Workspace/project_templates/mcu/stm32_ws/src/libraries/STM32F4xx_StdPeriph_Driver/src/stm32f4xx_sdio.c **** /**
 556:/home/rdu/Workspace/project_templates/mcu/stm32_ws/src/libraries/STM32F4xx_StdPeriph_Driver/src/stm32f4xx_sdio.c ****   * @brief  Returns number of remaining data bytes to be transferred.
 557:/home/rdu/Workspace/project_templates/mcu/stm32_ws/src/libraries/STM32F4xx_StdPeriph_Driver/src/stm32f4xx_sdio.c ****   * @param  None
 558:/home/rdu/Workspace/project_templates/mcu/stm32_ws/src/libraries/STM32F4xx_StdPeriph_Driver/src/stm32f4xx_sdio.c ****   * @retval Number of remaining data bytes to be transferred
 559:/home/rdu/Workspace/project_templates/mcu/stm32_ws/src/libraries/STM32F4xx_StdPeriph_Driver/src/stm32f4xx_sdio.c ****   */
 560:/home/rdu/Workspace/project_templates/mcu/stm32_ws/src/libraries/STM32F4xx_StdPeriph_Driver/src/stm32f4xx_sdio.c **** uint32_t SDIO_GetDataCounter(void)
 561:/home/rdu/Workspace/project_templates/mcu/stm32_ws/src/libraries/STM32F4xx_StdPeriph_Driver/src/stm32f4xx_sdio.c **** { 
 615              		.loc 1 561 0
 616              		.cfi_startproc
 617              		@ args = 0, pretend = 0, frame = 0
 618              		@ frame_needed = 0, uses_anonymous_args = 0
 619              		@ link register save eliminated.
 562:/home/rdu/Workspace/project_templates/mcu/stm32_ws/src/libraries/STM32F4xx_StdPeriph_Driver/src/stm32f4xx_sdio.c ****   return SDIO->DCOUNT;
 620              		.loc 1 562 0
 621 0000 014B     		ldr	r3, .L34
 622 0002 1B6B     		ldr	r3, [r3, #48]
 563:/home/rdu/Workspace/project_templates/mcu/stm32_ws/src/libraries/STM32F4xx_StdPeriph_Driver/src/stm32f4xx_sdio.c **** }
 623              		.loc 1 563 0
 624 0004 1846     		mov	r0, r3
 625 0006 7047     		bx	lr
 626              	.L35:
 627              		.align	2
 628              	.L34:
 629 0008 002C0140 		.word	1073818624
 630              		.cfi_endproc
 631              	.LFE135:
 633              		.section	.text.SDIO_ReadData,"ax",%progbits
 634              		.align	1
 635              		.global	SDIO_ReadData
 636              		.syntax unified
 637              		.thumb
 638              		.thumb_func
 639              		.fpu fpv4-sp-d16
 641              	SDIO_ReadData:
 642              	.LFB136:
 564:/home/rdu/Workspace/project_templates/mcu/stm32_ws/src/libraries/STM32F4xx_StdPeriph_Driver/src/stm32f4xx_sdio.c **** 
 565:/home/rdu/Workspace/project_templates/mcu/stm32_ws/src/libraries/STM32F4xx_StdPeriph_Driver/src/stm32f4xx_sdio.c **** /**
 566:/home/rdu/Workspace/project_templates/mcu/stm32_ws/src/libraries/STM32F4xx_StdPeriph_Driver/src/stm32f4xx_sdio.c ****   * @brief  Read one data word from Rx FIFO.
 567:/home/rdu/Workspace/project_templates/mcu/stm32_ws/src/libraries/STM32F4xx_StdPeriph_Driver/src/stm32f4xx_sdio.c ****   * @param  None
 568:/home/rdu/Workspace/project_templates/mcu/stm32_ws/src/libraries/STM32F4xx_StdPeriph_Driver/src/stm32f4xx_sdio.c ****   * @retval Data received
 569:/home/rdu/Workspace/project_templates/mcu/stm32_ws/src/libraries/STM32F4xx_StdPeriph_Driver/src/stm32f4xx_sdio.c ****   */
 570:/home/rdu/Workspace/project_templates/mcu/stm32_ws/src/libraries/STM32F4xx_StdPeriph_Driver/src/stm32f4xx_sdio.c **** uint32_t SDIO_ReadData(void)
 571:/home/rdu/Workspace/project_templates/mcu/stm32_ws/src/libraries/STM32F4xx_StdPeriph_Driver/src/stm32f4xx_sdio.c **** { 
 643              		.loc 1 571 0
 644              		.cfi_startproc
 645              		@ args = 0, pretend = 0, frame = 0
 646              		@ frame_needed = 0, uses_anonymous_args = 0
 647              		@ link register save eliminated.
 572:/home/rdu/Workspace/project_templates/mcu/stm32_ws/src/libraries/STM32F4xx_StdPeriph_Driver/src/stm32f4xx_sdio.c ****   return SDIO->FIFO;
 648              		.loc 1 572 0
 649 0000 024B     		ldr	r3, .L38
 650 0002 D3F88030 		ldr	r3, [r3, #128]
 573:/home/rdu/Workspace/project_templates/mcu/stm32_ws/src/libraries/STM32F4xx_StdPeriph_Driver/src/stm32f4xx_sdio.c **** }
 651              		.loc 1 573 0
 652 0006 1846     		mov	r0, r3
 653 0008 7047     		bx	lr
 654              	.L39:
 655 000a 00BF     		.align	2
 656              	.L38:
 657 000c 002C0140 		.word	1073818624
 658              		.cfi_endproc
 659              	.LFE136:
 661              		.section	.text.SDIO_WriteData,"ax",%progbits
 662              		.align	1
 663              		.global	SDIO_WriteData
 664              		.syntax unified
 665              		.thumb
 666              		.thumb_func
 667              		.fpu fpv4-sp-d16
 669              	SDIO_WriteData:
 670              	.LFB137:
 574:/home/rdu/Workspace/project_templates/mcu/stm32_ws/src/libraries/STM32F4xx_StdPeriph_Driver/src/stm32f4xx_sdio.c **** 
 575:/home/rdu/Workspace/project_templates/mcu/stm32_ws/src/libraries/STM32F4xx_StdPeriph_Driver/src/stm32f4xx_sdio.c **** /**
 576:/home/rdu/Workspace/project_templates/mcu/stm32_ws/src/libraries/STM32F4xx_StdPeriph_Driver/src/stm32f4xx_sdio.c ****   * @brief  Write one data word to Tx FIFO.
 577:/home/rdu/Workspace/project_templates/mcu/stm32_ws/src/libraries/STM32F4xx_StdPeriph_Driver/src/stm32f4xx_sdio.c ****   * @param  Data: 32-bit data word to write.
 578:/home/rdu/Workspace/project_templates/mcu/stm32_ws/src/libraries/STM32F4xx_StdPeriph_Driver/src/stm32f4xx_sdio.c ****   * @retval None
 579:/home/rdu/Workspace/project_templates/mcu/stm32_ws/src/libraries/STM32F4xx_StdPeriph_Driver/src/stm32f4xx_sdio.c ****   */
 580:/home/rdu/Workspace/project_templates/mcu/stm32_ws/src/libraries/STM32F4xx_StdPeriph_Driver/src/stm32f4xx_sdio.c **** void SDIO_WriteData(uint32_t Data)
 581:/home/rdu/Workspace/project_templates/mcu/stm32_ws/src/libraries/STM32F4xx_StdPeriph_Driver/src/stm32f4xx_sdio.c **** { 
 671              		.loc 1 581 0
 672              		.cfi_startproc
 673              		@ args = 0, pretend = 0, frame = 8
 674              		@ frame_needed = 0, uses_anonymous_args = 0
 675              		@ link register save eliminated.
 676 0000 82B0     		sub	sp, sp, #8
 677              	.LCFI19:
 678              		.cfi_def_cfa_offset 8
 679 0002 0190     		str	r0, [sp, #4]
 582:/home/rdu/Workspace/project_templates/mcu/stm32_ws/src/libraries/STM32F4xx_StdPeriph_Driver/src/stm32f4xx_sdio.c ****   SDIO->FIFO = Data;
 680              		.loc 1 582 0
 681 0004 034A     		ldr	r2, .L41
 682 0006 019B     		ldr	r3, [sp, #4]
 683 0008 C2F88030 		str	r3, [r2, #128]
 583:/home/rdu/Workspace/project_templates/mcu/stm32_ws/src/libraries/STM32F4xx_StdPeriph_Driver/src/stm32f4xx_sdio.c **** }
 684              		.loc 1 583 0
 685 000c 00BF     		nop
 686 000e 02B0     		add	sp, sp, #8
 687              	.LCFI20:
 688              		.cfi_def_cfa_offset 0
 689              		@ sp needed
 690 0010 7047     		bx	lr
 691              	.L42:
 692 0012 00BF     		.align	2
 693              	.L41:
 694 0014 002C0140 		.word	1073818624
 695              		.cfi_endproc
 696              	.LFE137:
 698              		.section	.text.SDIO_GetFIFOCount,"ax",%progbits
 699              		.align	1
 700              		.global	SDIO_GetFIFOCount
 701              		.syntax unified
 702              		.thumb
 703              		.thumb_func
 704              		.fpu fpv4-sp-d16
 706              	SDIO_GetFIFOCount:
 707              	.LFB138:
 584:/home/rdu/Workspace/project_templates/mcu/stm32_ws/src/libraries/STM32F4xx_StdPeriph_Driver/src/stm32f4xx_sdio.c **** 
 585:/home/rdu/Workspace/project_templates/mcu/stm32_ws/src/libraries/STM32F4xx_StdPeriph_Driver/src/stm32f4xx_sdio.c **** /**
 586:/home/rdu/Workspace/project_templates/mcu/stm32_ws/src/libraries/STM32F4xx_StdPeriph_Driver/src/stm32f4xx_sdio.c ****   * @brief  Returns the number of words left to be written to or read from FIFO.	
 587:/home/rdu/Workspace/project_templates/mcu/stm32_ws/src/libraries/STM32F4xx_StdPeriph_Driver/src/stm32f4xx_sdio.c ****   * @param  None
 588:/home/rdu/Workspace/project_templates/mcu/stm32_ws/src/libraries/STM32F4xx_StdPeriph_Driver/src/stm32f4xx_sdio.c ****   * @retval Remaining number of words.
 589:/home/rdu/Workspace/project_templates/mcu/stm32_ws/src/libraries/STM32F4xx_StdPeriph_Driver/src/stm32f4xx_sdio.c ****   */
 590:/home/rdu/Workspace/project_templates/mcu/stm32_ws/src/libraries/STM32F4xx_StdPeriph_Driver/src/stm32f4xx_sdio.c **** uint32_t SDIO_GetFIFOCount(void)
 591:/home/rdu/Workspace/project_templates/mcu/stm32_ws/src/libraries/STM32F4xx_StdPeriph_Driver/src/stm32f4xx_sdio.c **** { 
 708              		.loc 1 591 0
 709              		.cfi_startproc
 710              		@ args = 0, pretend = 0, frame = 0
 711              		@ frame_needed = 0, uses_anonymous_args = 0
 712              		@ link register save eliminated.
 592:/home/rdu/Workspace/project_templates/mcu/stm32_ws/src/libraries/STM32F4xx_StdPeriph_Driver/src/stm32f4xx_sdio.c ****   return SDIO->FIFOCNT;
 713              		.loc 1 592 0
 714 0000 014B     		ldr	r3, .L45
 715 0002 9B6C     		ldr	r3, [r3, #72]
 593:/home/rdu/Workspace/project_templates/mcu/stm32_ws/src/libraries/STM32F4xx_StdPeriph_Driver/src/stm32f4xx_sdio.c **** }
 716              		.loc 1 593 0
 717 0004 1846     		mov	r0, r3
 718 0006 7047     		bx	lr
 719              	.L46:
 720              		.align	2
 721              	.L45:
 722 0008 002C0140 		.word	1073818624
 723              		.cfi_endproc
 724              	.LFE138:
 726              		.section	.text.SDIO_StartSDIOReadWait,"ax",%progbits
 727              		.align	1
 728              		.global	SDIO_StartSDIOReadWait
 729              		.syntax unified
 730              		.thumb
 731              		.thumb_func
 732              		.fpu fpv4-sp-d16
 734              	SDIO_StartSDIOReadWait:
 735              	.LFB139:
 594:/home/rdu/Workspace/project_templates/mcu/stm32_ws/src/libraries/STM32F4xx_StdPeriph_Driver/src/stm32f4xx_sdio.c **** 
 595:/home/rdu/Workspace/project_templates/mcu/stm32_ws/src/libraries/STM32F4xx_StdPeriph_Driver/src/stm32f4xx_sdio.c **** /**
 596:/home/rdu/Workspace/project_templates/mcu/stm32_ws/src/libraries/STM32F4xx_StdPeriph_Driver/src/stm32f4xx_sdio.c ****   * @}
 597:/home/rdu/Workspace/project_templates/mcu/stm32_ws/src/libraries/STM32F4xx_StdPeriph_Driver/src/stm32f4xx_sdio.c ****   */
 598:/home/rdu/Workspace/project_templates/mcu/stm32_ws/src/libraries/STM32F4xx_StdPeriph_Driver/src/stm32f4xx_sdio.c **** 
 599:/home/rdu/Workspace/project_templates/mcu/stm32_ws/src/libraries/STM32F4xx_StdPeriph_Driver/src/stm32f4xx_sdio.c **** /** @defgroup SDIO_Group4 SDIO IO Cards mode management functions
 600:/home/rdu/Workspace/project_templates/mcu/stm32_ws/src/libraries/STM32F4xx_StdPeriph_Driver/src/stm32f4xx_sdio.c ****  *  @brief   SDIO IO Cards mode management functions
 601:/home/rdu/Workspace/project_templates/mcu/stm32_ws/src/libraries/STM32F4xx_StdPeriph_Driver/src/stm32f4xx_sdio.c ****  *
 602:/home/rdu/Workspace/project_templates/mcu/stm32_ws/src/libraries/STM32F4xx_StdPeriph_Driver/src/stm32f4xx_sdio.c **** @verbatim   
 603:/home/rdu/Workspace/project_templates/mcu/stm32_ws/src/libraries/STM32F4xx_StdPeriph_Driver/src/stm32f4xx_sdio.c ****  ===============================================================================
 604:/home/rdu/Workspace/project_templates/mcu/stm32_ws/src/libraries/STM32F4xx_StdPeriph_Driver/src/stm32f4xx_sdio.c ****                ##### SDIO IO Cards mode management functions #####
 605:/home/rdu/Workspace/project_templates/mcu/stm32_ws/src/libraries/STM32F4xx_StdPeriph_Driver/src/stm32f4xx_sdio.c ****  ===============================================================================  
 606:/home/rdu/Workspace/project_templates/mcu/stm32_ws/src/libraries/STM32F4xx_StdPeriph_Driver/src/stm32f4xx_sdio.c **** 
 607:/home/rdu/Workspace/project_templates/mcu/stm32_ws/src/libraries/STM32F4xx_StdPeriph_Driver/src/stm32f4xx_sdio.c ****   This section provide functions allowing to program and read the SDIO IO Cards.
 608:/home/rdu/Workspace/project_templates/mcu/stm32_ws/src/libraries/STM32F4xx_StdPeriph_Driver/src/stm32f4xx_sdio.c **** 
 609:/home/rdu/Workspace/project_templates/mcu/stm32_ws/src/libraries/STM32F4xx_StdPeriph_Driver/src/stm32f4xx_sdio.c **** @endverbatim
 610:/home/rdu/Workspace/project_templates/mcu/stm32_ws/src/libraries/STM32F4xx_StdPeriph_Driver/src/stm32f4xx_sdio.c ****   * @{
 611:/home/rdu/Workspace/project_templates/mcu/stm32_ws/src/libraries/STM32F4xx_StdPeriph_Driver/src/stm32f4xx_sdio.c ****   */
 612:/home/rdu/Workspace/project_templates/mcu/stm32_ws/src/libraries/STM32F4xx_StdPeriph_Driver/src/stm32f4xx_sdio.c **** 
 613:/home/rdu/Workspace/project_templates/mcu/stm32_ws/src/libraries/STM32F4xx_StdPeriph_Driver/src/stm32f4xx_sdio.c **** /**
 614:/home/rdu/Workspace/project_templates/mcu/stm32_ws/src/libraries/STM32F4xx_StdPeriph_Driver/src/stm32f4xx_sdio.c ****   * @brief  Starts the SD I/O Read Wait operation.	
 615:/home/rdu/Workspace/project_templates/mcu/stm32_ws/src/libraries/STM32F4xx_StdPeriph_Driver/src/stm32f4xx_sdio.c ****   * @param  NewState: new state of the Start SDIO Read Wait operation. 
 616:/home/rdu/Workspace/project_templates/mcu/stm32_ws/src/libraries/STM32F4xx_StdPeriph_Driver/src/stm32f4xx_sdio.c ****   *         This parameter can be: ENABLE or DISABLE.
 617:/home/rdu/Workspace/project_templates/mcu/stm32_ws/src/libraries/STM32F4xx_StdPeriph_Driver/src/stm32f4xx_sdio.c ****   * @retval None
 618:/home/rdu/Workspace/project_templates/mcu/stm32_ws/src/libraries/STM32F4xx_StdPeriph_Driver/src/stm32f4xx_sdio.c ****   */
 619:/home/rdu/Workspace/project_templates/mcu/stm32_ws/src/libraries/STM32F4xx_StdPeriph_Driver/src/stm32f4xx_sdio.c **** void SDIO_StartSDIOReadWait(FunctionalState NewState)
 620:/home/rdu/Workspace/project_templates/mcu/stm32_ws/src/libraries/STM32F4xx_StdPeriph_Driver/src/stm32f4xx_sdio.c **** { 
 736              		.loc 1 620 0
 737              		.cfi_startproc
 738              		@ args = 0, pretend = 0, frame = 8
 739              		@ frame_needed = 0, uses_anonymous_args = 0
 740              		@ link register save eliminated.
 741 0000 82B0     		sub	sp, sp, #8
 742              	.LCFI21:
 743              		.cfi_def_cfa_offset 8
 744 0002 0346     		mov	r3, r0
 745 0004 8DF80730 		strb	r3, [sp, #7]
 621:/home/rdu/Workspace/project_templates/mcu/stm32_ws/src/libraries/STM32F4xx_StdPeriph_Driver/src/stm32f4xx_sdio.c ****   /* Check the parameters */
 622:/home/rdu/Workspace/project_templates/mcu/stm32_ws/src/libraries/STM32F4xx_StdPeriph_Driver/src/stm32f4xx_sdio.c ****   assert_param(IS_FUNCTIONAL_STATE(NewState));
 623:/home/rdu/Workspace/project_templates/mcu/stm32_ws/src/libraries/STM32F4xx_StdPeriph_Driver/src/stm32f4xx_sdio.c ****   
 624:/home/rdu/Workspace/project_templates/mcu/stm32_ws/src/libraries/STM32F4xx_StdPeriph_Driver/src/stm32f4xx_sdio.c ****   *(__IO uint32_t *) DCTRL_RWSTART_BB = (uint32_t) NewState;
 746              		.loc 1 624 0
 747 0008 034A     		ldr	r2, .L48
 748 000a 9DF80730 		ldrb	r3, [sp, #7]	@ zero_extendqisi2
 749 000e 1360     		str	r3, [r2]
 625:/home/rdu/Workspace/project_templates/mcu/stm32_ws/src/libraries/STM32F4xx_StdPeriph_Driver/src/stm32f4xx_sdio.c **** }
 750              		.loc 1 625 0
 751 0010 00BF     		nop
 752 0012 02B0     		add	sp, sp, #8
 753              	.LCFI22:
 754              		.cfi_def_cfa_offset 0
 755              		@ sp needed
 756 0014 7047     		bx	lr
 757              	.L49:
 758 0016 00BF     		.align	2
 759              	.L48:
 760 0018 A0852542 		.word	1109755296
 761              		.cfi_endproc
 762              	.LFE139:
 764              		.section	.text.SDIO_StopSDIOReadWait,"ax",%progbits
 765              		.align	1
 766              		.global	SDIO_StopSDIOReadWait
 767              		.syntax unified
 768              		.thumb
 769              		.thumb_func
 770              		.fpu fpv4-sp-d16
 772              	SDIO_StopSDIOReadWait:
 773              	.LFB140:
 626:/home/rdu/Workspace/project_templates/mcu/stm32_ws/src/libraries/STM32F4xx_StdPeriph_Driver/src/stm32f4xx_sdio.c **** 
 627:/home/rdu/Workspace/project_templates/mcu/stm32_ws/src/libraries/STM32F4xx_StdPeriph_Driver/src/stm32f4xx_sdio.c **** /**
 628:/home/rdu/Workspace/project_templates/mcu/stm32_ws/src/libraries/STM32F4xx_StdPeriph_Driver/src/stm32f4xx_sdio.c ****   * @brief  Stops the SD I/O Read Wait operation.	
 629:/home/rdu/Workspace/project_templates/mcu/stm32_ws/src/libraries/STM32F4xx_StdPeriph_Driver/src/stm32f4xx_sdio.c ****   * @param  NewState: new state of the Stop SDIO Read Wait operation. 
 630:/home/rdu/Workspace/project_templates/mcu/stm32_ws/src/libraries/STM32F4xx_StdPeriph_Driver/src/stm32f4xx_sdio.c ****   *         This parameter can be: ENABLE or DISABLE.
 631:/home/rdu/Workspace/project_templates/mcu/stm32_ws/src/libraries/STM32F4xx_StdPeriph_Driver/src/stm32f4xx_sdio.c ****   * @retval None
 632:/home/rdu/Workspace/project_templates/mcu/stm32_ws/src/libraries/STM32F4xx_StdPeriph_Driver/src/stm32f4xx_sdio.c ****   */
 633:/home/rdu/Workspace/project_templates/mcu/stm32_ws/src/libraries/STM32F4xx_StdPeriph_Driver/src/stm32f4xx_sdio.c **** void SDIO_StopSDIOReadWait(FunctionalState NewState)
 634:/home/rdu/Workspace/project_templates/mcu/stm32_ws/src/libraries/STM32F4xx_StdPeriph_Driver/src/stm32f4xx_sdio.c **** { 
 774              		.loc 1 634 0
 775              		.cfi_startproc
 776              		@ args = 0, pretend = 0, frame = 8
 777              		@ frame_needed = 0, uses_anonymous_args = 0
 778              		@ link register save eliminated.
 779 0000 82B0     		sub	sp, sp, #8
 780              	.LCFI23:
 781              		.cfi_def_cfa_offset 8
 782 0002 0346     		mov	r3, r0
 783 0004 8DF80730 		strb	r3, [sp, #7]
 635:/home/rdu/Workspace/project_templates/mcu/stm32_ws/src/libraries/STM32F4xx_StdPeriph_Driver/src/stm32f4xx_sdio.c ****   /* Check the parameters */
 636:/home/rdu/Workspace/project_templates/mcu/stm32_ws/src/libraries/STM32F4xx_StdPeriph_Driver/src/stm32f4xx_sdio.c ****   assert_param(IS_FUNCTIONAL_STATE(NewState));
 637:/home/rdu/Workspace/project_templates/mcu/stm32_ws/src/libraries/STM32F4xx_StdPeriph_Driver/src/stm32f4xx_sdio.c ****   
 638:/home/rdu/Workspace/project_templates/mcu/stm32_ws/src/libraries/STM32F4xx_StdPeriph_Driver/src/stm32f4xx_sdio.c ****   *(__IO uint32_t *) DCTRL_RWSTOP_BB = (uint32_t) NewState;
 784              		.loc 1 638 0
 785 0008 034A     		ldr	r2, .L51
 786 000a 9DF80730 		ldrb	r3, [sp, #7]	@ zero_extendqisi2
 787 000e 1360     		str	r3, [r2]
 639:/home/rdu/Workspace/project_templates/mcu/stm32_ws/src/libraries/STM32F4xx_StdPeriph_Driver/src/stm32f4xx_sdio.c **** }
 788              		.loc 1 639 0
 789 0010 00BF     		nop
 790 0012 02B0     		add	sp, sp, #8
 791              	.LCFI24:
 792              		.cfi_def_cfa_offset 0
 793              		@ sp needed
 794 0014 7047     		bx	lr
 795              	.L52:
 796 0016 00BF     		.align	2
 797              	.L51:
 798 0018 A4852542 		.word	1109755300
 799              		.cfi_endproc
 800              	.LFE140:
 802              		.section	.text.SDIO_SetSDIOReadWaitMode,"ax",%progbits
 803              		.align	1
 804              		.global	SDIO_SetSDIOReadWaitMode
 805              		.syntax unified
 806              		.thumb
 807              		.thumb_func
 808              		.fpu fpv4-sp-d16
 810              	SDIO_SetSDIOReadWaitMode:
 811              	.LFB141:
 640:/home/rdu/Workspace/project_templates/mcu/stm32_ws/src/libraries/STM32F4xx_StdPeriph_Driver/src/stm32f4xx_sdio.c **** 
 641:/home/rdu/Workspace/project_templates/mcu/stm32_ws/src/libraries/STM32F4xx_StdPeriph_Driver/src/stm32f4xx_sdio.c **** /**
 642:/home/rdu/Workspace/project_templates/mcu/stm32_ws/src/libraries/STM32F4xx_StdPeriph_Driver/src/stm32f4xx_sdio.c ****   * @brief  Sets one of the two options of inserting read wait interval.
 643:/home/rdu/Workspace/project_templates/mcu/stm32_ws/src/libraries/STM32F4xx_StdPeriph_Driver/src/stm32f4xx_sdio.c ****   * @param  SDIO_ReadWaitMode: SD I/O Read Wait operation mode.
 644:/home/rdu/Workspace/project_templates/mcu/stm32_ws/src/libraries/STM32F4xx_StdPeriph_Driver/src/stm32f4xx_sdio.c ****   *          This parameter can be:
 645:/home/rdu/Workspace/project_templates/mcu/stm32_ws/src/libraries/STM32F4xx_StdPeriph_Driver/src/stm32f4xx_sdio.c ****   *            @arg SDIO_ReadWaitMode_CLK: Read Wait control by stopping SDIOCLK
 646:/home/rdu/Workspace/project_templates/mcu/stm32_ws/src/libraries/STM32F4xx_StdPeriph_Driver/src/stm32f4xx_sdio.c ****   *            @arg SDIO_ReadWaitMode_DATA2: Read Wait control using SDIO_DATA2
 647:/home/rdu/Workspace/project_templates/mcu/stm32_ws/src/libraries/STM32F4xx_StdPeriph_Driver/src/stm32f4xx_sdio.c ****   * @retval None
 648:/home/rdu/Workspace/project_templates/mcu/stm32_ws/src/libraries/STM32F4xx_StdPeriph_Driver/src/stm32f4xx_sdio.c ****   */
 649:/home/rdu/Workspace/project_templates/mcu/stm32_ws/src/libraries/STM32F4xx_StdPeriph_Driver/src/stm32f4xx_sdio.c **** void SDIO_SetSDIOReadWaitMode(uint32_t SDIO_ReadWaitMode)
 650:/home/rdu/Workspace/project_templates/mcu/stm32_ws/src/libraries/STM32F4xx_StdPeriph_Driver/src/stm32f4xx_sdio.c **** {
 812              		.loc 1 650 0
 813              		.cfi_startproc
 814              		@ args = 0, pretend = 0, frame = 8
 815              		@ frame_needed = 0, uses_anonymous_args = 0
 816              		@ link register save eliminated.
 817 0000 82B0     		sub	sp, sp, #8
 818              	.LCFI25:
 819              		.cfi_def_cfa_offset 8
 820 0002 0190     		str	r0, [sp, #4]
 651:/home/rdu/Workspace/project_templates/mcu/stm32_ws/src/libraries/STM32F4xx_StdPeriph_Driver/src/stm32f4xx_sdio.c ****   /* Check the parameters */
 652:/home/rdu/Workspace/project_templates/mcu/stm32_ws/src/libraries/STM32F4xx_StdPeriph_Driver/src/stm32f4xx_sdio.c ****   assert_param(IS_SDIO_READWAIT_MODE(SDIO_ReadWaitMode));
 653:/home/rdu/Workspace/project_templates/mcu/stm32_ws/src/libraries/STM32F4xx_StdPeriph_Driver/src/stm32f4xx_sdio.c ****   
 654:/home/rdu/Workspace/project_templates/mcu/stm32_ws/src/libraries/STM32F4xx_StdPeriph_Driver/src/stm32f4xx_sdio.c ****   *(__IO uint32_t *) DCTRL_RWMOD_BB = SDIO_ReadWaitMode;
 821              		.loc 1 654 0
 822 0004 024A     		ldr	r2, .L54
 823 0006 019B     		ldr	r3, [sp, #4]
 824 0008 1360     		str	r3, [r2]
 655:/home/rdu/Workspace/project_templates/mcu/stm32_ws/src/libraries/STM32F4xx_StdPeriph_Driver/src/stm32f4xx_sdio.c **** }
 825              		.loc 1 655 0
 826 000a 00BF     		nop
 827 000c 02B0     		add	sp, sp, #8
 828              	.LCFI26:
 829              		.cfi_def_cfa_offset 0
 830              		@ sp needed
 831 000e 7047     		bx	lr
 832              	.L55:
 833              		.align	2
 834              	.L54:
 835 0010 A8852542 		.word	1109755304
 836              		.cfi_endproc
 837              	.LFE141:
 839              		.section	.text.SDIO_SetSDIOOperation,"ax",%progbits
 840              		.align	1
 841              		.global	SDIO_SetSDIOOperation
 842              		.syntax unified
 843              		.thumb
 844              		.thumb_func
 845              		.fpu fpv4-sp-d16
 847              	SDIO_SetSDIOOperation:
 848              	.LFB142:
 656:/home/rdu/Workspace/project_templates/mcu/stm32_ws/src/libraries/STM32F4xx_StdPeriph_Driver/src/stm32f4xx_sdio.c **** 
 657:/home/rdu/Workspace/project_templates/mcu/stm32_ws/src/libraries/STM32F4xx_StdPeriph_Driver/src/stm32f4xx_sdio.c **** /**
 658:/home/rdu/Workspace/project_templates/mcu/stm32_ws/src/libraries/STM32F4xx_StdPeriph_Driver/src/stm32f4xx_sdio.c ****   * @brief  Enables or disables the SD I/O Mode Operation.
 659:/home/rdu/Workspace/project_templates/mcu/stm32_ws/src/libraries/STM32F4xx_StdPeriph_Driver/src/stm32f4xx_sdio.c ****   * @param  NewState: new state of SDIO specific operation. 
 660:/home/rdu/Workspace/project_templates/mcu/stm32_ws/src/libraries/STM32F4xx_StdPeriph_Driver/src/stm32f4xx_sdio.c ****   *         This parameter can be: ENABLE or DISABLE.
 661:/home/rdu/Workspace/project_templates/mcu/stm32_ws/src/libraries/STM32F4xx_StdPeriph_Driver/src/stm32f4xx_sdio.c ****   * @retval None
 662:/home/rdu/Workspace/project_templates/mcu/stm32_ws/src/libraries/STM32F4xx_StdPeriph_Driver/src/stm32f4xx_sdio.c ****   */
 663:/home/rdu/Workspace/project_templates/mcu/stm32_ws/src/libraries/STM32F4xx_StdPeriph_Driver/src/stm32f4xx_sdio.c **** void SDIO_SetSDIOOperation(FunctionalState NewState)
 664:/home/rdu/Workspace/project_templates/mcu/stm32_ws/src/libraries/STM32F4xx_StdPeriph_Driver/src/stm32f4xx_sdio.c **** { 
 849              		.loc 1 664 0
 850              		.cfi_startproc
 851              		@ args = 0, pretend = 0, frame = 8
 852              		@ frame_needed = 0, uses_anonymous_args = 0
 853              		@ link register save eliminated.
 854 0000 82B0     		sub	sp, sp, #8
 855              	.LCFI27:
 856              		.cfi_def_cfa_offset 8
 857 0002 0346     		mov	r3, r0
 858 0004 8DF80730 		strb	r3, [sp, #7]
 665:/home/rdu/Workspace/project_templates/mcu/stm32_ws/src/libraries/STM32F4xx_StdPeriph_Driver/src/stm32f4xx_sdio.c ****   /* Check the parameters */
 666:/home/rdu/Workspace/project_templates/mcu/stm32_ws/src/libraries/STM32F4xx_StdPeriph_Driver/src/stm32f4xx_sdio.c ****   assert_param(IS_FUNCTIONAL_STATE(NewState));
 667:/home/rdu/Workspace/project_templates/mcu/stm32_ws/src/libraries/STM32F4xx_StdPeriph_Driver/src/stm32f4xx_sdio.c ****   
 668:/home/rdu/Workspace/project_templates/mcu/stm32_ws/src/libraries/STM32F4xx_StdPeriph_Driver/src/stm32f4xx_sdio.c ****   *(__IO uint32_t *) DCTRL_SDIOEN_BB = (uint32_t)NewState;
 859              		.loc 1 668 0
 860 0008 034A     		ldr	r2, .L57
 861 000a 9DF80730 		ldrb	r3, [sp, #7]	@ zero_extendqisi2
 862 000e 1360     		str	r3, [r2]
 669:/home/rdu/Workspace/project_templates/mcu/stm32_ws/src/libraries/STM32F4xx_StdPeriph_Driver/src/stm32f4xx_sdio.c **** }
 863              		.loc 1 669 0
 864 0010 00BF     		nop
 865 0012 02B0     		add	sp, sp, #8
 866              	.LCFI28:
 867              		.cfi_def_cfa_offset 0
 868              		@ sp needed
 869 0014 7047     		bx	lr
 870              	.L58:
 871 0016 00BF     		.align	2
 872              	.L57:
 873 0018 AC852542 		.word	1109755308
 874              		.cfi_endproc
 875              	.LFE142:
 877              		.section	.text.SDIO_SendSDIOSuspendCmd,"ax",%progbits
 878              		.align	1
 879              		.global	SDIO_SendSDIOSuspendCmd
 880              		.syntax unified
 881              		.thumb
 882              		.thumb_func
 883              		.fpu fpv4-sp-d16
 885              	SDIO_SendSDIOSuspendCmd:
 886              	.LFB143:
 670:/home/rdu/Workspace/project_templates/mcu/stm32_ws/src/libraries/STM32F4xx_StdPeriph_Driver/src/stm32f4xx_sdio.c **** 
 671:/home/rdu/Workspace/project_templates/mcu/stm32_ws/src/libraries/STM32F4xx_StdPeriph_Driver/src/stm32f4xx_sdio.c **** /**
 672:/home/rdu/Workspace/project_templates/mcu/stm32_ws/src/libraries/STM32F4xx_StdPeriph_Driver/src/stm32f4xx_sdio.c ****   * @brief  Enables or disables the SD I/O Mode suspend command sending.
 673:/home/rdu/Workspace/project_templates/mcu/stm32_ws/src/libraries/STM32F4xx_StdPeriph_Driver/src/stm32f4xx_sdio.c ****   * @param  NewState: new state of the SD I/O Mode suspend command.
 674:/home/rdu/Workspace/project_templates/mcu/stm32_ws/src/libraries/STM32F4xx_StdPeriph_Driver/src/stm32f4xx_sdio.c ****   *         This parameter can be: ENABLE or DISABLE.
 675:/home/rdu/Workspace/project_templates/mcu/stm32_ws/src/libraries/STM32F4xx_StdPeriph_Driver/src/stm32f4xx_sdio.c ****   * @retval None
 676:/home/rdu/Workspace/project_templates/mcu/stm32_ws/src/libraries/STM32F4xx_StdPeriph_Driver/src/stm32f4xx_sdio.c ****   */
 677:/home/rdu/Workspace/project_templates/mcu/stm32_ws/src/libraries/STM32F4xx_StdPeriph_Driver/src/stm32f4xx_sdio.c **** void SDIO_SendSDIOSuspendCmd(FunctionalState NewState)
 678:/home/rdu/Workspace/project_templates/mcu/stm32_ws/src/libraries/STM32F4xx_StdPeriph_Driver/src/stm32f4xx_sdio.c **** { 
 887              		.loc 1 678 0
 888              		.cfi_startproc
 889              		@ args = 0, pretend = 0, frame = 8
 890              		@ frame_needed = 0, uses_anonymous_args = 0
 891              		@ link register save eliminated.
 892 0000 82B0     		sub	sp, sp, #8
 893              	.LCFI29:
 894              		.cfi_def_cfa_offset 8
 895 0002 0346     		mov	r3, r0
 896 0004 8DF80730 		strb	r3, [sp, #7]
 679:/home/rdu/Workspace/project_templates/mcu/stm32_ws/src/libraries/STM32F4xx_StdPeriph_Driver/src/stm32f4xx_sdio.c ****   /* Check the parameters */
 680:/home/rdu/Workspace/project_templates/mcu/stm32_ws/src/libraries/STM32F4xx_StdPeriph_Driver/src/stm32f4xx_sdio.c ****   assert_param(IS_FUNCTIONAL_STATE(NewState));
 681:/home/rdu/Workspace/project_templates/mcu/stm32_ws/src/libraries/STM32F4xx_StdPeriph_Driver/src/stm32f4xx_sdio.c ****   
 682:/home/rdu/Workspace/project_templates/mcu/stm32_ws/src/libraries/STM32F4xx_StdPeriph_Driver/src/stm32f4xx_sdio.c ****   *(__IO uint32_t *) CMD_SDIOSUSPEND_BB = (uint32_t)NewState;
 897              		.loc 1 682 0
 898 0008 034A     		ldr	r2, .L60
 899 000a 9DF80730 		ldrb	r3, [sp, #7]	@ zero_extendqisi2
 900 000e 1360     		str	r3, [r2]
 683:/home/rdu/Workspace/project_templates/mcu/stm32_ws/src/libraries/STM32F4xx_StdPeriph_Driver/src/stm32f4xx_sdio.c **** }
 901              		.loc 1 683 0
 902 0010 00BF     		nop
 903 0012 02B0     		add	sp, sp, #8
 904              	.LCFI30:
 905              		.cfi_def_cfa_offset 0
 906              		@ sp needed
 907 0014 7047     		bx	lr
 908              	.L61:
 909 0016 00BF     		.align	2
 910              	.L60:
 911 0018 AC812542 		.word	1109754284
 912              		.cfi_endproc
 913              	.LFE143:
 915              		.section	.text.SDIO_CommandCompletionCmd,"ax",%progbits
 916              		.align	1
 917              		.global	SDIO_CommandCompletionCmd
 918              		.syntax unified
 919              		.thumb
 920              		.thumb_func
 921              		.fpu fpv4-sp-d16
 923              	SDIO_CommandCompletionCmd:
 924              	.LFB144:
 684:/home/rdu/Workspace/project_templates/mcu/stm32_ws/src/libraries/STM32F4xx_StdPeriph_Driver/src/stm32f4xx_sdio.c **** 
 685:/home/rdu/Workspace/project_templates/mcu/stm32_ws/src/libraries/STM32F4xx_StdPeriph_Driver/src/stm32f4xx_sdio.c **** /**
 686:/home/rdu/Workspace/project_templates/mcu/stm32_ws/src/libraries/STM32F4xx_StdPeriph_Driver/src/stm32f4xx_sdio.c ****   * @}
 687:/home/rdu/Workspace/project_templates/mcu/stm32_ws/src/libraries/STM32F4xx_StdPeriph_Driver/src/stm32f4xx_sdio.c ****   */
 688:/home/rdu/Workspace/project_templates/mcu/stm32_ws/src/libraries/STM32F4xx_StdPeriph_Driver/src/stm32f4xx_sdio.c **** 
 689:/home/rdu/Workspace/project_templates/mcu/stm32_ws/src/libraries/STM32F4xx_StdPeriph_Driver/src/stm32f4xx_sdio.c **** /** @defgroup SDIO_Group5 CE-ATA mode management functions
 690:/home/rdu/Workspace/project_templates/mcu/stm32_ws/src/libraries/STM32F4xx_StdPeriph_Driver/src/stm32f4xx_sdio.c ****  *  @brief   CE-ATA mode management functions
 691:/home/rdu/Workspace/project_templates/mcu/stm32_ws/src/libraries/STM32F4xx_StdPeriph_Driver/src/stm32f4xx_sdio.c ****  *
 692:/home/rdu/Workspace/project_templates/mcu/stm32_ws/src/libraries/STM32F4xx_StdPeriph_Driver/src/stm32f4xx_sdio.c **** @verbatim   
 693:/home/rdu/Workspace/project_templates/mcu/stm32_ws/src/libraries/STM32F4xx_StdPeriph_Driver/src/stm32f4xx_sdio.c ****  ===============================================================================
 694:/home/rdu/Workspace/project_templates/mcu/stm32_ws/src/libraries/STM32F4xx_StdPeriph_Driver/src/stm32f4xx_sdio.c ****                   ##### CE-ATA mode management functions #####
 695:/home/rdu/Workspace/project_templates/mcu/stm32_ws/src/libraries/STM32F4xx_StdPeriph_Driver/src/stm32f4xx_sdio.c ****  ===============================================================================  
 696:/home/rdu/Workspace/project_templates/mcu/stm32_ws/src/libraries/STM32F4xx_StdPeriph_Driver/src/stm32f4xx_sdio.c **** 
 697:/home/rdu/Workspace/project_templates/mcu/stm32_ws/src/libraries/STM32F4xx_StdPeriph_Driver/src/stm32f4xx_sdio.c ****   This section provide functions allowing to program and read the CE-ATA card.
 698:/home/rdu/Workspace/project_templates/mcu/stm32_ws/src/libraries/STM32F4xx_StdPeriph_Driver/src/stm32f4xx_sdio.c **** 
 699:/home/rdu/Workspace/project_templates/mcu/stm32_ws/src/libraries/STM32F4xx_StdPeriph_Driver/src/stm32f4xx_sdio.c **** @endverbatim
 700:/home/rdu/Workspace/project_templates/mcu/stm32_ws/src/libraries/STM32F4xx_StdPeriph_Driver/src/stm32f4xx_sdio.c ****   * @{
 701:/home/rdu/Workspace/project_templates/mcu/stm32_ws/src/libraries/STM32F4xx_StdPeriph_Driver/src/stm32f4xx_sdio.c ****   */
 702:/home/rdu/Workspace/project_templates/mcu/stm32_ws/src/libraries/STM32F4xx_StdPeriph_Driver/src/stm32f4xx_sdio.c **** 
 703:/home/rdu/Workspace/project_templates/mcu/stm32_ws/src/libraries/STM32F4xx_StdPeriph_Driver/src/stm32f4xx_sdio.c **** /**
 704:/home/rdu/Workspace/project_templates/mcu/stm32_ws/src/libraries/STM32F4xx_StdPeriph_Driver/src/stm32f4xx_sdio.c ****   * @brief  Enables or disables the command completion signal.
 705:/home/rdu/Workspace/project_templates/mcu/stm32_ws/src/libraries/STM32F4xx_StdPeriph_Driver/src/stm32f4xx_sdio.c ****   * @param  NewState: new state of command completion signal. 
 706:/home/rdu/Workspace/project_templates/mcu/stm32_ws/src/libraries/STM32F4xx_StdPeriph_Driver/src/stm32f4xx_sdio.c ****   *         This parameter can be: ENABLE or DISABLE.
 707:/home/rdu/Workspace/project_templates/mcu/stm32_ws/src/libraries/STM32F4xx_StdPeriph_Driver/src/stm32f4xx_sdio.c ****   * @retval None
 708:/home/rdu/Workspace/project_templates/mcu/stm32_ws/src/libraries/STM32F4xx_StdPeriph_Driver/src/stm32f4xx_sdio.c ****   */
 709:/home/rdu/Workspace/project_templates/mcu/stm32_ws/src/libraries/STM32F4xx_StdPeriph_Driver/src/stm32f4xx_sdio.c **** void SDIO_CommandCompletionCmd(FunctionalState NewState)
 710:/home/rdu/Workspace/project_templates/mcu/stm32_ws/src/libraries/STM32F4xx_StdPeriph_Driver/src/stm32f4xx_sdio.c **** { 
 925              		.loc 1 710 0
 926              		.cfi_startproc
 927              		@ args = 0, pretend = 0, frame = 8
 928              		@ frame_needed = 0, uses_anonymous_args = 0
 929              		@ link register save eliminated.
 930 0000 82B0     		sub	sp, sp, #8
 931              	.LCFI31:
 932              		.cfi_def_cfa_offset 8
 933 0002 0346     		mov	r3, r0
 934 0004 8DF80730 		strb	r3, [sp, #7]
 711:/home/rdu/Workspace/project_templates/mcu/stm32_ws/src/libraries/STM32F4xx_StdPeriph_Driver/src/stm32f4xx_sdio.c ****   /* Check the parameters */
 712:/home/rdu/Workspace/project_templates/mcu/stm32_ws/src/libraries/STM32F4xx_StdPeriph_Driver/src/stm32f4xx_sdio.c ****   assert_param(IS_FUNCTIONAL_STATE(NewState));
 713:/home/rdu/Workspace/project_templates/mcu/stm32_ws/src/libraries/STM32F4xx_StdPeriph_Driver/src/stm32f4xx_sdio.c ****   
 714:/home/rdu/Workspace/project_templates/mcu/stm32_ws/src/libraries/STM32F4xx_StdPeriph_Driver/src/stm32f4xx_sdio.c ****   *(__IO uint32_t *) CMD_ENCMDCOMPL_BB = (uint32_t)NewState;
 935              		.loc 1 714 0
 936 0008 034A     		ldr	r2, .L63
 937 000a 9DF80730 		ldrb	r3, [sp, #7]	@ zero_extendqisi2
 938 000e 1360     		str	r3, [r2]
 715:/home/rdu/Workspace/project_templates/mcu/stm32_ws/src/libraries/STM32F4xx_StdPeriph_Driver/src/stm32f4xx_sdio.c **** }
 939              		.loc 1 715 0
 940 0010 00BF     		nop
 941 0012 02B0     		add	sp, sp, #8
 942              	.LCFI32:
 943              		.cfi_def_cfa_offset 0
 944              		@ sp needed
 945 0014 7047     		bx	lr
 946              	.L64:
 947 0016 00BF     		.align	2
 948              	.L63:
 949 0018 B0812542 		.word	1109754288
 950              		.cfi_endproc
 951              	.LFE144:
 953              		.section	.text.SDIO_CEATAITCmd,"ax",%progbits
 954              		.align	1
 955              		.global	SDIO_CEATAITCmd
 956              		.syntax unified
 957              		.thumb
 958              		.thumb_func
 959              		.fpu fpv4-sp-d16
 961              	SDIO_CEATAITCmd:
 962              	.LFB145:
 716:/home/rdu/Workspace/project_templates/mcu/stm32_ws/src/libraries/STM32F4xx_StdPeriph_Driver/src/stm32f4xx_sdio.c **** 
 717:/home/rdu/Workspace/project_templates/mcu/stm32_ws/src/libraries/STM32F4xx_StdPeriph_Driver/src/stm32f4xx_sdio.c **** /**
 718:/home/rdu/Workspace/project_templates/mcu/stm32_ws/src/libraries/STM32F4xx_StdPeriph_Driver/src/stm32f4xx_sdio.c ****   * @brief  Enables or disables the CE-ATA interrupt.
 719:/home/rdu/Workspace/project_templates/mcu/stm32_ws/src/libraries/STM32F4xx_StdPeriph_Driver/src/stm32f4xx_sdio.c ****   * @param  NewState: new state of CE-ATA interrupt. 
 720:/home/rdu/Workspace/project_templates/mcu/stm32_ws/src/libraries/STM32F4xx_StdPeriph_Driver/src/stm32f4xx_sdio.c ****   *         This parameter can be: ENABLE or DISABLE.
 721:/home/rdu/Workspace/project_templates/mcu/stm32_ws/src/libraries/STM32F4xx_StdPeriph_Driver/src/stm32f4xx_sdio.c ****   * @retval None
 722:/home/rdu/Workspace/project_templates/mcu/stm32_ws/src/libraries/STM32F4xx_StdPeriph_Driver/src/stm32f4xx_sdio.c ****   */
 723:/home/rdu/Workspace/project_templates/mcu/stm32_ws/src/libraries/STM32F4xx_StdPeriph_Driver/src/stm32f4xx_sdio.c **** void SDIO_CEATAITCmd(FunctionalState NewState)
 724:/home/rdu/Workspace/project_templates/mcu/stm32_ws/src/libraries/STM32F4xx_StdPeriph_Driver/src/stm32f4xx_sdio.c **** { 
 963              		.loc 1 724 0
 964              		.cfi_startproc
 965              		@ args = 0, pretend = 0, frame = 8
 966              		@ frame_needed = 0, uses_anonymous_args = 0
 967              		@ link register save eliminated.
 968 0000 82B0     		sub	sp, sp, #8
 969              	.LCFI33:
 970              		.cfi_def_cfa_offset 8
 971 0002 0346     		mov	r3, r0
 972 0004 8DF80730 		strb	r3, [sp, #7]
 725:/home/rdu/Workspace/project_templates/mcu/stm32_ws/src/libraries/STM32F4xx_StdPeriph_Driver/src/stm32f4xx_sdio.c ****   /* Check the parameters */
 726:/home/rdu/Workspace/project_templates/mcu/stm32_ws/src/libraries/STM32F4xx_StdPeriph_Driver/src/stm32f4xx_sdio.c ****   assert_param(IS_FUNCTIONAL_STATE(NewState));
 727:/home/rdu/Workspace/project_templates/mcu/stm32_ws/src/libraries/STM32F4xx_StdPeriph_Driver/src/stm32f4xx_sdio.c ****   
 728:/home/rdu/Workspace/project_templates/mcu/stm32_ws/src/libraries/STM32F4xx_StdPeriph_Driver/src/stm32f4xx_sdio.c ****   *(__IO uint32_t *) CMD_NIEN_BB = (uint32_t)((~((uint32_t)NewState)) & ((uint32_t)0x1));
 973              		.loc 1 728 0
 974 0008 9DF80730 		ldrb	r3, [sp, #7]	@ zero_extendqisi2
 975 000c 03F00103 		and	r3, r3, #1
 976 0010 002B     		cmp	r3, #0
 977 0012 0CBF     		ite	eq
 978 0014 0123     		moveq	r3, #1
 979 0016 0023     		movne	r3, #0
 980 0018 DAB2     		uxtb	r2, r3
 981 001a 024B     		ldr	r3, .L66
 982 001c 1A60     		str	r2, [r3]
 729:/home/rdu/Workspace/project_templates/mcu/stm32_ws/src/libraries/STM32F4xx_StdPeriph_Driver/src/stm32f4xx_sdio.c **** }
 983              		.loc 1 729 0
 984 001e 00BF     		nop
 985 0020 02B0     		add	sp, sp, #8
 986              	.LCFI34:
 987              		.cfi_def_cfa_offset 0
 988              		@ sp needed
 989 0022 7047     		bx	lr
 990              	.L67:
 991              		.align	2
 992              	.L66:
 993 0024 B4812542 		.word	1109754292
 994              		.cfi_endproc
 995              	.LFE145:
 997              		.section	.text.SDIO_SendCEATACmd,"ax",%progbits
 998              		.align	1
 999              		.global	SDIO_SendCEATACmd
 1000              		.syntax unified
 1001              		.thumb
 1002              		.thumb_func
 1003              		.fpu fpv4-sp-d16
 1005              	SDIO_SendCEATACmd:
 1006              	.LFB146:
 730:/home/rdu/Workspace/project_templates/mcu/stm32_ws/src/libraries/STM32F4xx_StdPeriph_Driver/src/stm32f4xx_sdio.c **** 
 731:/home/rdu/Workspace/project_templates/mcu/stm32_ws/src/libraries/STM32F4xx_StdPeriph_Driver/src/stm32f4xx_sdio.c **** /**
 732:/home/rdu/Workspace/project_templates/mcu/stm32_ws/src/libraries/STM32F4xx_StdPeriph_Driver/src/stm32f4xx_sdio.c ****   * @brief  Sends CE-ATA command (CMD61).
 733:/home/rdu/Workspace/project_templates/mcu/stm32_ws/src/libraries/STM32F4xx_StdPeriph_Driver/src/stm32f4xx_sdio.c ****   * @param  NewState: new state of CE-ATA command. 
 734:/home/rdu/Workspace/project_templates/mcu/stm32_ws/src/libraries/STM32F4xx_StdPeriph_Driver/src/stm32f4xx_sdio.c ****   *         This parameter can be: ENABLE or DISABLE.
 735:/home/rdu/Workspace/project_templates/mcu/stm32_ws/src/libraries/STM32F4xx_StdPeriph_Driver/src/stm32f4xx_sdio.c ****   * @retval None
 736:/home/rdu/Workspace/project_templates/mcu/stm32_ws/src/libraries/STM32F4xx_StdPeriph_Driver/src/stm32f4xx_sdio.c ****   */
 737:/home/rdu/Workspace/project_templates/mcu/stm32_ws/src/libraries/STM32F4xx_StdPeriph_Driver/src/stm32f4xx_sdio.c **** void SDIO_SendCEATACmd(FunctionalState NewState)
 738:/home/rdu/Workspace/project_templates/mcu/stm32_ws/src/libraries/STM32F4xx_StdPeriph_Driver/src/stm32f4xx_sdio.c **** { 
 1007              		.loc 1 738 0
 1008              		.cfi_startproc
 1009              		@ args = 0, pretend = 0, frame = 8
 1010              		@ frame_needed = 0, uses_anonymous_args = 0
 1011              		@ link register save eliminated.
 1012 0000 82B0     		sub	sp, sp, #8
 1013              	.LCFI35:
 1014              		.cfi_def_cfa_offset 8
 1015 0002 0346     		mov	r3, r0
 1016 0004 8DF80730 		strb	r3, [sp, #7]
 739:/home/rdu/Workspace/project_templates/mcu/stm32_ws/src/libraries/STM32F4xx_StdPeriph_Driver/src/stm32f4xx_sdio.c ****   /* Check the parameters */
 740:/home/rdu/Workspace/project_templates/mcu/stm32_ws/src/libraries/STM32F4xx_StdPeriph_Driver/src/stm32f4xx_sdio.c ****   assert_param(IS_FUNCTIONAL_STATE(NewState));
 741:/home/rdu/Workspace/project_templates/mcu/stm32_ws/src/libraries/STM32F4xx_StdPeriph_Driver/src/stm32f4xx_sdio.c ****   
 742:/home/rdu/Workspace/project_templates/mcu/stm32_ws/src/libraries/STM32F4xx_StdPeriph_Driver/src/stm32f4xx_sdio.c ****   *(__IO uint32_t *) CMD_ATACMD_BB = (uint32_t)NewState;
 1017              		.loc 1 742 0
 1018 0008 034A     		ldr	r2, .L69
 1019 000a 9DF80730 		ldrb	r3, [sp, #7]	@ zero_extendqisi2
 1020 000e 1360     		str	r3, [r2]
 743:/home/rdu/Workspace/project_templates/mcu/stm32_ws/src/libraries/STM32F4xx_StdPeriph_Driver/src/stm32f4xx_sdio.c **** }
 1021              		.loc 1 743 0
 1022 0010 00BF     		nop
 1023 0012 02B0     		add	sp, sp, #8
 1024              	.LCFI36:
 1025              		.cfi_def_cfa_offset 0
 1026              		@ sp needed
 1027 0014 7047     		bx	lr
 1028              	.L70:
 1029 0016 00BF     		.align	2
 1030              	.L69:
 1031 0018 B8812542 		.word	1109754296
 1032              		.cfi_endproc
 1033              	.LFE146:
 1035              		.section	.text.SDIO_DMACmd,"ax",%progbits
 1036              		.align	1
 1037              		.global	SDIO_DMACmd
 1038              		.syntax unified
 1039              		.thumb
 1040              		.thumb_func
 1041              		.fpu fpv4-sp-d16
 1043              	SDIO_DMACmd:
 1044              	.LFB147:
 744:/home/rdu/Workspace/project_templates/mcu/stm32_ws/src/libraries/STM32F4xx_StdPeriph_Driver/src/stm32f4xx_sdio.c **** 
 745:/home/rdu/Workspace/project_templates/mcu/stm32_ws/src/libraries/STM32F4xx_StdPeriph_Driver/src/stm32f4xx_sdio.c **** /**
 746:/home/rdu/Workspace/project_templates/mcu/stm32_ws/src/libraries/STM32F4xx_StdPeriph_Driver/src/stm32f4xx_sdio.c ****   * @}
 747:/home/rdu/Workspace/project_templates/mcu/stm32_ws/src/libraries/STM32F4xx_StdPeriph_Driver/src/stm32f4xx_sdio.c ****   */
 748:/home/rdu/Workspace/project_templates/mcu/stm32_ws/src/libraries/STM32F4xx_StdPeriph_Driver/src/stm32f4xx_sdio.c **** 
 749:/home/rdu/Workspace/project_templates/mcu/stm32_ws/src/libraries/STM32F4xx_StdPeriph_Driver/src/stm32f4xx_sdio.c **** /** @defgroup SDIO_Group6 DMA transfers management functions
 750:/home/rdu/Workspace/project_templates/mcu/stm32_ws/src/libraries/STM32F4xx_StdPeriph_Driver/src/stm32f4xx_sdio.c ****  *  @brief   DMA transfers management functions
 751:/home/rdu/Workspace/project_templates/mcu/stm32_ws/src/libraries/STM32F4xx_StdPeriph_Driver/src/stm32f4xx_sdio.c ****  *
 752:/home/rdu/Workspace/project_templates/mcu/stm32_ws/src/libraries/STM32F4xx_StdPeriph_Driver/src/stm32f4xx_sdio.c **** @verbatim   
 753:/home/rdu/Workspace/project_templates/mcu/stm32_ws/src/libraries/STM32F4xx_StdPeriph_Driver/src/stm32f4xx_sdio.c ****  ===============================================================================
 754:/home/rdu/Workspace/project_templates/mcu/stm32_ws/src/libraries/STM32F4xx_StdPeriph_Driver/src/stm32f4xx_sdio.c ****                   ##### DMA transfers management functions #####
 755:/home/rdu/Workspace/project_templates/mcu/stm32_ws/src/libraries/STM32F4xx_StdPeriph_Driver/src/stm32f4xx_sdio.c ****  ===============================================================================  
 756:/home/rdu/Workspace/project_templates/mcu/stm32_ws/src/libraries/STM32F4xx_StdPeriph_Driver/src/stm32f4xx_sdio.c **** 
 757:/home/rdu/Workspace/project_templates/mcu/stm32_ws/src/libraries/STM32F4xx_StdPeriph_Driver/src/stm32f4xx_sdio.c ****   This section provide functions allowing to program SDIO DMA transfer.
 758:/home/rdu/Workspace/project_templates/mcu/stm32_ws/src/libraries/STM32F4xx_StdPeriph_Driver/src/stm32f4xx_sdio.c **** 
 759:/home/rdu/Workspace/project_templates/mcu/stm32_ws/src/libraries/STM32F4xx_StdPeriph_Driver/src/stm32f4xx_sdio.c **** @endverbatim
 760:/home/rdu/Workspace/project_templates/mcu/stm32_ws/src/libraries/STM32F4xx_StdPeriph_Driver/src/stm32f4xx_sdio.c ****   * @{
 761:/home/rdu/Workspace/project_templates/mcu/stm32_ws/src/libraries/STM32F4xx_StdPeriph_Driver/src/stm32f4xx_sdio.c ****   */
 762:/home/rdu/Workspace/project_templates/mcu/stm32_ws/src/libraries/STM32F4xx_StdPeriph_Driver/src/stm32f4xx_sdio.c **** 
 763:/home/rdu/Workspace/project_templates/mcu/stm32_ws/src/libraries/STM32F4xx_StdPeriph_Driver/src/stm32f4xx_sdio.c **** /**
 764:/home/rdu/Workspace/project_templates/mcu/stm32_ws/src/libraries/STM32F4xx_StdPeriph_Driver/src/stm32f4xx_sdio.c ****   * @brief  Enables or disables the SDIO DMA request.
 765:/home/rdu/Workspace/project_templates/mcu/stm32_ws/src/libraries/STM32F4xx_StdPeriph_Driver/src/stm32f4xx_sdio.c ****   * @param  NewState: new state of the selected SDIO DMA request.
 766:/home/rdu/Workspace/project_templates/mcu/stm32_ws/src/libraries/STM32F4xx_StdPeriph_Driver/src/stm32f4xx_sdio.c ****   *          This parameter can be: ENABLE or DISABLE.
 767:/home/rdu/Workspace/project_templates/mcu/stm32_ws/src/libraries/STM32F4xx_StdPeriph_Driver/src/stm32f4xx_sdio.c ****   * @retval None
 768:/home/rdu/Workspace/project_templates/mcu/stm32_ws/src/libraries/STM32F4xx_StdPeriph_Driver/src/stm32f4xx_sdio.c ****   */
 769:/home/rdu/Workspace/project_templates/mcu/stm32_ws/src/libraries/STM32F4xx_StdPeriph_Driver/src/stm32f4xx_sdio.c **** void SDIO_DMACmd(FunctionalState NewState)
 770:/home/rdu/Workspace/project_templates/mcu/stm32_ws/src/libraries/STM32F4xx_StdPeriph_Driver/src/stm32f4xx_sdio.c **** {
 1045              		.loc 1 770 0
 1046              		.cfi_startproc
 1047              		@ args = 0, pretend = 0, frame = 8
 1048              		@ frame_needed = 0, uses_anonymous_args = 0
 1049              		@ link register save eliminated.
 1050 0000 82B0     		sub	sp, sp, #8
 1051              	.LCFI37:
 1052              		.cfi_def_cfa_offset 8
 1053 0002 0346     		mov	r3, r0
 1054 0004 8DF80730 		strb	r3, [sp, #7]
 771:/home/rdu/Workspace/project_templates/mcu/stm32_ws/src/libraries/STM32F4xx_StdPeriph_Driver/src/stm32f4xx_sdio.c ****   /* Check the parameters */
 772:/home/rdu/Workspace/project_templates/mcu/stm32_ws/src/libraries/STM32F4xx_StdPeriph_Driver/src/stm32f4xx_sdio.c ****   assert_param(IS_FUNCTIONAL_STATE(NewState));
 773:/home/rdu/Workspace/project_templates/mcu/stm32_ws/src/libraries/STM32F4xx_StdPeriph_Driver/src/stm32f4xx_sdio.c ****   
 774:/home/rdu/Workspace/project_templates/mcu/stm32_ws/src/libraries/STM32F4xx_StdPeriph_Driver/src/stm32f4xx_sdio.c ****   *(__IO uint32_t *) DCTRL_DMAEN_BB = (uint32_t)NewState;
 1055              		.loc 1 774 0
 1056 0008 034A     		ldr	r2, .L72
 1057 000a 9DF80730 		ldrb	r3, [sp, #7]	@ zero_extendqisi2
 1058 000e 1360     		str	r3, [r2]
 775:/home/rdu/Workspace/project_templates/mcu/stm32_ws/src/libraries/STM32F4xx_StdPeriph_Driver/src/stm32f4xx_sdio.c **** }
 1059              		.loc 1 775 0
 1060 0010 00BF     		nop
 1061 0012 02B0     		add	sp, sp, #8
 1062              	.LCFI38:
 1063              		.cfi_def_cfa_offset 0
 1064              		@ sp needed
 1065 0014 7047     		bx	lr
 1066              	.L73:
 1067 0016 00BF     		.align	2
 1068              	.L72:
 1069 0018 8C852542 		.word	1109755276
 1070              		.cfi_endproc
 1071              	.LFE147:
 1073              		.section	.text.SDIO_ITConfig,"ax",%progbits
 1074              		.align	1
 1075              		.global	SDIO_ITConfig
 1076              		.syntax unified
 1077              		.thumb
 1078              		.thumb_func
 1079              		.fpu fpv4-sp-d16
 1081              	SDIO_ITConfig:
 1082              	.LFB148:
 776:/home/rdu/Workspace/project_templates/mcu/stm32_ws/src/libraries/STM32F4xx_StdPeriph_Driver/src/stm32f4xx_sdio.c **** 
 777:/home/rdu/Workspace/project_templates/mcu/stm32_ws/src/libraries/STM32F4xx_StdPeriph_Driver/src/stm32f4xx_sdio.c **** /**
 778:/home/rdu/Workspace/project_templates/mcu/stm32_ws/src/libraries/STM32F4xx_StdPeriph_Driver/src/stm32f4xx_sdio.c ****   * @}
 779:/home/rdu/Workspace/project_templates/mcu/stm32_ws/src/libraries/STM32F4xx_StdPeriph_Driver/src/stm32f4xx_sdio.c ****   */
 780:/home/rdu/Workspace/project_templates/mcu/stm32_ws/src/libraries/STM32F4xx_StdPeriph_Driver/src/stm32f4xx_sdio.c **** 
 781:/home/rdu/Workspace/project_templates/mcu/stm32_ws/src/libraries/STM32F4xx_StdPeriph_Driver/src/stm32f4xx_sdio.c **** /** @defgroup SDIO_Group7 Interrupts and flags management functions
 782:/home/rdu/Workspace/project_templates/mcu/stm32_ws/src/libraries/STM32F4xx_StdPeriph_Driver/src/stm32f4xx_sdio.c ****  *  @brief   Interrupts and flags management functions  
 783:/home/rdu/Workspace/project_templates/mcu/stm32_ws/src/libraries/STM32F4xx_StdPeriph_Driver/src/stm32f4xx_sdio.c ****  *
 784:/home/rdu/Workspace/project_templates/mcu/stm32_ws/src/libraries/STM32F4xx_StdPeriph_Driver/src/stm32f4xx_sdio.c **** @verbatim   
 785:/home/rdu/Workspace/project_templates/mcu/stm32_ws/src/libraries/STM32F4xx_StdPeriph_Driver/src/stm32f4xx_sdio.c ****  ===============================================================================
 786:/home/rdu/Workspace/project_templates/mcu/stm32_ws/src/libraries/STM32F4xx_StdPeriph_Driver/src/stm32f4xx_sdio.c ****               ##### Interrupts and flags management functions #####
 787:/home/rdu/Workspace/project_templates/mcu/stm32_ws/src/libraries/STM32F4xx_StdPeriph_Driver/src/stm32f4xx_sdio.c ****  ===============================================================================  
 788:/home/rdu/Workspace/project_templates/mcu/stm32_ws/src/libraries/STM32F4xx_StdPeriph_Driver/src/stm32f4xx_sdio.c **** 
 789:/home/rdu/Workspace/project_templates/mcu/stm32_ws/src/libraries/STM32F4xx_StdPeriph_Driver/src/stm32f4xx_sdio.c **** 
 790:/home/rdu/Workspace/project_templates/mcu/stm32_ws/src/libraries/STM32F4xx_StdPeriph_Driver/src/stm32f4xx_sdio.c **** @endverbatim
 791:/home/rdu/Workspace/project_templates/mcu/stm32_ws/src/libraries/STM32F4xx_StdPeriph_Driver/src/stm32f4xx_sdio.c ****   * @{
 792:/home/rdu/Workspace/project_templates/mcu/stm32_ws/src/libraries/STM32F4xx_StdPeriph_Driver/src/stm32f4xx_sdio.c ****   */
 793:/home/rdu/Workspace/project_templates/mcu/stm32_ws/src/libraries/STM32F4xx_StdPeriph_Driver/src/stm32f4xx_sdio.c **** 
 794:/home/rdu/Workspace/project_templates/mcu/stm32_ws/src/libraries/STM32F4xx_StdPeriph_Driver/src/stm32f4xx_sdio.c **** /**
 795:/home/rdu/Workspace/project_templates/mcu/stm32_ws/src/libraries/STM32F4xx_StdPeriph_Driver/src/stm32f4xx_sdio.c ****   * @brief  Enables or disables the SDIO interrupts.
 796:/home/rdu/Workspace/project_templates/mcu/stm32_ws/src/libraries/STM32F4xx_StdPeriph_Driver/src/stm32f4xx_sdio.c ****   * @param  SDIO_IT: specifies the SDIO interrupt sources to be enabled or disabled.
 797:/home/rdu/Workspace/project_templates/mcu/stm32_ws/src/libraries/STM32F4xx_StdPeriph_Driver/src/stm32f4xx_sdio.c ****   *          This parameter can be one or a combination of the following values:
 798:/home/rdu/Workspace/project_templates/mcu/stm32_ws/src/libraries/STM32F4xx_StdPeriph_Driver/src/stm32f4xx_sdio.c ****   *            @arg SDIO_IT_CCRCFAIL: Command response received (CRC check failed) interrupt
 799:/home/rdu/Workspace/project_templates/mcu/stm32_ws/src/libraries/STM32F4xx_StdPeriph_Driver/src/stm32f4xx_sdio.c ****   *            @arg SDIO_IT_DCRCFAIL: Data block sent/received (CRC check failed) interrupt
 800:/home/rdu/Workspace/project_templates/mcu/stm32_ws/src/libraries/STM32F4xx_StdPeriph_Driver/src/stm32f4xx_sdio.c ****   *            @arg SDIO_IT_CTIMEOUT: Command response timeout interrupt
 801:/home/rdu/Workspace/project_templates/mcu/stm32_ws/src/libraries/STM32F4xx_StdPeriph_Driver/src/stm32f4xx_sdio.c ****   *            @arg SDIO_IT_DTIMEOUT: Data timeout interrupt
 802:/home/rdu/Workspace/project_templates/mcu/stm32_ws/src/libraries/STM32F4xx_StdPeriph_Driver/src/stm32f4xx_sdio.c ****   *            @arg SDIO_IT_TXUNDERR: Transmit FIFO underrun error interrupt
 803:/home/rdu/Workspace/project_templates/mcu/stm32_ws/src/libraries/STM32F4xx_StdPeriph_Driver/src/stm32f4xx_sdio.c ****   *            @arg SDIO_IT_RXOVERR:  Received FIFO overrun error interrupt
 804:/home/rdu/Workspace/project_templates/mcu/stm32_ws/src/libraries/STM32F4xx_StdPeriph_Driver/src/stm32f4xx_sdio.c ****   *            @arg SDIO_IT_CMDREND:  Command response received (CRC check passed) interrupt
 805:/home/rdu/Workspace/project_templates/mcu/stm32_ws/src/libraries/STM32F4xx_StdPeriph_Driver/src/stm32f4xx_sdio.c ****   *            @arg SDIO_IT_CMDSENT:  Command sent (no response required) interrupt
 806:/home/rdu/Workspace/project_templates/mcu/stm32_ws/src/libraries/STM32F4xx_StdPeriph_Driver/src/stm32f4xx_sdio.c ****   *            @arg SDIO_IT_DATAEND:  Data end (data counter, SDIDCOUNT, is zero) interrupt
 807:/home/rdu/Workspace/project_templates/mcu/stm32_ws/src/libraries/STM32F4xx_StdPeriph_Driver/src/stm32f4xx_sdio.c ****   *            @arg SDIO_IT_STBITERR: Start bit not detected on all data signals in wide 
 808:/home/rdu/Workspace/project_templates/mcu/stm32_ws/src/libraries/STM32F4xx_StdPeriph_Driver/src/stm32f4xx_sdio.c ****   *                                   bus mode interrupt
 809:/home/rdu/Workspace/project_templates/mcu/stm32_ws/src/libraries/STM32F4xx_StdPeriph_Driver/src/stm32f4xx_sdio.c ****   *            @arg SDIO_IT_DBCKEND:  Data block sent/received (CRC check passed) interrupt
 810:/home/rdu/Workspace/project_templates/mcu/stm32_ws/src/libraries/STM32F4xx_StdPeriph_Driver/src/stm32f4xx_sdio.c ****   *            @arg SDIO_IT_CMDACT:   Command transfer in progress interrupt
 811:/home/rdu/Workspace/project_templates/mcu/stm32_ws/src/libraries/STM32F4xx_StdPeriph_Driver/src/stm32f4xx_sdio.c ****   *            @arg SDIO_IT_TXACT:    Data transmit in progress interrupt
 812:/home/rdu/Workspace/project_templates/mcu/stm32_ws/src/libraries/STM32F4xx_StdPeriph_Driver/src/stm32f4xx_sdio.c ****   *            @arg SDIO_IT_RXACT:    Data receive in progress interrupt
 813:/home/rdu/Workspace/project_templates/mcu/stm32_ws/src/libraries/STM32F4xx_StdPeriph_Driver/src/stm32f4xx_sdio.c ****   *            @arg SDIO_IT_TXFIFOHE: Transmit FIFO Half Empty interrupt
 814:/home/rdu/Workspace/project_templates/mcu/stm32_ws/src/libraries/STM32F4xx_StdPeriph_Driver/src/stm32f4xx_sdio.c ****   *            @arg SDIO_IT_RXFIFOHF: Receive FIFO Half Full interrupt
 815:/home/rdu/Workspace/project_templates/mcu/stm32_ws/src/libraries/STM32F4xx_StdPeriph_Driver/src/stm32f4xx_sdio.c ****   *            @arg SDIO_IT_TXFIFOF:  Transmit FIFO full interrupt
 816:/home/rdu/Workspace/project_templates/mcu/stm32_ws/src/libraries/STM32F4xx_StdPeriph_Driver/src/stm32f4xx_sdio.c ****   *            @arg SDIO_IT_RXFIFOF:  Receive FIFO full interrupt
 817:/home/rdu/Workspace/project_templates/mcu/stm32_ws/src/libraries/STM32F4xx_StdPeriph_Driver/src/stm32f4xx_sdio.c ****   *            @arg SDIO_IT_TXFIFOE:  Transmit FIFO empty interrupt
 818:/home/rdu/Workspace/project_templates/mcu/stm32_ws/src/libraries/STM32F4xx_StdPeriph_Driver/src/stm32f4xx_sdio.c ****   *            @arg SDIO_IT_RXFIFOE:  Receive FIFO empty interrupt
 819:/home/rdu/Workspace/project_templates/mcu/stm32_ws/src/libraries/STM32F4xx_StdPeriph_Driver/src/stm32f4xx_sdio.c ****   *            @arg SDIO_IT_TXDAVL:   Data available in transmit FIFO interrupt
 820:/home/rdu/Workspace/project_templates/mcu/stm32_ws/src/libraries/STM32F4xx_StdPeriph_Driver/src/stm32f4xx_sdio.c ****   *            @arg SDIO_IT_RXDAVL:   Data available in receive FIFO interrupt
 821:/home/rdu/Workspace/project_templates/mcu/stm32_ws/src/libraries/STM32F4xx_StdPeriph_Driver/src/stm32f4xx_sdio.c ****   *            @arg SDIO_IT_SDIOIT:   SD I/O interrupt received interrupt
 822:/home/rdu/Workspace/project_templates/mcu/stm32_ws/src/libraries/STM32F4xx_StdPeriph_Driver/src/stm32f4xx_sdio.c ****   *            @arg SDIO_IT_CEATAEND: CE-ATA command completion signal received for CMD61 interrupt
 823:/home/rdu/Workspace/project_templates/mcu/stm32_ws/src/libraries/STM32F4xx_StdPeriph_Driver/src/stm32f4xx_sdio.c ****   * @param  NewState: new state of the specified SDIO interrupts.
 824:/home/rdu/Workspace/project_templates/mcu/stm32_ws/src/libraries/STM32F4xx_StdPeriph_Driver/src/stm32f4xx_sdio.c ****   *          This parameter can be: ENABLE or DISABLE.
 825:/home/rdu/Workspace/project_templates/mcu/stm32_ws/src/libraries/STM32F4xx_StdPeriph_Driver/src/stm32f4xx_sdio.c ****   * @retval None 
 826:/home/rdu/Workspace/project_templates/mcu/stm32_ws/src/libraries/STM32F4xx_StdPeriph_Driver/src/stm32f4xx_sdio.c ****   */
 827:/home/rdu/Workspace/project_templates/mcu/stm32_ws/src/libraries/STM32F4xx_StdPeriph_Driver/src/stm32f4xx_sdio.c **** void SDIO_ITConfig(uint32_t SDIO_IT, FunctionalState NewState)
 828:/home/rdu/Workspace/project_templates/mcu/stm32_ws/src/libraries/STM32F4xx_StdPeriph_Driver/src/stm32f4xx_sdio.c **** {
 1083              		.loc 1 828 0
 1084              		.cfi_startproc
 1085              		@ args = 0, pretend = 0, frame = 8
 1086              		@ frame_needed = 0, uses_anonymous_args = 0
 1087              		@ link register save eliminated.
 1088 0000 82B0     		sub	sp, sp, #8
 1089              	.LCFI39:
 1090              		.cfi_def_cfa_offset 8
 1091 0002 0190     		str	r0, [sp, #4]
 1092 0004 0B46     		mov	r3, r1
 1093 0006 8DF80330 		strb	r3, [sp, #3]
 829:/home/rdu/Workspace/project_templates/mcu/stm32_ws/src/libraries/STM32F4xx_StdPeriph_Driver/src/stm32f4xx_sdio.c ****   /* Check the parameters */
 830:/home/rdu/Workspace/project_templates/mcu/stm32_ws/src/libraries/STM32F4xx_StdPeriph_Driver/src/stm32f4xx_sdio.c ****   assert_param(IS_SDIO_IT(SDIO_IT));
 831:/home/rdu/Workspace/project_templates/mcu/stm32_ws/src/libraries/STM32F4xx_StdPeriph_Driver/src/stm32f4xx_sdio.c ****   assert_param(IS_FUNCTIONAL_STATE(NewState));
 832:/home/rdu/Workspace/project_templates/mcu/stm32_ws/src/libraries/STM32F4xx_StdPeriph_Driver/src/stm32f4xx_sdio.c ****   
 833:/home/rdu/Workspace/project_templates/mcu/stm32_ws/src/libraries/STM32F4xx_StdPeriph_Driver/src/stm32f4xx_sdio.c ****   if (NewState != DISABLE)
 1094              		.loc 1 833 0
 1095 000a 9DF80330 		ldrb	r3, [sp, #3]	@ zero_extendqisi2
 1096 000e 002B     		cmp	r3, #0
 1097 0010 06D0     		beq	.L75
 834:/home/rdu/Workspace/project_templates/mcu/stm32_ws/src/libraries/STM32F4xx_StdPeriph_Driver/src/stm32f4xx_sdio.c ****   {
 835:/home/rdu/Workspace/project_templates/mcu/stm32_ws/src/libraries/STM32F4xx_StdPeriph_Driver/src/stm32f4xx_sdio.c ****     /* Enable the SDIO interrupts */
 836:/home/rdu/Workspace/project_templates/mcu/stm32_ws/src/libraries/STM32F4xx_StdPeriph_Driver/src/stm32f4xx_sdio.c ****     SDIO->MASK |= SDIO_IT;
 1098              		.loc 1 836 0
 1099 0012 084B     		ldr	r3, .L78
 1100 0014 DA6B     		ldr	r2, [r3, #60]
 1101 0016 0749     		ldr	r1, .L78
 1102 0018 019B     		ldr	r3, [sp, #4]
 1103 001a 1343     		orrs	r3, r3, r2
 1104 001c CB63     		str	r3, [r1, #60]
 837:/home/rdu/Workspace/project_templates/mcu/stm32_ws/src/libraries/STM32F4xx_StdPeriph_Driver/src/stm32f4xx_sdio.c ****   }
 838:/home/rdu/Workspace/project_templates/mcu/stm32_ws/src/libraries/STM32F4xx_StdPeriph_Driver/src/stm32f4xx_sdio.c ****   else
 839:/home/rdu/Workspace/project_templates/mcu/stm32_ws/src/libraries/STM32F4xx_StdPeriph_Driver/src/stm32f4xx_sdio.c ****   {
 840:/home/rdu/Workspace/project_templates/mcu/stm32_ws/src/libraries/STM32F4xx_StdPeriph_Driver/src/stm32f4xx_sdio.c ****     /* Disable the SDIO interrupts */
 841:/home/rdu/Workspace/project_templates/mcu/stm32_ws/src/libraries/STM32F4xx_StdPeriph_Driver/src/stm32f4xx_sdio.c ****     SDIO->MASK &= ~SDIO_IT;
 842:/home/rdu/Workspace/project_templates/mcu/stm32_ws/src/libraries/STM32F4xx_StdPeriph_Driver/src/stm32f4xx_sdio.c ****   } 
 843:/home/rdu/Workspace/project_templates/mcu/stm32_ws/src/libraries/STM32F4xx_StdPeriph_Driver/src/stm32f4xx_sdio.c **** }
 1105              		.loc 1 843 0
 1106 001e 06E0     		b	.L77
 1107              	.L75:
 841:/home/rdu/Workspace/project_templates/mcu/stm32_ws/src/libraries/STM32F4xx_StdPeriph_Driver/src/stm32f4xx_sdio.c ****   } 
 1108              		.loc 1 841 0
 1109 0020 044B     		ldr	r3, .L78
 1110 0022 DA6B     		ldr	r2, [r3, #60]
 1111 0024 019B     		ldr	r3, [sp, #4]
 1112 0026 DB43     		mvns	r3, r3
 1113 0028 0249     		ldr	r1, .L78
 1114 002a 1340     		ands	r3, r3, r2
 1115 002c CB63     		str	r3, [r1, #60]
 1116              	.L77:
 1117              		.loc 1 843 0
 1118 002e 00BF     		nop
 1119 0030 02B0     		add	sp, sp, #8
 1120              	.LCFI40:
 1121              		.cfi_def_cfa_offset 0
 1122              		@ sp needed
 1123 0032 7047     		bx	lr
 1124              	.L79:
 1125              		.align	2
 1126              	.L78:
 1127 0034 002C0140 		.word	1073818624
 1128              		.cfi_endproc
 1129              	.LFE148:
 1131              		.section	.text.SDIO_GetFlagStatus,"ax",%progbits
 1132              		.align	1
 1133              		.global	SDIO_GetFlagStatus
 1134              		.syntax unified
 1135              		.thumb
 1136              		.thumb_func
 1137              		.fpu fpv4-sp-d16
 1139              	SDIO_GetFlagStatus:
 1140              	.LFB149:
 844:/home/rdu/Workspace/project_templates/mcu/stm32_ws/src/libraries/STM32F4xx_StdPeriph_Driver/src/stm32f4xx_sdio.c **** 
 845:/home/rdu/Workspace/project_templates/mcu/stm32_ws/src/libraries/STM32F4xx_StdPeriph_Driver/src/stm32f4xx_sdio.c **** /**
 846:/home/rdu/Workspace/project_templates/mcu/stm32_ws/src/libraries/STM32F4xx_StdPeriph_Driver/src/stm32f4xx_sdio.c ****   * @brief  Checks whether the specified SDIO flag is set or not.
 847:/home/rdu/Workspace/project_templates/mcu/stm32_ws/src/libraries/STM32F4xx_StdPeriph_Driver/src/stm32f4xx_sdio.c ****   * @param  SDIO_FLAG: specifies the flag to check. 
 848:/home/rdu/Workspace/project_templates/mcu/stm32_ws/src/libraries/STM32F4xx_StdPeriph_Driver/src/stm32f4xx_sdio.c ****   *          This parameter can be one of the following values:
 849:/home/rdu/Workspace/project_templates/mcu/stm32_ws/src/libraries/STM32F4xx_StdPeriph_Driver/src/stm32f4xx_sdio.c ****   *            @arg SDIO_FLAG_CCRCFAIL: Command response received (CRC check failed)
 850:/home/rdu/Workspace/project_templates/mcu/stm32_ws/src/libraries/STM32F4xx_StdPeriph_Driver/src/stm32f4xx_sdio.c ****   *            @arg SDIO_FLAG_DCRCFAIL: Data block sent/received (CRC check failed)
 851:/home/rdu/Workspace/project_templates/mcu/stm32_ws/src/libraries/STM32F4xx_StdPeriph_Driver/src/stm32f4xx_sdio.c ****   *            @arg SDIO_FLAG_CTIMEOUT: Command response timeout
 852:/home/rdu/Workspace/project_templates/mcu/stm32_ws/src/libraries/STM32F4xx_StdPeriph_Driver/src/stm32f4xx_sdio.c ****   *            @arg SDIO_FLAG_DTIMEOUT: Data timeout
 853:/home/rdu/Workspace/project_templates/mcu/stm32_ws/src/libraries/STM32F4xx_StdPeriph_Driver/src/stm32f4xx_sdio.c ****   *            @arg SDIO_FLAG_TXUNDERR: Transmit FIFO underrun error
 854:/home/rdu/Workspace/project_templates/mcu/stm32_ws/src/libraries/STM32F4xx_StdPeriph_Driver/src/stm32f4xx_sdio.c ****   *            @arg SDIO_FLAG_RXOVERR:  Received FIFO overrun error
 855:/home/rdu/Workspace/project_templates/mcu/stm32_ws/src/libraries/STM32F4xx_StdPeriph_Driver/src/stm32f4xx_sdio.c ****   *            @arg SDIO_FLAG_CMDREND:  Command response received (CRC check passed)
 856:/home/rdu/Workspace/project_templates/mcu/stm32_ws/src/libraries/STM32F4xx_StdPeriph_Driver/src/stm32f4xx_sdio.c ****   *            @arg SDIO_FLAG_CMDSENT:  Command sent (no response required)
 857:/home/rdu/Workspace/project_templates/mcu/stm32_ws/src/libraries/STM32F4xx_StdPeriph_Driver/src/stm32f4xx_sdio.c ****   *            @arg SDIO_FLAG_DATAEND:  Data end (data counter, SDIDCOUNT, is zero)
 858:/home/rdu/Workspace/project_templates/mcu/stm32_ws/src/libraries/STM32F4xx_StdPeriph_Driver/src/stm32f4xx_sdio.c ****   *            @arg SDIO_FLAG_STBITERR: Start bit not detected on all data signals in wide bus mode
 859:/home/rdu/Workspace/project_templates/mcu/stm32_ws/src/libraries/STM32F4xx_StdPeriph_Driver/src/stm32f4xx_sdio.c ****   *            @arg SDIO_FLAG_DBCKEND:  Data block sent/received (CRC check passed)
 860:/home/rdu/Workspace/project_templates/mcu/stm32_ws/src/libraries/STM32F4xx_StdPeriph_Driver/src/stm32f4xx_sdio.c ****   *            @arg SDIO_FLAG_CMDACT:   Command transfer in progress
 861:/home/rdu/Workspace/project_templates/mcu/stm32_ws/src/libraries/STM32F4xx_StdPeriph_Driver/src/stm32f4xx_sdio.c ****   *            @arg SDIO_FLAG_TXACT:    Data transmit in progress
 862:/home/rdu/Workspace/project_templates/mcu/stm32_ws/src/libraries/STM32F4xx_StdPeriph_Driver/src/stm32f4xx_sdio.c ****   *            @arg SDIO_FLAG_RXACT:    Data receive in progress
 863:/home/rdu/Workspace/project_templates/mcu/stm32_ws/src/libraries/STM32F4xx_StdPeriph_Driver/src/stm32f4xx_sdio.c ****   *            @arg SDIO_FLAG_TXFIFOHE: Transmit FIFO Half Empty
 864:/home/rdu/Workspace/project_templates/mcu/stm32_ws/src/libraries/STM32F4xx_StdPeriph_Driver/src/stm32f4xx_sdio.c ****   *            @arg SDIO_FLAG_RXFIFOHF: Receive FIFO Half Full
 865:/home/rdu/Workspace/project_templates/mcu/stm32_ws/src/libraries/STM32F4xx_StdPeriph_Driver/src/stm32f4xx_sdio.c ****   *            @arg SDIO_FLAG_TXFIFOF:  Transmit FIFO full
 866:/home/rdu/Workspace/project_templates/mcu/stm32_ws/src/libraries/STM32F4xx_StdPeriph_Driver/src/stm32f4xx_sdio.c ****   *            @arg SDIO_FLAG_RXFIFOF:  Receive FIFO full
 867:/home/rdu/Workspace/project_templates/mcu/stm32_ws/src/libraries/STM32F4xx_StdPeriph_Driver/src/stm32f4xx_sdio.c ****   *            @arg SDIO_FLAG_TXFIFOE:  Transmit FIFO empty
 868:/home/rdu/Workspace/project_templates/mcu/stm32_ws/src/libraries/STM32F4xx_StdPeriph_Driver/src/stm32f4xx_sdio.c ****   *            @arg SDIO_FLAG_RXFIFOE:  Receive FIFO empty
 869:/home/rdu/Workspace/project_templates/mcu/stm32_ws/src/libraries/STM32F4xx_StdPeriph_Driver/src/stm32f4xx_sdio.c ****   *            @arg SDIO_FLAG_TXDAVL:   Data available in transmit FIFO
 870:/home/rdu/Workspace/project_templates/mcu/stm32_ws/src/libraries/STM32F4xx_StdPeriph_Driver/src/stm32f4xx_sdio.c ****   *            @arg SDIO_FLAG_RXDAVL:   Data available in receive FIFO
 871:/home/rdu/Workspace/project_templates/mcu/stm32_ws/src/libraries/STM32F4xx_StdPeriph_Driver/src/stm32f4xx_sdio.c ****   *            @arg SDIO_FLAG_SDIOIT:   SD I/O interrupt received
 872:/home/rdu/Workspace/project_templates/mcu/stm32_ws/src/libraries/STM32F4xx_StdPeriph_Driver/src/stm32f4xx_sdio.c ****   *            @arg SDIO_FLAG_CEATAEND: CE-ATA command completion signal received for CMD61
 873:/home/rdu/Workspace/project_templates/mcu/stm32_ws/src/libraries/STM32F4xx_StdPeriph_Driver/src/stm32f4xx_sdio.c ****   * @retval The new state of SDIO_FLAG (SET or RESET).
 874:/home/rdu/Workspace/project_templates/mcu/stm32_ws/src/libraries/STM32F4xx_StdPeriph_Driver/src/stm32f4xx_sdio.c ****   */
 875:/home/rdu/Workspace/project_templates/mcu/stm32_ws/src/libraries/STM32F4xx_StdPeriph_Driver/src/stm32f4xx_sdio.c **** FlagStatus SDIO_GetFlagStatus(uint32_t SDIO_FLAG)
 876:/home/rdu/Workspace/project_templates/mcu/stm32_ws/src/libraries/STM32F4xx_StdPeriph_Driver/src/stm32f4xx_sdio.c **** { 
 1141              		.loc 1 876 0
 1142              		.cfi_startproc
 1143              		@ args = 0, pretend = 0, frame = 16
 1144              		@ frame_needed = 0, uses_anonymous_args = 0
 1145              		@ link register save eliminated.
 1146 0000 84B0     		sub	sp, sp, #16
 1147              	.LCFI41:
 1148              		.cfi_def_cfa_offset 16
 1149 0002 0190     		str	r0, [sp, #4]
 877:/home/rdu/Workspace/project_templates/mcu/stm32_ws/src/libraries/STM32F4xx_StdPeriph_Driver/src/stm32f4xx_sdio.c ****   FlagStatus bitstatus = RESET;
 1150              		.loc 1 877 0
 1151 0004 0023     		movs	r3, #0
 1152 0006 8DF80F30 		strb	r3, [sp, #15]
 878:/home/rdu/Workspace/project_templates/mcu/stm32_ws/src/libraries/STM32F4xx_StdPeriph_Driver/src/stm32f4xx_sdio.c ****   
 879:/home/rdu/Workspace/project_templates/mcu/stm32_ws/src/libraries/STM32F4xx_StdPeriph_Driver/src/stm32f4xx_sdio.c ****   /* Check the parameters */
 880:/home/rdu/Workspace/project_templates/mcu/stm32_ws/src/libraries/STM32F4xx_StdPeriph_Driver/src/stm32f4xx_sdio.c ****   assert_param(IS_SDIO_FLAG(SDIO_FLAG));
 881:/home/rdu/Workspace/project_templates/mcu/stm32_ws/src/libraries/STM32F4xx_StdPeriph_Driver/src/stm32f4xx_sdio.c ****   
 882:/home/rdu/Workspace/project_templates/mcu/stm32_ws/src/libraries/STM32F4xx_StdPeriph_Driver/src/stm32f4xx_sdio.c ****   if ((SDIO->STA & SDIO_FLAG) != (uint32_t)RESET)
 1153              		.loc 1 882 0
 1154 000a 094B     		ldr	r3, .L84
 1155 000c 5A6B     		ldr	r2, [r3, #52]
 1156 000e 019B     		ldr	r3, [sp, #4]
 1157 0010 1340     		ands	r3, r3, r2
 1158 0012 002B     		cmp	r3, #0
 1159 0014 03D0     		beq	.L81
 883:/home/rdu/Workspace/project_templates/mcu/stm32_ws/src/libraries/STM32F4xx_StdPeriph_Driver/src/stm32f4xx_sdio.c ****   {
 884:/home/rdu/Workspace/project_templates/mcu/stm32_ws/src/libraries/STM32F4xx_StdPeriph_Driver/src/stm32f4xx_sdio.c ****     bitstatus = SET;
 1160              		.loc 1 884 0
 1161 0016 0123     		movs	r3, #1
 1162 0018 8DF80F30 		strb	r3, [sp, #15]
 1163 001c 02E0     		b	.L82
 1164              	.L81:
 885:/home/rdu/Workspace/project_templates/mcu/stm32_ws/src/libraries/STM32F4xx_StdPeriph_Driver/src/stm32f4xx_sdio.c ****   }
 886:/home/rdu/Workspace/project_templates/mcu/stm32_ws/src/libraries/STM32F4xx_StdPeriph_Driver/src/stm32f4xx_sdio.c ****   else
 887:/home/rdu/Workspace/project_templates/mcu/stm32_ws/src/libraries/STM32F4xx_StdPeriph_Driver/src/stm32f4xx_sdio.c ****   {
 888:/home/rdu/Workspace/project_templates/mcu/stm32_ws/src/libraries/STM32F4xx_StdPeriph_Driver/src/stm32f4xx_sdio.c ****     bitstatus = RESET;
 1165              		.loc 1 888 0
 1166 001e 0023     		movs	r3, #0
 1167 0020 8DF80F30 		strb	r3, [sp, #15]
 1168              	.L82:
 889:/home/rdu/Workspace/project_templates/mcu/stm32_ws/src/libraries/STM32F4xx_StdPeriph_Driver/src/stm32f4xx_sdio.c ****   }
 890:/home/rdu/Workspace/project_templates/mcu/stm32_ws/src/libraries/STM32F4xx_StdPeriph_Driver/src/stm32f4xx_sdio.c ****   return bitstatus;
 1169              		.loc 1 890 0
 1170 0024 9DF80F30 		ldrb	r3, [sp, #15]	@ zero_extendqisi2
 891:/home/rdu/Workspace/project_templates/mcu/stm32_ws/src/libraries/STM32F4xx_StdPeriph_Driver/src/stm32f4xx_sdio.c **** }
 1171              		.loc 1 891 0
 1172 0028 1846     		mov	r0, r3
 1173 002a 04B0     		add	sp, sp, #16
 1174              	.LCFI42:
 1175              		.cfi_def_cfa_offset 0
 1176              		@ sp needed
 1177 002c 7047     		bx	lr
 1178              	.L85:
 1179 002e 00BF     		.align	2
 1180              	.L84:
 1181 0030 002C0140 		.word	1073818624
 1182              		.cfi_endproc
 1183              	.LFE149:
 1185              		.section	.text.SDIO_ClearFlag,"ax",%progbits
 1186              		.align	1
 1187              		.global	SDIO_ClearFlag
 1188              		.syntax unified
 1189              		.thumb
 1190              		.thumb_func
 1191              		.fpu fpv4-sp-d16
 1193              	SDIO_ClearFlag:
 1194              	.LFB150:
 892:/home/rdu/Workspace/project_templates/mcu/stm32_ws/src/libraries/STM32F4xx_StdPeriph_Driver/src/stm32f4xx_sdio.c **** 
 893:/home/rdu/Workspace/project_templates/mcu/stm32_ws/src/libraries/STM32F4xx_StdPeriph_Driver/src/stm32f4xx_sdio.c **** /**
 894:/home/rdu/Workspace/project_templates/mcu/stm32_ws/src/libraries/STM32F4xx_StdPeriph_Driver/src/stm32f4xx_sdio.c ****   * @brief  Clears the SDIO's pending flags.
 895:/home/rdu/Workspace/project_templates/mcu/stm32_ws/src/libraries/STM32F4xx_StdPeriph_Driver/src/stm32f4xx_sdio.c ****   * @param  SDIO_FLAG: specifies the flag to clear.  
 896:/home/rdu/Workspace/project_templates/mcu/stm32_ws/src/libraries/STM32F4xx_StdPeriph_Driver/src/stm32f4xx_sdio.c ****   *          This parameter can be one or a combination of the following values:
 897:/home/rdu/Workspace/project_templates/mcu/stm32_ws/src/libraries/STM32F4xx_StdPeriph_Driver/src/stm32f4xx_sdio.c ****   *            @arg SDIO_FLAG_CCRCFAIL: Command response received (CRC check failed)
 898:/home/rdu/Workspace/project_templates/mcu/stm32_ws/src/libraries/STM32F4xx_StdPeriph_Driver/src/stm32f4xx_sdio.c ****   *            @arg SDIO_FLAG_DCRCFAIL: Data block sent/received (CRC check failed)
 899:/home/rdu/Workspace/project_templates/mcu/stm32_ws/src/libraries/STM32F4xx_StdPeriph_Driver/src/stm32f4xx_sdio.c ****   *            @arg SDIO_FLAG_CTIMEOUT: Command response timeout
 900:/home/rdu/Workspace/project_templates/mcu/stm32_ws/src/libraries/STM32F4xx_StdPeriph_Driver/src/stm32f4xx_sdio.c ****   *            @arg SDIO_FLAG_DTIMEOUT: Data timeout
 901:/home/rdu/Workspace/project_templates/mcu/stm32_ws/src/libraries/STM32F4xx_StdPeriph_Driver/src/stm32f4xx_sdio.c ****   *            @arg SDIO_FLAG_TXUNDERR: Transmit FIFO underrun error
 902:/home/rdu/Workspace/project_templates/mcu/stm32_ws/src/libraries/STM32F4xx_StdPeriph_Driver/src/stm32f4xx_sdio.c ****   *            @arg SDIO_FLAG_RXOVERR:  Received FIFO overrun error
 903:/home/rdu/Workspace/project_templates/mcu/stm32_ws/src/libraries/STM32F4xx_StdPeriph_Driver/src/stm32f4xx_sdio.c ****   *            @arg SDIO_FLAG_CMDREND:  Command response received (CRC check passed)
 904:/home/rdu/Workspace/project_templates/mcu/stm32_ws/src/libraries/STM32F4xx_StdPeriph_Driver/src/stm32f4xx_sdio.c ****   *            @arg SDIO_FLAG_CMDSENT:  Command sent (no response required)
 905:/home/rdu/Workspace/project_templates/mcu/stm32_ws/src/libraries/STM32F4xx_StdPeriph_Driver/src/stm32f4xx_sdio.c ****   *            @arg SDIO_FLAG_DATAEND:  Data end (data counter, SDIDCOUNT, is zero)
 906:/home/rdu/Workspace/project_templates/mcu/stm32_ws/src/libraries/STM32F4xx_StdPeriph_Driver/src/stm32f4xx_sdio.c ****   *            @arg SDIO_FLAG_STBITERR: Start bit not detected on all data signals in wide bus mode
 907:/home/rdu/Workspace/project_templates/mcu/stm32_ws/src/libraries/STM32F4xx_StdPeriph_Driver/src/stm32f4xx_sdio.c ****   *            @arg SDIO_FLAG_DBCKEND:  Data block sent/received (CRC check passed)
 908:/home/rdu/Workspace/project_templates/mcu/stm32_ws/src/libraries/STM32F4xx_StdPeriph_Driver/src/stm32f4xx_sdio.c ****   *            @arg SDIO_FLAG_SDIOIT:   SD I/O interrupt received
 909:/home/rdu/Workspace/project_templates/mcu/stm32_ws/src/libraries/STM32F4xx_StdPeriph_Driver/src/stm32f4xx_sdio.c ****   *            @arg SDIO_FLAG_CEATAEND: CE-ATA command completion signal received for CMD61
 910:/home/rdu/Workspace/project_templates/mcu/stm32_ws/src/libraries/STM32F4xx_StdPeriph_Driver/src/stm32f4xx_sdio.c ****   * @retval None
 911:/home/rdu/Workspace/project_templates/mcu/stm32_ws/src/libraries/STM32F4xx_StdPeriph_Driver/src/stm32f4xx_sdio.c ****   */
 912:/home/rdu/Workspace/project_templates/mcu/stm32_ws/src/libraries/STM32F4xx_StdPeriph_Driver/src/stm32f4xx_sdio.c **** void SDIO_ClearFlag(uint32_t SDIO_FLAG)
 913:/home/rdu/Workspace/project_templates/mcu/stm32_ws/src/libraries/STM32F4xx_StdPeriph_Driver/src/stm32f4xx_sdio.c **** { 
 1195              		.loc 1 913 0
 1196              		.cfi_startproc
 1197              		@ args = 0, pretend = 0, frame = 8
 1198              		@ frame_needed = 0, uses_anonymous_args = 0
 1199              		@ link register save eliminated.
 1200 0000 82B0     		sub	sp, sp, #8
 1201              	.LCFI43:
 1202              		.cfi_def_cfa_offset 8
 1203 0002 0190     		str	r0, [sp, #4]
 914:/home/rdu/Workspace/project_templates/mcu/stm32_ws/src/libraries/STM32F4xx_StdPeriph_Driver/src/stm32f4xx_sdio.c ****   /* Check the parameters */
 915:/home/rdu/Workspace/project_templates/mcu/stm32_ws/src/libraries/STM32F4xx_StdPeriph_Driver/src/stm32f4xx_sdio.c ****   assert_param(IS_SDIO_CLEAR_FLAG(SDIO_FLAG));
 916:/home/rdu/Workspace/project_templates/mcu/stm32_ws/src/libraries/STM32F4xx_StdPeriph_Driver/src/stm32f4xx_sdio.c ****    
 917:/home/rdu/Workspace/project_templates/mcu/stm32_ws/src/libraries/STM32F4xx_StdPeriph_Driver/src/stm32f4xx_sdio.c ****   SDIO->ICR = SDIO_FLAG;
 1204              		.loc 1 917 0
 1205 0004 024A     		ldr	r2, .L87
 1206 0006 019B     		ldr	r3, [sp, #4]
 1207 0008 9363     		str	r3, [r2, #56]
 918:/home/rdu/Workspace/project_templates/mcu/stm32_ws/src/libraries/STM32F4xx_StdPeriph_Driver/src/stm32f4xx_sdio.c **** }
 1208              		.loc 1 918 0
 1209 000a 00BF     		nop
 1210 000c 02B0     		add	sp, sp, #8
 1211              	.LCFI44:
 1212              		.cfi_def_cfa_offset 0
 1213              		@ sp needed
 1214 000e 7047     		bx	lr
 1215              	.L88:
 1216              		.align	2
 1217              	.L87:
 1218 0010 002C0140 		.word	1073818624
 1219              		.cfi_endproc
 1220              	.LFE150:
 1222              		.section	.text.SDIO_GetITStatus,"ax",%progbits
 1223              		.align	1
 1224              		.global	SDIO_GetITStatus
 1225              		.syntax unified
 1226              		.thumb
 1227              		.thumb_func
 1228              		.fpu fpv4-sp-d16
 1230              	SDIO_GetITStatus:
 1231              	.LFB151:
 919:/home/rdu/Workspace/project_templates/mcu/stm32_ws/src/libraries/STM32F4xx_StdPeriph_Driver/src/stm32f4xx_sdio.c **** 
 920:/home/rdu/Workspace/project_templates/mcu/stm32_ws/src/libraries/STM32F4xx_StdPeriph_Driver/src/stm32f4xx_sdio.c **** /**
 921:/home/rdu/Workspace/project_templates/mcu/stm32_ws/src/libraries/STM32F4xx_StdPeriph_Driver/src/stm32f4xx_sdio.c ****   * @brief  Checks whether the specified SDIO interrupt has occurred or not.
 922:/home/rdu/Workspace/project_templates/mcu/stm32_ws/src/libraries/STM32F4xx_StdPeriph_Driver/src/stm32f4xx_sdio.c ****   * @param  SDIO_IT: specifies the SDIO interrupt source to check. 
 923:/home/rdu/Workspace/project_templates/mcu/stm32_ws/src/libraries/STM32F4xx_StdPeriph_Driver/src/stm32f4xx_sdio.c ****   *          This parameter can be one of the following values:
 924:/home/rdu/Workspace/project_templates/mcu/stm32_ws/src/libraries/STM32F4xx_StdPeriph_Driver/src/stm32f4xx_sdio.c ****   *            @arg SDIO_IT_CCRCFAIL: Command response received (CRC check failed) interrupt
 925:/home/rdu/Workspace/project_templates/mcu/stm32_ws/src/libraries/STM32F4xx_StdPeriph_Driver/src/stm32f4xx_sdio.c ****   *            @arg SDIO_IT_DCRCFAIL: Data block sent/received (CRC check failed) interrupt
 926:/home/rdu/Workspace/project_templates/mcu/stm32_ws/src/libraries/STM32F4xx_StdPeriph_Driver/src/stm32f4xx_sdio.c ****   *            @arg SDIO_IT_CTIMEOUT: Command response timeout interrupt
 927:/home/rdu/Workspace/project_templates/mcu/stm32_ws/src/libraries/STM32F4xx_StdPeriph_Driver/src/stm32f4xx_sdio.c ****   *            @arg SDIO_IT_DTIMEOUT: Data timeout interrupt
 928:/home/rdu/Workspace/project_templates/mcu/stm32_ws/src/libraries/STM32F4xx_StdPeriph_Driver/src/stm32f4xx_sdio.c ****   *            @arg SDIO_IT_TXUNDERR: Transmit FIFO underrun error interrupt
 929:/home/rdu/Workspace/project_templates/mcu/stm32_ws/src/libraries/STM32F4xx_StdPeriph_Driver/src/stm32f4xx_sdio.c ****   *            @arg SDIO_IT_RXOVERR:  Received FIFO overrun error interrupt
 930:/home/rdu/Workspace/project_templates/mcu/stm32_ws/src/libraries/STM32F4xx_StdPeriph_Driver/src/stm32f4xx_sdio.c ****   *            @arg SDIO_IT_CMDREND:  Command response received (CRC check passed) interrupt
 931:/home/rdu/Workspace/project_templates/mcu/stm32_ws/src/libraries/STM32F4xx_StdPeriph_Driver/src/stm32f4xx_sdio.c ****   *            @arg SDIO_IT_CMDSENT:  Command sent (no response required) interrupt
 932:/home/rdu/Workspace/project_templates/mcu/stm32_ws/src/libraries/STM32F4xx_StdPeriph_Driver/src/stm32f4xx_sdio.c ****   *            @arg SDIO_IT_DATAEND:  Data end (data counter, SDIDCOUNT, is zero) interrupt
 933:/home/rdu/Workspace/project_templates/mcu/stm32_ws/src/libraries/STM32F4xx_StdPeriph_Driver/src/stm32f4xx_sdio.c ****   *            @arg SDIO_IT_STBITERR: Start bit not detected on all data signals in wide 
 934:/home/rdu/Workspace/project_templates/mcu/stm32_ws/src/libraries/STM32F4xx_StdPeriph_Driver/src/stm32f4xx_sdio.c ****   *                                   bus mode interrupt
 935:/home/rdu/Workspace/project_templates/mcu/stm32_ws/src/libraries/STM32F4xx_StdPeriph_Driver/src/stm32f4xx_sdio.c ****   *            @arg SDIO_IT_DBCKEND:  Data block sent/received (CRC check passed) interrupt
 936:/home/rdu/Workspace/project_templates/mcu/stm32_ws/src/libraries/STM32F4xx_StdPeriph_Driver/src/stm32f4xx_sdio.c ****   *            @arg SDIO_IT_CMDACT:   Command transfer in progress interrupt
 937:/home/rdu/Workspace/project_templates/mcu/stm32_ws/src/libraries/STM32F4xx_StdPeriph_Driver/src/stm32f4xx_sdio.c ****   *            @arg SDIO_IT_TXACT:    Data transmit in progress interrupt
 938:/home/rdu/Workspace/project_templates/mcu/stm32_ws/src/libraries/STM32F4xx_StdPeriph_Driver/src/stm32f4xx_sdio.c ****   *            @arg SDIO_IT_RXACT:    Data receive in progress interrupt
 939:/home/rdu/Workspace/project_templates/mcu/stm32_ws/src/libraries/STM32F4xx_StdPeriph_Driver/src/stm32f4xx_sdio.c ****   *            @arg SDIO_IT_TXFIFOHE: Transmit FIFO Half Empty interrupt
 940:/home/rdu/Workspace/project_templates/mcu/stm32_ws/src/libraries/STM32F4xx_StdPeriph_Driver/src/stm32f4xx_sdio.c ****   *            @arg SDIO_IT_RXFIFOHF: Receive FIFO Half Full interrupt
 941:/home/rdu/Workspace/project_templates/mcu/stm32_ws/src/libraries/STM32F4xx_StdPeriph_Driver/src/stm32f4xx_sdio.c ****   *            @arg SDIO_IT_TXFIFOF:  Transmit FIFO full interrupt
 942:/home/rdu/Workspace/project_templates/mcu/stm32_ws/src/libraries/STM32F4xx_StdPeriph_Driver/src/stm32f4xx_sdio.c ****   *            @arg SDIO_IT_RXFIFOF:  Receive FIFO full interrupt
 943:/home/rdu/Workspace/project_templates/mcu/stm32_ws/src/libraries/STM32F4xx_StdPeriph_Driver/src/stm32f4xx_sdio.c ****   *            @arg SDIO_IT_TXFIFOE:  Transmit FIFO empty interrupt
 944:/home/rdu/Workspace/project_templates/mcu/stm32_ws/src/libraries/STM32F4xx_StdPeriph_Driver/src/stm32f4xx_sdio.c ****   *            @arg SDIO_IT_RXFIFOE:  Receive FIFO empty interrupt
 945:/home/rdu/Workspace/project_templates/mcu/stm32_ws/src/libraries/STM32F4xx_StdPeriph_Driver/src/stm32f4xx_sdio.c ****   *            @arg SDIO_IT_TXDAVL:   Data available in transmit FIFO interrupt
 946:/home/rdu/Workspace/project_templates/mcu/stm32_ws/src/libraries/STM32F4xx_StdPeriph_Driver/src/stm32f4xx_sdio.c ****   *            @arg SDIO_IT_RXDAVL:   Data available in receive FIFO interrupt
 947:/home/rdu/Workspace/project_templates/mcu/stm32_ws/src/libraries/STM32F4xx_StdPeriph_Driver/src/stm32f4xx_sdio.c ****   *            @arg SDIO_IT_SDIOIT:   SD I/O interrupt received interrupt
 948:/home/rdu/Workspace/project_templates/mcu/stm32_ws/src/libraries/STM32F4xx_StdPeriph_Driver/src/stm32f4xx_sdio.c ****   *            @arg SDIO_IT_CEATAEND: CE-ATA command completion signal received for CMD61 interrupt
 949:/home/rdu/Workspace/project_templates/mcu/stm32_ws/src/libraries/STM32F4xx_StdPeriph_Driver/src/stm32f4xx_sdio.c ****   * @retval The new state of SDIO_IT (SET or RESET).
 950:/home/rdu/Workspace/project_templates/mcu/stm32_ws/src/libraries/STM32F4xx_StdPeriph_Driver/src/stm32f4xx_sdio.c ****   */
 951:/home/rdu/Workspace/project_templates/mcu/stm32_ws/src/libraries/STM32F4xx_StdPeriph_Driver/src/stm32f4xx_sdio.c **** ITStatus SDIO_GetITStatus(uint32_t SDIO_IT)
 952:/home/rdu/Workspace/project_templates/mcu/stm32_ws/src/libraries/STM32F4xx_StdPeriph_Driver/src/stm32f4xx_sdio.c **** { 
 1232              		.loc 1 952 0
 1233              		.cfi_startproc
 1234              		@ args = 0, pretend = 0, frame = 16
 1235              		@ frame_needed = 0, uses_anonymous_args = 0
 1236              		@ link register save eliminated.
 1237 0000 84B0     		sub	sp, sp, #16
 1238              	.LCFI45:
 1239              		.cfi_def_cfa_offset 16
 1240 0002 0190     		str	r0, [sp, #4]
 953:/home/rdu/Workspace/project_templates/mcu/stm32_ws/src/libraries/STM32F4xx_StdPeriph_Driver/src/stm32f4xx_sdio.c ****   ITStatus bitstatus = RESET;
 1241              		.loc 1 953 0
 1242 0004 0023     		movs	r3, #0
 1243 0006 8DF80F30 		strb	r3, [sp, #15]
 954:/home/rdu/Workspace/project_templates/mcu/stm32_ws/src/libraries/STM32F4xx_StdPeriph_Driver/src/stm32f4xx_sdio.c ****   
 955:/home/rdu/Workspace/project_templates/mcu/stm32_ws/src/libraries/STM32F4xx_StdPeriph_Driver/src/stm32f4xx_sdio.c ****   /* Check the parameters */
 956:/home/rdu/Workspace/project_templates/mcu/stm32_ws/src/libraries/STM32F4xx_StdPeriph_Driver/src/stm32f4xx_sdio.c ****   assert_param(IS_SDIO_GET_IT(SDIO_IT));
 957:/home/rdu/Workspace/project_templates/mcu/stm32_ws/src/libraries/STM32F4xx_StdPeriph_Driver/src/stm32f4xx_sdio.c ****   if ((SDIO->STA & SDIO_IT) != (uint32_t)RESET)  
 1244              		.loc 1 957 0
 1245 000a 094B     		ldr	r3, .L93
 1246 000c 5A6B     		ldr	r2, [r3, #52]
 1247 000e 019B     		ldr	r3, [sp, #4]
 1248 0010 1340     		ands	r3, r3, r2
 1249 0012 002B     		cmp	r3, #0
 1250 0014 03D0     		beq	.L90
 958:/home/rdu/Workspace/project_templates/mcu/stm32_ws/src/libraries/STM32F4xx_StdPeriph_Driver/src/stm32f4xx_sdio.c ****   {
 959:/home/rdu/Workspace/project_templates/mcu/stm32_ws/src/libraries/STM32F4xx_StdPeriph_Driver/src/stm32f4xx_sdio.c ****     bitstatus = SET;
 1251              		.loc 1 959 0
 1252 0016 0123     		movs	r3, #1
 1253 0018 8DF80F30 		strb	r3, [sp, #15]
 1254 001c 02E0     		b	.L91
 1255              	.L90:
 960:/home/rdu/Workspace/project_templates/mcu/stm32_ws/src/libraries/STM32F4xx_StdPeriph_Driver/src/stm32f4xx_sdio.c ****   }
 961:/home/rdu/Workspace/project_templates/mcu/stm32_ws/src/libraries/STM32F4xx_StdPeriph_Driver/src/stm32f4xx_sdio.c ****   else
 962:/home/rdu/Workspace/project_templates/mcu/stm32_ws/src/libraries/STM32F4xx_StdPeriph_Driver/src/stm32f4xx_sdio.c ****   {
 963:/home/rdu/Workspace/project_templates/mcu/stm32_ws/src/libraries/STM32F4xx_StdPeriph_Driver/src/stm32f4xx_sdio.c ****     bitstatus = RESET;
 1256              		.loc 1 963 0
 1257 001e 0023     		movs	r3, #0
 1258 0020 8DF80F30 		strb	r3, [sp, #15]
 1259              	.L91:
 964:/home/rdu/Workspace/project_templates/mcu/stm32_ws/src/libraries/STM32F4xx_StdPeriph_Driver/src/stm32f4xx_sdio.c ****   }
 965:/home/rdu/Workspace/project_templates/mcu/stm32_ws/src/libraries/STM32F4xx_StdPeriph_Driver/src/stm32f4xx_sdio.c ****   return bitstatus;
 1260              		.loc 1 965 0
 1261 0024 9DF80F30 		ldrb	r3, [sp, #15]	@ zero_extendqisi2
 966:/home/rdu/Workspace/project_templates/mcu/stm32_ws/src/libraries/STM32F4xx_StdPeriph_Driver/src/stm32f4xx_sdio.c **** }
 1262              		.loc 1 966 0
 1263 0028 1846     		mov	r0, r3
 1264 002a 04B0     		add	sp, sp, #16
 1265              	.LCFI46:
 1266              		.cfi_def_cfa_offset 0
 1267              		@ sp needed
 1268 002c 7047     		bx	lr
 1269              	.L94:
 1270 002e 00BF     		.align	2
 1271              	.L93:
 1272 0030 002C0140 		.word	1073818624
 1273              		.cfi_endproc
 1274              	.LFE151:
 1276              		.section	.text.SDIO_ClearITPendingBit,"ax",%progbits
 1277              		.align	1
 1278              		.global	SDIO_ClearITPendingBit
 1279              		.syntax unified
 1280              		.thumb
 1281              		.thumb_func
 1282              		.fpu fpv4-sp-d16
 1284              	SDIO_ClearITPendingBit:
 1285              	.LFB152:
 967:/home/rdu/Workspace/project_templates/mcu/stm32_ws/src/libraries/STM32F4xx_StdPeriph_Driver/src/stm32f4xx_sdio.c **** 
 968:/home/rdu/Workspace/project_templates/mcu/stm32_ws/src/libraries/STM32F4xx_StdPeriph_Driver/src/stm32f4xx_sdio.c **** /**
 969:/home/rdu/Workspace/project_templates/mcu/stm32_ws/src/libraries/STM32F4xx_StdPeriph_Driver/src/stm32f4xx_sdio.c ****   * @brief  Clears the SDIO's interrupt pending bits.
 970:/home/rdu/Workspace/project_templates/mcu/stm32_ws/src/libraries/STM32F4xx_StdPeriph_Driver/src/stm32f4xx_sdio.c ****   * @param  SDIO_IT: specifies the interrupt pending bit to clear. 
 971:/home/rdu/Workspace/project_templates/mcu/stm32_ws/src/libraries/STM32F4xx_StdPeriph_Driver/src/stm32f4xx_sdio.c ****   *          This parameter can be one or a combination of the following values:
 972:/home/rdu/Workspace/project_templates/mcu/stm32_ws/src/libraries/STM32F4xx_StdPeriph_Driver/src/stm32f4xx_sdio.c ****   *            @arg SDIO_IT_CCRCFAIL: Command response received (CRC check failed) interrupt
 973:/home/rdu/Workspace/project_templates/mcu/stm32_ws/src/libraries/STM32F4xx_StdPeriph_Driver/src/stm32f4xx_sdio.c ****   *            @arg SDIO_IT_DCRCFAIL: Data block sent/received (CRC check failed) interrupt
 974:/home/rdu/Workspace/project_templates/mcu/stm32_ws/src/libraries/STM32F4xx_StdPeriph_Driver/src/stm32f4xx_sdio.c ****   *            @arg SDIO_IT_CTIMEOUT: Command response timeout interrupt
 975:/home/rdu/Workspace/project_templates/mcu/stm32_ws/src/libraries/STM32F4xx_StdPeriph_Driver/src/stm32f4xx_sdio.c ****   *            @arg SDIO_IT_DTIMEOUT: Data timeout interrupt
 976:/home/rdu/Workspace/project_templates/mcu/stm32_ws/src/libraries/STM32F4xx_StdPeriph_Driver/src/stm32f4xx_sdio.c ****   *            @arg SDIO_IT_TXUNDERR: Transmit FIFO underrun error interrupt
 977:/home/rdu/Workspace/project_templates/mcu/stm32_ws/src/libraries/STM32F4xx_StdPeriph_Driver/src/stm32f4xx_sdio.c ****   *            @arg SDIO_IT_RXOVERR:  Received FIFO overrun error interrupt
 978:/home/rdu/Workspace/project_templates/mcu/stm32_ws/src/libraries/STM32F4xx_StdPeriph_Driver/src/stm32f4xx_sdio.c ****   *            @arg SDIO_IT_CMDREND:  Command response received (CRC check passed) interrupt
 979:/home/rdu/Workspace/project_templates/mcu/stm32_ws/src/libraries/STM32F4xx_StdPeriph_Driver/src/stm32f4xx_sdio.c ****   *            @arg SDIO_IT_CMDSENT:  Command sent (no response required) interrupt
 980:/home/rdu/Workspace/project_templates/mcu/stm32_ws/src/libraries/STM32F4xx_StdPeriph_Driver/src/stm32f4xx_sdio.c ****   *            @arg SDIO_IT_DATAEND:  Data end (data counter, SDIO_DCOUNT, is zero) interrupt
 981:/home/rdu/Workspace/project_templates/mcu/stm32_ws/src/libraries/STM32F4xx_StdPeriph_Driver/src/stm32f4xx_sdio.c ****   *            @arg SDIO_IT_STBITERR: Start bit not detected on all data signals in wide 
 982:/home/rdu/Workspace/project_templates/mcu/stm32_ws/src/libraries/STM32F4xx_StdPeriph_Driver/src/stm32f4xx_sdio.c ****   *                                   bus mode interrupt
 983:/home/rdu/Workspace/project_templates/mcu/stm32_ws/src/libraries/STM32F4xx_StdPeriph_Driver/src/stm32f4xx_sdio.c ****   *            @arg SDIO_IT_SDIOIT:   SD I/O interrupt received interrupt
 984:/home/rdu/Workspace/project_templates/mcu/stm32_ws/src/libraries/STM32F4xx_StdPeriph_Driver/src/stm32f4xx_sdio.c ****   *            @arg SDIO_IT_CEATAEND: CE-ATA command completion signal received for CMD61
 985:/home/rdu/Workspace/project_templates/mcu/stm32_ws/src/libraries/STM32F4xx_StdPeriph_Driver/src/stm32f4xx_sdio.c ****   * @retval None
 986:/home/rdu/Workspace/project_templates/mcu/stm32_ws/src/libraries/STM32F4xx_StdPeriph_Driver/src/stm32f4xx_sdio.c ****   */
 987:/home/rdu/Workspace/project_templates/mcu/stm32_ws/src/libraries/STM32F4xx_StdPeriph_Driver/src/stm32f4xx_sdio.c **** void SDIO_ClearITPendingBit(uint32_t SDIO_IT)
 988:/home/rdu/Workspace/project_templates/mcu/stm32_ws/src/libraries/STM32F4xx_StdPeriph_Driver/src/stm32f4xx_sdio.c **** { 
 1286              		.loc 1 988 0
 1287              		.cfi_startproc
 1288              		@ args = 0, pretend = 0, frame = 8
 1289              		@ frame_needed = 0, uses_anonymous_args = 0
 1290              		@ link register save eliminated.
 1291 0000 82B0     		sub	sp, sp, #8
 1292              	.LCFI47:
 1293              		.cfi_def_cfa_offset 8
 1294 0002 0190     		str	r0, [sp, #4]
 989:/home/rdu/Workspace/project_templates/mcu/stm32_ws/src/libraries/STM32F4xx_StdPeriph_Driver/src/stm32f4xx_sdio.c ****   /* Check the parameters */
 990:/home/rdu/Workspace/project_templates/mcu/stm32_ws/src/libraries/STM32F4xx_StdPeriph_Driver/src/stm32f4xx_sdio.c ****   assert_param(IS_SDIO_CLEAR_IT(SDIO_IT));
 991:/home/rdu/Workspace/project_templates/mcu/stm32_ws/src/libraries/STM32F4xx_StdPeriph_Driver/src/stm32f4xx_sdio.c ****    
 992:/home/rdu/Workspace/project_templates/mcu/stm32_ws/src/libraries/STM32F4xx_StdPeriph_Driver/src/stm32f4xx_sdio.c ****   SDIO->ICR = SDIO_IT;
 1295              		.loc 1 992 0
 1296 0004 024A     		ldr	r2, .L96
 1297 0006 019B     		ldr	r3, [sp, #4]
 1298 0008 9363     		str	r3, [r2, #56]
 993:/home/rdu/Workspace/project_templates/mcu/stm32_ws/src/libraries/STM32F4xx_StdPeriph_Driver/src/stm32f4xx_sdio.c **** }
 1299              		.loc 1 993 0
 1300 000a 00BF     		nop
 1301 000c 02B0     		add	sp, sp, #8
 1302              	.LCFI48:
 1303              		.cfi_def_cfa_offset 0
 1304              		@ sp needed
 1305 000e 7047     		bx	lr
 1306              	.L97:
 1307              		.align	2
 1308              	.L96:
 1309 0010 002C0140 		.word	1073818624
 1310              		.cfi_endproc
 1311              	.LFE152:
 1313              		.text
 1314              	.Letext0:
 1315              		.file 2 "/home/rdu/Software/gcc-arm-none-eabi-7-2017-q4-major/arm-none-eabi/include/machine/_defau
 1316              		.file 3 "/home/rdu/Software/gcc-arm-none-eabi-7-2017-q4-major/arm-none-eabi/include/sys/_stdint.h"
 1317              		.file 4 "/home/rdu/Workspace/project_templates/mcu/stm32_ws/src/libraries/CMSIS/CMSIS_STM32F4/Incl
 1318              		.file 5 "/home/rdu/Workspace/project_templates/mcu/stm32_ws/src/libraries/CMSIS/CMSIS_STM32F4/Devi
 1319              		.file 6 "/home/rdu/Workspace/project_templates/mcu/stm32_ws/src/libraries/CMSIS/CMSIS_STM32F4/Devi
 1320              		.file 7 "/home/rdu/Workspace/project_templates/mcu/stm32_ws/src/libraries/STM32F4xx_StdPeriph_Driv