   1              		.cpu cortex-m4
   2              		.eabi_attribute 27, 1
   3              		.eabi_attribute 28, 1
   4              		.eabi_attribute 23, 1
   5              		.eabi_attribute 24, 1
   6              		.eabi_attribute 25, 1
   7              		.eabi_attribute 26, 1
   8              		.eabi_attribute 30, 6
   9              		.eabi_attribute 34, 1
  10              		.eabi_attribute 18, 4
  11              		.file	"stm32f4xx_rtc.c"
  12              		.text
  13              	.Ltext0:
  14              		.cfi_sections	.debug_frame
  15              		.section	.text.RTC_DeInit,"ax",%progbits
  16              		.align	1
  17              		.global	RTC_DeInit
  18              		.syntax unified
  19              		.thumb
  20              		.thumb_func
  21              		.fpu fpv4-sp-d16
  23              	RTC_DeInit:
  24              	.LFB123:
  25              		.file 1 "/home/rdu/Workspace/project_templates/mcu/stm32_ws/src/libraries/STM32F4xx_StdPeriph_Driv
   1:/home/rdu/Workspace/project_templates/mcu/stm32_ws/src/libraries/STM32F4xx_StdPeriph_Driver/src/stm32f4xx_rtc.c **** /**
   2:/home/rdu/Workspace/project_templates/mcu/stm32_ws/src/libraries/STM32F4xx_StdPeriph_Driver/src/stm32f4xx_rtc.c ****   ******************************************************************************
   3:/home/rdu/Workspace/project_templates/mcu/stm32_ws/src/libraries/STM32F4xx_StdPeriph_Driver/src/stm32f4xx_rtc.c ****   * @file    stm32f4xx_rtc.c
   4:/home/rdu/Workspace/project_templates/mcu/stm32_ws/src/libraries/STM32F4xx_StdPeriph_Driver/src/stm32f4xx_rtc.c ****   * @author  MCD Application Team
   5:/home/rdu/Workspace/project_templates/mcu/stm32_ws/src/libraries/STM32F4xx_StdPeriph_Driver/src/stm32f4xx_rtc.c ****   * @version V1.8.0
   6:/home/rdu/Workspace/project_templates/mcu/stm32_ws/src/libraries/STM32F4xx_StdPeriph_Driver/src/stm32f4xx_rtc.c ****   * @date    04-November-2016
   7:/home/rdu/Workspace/project_templates/mcu/stm32_ws/src/libraries/STM32F4xx_StdPeriph_Driver/src/stm32f4xx_rtc.c ****   * @brief   This file provides firmware functions to manage the following 
   8:/home/rdu/Workspace/project_templates/mcu/stm32_ws/src/libraries/STM32F4xx_StdPeriph_Driver/src/stm32f4xx_rtc.c ****   *          functionalities of the Real-Time Clock (RTC) peripheral:
   9:/home/rdu/Workspace/project_templates/mcu/stm32_ws/src/libraries/STM32F4xx_StdPeriph_Driver/src/stm32f4xx_rtc.c ****   *           + Initialization
  10:/home/rdu/Workspace/project_templates/mcu/stm32_ws/src/libraries/STM32F4xx_StdPeriph_Driver/src/stm32f4xx_rtc.c ****   *           + Calendar (Time and Date) configuration
  11:/home/rdu/Workspace/project_templates/mcu/stm32_ws/src/libraries/STM32F4xx_StdPeriph_Driver/src/stm32f4xx_rtc.c ****   *           + Alarms (Alarm A and Alarm B) configuration
  12:/home/rdu/Workspace/project_templates/mcu/stm32_ws/src/libraries/STM32F4xx_StdPeriph_Driver/src/stm32f4xx_rtc.c ****   *           + WakeUp Timer configuration
  13:/home/rdu/Workspace/project_templates/mcu/stm32_ws/src/libraries/STM32F4xx_StdPeriph_Driver/src/stm32f4xx_rtc.c ****   *           + Daylight Saving configuration
  14:/home/rdu/Workspace/project_templates/mcu/stm32_ws/src/libraries/STM32F4xx_StdPeriph_Driver/src/stm32f4xx_rtc.c ****   *           + Output pin Configuration
  15:/home/rdu/Workspace/project_templates/mcu/stm32_ws/src/libraries/STM32F4xx_StdPeriph_Driver/src/stm32f4xx_rtc.c ****   *           + Coarse digital Calibration configuration
  16:/home/rdu/Workspace/project_templates/mcu/stm32_ws/src/libraries/STM32F4xx_StdPeriph_Driver/src/stm32f4xx_rtc.c ****   *           + Smooth digital Calibration configuration
  17:/home/rdu/Workspace/project_templates/mcu/stm32_ws/src/libraries/STM32F4xx_StdPeriph_Driver/src/stm32f4xx_rtc.c ****   *           + TimeStamp configuration
  18:/home/rdu/Workspace/project_templates/mcu/stm32_ws/src/libraries/STM32F4xx_StdPeriph_Driver/src/stm32f4xx_rtc.c ****   *           + Tampers configuration
  19:/home/rdu/Workspace/project_templates/mcu/stm32_ws/src/libraries/STM32F4xx_StdPeriph_Driver/src/stm32f4xx_rtc.c ****   *           + Backup Data Registers configuration
  20:/home/rdu/Workspace/project_templates/mcu/stm32_ws/src/libraries/STM32F4xx_StdPeriph_Driver/src/stm32f4xx_rtc.c ****   *           + Shift control synchronisation    
  21:/home/rdu/Workspace/project_templates/mcu/stm32_ws/src/libraries/STM32F4xx_StdPeriph_Driver/src/stm32f4xx_rtc.c ****   *           + RTC Tamper and TimeStamp Pins Selection and Output Type Config configuration
  22:/home/rdu/Workspace/project_templates/mcu/stm32_ws/src/libraries/STM32F4xx_StdPeriph_Driver/src/stm32f4xx_rtc.c ****   *           + Interrupts and flags management
  23:/home/rdu/Workspace/project_templates/mcu/stm32_ws/src/libraries/STM32F4xx_StdPeriph_Driver/src/stm32f4xx_rtc.c ****   *
  24:/home/rdu/Workspace/project_templates/mcu/stm32_ws/src/libraries/STM32F4xx_StdPeriph_Driver/src/stm32f4xx_rtc.c **** @verbatim
  25:/home/rdu/Workspace/project_templates/mcu/stm32_ws/src/libraries/STM32F4xx_StdPeriph_Driver/src/stm32f4xx_rtc.c **** 
  26:/home/rdu/Workspace/project_templates/mcu/stm32_ws/src/libraries/STM32F4xx_StdPeriph_Driver/src/stm32f4xx_rtc.c ****  ===================================================================
  27:/home/rdu/Workspace/project_templates/mcu/stm32_ws/src/libraries/STM32F4xx_StdPeriph_Driver/src/stm32f4xx_rtc.c ****               ##### Backup Domain Operating Condition #####
  28:/home/rdu/Workspace/project_templates/mcu/stm32_ws/src/libraries/STM32F4xx_StdPeriph_Driver/src/stm32f4xx_rtc.c ****  ===================================================================
  29:/home/rdu/Workspace/project_templates/mcu/stm32_ws/src/libraries/STM32F4xx_StdPeriph_Driver/src/stm32f4xx_rtc.c ****  [..] The real-time clock (RTC), the RTC backup registers, and the backup 
  30:/home/rdu/Workspace/project_templates/mcu/stm32_ws/src/libraries/STM32F4xx_StdPeriph_Driver/src/stm32f4xx_rtc.c ****       SRAM (BKP SRAM) can be powered from the VBAT voltage when the main 
  31:/home/rdu/Workspace/project_templates/mcu/stm32_ws/src/libraries/STM32F4xx_StdPeriph_Driver/src/stm32f4xx_rtc.c ****       VDD supply is powered off.
  32:/home/rdu/Workspace/project_templates/mcu/stm32_ws/src/libraries/STM32F4xx_StdPeriph_Driver/src/stm32f4xx_rtc.c ****       To retain the content of the RTC backup registers, backup SRAM, and supply 
  33:/home/rdu/Workspace/project_templates/mcu/stm32_ws/src/libraries/STM32F4xx_StdPeriph_Driver/src/stm32f4xx_rtc.c ****       the RTC when VDD is turned off, VBAT pin can be connected to an optional 
  34:/home/rdu/Workspace/project_templates/mcu/stm32_ws/src/libraries/STM32F4xx_StdPeriph_Driver/src/stm32f4xx_rtc.c ****       standby voltage supplied by a battery or by another source.
  35:/home/rdu/Workspace/project_templates/mcu/stm32_ws/src/libraries/STM32F4xx_StdPeriph_Driver/src/stm32f4xx_rtc.c **** 
  36:/home/rdu/Workspace/project_templates/mcu/stm32_ws/src/libraries/STM32F4xx_StdPeriph_Driver/src/stm32f4xx_rtc.c ****  [..] To allow the RTC to operate even when the main digital supply (VDD) is turned
  37:/home/rdu/Workspace/project_templates/mcu/stm32_ws/src/libraries/STM32F4xx_StdPeriph_Driver/src/stm32f4xx_rtc.c ****       off, the VBAT pin powers the following blocks:
  38:/home/rdu/Workspace/project_templates/mcu/stm32_ws/src/libraries/STM32F4xx_StdPeriph_Driver/src/stm32f4xx_rtc.c ****    (#) The RTC
  39:/home/rdu/Workspace/project_templates/mcu/stm32_ws/src/libraries/STM32F4xx_StdPeriph_Driver/src/stm32f4xx_rtc.c ****    (#) The LSE oscillator
  40:/home/rdu/Workspace/project_templates/mcu/stm32_ws/src/libraries/STM32F4xx_StdPeriph_Driver/src/stm32f4xx_rtc.c ****    (#) The backup SRAM when the low power backup regulator is enabled
  41:/home/rdu/Workspace/project_templates/mcu/stm32_ws/src/libraries/STM32F4xx_StdPeriph_Driver/src/stm32f4xx_rtc.c ****    (#) PC13 to PC15 I/Os, plus PI8 I/O (when available)
  42:/home/rdu/Workspace/project_templates/mcu/stm32_ws/src/libraries/STM32F4xx_StdPeriph_Driver/src/stm32f4xx_rtc.c ****   
  43:/home/rdu/Workspace/project_templates/mcu/stm32_ws/src/libraries/STM32F4xx_StdPeriph_Driver/src/stm32f4xx_rtc.c ****  [..] When the backup domain is supplied by VDD (analog switch connected to VDD),
  44:/home/rdu/Workspace/project_templates/mcu/stm32_ws/src/libraries/STM32F4xx_StdPeriph_Driver/src/stm32f4xx_rtc.c ****       the following functions are available:
  45:/home/rdu/Workspace/project_templates/mcu/stm32_ws/src/libraries/STM32F4xx_StdPeriph_Driver/src/stm32f4xx_rtc.c ****    (#) PC14 and PC15 can be used as either GPIO or LSE pins
  46:/home/rdu/Workspace/project_templates/mcu/stm32_ws/src/libraries/STM32F4xx_StdPeriph_Driver/src/stm32f4xx_rtc.c ****    (#) PC13 can be used as a GPIO or as the RTC_AF1 pin
  47:/home/rdu/Workspace/project_templates/mcu/stm32_ws/src/libraries/STM32F4xx_StdPeriph_Driver/src/stm32f4xx_rtc.c ****    (#) PI8 can be used as a GPIO or as the RTC_AF2 pin
  48:/home/rdu/Workspace/project_templates/mcu/stm32_ws/src/libraries/STM32F4xx_StdPeriph_Driver/src/stm32f4xx_rtc.c ****   
  49:/home/rdu/Workspace/project_templates/mcu/stm32_ws/src/libraries/STM32F4xx_StdPeriph_Driver/src/stm32f4xx_rtc.c ****  [..] When the backup domain is supplied by VBAT (analog switch connected to VBAT 
  50:/home/rdu/Workspace/project_templates/mcu/stm32_ws/src/libraries/STM32F4xx_StdPeriph_Driver/src/stm32f4xx_rtc.c ****       because VDD is not present), the following functions are available:
  51:/home/rdu/Workspace/project_templates/mcu/stm32_ws/src/libraries/STM32F4xx_StdPeriph_Driver/src/stm32f4xx_rtc.c ****    (#) PC14 and PC15 can be used as LSE pins only
  52:/home/rdu/Workspace/project_templates/mcu/stm32_ws/src/libraries/STM32F4xx_StdPeriph_Driver/src/stm32f4xx_rtc.c ****    (#) PC13 can be used as the RTC_AF1 pin 
  53:/home/rdu/Workspace/project_templates/mcu/stm32_ws/src/libraries/STM32F4xx_StdPeriph_Driver/src/stm32f4xx_rtc.c ****    (#) PI8 can be used as the RTC_AF2 pin
  54:/home/rdu/Workspace/project_templates/mcu/stm32_ws/src/libraries/STM32F4xx_StdPeriph_Driver/src/stm32f4xx_rtc.c ****   
  55:/home/rdu/Workspace/project_templates/mcu/stm32_ws/src/libraries/STM32F4xx_StdPeriph_Driver/src/stm32f4xx_rtc.c ****             
  56:/home/rdu/Workspace/project_templates/mcu/stm32_ws/src/libraries/STM32F4xx_StdPeriph_Driver/src/stm32f4xx_rtc.c ****                    ##### Backup Domain Reset #####
  57:/home/rdu/Workspace/project_templates/mcu/stm32_ws/src/libraries/STM32F4xx_StdPeriph_Driver/src/stm32f4xx_rtc.c ****  ===================================================================
  58:/home/rdu/Workspace/project_templates/mcu/stm32_ws/src/libraries/STM32F4xx_StdPeriph_Driver/src/stm32f4xx_rtc.c ****  [..] The backup domain reset sets all RTC registers and the RCC_BDCR register 
  59:/home/rdu/Workspace/project_templates/mcu/stm32_ws/src/libraries/STM32F4xx_StdPeriph_Driver/src/stm32f4xx_rtc.c ****       to their reset values. The BKPSRAM is not affected by this reset. The only
  60:/home/rdu/Workspace/project_templates/mcu/stm32_ws/src/libraries/STM32F4xx_StdPeriph_Driver/src/stm32f4xx_rtc.c ****       way of resetting the BKPSRAM is through the Flash interface by requesting 
  61:/home/rdu/Workspace/project_templates/mcu/stm32_ws/src/libraries/STM32F4xx_StdPeriph_Driver/src/stm32f4xx_rtc.c ****       a protection level change from 1 to 0.
  62:/home/rdu/Workspace/project_templates/mcu/stm32_ws/src/libraries/STM32F4xx_StdPeriph_Driver/src/stm32f4xx_rtc.c ****  [..] A backup domain reset is generated when one of the following events occurs:
  63:/home/rdu/Workspace/project_templates/mcu/stm32_ws/src/libraries/STM32F4xx_StdPeriph_Driver/src/stm32f4xx_rtc.c ****    (#) Software reset, triggered by setting the BDRST bit in the 
  64:/home/rdu/Workspace/project_templates/mcu/stm32_ws/src/libraries/STM32F4xx_StdPeriph_Driver/src/stm32f4xx_rtc.c ****        RCC Backup domain control register (RCC_BDCR). You can use the
  65:/home/rdu/Workspace/project_templates/mcu/stm32_ws/src/libraries/STM32F4xx_StdPeriph_Driver/src/stm32f4xx_rtc.c ****        RCC_BackupResetCmd().
  66:/home/rdu/Workspace/project_templates/mcu/stm32_ws/src/libraries/STM32F4xx_StdPeriph_Driver/src/stm32f4xx_rtc.c ****    (#) VDD or VBAT power on, if both supplies have previously been powered off.
  67:/home/rdu/Workspace/project_templates/mcu/stm32_ws/src/libraries/STM32F4xx_StdPeriph_Driver/src/stm32f4xx_rtc.c ****   
  68:/home/rdu/Workspace/project_templates/mcu/stm32_ws/src/libraries/STM32F4xx_StdPeriph_Driver/src/stm32f4xx_rtc.c **** 
  69:/home/rdu/Workspace/project_templates/mcu/stm32_ws/src/libraries/STM32F4xx_StdPeriph_Driver/src/stm32f4xx_rtc.c ****                    ##### Backup Domain Access #####
  70:/home/rdu/Workspace/project_templates/mcu/stm32_ws/src/libraries/STM32F4xx_StdPeriph_Driver/src/stm32f4xx_rtc.c ****  ===================================================================
  71:/home/rdu/Workspace/project_templates/mcu/stm32_ws/src/libraries/STM32F4xx_StdPeriph_Driver/src/stm32f4xx_rtc.c ****  [..] After reset, the backup domain (RTC registers, RTC backup data 
  72:/home/rdu/Workspace/project_templates/mcu/stm32_ws/src/libraries/STM32F4xx_StdPeriph_Driver/src/stm32f4xx_rtc.c ****       registers and backup SRAM) is protected against possible unwanted write 
  73:/home/rdu/Workspace/project_templates/mcu/stm32_ws/src/libraries/STM32F4xx_StdPeriph_Driver/src/stm32f4xx_rtc.c ****       accesses. 
  74:/home/rdu/Workspace/project_templates/mcu/stm32_ws/src/libraries/STM32F4xx_StdPeriph_Driver/src/stm32f4xx_rtc.c ****  [..] To enable access to the RTC Domain and RTC registers, proceed as follows:
  75:/home/rdu/Workspace/project_templates/mcu/stm32_ws/src/libraries/STM32F4xx_StdPeriph_Driver/src/stm32f4xx_rtc.c ****    (+) Enable the Power Controller (PWR) APB1 interface clock using the
  76:/home/rdu/Workspace/project_templates/mcu/stm32_ws/src/libraries/STM32F4xx_StdPeriph_Driver/src/stm32f4xx_rtc.c ****        RCC_APB1PeriphClockCmd() function.
  77:/home/rdu/Workspace/project_templates/mcu/stm32_ws/src/libraries/STM32F4xx_StdPeriph_Driver/src/stm32f4xx_rtc.c ****    (+) Enable access to RTC domain using the PWR_BackupAccessCmd() function.
  78:/home/rdu/Workspace/project_templates/mcu/stm32_ws/src/libraries/STM32F4xx_StdPeriph_Driver/src/stm32f4xx_rtc.c ****    (+) Select the RTC clock source using the RCC_RTCCLKConfig() function.
  79:/home/rdu/Workspace/project_templates/mcu/stm32_ws/src/libraries/STM32F4xx_StdPeriph_Driver/src/stm32f4xx_rtc.c ****    (+) Enable RTC Clock using the RCC_RTCCLKCmd() function.
  80:/home/rdu/Workspace/project_templates/mcu/stm32_ws/src/libraries/STM32F4xx_StdPeriph_Driver/src/stm32f4xx_rtc.c ****   
  81:/home/rdu/Workspace/project_templates/mcu/stm32_ws/src/libraries/STM32F4xx_StdPeriph_Driver/src/stm32f4xx_rtc.c ****   
  82:/home/rdu/Workspace/project_templates/mcu/stm32_ws/src/libraries/STM32F4xx_StdPeriph_Driver/src/stm32f4xx_rtc.c ****                   ##### How to use RTC Driver #####
  83:/home/rdu/Workspace/project_templates/mcu/stm32_ws/src/libraries/STM32F4xx_StdPeriph_Driver/src/stm32f4xx_rtc.c ****  ===================================================================
  84:/home/rdu/Workspace/project_templates/mcu/stm32_ws/src/libraries/STM32F4xx_StdPeriph_Driver/src/stm32f4xx_rtc.c ****  [..] 
  85:/home/rdu/Workspace/project_templates/mcu/stm32_ws/src/libraries/STM32F4xx_StdPeriph_Driver/src/stm32f4xx_rtc.c ****    (+) Enable the RTC domain access (see description in the section above)
  86:/home/rdu/Workspace/project_templates/mcu/stm32_ws/src/libraries/STM32F4xx_StdPeriph_Driver/src/stm32f4xx_rtc.c ****    (+) Configure the RTC Prescaler (Asynchronous and Synchronous) and RTC hour 
  87:/home/rdu/Workspace/project_templates/mcu/stm32_ws/src/libraries/STM32F4xx_StdPeriph_Driver/src/stm32f4xx_rtc.c ****        format using the RTC_Init() function.
  88:/home/rdu/Workspace/project_templates/mcu/stm32_ws/src/libraries/STM32F4xx_StdPeriph_Driver/src/stm32f4xx_rtc.c ****   
  89:/home/rdu/Workspace/project_templates/mcu/stm32_ws/src/libraries/STM32F4xx_StdPeriph_Driver/src/stm32f4xx_rtc.c ****  *** Time and Date configuration ***
  90:/home/rdu/Workspace/project_templates/mcu/stm32_ws/src/libraries/STM32F4xx_StdPeriph_Driver/src/stm32f4xx_rtc.c ****  ===================================
  91:/home/rdu/Workspace/project_templates/mcu/stm32_ws/src/libraries/STM32F4xx_StdPeriph_Driver/src/stm32f4xx_rtc.c ****  [..] 
  92:/home/rdu/Workspace/project_templates/mcu/stm32_ws/src/libraries/STM32F4xx_StdPeriph_Driver/src/stm32f4xx_rtc.c ****    (+) To configure the RTC Calendar (Time and Date) use the RTC_SetTime()
  93:/home/rdu/Workspace/project_templates/mcu/stm32_ws/src/libraries/STM32F4xx_StdPeriph_Driver/src/stm32f4xx_rtc.c ****        and RTC_SetDate() functions.
  94:/home/rdu/Workspace/project_templates/mcu/stm32_ws/src/libraries/STM32F4xx_StdPeriph_Driver/src/stm32f4xx_rtc.c ****    (+) To read the RTC Calendar, use the RTC_GetTime() and RTC_GetDate() functions.
  95:/home/rdu/Workspace/project_templates/mcu/stm32_ws/src/libraries/STM32F4xx_StdPeriph_Driver/src/stm32f4xx_rtc.c ****    (+) Use the RTC_DayLightSavingConfig() function to add or sub one
  96:/home/rdu/Workspace/project_templates/mcu/stm32_ws/src/libraries/STM32F4xx_StdPeriph_Driver/src/stm32f4xx_rtc.c ****        hour to the RTC Calendar.    
  97:/home/rdu/Workspace/project_templates/mcu/stm32_ws/src/libraries/STM32F4xx_StdPeriph_Driver/src/stm32f4xx_rtc.c ****   
  98:/home/rdu/Workspace/project_templates/mcu/stm32_ws/src/libraries/STM32F4xx_StdPeriph_Driver/src/stm32f4xx_rtc.c ****  *** Alarm configuration ***
  99:/home/rdu/Workspace/project_templates/mcu/stm32_ws/src/libraries/STM32F4xx_StdPeriph_Driver/src/stm32f4xx_rtc.c ****  ===========================
 100:/home/rdu/Workspace/project_templates/mcu/stm32_ws/src/libraries/STM32F4xx_StdPeriph_Driver/src/stm32f4xx_rtc.c ****  [..]
 101:/home/rdu/Workspace/project_templates/mcu/stm32_ws/src/libraries/STM32F4xx_StdPeriph_Driver/src/stm32f4xx_rtc.c ****    (+) To configure the RTC Alarm use the RTC_SetAlarm() function.
 102:/home/rdu/Workspace/project_templates/mcu/stm32_ws/src/libraries/STM32F4xx_StdPeriph_Driver/src/stm32f4xx_rtc.c ****    (+) Enable the selected RTC Alarm using the RTC_AlarmCmd() function
 103:/home/rdu/Workspace/project_templates/mcu/stm32_ws/src/libraries/STM32F4xx_StdPeriph_Driver/src/stm32f4xx_rtc.c ****    (+) To read the RTC Alarm, use the RTC_GetAlarm() function.
 104:/home/rdu/Workspace/project_templates/mcu/stm32_ws/src/libraries/STM32F4xx_StdPeriph_Driver/src/stm32f4xx_rtc.c ****    (+) To read the RTC alarm SubSecond, use the RTC_GetAlarmSubSecond() function.
 105:/home/rdu/Workspace/project_templates/mcu/stm32_ws/src/libraries/STM32F4xx_StdPeriph_Driver/src/stm32f4xx_rtc.c ****   
 106:/home/rdu/Workspace/project_templates/mcu/stm32_ws/src/libraries/STM32F4xx_StdPeriph_Driver/src/stm32f4xx_rtc.c ****  *** RTC Wakeup configuration ***
 107:/home/rdu/Workspace/project_templates/mcu/stm32_ws/src/libraries/STM32F4xx_StdPeriph_Driver/src/stm32f4xx_rtc.c ****  ================================
 108:/home/rdu/Workspace/project_templates/mcu/stm32_ws/src/libraries/STM32F4xx_StdPeriph_Driver/src/stm32f4xx_rtc.c ****  [..] 
 109:/home/rdu/Workspace/project_templates/mcu/stm32_ws/src/libraries/STM32F4xx_StdPeriph_Driver/src/stm32f4xx_rtc.c ****    (+) Configure the RTC Wakeup Clock source use the RTC_WakeUpClockConfig()
 110:/home/rdu/Workspace/project_templates/mcu/stm32_ws/src/libraries/STM32F4xx_StdPeriph_Driver/src/stm32f4xx_rtc.c ****        function.
 111:/home/rdu/Workspace/project_templates/mcu/stm32_ws/src/libraries/STM32F4xx_StdPeriph_Driver/src/stm32f4xx_rtc.c ****    (+) Configure the RTC WakeUp Counter using the RTC_SetWakeUpCounter() function  
 112:/home/rdu/Workspace/project_templates/mcu/stm32_ws/src/libraries/STM32F4xx_StdPeriph_Driver/src/stm32f4xx_rtc.c ****    (+) Enable the RTC WakeUp using the RTC_WakeUpCmd() function  
 113:/home/rdu/Workspace/project_templates/mcu/stm32_ws/src/libraries/STM32F4xx_StdPeriph_Driver/src/stm32f4xx_rtc.c ****    (+) To read the RTC WakeUp Counter register, use the RTC_GetWakeUpCounter() 
 114:/home/rdu/Workspace/project_templates/mcu/stm32_ws/src/libraries/STM32F4xx_StdPeriph_Driver/src/stm32f4xx_rtc.c ****        function.
 115:/home/rdu/Workspace/project_templates/mcu/stm32_ws/src/libraries/STM32F4xx_StdPeriph_Driver/src/stm32f4xx_rtc.c ****   
 116:/home/rdu/Workspace/project_templates/mcu/stm32_ws/src/libraries/STM32F4xx_StdPeriph_Driver/src/stm32f4xx_rtc.c ****  *** Outputs configuration ***
 117:/home/rdu/Workspace/project_templates/mcu/stm32_ws/src/libraries/STM32F4xx_StdPeriph_Driver/src/stm32f4xx_rtc.c ****  =============================
 118:/home/rdu/Workspace/project_templates/mcu/stm32_ws/src/libraries/STM32F4xx_StdPeriph_Driver/src/stm32f4xx_rtc.c ****  [..] The RTC has 2 different outputs:
 119:/home/rdu/Workspace/project_templates/mcu/stm32_ws/src/libraries/STM32F4xx_StdPeriph_Driver/src/stm32f4xx_rtc.c ****    (+) AFO_ALARM: this output is used to manage the RTC Alarm A, Alarm B
 120:/home/rdu/Workspace/project_templates/mcu/stm32_ws/src/libraries/STM32F4xx_StdPeriph_Driver/src/stm32f4xx_rtc.c ****        and WaKeUp signals. To output the selected RTC signal on RTC_AF1 pin, use the 
 121:/home/rdu/Workspace/project_templates/mcu/stm32_ws/src/libraries/STM32F4xx_StdPeriph_Driver/src/stm32f4xx_rtc.c ****        RTC_OutputConfig() function.                
 122:/home/rdu/Workspace/project_templates/mcu/stm32_ws/src/libraries/STM32F4xx_StdPeriph_Driver/src/stm32f4xx_rtc.c ****    (+) AFO_CALIB: this output is 512Hz signal or 1Hz. To output the RTC Clock on 
 123:/home/rdu/Workspace/project_templates/mcu/stm32_ws/src/libraries/STM32F4xx_StdPeriph_Driver/src/stm32f4xx_rtc.c ****        RTC_AF1 pin, use the RTC_CalibOutputCmd() function.
 124:/home/rdu/Workspace/project_templates/mcu/stm32_ws/src/libraries/STM32F4xx_StdPeriph_Driver/src/stm32f4xx_rtc.c ****   
 125:/home/rdu/Workspace/project_templates/mcu/stm32_ws/src/libraries/STM32F4xx_StdPeriph_Driver/src/stm32f4xx_rtc.c ****  *** Smooth digital Calibration configuration ***
 126:/home/rdu/Workspace/project_templates/mcu/stm32_ws/src/libraries/STM32F4xx_StdPeriph_Driver/src/stm32f4xx_rtc.c ****  ================================================    
 127:/home/rdu/Workspace/project_templates/mcu/stm32_ws/src/libraries/STM32F4xx_StdPeriph_Driver/src/stm32f4xx_rtc.c ****  [..]
 128:/home/rdu/Workspace/project_templates/mcu/stm32_ws/src/libraries/STM32F4xx_StdPeriph_Driver/src/stm32f4xx_rtc.c ****    (+) Configure the RTC Original Digital Calibration Value and the corresponding
 129:/home/rdu/Workspace/project_templates/mcu/stm32_ws/src/libraries/STM32F4xx_StdPeriph_Driver/src/stm32f4xx_rtc.c ****        calibration cycle period (32s,16s and 8s) using the RTC_SmoothCalibConfig() 
 130:/home/rdu/Workspace/project_templates/mcu/stm32_ws/src/libraries/STM32F4xx_StdPeriph_Driver/src/stm32f4xx_rtc.c ****        function.
 131:/home/rdu/Workspace/project_templates/mcu/stm32_ws/src/libraries/STM32F4xx_StdPeriph_Driver/src/stm32f4xx_rtc.c ****   
 132:/home/rdu/Workspace/project_templates/mcu/stm32_ws/src/libraries/STM32F4xx_StdPeriph_Driver/src/stm32f4xx_rtc.c ****  *** Coarse digital Calibration configuration ***
 133:/home/rdu/Workspace/project_templates/mcu/stm32_ws/src/libraries/STM32F4xx_StdPeriph_Driver/src/stm32f4xx_rtc.c ****  ================================================
 134:/home/rdu/Workspace/project_templates/mcu/stm32_ws/src/libraries/STM32F4xx_StdPeriph_Driver/src/stm32f4xx_rtc.c ****  [..]
 135:/home/rdu/Workspace/project_templates/mcu/stm32_ws/src/libraries/STM32F4xx_StdPeriph_Driver/src/stm32f4xx_rtc.c ****    (+) Configure the RTC Coarse Calibration Value and the corresponding
 136:/home/rdu/Workspace/project_templates/mcu/stm32_ws/src/libraries/STM32F4xx_StdPeriph_Driver/src/stm32f4xx_rtc.c ****        sign using the RTC_CoarseCalibConfig() function.
 137:/home/rdu/Workspace/project_templates/mcu/stm32_ws/src/libraries/STM32F4xx_StdPeriph_Driver/src/stm32f4xx_rtc.c ****    (+) Enable the RTC Coarse Calibration using the RTC_CoarseCalibCmd() function  
 138:/home/rdu/Workspace/project_templates/mcu/stm32_ws/src/libraries/STM32F4xx_StdPeriph_Driver/src/stm32f4xx_rtc.c ****   
 139:/home/rdu/Workspace/project_templates/mcu/stm32_ws/src/libraries/STM32F4xx_StdPeriph_Driver/src/stm32f4xx_rtc.c ****  *** TimeStamp configuration ***
 140:/home/rdu/Workspace/project_templates/mcu/stm32_ws/src/libraries/STM32F4xx_StdPeriph_Driver/src/stm32f4xx_rtc.c ****  ===============================
 141:/home/rdu/Workspace/project_templates/mcu/stm32_ws/src/libraries/STM32F4xx_StdPeriph_Driver/src/stm32f4xx_rtc.c ****  [..]
 142:/home/rdu/Workspace/project_templates/mcu/stm32_ws/src/libraries/STM32F4xx_StdPeriph_Driver/src/stm32f4xx_rtc.c ****    (+) Configure the RTC_AF1 trigger and enables the RTC TimeStamp using the RTC
 143:/home/rdu/Workspace/project_templates/mcu/stm32_ws/src/libraries/STM32F4xx_StdPeriph_Driver/src/stm32f4xx_rtc.c ****       _TimeStampCmd() function.
 144:/home/rdu/Workspace/project_templates/mcu/stm32_ws/src/libraries/STM32F4xx_StdPeriph_Driver/src/stm32f4xx_rtc.c ****    (+) To read the RTC TimeStamp Time and Date register, use the RTC_GetTimeStamp()
 145:/home/rdu/Workspace/project_templates/mcu/stm32_ws/src/libraries/STM32F4xx_StdPeriph_Driver/src/stm32f4xx_rtc.c ****        function.
 146:/home/rdu/Workspace/project_templates/mcu/stm32_ws/src/libraries/STM32F4xx_StdPeriph_Driver/src/stm32f4xx_rtc.c ****    (+) To read the RTC TimeStamp SubSecond register, use the 
 147:/home/rdu/Workspace/project_templates/mcu/stm32_ws/src/libraries/STM32F4xx_StdPeriph_Driver/src/stm32f4xx_rtc.c ****        RTC_GetTimeStampSubSecond() function.
 148:/home/rdu/Workspace/project_templates/mcu/stm32_ws/src/libraries/STM32F4xx_StdPeriph_Driver/src/stm32f4xx_rtc.c ****    (+) The TAMPER1 alternate function can be mapped either to RTC_AF1(PC13)
 149:/home/rdu/Workspace/project_templates/mcu/stm32_ws/src/libraries/STM32F4xx_StdPeriph_Driver/src/stm32f4xx_rtc.c ****        or RTC_AF2 (PI8) depending on the value of TAMP1INSEL bit in 
 150:/home/rdu/Workspace/project_templates/mcu/stm32_ws/src/libraries/STM32F4xx_StdPeriph_Driver/src/stm32f4xx_rtc.c ****        RTC_TAFCR register. You can use the  RTC_TamperPinSelection() function to
 151:/home/rdu/Workspace/project_templates/mcu/stm32_ws/src/libraries/STM32F4xx_StdPeriph_Driver/src/stm32f4xx_rtc.c ****        select the corresponding pin.     
 152:/home/rdu/Workspace/project_templates/mcu/stm32_ws/src/libraries/STM32F4xx_StdPeriph_Driver/src/stm32f4xx_rtc.c ****   
 153:/home/rdu/Workspace/project_templates/mcu/stm32_ws/src/libraries/STM32F4xx_StdPeriph_Driver/src/stm32f4xx_rtc.c ****  *** Tamper configuration ***
 154:/home/rdu/Workspace/project_templates/mcu/stm32_ws/src/libraries/STM32F4xx_StdPeriph_Driver/src/stm32f4xx_rtc.c ****  ============================
 155:/home/rdu/Workspace/project_templates/mcu/stm32_ws/src/libraries/STM32F4xx_StdPeriph_Driver/src/stm32f4xx_rtc.c ****  [..]
 156:/home/rdu/Workspace/project_templates/mcu/stm32_ws/src/libraries/STM32F4xx_StdPeriph_Driver/src/stm32f4xx_rtc.c ****    (+) Enable the RTC Tamper using the RTC_TamperCmd() function.
 157:/home/rdu/Workspace/project_templates/mcu/stm32_ws/src/libraries/STM32F4xx_StdPeriph_Driver/src/stm32f4xx_rtc.c ****    (+) Configure the Tamper filter count using RTC_TamperFilterConfig()
 158:/home/rdu/Workspace/project_templates/mcu/stm32_ws/src/libraries/STM32F4xx_StdPeriph_Driver/src/stm32f4xx_rtc.c ****        function. 
 159:/home/rdu/Workspace/project_templates/mcu/stm32_ws/src/libraries/STM32F4xx_StdPeriph_Driver/src/stm32f4xx_rtc.c ****    (+) Configure the RTC Tamper trigger Edge or Level according to the Tamper 
 160:/home/rdu/Workspace/project_templates/mcu/stm32_ws/src/libraries/STM32F4xx_StdPeriph_Driver/src/stm32f4xx_rtc.c ****        filter (if equal to 0 Edge else Level) value using the RTC_TamperConfig() 
 161:/home/rdu/Workspace/project_templates/mcu/stm32_ws/src/libraries/STM32F4xx_StdPeriph_Driver/src/stm32f4xx_rtc.c ****        function.
 162:/home/rdu/Workspace/project_templates/mcu/stm32_ws/src/libraries/STM32F4xx_StdPeriph_Driver/src/stm32f4xx_rtc.c ****    (+) Configure the Tamper sampling frequency using RTC_TamperSamplingFreqConfig()
 163:/home/rdu/Workspace/project_templates/mcu/stm32_ws/src/libraries/STM32F4xx_StdPeriph_Driver/src/stm32f4xx_rtc.c ****        function.
 164:/home/rdu/Workspace/project_templates/mcu/stm32_ws/src/libraries/STM32F4xx_StdPeriph_Driver/src/stm32f4xx_rtc.c ****    (+) Configure the Tamper precharge or discharge duration using 
 165:/home/rdu/Workspace/project_templates/mcu/stm32_ws/src/libraries/STM32F4xx_StdPeriph_Driver/src/stm32f4xx_rtc.c ****        RTC_TamperPinsPrechargeDuration() function.
 166:/home/rdu/Workspace/project_templates/mcu/stm32_ws/src/libraries/STM32F4xx_StdPeriph_Driver/src/stm32f4xx_rtc.c ****    (+) Enable the Tamper Pull-UP using RTC_TamperPullUpDisableCmd() function.
 167:/home/rdu/Workspace/project_templates/mcu/stm32_ws/src/libraries/STM32F4xx_StdPeriph_Driver/src/stm32f4xx_rtc.c ****    (+) Enable the Time stamp on Tamper detection event using  
 168:/home/rdu/Workspace/project_templates/mcu/stm32_ws/src/libraries/STM32F4xx_StdPeriph_Driver/src/stm32f4xx_rtc.c ****        TC_TSOnTamperDetecCmd() function.
 169:/home/rdu/Workspace/project_templates/mcu/stm32_ws/src/libraries/STM32F4xx_StdPeriph_Driver/src/stm32f4xx_rtc.c ****    (+) The TIMESTAMP alternate function can be mapped to either RTC_AF1 
 170:/home/rdu/Workspace/project_templates/mcu/stm32_ws/src/libraries/STM32F4xx_StdPeriph_Driver/src/stm32f4xx_rtc.c ****        or RTC_AF2 depending on the value of the TSINSEL bit in the RTC_TAFCR 
 171:/home/rdu/Workspace/project_templates/mcu/stm32_ws/src/libraries/STM32F4xx_StdPeriph_Driver/src/stm32f4xx_rtc.c ****        register. You can use the  RTC_TimeStampPinSelection() function to select 
 172:/home/rdu/Workspace/project_templates/mcu/stm32_ws/src/libraries/STM32F4xx_StdPeriph_Driver/src/stm32f4xx_rtc.c ****        the corresponding pin. 
 173:/home/rdu/Workspace/project_templates/mcu/stm32_ws/src/libraries/STM32F4xx_StdPeriph_Driver/src/stm32f4xx_rtc.c ****   
 174:/home/rdu/Workspace/project_templates/mcu/stm32_ws/src/libraries/STM32F4xx_StdPeriph_Driver/src/stm32f4xx_rtc.c ****  *** Backup Data Registers configuration ***
 175:/home/rdu/Workspace/project_templates/mcu/stm32_ws/src/libraries/STM32F4xx_StdPeriph_Driver/src/stm32f4xx_rtc.c ****  ===========================================
 176:/home/rdu/Workspace/project_templates/mcu/stm32_ws/src/libraries/STM32F4xx_StdPeriph_Driver/src/stm32f4xx_rtc.c ****  [..]
 177:/home/rdu/Workspace/project_templates/mcu/stm32_ws/src/libraries/STM32F4xx_StdPeriph_Driver/src/stm32f4xx_rtc.c ****    (+) To write to the RTC Backup Data registers, use the RTC_WriteBackupRegister()
 178:/home/rdu/Workspace/project_templates/mcu/stm32_ws/src/libraries/STM32F4xx_StdPeriph_Driver/src/stm32f4xx_rtc.c ****        function.  
 179:/home/rdu/Workspace/project_templates/mcu/stm32_ws/src/libraries/STM32F4xx_StdPeriph_Driver/src/stm32f4xx_rtc.c ****    (+) To read the RTC Backup Data registers, use the RTC_ReadBackupRegister()
 180:/home/rdu/Workspace/project_templates/mcu/stm32_ws/src/libraries/STM32F4xx_StdPeriph_Driver/src/stm32f4xx_rtc.c ****        function.
 181:/home/rdu/Workspace/project_templates/mcu/stm32_ws/src/libraries/STM32F4xx_StdPeriph_Driver/src/stm32f4xx_rtc.c ****    
 182:/home/rdu/Workspace/project_templates/mcu/stm32_ws/src/libraries/STM32F4xx_StdPeriph_Driver/src/stm32f4xx_rtc.c **** 
 183:/home/rdu/Workspace/project_templates/mcu/stm32_ws/src/libraries/STM32F4xx_StdPeriph_Driver/src/stm32f4xx_rtc.c ****                   ##### RTC and low power modes #####
 184:/home/rdu/Workspace/project_templates/mcu/stm32_ws/src/libraries/STM32F4xx_StdPeriph_Driver/src/stm32f4xx_rtc.c ****  ===================================================================
 185:/home/rdu/Workspace/project_templates/mcu/stm32_ws/src/libraries/STM32F4xx_StdPeriph_Driver/src/stm32f4xx_rtc.c ****  [..] The MCU can be woken up from a low power mode by an RTC alternate 
 186:/home/rdu/Workspace/project_templates/mcu/stm32_ws/src/libraries/STM32F4xx_StdPeriph_Driver/src/stm32f4xx_rtc.c ****       function.
 187:/home/rdu/Workspace/project_templates/mcu/stm32_ws/src/libraries/STM32F4xx_StdPeriph_Driver/src/stm32f4xx_rtc.c ****  [..] The RTC alternate functions are the RTC alarms (Alarm A and Alarm B), 
 188:/home/rdu/Workspace/project_templates/mcu/stm32_ws/src/libraries/STM32F4xx_StdPeriph_Driver/src/stm32f4xx_rtc.c ****       RTC wakeup, RTC tamper event detection and RTC time stamp event detection.
 189:/home/rdu/Workspace/project_templates/mcu/stm32_ws/src/libraries/STM32F4xx_StdPeriph_Driver/src/stm32f4xx_rtc.c ****       These RTC alternate functions can wake up the system from the Stop and 
 190:/home/rdu/Workspace/project_templates/mcu/stm32_ws/src/libraries/STM32F4xx_StdPeriph_Driver/src/stm32f4xx_rtc.c ****       Standby lowpower modes.
 191:/home/rdu/Workspace/project_templates/mcu/stm32_ws/src/libraries/STM32F4xx_StdPeriph_Driver/src/stm32f4xx_rtc.c ****  [..] The system can also wake up from low power modes without depending 
 192:/home/rdu/Workspace/project_templates/mcu/stm32_ws/src/libraries/STM32F4xx_StdPeriph_Driver/src/stm32f4xx_rtc.c ****       on an external interrupt (Auto-wakeup mode), by using the RTC alarm 
 193:/home/rdu/Workspace/project_templates/mcu/stm32_ws/src/libraries/STM32F4xx_StdPeriph_Driver/src/stm32f4xx_rtc.c ****       or the RTC wakeup events.
 194:/home/rdu/Workspace/project_templates/mcu/stm32_ws/src/libraries/STM32F4xx_StdPeriph_Driver/src/stm32f4xx_rtc.c ****  [..] The RTC provides a programmable time base for waking up from the 
 195:/home/rdu/Workspace/project_templates/mcu/stm32_ws/src/libraries/STM32F4xx_StdPeriph_Driver/src/stm32f4xx_rtc.c ****       Stop or Standby mode at regular intervals.
 196:/home/rdu/Workspace/project_templates/mcu/stm32_ws/src/libraries/STM32F4xx_StdPeriph_Driver/src/stm32f4xx_rtc.c ****       Wakeup from STOP and Standby modes is possible only when the RTC clock source
 197:/home/rdu/Workspace/project_templates/mcu/stm32_ws/src/libraries/STM32F4xx_StdPeriph_Driver/src/stm32f4xx_rtc.c ****       is LSE or LSI.
 198:/home/rdu/Workspace/project_templates/mcu/stm32_ws/src/libraries/STM32F4xx_StdPeriph_Driver/src/stm32f4xx_rtc.c ****   
 199:/home/rdu/Workspace/project_templates/mcu/stm32_ws/src/libraries/STM32F4xx_StdPeriph_Driver/src/stm32f4xx_rtc.c **** 
 200:/home/rdu/Workspace/project_templates/mcu/stm32_ws/src/libraries/STM32F4xx_StdPeriph_Driver/src/stm32f4xx_rtc.c ****           ##### Selection of RTC_AF1 alternate functions #####
 201:/home/rdu/Workspace/project_templates/mcu/stm32_ws/src/libraries/STM32F4xx_StdPeriph_Driver/src/stm32f4xx_rtc.c ****  ===================================================================
 202:/home/rdu/Workspace/project_templates/mcu/stm32_ws/src/libraries/STM32F4xx_StdPeriph_Driver/src/stm32f4xx_rtc.c ****  [..] The RTC_AF1 pin (PC13) can be used for the following purposes:
 203:/home/rdu/Workspace/project_templates/mcu/stm32_ws/src/libraries/STM32F4xx_StdPeriph_Driver/src/stm32f4xx_rtc.c ****    (+) AFO_ALARM output
 204:/home/rdu/Workspace/project_templates/mcu/stm32_ws/src/libraries/STM32F4xx_StdPeriph_Driver/src/stm32f4xx_rtc.c ****    (+) AFO_CALIB output
 205:/home/rdu/Workspace/project_templates/mcu/stm32_ws/src/libraries/STM32F4xx_StdPeriph_Driver/src/stm32f4xx_rtc.c ****    (+) AFI_TAMPER
 206:/home/rdu/Workspace/project_templates/mcu/stm32_ws/src/libraries/STM32F4xx_StdPeriph_Driver/src/stm32f4xx_rtc.c ****    (+) AFI_TIMESTAMP
 207:/home/rdu/Workspace/project_templates/mcu/stm32_ws/src/libraries/STM32F4xx_StdPeriph_Driver/src/stm32f4xx_rtc.c ****  
 208:/home/rdu/Workspace/project_templates/mcu/stm32_ws/src/libraries/STM32F4xx_StdPeriph_Driver/src/stm32f4xx_rtc.c ****  [..]   
 209:/home/rdu/Workspace/project_templates/mcu/stm32_ws/src/libraries/STM32F4xx_StdPeriph_Driver/src/stm32f4xx_rtc.c ****    +-----------------------------------------------------------------------------------------------
 210:/home/rdu/Workspace/project_templates/mcu/stm32_ws/src/libraries/STM32F4xx_StdPeriph_Driver/src/stm32f4xx_rtc.c ****    |     Pin         |AFO_ALARM |AFO_CALIB |AFI_TAMPER |AFI_TIMESTAMP | TAMP1INSEL |   TSINSEL    |
 211:/home/rdu/Workspace/project_templates/mcu/stm32_ws/src/libraries/STM32F4xx_StdPeriph_Driver/src/stm32f4xx_rtc.c ****    |  configuration  | ENABLED  | ENABLED  |  ENABLED  |   ENABLED    |TAMPER1 pin |TIMESTAMP pin |
 212:/home/rdu/Workspace/project_templates/mcu/stm32_ws/src/libraries/STM32F4xx_StdPeriph_Driver/src/stm32f4xx_rtc.c ****    |  and function   |          |          |           |              | selection  |  selection   |
 213:/home/rdu/Workspace/project_templates/mcu/stm32_ws/src/libraries/STM32F4xx_StdPeriph_Driver/src/stm32f4xx_rtc.c ****    |-----------------|----------|----------|-----------|--------------|------------|--------------|
 214:/home/rdu/Workspace/project_templates/mcu/stm32_ws/src/libraries/STM32F4xx_StdPeriph_Driver/src/stm32f4xx_rtc.c ****    |   Alarm out     |          |          |           |              |    Don't   |     Don't    |
 215:/home/rdu/Workspace/project_templates/mcu/stm32_ws/src/libraries/STM32F4xx_StdPeriph_Driver/src/stm32f4xx_rtc.c ****    |   output OD     |     1    |Don't care|Don't care | Don't care   |    care    |     care     |
 216:/home/rdu/Workspace/project_templates/mcu/stm32_ws/src/libraries/STM32F4xx_StdPeriph_Driver/src/stm32f4xx_rtc.c ****    |-----------------|----------|----------|-----------|--------------|------------|--------------|
 217:/home/rdu/Workspace/project_templates/mcu/stm32_ws/src/libraries/STM32F4xx_StdPeriph_Driver/src/stm32f4xx_rtc.c ****    |   Alarm out     |          |          |           |              |    Don't   |     Don't    |
 218:/home/rdu/Workspace/project_templates/mcu/stm32_ws/src/libraries/STM32F4xx_StdPeriph_Driver/src/stm32f4xx_rtc.c ****    |   output PP     |     1    |Don't care|Don't care | Don't care   |    care    |     care     |
 219:/home/rdu/Workspace/project_templates/mcu/stm32_ws/src/libraries/STM32F4xx_StdPeriph_Driver/src/stm32f4xx_rtc.c ****    |-----------------|----------|----------|-----------|--------------|------------|--------------|
 220:/home/rdu/Workspace/project_templates/mcu/stm32_ws/src/libraries/STM32F4xx_StdPeriph_Driver/src/stm32f4xx_rtc.c ****    | Calibration out |          |          |           |              |    Don't   |     Don't    |
 221:/home/rdu/Workspace/project_templates/mcu/stm32_ws/src/libraries/STM32F4xx_StdPeriph_Driver/src/stm32f4xx_rtc.c ****    |   output PP     |     0    |    1     |Don't care | Don't care   |    care    |     care     |
 222:/home/rdu/Workspace/project_templates/mcu/stm32_ws/src/libraries/STM32F4xx_StdPeriph_Driver/src/stm32f4xx_rtc.c ****    |-----------------|----------|----------|-----------|--------------|------------|--------------|
 223:/home/rdu/Workspace/project_templates/mcu/stm32_ws/src/libraries/STM32F4xx_StdPeriph_Driver/src/stm32f4xx_rtc.c ****    |  TAMPER input   |          |          |           |              |            |     Don't    |
 224:/home/rdu/Workspace/project_templates/mcu/stm32_ws/src/libraries/STM32F4xx_StdPeriph_Driver/src/stm32f4xx_rtc.c ****    |   floating      |     0    |    0     |     1     |      0       |      0     |     care     |
 225:/home/rdu/Workspace/project_templates/mcu/stm32_ws/src/libraries/STM32F4xx_StdPeriph_Driver/src/stm32f4xx_rtc.c ****    |-----------------|----------|----------|-----------|--------------|------------|--------------|
 226:/home/rdu/Workspace/project_templates/mcu/stm32_ws/src/libraries/STM32F4xx_StdPeriph_Driver/src/stm32f4xx_rtc.c ****    |  TIMESTAMP and  |          |          |           |              |            |              |
 227:/home/rdu/Workspace/project_templates/mcu/stm32_ws/src/libraries/STM32F4xx_StdPeriph_Driver/src/stm32f4xx_rtc.c ****    |  TAMPER input   |     0    |    0     |     1     |      1       |      0     |      0       |
 228:/home/rdu/Workspace/project_templates/mcu/stm32_ws/src/libraries/STM32F4xx_StdPeriph_Driver/src/stm32f4xx_rtc.c ****    |   floating      |          |          |           |              |            |              |
 229:/home/rdu/Workspace/project_templates/mcu/stm32_ws/src/libraries/STM32F4xx_StdPeriph_Driver/src/stm32f4xx_rtc.c ****    |-----------------|----------|----------|-----------|--------------|------------|--------------|
 230:/home/rdu/Workspace/project_templates/mcu/stm32_ws/src/libraries/STM32F4xx_StdPeriph_Driver/src/stm32f4xx_rtc.c ****    | TIMESTAMP input |          |          |           |              |    Don't   |              |
 231:/home/rdu/Workspace/project_templates/mcu/stm32_ws/src/libraries/STM32F4xx_StdPeriph_Driver/src/stm32f4xx_rtc.c ****    |    floating     |     0    |    0     |     0     |      1       |    care    |      0       |
 232:/home/rdu/Workspace/project_templates/mcu/stm32_ws/src/libraries/STM32F4xx_StdPeriph_Driver/src/stm32f4xx_rtc.c ****    |-----------------|----------|----------|-----------|--------------|------------|--------------|
 233:/home/rdu/Workspace/project_templates/mcu/stm32_ws/src/libraries/STM32F4xx_StdPeriph_Driver/src/stm32f4xx_rtc.c ****    |  Standard GPIO  |     0    |    0     |     0     |      0       | Don't care |  Don't care  |
 234:/home/rdu/Workspace/project_templates/mcu/stm32_ws/src/libraries/STM32F4xx_StdPeriph_Driver/src/stm32f4xx_rtc.c ****    +-----------------------------------------------------------------------------------------------
 235:/home/rdu/Workspace/project_templates/mcu/stm32_ws/src/libraries/STM32F4xx_StdPeriph_Driver/src/stm32f4xx_rtc.c **** 
 236:/home/rdu/Workspace/project_templates/mcu/stm32_ws/src/libraries/STM32F4xx_StdPeriph_Driver/src/stm32f4xx_rtc.c ****             
 237:/home/rdu/Workspace/project_templates/mcu/stm32_ws/src/libraries/STM32F4xx_StdPeriph_Driver/src/stm32f4xx_rtc.c ****         #####  Selection of RTC_AF2 alternate functions #####
 238:/home/rdu/Workspace/project_templates/mcu/stm32_ws/src/libraries/STM32F4xx_StdPeriph_Driver/src/stm32f4xx_rtc.c ****  ===================================================================
 239:/home/rdu/Workspace/project_templates/mcu/stm32_ws/src/libraries/STM32F4xx_StdPeriph_Driver/src/stm32f4xx_rtc.c ****  [..] The RTC_AF2 pin (PI8) can be used for the following purposes:
 240:/home/rdu/Workspace/project_templates/mcu/stm32_ws/src/libraries/STM32F4xx_StdPeriph_Driver/src/stm32f4xx_rtc.c ****    (+) AFI_TAMPER
 241:/home/rdu/Workspace/project_templates/mcu/stm32_ws/src/libraries/STM32F4xx_StdPeriph_Driver/src/stm32f4xx_rtc.c ****    (+) AFI_TIMESTAMP
 242:/home/rdu/Workspace/project_templates/mcu/stm32_ws/src/libraries/STM32F4xx_StdPeriph_Driver/src/stm32f4xx_rtc.c ****  [..]
 243:/home/rdu/Workspace/project_templates/mcu/stm32_ws/src/libraries/STM32F4xx_StdPeriph_Driver/src/stm32f4xx_rtc.c ****    +---------------------------------------------------------------------------------------+
 244:/home/rdu/Workspace/project_templates/mcu/stm32_ws/src/libraries/STM32F4xx_StdPeriph_Driver/src/stm32f4xx_rtc.c ****    |     Pin         |AFI_TAMPER |AFI_TIMESTAMP | TAMP1INSEL |   TSINSEL    |ALARMOUTTYPE  |
 245:/home/rdu/Workspace/project_templates/mcu/stm32_ws/src/libraries/STM32F4xx_StdPeriph_Driver/src/stm32f4xx_rtc.c ****    |  configuration  |  ENABLED  |   ENABLED    |TAMPER1 pin |TIMESTAMP pin |  AFO_ALARM   |
 246:/home/rdu/Workspace/project_templates/mcu/stm32_ws/src/libraries/STM32F4xx_StdPeriph_Driver/src/stm32f4xx_rtc.c ****    |  and function   |           |              | selection  |  selection   |Configuration |
 247:/home/rdu/Workspace/project_templates/mcu/stm32_ws/src/libraries/STM32F4xx_StdPeriph_Driver/src/stm32f4xx_rtc.c ****    |-----------------|-----------|--------------|------------|--------------|--------------|
 248:/home/rdu/Workspace/project_templates/mcu/stm32_ws/src/libraries/STM32F4xx_StdPeriph_Driver/src/stm32f4xx_rtc.c ****    |  TAMPER input   |           |              |            |     Don't    |              |
 249:/home/rdu/Workspace/project_templates/mcu/stm32_ws/src/libraries/STM32F4xx_StdPeriph_Driver/src/stm32f4xx_rtc.c ****    |   floating      |     1     |      0       |      1     |     care     |  Don't care  |
 250:/home/rdu/Workspace/project_templates/mcu/stm32_ws/src/libraries/STM32F4xx_StdPeriph_Driver/src/stm32f4xx_rtc.c ****    |-----------------|-----------|--------------|------------|--------------|--------------|
 251:/home/rdu/Workspace/project_templates/mcu/stm32_ws/src/libraries/STM32F4xx_StdPeriph_Driver/src/stm32f4xx_rtc.c ****    |  TIMESTAMP and  |           |              |            |              |              |
 252:/home/rdu/Workspace/project_templates/mcu/stm32_ws/src/libraries/STM32F4xx_StdPeriph_Driver/src/stm32f4xx_rtc.c ****    |  TAMPER input   |     1     |      1       |      1     |      1       |  Don't care  |
 253:/home/rdu/Workspace/project_templates/mcu/stm32_ws/src/libraries/STM32F4xx_StdPeriph_Driver/src/stm32f4xx_rtc.c ****    |   floating      |           |              |            |              |              |
 254:/home/rdu/Workspace/project_templates/mcu/stm32_ws/src/libraries/STM32F4xx_StdPeriph_Driver/src/stm32f4xx_rtc.c ****    |-----------------|-----------|--------------|------------|--------------|--------------|
 255:/home/rdu/Workspace/project_templates/mcu/stm32_ws/src/libraries/STM32F4xx_StdPeriph_Driver/src/stm32f4xx_rtc.c ****    | TIMESTAMP input |           |              |    Don't   |              |              |
 256:/home/rdu/Workspace/project_templates/mcu/stm32_ws/src/libraries/STM32F4xx_StdPeriph_Driver/src/stm32f4xx_rtc.c ****    |    floating     |     0     |      1       |    care    |      1       |  Don't care  |
 257:/home/rdu/Workspace/project_templates/mcu/stm32_ws/src/libraries/STM32F4xx_StdPeriph_Driver/src/stm32f4xx_rtc.c ****    |-----------------|-----------|--------------|------------|--------------|--------------|
 258:/home/rdu/Workspace/project_templates/mcu/stm32_ws/src/libraries/STM32F4xx_StdPeriph_Driver/src/stm32f4xx_rtc.c ****    |  Standard GPIO  |     0     |      0       | Don't care |  Don't care  |  Don't care  |
 259:/home/rdu/Workspace/project_templates/mcu/stm32_ws/src/libraries/STM32F4xx_StdPeriph_Driver/src/stm32f4xx_rtc.c ****    +---------------------------------------------------------------------------------------+   
 260:/home/rdu/Workspace/project_templates/mcu/stm32_ws/src/libraries/STM32F4xx_StdPeriph_Driver/src/stm32f4xx_rtc.c ****  
 261:/home/rdu/Workspace/project_templates/mcu/stm32_ws/src/libraries/STM32F4xx_StdPeriph_Driver/src/stm32f4xx_rtc.c ****      
 262:/home/rdu/Workspace/project_templates/mcu/stm32_ws/src/libraries/STM32F4xx_StdPeriph_Driver/src/stm32f4xx_rtc.c **** @endverbatim
 263:/home/rdu/Workspace/project_templates/mcu/stm32_ws/src/libraries/STM32F4xx_StdPeriph_Driver/src/stm32f4xx_rtc.c ****   
 264:/home/rdu/Workspace/project_templates/mcu/stm32_ws/src/libraries/STM32F4xx_StdPeriph_Driver/src/stm32f4xx_rtc.c ****   ******************************************************************************
 265:/home/rdu/Workspace/project_templates/mcu/stm32_ws/src/libraries/STM32F4xx_StdPeriph_Driver/src/stm32f4xx_rtc.c ****   * @attention
 266:/home/rdu/Workspace/project_templates/mcu/stm32_ws/src/libraries/STM32F4xx_StdPeriph_Driver/src/stm32f4xx_rtc.c ****   *
 267:/home/rdu/Workspace/project_templates/mcu/stm32_ws/src/libraries/STM32F4xx_StdPeriph_Driver/src/stm32f4xx_rtc.c ****   * <h2><center>&copy; COPYRIGHT 2016 STMicroelectronics</center></h2>
 268:/home/rdu/Workspace/project_templates/mcu/stm32_ws/src/libraries/STM32F4xx_StdPeriph_Driver/src/stm32f4xx_rtc.c ****   *
 269:/home/rdu/Workspace/project_templates/mcu/stm32_ws/src/libraries/STM32F4xx_StdPeriph_Driver/src/stm32f4xx_rtc.c ****   * Licensed under MCD-ST Liberty SW License Agreement V2, (the "License");
 270:/home/rdu/Workspace/project_templates/mcu/stm32_ws/src/libraries/STM32F4xx_StdPeriph_Driver/src/stm32f4xx_rtc.c ****   * You may not use this file except in compliance with the License.
 271:/home/rdu/Workspace/project_templates/mcu/stm32_ws/src/libraries/STM32F4xx_StdPeriph_Driver/src/stm32f4xx_rtc.c ****   * You may obtain a copy of the License at:
 272:/home/rdu/Workspace/project_templates/mcu/stm32_ws/src/libraries/STM32F4xx_StdPeriph_Driver/src/stm32f4xx_rtc.c ****   *
 273:/home/rdu/Workspace/project_templates/mcu/stm32_ws/src/libraries/STM32F4xx_StdPeriph_Driver/src/stm32f4xx_rtc.c ****   *        http://www.st.com/software_license_agreement_liberty_v2
 274:/home/rdu/Workspace/project_templates/mcu/stm32_ws/src/libraries/STM32F4xx_StdPeriph_Driver/src/stm32f4xx_rtc.c ****   *
 275:/home/rdu/Workspace/project_templates/mcu/stm32_ws/src/libraries/STM32F4xx_StdPeriph_Driver/src/stm32f4xx_rtc.c ****   * Unless required by applicable law or agreed to in writing, software 
 276:/home/rdu/Workspace/project_templates/mcu/stm32_ws/src/libraries/STM32F4xx_StdPeriph_Driver/src/stm32f4xx_rtc.c ****   * distributed under the License is distributed on an "AS IS" BASIS, 
 277:/home/rdu/Workspace/project_templates/mcu/stm32_ws/src/libraries/STM32F4xx_StdPeriph_Driver/src/stm32f4xx_rtc.c ****   * WITHOUT WARRANTIES OR CONDITIONS OF ANY KIND, either express or implied.
 278:/home/rdu/Workspace/project_templates/mcu/stm32_ws/src/libraries/STM32F4xx_StdPeriph_Driver/src/stm32f4xx_rtc.c ****   * See the License for the specific language governing permissions and
 279:/home/rdu/Workspace/project_templates/mcu/stm32_ws/src/libraries/STM32F4xx_StdPeriph_Driver/src/stm32f4xx_rtc.c ****   * limitations under the License.
 280:/home/rdu/Workspace/project_templates/mcu/stm32_ws/src/libraries/STM32F4xx_StdPeriph_Driver/src/stm32f4xx_rtc.c ****   *
 281:/home/rdu/Workspace/project_templates/mcu/stm32_ws/src/libraries/STM32F4xx_StdPeriph_Driver/src/stm32f4xx_rtc.c ****   ******************************************************************************
 282:/home/rdu/Workspace/project_templates/mcu/stm32_ws/src/libraries/STM32F4xx_StdPeriph_Driver/src/stm32f4xx_rtc.c ****   */ 
 283:/home/rdu/Workspace/project_templates/mcu/stm32_ws/src/libraries/STM32F4xx_StdPeriph_Driver/src/stm32f4xx_rtc.c **** 
 284:/home/rdu/Workspace/project_templates/mcu/stm32_ws/src/libraries/STM32F4xx_StdPeriph_Driver/src/stm32f4xx_rtc.c **** /* Includes ------------------------------------------------------------------*/
 285:/home/rdu/Workspace/project_templates/mcu/stm32_ws/src/libraries/STM32F4xx_StdPeriph_Driver/src/stm32f4xx_rtc.c **** #include "stm32f4xx_rtc.h"
 286:/home/rdu/Workspace/project_templates/mcu/stm32_ws/src/libraries/STM32F4xx_StdPeriph_Driver/src/stm32f4xx_rtc.c **** 
 287:/home/rdu/Workspace/project_templates/mcu/stm32_ws/src/libraries/STM32F4xx_StdPeriph_Driver/src/stm32f4xx_rtc.c **** /** @addtogroup STM32F4xx_StdPeriph_Driver
 288:/home/rdu/Workspace/project_templates/mcu/stm32_ws/src/libraries/STM32F4xx_StdPeriph_Driver/src/stm32f4xx_rtc.c ****   * @{
 289:/home/rdu/Workspace/project_templates/mcu/stm32_ws/src/libraries/STM32F4xx_StdPeriph_Driver/src/stm32f4xx_rtc.c ****   */
 290:/home/rdu/Workspace/project_templates/mcu/stm32_ws/src/libraries/STM32F4xx_StdPeriph_Driver/src/stm32f4xx_rtc.c **** 
 291:/home/rdu/Workspace/project_templates/mcu/stm32_ws/src/libraries/STM32F4xx_StdPeriph_Driver/src/stm32f4xx_rtc.c **** /** @defgroup RTC 
 292:/home/rdu/Workspace/project_templates/mcu/stm32_ws/src/libraries/STM32F4xx_StdPeriph_Driver/src/stm32f4xx_rtc.c ****   * @brief RTC driver modules
 293:/home/rdu/Workspace/project_templates/mcu/stm32_ws/src/libraries/STM32F4xx_StdPeriph_Driver/src/stm32f4xx_rtc.c ****   * @{
 294:/home/rdu/Workspace/project_templates/mcu/stm32_ws/src/libraries/STM32F4xx_StdPeriph_Driver/src/stm32f4xx_rtc.c ****   */
 295:/home/rdu/Workspace/project_templates/mcu/stm32_ws/src/libraries/STM32F4xx_StdPeriph_Driver/src/stm32f4xx_rtc.c **** 
 296:/home/rdu/Workspace/project_templates/mcu/stm32_ws/src/libraries/STM32F4xx_StdPeriph_Driver/src/stm32f4xx_rtc.c **** /* Private typedef -----------------------------------------------------------*/
 297:/home/rdu/Workspace/project_templates/mcu/stm32_ws/src/libraries/STM32F4xx_StdPeriph_Driver/src/stm32f4xx_rtc.c **** /* Private define ------------------------------------------------------------*/
 298:/home/rdu/Workspace/project_templates/mcu/stm32_ws/src/libraries/STM32F4xx_StdPeriph_Driver/src/stm32f4xx_rtc.c **** 
 299:/home/rdu/Workspace/project_templates/mcu/stm32_ws/src/libraries/STM32F4xx_StdPeriph_Driver/src/stm32f4xx_rtc.c **** /* Masks Definition */
 300:/home/rdu/Workspace/project_templates/mcu/stm32_ws/src/libraries/STM32F4xx_StdPeriph_Driver/src/stm32f4xx_rtc.c **** #define RTC_TR_RESERVED_MASK    ((uint32_t)0x007F7F7F)
 301:/home/rdu/Workspace/project_templates/mcu/stm32_ws/src/libraries/STM32F4xx_StdPeriph_Driver/src/stm32f4xx_rtc.c **** #define RTC_DR_RESERVED_MASK    ((uint32_t)0x00FFFF3F) 
 302:/home/rdu/Workspace/project_templates/mcu/stm32_ws/src/libraries/STM32F4xx_StdPeriph_Driver/src/stm32f4xx_rtc.c **** #define RTC_INIT_MASK           ((uint32_t)0xFFFFFFFF)  
 303:/home/rdu/Workspace/project_templates/mcu/stm32_ws/src/libraries/STM32F4xx_StdPeriph_Driver/src/stm32f4xx_rtc.c **** #define RTC_RSF_MASK            ((uint32_t)0xFFFFFF5F)
 304:/home/rdu/Workspace/project_templates/mcu/stm32_ws/src/libraries/STM32F4xx_StdPeriph_Driver/src/stm32f4xx_rtc.c **** #define RTC_FLAGS_MASK          ((uint32_t)(RTC_FLAG_TSOVF | RTC_FLAG_TSF | RTC_FLAG_WUTF | \
 305:/home/rdu/Workspace/project_templates/mcu/stm32_ws/src/libraries/STM32F4xx_StdPeriph_Driver/src/stm32f4xx_rtc.c ****                                             RTC_FLAG_ALRBF | RTC_FLAG_ALRAF | RTC_FLAG_INITF | \
 306:/home/rdu/Workspace/project_templates/mcu/stm32_ws/src/libraries/STM32F4xx_StdPeriph_Driver/src/stm32f4xx_rtc.c ****                                             RTC_FLAG_RSF | RTC_FLAG_INITS | RTC_FLAG_WUTWF | \
 307:/home/rdu/Workspace/project_templates/mcu/stm32_ws/src/libraries/STM32F4xx_StdPeriph_Driver/src/stm32f4xx_rtc.c ****                                             RTC_FLAG_ALRBWF | RTC_FLAG_ALRAWF | RTC_FLAG_TAMP1F | \
 308:/home/rdu/Workspace/project_templates/mcu/stm32_ws/src/libraries/STM32F4xx_StdPeriph_Driver/src/stm32f4xx_rtc.c ****                                             RTC_FLAG_TAMP2F | RTC_FLAG_RECALPF | RTC_FLAG_SHPF))
 309:/home/rdu/Workspace/project_templates/mcu/stm32_ws/src/libraries/STM32F4xx_StdPeriph_Driver/src/stm32f4xx_rtc.c **** 
 310:/home/rdu/Workspace/project_templates/mcu/stm32_ws/src/libraries/STM32F4xx_StdPeriph_Driver/src/stm32f4xx_rtc.c **** #define INITMODE_TIMEOUT         ((uint32_t) 0x00010000)
 311:/home/rdu/Workspace/project_templates/mcu/stm32_ws/src/libraries/STM32F4xx_StdPeriph_Driver/src/stm32f4xx_rtc.c **** #define SYNCHRO_TIMEOUT          ((uint32_t) 0x00020000)
 312:/home/rdu/Workspace/project_templates/mcu/stm32_ws/src/libraries/STM32F4xx_StdPeriph_Driver/src/stm32f4xx_rtc.c **** #define RECALPF_TIMEOUT          ((uint32_t) 0x00020000)
 313:/home/rdu/Workspace/project_templates/mcu/stm32_ws/src/libraries/STM32F4xx_StdPeriph_Driver/src/stm32f4xx_rtc.c **** #define SHPF_TIMEOUT             ((uint32_t) 0x00001000)
 314:/home/rdu/Workspace/project_templates/mcu/stm32_ws/src/libraries/STM32F4xx_StdPeriph_Driver/src/stm32f4xx_rtc.c **** 
 315:/home/rdu/Workspace/project_templates/mcu/stm32_ws/src/libraries/STM32F4xx_StdPeriph_Driver/src/stm32f4xx_rtc.c **** /* Private macro -------------------------------------------------------------*/
 316:/home/rdu/Workspace/project_templates/mcu/stm32_ws/src/libraries/STM32F4xx_StdPeriph_Driver/src/stm32f4xx_rtc.c **** /* Private variables ---------------------------------------------------------*/
 317:/home/rdu/Workspace/project_templates/mcu/stm32_ws/src/libraries/STM32F4xx_StdPeriph_Driver/src/stm32f4xx_rtc.c **** /* Private function prototypes -----------------------------------------------*/
 318:/home/rdu/Workspace/project_templates/mcu/stm32_ws/src/libraries/STM32F4xx_StdPeriph_Driver/src/stm32f4xx_rtc.c **** static uint8_t RTC_ByteToBcd2(uint8_t Value);
 319:/home/rdu/Workspace/project_templates/mcu/stm32_ws/src/libraries/STM32F4xx_StdPeriph_Driver/src/stm32f4xx_rtc.c **** static uint8_t RTC_Bcd2ToByte(uint8_t Value);
 320:/home/rdu/Workspace/project_templates/mcu/stm32_ws/src/libraries/STM32F4xx_StdPeriph_Driver/src/stm32f4xx_rtc.c **** 
 321:/home/rdu/Workspace/project_templates/mcu/stm32_ws/src/libraries/STM32F4xx_StdPeriph_Driver/src/stm32f4xx_rtc.c **** /* Private functions ---------------------------------------------------------*/
 322:/home/rdu/Workspace/project_templates/mcu/stm32_ws/src/libraries/STM32F4xx_StdPeriph_Driver/src/stm32f4xx_rtc.c **** 
 323:/home/rdu/Workspace/project_templates/mcu/stm32_ws/src/libraries/STM32F4xx_StdPeriph_Driver/src/stm32f4xx_rtc.c **** /** @defgroup RTC_Private_Functions
 324:/home/rdu/Workspace/project_templates/mcu/stm32_ws/src/libraries/STM32F4xx_StdPeriph_Driver/src/stm32f4xx_rtc.c ****   * @{
 325:/home/rdu/Workspace/project_templates/mcu/stm32_ws/src/libraries/STM32F4xx_StdPeriph_Driver/src/stm32f4xx_rtc.c ****   */ 
 326:/home/rdu/Workspace/project_templates/mcu/stm32_ws/src/libraries/STM32F4xx_StdPeriph_Driver/src/stm32f4xx_rtc.c **** 
 327:/home/rdu/Workspace/project_templates/mcu/stm32_ws/src/libraries/STM32F4xx_StdPeriph_Driver/src/stm32f4xx_rtc.c **** /** @defgroup RTC_Group1 Initialization and Configuration functions
 328:/home/rdu/Workspace/project_templates/mcu/stm32_ws/src/libraries/STM32F4xx_StdPeriph_Driver/src/stm32f4xx_rtc.c ****  *  @brief   Initialization and Configuration functions 
 329:/home/rdu/Workspace/project_templates/mcu/stm32_ws/src/libraries/STM32F4xx_StdPeriph_Driver/src/stm32f4xx_rtc.c ****  *
 330:/home/rdu/Workspace/project_templates/mcu/stm32_ws/src/libraries/STM32F4xx_StdPeriph_Driver/src/stm32f4xx_rtc.c **** @verbatim   
 331:/home/rdu/Workspace/project_templates/mcu/stm32_ws/src/libraries/STM32F4xx_StdPeriph_Driver/src/stm32f4xx_rtc.c ****  ===============================================================================
 332:/home/rdu/Workspace/project_templates/mcu/stm32_ws/src/libraries/STM32F4xx_StdPeriph_Driver/src/stm32f4xx_rtc.c ****              ##### Initialization and Configuration functions #####
 333:/home/rdu/Workspace/project_templates/mcu/stm32_ws/src/libraries/STM32F4xx_StdPeriph_Driver/src/stm32f4xx_rtc.c ****  ===============================================================================
 334:/home/rdu/Workspace/project_templates/mcu/stm32_ws/src/libraries/STM32F4xx_StdPeriph_Driver/src/stm32f4xx_rtc.c ****  
 335:/home/rdu/Workspace/project_templates/mcu/stm32_ws/src/libraries/STM32F4xx_StdPeriph_Driver/src/stm32f4xx_rtc.c ****  [..] This section provide functions allowing to initialize and configure the RTC
 336:/home/rdu/Workspace/project_templates/mcu/stm32_ws/src/libraries/STM32F4xx_StdPeriph_Driver/src/stm32f4xx_rtc.c ****       Prescaler (Synchronous and Asynchronous), RTC Hour format, disable RTC registers
 337:/home/rdu/Workspace/project_templates/mcu/stm32_ws/src/libraries/STM32F4xx_StdPeriph_Driver/src/stm32f4xx_rtc.c ****       Write protection, enter and exit the RTC initialization mode, RTC registers
 338:/home/rdu/Workspace/project_templates/mcu/stm32_ws/src/libraries/STM32F4xx_StdPeriph_Driver/src/stm32f4xx_rtc.c ****       synchronization check and reference clock detection enable.
 339:/home/rdu/Workspace/project_templates/mcu/stm32_ws/src/libraries/STM32F4xx_StdPeriph_Driver/src/stm32f4xx_rtc.c ****   
 340:/home/rdu/Workspace/project_templates/mcu/stm32_ws/src/libraries/STM32F4xx_StdPeriph_Driver/src/stm32f4xx_rtc.c ****    (#) The RTC Prescaler is programmed to generate the RTC 1Hz time base. It is
 341:/home/rdu/Workspace/project_templates/mcu/stm32_ws/src/libraries/STM32F4xx_StdPeriph_Driver/src/stm32f4xx_rtc.c ****        split into 2 programmable prescalers to minimize power consumption.
 342:/home/rdu/Workspace/project_templates/mcu/stm32_ws/src/libraries/STM32F4xx_StdPeriph_Driver/src/stm32f4xx_rtc.c ****        (++) A 7-bit asynchronous prescaler and A 13-bit synchronous prescaler.
 343:/home/rdu/Workspace/project_templates/mcu/stm32_ws/src/libraries/STM32F4xx_StdPeriph_Driver/src/stm32f4xx_rtc.c ****        (++) When both prescalers are used, it is recommended to configure the 
 344:/home/rdu/Workspace/project_templates/mcu/stm32_ws/src/libraries/STM32F4xx_StdPeriph_Driver/src/stm32f4xx_rtc.c ****             asynchronous prescaler to a high value to minimize consumption.
 345:/home/rdu/Workspace/project_templates/mcu/stm32_ws/src/libraries/STM32F4xx_StdPeriph_Driver/src/stm32f4xx_rtc.c **** 
 346:/home/rdu/Workspace/project_templates/mcu/stm32_ws/src/libraries/STM32F4xx_StdPeriph_Driver/src/stm32f4xx_rtc.c ****    (#) All RTC registers are Write protected. Writing to the RTC registers
 347:/home/rdu/Workspace/project_templates/mcu/stm32_ws/src/libraries/STM32F4xx_StdPeriph_Driver/src/stm32f4xx_rtc.c ****        is enabled by writing a key into the Write Protection register, RTC_WPR.
 348:/home/rdu/Workspace/project_templates/mcu/stm32_ws/src/libraries/STM32F4xx_StdPeriph_Driver/src/stm32f4xx_rtc.c **** 
 349:/home/rdu/Workspace/project_templates/mcu/stm32_ws/src/libraries/STM32F4xx_StdPeriph_Driver/src/stm32f4xx_rtc.c ****    (#) To Configure the RTC Calendar, user application should enter initialization
 350:/home/rdu/Workspace/project_templates/mcu/stm32_ws/src/libraries/STM32F4xx_StdPeriph_Driver/src/stm32f4xx_rtc.c ****        mode. In this mode, the calendar counter is stopped and its value can be 
 351:/home/rdu/Workspace/project_templates/mcu/stm32_ws/src/libraries/STM32F4xx_StdPeriph_Driver/src/stm32f4xx_rtc.c ****        updated. When the initialization sequence is complete, the calendar restarts 
 352:/home/rdu/Workspace/project_templates/mcu/stm32_ws/src/libraries/STM32F4xx_StdPeriph_Driver/src/stm32f4xx_rtc.c ****        counting after 4 RTCCLK cycles.
 353:/home/rdu/Workspace/project_templates/mcu/stm32_ws/src/libraries/STM32F4xx_StdPeriph_Driver/src/stm32f4xx_rtc.c **** 
 354:/home/rdu/Workspace/project_templates/mcu/stm32_ws/src/libraries/STM32F4xx_StdPeriph_Driver/src/stm32f4xx_rtc.c ****    (#) To read the calendar through the shadow registers after Calendar initialization,
 355:/home/rdu/Workspace/project_templates/mcu/stm32_ws/src/libraries/STM32F4xx_StdPeriph_Driver/src/stm32f4xx_rtc.c ****        calendar update or after wakeup from low power modes the software must first 
 356:/home/rdu/Workspace/project_templates/mcu/stm32_ws/src/libraries/STM32F4xx_StdPeriph_Driver/src/stm32f4xx_rtc.c ****        clear the RSF flag. The software must then wait until it is set again before 
 357:/home/rdu/Workspace/project_templates/mcu/stm32_ws/src/libraries/STM32F4xx_StdPeriph_Driver/src/stm32f4xx_rtc.c ****        reading the calendar, which means that the calendar registers have been 
 358:/home/rdu/Workspace/project_templates/mcu/stm32_ws/src/libraries/STM32F4xx_StdPeriph_Driver/src/stm32f4xx_rtc.c ****        correctly copied into the RTC_TR and RTC_DR shadow registers.
 359:/home/rdu/Workspace/project_templates/mcu/stm32_ws/src/libraries/STM32F4xx_StdPeriph_Driver/src/stm32f4xx_rtc.c ****        The RTC_WaitForSynchro() function implements the above software sequence 
 360:/home/rdu/Workspace/project_templates/mcu/stm32_ws/src/libraries/STM32F4xx_StdPeriph_Driver/src/stm32f4xx_rtc.c ****        (RSF clear and RSF check).
 361:/home/rdu/Workspace/project_templates/mcu/stm32_ws/src/libraries/STM32F4xx_StdPeriph_Driver/src/stm32f4xx_rtc.c **** 
 362:/home/rdu/Workspace/project_templates/mcu/stm32_ws/src/libraries/STM32F4xx_StdPeriph_Driver/src/stm32f4xx_rtc.c **** @endverbatim
 363:/home/rdu/Workspace/project_templates/mcu/stm32_ws/src/libraries/STM32F4xx_StdPeriph_Driver/src/stm32f4xx_rtc.c ****   * @{
 364:/home/rdu/Workspace/project_templates/mcu/stm32_ws/src/libraries/STM32F4xx_StdPeriph_Driver/src/stm32f4xx_rtc.c ****   */
 365:/home/rdu/Workspace/project_templates/mcu/stm32_ws/src/libraries/STM32F4xx_StdPeriph_Driver/src/stm32f4xx_rtc.c **** 
 366:/home/rdu/Workspace/project_templates/mcu/stm32_ws/src/libraries/STM32F4xx_StdPeriph_Driver/src/stm32f4xx_rtc.c **** /**
 367:/home/rdu/Workspace/project_templates/mcu/stm32_ws/src/libraries/STM32F4xx_StdPeriph_Driver/src/stm32f4xx_rtc.c ****   * @brief  Deinitializes the RTC registers to their default reset values.
 368:/home/rdu/Workspace/project_templates/mcu/stm32_ws/src/libraries/STM32F4xx_StdPeriph_Driver/src/stm32f4xx_rtc.c ****   * @note   This function doesn't reset the RTC Clock source and RTC Backup Data
 369:/home/rdu/Workspace/project_templates/mcu/stm32_ws/src/libraries/STM32F4xx_StdPeriph_Driver/src/stm32f4xx_rtc.c ****   *         registers.       
 370:/home/rdu/Workspace/project_templates/mcu/stm32_ws/src/libraries/STM32F4xx_StdPeriph_Driver/src/stm32f4xx_rtc.c ****   * @param  None
 371:/home/rdu/Workspace/project_templates/mcu/stm32_ws/src/libraries/STM32F4xx_StdPeriph_Driver/src/stm32f4xx_rtc.c ****   * @retval An ErrorStatus enumeration value:
 372:/home/rdu/Workspace/project_templates/mcu/stm32_ws/src/libraries/STM32F4xx_StdPeriph_Driver/src/stm32f4xx_rtc.c ****   *          - SUCCESS: RTC registers are deinitialized
 373:/home/rdu/Workspace/project_templates/mcu/stm32_ws/src/libraries/STM32F4xx_StdPeriph_Driver/src/stm32f4xx_rtc.c ****   *          - ERROR: RTC registers are not deinitialized
 374:/home/rdu/Workspace/project_templates/mcu/stm32_ws/src/libraries/STM32F4xx_StdPeriph_Driver/src/stm32f4xx_rtc.c ****   */
 375:/home/rdu/Workspace/project_templates/mcu/stm32_ws/src/libraries/STM32F4xx_StdPeriph_Driver/src/stm32f4xx_rtc.c **** ErrorStatus RTC_DeInit(void)
 376:/home/rdu/Workspace/project_templates/mcu/stm32_ws/src/libraries/STM32F4xx_StdPeriph_Driver/src/stm32f4xx_rtc.c **** {
  26              		.loc 1 376 0
  27              		.cfi_startproc
  28              		@ args = 0, pretend = 0, frame = 16
  29              		@ frame_needed = 0, uses_anonymous_args = 0
  30 0000 00B5     		push	{lr}
  31              	.LCFI0:
  32              		.cfi_def_cfa_offset 4
  33              		.cfi_offset 14, -4
  34 0002 85B0     		sub	sp, sp, #20
  35              	.LCFI1:
  36              		.cfi_def_cfa_offset 24
 377:/home/rdu/Workspace/project_templates/mcu/stm32_ws/src/libraries/STM32F4xx_StdPeriph_Driver/src/stm32f4xx_rtc.c ****   __IO uint32_t wutcounter = 0x00;
  37              		.loc 1 377 0
  38 0004 0023     		movs	r3, #0
  39 0006 0193     		str	r3, [sp, #4]
 378:/home/rdu/Workspace/project_templates/mcu/stm32_ws/src/libraries/STM32F4xx_StdPeriph_Driver/src/stm32f4xx_rtc.c ****   uint32_t wutwfstatus = 0x00;
  40              		.loc 1 378 0
  41 0008 0023     		movs	r3, #0
  42 000a 0293     		str	r3, [sp, #8]
 379:/home/rdu/Workspace/project_templates/mcu/stm32_ws/src/libraries/STM32F4xx_StdPeriph_Driver/src/stm32f4xx_rtc.c ****   ErrorStatus status = ERROR;
  43              		.loc 1 379 0
  44 000c 0023     		movs	r3, #0
  45 000e 8DF80F30 		strb	r3, [sp, #15]
 380:/home/rdu/Workspace/project_templates/mcu/stm32_ws/src/libraries/STM32F4xx_StdPeriph_Driver/src/stm32f4xx_rtc.c ****   
 381:/home/rdu/Workspace/project_templates/mcu/stm32_ws/src/libraries/STM32F4xx_StdPeriph_Driver/src/stm32f4xx_rtc.c ****   /* Disable the write protection for RTC registers */
 382:/home/rdu/Workspace/project_templates/mcu/stm32_ws/src/libraries/STM32F4xx_StdPeriph_Driver/src/stm32f4xx_rtc.c ****   RTC->WPR = 0xCA;
  46              		.loc 1 382 0
  47 0012 384B     		ldr	r3, .L9
  48 0014 CA22     		movs	r2, #202
  49 0016 5A62     		str	r2, [r3, #36]
 383:/home/rdu/Workspace/project_templates/mcu/stm32_ws/src/libraries/STM32F4xx_StdPeriph_Driver/src/stm32f4xx_rtc.c ****   RTC->WPR = 0x53;
  50              		.loc 1 383 0
  51 0018 364B     		ldr	r3, .L9
  52 001a 5322     		movs	r2, #83
  53 001c 5A62     		str	r2, [r3, #36]
 384:/home/rdu/Workspace/project_templates/mcu/stm32_ws/src/libraries/STM32F4xx_StdPeriph_Driver/src/stm32f4xx_rtc.c **** 
 385:/home/rdu/Workspace/project_templates/mcu/stm32_ws/src/libraries/STM32F4xx_StdPeriph_Driver/src/stm32f4xx_rtc.c ****   /* Set Initialization mode */
 386:/home/rdu/Workspace/project_templates/mcu/stm32_ws/src/libraries/STM32F4xx_StdPeriph_Driver/src/stm32f4xx_rtc.c ****   if (RTC_EnterInitMode() == ERROR)
  54              		.loc 1 386 0
  55 001e FFF7FEFF 		bl	RTC_EnterInitMode
  56 0022 0346     		mov	r3, r0
  57 0024 002B     		cmp	r3, #0
  58 0026 03D1     		bne	.L2
 387:/home/rdu/Workspace/project_templates/mcu/stm32_ws/src/libraries/STM32F4xx_StdPeriph_Driver/src/stm32f4xx_rtc.c ****   {
 388:/home/rdu/Workspace/project_templates/mcu/stm32_ws/src/libraries/STM32F4xx_StdPeriph_Driver/src/stm32f4xx_rtc.c ****     status = ERROR;
  59              		.loc 1 388 0
  60 0028 0023     		movs	r3, #0
  61 002a 8DF80F30 		strb	r3, [sp, #15]
  62 002e 58E0     		b	.L3
  63              	.L2:
 389:/home/rdu/Workspace/project_templates/mcu/stm32_ws/src/libraries/STM32F4xx_StdPeriph_Driver/src/stm32f4xx_rtc.c ****   }  
 390:/home/rdu/Workspace/project_templates/mcu/stm32_ws/src/libraries/STM32F4xx_StdPeriph_Driver/src/stm32f4xx_rtc.c ****   else
 391:/home/rdu/Workspace/project_templates/mcu/stm32_ws/src/libraries/STM32F4xx_StdPeriph_Driver/src/stm32f4xx_rtc.c ****   {
 392:/home/rdu/Workspace/project_templates/mcu/stm32_ws/src/libraries/STM32F4xx_StdPeriph_Driver/src/stm32f4xx_rtc.c ****     /* Reset TR, DR and CR registers */
 393:/home/rdu/Workspace/project_templates/mcu/stm32_ws/src/libraries/STM32F4xx_StdPeriph_Driver/src/stm32f4xx_rtc.c ****     RTC->TR = (uint32_t)0x00000000;
  64              		.loc 1 393 0
  65 0030 304B     		ldr	r3, .L9
  66 0032 0022     		movs	r2, #0
  67 0034 1A60     		str	r2, [r3]
 394:/home/rdu/Workspace/project_templates/mcu/stm32_ws/src/libraries/STM32F4xx_StdPeriph_Driver/src/stm32f4xx_rtc.c ****     RTC->DR = (uint32_t)0x00002101;
  68              		.loc 1 394 0
  69 0036 2F4B     		ldr	r3, .L9
  70 0038 42F20112 		movw	r2, #8449
  71 003c 5A60     		str	r2, [r3, #4]
 395:/home/rdu/Workspace/project_templates/mcu/stm32_ws/src/libraries/STM32F4xx_StdPeriph_Driver/src/stm32f4xx_rtc.c ****     /* Reset All CR bits except CR[2:0] */
 396:/home/rdu/Workspace/project_templates/mcu/stm32_ws/src/libraries/STM32F4xx_StdPeriph_Driver/src/stm32f4xx_rtc.c ****     RTC->CR &= (uint32_t)0x00000007;
  72              		.loc 1 396 0
  73 003e 2D4B     		ldr	r3, .L9
  74 0040 9B68     		ldr	r3, [r3, #8]
  75 0042 2C4A     		ldr	r2, .L9
  76 0044 03F00703 		and	r3, r3, #7
  77 0048 9360     		str	r3, [r2, #8]
  78              	.L5:
 397:/home/rdu/Workspace/project_templates/mcu/stm32_ws/src/libraries/STM32F4xx_StdPeriph_Driver/src/stm32f4xx_rtc.c ****   
 398:/home/rdu/Workspace/project_templates/mcu/stm32_ws/src/libraries/STM32F4xx_StdPeriph_Driver/src/stm32f4xx_rtc.c ****     /* Wait till RTC WUTWF flag is set and if Time out is reached exit */
 399:/home/rdu/Workspace/project_templates/mcu/stm32_ws/src/libraries/STM32F4xx_StdPeriph_Driver/src/stm32f4xx_rtc.c ****     do
 400:/home/rdu/Workspace/project_templates/mcu/stm32_ws/src/libraries/STM32F4xx_StdPeriph_Driver/src/stm32f4xx_rtc.c ****     {
 401:/home/rdu/Workspace/project_templates/mcu/stm32_ws/src/libraries/STM32F4xx_StdPeriph_Driver/src/stm32f4xx_rtc.c ****       wutwfstatus = RTC->ISR & RTC_ISR_WUTWF;
  79              		.loc 1 401 0 discriminator 2
  80 004a 2A4B     		ldr	r3, .L9
  81 004c DB68     		ldr	r3, [r3, #12]
  82 004e 03F00403 		and	r3, r3, #4
  83 0052 0293     		str	r3, [sp, #8]
 402:/home/rdu/Workspace/project_templates/mcu/stm32_ws/src/libraries/STM32F4xx_StdPeriph_Driver/src/stm32f4xx_rtc.c ****       wutcounter++;  
  84              		.loc 1 402 0 discriminator 2
  85 0054 019B     		ldr	r3, [sp, #4]
  86 0056 0133     		adds	r3, r3, #1
  87 0058 0193     		str	r3, [sp, #4]
 403:/home/rdu/Workspace/project_templates/mcu/stm32_ws/src/libraries/STM32F4xx_StdPeriph_Driver/src/stm32f4xx_rtc.c ****     } while((wutcounter != INITMODE_TIMEOUT) && (wutwfstatus == 0x00));
  88              		.loc 1 403 0 discriminator 2
  89 005a 019B     		ldr	r3, [sp, #4]
  90 005c B3F5803F 		cmp	r3, #65536
  91 0060 02D0     		beq	.L4
  92              		.loc 1 403 0 is_stmt 0 discriminator 1
  93 0062 029B     		ldr	r3, [sp, #8]
  94 0064 002B     		cmp	r3, #0
  95 0066 F0D0     		beq	.L5
  96              	.L4:
 404:/home/rdu/Workspace/project_templates/mcu/stm32_ws/src/libraries/STM32F4xx_StdPeriph_Driver/src/stm32f4xx_rtc.c ****     
 405:/home/rdu/Workspace/project_templates/mcu/stm32_ws/src/libraries/STM32F4xx_StdPeriph_Driver/src/stm32f4xx_rtc.c ****     if ((RTC->ISR & RTC_ISR_WUTWF) == RESET)
  97              		.loc 1 405 0 is_stmt 1
  98 0068 224B     		ldr	r3, .L9
  99 006a DB68     		ldr	r3, [r3, #12]
 100 006c 03F00403 		and	r3, r3, #4
 101 0070 002B     		cmp	r3, #0
 102 0072 03D1     		bne	.L6
 406:/home/rdu/Workspace/project_templates/mcu/stm32_ws/src/libraries/STM32F4xx_StdPeriph_Driver/src/stm32f4xx_rtc.c ****     {
 407:/home/rdu/Workspace/project_templates/mcu/stm32_ws/src/libraries/STM32F4xx_StdPeriph_Driver/src/stm32f4xx_rtc.c ****       status = ERROR;
 103              		.loc 1 407 0
 104 0074 0023     		movs	r3, #0
 105 0076 8DF80F30 		strb	r3, [sp, #15]
 106 007a 32E0     		b	.L3
 107              	.L6:
 408:/home/rdu/Workspace/project_templates/mcu/stm32_ws/src/libraries/STM32F4xx_StdPeriph_Driver/src/stm32f4xx_rtc.c ****     }
 409:/home/rdu/Workspace/project_templates/mcu/stm32_ws/src/libraries/STM32F4xx_StdPeriph_Driver/src/stm32f4xx_rtc.c ****     else
 410:/home/rdu/Workspace/project_templates/mcu/stm32_ws/src/libraries/STM32F4xx_StdPeriph_Driver/src/stm32f4xx_rtc.c ****     {
 411:/home/rdu/Workspace/project_templates/mcu/stm32_ws/src/libraries/STM32F4xx_StdPeriph_Driver/src/stm32f4xx_rtc.c ****       /* Reset all RTC CR register bits */
 412:/home/rdu/Workspace/project_templates/mcu/stm32_ws/src/libraries/STM32F4xx_StdPeriph_Driver/src/stm32f4xx_rtc.c ****       RTC->CR &= (uint32_t)0x00000000;
 108              		.loc 1 412 0
 109 007c 1D4B     		ldr	r3, .L9
 110 007e 9B68     		ldr	r3, [r3, #8]
 111 0080 1C4B     		ldr	r3, .L9
 112 0082 0022     		movs	r2, #0
 113 0084 9A60     		str	r2, [r3, #8]
 413:/home/rdu/Workspace/project_templates/mcu/stm32_ws/src/libraries/STM32F4xx_StdPeriph_Driver/src/stm32f4xx_rtc.c ****       RTC->WUTR = (uint32_t)0x0000FFFF;
 114              		.loc 1 413 0
 115 0086 1B4B     		ldr	r3, .L9
 116 0088 4FF6FF72 		movw	r2, #65535
 117 008c 5A61     		str	r2, [r3, #20]
 414:/home/rdu/Workspace/project_templates/mcu/stm32_ws/src/libraries/STM32F4xx_StdPeriph_Driver/src/stm32f4xx_rtc.c ****       RTC->PRER = (uint32_t)0x007F00FF;
 118              		.loc 1 414 0
 119 008e 194B     		ldr	r3, .L9
 120 0090 194A     		ldr	r2, .L9+4
 121 0092 1A61     		str	r2, [r3, #16]
 415:/home/rdu/Workspace/project_templates/mcu/stm32_ws/src/libraries/STM32F4xx_StdPeriph_Driver/src/stm32f4xx_rtc.c ****       RTC->CALIBR = (uint32_t)0x00000000;
 122              		.loc 1 415 0
 123 0094 174B     		ldr	r3, .L9
 124 0096 0022     		movs	r2, #0
 125 0098 9A61     		str	r2, [r3, #24]
 416:/home/rdu/Workspace/project_templates/mcu/stm32_ws/src/libraries/STM32F4xx_StdPeriph_Driver/src/stm32f4xx_rtc.c ****       RTC->ALRMAR = (uint32_t)0x00000000;        
 126              		.loc 1 416 0
 127 009a 164B     		ldr	r3, .L9
 128 009c 0022     		movs	r2, #0
 129 009e DA61     		str	r2, [r3, #28]
 417:/home/rdu/Workspace/project_templates/mcu/stm32_ws/src/libraries/STM32F4xx_StdPeriph_Driver/src/stm32f4xx_rtc.c ****       RTC->ALRMBR = (uint32_t)0x00000000;
 130              		.loc 1 417 0
 131 00a0 144B     		ldr	r3, .L9
 132 00a2 0022     		movs	r2, #0
 133 00a4 1A62     		str	r2, [r3, #32]
 418:/home/rdu/Workspace/project_templates/mcu/stm32_ws/src/libraries/STM32F4xx_StdPeriph_Driver/src/stm32f4xx_rtc.c ****       RTC->SHIFTR = (uint32_t)0x00000000;
 134              		.loc 1 418 0
 135 00a6 134B     		ldr	r3, .L9
 136 00a8 0022     		movs	r2, #0
 137 00aa DA62     		str	r2, [r3, #44]
 419:/home/rdu/Workspace/project_templates/mcu/stm32_ws/src/libraries/STM32F4xx_StdPeriph_Driver/src/stm32f4xx_rtc.c ****       RTC->CALR = (uint32_t)0x00000000;
 138              		.loc 1 419 0
 139 00ac 114B     		ldr	r3, .L9
 140 00ae 0022     		movs	r2, #0
 141 00b0 DA63     		str	r2, [r3, #60]
 420:/home/rdu/Workspace/project_templates/mcu/stm32_ws/src/libraries/STM32F4xx_StdPeriph_Driver/src/stm32f4xx_rtc.c ****       RTC->ALRMASSR = (uint32_t)0x00000000;
 142              		.loc 1 420 0
 143 00b2 104B     		ldr	r3, .L9
 144 00b4 0022     		movs	r2, #0
 145 00b6 5A64     		str	r2, [r3, #68]
 421:/home/rdu/Workspace/project_templates/mcu/stm32_ws/src/libraries/STM32F4xx_StdPeriph_Driver/src/stm32f4xx_rtc.c ****       RTC->ALRMBSSR = (uint32_t)0x00000000;
 146              		.loc 1 421 0
 147 00b8 0E4B     		ldr	r3, .L9
 148 00ba 0022     		movs	r2, #0
 149 00bc 9A64     		str	r2, [r3, #72]
 422:/home/rdu/Workspace/project_templates/mcu/stm32_ws/src/libraries/STM32F4xx_StdPeriph_Driver/src/stm32f4xx_rtc.c ****       
 423:/home/rdu/Workspace/project_templates/mcu/stm32_ws/src/libraries/STM32F4xx_StdPeriph_Driver/src/stm32f4xx_rtc.c ****       /* Reset ISR register and exit initialization mode */
 424:/home/rdu/Workspace/project_templates/mcu/stm32_ws/src/libraries/STM32F4xx_StdPeriph_Driver/src/stm32f4xx_rtc.c ****       RTC->ISR = (uint32_t)0x00000000;
 150              		.loc 1 424 0
 151 00be 0D4B     		ldr	r3, .L9
 152 00c0 0022     		movs	r2, #0
 153 00c2 DA60     		str	r2, [r3, #12]
 425:/home/rdu/Workspace/project_templates/mcu/stm32_ws/src/libraries/STM32F4xx_StdPeriph_Driver/src/stm32f4xx_rtc.c ****       
 426:/home/rdu/Workspace/project_templates/mcu/stm32_ws/src/libraries/STM32F4xx_StdPeriph_Driver/src/stm32f4xx_rtc.c ****       /* Reset Tamper and alternate functions configuration register */
 427:/home/rdu/Workspace/project_templates/mcu/stm32_ws/src/libraries/STM32F4xx_StdPeriph_Driver/src/stm32f4xx_rtc.c ****       RTC->TAFCR = 0x00000000;
 154              		.loc 1 427 0
 155 00c4 0B4B     		ldr	r3, .L9
 156 00c6 0022     		movs	r2, #0
 157 00c8 1A64     		str	r2, [r3, #64]
 428:/home/rdu/Workspace/project_templates/mcu/stm32_ws/src/libraries/STM32F4xx_StdPeriph_Driver/src/stm32f4xx_rtc.c ****   
 429:/home/rdu/Workspace/project_templates/mcu/stm32_ws/src/libraries/STM32F4xx_StdPeriph_Driver/src/stm32f4xx_rtc.c ****       if(RTC_WaitForSynchro() == ERROR)
 158              		.loc 1 429 0
 159 00ca FFF7FEFF 		bl	RTC_WaitForSynchro
 160 00ce 0346     		mov	r3, r0
 161 00d0 002B     		cmp	r3, #0
 162 00d2 03D1     		bne	.L7
 430:/home/rdu/Workspace/project_templates/mcu/stm32_ws/src/libraries/STM32F4xx_StdPeriph_Driver/src/stm32f4xx_rtc.c ****       {
 431:/home/rdu/Workspace/project_templates/mcu/stm32_ws/src/libraries/STM32F4xx_StdPeriph_Driver/src/stm32f4xx_rtc.c ****         status = ERROR;
 163              		.loc 1 431 0
 164 00d4 0023     		movs	r3, #0
 165 00d6 8DF80F30 		strb	r3, [sp, #15]
 166 00da 02E0     		b	.L3
 167              	.L7:
 432:/home/rdu/Workspace/project_templates/mcu/stm32_ws/src/libraries/STM32F4xx_StdPeriph_Driver/src/stm32f4xx_rtc.c ****       }
 433:/home/rdu/Workspace/project_templates/mcu/stm32_ws/src/libraries/STM32F4xx_StdPeriph_Driver/src/stm32f4xx_rtc.c ****       else
 434:/home/rdu/Workspace/project_templates/mcu/stm32_ws/src/libraries/STM32F4xx_StdPeriph_Driver/src/stm32f4xx_rtc.c ****       {
 435:/home/rdu/Workspace/project_templates/mcu/stm32_ws/src/libraries/STM32F4xx_StdPeriph_Driver/src/stm32f4xx_rtc.c ****         status = SUCCESS;      
 168              		.loc 1 435 0
 169 00dc 0123     		movs	r3, #1
 170 00de 8DF80F30 		strb	r3, [sp, #15]
 171              	.L3:
 436:/home/rdu/Workspace/project_templates/mcu/stm32_ws/src/libraries/STM32F4xx_StdPeriph_Driver/src/stm32f4xx_rtc.c ****       }
 437:/home/rdu/Workspace/project_templates/mcu/stm32_ws/src/libraries/STM32F4xx_StdPeriph_Driver/src/stm32f4xx_rtc.c ****     }
 438:/home/rdu/Workspace/project_templates/mcu/stm32_ws/src/libraries/STM32F4xx_StdPeriph_Driver/src/stm32f4xx_rtc.c ****   }
 439:/home/rdu/Workspace/project_templates/mcu/stm32_ws/src/libraries/STM32F4xx_StdPeriph_Driver/src/stm32f4xx_rtc.c ****   
 440:/home/rdu/Workspace/project_templates/mcu/stm32_ws/src/libraries/STM32F4xx_StdPeriph_Driver/src/stm32f4xx_rtc.c ****   /* Enable the write protection for RTC registers */
 441:/home/rdu/Workspace/project_templates/mcu/stm32_ws/src/libraries/STM32F4xx_StdPeriph_Driver/src/stm32f4xx_rtc.c ****   RTC->WPR = 0xFF;  
 172              		.loc 1 441 0
 173 00e2 044B     		ldr	r3, .L9
 174 00e4 FF22     		movs	r2, #255
 175 00e6 5A62     		str	r2, [r3, #36]
 442:/home/rdu/Workspace/project_templates/mcu/stm32_ws/src/libraries/STM32F4xx_StdPeriph_Driver/src/stm32f4xx_rtc.c ****   
 443:/home/rdu/Workspace/project_templates/mcu/stm32_ws/src/libraries/STM32F4xx_StdPeriph_Driver/src/stm32f4xx_rtc.c ****   return status;
 176              		.loc 1 443 0
 177 00e8 9DF80F30 		ldrb	r3, [sp, #15]	@ zero_extendqisi2
 444:/home/rdu/Workspace/project_templates/mcu/stm32_ws/src/libraries/STM32F4xx_StdPeriph_Driver/src/stm32f4xx_rtc.c **** }
 178              		.loc 1 444 0
 179 00ec 1846     		mov	r0, r3
 180 00ee 05B0     		add	sp, sp, #20
 181              	.LCFI2:
 182              		.cfi_def_cfa_offset 4
 183              		@ sp needed
 184 00f0 5DF804FB 		ldr	pc, [sp], #4
 185              	.L10:
 186              		.align	2
 187              	.L9:
 188 00f4 00280040 		.word	1073752064
 189 00f8 FF007F00 		.word	8323327
 190              		.cfi_endproc
 191              	.LFE123:
 193              		.section	.text.RTC_Init,"ax",%progbits
 194              		.align	1
 195              		.global	RTC_Init
 196              		.syntax unified
 197              		.thumb
 198              		.thumb_func
 199              		.fpu fpv4-sp-d16
 201              	RTC_Init:
 202              	.LFB124:
 445:/home/rdu/Workspace/project_templates/mcu/stm32_ws/src/libraries/STM32F4xx_StdPeriph_Driver/src/stm32f4xx_rtc.c **** 
 446:/home/rdu/Workspace/project_templates/mcu/stm32_ws/src/libraries/STM32F4xx_StdPeriph_Driver/src/stm32f4xx_rtc.c **** /**
 447:/home/rdu/Workspace/project_templates/mcu/stm32_ws/src/libraries/STM32F4xx_StdPeriph_Driver/src/stm32f4xx_rtc.c ****   * @brief  Initializes the RTC registers according to the specified parameters 
 448:/home/rdu/Workspace/project_templates/mcu/stm32_ws/src/libraries/STM32F4xx_StdPeriph_Driver/src/stm32f4xx_rtc.c ****   *         in RTC_InitStruct.
 449:/home/rdu/Workspace/project_templates/mcu/stm32_ws/src/libraries/STM32F4xx_StdPeriph_Driver/src/stm32f4xx_rtc.c ****   * @param  RTC_InitStruct: pointer to a RTC_InitTypeDef structure that contains 
 450:/home/rdu/Workspace/project_templates/mcu/stm32_ws/src/libraries/STM32F4xx_StdPeriph_Driver/src/stm32f4xx_rtc.c ****   *         the configuration information for the RTC peripheral.
 451:/home/rdu/Workspace/project_templates/mcu/stm32_ws/src/libraries/STM32F4xx_StdPeriph_Driver/src/stm32f4xx_rtc.c ****   * @note   The RTC Prescaler register is write protected and can be written in 
 452:/home/rdu/Workspace/project_templates/mcu/stm32_ws/src/libraries/STM32F4xx_StdPeriph_Driver/src/stm32f4xx_rtc.c ****   *         initialization mode only.  
 453:/home/rdu/Workspace/project_templates/mcu/stm32_ws/src/libraries/STM32F4xx_StdPeriph_Driver/src/stm32f4xx_rtc.c ****   * @retval An ErrorStatus enumeration value:
 454:/home/rdu/Workspace/project_templates/mcu/stm32_ws/src/libraries/STM32F4xx_StdPeriph_Driver/src/stm32f4xx_rtc.c ****   *          - SUCCESS: RTC registers are initialized
 455:/home/rdu/Workspace/project_templates/mcu/stm32_ws/src/libraries/STM32F4xx_StdPeriph_Driver/src/stm32f4xx_rtc.c ****   *          - ERROR: RTC registers are not initialized  
 456:/home/rdu/Workspace/project_templates/mcu/stm32_ws/src/libraries/STM32F4xx_StdPeriph_Driver/src/stm32f4xx_rtc.c ****   */
 457:/home/rdu/Workspace/project_templates/mcu/stm32_ws/src/libraries/STM32F4xx_StdPeriph_Driver/src/stm32f4xx_rtc.c **** ErrorStatus RTC_Init(RTC_InitTypeDef* RTC_InitStruct)
 458:/home/rdu/Workspace/project_templates/mcu/stm32_ws/src/libraries/STM32F4xx_StdPeriph_Driver/src/stm32f4xx_rtc.c **** {
 203              		.loc 1 458 0
 204              		.cfi_startproc
 205              		@ args = 0, pretend = 0, frame = 16
 206              		@ frame_needed = 0, uses_anonymous_args = 0
 207 0000 00B5     		push	{lr}
 208              	.LCFI3:
 209              		.cfi_def_cfa_offset 4
 210              		.cfi_offset 14, -4
 211 0002 85B0     		sub	sp, sp, #20
 212              	.LCFI4:
 213              		.cfi_def_cfa_offset 24
 214 0004 0190     		str	r0, [sp, #4]
 459:/home/rdu/Workspace/project_templates/mcu/stm32_ws/src/libraries/STM32F4xx_StdPeriph_Driver/src/stm32f4xx_rtc.c ****   ErrorStatus status = ERROR;
 215              		.loc 1 459 0
 216 0006 0023     		movs	r3, #0
 217 0008 8DF80F30 		strb	r3, [sp, #15]
 460:/home/rdu/Workspace/project_templates/mcu/stm32_ws/src/libraries/STM32F4xx_StdPeriph_Driver/src/stm32f4xx_rtc.c ****   
 461:/home/rdu/Workspace/project_templates/mcu/stm32_ws/src/libraries/STM32F4xx_StdPeriph_Driver/src/stm32f4xx_rtc.c ****   /* Check the parameters */
 462:/home/rdu/Workspace/project_templates/mcu/stm32_ws/src/libraries/STM32F4xx_StdPeriph_Driver/src/stm32f4xx_rtc.c ****   assert_param(IS_RTC_HOUR_FORMAT(RTC_InitStruct->RTC_HourFormat));
 463:/home/rdu/Workspace/project_templates/mcu/stm32_ws/src/libraries/STM32F4xx_StdPeriph_Driver/src/stm32f4xx_rtc.c ****   assert_param(IS_RTC_ASYNCH_PREDIV(RTC_InitStruct->RTC_AsynchPrediv));
 464:/home/rdu/Workspace/project_templates/mcu/stm32_ws/src/libraries/STM32F4xx_StdPeriph_Driver/src/stm32f4xx_rtc.c ****   assert_param(IS_RTC_SYNCH_PREDIV(RTC_InitStruct->RTC_SynchPrediv));
 465:/home/rdu/Workspace/project_templates/mcu/stm32_ws/src/libraries/STM32F4xx_StdPeriph_Driver/src/stm32f4xx_rtc.c **** 
 466:/home/rdu/Workspace/project_templates/mcu/stm32_ws/src/libraries/STM32F4xx_StdPeriph_Driver/src/stm32f4xx_rtc.c ****   /* Disable the write protection for RTC registers */
 467:/home/rdu/Workspace/project_templates/mcu/stm32_ws/src/libraries/STM32F4xx_StdPeriph_Driver/src/stm32f4xx_rtc.c ****   RTC->WPR = 0xCA;
 218              		.loc 1 467 0
 219 000c 1A4B     		ldr	r3, .L15
 220 000e CA22     		movs	r2, #202
 221 0010 5A62     		str	r2, [r3, #36]
 468:/home/rdu/Workspace/project_templates/mcu/stm32_ws/src/libraries/STM32F4xx_StdPeriph_Driver/src/stm32f4xx_rtc.c ****   RTC->WPR = 0x53;
 222              		.loc 1 468 0
 223 0012 194B     		ldr	r3, .L15
 224 0014 5322     		movs	r2, #83
 225 0016 5A62     		str	r2, [r3, #36]
 469:/home/rdu/Workspace/project_templates/mcu/stm32_ws/src/libraries/STM32F4xx_StdPeriph_Driver/src/stm32f4xx_rtc.c **** 
 470:/home/rdu/Workspace/project_templates/mcu/stm32_ws/src/libraries/STM32F4xx_StdPeriph_Driver/src/stm32f4xx_rtc.c ****   /* Set Initialization mode */
 471:/home/rdu/Workspace/project_templates/mcu/stm32_ws/src/libraries/STM32F4xx_StdPeriph_Driver/src/stm32f4xx_rtc.c ****   if (RTC_EnterInitMode() == ERROR)
 226              		.loc 1 471 0
 227 0018 FFF7FEFF 		bl	RTC_EnterInitMode
 228 001c 0346     		mov	r3, r0
 229 001e 002B     		cmp	r3, #0
 230 0020 03D1     		bne	.L12
 472:/home/rdu/Workspace/project_templates/mcu/stm32_ws/src/libraries/STM32F4xx_StdPeriph_Driver/src/stm32f4xx_rtc.c ****   {
 473:/home/rdu/Workspace/project_templates/mcu/stm32_ws/src/libraries/STM32F4xx_StdPeriph_Driver/src/stm32f4xx_rtc.c ****     status = ERROR;
 231              		.loc 1 473 0
 232 0022 0023     		movs	r3, #0
 233 0024 8DF80F30 		strb	r3, [sp, #15]
 234 0028 1DE0     		b	.L13
 235              	.L12:
 474:/home/rdu/Workspace/project_templates/mcu/stm32_ws/src/libraries/STM32F4xx_StdPeriph_Driver/src/stm32f4xx_rtc.c ****   } 
 475:/home/rdu/Workspace/project_templates/mcu/stm32_ws/src/libraries/STM32F4xx_StdPeriph_Driver/src/stm32f4xx_rtc.c ****   else
 476:/home/rdu/Workspace/project_templates/mcu/stm32_ws/src/libraries/STM32F4xx_StdPeriph_Driver/src/stm32f4xx_rtc.c ****   {
 477:/home/rdu/Workspace/project_templates/mcu/stm32_ws/src/libraries/STM32F4xx_StdPeriph_Driver/src/stm32f4xx_rtc.c ****     /* Clear RTC CR FMT Bit */
 478:/home/rdu/Workspace/project_templates/mcu/stm32_ws/src/libraries/STM32F4xx_StdPeriph_Driver/src/stm32f4xx_rtc.c ****     RTC->CR &= ((uint32_t)~(RTC_CR_FMT));
 236              		.loc 1 478 0
 237 002a 134B     		ldr	r3, .L15
 238 002c 9B68     		ldr	r3, [r3, #8]
 239 002e 124A     		ldr	r2, .L15
 240 0030 23F04003 		bic	r3, r3, #64
 241 0034 9360     		str	r3, [r2, #8]
 479:/home/rdu/Workspace/project_templates/mcu/stm32_ws/src/libraries/STM32F4xx_StdPeriph_Driver/src/stm32f4xx_rtc.c ****     /* Set RTC_CR register */
 480:/home/rdu/Workspace/project_templates/mcu/stm32_ws/src/libraries/STM32F4xx_StdPeriph_Driver/src/stm32f4xx_rtc.c ****     RTC->CR |=  ((uint32_t)(RTC_InitStruct->RTC_HourFormat));
 242              		.loc 1 480 0
 243 0036 104B     		ldr	r3, .L15
 244 0038 9A68     		ldr	r2, [r3, #8]
 245 003a 019B     		ldr	r3, [sp, #4]
 246 003c 1B68     		ldr	r3, [r3]
 247 003e 0E49     		ldr	r1, .L15
 248 0040 1343     		orrs	r3, r3, r2
 249 0042 8B60     		str	r3, [r1, #8]
 481:/home/rdu/Workspace/project_templates/mcu/stm32_ws/src/libraries/STM32F4xx_StdPeriph_Driver/src/stm32f4xx_rtc.c ****   
 482:/home/rdu/Workspace/project_templates/mcu/stm32_ws/src/libraries/STM32F4xx_StdPeriph_Driver/src/stm32f4xx_rtc.c ****     /* Configure the RTC PRER */
 483:/home/rdu/Workspace/project_templates/mcu/stm32_ws/src/libraries/STM32F4xx_StdPeriph_Driver/src/stm32f4xx_rtc.c ****     RTC->PRER = (uint32_t)(RTC_InitStruct->RTC_SynchPrediv);
 250              		.loc 1 483 0
 251 0044 0C4A     		ldr	r2, .L15
 252 0046 019B     		ldr	r3, [sp, #4]
 253 0048 9B68     		ldr	r3, [r3, #8]
 254 004a 1361     		str	r3, [r2, #16]
 484:/home/rdu/Workspace/project_templates/mcu/stm32_ws/src/libraries/STM32F4xx_StdPeriph_Driver/src/stm32f4xx_rtc.c ****     RTC->PRER |= (uint32_t)(RTC_InitStruct->RTC_AsynchPrediv << 16);
 255              		.loc 1 484 0
 256 004c 0A4B     		ldr	r3, .L15
 257 004e 1A69     		ldr	r2, [r3, #16]
 258 0050 019B     		ldr	r3, [sp, #4]
 259 0052 5B68     		ldr	r3, [r3, #4]
 260 0054 1B04     		lsls	r3, r3, #16
 261 0056 0849     		ldr	r1, .L15
 262 0058 1343     		orrs	r3, r3, r2
 263 005a 0B61     		str	r3, [r1, #16]
 485:/home/rdu/Workspace/project_templates/mcu/stm32_ws/src/libraries/STM32F4xx_StdPeriph_Driver/src/stm32f4xx_rtc.c **** 
 486:/home/rdu/Workspace/project_templates/mcu/stm32_ws/src/libraries/STM32F4xx_StdPeriph_Driver/src/stm32f4xx_rtc.c ****     /* Exit Initialization mode */
 487:/home/rdu/Workspace/project_templates/mcu/stm32_ws/src/libraries/STM32F4xx_StdPeriph_Driver/src/stm32f4xx_rtc.c ****     RTC_ExitInitMode();
 264              		.loc 1 487 0
 265 005c FFF7FEFF 		bl	RTC_ExitInitMode
 488:/home/rdu/Workspace/project_templates/mcu/stm32_ws/src/libraries/STM32F4xx_StdPeriph_Driver/src/stm32f4xx_rtc.c **** 
 489:/home/rdu/Workspace/project_templates/mcu/stm32_ws/src/libraries/STM32F4xx_StdPeriph_Driver/src/stm32f4xx_rtc.c ****     status = SUCCESS;    
 266              		.loc 1 489 0
 267 0060 0123     		movs	r3, #1
 268 0062 8DF80F30 		strb	r3, [sp, #15]
 269              	.L13:
 490:/home/rdu/Workspace/project_templates/mcu/stm32_ws/src/libraries/STM32F4xx_StdPeriph_Driver/src/stm32f4xx_rtc.c ****   }
 491:/home/rdu/Workspace/project_templates/mcu/stm32_ws/src/libraries/STM32F4xx_StdPeriph_Driver/src/stm32f4xx_rtc.c ****   /* Enable the write protection for RTC registers */
 492:/home/rdu/Workspace/project_templates/mcu/stm32_ws/src/libraries/STM32F4xx_StdPeriph_Driver/src/stm32f4xx_rtc.c ****   RTC->WPR = 0xFF; 
 270              		.loc 1 492 0
 271 0066 044B     		ldr	r3, .L15
 272 0068 FF22     		movs	r2, #255
 273 006a 5A62     		str	r2, [r3, #36]
 493:/home/rdu/Workspace/project_templates/mcu/stm32_ws/src/libraries/STM32F4xx_StdPeriph_Driver/src/stm32f4xx_rtc.c ****   
 494:/home/rdu/Workspace/project_templates/mcu/stm32_ws/src/libraries/STM32F4xx_StdPeriph_Driver/src/stm32f4xx_rtc.c ****   return status;
 274              		.loc 1 494 0
 275 006c 9DF80F30 		ldrb	r3, [sp, #15]	@ zero_extendqisi2
 495:/home/rdu/Workspace/project_templates/mcu/stm32_ws/src/libraries/STM32F4xx_StdPeriph_Driver/src/stm32f4xx_rtc.c **** }
 276              		.loc 1 495 0
 277 0070 1846     		mov	r0, r3
 278 0072 05B0     		add	sp, sp, #20
 279              	.LCFI5:
 280              		.cfi_def_cfa_offset 4
 281              		@ sp needed
 282 0074 5DF804FB 		ldr	pc, [sp], #4
 283              	.L16:
 284              		.align	2
 285              	.L15:
 286 0078 00280040 		.word	1073752064
 287              		.cfi_endproc
 288              	.LFE124:
 290              		.section	.text.RTC_StructInit,"ax",%progbits
 291              		.align	1
 292              		.global	RTC_StructInit
 293              		.syntax unified
 294              		.thumb
 295              		.thumb_func
 296              		.fpu fpv4-sp-d16
 298              	RTC_StructInit:
 299              	.LFB125:
 496:/home/rdu/Workspace/project_templates/mcu/stm32_ws/src/libraries/STM32F4xx_StdPeriph_Driver/src/stm32f4xx_rtc.c **** 
 497:/home/rdu/Workspace/project_templates/mcu/stm32_ws/src/libraries/STM32F4xx_StdPeriph_Driver/src/stm32f4xx_rtc.c **** /**
 498:/home/rdu/Workspace/project_templates/mcu/stm32_ws/src/libraries/STM32F4xx_StdPeriph_Driver/src/stm32f4xx_rtc.c ****   * @brief  Fills each RTC_InitStruct member with its default value.
 499:/home/rdu/Workspace/project_templates/mcu/stm32_ws/src/libraries/STM32F4xx_StdPeriph_Driver/src/stm32f4xx_rtc.c ****   * @param  RTC_InitStruct: pointer to a RTC_InitTypeDef structure which will be 
 500:/home/rdu/Workspace/project_templates/mcu/stm32_ws/src/libraries/STM32F4xx_StdPeriph_Driver/src/stm32f4xx_rtc.c ****   *         initialized.
 501:/home/rdu/Workspace/project_templates/mcu/stm32_ws/src/libraries/STM32F4xx_StdPeriph_Driver/src/stm32f4xx_rtc.c ****   * @retval None
 502:/home/rdu/Workspace/project_templates/mcu/stm32_ws/src/libraries/STM32F4xx_StdPeriph_Driver/src/stm32f4xx_rtc.c ****   */
 503:/home/rdu/Workspace/project_templates/mcu/stm32_ws/src/libraries/STM32F4xx_StdPeriph_Driver/src/stm32f4xx_rtc.c **** void RTC_StructInit(RTC_InitTypeDef* RTC_InitStruct)
 504:/home/rdu/Workspace/project_templates/mcu/stm32_ws/src/libraries/STM32F4xx_StdPeriph_Driver/src/stm32f4xx_rtc.c **** {
 300              		.loc 1 504 0
 301              		.cfi_startproc
 302              		@ args = 0, pretend = 0, frame = 8
 303              		@ frame_needed = 0, uses_anonymous_args = 0
 304              		@ link register save eliminated.
 305 0000 82B0     		sub	sp, sp, #8
 306              	.LCFI6:
 307              		.cfi_def_cfa_offset 8
 308 0002 0190     		str	r0, [sp, #4]
 505:/home/rdu/Workspace/project_templates/mcu/stm32_ws/src/libraries/STM32F4xx_StdPeriph_Driver/src/stm32f4xx_rtc.c ****   /* Initialize the RTC_HourFormat member */
 506:/home/rdu/Workspace/project_templates/mcu/stm32_ws/src/libraries/STM32F4xx_StdPeriph_Driver/src/stm32f4xx_rtc.c ****   RTC_InitStruct->RTC_HourFormat = RTC_HourFormat_24;
 309              		.loc 1 506 0
 310 0004 019B     		ldr	r3, [sp, #4]
 311 0006 0022     		movs	r2, #0
 312 0008 1A60     		str	r2, [r3]
 507:/home/rdu/Workspace/project_templates/mcu/stm32_ws/src/libraries/STM32F4xx_StdPeriph_Driver/src/stm32f4xx_rtc.c ****     
 508:/home/rdu/Workspace/project_templates/mcu/stm32_ws/src/libraries/STM32F4xx_StdPeriph_Driver/src/stm32f4xx_rtc.c ****   /* Initialize the RTC_AsynchPrediv member */
 509:/home/rdu/Workspace/project_templates/mcu/stm32_ws/src/libraries/STM32F4xx_StdPeriph_Driver/src/stm32f4xx_rtc.c ****   RTC_InitStruct->RTC_AsynchPrediv = (uint32_t)0x7F;
 313              		.loc 1 509 0
 314 000a 019B     		ldr	r3, [sp, #4]
 315 000c 7F22     		movs	r2, #127
 316 000e 5A60     		str	r2, [r3, #4]
 510:/home/rdu/Workspace/project_templates/mcu/stm32_ws/src/libraries/STM32F4xx_StdPeriph_Driver/src/stm32f4xx_rtc.c **** 
 511:/home/rdu/Workspace/project_templates/mcu/stm32_ws/src/libraries/STM32F4xx_StdPeriph_Driver/src/stm32f4xx_rtc.c ****   /* Initialize the RTC_SynchPrediv member */
 512:/home/rdu/Workspace/project_templates/mcu/stm32_ws/src/libraries/STM32F4xx_StdPeriph_Driver/src/stm32f4xx_rtc.c ****   RTC_InitStruct->RTC_SynchPrediv = (uint32_t)0xFF; 
 317              		.loc 1 512 0
 318 0010 019B     		ldr	r3, [sp, #4]
 319 0012 FF22     		movs	r2, #255
 320 0014 9A60     		str	r2, [r3, #8]
 513:/home/rdu/Workspace/project_templates/mcu/stm32_ws/src/libraries/STM32F4xx_StdPeriph_Driver/src/stm32f4xx_rtc.c **** }
 321              		.loc 1 513 0
 322 0016 00BF     		nop
 323 0018 02B0     		add	sp, sp, #8
 324              	.LCFI7:
 325              		.cfi_def_cfa_offset 0
 326              		@ sp needed
 327 001a 7047     		bx	lr
 328              		.cfi_endproc
 329              	.LFE125:
 331              		.section	.text.RTC_WriteProtectionCmd,"ax",%progbits
 332              		.align	1
 333              		.global	RTC_WriteProtectionCmd
 334              		.syntax unified
 335              		.thumb
 336              		.thumb_func
 337              		.fpu fpv4-sp-d16
 339              	RTC_WriteProtectionCmd:
 340              	.LFB126:
 514:/home/rdu/Workspace/project_templates/mcu/stm32_ws/src/libraries/STM32F4xx_StdPeriph_Driver/src/stm32f4xx_rtc.c **** 
 515:/home/rdu/Workspace/project_templates/mcu/stm32_ws/src/libraries/STM32F4xx_StdPeriph_Driver/src/stm32f4xx_rtc.c **** /**
 516:/home/rdu/Workspace/project_templates/mcu/stm32_ws/src/libraries/STM32F4xx_StdPeriph_Driver/src/stm32f4xx_rtc.c ****   * @brief  Enables or disables the RTC registers write protection.
 517:/home/rdu/Workspace/project_templates/mcu/stm32_ws/src/libraries/STM32F4xx_StdPeriph_Driver/src/stm32f4xx_rtc.c ****   * @note   All the RTC registers are write protected except for RTC_ISR[13:8], 
 518:/home/rdu/Workspace/project_templates/mcu/stm32_ws/src/libraries/STM32F4xx_StdPeriph_Driver/src/stm32f4xx_rtc.c ****   *         RTC_TAFCR and RTC_BKPxR.
 519:/home/rdu/Workspace/project_templates/mcu/stm32_ws/src/libraries/STM32F4xx_StdPeriph_Driver/src/stm32f4xx_rtc.c ****   * @note   Writing a wrong key reactivates the write protection.
 520:/home/rdu/Workspace/project_templates/mcu/stm32_ws/src/libraries/STM32F4xx_StdPeriph_Driver/src/stm32f4xx_rtc.c ****   * @note   The protection mechanism is not affected by system reset.  
 521:/home/rdu/Workspace/project_templates/mcu/stm32_ws/src/libraries/STM32F4xx_StdPeriph_Driver/src/stm32f4xx_rtc.c ****   * @param  NewState: new state of the write protection.
 522:/home/rdu/Workspace/project_templates/mcu/stm32_ws/src/libraries/STM32F4xx_StdPeriph_Driver/src/stm32f4xx_rtc.c ****   *          This parameter can be: ENABLE or DISABLE.
 523:/home/rdu/Workspace/project_templates/mcu/stm32_ws/src/libraries/STM32F4xx_StdPeriph_Driver/src/stm32f4xx_rtc.c ****   * @retval None
 524:/home/rdu/Workspace/project_templates/mcu/stm32_ws/src/libraries/STM32F4xx_StdPeriph_Driver/src/stm32f4xx_rtc.c ****   */
 525:/home/rdu/Workspace/project_templates/mcu/stm32_ws/src/libraries/STM32F4xx_StdPeriph_Driver/src/stm32f4xx_rtc.c **** void RTC_WriteProtectionCmd(FunctionalState NewState)
 526:/home/rdu/Workspace/project_templates/mcu/stm32_ws/src/libraries/STM32F4xx_StdPeriph_Driver/src/stm32f4xx_rtc.c **** {
 341              		.loc 1 526 0
 342              		.cfi_startproc
 343              		@ args = 0, pretend = 0, frame = 8
 344              		@ frame_needed = 0, uses_anonymous_args = 0
 345              		@ link register save eliminated.
 346 0000 82B0     		sub	sp, sp, #8
 347              	.LCFI8:
 348              		.cfi_def_cfa_offset 8
 349 0002 0346     		mov	r3, r0
 350 0004 8DF80730 		strb	r3, [sp, #7]
 527:/home/rdu/Workspace/project_templates/mcu/stm32_ws/src/libraries/STM32F4xx_StdPeriph_Driver/src/stm32f4xx_rtc.c ****   /* Check the parameters */
 528:/home/rdu/Workspace/project_templates/mcu/stm32_ws/src/libraries/STM32F4xx_StdPeriph_Driver/src/stm32f4xx_rtc.c ****   assert_param(IS_FUNCTIONAL_STATE(NewState));
 529:/home/rdu/Workspace/project_templates/mcu/stm32_ws/src/libraries/STM32F4xx_StdPeriph_Driver/src/stm32f4xx_rtc.c ****     
 530:/home/rdu/Workspace/project_templates/mcu/stm32_ws/src/libraries/STM32F4xx_StdPeriph_Driver/src/stm32f4xx_rtc.c ****   if (NewState != DISABLE)
 351              		.loc 1 530 0
 352 0008 9DF80730 		ldrb	r3, [sp, #7]	@ zero_extendqisi2
 353 000c 002B     		cmp	r3, #0
 354 000e 03D0     		beq	.L19
 531:/home/rdu/Workspace/project_templates/mcu/stm32_ws/src/libraries/STM32F4xx_StdPeriph_Driver/src/stm32f4xx_rtc.c ****   {
 532:/home/rdu/Workspace/project_templates/mcu/stm32_ws/src/libraries/STM32F4xx_StdPeriph_Driver/src/stm32f4xx_rtc.c ****     /* Enable the write protection for RTC registers */
 533:/home/rdu/Workspace/project_templates/mcu/stm32_ws/src/libraries/STM32F4xx_StdPeriph_Driver/src/stm32f4xx_rtc.c ****     RTC->WPR = 0xFF;   
 355              		.loc 1 533 0
 356 0010 064B     		ldr	r3, .L22
 357 0012 FF22     		movs	r2, #255
 358 0014 5A62     		str	r2, [r3, #36]
 534:/home/rdu/Workspace/project_templates/mcu/stm32_ws/src/libraries/STM32F4xx_StdPeriph_Driver/src/stm32f4xx_rtc.c ****   }
 535:/home/rdu/Workspace/project_templates/mcu/stm32_ws/src/libraries/STM32F4xx_StdPeriph_Driver/src/stm32f4xx_rtc.c ****   else
 536:/home/rdu/Workspace/project_templates/mcu/stm32_ws/src/libraries/STM32F4xx_StdPeriph_Driver/src/stm32f4xx_rtc.c ****   {
 537:/home/rdu/Workspace/project_templates/mcu/stm32_ws/src/libraries/STM32F4xx_StdPeriph_Driver/src/stm32f4xx_rtc.c ****     /* Disable the write protection for RTC registers */
 538:/home/rdu/Workspace/project_templates/mcu/stm32_ws/src/libraries/STM32F4xx_StdPeriph_Driver/src/stm32f4xx_rtc.c ****     RTC->WPR = 0xCA;
 539:/home/rdu/Workspace/project_templates/mcu/stm32_ws/src/libraries/STM32F4xx_StdPeriph_Driver/src/stm32f4xx_rtc.c ****     RTC->WPR = 0x53;    
 540:/home/rdu/Workspace/project_templates/mcu/stm32_ws/src/libraries/STM32F4xx_StdPeriph_Driver/src/stm32f4xx_rtc.c ****   }
 541:/home/rdu/Workspace/project_templates/mcu/stm32_ws/src/libraries/STM32F4xx_StdPeriph_Driver/src/stm32f4xx_rtc.c **** }
 359              		.loc 1 541 0
 360 0016 05E0     		b	.L21
 361              	.L19:
 538:/home/rdu/Workspace/project_templates/mcu/stm32_ws/src/libraries/STM32F4xx_StdPeriph_Driver/src/stm32f4xx_rtc.c ****     RTC->WPR = 0x53;    
 362              		.loc 1 538 0
 363 0018 044B     		ldr	r3, .L22
 364 001a CA22     		movs	r2, #202
 365 001c 5A62     		str	r2, [r3, #36]
 539:/home/rdu/Workspace/project_templates/mcu/stm32_ws/src/libraries/STM32F4xx_StdPeriph_Driver/src/stm32f4xx_rtc.c ****   }
 366              		.loc 1 539 0
 367 001e 034B     		ldr	r3, .L22
 368 0020 5322     		movs	r2, #83
 369 0022 5A62     		str	r2, [r3, #36]
 370              	.L21:
 371              		.loc 1 541 0
 372 0024 00BF     		nop
 373 0026 02B0     		add	sp, sp, #8
 374              	.LCFI9:
 375              		.cfi_def_cfa_offset 0
 376              		@ sp needed
 377 0028 7047     		bx	lr
 378              	.L23:
 379 002a 00BF     		.align	2
 380              	.L22:
 381 002c 00280040 		.word	1073752064
 382              		.cfi_endproc
 383              	.LFE126:
 385              		.section	.text.RTC_EnterInitMode,"ax",%progbits
 386              		.align	1
 387              		.global	RTC_EnterInitMode
 388              		.syntax unified
 389              		.thumb
 390              		.thumb_func
 391              		.fpu fpv4-sp-d16
 393              	RTC_EnterInitMode:
 394              	.LFB127:
 542:/home/rdu/Workspace/project_templates/mcu/stm32_ws/src/libraries/STM32F4xx_StdPeriph_Driver/src/stm32f4xx_rtc.c **** 
 543:/home/rdu/Workspace/project_templates/mcu/stm32_ws/src/libraries/STM32F4xx_StdPeriph_Driver/src/stm32f4xx_rtc.c **** /**
 544:/home/rdu/Workspace/project_templates/mcu/stm32_ws/src/libraries/STM32F4xx_StdPeriph_Driver/src/stm32f4xx_rtc.c ****   * @brief  Enters the RTC Initialization mode.
 545:/home/rdu/Workspace/project_templates/mcu/stm32_ws/src/libraries/STM32F4xx_StdPeriph_Driver/src/stm32f4xx_rtc.c ****   * @note   The RTC Initialization mode is write protected, use the 
 546:/home/rdu/Workspace/project_templates/mcu/stm32_ws/src/libraries/STM32F4xx_StdPeriph_Driver/src/stm32f4xx_rtc.c ****   *         RTC_WriteProtectionCmd(DISABLE) before calling this function.    
 547:/home/rdu/Workspace/project_templates/mcu/stm32_ws/src/libraries/STM32F4xx_StdPeriph_Driver/src/stm32f4xx_rtc.c ****   * @param  None
 548:/home/rdu/Workspace/project_templates/mcu/stm32_ws/src/libraries/STM32F4xx_StdPeriph_Driver/src/stm32f4xx_rtc.c ****   * @retval An ErrorStatus enumeration value:
 549:/home/rdu/Workspace/project_templates/mcu/stm32_ws/src/libraries/STM32F4xx_StdPeriph_Driver/src/stm32f4xx_rtc.c ****   *          - SUCCESS: RTC is in Init mode
 550:/home/rdu/Workspace/project_templates/mcu/stm32_ws/src/libraries/STM32F4xx_StdPeriph_Driver/src/stm32f4xx_rtc.c ****   *          - ERROR: RTC is not in Init mode  
 551:/home/rdu/Workspace/project_templates/mcu/stm32_ws/src/libraries/STM32F4xx_StdPeriph_Driver/src/stm32f4xx_rtc.c ****   */
 552:/home/rdu/Workspace/project_templates/mcu/stm32_ws/src/libraries/STM32F4xx_StdPeriph_Driver/src/stm32f4xx_rtc.c **** ErrorStatus RTC_EnterInitMode(void)
 553:/home/rdu/Workspace/project_templates/mcu/stm32_ws/src/libraries/STM32F4xx_StdPeriph_Driver/src/stm32f4xx_rtc.c **** {
 395              		.loc 1 553 0
 396              		.cfi_startproc
 397              		@ args = 0, pretend = 0, frame = 16
 398              		@ frame_needed = 0, uses_anonymous_args = 0
 399              		@ link register save eliminated.
 400 0000 84B0     		sub	sp, sp, #16
 401              	.LCFI10:
 402              		.cfi_def_cfa_offset 16
 554:/home/rdu/Workspace/project_templates/mcu/stm32_ws/src/libraries/STM32F4xx_StdPeriph_Driver/src/stm32f4xx_rtc.c ****   __IO uint32_t initcounter = 0x00;
 403              		.loc 1 554 0
 404 0002 0023     		movs	r3, #0
 405 0004 0193     		str	r3, [sp, #4]
 555:/home/rdu/Workspace/project_templates/mcu/stm32_ws/src/libraries/STM32F4xx_StdPeriph_Driver/src/stm32f4xx_rtc.c ****   ErrorStatus status = ERROR;
 406              		.loc 1 555 0
 407 0006 0023     		movs	r3, #0
 408 0008 8DF80F30 		strb	r3, [sp, #15]
 556:/home/rdu/Workspace/project_templates/mcu/stm32_ws/src/libraries/STM32F4xx_StdPeriph_Driver/src/stm32f4xx_rtc.c ****   uint32_t initstatus = 0x00;
 409              		.loc 1 556 0
 410 000c 0023     		movs	r3, #0
 411 000e 0293     		str	r3, [sp, #8]
 557:/home/rdu/Workspace/project_templates/mcu/stm32_ws/src/libraries/STM32F4xx_StdPeriph_Driver/src/stm32f4xx_rtc.c ****      
 558:/home/rdu/Workspace/project_templates/mcu/stm32_ws/src/libraries/STM32F4xx_StdPeriph_Driver/src/stm32f4xx_rtc.c ****   /* Check if the Initialization mode is set */
 559:/home/rdu/Workspace/project_templates/mcu/stm32_ws/src/libraries/STM32F4xx_StdPeriph_Driver/src/stm32f4xx_rtc.c ****   if ((RTC->ISR & RTC_ISR_INITF) == (uint32_t)RESET)
 412              		.loc 1 559 0
 413 0010 174B     		ldr	r3, .L32
 414 0012 DB68     		ldr	r3, [r3, #12]
 415 0014 03F04003 		and	r3, r3, #64
 416 0018 002B     		cmp	r3, #0
 417 001a 20D1     		bne	.L25
 560:/home/rdu/Workspace/project_templates/mcu/stm32_ws/src/libraries/STM32F4xx_StdPeriph_Driver/src/stm32f4xx_rtc.c ****   {
 561:/home/rdu/Workspace/project_templates/mcu/stm32_ws/src/libraries/STM32F4xx_StdPeriph_Driver/src/stm32f4xx_rtc.c ****     /* Set the Initialization mode */
 562:/home/rdu/Workspace/project_templates/mcu/stm32_ws/src/libraries/STM32F4xx_StdPeriph_Driver/src/stm32f4xx_rtc.c ****     RTC->ISR = (uint32_t)RTC_INIT_MASK;
 418              		.loc 1 562 0
 419 001c 144B     		ldr	r3, .L32
 420 001e 4FF0FF32 		mov	r2, #-1
 421 0022 DA60     		str	r2, [r3, #12]
 422              	.L27:
 563:/home/rdu/Workspace/project_templates/mcu/stm32_ws/src/libraries/STM32F4xx_StdPeriph_Driver/src/stm32f4xx_rtc.c ****     
 564:/home/rdu/Workspace/project_templates/mcu/stm32_ws/src/libraries/STM32F4xx_StdPeriph_Driver/src/stm32f4xx_rtc.c ****     /* Wait till RTC is in INIT state and if Time out is reached exit */
 565:/home/rdu/Workspace/project_templates/mcu/stm32_ws/src/libraries/STM32F4xx_StdPeriph_Driver/src/stm32f4xx_rtc.c ****     do
 566:/home/rdu/Workspace/project_templates/mcu/stm32_ws/src/libraries/STM32F4xx_StdPeriph_Driver/src/stm32f4xx_rtc.c ****     {
 567:/home/rdu/Workspace/project_templates/mcu/stm32_ws/src/libraries/STM32F4xx_StdPeriph_Driver/src/stm32f4xx_rtc.c ****       initstatus = RTC->ISR & RTC_ISR_INITF;
 423              		.loc 1 567 0 discriminator 2
 424 0024 124B     		ldr	r3, .L32
 425 0026 DB68     		ldr	r3, [r3, #12]
 426 0028 03F04003 		and	r3, r3, #64
 427 002c 0293     		str	r3, [sp, #8]
 568:/home/rdu/Workspace/project_templates/mcu/stm32_ws/src/libraries/STM32F4xx_StdPeriph_Driver/src/stm32f4xx_rtc.c ****       initcounter++;  
 428              		.loc 1 568 0 discriminator 2
 429 002e 019B     		ldr	r3, [sp, #4]
 430 0030 0133     		adds	r3, r3, #1
 431 0032 0193     		str	r3, [sp, #4]
 569:/home/rdu/Workspace/project_templates/mcu/stm32_ws/src/libraries/STM32F4xx_StdPeriph_Driver/src/stm32f4xx_rtc.c ****     } while((initcounter != INITMODE_TIMEOUT) && (initstatus == 0x00));
 432              		.loc 1 569 0 discriminator 2
 433 0034 019B     		ldr	r3, [sp, #4]
 434 0036 B3F5803F 		cmp	r3, #65536
 435 003a 02D0     		beq	.L26
 436              		.loc 1 569 0 is_stmt 0 discriminator 1
 437 003c 029B     		ldr	r3, [sp, #8]
 438 003e 002B     		cmp	r3, #0
 439 0040 F0D0     		beq	.L27
 440              	.L26:
 570:/home/rdu/Workspace/project_templates/mcu/stm32_ws/src/libraries/STM32F4xx_StdPeriph_Driver/src/stm32f4xx_rtc.c ****     
 571:/home/rdu/Workspace/project_templates/mcu/stm32_ws/src/libraries/STM32F4xx_StdPeriph_Driver/src/stm32f4xx_rtc.c ****     if ((RTC->ISR & RTC_ISR_INITF) != RESET)
 441              		.loc 1 571 0 is_stmt 1
 442 0042 0B4B     		ldr	r3, .L32
 443 0044 DB68     		ldr	r3, [r3, #12]
 444 0046 03F04003 		and	r3, r3, #64
 445 004a 002B     		cmp	r3, #0
 446 004c 03D0     		beq	.L28
 572:/home/rdu/Workspace/project_templates/mcu/stm32_ws/src/libraries/STM32F4xx_StdPeriph_Driver/src/stm32f4xx_rtc.c ****     {
 573:/home/rdu/Workspace/project_templates/mcu/stm32_ws/src/libraries/STM32F4xx_StdPeriph_Driver/src/stm32f4xx_rtc.c ****       status = SUCCESS;
 447              		.loc 1 573 0
 448 004e 0123     		movs	r3, #1
 449 0050 8DF80F30 		strb	r3, [sp, #15]
 450 0054 06E0     		b	.L30
 451              	.L28:
 574:/home/rdu/Workspace/project_templates/mcu/stm32_ws/src/libraries/STM32F4xx_StdPeriph_Driver/src/stm32f4xx_rtc.c ****     }
 575:/home/rdu/Workspace/project_templates/mcu/stm32_ws/src/libraries/STM32F4xx_StdPeriph_Driver/src/stm32f4xx_rtc.c ****     else
 576:/home/rdu/Workspace/project_templates/mcu/stm32_ws/src/libraries/STM32F4xx_StdPeriph_Driver/src/stm32f4xx_rtc.c ****     {
 577:/home/rdu/Workspace/project_templates/mcu/stm32_ws/src/libraries/STM32F4xx_StdPeriph_Driver/src/stm32f4xx_rtc.c ****       status = ERROR;
 452              		.loc 1 577 0
 453 0056 0023     		movs	r3, #0
 454 0058 8DF80F30 		strb	r3, [sp, #15]
 455 005c 02E0     		b	.L30
 456              	.L25:
 578:/home/rdu/Workspace/project_templates/mcu/stm32_ws/src/libraries/STM32F4xx_StdPeriph_Driver/src/stm32f4xx_rtc.c ****     }        
 579:/home/rdu/Workspace/project_templates/mcu/stm32_ws/src/libraries/STM32F4xx_StdPeriph_Driver/src/stm32f4xx_rtc.c ****   }
 580:/home/rdu/Workspace/project_templates/mcu/stm32_ws/src/libraries/STM32F4xx_StdPeriph_Driver/src/stm32f4xx_rtc.c ****   else
 581:/home/rdu/Workspace/project_templates/mcu/stm32_ws/src/libraries/STM32F4xx_StdPeriph_Driver/src/stm32f4xx_rtc.c ****   {
 582:/home/rdu/Workspace/project_templates/mcu/stm32_ws/src/libraries/STM32F4xx_StdPeriph_Driver/src/stm32f4xx_rtc.c ****     status = SUCCESS;  
 457              		.loc 1 582 0
 458 005e 0123     		movs	r3, #1
 459 0060 8DF80F30 		strb	r3, [sp, #15]
 460              	.L30:
 583:/home/rdu/Workspace/project_templates/mcu/stm32_ws/src/libraries/STM32F4xx_StdPeriph_Driver/src/stm32f4xx_rtc.c ****   } 
 584:/home/rdu/Workspace/project_templates/mcu/stm32_ws/src/libraries/STM32F4xx_StdPeriph_Driver/src/stm32f4xx_rtc.c ****     
 585:/home/rdu/Workspace/project_templates/mcu/stm32_ws/src/libraries/STM32F4xx_StdPeriph_Driver/src/stm32f4xx_rtc.c ****   return (status);  
 461              		.loc 1 585 0
 462 0064 9DF80F30 		ldrb	r3, [sp, #15]	@ zero_extendqisi2
 586:/home/rdu/Workspace/project_templates/mcu/stm32_ws/src/libraries/STM32F4xx_StdPeriph_Driver/src/stm32f4xx_rtc.c **** }
 463              		.loc 1 586 0
 464 0068 1846     		mov	r0, r3
 465 006a 04B0     		add	sp, sp, #16
 466              	.LCFI11:
 467              		.cfi_def_cfa_offset 0
 468              		@ sp needed
 469 006c 7047     		bx	lr
 470              	.L33:
 471 006e 00BF     		.align	2
 472              	.L32:
 473 0070 00280040 		.word	1073752064
 474              		.cfi_endproc
 475              	.LFE127:
 477              		.section	.text.RTC_ExitInitMode,"ax",%progbits
 478              		.align	1
 479              		.global	RTC_ExitInitMode
 480              		.syntax unified
 481              		.thumb
 482              		.thumb_func
 483              		.fpu fpv4-sp-d16
 485              	RTC_ExitInitMode:
 486              	.LFB128:
 587:/home/rdu/Workspace/project_templates/mcu/stm32_ws/src/libraries/STM32F4xx_StdPeriph_Driver/src/stm32f4xx_rtc.c **** 
 588:/home/rdu/Workspace/project_templates/mcu/stm32_ws/src/libraries/STM32F4xx_StdPeriph_Driver/src/stm32f4xx_rtc.c **** /**
 589:/home/rdu/Workspace/project_templates/mcu/stm32_ws/src/libraries/STM32F4xx_StdPeriph_Driver/src/stm32f4xx_rtc.c ****   * @brief  Exits the RTC Initialization mode.
 590:/home/rdu/Workspace/project_templates/mcu/stm32_ws/src/libraries/STM32F4xx_StdPeriph_Driver/src/stm32f4xx_rtc.c ****   * @note   When the initialization sequence is complete, the calendar restarts 
 591:/home/rdu/Workspace/project_templates/mcu/stm32_ws/src/libraries/STM32F4xx_StdPeriph_Driver/src/stm32f4xx_rtc.c ****   *         counting after 4 RTCCLK cycles.  
 592:/home/rdu/Workspace/project_templates/mcu/stm32_ws/src/libraries/STM32F4xx_StdPeriph_Driver/src/stm32f4xx_rtc.c ****   * @note   The RTC Initialization mode is write protected, use the 
 593:/home/rdu/Workspace/project_templates/mcu/stm32_ws/src/libraries/STM32F4xx_StdPeriph_Driver/src/stm32f4xx_rtc.c ****   *         RTC_WriteProtectionCmd(DISABLE) before calling this function.      
 594:/home/rdu/Workspace/project_templates/mcu/stm32_ws/src/libraries/STM32F4xx_StdPeriph_Driver/src/stm32f4xx_rtc.c ****   * @param  None
 595:/home/rdu/Workspace/project_templates/mcu/stm32_ws/src/libraries/STM32F4xx_StdPeriph_Driver/src/stm32f4xx_rtc.c ****   * @retval None
 596:/home/rdu/Workspace/project_templates/mcu/stm32_ws/src/libraries/STM32F4xx_StdPeriph_Driver/src/stm32f4xx_rtc.c ****   */
 597:/home/rdu/Workspace/project_templates/mcu/stm32_ws/src/libraries/STM32F4xx_StdPeriph_Driver/src/stm32f4xx_rtc.c **** void RTC_ExitInitMode(void)
 598:/home/rdu/Workspace/project_templates/mcu/stm32_ws/src/libraries/STM32F4xx_StdPeriph_Driver/src/stm32f4xx_rtc.c **** { 
 487              		.loc 1 598 0
 488              		.cfi_startproc
 489              		@ args = 0, pretend = 0, frame = 0
 490              		@ frame_needed = 0, uses_anonymous_args = 0
 491              		@ link register save eliminated.
 599:/home/rdu/Workspace/project_templates/mcu/stm32_ws/src/libraries/STM32F4xx_StdPeriph_Driver/src/stm32f4xx_rtc.c ****   /* Exit Initialization mode */
 600:/home/rdu/Workspace/project_templates/mcu/stm32_ws/src/libraries/STM32F4xx_StdPeriph_Driver/src/stm32f4xx_rtc.c ****   RTC->ISR &= (uint32_t)~RTC_ISR_INIT;  
 492              		.loc 1 600 0
 493 0000 034B     		ldr	r3, .L35
 494 0002 DB68     		ldr	r3, [r3, #12]
 495 0004 024A     		ldr	r2, .L35
 496 0006 23F08003 		bic	r3, r3, #128
 497 000a D360     		str	r3, [r2, #12]
 601:/home/rdu/Workspace/project_templates/mcu/stm32_ws/src/libraries/STM32F4xx_StdPeriph_Driver/src/stm32f4xx_rtc.c **** }
 498              		.loc 1 601 0
 499 000c 00BF     		nop
 500 000e 7047     		bx	lr
 501              	.L36:
 502              		.align	2
 503              	.L35:
 504 0010 00280040 		.word	1073752064
 505              		.cfi_endproc
 506              	.LFE128:
 508              		.section	.text.RTC_WaitForSynchro,"ax",%progbits
 509              		.align	1
 510              		.global	RTC_WaitForSynchro
 511              		.syntax unified
 512              		.thumb
 513              		.thumb_func
 514              		.fpu fpv4-sp-d16
 516              	RTC_WaitForSynchro:
 517              	.LFB129:
 602:/home/rdu/Workspace/project_templates/mcu/stm32_ws/src/libraries/STM32F4xx_StdPeriph_Driver/src/stm32f4xx_rtc.c **** 
 603:/home/rdu/Workspace/project_templates/mcu/stm32_ws/src/libraries/STM32F4xx_StdPeriph_Driver/src/stm32f4xx_rtc.c **** /**
 604:/home/rdu/Workspace/project_templates/mcu/stm32_ws/src/libraries/STM32F4xx_StdPeriph_Driver/src/stm32f4xx_rtc.c ****   * @brief  Waits until the RTC Time and Date registers (RTC_TR and RTC_DR) are 
 605:/home/rdu/Workspace/project_templates/mcu/stm32_ws/src/libraries/STM32F4xx_StdPeriph_Driver/src/stm32f4xx_rtc.c ****   *         synchronized with RTC APB clock.
 606:/home/rdu/Workspace/project_templates/mcu/stm32_ws/src/libraries/STM32F4xx_StdPeriph_Driver/src/stm32f4xx_rtc.c ****   * @note   The RTC Resynchronization mode is write protected, use the 
 607:/home/rdu/Workspace/project_templates/mcu/stm32_ws/src/libraries/STM32F4xx_StdPeriph_Driver/src/stm32f4xx_rtc.c ****   *         RTC_WriteProtectionCmd(DISABLE) before calling this function. 
 608:/home/rdu/Workspace/project_templates/mcu/stm32_ws/src/libraries/STM32F4xx_StdPeriph_Driver/src/stm32f4xx_rtc.c ****   * @note   To read the calendar through the shadow registers after Calendar 
 609:/home/rdu/Workspace/project_templates/mcu/stm32_ws/src/libraries/STM32F4xx_StdPeriph_Driver/src/stm32f4xx_rtc.c ****   *         initialization, calendar update or after wakeup from low power modes 
 610:/home/rdu/Workspace/project_templates/mcu/stm32_ws/src/libraries/STM32F4xx_StdPeriph_Driver/src/stm32f4xx_rtc.c ****   *         the software must first clear the RSF flag. 
 611:/home/rdu/Workspace/project_templates/mcu/stm32_ws/src/libraries/STM32F4xx_StdPeriph_Driver/src/stm32f4xx_rtc.c ****   *         The software must then wait until it is set again before reading 
 612:/home/rdu/Workspace/project_templates/mcu/stm32_ws/src/libraries/STM32F4xx_StdPeriph_Driver/src/stm32f4xx_rtc.c ****   *         the calendar, which means that the calendar registers have been 
 613:/home/rdu/Workspace/project_templates/mcu/stm32_ws/src/libraries/STM32F4xx_StdPeriph_Driver/src/stm32f4xx_rtc.c ****   *         correctly copied into the RTC_TR and RTC_DR shadow registers.   
 614:/home/rdu/Workspace/project_templates/mcu/stm32_ws/src/libraries/STM32F4xx_StdPeriph_Driver/src/stm32f4xx_rtc.c ****   * @param  None
 615:/home/rdu/Workspace/project_templates/mcu/stm32_ws/src/libraries/STM32F4xx_StdPeriph_Driver/src/stm32f4xx_rtc.c ****   * @retval An ErrorStatus enumeration value:
 616:/home/rdu/Workspace/project_templates/mcu/stm32_ws/src/libraries/STM32F4xx_StdPeriph_Driver/src/stm32f4xx_rtc.c ****   *          - SUCCESS: RTC registers are synchronised
 617:/home/rdu/Workspace/project_templates/mcu/stm32_ws/src/libraries/STM32F4xx_StdPeriph_Driver/src/stm32f4xx_rtc.c ****   *          - ERROR: RTC registers are not synchronised
 618:/home/rdu/Workspace/project_templates/mcu/stm32_ws/src/libraries/STM32F4xx_StdPeriph_Driver/src/stm32f4xx_rtc.c ****   */
 619:/home/rdu/Workspace/project_templates/mcu/stm32_ws/src/libraries/STM32F4xx_StdPeriph_Driver/src/stm32f4xx_rtc.c **** ErrorStatus RTC_WaitForSynchro(void)
 620:/home/rdu/Workspace/project_templates/mcu/stm32_ws/src/libraries/STM32F4xx_StdPeriph_Driver/src/stm32f4xx_rtc.c **** {
 518              		.loc 1 620 0
 519              		.cfi_startproc
 520              		@ args = 0, pretend = 0, frame = 16
 521              		@ frame_needed = 0, uses_anonymous_args = 0
 522              		@ link register save eliminated.
 523 0000 84B0     		sub	sp, sp, #16
 524              	.LCFI12:
 525              		.cfi_def_cfa_offset 16
 621:/home/rdu/Workspace/project_templates/mcu/stm32_ws/src/libraries/STM32F4xx_StdPeriph_Driver/src/stm32f4xx_rtc.c ****   __IO uint32_t synchrocounter = 0;
 526              		.loc 1 621 0
 527 0002 0023     		movs	r3, #0
 528 0004 0193     		str	r3, [sp, #4]
 622:/home/rdu/Workspace/project_templates/mcu/stm32_ws/src/libraries/STM32F4xx_StdPeriph_Driver/src/stm32f4xx_rtc.c ****   ErrorStatus status = ERROR;
 529              		.loc 1 622 0
 530 0006 0023     		movs	r3, #0
 531 0008 8DF80F30 		strb	r3, [sp, #15]
 623:/home/rdu/Workspace/project_templates/mcu/stm32_ws/src/libraries/STM32F4xx_StdPeriph_Driver/src/stm32f4xx_rtc.c ****   uint32_t synchrostatus = 0x00;
 532              		.loc 1 623 0
 533 000c 0023     		movs	r3, #0
 534 000e 0293     		str	r3, [sp, #8]
 624:/home/rdu/Workspace/project_templates/mcu/stm32_ws/src/libraries/STM32F4xx_StdPeriph_Driver/src/stm32f4xx_rtc.c **** 
 625:/home/rdu/Workspace/project_templates/mcu/stm32_ws/src/libraries/STM32F4xx_StdPeriph_Driver/src/stm32f4xx_rtc.c ****   /* Disable the write protection for RTC registers */
 626:/home/rdu/Workspace/project_templates/mcu/stm32_ws/src/libraries/STM32F4xx_StdPeriph_Driver/src/stm32f4xx_rtc.c ****   RTC->WPR = 0xCA;
 535              		.loc 1 626 0
 536 0010 174B     		ldr	r3, .L43
 537 0012 CA22     		movs	r2, #202
 538 0014 5A62     		str	r2, [r3, #36]
 627:/home/rdu/Workspace/project_templates/mcu/stm32_ws/src/libraries/STM32F4xx_StdPeriph_Driver/src/stm32f4xx_rtc.c ****   RTC->WPR = 0x53;
 539              		.loc 1 627 0
 540 0016 164B     		ldr	r3, .L43
 541 0018 5322     		movs	r2, #83
 542 001a 5A62     		str	r2, [r3, #36]
 628:/home/rdu/Workspace/project_templates/mcu/stm32_ws/src/libraries/STM32F4xx_StdPeriph_Driver/src/stm32f4xx_rtc.c ****     
 629:/home/rdu/Workspace/project_templates/mcu/stm32_ws/src/libraries/STM32F4xx_StdPeriph_Driver/src/stm32f4xx_rtc.c ****   /* Clear RSF flag */
 630:/home/rdu/Workspace/project_templates/mcu/stm32_ws/src/libraries/STM32F4xx_StdPeriph_Driver/src/stm32f4xx_rtc.c ****   RTC->ISR &= (uint32_t)RTC_RSF_MASK;
 543              		.loc 1 630 0
 544 001c 144B     		ldr	r3, .L43
 545 001e DB68     		ldr	r3, [r3, #12]
 546 0020 134A     		ldr	r2, .L43
 547 0022 23F0A003 		bic	r3, r3, #160
 548 0026 D360     		str	r3, [r2, #12]
 549              	.L39:
 631:/home/rdu/Workspace/project_templates/mcu/stm32_ws/src/libraries/STM32F4xx_StdPeriph_Driver/src/stm32f4xx_rtc.c ****     
 632:/home/rdu/Workspace/project_templates/mcu/stm32_ws/src/libraries/STM32F4xx_StdPeriph_Driver/src/stm32f4xx_rtc.c ****   /* Wait the registers to be synchronised */
 633:/home/rdu/Workspace/project_templates/mcu/stm32_ws/src/libraries/STM32F4xx_StdPeriph_Driver/src/stm32f4xx_rtc.c ****   do
 634:/home/rdu/Workspace/project_templates/mcu/stm32_ws/src/libraries/STM32F4xx_StdPeriph_Driver/src/stm32f4xx_rtc.c ****   {
 635:/home/rdu/Workspace/project_templates/mcu/stm32_ws/src/libraries/STM32F4xx_StdPeriph_Driver/src/stm32f4xx_rtc.c ****     synchrostatus = RTC->ISR & RTC_ISR_RSF;
 550              		.loc 1 635 0 discriminator 2
 551 0028 114B     		ldr	r3, .L43
 552 002a DB68     		ldr	r3, [r3, #12]
 553 002c 03F02003 		and	r3, r3, #32
 554 0030 0293     		str	r3, [sp, #8]
 636:/home/rdu/Workspace/project_templates/mcu/stm32_ws/src/libraries/STM32F4xx_StdPeriph_Driver/src/stm32f4xx_rtc.c ****     synchrocounter++;  
 555              		.loc 1 636 0 discriminator 2
 556 0032 019B     		ldr	r3, [sp, #4]
 557 0034 0133     		adds	r3, r3, #1
 558 0036 0193     		str	r3, [sp, #4]
 637:/home/rdu/Workspace/project_templates/mcu/stm32_ws/src/libraries/STM32F4xx_StdPeriph_Driver/src/stm32f4xx_rtc.c ****   } while((synchrocounter != SYNCHRO_TIMEOUT) && (synchrostatus == 0x00));
 559              		.loc 1 637 0 discriminator 2
 560 0038 019B     		ldr	r3, [sp, #4]
 561 003a B3F5003F 		cmp	r3, #131072
 562 003e 02D0     		beq	.L38
 563              		.loc 1 637 0 is_stmt 0 discriminator 1
 564 0040 029B     		ldr	r3, [sp, #8]
 565 0042 002B     		cmp	r3, #0
 566 0044 F0D0     		beq	.L39
 567              	.L38:
 638:/home/rdu/Workspace/project_templates/mcu/stm32_ws/src/libraries/STM32F4xx_StdPeriph_Driver/src/stm32f4xx_rtc.c ****     
 639:/home/rdu/Workspace/project_templates/mcu/stm32_ws/src/libraries/STM32F4xx_StdPeriph_Driver/src/stm32f4xx_rtc.c ****   if ((RTC->ISR & RTC_ISR_RSF) != RESET)
 568              		.loc 1 639 0 is_stmt 1
 569 0046 0A4B     		ldr	r3, .L43
 570 0048 DB68     		ldr	r3, [r3, #12]
 571 004a 03F02003 		and	r3, r3, #32
 572 004e 002B     		cmp	r3, #0
 573 0050 03D0     		beq	.L40
 640:/home/rdu/Workspace/project_templates/mcu/stm32_ws/src/libraries/STM32F4xx_StdPeriph_Driver/src/stm32f4xx_rtc.c ****   {
 641:/home/rdu/Workspace/project_templates/mcu/stm32_ws/src/libraries/STM32F4xx_StdPeriph_Driver/src/stm32f4xx_rtc.c ****     status = SUCCESS;
 574              		.loc 1 641 0
 575 0052 0123     		movs	r3, #1
 576 0054 8DF80F30 		strb	r3, [sp, #15]
 577 0058 02E0     		b	.L41
 578              	.L40:
 642:/home/rdu/Workspace/project_templates/mcu/stm32_ws/src/libraries/STM32F4xx_StdPeriph_Driver/src/stm32f4xx_rtc.c ****   }
 643:/home/rdu/Workspace/project_templates/mcu/stm32_ws/src/libraries/STM32F4xx_StdPeriph_Driver/src/stm32f4xx_rtc.c ****   else
 644:/home/rdu/Workspace/project_templates/mcu/stm32_ws/src/libraries/STM32F4xx_StdPeriph_Driver/src/stm32f4xx_rtc.c ****   {
 645:/home/rdu/Workspace/project_templates/mcu/stm32_ws/src/libraries/STM32F4xx_StdPeriph_Driver/src/stm32f4xx_rtc.c ****     status = ERROR;
 579              		.loc 1 645 0
 580 005a 0023     		movs	r3, #0
 581 005c 8DF80F30 		strb	r3, [sp, #15]
 582              	.L41:
 646:/home/rdu/Workspace/project_templates/mcu/stm32_ws/src/libraries/STM32F4xx_StdPeriph_Driver/src/stm32f4xx_rtc.c ****   }        
 647:/home/rdu/Workspace/project_templates/mcu/stm32_ws/src/libraries/STM32F4xx_StdPeriph_Driver/src/stm32f4xx_rtc.c **** 
 648:/home/rdu/Workspace/project_templates/mcu/stm32_ws/src/libraries/STM32F4xx_StdPeriph_Driver/src/stm32f4xx_rtc.c ****   /* Enable the write protection for RTC registers */
 649:/home/rdu/Workspace/project_templates/mcu/stm32_ws/src/libraries/STM32F4xx_StdPeriph_Driver/src/stm32f4xx_rtc.c ****   RTC->WPR = 0xFF; 
 583              		.loc 1 649 0
 584 0060 034B     		ldr	r3, .L43
 585 0062 FF22     		movs	r2, #255
 586 0064 5A62     		str	r2, [r3, #36]
 650:/home/rdu/Workspace/project_templates/mcu/stm32_ws/src/libraries/STM32F4xx_StdPeriph_Driver/src/stm32f4xx_rtc.c ****     
 651:/home/rdu/Workspace/project_templates/mcu/stm32_ws/src/libraries/STM32F4xx_StdPeriph_Driver/src/stm32f4xx_rtc.c ****   return (status); 
 587              		.loc 1 651 0
 588 0066 9DF80F30 		ldrb	r3, [sp, #15]	@ zero_extendqisi2
 652:/home/rdu/Workspace/project_templates/mcu/stm32_ws/src/libraries/STM32F4xx_StdPeriph_Driver/src/stm32f4xx_rtc.c **** }
 589              		.loc 1 652 0
 590 006a 1846     		mov	r0, r3
 591 006c 04B0     		add	sp, sp, #16
 592              	.LCFI13:
 593              		.cfi_def_cfa_offset 0
 594              		@ sp needed
 595 006e 7047     		bx	lr
 596              	.L44:
 597              		.align	2
 598              	.L43:
 599 0070 00280040 		.word	1073752064
 600              		.cfi_endproc
 601              	.LFE129:
 603              		.section	.text.RTC_RefClockCmd,"ax",%progbits
 604              		.align	1
 605              		.global	RTC_RefClockCmd
 606              		.syntax unified
 607              		.thumb
 608              		.thumb_func
 609              		.fpu fpv4-sp-d16
 611              	RTC_RefClockCmd:
 612              	.LFB130:
 653:/home/rdu/Workspace/project_templates/mcu/stm32_ws/src/libraries/STM32F4xx_StdPeriph_Driver/src/stm32f4xx_rtc.c **** 
 654:/home/rdu/Workspace/project_templates/mcu/stm32_ws/src/libraries/STM32F4xx_StdPeriph_Driver/src/stm32f4xx_rtc.c **** /**
 655:/home/rdu/Workspace/project_templates/mcu/stm32_ws/src/libraries/STM32F4xx_StdPeriph_Driver/src/stm32f4xx_rtc.c ****   * @brief  Enables or disables the RTC reference clock detection.
 656:/home/rdu/Workspace/project_templates/mcu/stm32_ws/src/libraries/STM32F4xx_StdPeriph_Driver/src/stm32f4xx_rtc.c ****   * @param  NewState: new state of the RTC reference clock.
 657:/home/rdu/Workspace/project_templates/mcu/stm32_ws/src/libraries/STM32F4xx_StdPeriph_Driver/src/stm32f4xx_rtc.c ****   *          This parameter can be: ENABLE or DISABLE.
 658:/home/rdu/Workspace/project_templates/mcu/stm32_ws/src/libraries/STM32F4xx_StdPeriph_Driver/src/stm32f4xx_rtc.c ****   * @retval An ErrorStatus enumeration value:
 659:/home/rdu/Workspace/project_templates/mcu/stm32_ws/src/libraries/STM32F4xx_StdPeriph_Driver/src/stm32f4xx_rtc.c ****   *          - SUCCESS: RTC reference clock detection is enabled
 660:/home/rdu/Workspace/project_templates/mcu/stm32_ws/src/libraries/STM32F4xx_StdPeriph_Driver/src/stm32f4xx_rtc.c ****   *          - ERROR: RTC reference clock detection is disabled  
 661:/home/rdu/Workspace/project_templates/mcu/stm32_ws/src/libraries/STM32F4xx_StdPeriph_Driver/src/stm32f4xx_rtc.c ****   */
 662:/home/rdu/Workspace/project_templates/mcu/stm32_ws/src/libraries/STM32F4xx_StdPeriph_Driver/src/stm32f4xx_rtc.c **** ErrorStatus RTC_RefClockCmd(FunctionalState NewState)
 663:/home/rdu/Workspace/project_templates/mcu/stm32_ws/src/libraries/STM32F4xx_StdPeriph_Driver/src/stm32f4xx_rtc.c **** { 
 613              		.loc 1 663 0
 614              		.cfi_startproc
 615              		@ args = 0, pretend = 0, frame = 16
 616              		@ frame_needed = 0, uses_anonymous_args = 0
 617 0000 00B5     		push	{lr}
 618              	.LCFI14:
 619              		.cfi_def_cfa_offset 4
 620              		.cfi_offset 14, -4
 621 0002 85B0     		sub	sp, sp, #20
 622              	.LCFI15:
 623              		.cfi_def_cfa_offset 24
 624 0004 0346     		mov	r3, r0
 625 0006 8DF80730 		strb	r3, [sp, #7]
 664:/home/rdu/Workspace/project_templates/mcu/stm32_ws/src/libraries/STM32F4xx_StdPeriph_Driver/src/stm32f4xx_rtc.c ****   ErrorStatus status = ERROR;
 626              		.loc 1 664 0
 627 000a 0023     		movs	r3, #0
 628 000c 8DF80F30 		strb	r3, [sp, #15]
 665:/home/rdu/Workspace/project_templates/mcu/stm32_ws/src/libraries/STM32F4xx_StdPeriph_Driver/src/stm32f4xx_rtc.c ****   
 666:/home/rdu/Workspace/project_templates/mcu/stm32_ws/src/libraries/STM32F4xx_StdPeriph_Driver/src/stm32f4xx_rtc.c ****   /* Check the parameters */
 667:/home/rdu/Workspace/project_templates/mcu/stm32_ws/src/libraries/STM32F4xx_StdPeriph_Driver/src/stm32f4xx_rtc.c ****   assert_param(IS_FUNCTIONAL_STATE(NewState));
 668:/home/rdu/Workspace/project_templates/mcu/stm32_ws/src/libraries/STM32F4xx_StdPeriph_Driver/src/stm32f4xx_rtc.c ****   
 669:/home/rdu/Workspace/project_templates/mcu/stm32_ws/src/libraries/STM32F4xx_StdPeriph_Driver/src/stm32f4xx_rtc.c ****   /* Disable the write protection for RTC registers */
 670:/home/rdu/Workspace/project_templates/mcu/stm32_ws/src/libraries/STM32F4xx_StdPeriph_Driver/src/stm32f4xx_rtc.c ****   RTC->WPR = 0xCA;
 629              		.loc 1 670 0
 630 0010 164B     		ldr	r3, .L51
 631 0012 CA22     		movs	r2, #202
 632 0014 5A62     		str	r2, [r3, #36]
 671:/home/rdu/Workspace/project_templates/mcu/stm32_ws/src/libraries/STM32F4xx_StdPeriph_Driver/src/stm32f4xx_rtc.c ****   RTC->WPR = 0x53;
 633              		.loc 1 671 0
 634 0016 154B     		ldr	r3, .L51
 635 0018 5322     		movs	r2, #83
 636 001a 5A62     		str	r2, [r3, #36]
 672:/home/rdu/Workspace/project_templates/mcu/stm32_ws/src/libraries/STM32F4xx_StdPeriph_Driver/src/stm32f4xx_rtc.c ****     
 673:/home/rdu/Workspace/project_templates/mcu/stm32_ws/src/libraries/STM32F4xx_StdPeriph_Driver/src/stm32f4xx_rtc.c ****   /* Set Initialization mode */
 674:/home/rdu/Workspace/project_templates/mcu/stm32_ws/src/libraries/STM32F4xx_StdPeriph_Driver/src/stm32f4xx_rtc.c ****   if (RTC_EnterInitMode() == ERROR)
 637              		.loc 1 674 0
 638 001c FFF7FEFF 		bl	RTC_EnterInitMode
 639 0020 0346     		mov	r3, r0
 640 0022 002B     		cmp	r3, #0
 641 0024 03D1     		bne	.L46
 675:/home/rdu/Workspace/project_templates/mcu/stm32_ws/src/libraries/STM32F4xx_StdPeriph_Driver/src/stm32f4xx_rtc.c ****   {
 676:/home/rdu/Workspace/project_templates/mcu/stm32_ws/src/libraries/STM32F4xx_StdPeriph_Driver/src/stm32f4xx_rtc.c ****     status = ERROR;
 642              		.loc 1 676 0
 643 0026 0023     		movs	r3, #0
 644 0028 8DF80F30 		strb	r3, [sp, #15]
 645 002c 15E0     		b	.L47
 646              	.L46:
 677:/home/rdu/Workspace/project_templates/mcu/stm32_ws/src/libraries/STM32F4xx_StdPeriph_Driver/src/stm32f4xx_rtc.c ****   } 
 678:/home/rdu/Workspace/project_templates/mcu/stm32_ws/src/libraries/STM32F4xx_StdPeriph_Driver/src/stm32f4xx_rtc.c ****   else
 679:/home/rdu/Workspace/project_templates/mcu/stm32_ws/src/libraries/STM32F4xx_StdPeriph_Driver/src/stm32f4xx_rtc.c ****   {  
 680:/home/rdu/Workspace/project_templates/mcu/stm32_ws/src/libraries/STM32F4xx_StdPeriph_Driver/src/stm32f4xx_rtc.c ****     if (NewState != DISABLE)
 647              		.loc 1 680 0
 648 002e 9DF80730 		ldrb	r3, [sp, #7]	@ zero_extendqisi2
 649 0032 002B     		cmp	r3, #0
 650 0034 06D0     		beq	.L48
 681:/home/rdu/Workspace/project_templates/mcu/stm32_ws/src/libraries/STM32F4xx_StdPeriph_Driver/src/stm32f4xx_rtc.c ****     {
 682:/home/rdu/Workspace/project_templates/mcu/stm32_ws/src/libraries/STM32F4xx_StdPeriph_Driver/src/stm32f4xx_rtc.c ****       /* Enable the RTC reference clock detection */
 683:/home/rdu/Workspace/project_templates/mcu/stm32_ws/src/libraries/STM32F4xx_StdPeriph_Driver/src/stm32f4xx_rtc.c ****       RTC->CR |= RTC_CR_REFCKON;   
 651              		.loc 1 683 0
 652 0036 0D4B     		ldr	r3, .L51
 653 0038 9B68     		ldr	r3, [r3, #8]
 654 003a 0C4A     		ldr	r2, .L51
 655 003c 43F01003 		orr	r3, r3, #16
 656 0040 9360     		str	r3, [r2, #8]
 657 0042 05E0     		b	.L49
 658              	.L48:
 684:/home/rdu/Workspace/project_templates/mcu/stm32_ws/src/libraries/STM32F4xx_StdPeriph_Driver/src/stm32f4xx_rtc.c ****     }
 685:/home/rdu/Workspace/project_templates/mcu/stm32_ws/src/libraries/STM32F4xx_StdPeriph_Driver/src/stm32f4xx_rtc.c ****     else
 686:/home/rdu/Workspace/project_templates/mcu/stm32_ws/src/libraries/STM32F4xx_StdPeriph_Driver/src/stm32f4xx_rtc.c ****     {
 687:/home/rdu/Workspace/project_templates/mcu/stm32_ws/src/libraries/STM32F4xx_StdPeriph_Driver/src/stm32f4xx_rtc.c ****       /* Disable the RTC reference clock detection */
 688:/home/rdu/Workspace/project_templates/mcu/stm32_ws/src/libraries/STM32F4xx_StdPeriph_Driver/src/stm32f4xx_rtc.c ****       RTC->CR &= ~RTC_CR_REFCKON;    
 659              		.loc 1 688 0
 660 0044 094B     		ldr	r3, .L51
 661 0046 9B68     		ldr	r3, [r3, #8]
 662 0048 084A     		ldr	r2, .L51
 663 004a 23F01003 		bic	r3, r3, #16
 664 004e 9360     		str	r3, [r2, #8]
 665              	.L49:
 689:/home/rdu/Workspace/project_templates/mcu/stm32_ws/src/libraries/STM32F4xx_StdPeriph_Driver/src/stm32f4xx_rtc.c ****     }
 690:/home/rdu/Workspace/project_templates/mcu/stm32_ws/src/libraries/STM32F4xx_StdPeriph_Driver/src/stm32f4xx_rtc.c ****     /* Exit Initialization mode */
 691:/home/rdu/Workspace/project_templates/mcu/stm32_ws/src/libraries/STM32F4xx_StdPeriph_Driver/src/stm32f4xx_rtc.c ****     RTC_ExitInitMode();
 666              		.loc 1 691 0
 667 0050 FFF7FEFF 		bl	RTC_ExitInitMode
 692:/home/rdu/Workspace/project_templates/mcu/stm32_ws/src/libraries/STM32F4xx_StdPeriph_Driver/src/stm32f4xx_rtc.c ****     
 693:/home/rdu/Workspace/project_templates/mcu/stm32_ws/src/libraries/STM32F4xx_StdPeriph_Driver/src/stm32f4xx_rtc.c ****     status = SUCCESS;
 668              		.loc 1 693 0
 669 0054 0123     		movs	r3, #1
 670 0056 8DF80F30 		strb	r3, [sp, #15]
 671              	.L47:
 694:/home/rdu/Workspace/project_templates/mcu/stm32_ws/src/libraries/STM32F4xx_StdPeriph_Driver/src/stm32f4xx_rtc.c ****   }
 695:/home/rdu/Workspace/project_templates/mcu/stm32_ws/src/libraries/STM32F4xx_StdPeriph_Driver/src/stm32f4xx_rtc.c ****   
 696:/home/rdu/Workspace/project_templates/mcu/stm32_ws/src/libraries/STM32F4xx_StdPeriph_Driver/src/stm32f4xx_rtc.c ****   /* Enable the write protection for RTC registers */
 697:/home/rdu/Workspace/project_templates/mcu/stm32_ws/src/libraries/STM32F4xx_StdPeriph_Driver/src/stm32f4xx_rtc.c ****   RTC->WPR = 0xFF;  
 672              		.loc 1 697 0
 673 005a 044B     		ldr	r3, .L51
 674 005c FF22     		movs	r2, #255
 675 005e 5A62     		str	r2, [r3, #36]
 698:/home/rdu/Workspace/project_templates/mcu/stm32_ws/src/libraries/STM32F4xx_StdPeriph_Driver/src/stm32f4xx_rtc.c ****   
 699:/home/rdu/Workspace/project_templates/mcu/stm32_ws/src/libraries/STM32F4xx_StdPeriph_Driver/src/stm32f4xx_rtc.c ****   return status; 
 676              		.loc 1 699 0
 677 0060 9DF80F30 		ldrb	r3, [sp, #15]	@ zero_extendqisi2
 700:/home/rdu/Workspace/project_templates/mcu/stm32_ws/src/libraries/STM32F4xx_StdPeriph_Driver/src/stm32f4xx_rtc.c **** }
 678              		.loc 1 700 0
 679 0064 1846     		mov	r0, r3
 680 0066 05B0     		add	sp, sp, #20
 681              	.LCFI16:
 682              		.cfi_def_cfa_offset 4
 683              		@ sp needed
 684 0068 5DF804FB 		ldr	pc, [sp], #4
 685              	.L52:
 686              		.align	2
 687              	.L51:
 688 006c 00280040 		.word	1073752064
 689              		.cfi_endproc
 690              	.LFE130:
 692              		.section	.text.RTC_BypassShadowCmd,"ax",%progbits
 693              		.align	1
 694              		.global	RTC_BypassShadowCmd
 695              		.syntax unified
 696              		.thumb
 697              		.thumb_func
 698              		.fpu fpv4-sp-d16
 700              	RTC_BypassShadowCmd:
 701              	.LFB131:
 701:/home/rdu/Workspace/project_templates/mcu/stm32_ws/src/libraries/STM32F4xx_StdPeriph_Driver/src/stm32f4xx_rtc.c **** 
 702:/home/rdu/Workspace/project_templates/mcu/stm32_ws/src/libraries/STM32F4xx_StdPeriph_Driver/src/stm32f4xx_rtc.c **** /**
 703:/home/rdu/Workspace/project_templates/mcu/stm32_ws/src/libraries/STM32F4xx_StdPeriph_Driver/src/stm32f4xx_rtc.c ****   * @brief  Enables or Disables the Bypass Shadow feature.
 704:/home/rdu/Workspace/project_templates/mcu/stm32_ws/src/libraries/STM32F4xx_StdPeriph_Driver/src/stm32f4xx_rtc.c ****   * @note   When the Bypass Shadow is enabled the calendar value are taken 
 705:/home/rdu/Workspace/project_templates/mcu/stm32_ws/src/libraries/STM32F4xx_StdPeriph_Driver/src/stm32f4xx_rtc.c ****   *         directly from the Calendar counter.
 706:/home/rdu/Workspace/project_templates/mcu/stm32_ws/src/libraries/STM32F4xx_StdPeriph_Driver/src/stm32f4xx_rtc.c ****   * @param  NewState: new state of the Bypass Shadow feature.
 707:/home/rdu/Workspace/project_templates/mcu/stm32_ws/src/libraries/STM32F4xx_StdPeriph_Driver/src/stm32f4xx_rtc.c ****   *         This parameter can be: ENABLE or DISABLE.
 708:/home/rdu/Workspace/project_templates/mcu/stm32_ws/src/libraries/STM32F4xx_StdPeriph_Driver/src/stm32f4xx_rtc.c ****   * @retval None
 709:/home/rdu/Workspace/project_templates/mcu/stm32_ws/src/libraries/STM32F4xx_StdPeriph_Driver/src/stm32f4xx_rtc.c **** */
 710:/home/rdu/Workspace/project_templates/mcu/stm32_ws/src/libraries/STM32F4xx_StdPeriph_Driver/src/stm32f4xx_rtc.c **** void RTC_BypassShadowCmd(FunctionalState NewState)
 711:/home/rdu/Workspace/project_templates/mcu/stm32_ws/src/libraries/STM32F4xx_StdPeriph_Driver/src/stm32f4xx_rtc.c **** {
 702              		.loc 1 711 0
 703              		.cfi_startproc
 704              		@ args = 0, pretend = 0, frame = 8
 705              		@ frame_needed = 0, uses_anonymous_args = 0
 706              		@ link register save eliminated.
 707 0000 82B0     		sub	sp, sp, #8
 708              	.LCFI17:
 709              		.cfi_def_cfa_offset 8
 710 0002 0346     		mov	r3, r0
 711 0004 8DF80730 		strb	r3, [sp, #7]
 712:/home/rdu/Workspace/project_templates/mcu/stm32_ws/src/libraries/STM32F4xx_StdPeriph_Driver/src/stm32f4xx_rtc.c ****   /* Check the parameters */
 713:/home/rdu/Workspace/project_templates/mcu/stm32_ws/src/libraries/STM32F4xx_StdPeriph_Driver/src/stm32f4xx_rtc.c ****   assert_param(IS_FUNCTIONAL_STATE(NewState));
 714:/home/rdu/Workspace/project_templates/mcu/stm32_ws/src/libraries/STM32F4xx_StdPeriph_Driver/src/stm32f4xx_rtc.c **** 
 715:/home/rdu/Workspace/project_templates/mcu/stm32_ws/src/libraries/STM32F4xx_StdPeriph_Driver/src/stm32f4xx_rtc.c ****   /* Disable the write protection for RTC registers */
 716:/home/rdu/Workspace/project_templates/mcu/stm32_ws/src/libraries/STM32F4xx_StdPeriph_Driver/src/stm32f4xx_rtc.c ****   RTC->WPR = 0xCA;
 712              		.loc 1 716 0
 713 0008 0E4B     		ldr	r3, .L56
 714 000a CA22     		movs	r2, #202
 715 000c 5A62     		str	r2, [r3, #36]
 717:/home/rdu/Workspace/project_templates/mcu/stm32_ws/src/libraries/STM32F4xx_StdPeriph_Driver/src/stm32f4xx_rtc.c ****   RTC->WPR = 0x53;
 716              		.loc 1 717 0
 717 000e 0D4B     		ldr	r3, .L56
 718 0010 5322     		movs	r2, #83
 719 0012 5A62     		str	r2, [r3, #36]
 718:/home/rdu/Workspace/project_templates/mcu/stm32_ws/src/libraries/STM32F4xx_StdPeriph_Driver/src/stm32f4xx_rtc.c ****   
 719:/home/rdu/Workspace/project_templates/mcu/stm32_ws/src/libraries/STM32F4xx_StdPeriph_Driver/src/stm32f4xx_rtc.c ****   if (NewState != DISABLE)
 720              		.loc 1 719 0
 721 0014 9DF80730 		ldrb	r3, [sp, #7]	@ zero_extendqisi2
 722 0018 002B     		cmp	r3, #0
 723 001a 06D0     		beq	.L54
 720:/home/rdu/Workspace/project_templates/mcu/stm32_ws/src/libraries/STM32F4xx_StdPeriph_Driver/src/stm32f4xx_rtc.c ****   {
 721:/home/rdu/Workspace/project_templates/mcu/stm32_ws/src/libraries/STM32F4xx_StdPeriph_Driver/src/stm32f4xx_rtc.c ****     /* Set the BYPSHAD bit */
 722:/home/rdu/Workspace/project_templates/mcu/stm32_ws/src/libraries/STM32F4xx_StdPeriph_Driver/src/stm32f4xx_rtc.c ****     RTC->CR |= (uint8_t)RTC_CR_BYPSHAD;
 724              		.loc 1 722 0
 725 001c 094B     		ldr	r3, .L56
 726 001e 9B68     		ldr	r3, [r3, #8]
 727 0020 084A     		ldr	r2, .L56
 728 0022 43F02003 		orr	r3, r3, #32
 729 0026 9360     		str	r3, [r2, #8]
 730 0028 05E0     		b	.L55
 731              	.L54:
 723:/home/rdu/Workspace/project_templates/mcu/stm32_ws/src/libraries/STM32F4xx_StdPeriph_Driver/src/stm32f4xx_rtc.c ****   }
 724:/home/rdu/Workspace/project_templates/mcu/stm32_ws/src/libraries/STM32F4xx_StdPeriph_Driver/src/stm32f4xx_rtc.c ****   else
 725:/home/rdu/Workspace/project_templates/mcu/stm32_ws/src/libraries/STM32F4xx_StdPeriph_Driver/src/stm32f4xx_rtc.c ****   {
 726:/home/rdu/Workspace/project_templates/mcu/stm32_ws/src/libraries/STM32F4xx_StdPeriph_Driver/src/stm32f4xx_rtc.c ****     /* Reset the BYPSHAD bit */
 727:/home/rdu/Workspace/project_templates/mcu/stm32_ws/src/libraries/STM32F4xx_StdPeriph_Driver/src/stm32f4xx_rtc.c ****     RTC->CR &= (uint8_t)~RTC_CR_BYPSHAD;
 732              		.loc 1 727 0
 733 002a 064B     		ldr	r3, .L56
 734 002c 9B68     		ldr	r3, [r3, #8]
 735 002e 054A     		ldr	r2, .L56
 736 0030 03F0DF03 		and	r3, r3, #223
 737 0034 9360     		str	r3, [r2, #8]
 738              	.L55:
 728:/home/rdu/Workspace/project_templates/mcu/stm32_ws/src/libraries/STM32F4xx_StdPeriph_Driver/src/stm32f4xx_rtc.c ****   }
 729:/home/rdu/Workspace/project_templates/mcu/stm32_ws/src/libraries/STM32F4xx_StdPeriph_Driver/src/stm32f4xx_rtc.c **** 
 730:/home/rdu/Workspace/project_templates/mcu/stm32_ws/src/libraries/STM32F4xx_StdPeriph_Driver/src/stm32f4xx_rtc.c ****   /* Enable the write protection for RTC registers */
 731:/home/rdu/Workspace/project_templates/mcu/stm32_ws/src/libraries/STM32F4xx_StdPeriph_Driver/src/stm32f4xx_rtc.c ****   RTC->WPR = 0xFF;
 739              		.loc 1 731 0
 740 0036 034B     		ldr	r3, .L56
 741 0038 FF22     		movs	r2, #255
 742 003a 5A62     		str	r2, [r3, #36]
 732:/home/rdu/Workspace/project_templates/mcu/stm32_ws/src/libraries/STM32F4xx_StdPeriph_Driver/src/stm32f4xx_rtc.c **** }
 743              		.loc 1 732 0
 744 003c 00BF     		nop
 745 003e 02B0     		add	sp, sp, #8
 746              	.LCFI18:
 747              		.cfi_def_cfa_offset 0
 748              		@ sp needed
 749 0040 7047     		bx	lr
 750              	.L57:
 751 0042 00BF     		.align	2
 752              	.L56:
 753 0044 00280040 		.word	1073752064
 754              		.cfi_endproc
 755              	.LFE131:
 757              		.section	.text.RTC_SetTime,"ax",%progbits
 758              		.align	1
 759              		.global	RTC_SetTime
 760              		.syntax unified
 761              		.thumb
 762              		.thumb_func
 763              		.fpu fpv4-sp-d16
 765              	RTC_SetTime:
 766              	.LFB132:
 733:/home/rdu/Workspace/project_templates/mcu/stm32_ws/src/libraries/STM32F4xx_StdPeriph_Driver/src/stm32f4xx_rtc.c **** 
 734:/home/rdu/Workspace/project_templates/mcu/stm32_ws/src/libraries/STM32F4xx_StdPeriph_Driver/src/stm32f4xx_rtc.c **** /**
 735:/home/rdu/Workspace/project_templates/mcu/stm32_ws/src/libraries/STM32F4xx_StdPeriph_Driver/src/stm32f4xx_rtc.c ****   * @}
 736:/home/rdu/Workspace/project_templates/mcu/stm32_ws/src/libraries/STM32F4xx_StdPeriph_Driver/src/stm32f4xx_rtc.c ****   */
 737:/home/rdu/Workspace/project_templates/mcu/stm32_ws/src/libraries/STM32F4xx_StdPeriph_Driver/src/stm32f4xx_rtc.c **** 
 738:/home/rdu/Workspace/project_templates/mcu/stm32_ws/src/libraries/STM32F4xx_StdPeriph_Driver/src/stm32f4xx_rtc.c **** /** @defgroup RTC_Group2 Time and Date configuration functions
 739:/home/rdu/Workspace/project_templates/mcu/stm32_ws/src/libraries/STM32F4xx_StdPeriph_Driver/src/stm32f4xx_rtc.c ****  *  @brief   Time and Date configuration functions 
 740:/home/rdu/Workspace/project_templates/mcu/stm32_ws/src/libraries/STM32F4xx_StdPeriph_Driver/src/stm32f4xx_rtc.c ****  *
 741:/home/rdu/Workspace/project_templates/mcu/stm32_ws/src/libraries/STM32F4xx_StdPeriph_Driver/src/stm32f4xx_rtc.c **** @verbatim   
 742:/home/rdu/Workspace/project_templates/mcu/stm32_ws/src/libraries/STM32F4xx_StdPeriph_Driver/src/stm32f4xx_rtc.c ****  ===============================================================================
 743:/home/rdu/Workspace/project_templates/mcu/stm32_ws/src/libraries/STM32F4xx_StdPeriph_Driver/src/stm32f4xx_rtc.c ****                  ##### Time and Date configuration functions #####
 744:/home/rdu/Workspace/project_templates/mcu/stm32_ws/src/libraries/STM32F4xx_StdPeriph_Driver/src/stm32f4xx_rtc.c ****  ===============================================================================  
 745:/home/rdu/Workspace/project_templates/mcu/stm32_ws/src/libraries/STM32F4xx_StdPeriph_Driver/src/stm32f4xx_rtc.c ****  
 746:/home/rdu/Workspace/project_templates/mcu/stm32_ws/src/libraries/STM32F4xx_StdPeriph_Driver/src/stm32f4xx_rtc.c ****  [..] This section provide functions allowing to program and read the RTC Calendar
 747:/home/rdu/Workspace/project_templates/mcu/stm32_ws/src/libraries/STM32F4xx_StdPeriph_Driver/src/stm32f4xx_rtc.c ****       (Time and Date).
 748:/home/rdu/Workspace/project_templates/mcu/stm32_ws/src/libraries/STM32F4xx_StdPeriph_Driver/src/stm32f4xx_rtc.c **** 
 749:/home/rdu/Workspace/project_templates/mcu/stm32_ws/src/libraries/STM32F4xx_StdPeriph_Driver/src/stm32f4xx_rtc.c **** @endverbatim
 750:/home/rdu/Workspace/project_templates/mcu/stm32_ws/src/libraries/STM32F4xx_StdPeriph_Driver/src/stm32f4xx_rtc.c ****   * @{
 751:/home/rdu/Workspace/project_templates/mcu/stm32_ws/src/libraries/STM32F4xx_StdPeriph_Driver/src/stm32f4xx_rtc.c ****   */
 752:/home/rdu/Workspace/project_templates/mcu/stm32_ws/src/libraries/STM32F4xx_StdPeriph_Driver/src/stm32f4xx_rtc.c **** 
 753:/home/rdu/Workspace/project_templates/mcu/stm32_ws/src/libraries/STM32F4xx_StdPeriph_Driver/src/stm32f4xx_rtc.c **** /**
 754:/home/rdu/Workspace/project_templates/mcu/stm32_ws/src/libraries/STM32F4xx_StdPeriph_Driver/src/stm32f4xx_rtc.c ****   * @brief  Set the RTC current time.
 755:/home/rdu/Workspace/project_templates/mcu/stm32_ws/src/libraries/STM32F4xx_StdPeriph_Driver/src/stm32f4xx_rtc.c ****   * @param  RTC_Format: specifies the format of the entered parameters.
 756:/home/rdu/Workspace/project_templates/mcu/stm32_ws/src/libraries/STM32F4xx_StdPeriph_Driver/src/stm32f4xx_rtc.c ****   *          This parameter can be  one of the following values:
 757:/home/rdu/Workspace/project_templates/mcu/stm32_ws/src/libraries/STM32F4xx_StdPeriph_Driver/src/stm32f4xx_rtc.c ****   *            @arg RTC_Format_BIN:  Binary data format 
 758:/home/rdu/Workspace/project_templates/mcu/stm32_ws/src/libraries/STM32F4xx_StdPeriph_Driver/src/stm32f4xx_rtc.c ****   *            @arg RTC_Format_BCD:  BCD data format
 759:/home/rdu/Workspace/project_templates/mcu/stm32_ws/src/libraries/STM32F4xx_StdPeriph_Driver/src/stm32f4xx_rtc.c ****   * @param  RTC_TimeStruct: pointer to a RTC_TimeTypeDef structure that contains 
 760:/home/rdu/Workspace/project_templates/mcu/stm32_ws/src/libraries/STM32F4xx_StdPeriph_Driver/src/stm32f4xx_rtc.c ****   *                        the time configuration information for the RTC.     
 761:/home/rdu/Workspace/project_templates/mcu/stm32_ws/src/libraries/STM32F4xx_StdPeriph_Driver/src/stm32f4xx_rtc.c ****   * @retval An ErrorStatus enumeration value:
 762:/home/rdu/Workspace/project_templates/mcu/stm32_ws/src/libraries/STM32F4xx_StdPeriph_Driver/src/stm32f4xx_rtc.c ****   *          - SUCCESS: RTC Time register is configured
 763:/home/rdu/Workspace/project_templates/mcu/stm32_ws/src/libraries/STM32F4xx_StdPeriph_Driver/src/stm32f4xx_rtc.c ****   *          - ERROR: RTC Time register is not configured
 764:/home/rdu/Workspace/project_templates/mcu/stm32_ws/src/libraries/STM32F4xx_StdPeriph_Driver/src/stm32f4xx_rtc.c ****   */
 765:/home/rdu/Workspace/project_templates/mcu/stm32_ws/src/libraries/STM32F4xx_StdPeriph_Driver/src/stm32f4xx_rtc.c **** ErrorStatus RTC_SetTime(uint32_t RTC_Format, RTC_TimeTypeDef* RTC_TimeStruct)
 766:/home/rdu/Workspace/project_templates/mcu/stm32_ws/src/libraries/STM32F4xx_StdPeriph_Driver/src/stm32f4xx_rtc.c **** {
 767              		.loc 1 766 0
 768              		.cfi_startproc
 769              		@ args = 0, pretend = 0, frame = 16
 770              		@ frame_needed = 0, uses_anonymous_args = 0
 771 0000 10B5     		push	{r4, lr}
 772              	.LCFI19:
 773              		.cfi_def_cfa_offset 8
 774              		.cfi_offset 4, -8
 775              		.cfi_offset 14, -4
 776 0002 84B0     		sub	sp, sp, #16
 777              	.LCFI20:
 778              		.cfi_def_cfa_offset 24
 779 0004 0190     		str	r0, [sp, #4]
 780 0006 0091     		str	r1, [sp]
 767:/home/rdu/Workspace/project_templates/mcu/stm32_ws/src/libraries/STM32F4xx_StdPeriph_Driver/src/stm32f4xx_rtc.c ****   uint32_t tmpreg = 0;
 781              		.loc 1 767 0
 782 0008 0023     		movs	r3, #0
 783 000a 0393     		str	r3, [sp, #12]
 768:/home/rdu/Workspace/project_templates/mcu/stm32_ws/src/libraries/STM32F4xx_StdPeriph_Driver/src/stm32f4xx_rtc.c ****   ErrorStatus status = ERROR;
 784              		.loc 1 768 0
 785 000c 0023     		movs	r3, #0
 786 000e 8DF80B30 		strb	r3, [sp, #11]
 769:/home/rdu/Workspace/project_templates/mcu/stm32_ws/src/libraries/STM32F4xx_StdPeriph_Driver/src/stm32f4xx_rtc.c ****     
 770:/home/rdu/Workspace/project_templates/mcu/stm32_ws/src/libraries/STM32F4xx_StdPeriph_Driver/src/stm32f4xx_rtc.c ****   /* Check the parameters */
 771:/home/rdu/Workspace/project_templates/mcu/stm32_ws/src/libraries/STM32F4xx_StdPeriph_Driver/src/stm32f4xx_rtc.c ****   assert_param(IS_RTC_FORMAT(RTC_Format));
 772:/home/rdu/Workspace/project_templates/mcu/stm32_ws/src/libraries/STM32F4xx_StdPeriph_Driver/src/stm32f4xx_rtc.c ****   
 773:/home/rdu/Workspace/project_templates/mcu/stm32_ws/src/libraries/STM32F4xx_StdPeriph_Driver/src/stm32f4xx_rtc.c ****   if (RTC_Format == RTC_Format_BIN)
 787              		.loc 1 773 0
 788 0012 019B     		ldr	r3, [sp, #4]
 789 0014 002B     		cmp	r3, #0
 790 0016 09D1     		bne	.L59
 774:/home/rdu/Workspace/project_templates/mcu/stm32_ws/src/libraries/STM32F4xx_StdPeriph_Driver/src/stm32f4xx_rtc.c ****   {
 775:/home/rdu/Workspace/project_templates/mcu/stm32_ws/src/libraries/STM32F4xx_StdPeriph_Driver/src/stm32f4xx_rtc.c ****     if ((RTC->CR & RTC_CR_FMT) != (uint32_t)RESET)
 791              		.loc 1 775 0
 792 0018 3F4B     		ldr	r3, .L71
 793 001a 9B68     		ldr	r3, [r3, #8]
 794 001c 03F04003 		and	r3, r3, #64
 795 0020 002B     		cmp	r3, #0
 796 0022 14D1     		bne	.L61
 776:/home/rdu/Workspace/project_templates/mcu/stm32_ws/src/libraries/STM32F4xx_StdPeriph_Driver/src/stm32f4xx_rtc.c ****     {
 777:/home/rdu/Workspace/project_templates/mcu/stm32_ws/src/libraries/STM32F4xx_StdPeriph_Driver/src/stm32f4xx_rtc.c ****       assert_param(IS_RTC_HOUR12(RTC_TimeStruct->RTC_Hours));
 778:/home/rdu/Workspace/project_templates/mcu/stm32_ws/src/libraries/STM32F4xx_StdPeriph_Driver/src/stm32f4xx_rtc.c ****       assert_param(IS_RTC_H12(RTC_TimeStruct->RTC_H12));
 779:/home/rdu/Workspace/project_templates/mcu/stm32_ws/src/libraries/STM32F4xx_StdPeriph_Driver/src/stm32f4xx_rtc.c ****     } 
 780:/home/rdu/Workspace/project_templates/mcu/stm32_ws/src/libraries/STM32F4xx_StdPeriph_Driver/src/stm32f4xx_rtc.c ****     else
 781:/home/rdu/Workspace/project_templates/mcu/stm32_ws/src/libraries/STM32F4xx_StdPeriph_Driver/src/stm32f4xx_rtc.c ****     {
 782:/home/rdu/Workspace/project_templates/mcu/stm32_ws/src/libraries/STM32F4xx_StdPeriph_Driver/src/stm32f4xx_rtc.c ****       RTC_TimeStruct->RTC_H12 = 0x00;
 797              		.loc 1 782 0
 798 0024 009B     		ldr	r3, [sp]
 799 0026 0022     		movs	r2, #0
 800 0028 DA70     		strb	r2, [r3, #3]
 801 002a 10E0     		b	.L61
 802              	.L59:
 783:/home/rdu/Workspace/project_templates/mcu/stm32_ws/src/libraries/STM32F4xx_StdPeriph_Driver/src/stm32f4xx_rtc.c ****       assert_param(IS_RTC_HOUR24(RTC_TimeStruct->RTC_Hours));
 784:/home/rdu/Workspace/project_templates/mcu/stm32_ws/src/libraries/STM32F4xx_StdPeriph_Driver/src/stm32f4xx_rtc.c ****     }
 785:/home/rdu/Workspace/project_templates/mcu/stm32_ws/src/libraries/STM32F4xx_StdPeriph_Driver/src/stm32f4xx_rtc.c ****     assert_param(IS_RTC_MINUTES(RTC_TimeStruct->RTC_Minutes));
 786:/home/rdu/Workspace/project_templates/mcu/stm32_ws/src/libraries/STM32F4xx_StdPeriph_Driver/src/stm32f4xx_rtc.c ****     assert_param(IS_RTC_SECONDS(RTC_TimeStruct->RTC_Seconds));
 787:/home/rdu/Workspace/project_templates/mcu/stm32_ws/src/libraries/STM32F4xx_StdPeriph_Driver/src/stm32f4xx_rtc.c ****   }
 788:/home/rdu/Workspace/project_templates/mcu/stm32_ws/src/libraries/STM32F4xx_StdPeriph_Driver/src/stm32f4xx_rtc.c ****   else
 789:/home/rdu/Workspace/project_templates/mcu/stm32_ws/src/libraries/STM32F4xx_StdPeriph_Driver/src/stm32f4xx_rtc.c ****   {
 790:/home/rdu/Workspace/project_templates/mcu/stm32_ws/src/libraries/STM32F4xx_StdPeriph_Driver/src/stm32f4xx_rtc.c ****     if ((RTC->CR & RTC_CR_FMT) != (uint32_t)RESET)
 803              		.loc 1 790 0
 804 002c 3A4B     		ldr	r3, .L71
 805 002e 9B68     		ldr	r3, [r3, #8]
 806 0030 03F04003 		and	r3, r3, #64
 807 0034 002B     		cmp	r3, #0
 808 0036 07D0     		beq	.L62
 791:/home/rdu/Workspace/project_templates/mcu/stm32_ws/src/libraries/STM32F4xx_StdPeriph_Driver/src/stm32f4xx_rtc.c ****     {
 792:/home/rdu/Workspace/project_templates/mcu/stm32_ws/src/libraries/STM32F4xx_StdPeriph_Driver/src/stm32f4xx_rtc.c ****       tmpreg = RTC_Bcd2ToByte(RTC_TimeStruct->RTC_Hours);
 809              		.loc 1 792 0
 810 0038 009B     		ldr	r3, [sp]
 811 003a 1B78     		ldrb	r3, [r3]	@ zero_extendqisi2
 812 003c 1846     		mov	r0, r3
 813 003e FFF7FEFF 		bl	RTC_Bcd2ToByte
 814 0042 0346     		mov	r3, r0
 815 0044 0393     		str	r3, [sp, #12]
 816 0046 02E0     		b	.L61
 817              	.L62:
 793:/home/rdu/Workspace/project_templates/mcu/stm32_ws/src/libraries/STM32F4xx_StdPeriph_Driver/src/stm32f4xx_rtc.c ****       assert_param(IS_RTC_HOUR12(tmpreg));
 794:/home/rdu/Workspace/project_templates/mcu/stm32_ws/src/libraries/STM32F4xx_StdPeriph_Driver/src/stm32f4xx_rtc.c ****       assert_param(IS_RTC_H12(RTC_TimeStruct->RTC_H12)); 
 795:/home/rdu/Workspace/project_templates/mcu/stm32_ws/src/libraries/STM32F4xx_StdPeriph_Driver/src/stm32f4xx_rtc.c ****     } 
 796:/home/rdu/Workspace/project_templates/mcu/stm32_ws/src/libraries/STM32F4xx_StdPeriph_Driver/src/stm32f4xx_rtc.c ****     else
 797:/home/rdu/Workspace/project_templates/mcu/stm32_ws/src/libraries/STM32F4xx_StdPeriph_Driver/src/stm32f4xx_rtc.c ****     {
 798:/home/rdu/Workspace/project_templates/mcu/stm32_ws/src/libraries/STM32F4xx_StdPeriph_Driver/src/stm32f4xx_rtc.c ****       RTC_TimeStruct->RTC_H12 = 0x00;
 818              		.loc 1 798 0
 819 0048 009B     		ldr	r3, [sp]
 820 004a 0022     		movs	r2, #0
 821 004c DA70     		strb	r2, [r3, #3]
 822              	.L61:
 799:/home/rdu/Workspace/project_templates/mcu/stm32_ws/src/libraries/STM32F4xx_StdPeriph_Driver/src/stm32f4xx_rtc.c ****       assert_param(IS_RTC_HOUR24(RTC_Bcd2ToByte(RTC_TimeStruct->RTC_Hours)));
 800:/home/rdu/Workspace/project_templates/mcu/stm32_ws/src/libraries/STM32F4xx_StdPeriph_Driver/src/stm32f4xx_rtc.c ****     }
 801:/home/rdu/Workspace/project_templates/mcu/stm32_ws/src/libraries/STM32F4xx_StdPeriph_Driver/src/stm32f4xx_rtc.c ****     assert_param(IS_RTC_MINUTES(RTC_Bcd2ToByte(RTC_TimeStruct->RTC_Minutes)));
 802:/home/rdu/Workspace/project_templates/mcu/stm32_ws/src/libraries/STM32F4xx_StdPeriph_Driver/src/stm32f4xx_rtc.c ****     assert_param(IS_RTC_SECONDS(RTC_Bcd2ToByte(RTC_TimeStruct->RTC_Seconds)));
 803:/home/rdu/Workspace/project_templates/mcu/stm32_ws/src/libraries/STM32F4xx_StdPeriph_Driver/src/stm32f4xx_rtc.c ****   }
 804:/home/rdu/Workspace/project_templates/mcu/stm32_ws/src/libraries/STM32F4xx_StdPeriph_Driver/src/stm32f4xx_rtc.c ****   
 805:/home/rdu/Workspace/project_templates/mcu/stm32_ws/src/libraries/STM32F4xx_StdPeriph_Driver/src/stm32f4xx_rtc.c ****   /* Check the input parameters format */
 806:/home/rdu/Workspace/project_templates/mcu/stm32_ws/src/libraries/STM32F4xx_StdPeriph_Driver/src/stm32f4xx_rtc.c ****   if (RTC_Format != RTC_Format_BIN)
 823              		.loc 1 806 0
 824 004e 019B     		ldr	r3, [sp, #4]
 825 0050 002B     		cmp	r3, #0
 826 0052 0FD0     		beq	.L63
 807:/home/rdu/Workspace/project_templates/mcu/stm32_ws/src/libraries/STM32F4xx_StdPeriph_Driver/src/stm32f4xx_rtc.c ****   {
 808:/home/rdu/Workspace/project_templates/mcu/stm32_ws/src/libraries/STM32F4xx_StdPeriph_Driver/src/stm32f4xx_rtc.c ****     tmpreg = (((uint32_t)(RTC_TimeStruct->RTC_Hours) << 16) | \
 827              		.loc 1 808 0
 828 0054 009B     		ldr	r3, [sp]
 829 0056 1B78     		ldrb	r3, [r3]	@ zero_extendqisi2
 830 0058 1A04     		lsls	r2, r3, #16
 809:/home/rdu/Workspace/project_templates/mcu/stm32_ws/src/libraries/STM32F4xx_StdPeriph_Driver/src/stm32f4xx_rtc.c ****              ((uint32_t)(RTC_TimeStruct->RTC_Minutes) << 8) | \
 831              		.loc 1 809 0
 832 005a 009B     		ldr	r3, [sp]
 833 005c 5B78     		ldrb	r3, [r3, #1]	@ zero_extendqisi2
 834 005e 1B02     		lsls	r3, r3, #8
 808:/home/rdu/Workspace/project_templates/mcu/stm32_ws/src/libraries/STM32F4xx_StdPeriph_Driver/src/stm32f4xx_rtc.c ****              ((uint32_t)(RTC_TimeStruct->RTC_Minutes) << 8) | \
 835              		.loc 1 808 0
 836 0060 1343     		orrs	r3, r3, r2
 810:/home/rdu/Workspace/project_templates/mcu/stm32_ws/src/libraries/STM32F4xx_StdPeriph_Driver/src/stm32f4xx_rtc.c ****              ((uint32_t)RTC_TimeStruct->RTC_Seconds) | \
 837              		.loc 1 810 0
 838 0062 009A     		ldr	r2, [sp]
 839 0064 9278     		ldrb	r2, [r2, #2]	@ zero_extendqisi2
 809:/home/rdu/Workspace/project_templates/mcu/stm32_ws/src/libraries/STM32F4xx_StdPeriph_Driver/src/stm32f4xx_rtc.c ****              ((uint32_t)(RTC_TimeStruct->RTC_Minutes) << 8) | \
 840              		.loc 1 809 0
 841 0066 1A43     		orrs	r2, r2, r3
 811:/home/rdu/Workspace/project_templates/mcu/stm32_ws/src/libraries/STM32F4xx_StdPeriph_Driver/src/stm32f4xx_rtc.c ****              ((uint32_t)(RTC_TimeStruct->RTC_H12) << 16)); 
 842              		.loc 1 811 0
 843 0068 009B     		ldr	r3, [sp]
 844 006a DB78     		ldrb	r3, [r3, #3]	@ zero_extendqisi2
 845 006c 1B04     		lsls	r3, r3, #16
 808:/home/rdu/Workspace/project_templates/mcu/stm32_ws/src/libraries/STM32F4xx_StdPeriph_Driver/src/stm32f4xx_rtc.c ****              ((uint32_t)(RTC_TimeStruct->RTC_Minutes) << 8) | \
 846              		.loc 1 808 0
 847 006e 1343     		orrs	r3, r3, r2
 848 0070 0393     		str	r3, [sp, #12]
 849 0072 1BE0     		b	.L64
 850              	.L63:
 812:/home/rdu/Workspace/project_templates/mcu/stm32_ws/src/libraries/STM32F4xx_StdPeriph_Driver/src/stm32f4xx_rtc.c ****   }  
 813:/home/rdu/Workspace/project_templates/mcu/stm32_ws/src/libraries/STM32F4xx_StdPeriph_Driver/src/stm32f4xx_rtc.c ****   else
 814:/home/rdu/Workspace/project_templates/mcu/stm32_ws/src/libraries/STM32F4xx_StdPeriph_Driver/src/stm32f4xx_rtc.c ****   {
 815:/home/rdu/Workspace/project_templates/mcu/stm32_ws/src/libraries/STM32F4xx_StdPeriph_Driver/src/stm32f4xx_rtc.c ****     tmpreg = (uint32_t)(((uint32_t)RTC_ByteToBcd2(RTC_TimeStruct->RTC_Hours) << 16) | \
 851              		.loc 1 815 0
 852 0074 009B     		ldr	r3, [sp]
 853 0076 1B78     		ldrb	r3, [r3]	@ zero_extendqisi2
 854 0078 1846     		mov	r0, r3
 855 007a FFF7FEFF 		bl	RTC_ByteToBcd2
 856 007e 0346     		mov	r3, r0
 857 0080 1C04     		lsls	r4, r3, #16
 816:/home/rdu/Workspace/project_templates/mcu/stm32_ws/src/libraries/STM32F4xx_StdPeriph_Driver/src/stm32f4xx_rtc.c ****                    ((uint32_t)RTC_ByteToBcd2(RTC_TimeStruct->RTC_Minutes) << 8) | \
 858              		.loc 1 816 0
 859 0082 009B     		ldr	r3, [sp]
 860 0084 5B78     		ldrb	r3, [r3, #1]	@ zero_extendqisi2
 861 0086 1846     		mov	r0, r3
 862 0088 FFF7FEFF 		bl	RTC_ByteToBcd2
 863 008c 0346     		mov	r3, r0
 864 008e 1B02     		lsls	r3, r3, #8
 815:/home/rdu/Workspace/project_templates/mcu/stm32_ws/src/libraries/STM32F4xx_StdPeriph_Driver/src/stm32f4xx_rtc.c ****                    ((uint32_t)RTC_ByteToBcd2(RTC_TimeStruct->RTC_Minutes) << 8) | \
 865              		.loc 1 815 0
 866 0090 1C43     		orrs	r4, r4, r3
 817:/home/rdu/Workspace/project_templates/mcu/stm32_ws/src/libraries/STM32F4xx_StdPeriph_Driver/src/stm32f4xx_rtc.c ****                    ((uint32_t)RTC_ByteToBcd2(RTC_TimeStruct->RTC_Seconds)) | \
 867              		.loc 1 817 0
 868 0092 009B     		ldr	r3, [sp]
 869 0094 9B78     		ldrb	r3, [r3, #2]	@ zero_extendqisi2
 870 0096 1846     		mov	r0, r3
 871 0098 FFF7FEFF 		bl	RTC_ByteToBcd2
 872 009c 0346     		mov	r3, r0
 816:/home/rdu/Workspace/project_templates/mcu/stm32_ws/src/libraries/STM32F4xx_StdPeriph_Driver/src/stm32f4xx_rtc.c ****                    ((uint32_t)RTC_ByteToBcd2(RTC_TimeStruct->RTC_Minutes) << 8) | \
 873              		.loc 1 816 0
 874 009e 44EA0302 		orr	r2, r4, r3
 818:/home/rdu/Workspace/project_templates/mcu/stm32_ws/src/libraries/STM32F4xx_StdPeriph_Driver/src/stm32f4xx_rtc.c ****                    (((uint32_t)RTC_TimeStruct->RTC_H12) << 16));
 875              		.loc 1 818 0
 876 00a2 009B     		ldr	r3, [sp]
 877 00a4 DB78     		ldrb	r3, [r3, #3]	@ zero_extendqisi2
 878 00a6 1B04     		lsls	r3, r3, #16
 815:/home/rdu/Workspace/project_templates/mcu/stm32_ws/src/libraries/STM32F4xx_StdPeriph_Driver/src/stm32f4xx_rtc.c ****                    ((uint32_t)RTC_ByteToBcd2(RTC_TimeStruct->RTC_Minutes) << 8) | \
 879              		.loc 1 815 0
 880 00a8 1343     		orrs	r3, r3, r2
 881 00aa 0393     		str	r3, [sp, #12]
 882              	.L64:
 819:/home/rdu/Workspace/project_templates/mcu/stm32_ws/src/libraries/STM32F4xx_StdPeriph_Driver/src/stm32f4xx_rtc.c ****   }  
 820:/home/rdu/Workspace/project_templates/mcu/stm32_ws/src/libraries/STM32F4xx_StdPeriph_Driver/src/stm32f4xx_rtc.c **** 
 821:/home/rdu/Workspace/project_templates/mcu/stm32_ws/src/libraries/STM32F4xx_StdPeriph_Driver/src/stm32f4xx_rtc.c ****   /* Disable the write protection for RTC registers */
 822:/home/rdu/Workspace/project_templates/mcu/stm32_ws/src/libraries/STM32F4xx_StdPeriph_Driver/src/stm32f4xx_rtc.c ****   RTC->WPR = 0xCA;
 883              		.loc 1 822 0
 884 00ac 1A4B     		ldr	r3, .L71
 885 00ae CA22     		movs	r2, #202
 886 00b0 5A62     		str	r2, [r3, #36]
 823:/home/rdu/Workspace/project_templates/mcu/stm32_ws/src/libraries/STM32F4xx_StdPeriph_Driver/src/stm32f4xx_rtc.c ****   RTC->WPR = 0x53;
 887              		.loc 1 823 0
 888 00b2 194B     		ldr	r3, .L71
 889 00b4 5322     		movs	r2, #83
 890 00b6 5A62     		str	r2, [r3, #36]
 824:/home/rdu/Workspace/project_templates/mcu/stm32_ws/src/libraries/STM32F4xx_StdPeriph_Driver/src/stm32f4xx_rtc.c **** 
 825:/home/rdu/Workspace/project_templates/mcu/stm32_ws/src/libraries/STM32F4xx_StdPeriph_Driver/src/stm32f4xx_rtc.c ****   /* Set Initialization mode */
 826:/home/rdu/Workspace/project_templates/mcu/stm32_ws/src/libraries/STM32F4xx_StdPeriph_Driver/src/stm32f4xx_rtc.c ****   if (RTC_EnterInitMode() == ERROR)
 891              		.loc 1 826 0
 892 00b8 FFF7FEFF 		bl	RTC_EnterInitMode
 893 00bc 0346     		mov	r3, r0
 894 00be 002B     		cmp	r3, #0
 895 00c0 03D1     		bne	.L65
 827:/home/rdu/Workspace/project_templates/mcu/stm32_ws/src/libraries/STM32F4xx_StdPeriph_Driver/src/stm32f4xx_rtc.c ****   {
 828:/home/rdu/Workspace/project_templates/mcu/stm32_ws/src/libraries/STM32F4xx_StdPeriph_Driver/src/stm32f4xx_rtc.c ****     status = ERROR;
 896              		.loc 1 828 0
 897 00c2 0023     		movs	r3, #0
 898 00c4 8DF80B30 		strb	r3, [sp, #11]
 899 00c8 1EE0     		b	.L66
 900              	.L65:
 829:/home/rdu/Workspace/project_templates/mcu/stm32_ws/src/libraries/STM32F4xx_StdPeriph_Driver/src/stm32f4xx_rtc.c ****   } 
 830:/home/rdu/Workspace/project_templates/mcu/stm32_ws/src/libraries/STM32F4xx_StdPeriph_Driver/src/stm32f4xx_rtc.c ****   else
 831:/home/rdu/Workspace/project_templates/mcu/stm32_ws/src/libraries/STM32F4xx_StdPeriph_Driver/src/stm32f4xx_rtc.c ****   {
 832:/home/rdu/Workspace/project_templates/mcu/stm32_ws/src/libraries/STM32F4xx_StdPeriph_Driver/src/stm32f4xx_rtc.c ****     /* Set the RTC_TR register */
 833:/home/rdu/Workspace/project_templates/mcu/stm32_ws/src/libraries/STM32F4xx_StdPeriph_Driver/src/stm32f4xx_rtc.c ****     RTC->TR = (uint32_t)(tmpreg & RTC_TR_RESERVED_MASK);
 901              		.loc 1 833 0
 902 00ca 134A     		ldr	r2, .L71
 903 00cc 039B     		ldr	r3, [sp, #12]
 904 00ce 03F07F33 		and	r3, r3, #2139062143
 905 00d2 23F0FE43 		bic	r3, r3, #2130706432
 906 00d6 1360     		str	r3, [r2]
 834:/home/rdu/Workspace/project_templates/mcu/stm32_ws/src/libraries/STM32F4xx_StdPeriph_Driver/src/stm32f4xx_rtc.c **** 
 835:/home/rdu/Workspace/project_templates/mcu/stm32_ws/src/libraries/STM32F4xx_StdPeriph_Driver/src/stm32f4xx_rtc.c ****     /* Exit Initialization mode */
 836:/home/rdu/Workspace/project_templates/mcu/stm32_ws/src/libraries/STM32F4xx_StdPeriph_Driver/src/stm32f4xx_rtc.c ****     RTC_ExitInitMode(); 
 907              		.loc 1 836 0
 908 00d8 FFF7FEFF 		bl	RTC_ExitInitMode
 837:/home/rdu/Workspace/project_templates/mcu/stm32_ws/src/libraries/STM32F4xx_StdPeriph_Driver/src/stm32f4xx_rtc.c **** 
 838:/home/rdu/Workspace/project_templates/mcu/stm32_ws/src/libraries/STM32F4xx_StdPeriph_Driver/src/stm32f4xx_rtc.c ****     /* If  RTC_CR_BYPSHAD bit = 0, wait for synchro else this check is not needed */
 839:/home/rdu/Workspace/project_templates/mcu/stm32_ws/src/libraries/STM32F4xx_StdPeriph_Driver/src/stm32f4xx_rtc.c ****     if ((RTC->CR & RTC_CR_BYPSHAD) == RESET)
 909              		.loc 1 839 0
 910 00dc 0E4B     		ldr	r3, .L71
 911 00de 9B68     		ldr	r3, [r3, #8]
 912 00e0 03F02003 		and	r3, r3, #32
 913 00e4 002B     		cmp	r3, #0
 914 00e6 0CD1     		bne	.L67
 840:/home/rdu/Workspace/project_templates/mcu/stm32_ws/src/libraries/STM32F4xx_StdPeriph_Driver/src/stm32f4xx_rtc.c ****     {
 841:/home/rdu/Workspace/project_templates/mcu/stm32_ws/src/libraries/STM32F4xx_StdPeriph_Driver/src/stm32f4xx_rtc.c ****     if(RTC_WaitForSynchro() == ERROR)
 915              		.loc 1 841 0
 916 00e8 FFF7FEFF 		bl	RTC_WaitForSynchro
 917 00ec 0346     		mov	r3, r0
 918 00ee 002B     		cmp	r3, #0
 919 00f0 03D1     		bne	.L68
 842:/home/rdu/Workspace/project_templates/mcu/stm32_ws/src/libraries/STM32F4xx_StdPeriph_Driver/src/stm32f4xx_rtc.c ****     {
 843:/home/rdu/Workspace/project_templates/mcu/stm32_ws/src/libraries/STM32F4xx_StdPeriph_Driver/src/stm32f4xx_rtc.c ****       status = ERROR;
 920              		.loc 1 843 0
 921 00f2 0023     		movs	r3, #0
 922 00f4 8DF80B30 		strb	r3, [sp, #11]
 923 00f8 06E0     		b	.L66
 924              	.L68:
 844:/home/rdu/Workspace/project_templates/mcu/stm32_ws/src/libraries/STM32F4xx_StdPeriph_Driver/src/stm32f4xx_rtc.c ****     }
 845:/home/rdu/Workspace/project_templates/mcu/stm32_ws/src/libraries/STM32F4xx_StdPeriph_Driver/src/stm32f4xx_rtc.c ****     else
 846:/home/rdu/Workspace/project_templates/mcu/stm32_ws/src/libraries/STM32F4xx_StdPeriph_Driver/src/stm32f4xx_rtc.c ****     {
 847:/home/rdu/Workspace/project_templates/mcu/stm32_ws/src/libraries/STM32F4xx_StdPeriph_Driver/src/stm32f4xx_rtc.c ****       status = SUCCESS;
 925              		.loc 1 847 0
 926 00fa 0123     		movs	r3, #1
 927 00fc 8DF80B30 		strb	r3, [sp, #11]
 928 0100 02E0     		b	.L66
 929              	.L67:
 848:/home/rdu/Workspace/project_templates/mcu/stm32_ws/src/libraries/STM32F4xx_StdPeriph_Driver/src/stm32f4xx_rtc.c ****     }
 849:/home/rdu/Workspace/project_templates/mcu/stm32_ws/src/libraries/STM32F4xx_StdPeriph_Driver/src/stm32f4xx_rtc.c ****   }
 850:/home/rdu/Workspace/project_templates/mcu/stm32_ws/src/libraries/STM32F4xx_StdPeriph_Driver/src/stm32f4xx_rtc.c ****     else
 851:/home/rdu/Workspace/project_templates/mcu/stm32_ws/src/libraries/STM32F4xx_StdPeriph_Driver/src/stm32f4xx_rtc.c ****     {
 852:/home/rdu/Workspace/project_templates/mcu/stm32_ws/src/libraries/STM32F4xx_StdPeriph_Driver/src/stm32f4xx_rtc.c ****       status = SUCCESS;
 930              		.loc 1 852 0
 931 0102 0123     		movs	r3, #1
 932 0104 8DF80B30 		strb	r3, [sp, #11]
 933              	.L66:
 853:/home/rdu/Workspace/project_templates/mcu/stm32_ws/src/libraries/STM32F4xx_StdPeriph_Driver/src/stm32f4xx_rtc.c ****     }
 854:/home/rdu/Workspace/project_templates/mcu/stm32_ws/src/libraries/STM32F4xx_StdPeriph_Driver/src/stm32f4xx_rtc.c ****   }
 855:/home/rdu/Workspace/project_templates/mcu/stm32_ws/src/libraries/STM32F4xx_StdPeriph_Driver/src/stm32f4xx_rtc.c ****   /* Enable the write protection for RTC registers */
 856:/home/rdu/Workspace/project_templates/mcu/stm32_ws/src/libraries/STM32F4xx_StdPeriph_Driver/src/stm32f4xx_rtc.c ****   RTC->WPR = 0xFF; 
 934              		.loc 1 856 0
 935 0108 034B     		ldr	r3, .L71
 936 010a FF22     		movs	r2, #255
 937 010c 5A62     		str	r2, [r3, #36]
 857:/home/rdu/Workspace/project_templates/mcu/stm32_ws/src/libraries/STM32F4xx_StdPeriph_Driver/src/stm32f4xx_rtc.c ****     
 858:/home/rdu/Workspace/project_templates/mcu/stm32_ws/src/libraries/STM32F4xx_StdPeriph_Driver/src/stm32f4xx_rtc.c ****   return status;
 938              		.loc 1 858 0
 939 010e 9DF80B30 		ldrb	r3, [sp, #11]	@ zero_extendqisi2
 859:/home/rdu/Workspace/project_templates/mcu/stm32_ws/src/libraries/STM32F4xx_StdPeriph_Driver/src/stm32f4xx_rtc.c **** }
 940              		.loc 1 859 0
 941 0112 1846     		mov	r0, r3
 942 0114 04B0     		add	sp, sp, #16
 943              	.LCFI21:
 944              		.cfi_def_cfa_offset 8
 945              		@ sp needed
 946 0116 10BD     		pop	{r4, pc}
 947              	.L72:
 948              		.align	2
 949              	.L71:
 950 0118 00280040 		.word	1073752064
 951              		.cfi_endproc
 952              	.LFE132:
 954              		.section	.text.RTC_TimeStructInit,"ax",%progbits
 955              		.align	1
 956              		.global	RTC_TimeStructInit
 957              		.syntax unified
 958              		.thumb
 959              		.thumb_func
 960              		.fpu fpv4-sp-d16
 962              	RTC_TimeStructInit:
 963              	.LFB133:
 860:/home/rdu/Workspace/project_templates/mcu/stm32_ws/src/libraries/STM32F4xx_StdPeriph_Driver/src/stm32f4xx_rtc.c **** 
 861:/home/rdu/Workspace/project_templates/mcu/stm32_ws/src/libraries/STM32F4xx_StdPeriph_Driver/src/stm32f4xx_rtc.c **** /**
 862:/home/rdu/Workspace/project_templates/mcu/stm32_ws/src/libraries/STM32F4xx_StdPeriph_Driver/src/stm32f4xx_rtc.c ****   * @brief  Fills each RTC_TimeStruct member with its default value
 863:/home/rdu/Workspace/project_templates/mcu/stm32_ws/src/libraries/STM32F4xx_StdPeriph_Driver/src/stm32f4xx_rtc.c ****   *         (Time = 00h:00min:00sec).
 864:/home/rdu/Workspace/project_templates/mcu/stm32_ws/src/libraries/STM32F4xx_StdPeriph_Driver/src/stm32f4xx_rtc.c ****   * @param  RTC_TimeStruct: pointer to a RTC_TimeTypeDef structure which will be 
 865:/home/rdu/Workspace/project_templates/mcu/stm32_ws/src/libraries/STM32F4xx_StdPeriph_Driver/src/stm32f4xx_rtc.c ****   *         initialized.
 866:/home/rdu/Workspace/project_templates/mcu/stm32_ws/src/libraries/STM32F4xx_StdPeriph_Driver/src/stm32f4xx_rtc.c ****   * @retval None
 867:/home/rdu/Workspace/project_templates/mcu/stm32_ws/src/libraries/STM32F4xx_StdPeriph_Driver/src/stm32f4xx_rtc.c ****   */
 868:/home/rdu/Workspace/project_templates/mcu/stm32_ws/src/libraries/STM32F4xx_StdPeriph_Driver/src/stm32f4xx_rtc.c **** void RTC_TimeStructInit(RTC_TimeTypeDef* RTC_TimeStruct)
 869:/home/rdu/Workspace/project_templates/mcu/stm32_ws/src/libraries/STM32F4xx_StdPeriph_Driver/src/stm32f4xx_rtc.c **** {
 964              		.loc 1 869 0
 965              		.cfi_startproc
 966              		@ args = 0, pretend = 0, frame = 8
 967              		@ frame_needed = 0, uses_anonymous_args = 0
 968              		@ link register save eliminated.
 969 0000 82B0     		sub	sp, sp, #8
 970              	.LCFI22:
 971              		.cfi_def_cfa_offset 8
 972 0002 0190     		str	r0, [sp, #4]
 870:/home/rdu/Workspace/project_templates/mcu/stm32_ws/src/libraries/STM32F4xx_StdPeriph_Driver/src/stm32f4xx_rtc.c ****   /* Time = 00h:00min:00sec */
 871:/home/rdu/Workspace/project_templates/mcu/stm32_ws/src/libraries/STM32F4xx_StdPeriph_Driver/src/stm32f4xx_rtc.c ****   RTC_TimeStruct->RTC_H12 = RTC_H12_AM;
 973              		.loc 1 871 0
 974 0004 019B     		ldr	r3, [sp, #4]
 975 0006 0022     		movs	r2, #0
 976 0008 DA70     		strb	r2, [r3, #3]
 872:/home/rdu/Workspace/project_templates/mcu/stm32_ws/src/libraries/STM32F4xx_StdPeriph_Driver/src/stm32f4xx_rtc.c ****   RTC_TimeStruct->RTC_Hours = 0;
 977              		.loc 1 872 0
 978 000a 019B     		ldr	r3, [sp, #4]
 979 000c 0022     		movs	r2, #0
 980 000e 1A70     		strb	r2, [r3]
 873:/home/rdu/Workspace/project_templates/mcu/stm32_ws/src/libraries/STM32F4xx_StdPeriph_Driver/src/stm32f4xx_rtc.c ****   RTC_TimeStruct->RTC_Minutes = 0;
 981              		.loc 1 873 0
 982 0010 019B     		ldr	r3, [sp, #4]
 983 0012 0022     		movs	r2, #0
 984 0014 5A70     		strb	r2, [r3, #1]
 874:/home/rdu/Workspace/project_templates/mcu/stm32_ws/src/libraries/STM32F4xx_StdPeriph_Driver/src/stm32f4xx_rtc.c ****   RTC_TimeStruct->RTC_Seconds = 0; 
 985              		.loc 1 874 0
 986 0016 019B     		ldr	r3, [sp, #4]
 987 0018 0022     		movs	r2, #0
 988 001a 9A70     		strb	r2, [r3, #2]
 875:/home/rdu/Workspace/project_templates/mcu/stm32_ws/src/libraries/STM32F4xx_StdPeriph_Driver/src/stm32f4xx_rtc.c **** }
 989              		.loc 1 875 0
 990 001c 00BF     		nop
 991 001e 02B0     		add	sp, sp, #8
 992              	.LCFI23:
 993              		.cfi_def_cfa_offset 0
 994              		@ sp needed
 995 0020 7047     		bx	lr
 996              		.cfi_endproc
 997              	.LFE133:
 999              		.section	.text.RTC_GetTime,"ax",%progbits
 1000              		.align	1
 1001              		.global	RTC_GetTime
 1002              		.syntax unified
 1003              		.thumb
 1004              		.thumb_func
 1005              		.fpu fpv4-sp-d16
 1007              	RTC_GetTime:
 1008              	.LFB134:
 876:/home/rdu/Workspace/project_templates/mcu/stm32_ws/src/libraries/STM32F4xx_StdPeriph_Driver/src/stm32f4xx_rtc.c **** 
 877:/home/rdu/Workspace/project_templates/mcu/stm32_ws/src/libraries/STM32F4xx_StdPeriph_Driver/src/stm32f4xx_rtc.c **** /**
 878:/home/rdu/Workspace/project_templates/mcu/stm32_ws/src/libraries/STM32F4xx_StdPeriph_Driver/src/stm32f4xx_rtc.c ****   * @brief  Get the RTC current Time.
 879:/home/rdu/Workspace/project_templates/mcu/stm32_ws/src/libraries/STM32F4xx_StdPeriph_Driver/src/stm32f4xx_rtc.c ****   * @param  RTC_Format: specifies the format of the returned parameters.
 880:/home/rdu/Workspace/project_templates/mcu/stm32_ws/src/libraries/STM32F4xx_StdPeriph_Driver/src/stm32f4xx_rtc.c ****   *          This parameter can be  one of the following values:
 881:/home/rdu/Workspace/project_templates/mcu/stm32_ws/src/libraries/STM32F4xx_StdPeriph_Driver/src/stm32f4xx_rtc.c ****   *            @arg RTC_Format_BIN:  Binary data format 
 882:/home/rdu/Workspace/project_templates/mcu/stm32_ws/src/libraries/STM32F4xx_StdPeriph_Driver/src/stm32f4xx_rtc.c ****   *            @arg RTC_Format_BCD:  BCD data format
 883:/home/rdu/Workspace/project_templates/mcu/stm32_ws/src/libraries/STM32F4xx_StdPeriph_Driver/src/stm32f4xx_rtc.c ****   * @param  RTC_TimeStruct: pointer to a RTC_TimeTypeDef structure that will 
 884:/home/rdu/Workspace/project_templates/mcu/stm32_ws/src/libraries/STM32F4xx_StdPeriph_Driver/src/stm32f4xx_rtc.c ****   *                        contain the returned current time configuration.     
 885:/home/rdu/Workspace/project_templates/mcu/stm32_ws/src/libraries/STM32F4xx_StdPeriph_Driver/src/stm32f4xx_rtc.c ****   * @retval None
 886:/home/rdu/Workspace/project_templates/mcu/stm32_ws/src/libraries/STM32F4xx_StdPeriph_Driver/src/stm32f4xx_rtc.c ****   */
 887:/home/rdu/Workspace/project_templates/mcu/stm32_ws/src/libraries/STM32F4xx_StdPeriph_Driver/src/stm32f4xx_rtc.c **** void RTC_GetTime(uint32_t RTC_Format, RTC_TimeTypeDef* RTC_TimeStruct)
 888:/home/rdu/Workspace/project_templates/mcu/stm32_ws/src/libraries/STM32F4xx_StdPeriph_Driver/src/stm32f4xx_rtc.c **** {
 1009              		.loc 1 888 0
 1010              		.cfi_startproc
 1011              		@ args = 0, pretend = 0, frame = 16
 1012              		@ frame_needed = 0, uses_anonymous_args = 0
 1013 0000 00B5     		push	{lr}
 1014              	.LCFI24:
 1015              		.cfi_def_cfa_offset 4
 1016              		.cfi_offset 14, -4
 1017 0002 85B0     		sub	sp, sp, #20
 1018              	.LCFI25:
 1019              		.cfi_def_cfa_offset 24
 1020 0004 0190     		str	r0, [sp, #4]
 1021 0006 0091     		str	r1, [sp]
 889:/home/rdu/Workspace/project_templates/mcu/stm32_ws/src/libraries/STM32F4xx_StdPeriph_Driver/src/stm32f4xx_rtc.c ****   uint32_t tmpreg = 0;
 1022              		.loc 1 889 0
 1023 0008 0023     		movs	r3, #0
 1024 000a 0393     		str	r3, [sp, #12]
 890:/home/rdu/Workspace/project_templates/mcu/stm32_ws/src/libraries/STM32F4xx_StdPeriph_Driver/src/stm32f4xx_rtc.c **** 
 891:/home/rdu/Workspace/project_templates/mcu/stm32_ws/src/libraries/STM32F4xx_StdPeriph_Driver/src/stm32f4xx_rtc.c ****   /* Check the parameters */
 892:/home/rdu/Workspace/project_templates/mcu/stm32_ws/src/libraries/STM32F4xx_StdPeriph_Driver/src/stm32f4xx_rtc.c ****   assert_param(IS_RTC_FORMAT(RTC_Format));
 893:/home/rdu/Workspace/project_templates/mcu/stm32_ws/src/libraries/STM32F4xx_StdPeriph_Driver/src/stm32f4xx_rtc.c **** 
 894:/home/rdu/Workspace/project_templates/mcu/stm32_ws/src/libraries/STM32F4xx_StdPeriph_Driver/src/stm32f4xx_rtc.c ****   /* Get the RTC_TR register */
 895:/home/rdu/Workspace/project_templates/mcu/stm32_ws/src/libraries/STM32F4xx_StdPeriph_Driver/src/stm32f4xx_rtc.c ****   tmpreg = (uint32_t)(RTC->TR & RTC_TR_RESERVED_MASK); 
 1025              		.loc 1 895 0
 1026 000c 234B     		ldr	r3, .L77
 1027 000e 1B68     		ldr	r3, [r3]
 1028 0010 03F07F33 		and	r3, r3, #2139062143
 1029 0014 23F0FE43 		bic	r3, r3, #2130706432
 1030 0018 0393     		str	r3, [sp, #12]
 896:/home/rdu/Workspace/project_templates/mcu/stm32_ws/src/libraries/STM32F4xx_StdPeriph_Driver/src/stm32f4xx_rtc.c ****   
 897:/home/rdu/Workspace/project_templates/mcu/stm32_ws/src/libraries/STM32F4xx_StdPeriph_Driver/src/stm32f4xx_rtc.c ****   /* Fill the structure fields with the read parameters */
 898:/home/rdu/Workspace/project_templates/mcu/stm32_ws/src/libraries/STM32F4xx_StdPeriph_Driver/src/stm32f4xx_rtc.c ****   RTC_TimeStruct->RTC_Hours = (uint8_t)((tmpreg & (RTC_TR_HT | RTC_TR_HU)) >> 16);
 1031              		.loc 1 898 0
 1032 001a 039B     		ldr	r3, [sp, #12]
 1033 001c 1B0C     		lsrs	r3, r3, #16
 1034 001e DBB2     		uxtb	r3, r3
 1035 0020 03F03F03 		and	r3, r3, #63
 1036 0024 DAB2     		uxtb	r2, r3
 1037 0026 009B     		ldr	r3, [sp]
 1038 0028 1A70     		strb	r2, [r3]
 899:/home/rdu/Workspace/project_templates/mcu/stm32_ws/src/libraries/STM32F4xx_StdPeriph_Driver/src/stm32f4xx_rtc.c ****   RTC_TimeStruct->RTC_Minutes = (uint8_t)((tmpreg & (RTC_TR_MNT | RTC_TR_MNU)) >>8);
 1039              		.loc 1 899 0
 1040 002a 039B     		ldr	r3, [sp, #12]
 1041 002c 1B0A     		lsrs	r3, r3, #8
 1042 002e DBB2     		uxtb	r3, r3
 1043 0030 03F07F03 		and	r3, r3, #127
 1044 0034 DAB2     		uxtb	r2, r3
 1045 0036 009B     		ldr	r3, [sp]
 1046 0038 5A70     		strb	r2, [r3, #1]
 900:/home/rdu/Workspace/project_templates/mcu/stm32_ws/src/libraries/STM32F4xx_StdPeriph_Driver/src/stm32f4xx_rtc.c ****   RTC_TimeStruct->RTC_Seconds = (uint8_t)(tmpreg & (RTC_TR_ST | RTC_TR_SU));
 1047              		.loc 1 900 0
 1048 003a 039B     		ldr	r3, [sp, #12]
 1049 003c DBB2     		uxtb	r3, r3
 1050 003e 03F07F03 		and	r3, r3, #127
 1051 0042 DAB2     		uxtb	r2, r3
 1052 0044 009B     		ldr	r3, [sp]
 1053 0046 9A70     		strb	r2, [r3, #2]
 901:/home/rdu/Workspace/project_templates/mcu/stm32_ws/src/libraries/STM32F4xx_StdPeriph_Driver/src/stm32f4xx_rtc.c ****   RTC_TimeStruct->RTC_H12 = (uint8_t)((tmpreg & (RTC_TR_PM)) >> 16);  
 1054              		.loc 1 901 0
 1055 0048 039B     		ldr	r3, [sp, #12]
 1056 004a 1B0C     		lsrs	r3, r3, #16
 1057 004c DBB2     		uxtb	r3, r3
 1058 004e 03F04003 		and	r3, r3, #64
 1059 0052 DAB2     		uxtb	r2, r3
 1060 0054 009B     		ldr	r3, [sp]
 1061 0056 DA70     		strb	r2, [r3, #3]
 902:/home/rdu/Workspace/project_templates/mcu/stm32_ws/src/libraries/STM32F4xx_StdPeriph_Driver/src/stm32f4xx_rtc.c **** 
 903:/home/rdu/Workspace/project_templates/mcu/stm32_ws/src/libraries/STM32F4xx_StdPeriph_Driver/src/stm32f4xx_rtc.c ****   /* Check the input parameters format */
 904:/home/rdu/Workspace/project_templates/mcu/stm32_ws/src/libraries/STM32F4xx_StdPeriph_Driver/src/stm32f4xx_rtc.c ****   if (RTC_Format == RTC_Format_BIN)
 1062              		.loc 1 904 0
 1063 0058 019B     		ldr	r3, [sp, #4]
 1064 005a 002B     		cmp	r3, #0
 1065 005c 1AD1     		bne	.L76
 905:/home/rdu/Workspace/project_templates/mcu/stm32_ws/src/libraries/STM32F4xx_StdPeriph_Driver/src/stm32f4xx_rtc.c ****   {
 906:/home/rdu/Workspace/project_templates/mcu/stm32_ws/src/libraries/STM32F4xx_StdPeriph_Driver/src/stm32f4xx_rtc.c ****     /* Convert the structure parameters to Binary format */
 907:/home/rdu/Workspace/project_templates/mcu/stm32_ws/src/libraries/STM32F4xx_StdPeriph_Driver/src/stm32f4xx_rtc.c ****     RTC_TimeStruct->RTC_Hours = (uint8_t)RTC_Bcd2ToByte(RTC_TimeStruct->RTC_Hours);
 1066              		.loc 1 907 0
 1067 005e 009B     		ldr	r3, [sp]
 1068 0060 1B78     		ldrb	r3, [r3]	@ zero_extendqisi2
 1069 0062 1846     		mov	r0, r3
 1070 0064 FFF7FEFF 		bl	RTC_Bcd2ToByte
 1071 0068 0346     		mov	r3, r0
 1072 006a 1A46     		mov	r2, r3
 1073 006c 009B     		ldr	r3, [sp]
 1074 006e 1A70     		strb	r2, [r3]
 908:/home/rdu/Workspace/project_templates/mcu/stm32_ws/src/libraries/STM32F4xx_StdPeriph_Driver/src/stm32f4xx_rtc.c ****     RTC_TimeStruct->RTC_Minutes = (uint8_t)RTC_Bcd2ToByte(RTC_TimeStruct->RTC_Minutes);
 1075              		.loc 1 908 0
 1076 0070 009B     		ldr	r3, [sp]
 1077 0072 5B78     		ldrb	r3, [r3, #1]	@ zero_extendqisi2
 1078 0074 1846     		mov	r0, r3
 1079 0076 FFF7FEFF 		bl	RTC_Bcd2ToByte
 1080 007a 0346     		mov	r3, r0
 1081 007c 1A46     		mov	r2, r3
 1082 007e 009B     		ldr	r3, [sp]
 1083 0080 5A70     		strb	r2, [r3, #1]
 909:/home/rdu/Workspace/project_templates/mcu/stm32_ws/src/libraries/STM32F4xx_StdPeriph_Driver/src/stm32f4xx_rtc.c ****     RTC_TimeStruct->RTC_Seconds = (uint8_t)RTC_Bcd2ToByte(RTC_TimeStruct->RTC_Seconds);   
 1084              		.loc 1 909 0
 1085 0082 009B     		ldr	r3, [sp]
 1086 0084 9B78     		ldrb	r3, [r3, #2]	@ zero_extendqisi2
 1087 0086 1846     		mov	r0, r3
 1088 0088 FFF7FEFF 		bl	RTC_Bcd2ToByte
 1089 008c 0346     		mov	r3, r0
 1090 008e 1A46     		mov	r2, r3
 1091 0090 009B     		ldr	r3, [sp]
 1092 0092 9A70     		strb	r2, [r3, #2]
 1093              	.L76:
 910:/home/rdu/Workspace/project_templates/mcu/stm32_ws/src/libraries/STM32F4xx_StdPeriph_Driver/src/stm32f4xx_rtc.c ****   }
 911:/home/rdu/Workspace/project_templates/mcu/stm32_ws/src/libraries/STM32F4xx_StdPeriph_Driver/src/stm32f4xx_rtc.c **** }
 1094              		.loc 1 911 0
 1095 0094 00BF     		nop
 1096 0096 05B0     		add	sp, sp, #20
 1097              	.LCFI26:
 1098              		.cfi_def_cfa_offset 4
 1099              		@ sp needed
 1100 0098 5DF804FB 		ldr	pc, [sp], #4
 1101              	.L78:
 1102              		.align	2
 1103              	.L77:
 1104 009c 00280040 		.word	1073752064
 1105              		.cfi_endproc
 1106              	.LFE134:
 1108              		.section	.text.RTC_GetSubSecond,"ax",%progbits
 1109              		.align	1
 1110              		.global	RTC_GetSubSecond
 1111              		.syntax unified
 1112              		.thumb
 1113              		.thumb_func
 1114              		.fpu fpv4-sp-d16
 1116              	RTC_GetSubSecond:
 1117              	.LFB135:
 912:/home/rdu/Workspace/project_templates/mcu/stm32_ws/src/libraries/STM32F4xx_StdPeriph_Driver/src/stm32f4xx_rtc.c **** 
 913:/home/rdu/Workspace/project_templates/mcu/stm32_ws/src/libraries/STM32F4xx_StdPeriph_Driver/src/stm32f4xx_rtc.c **** /**
 914:/home/rdu/Workspace/project_templates/mcu/stm32_ws/src/libraries/STM32F4xx_StdPeriph_Driver/src/stm32f4xx_rtc.c ****   * @brief  Gets the RTC current Calendar Sub seconds value.
 915:/home/rdu/Workspace/project_templates/mcu/stm32_ws/src/libraries/STM32F4xx_StdPeriph_Driver/src/stm32f4xx_rtc.c ****   * @note   This function freeze the Time and Date registers after reading the 
 916:/home/rdu/Workspace/project_templates/mcu/stm32_ws/src/libraries/STM32F4xx_StdPeriph_Driver/src/stm32f4xx_rtc.c ****   *         SSR register.
 917:/home/rdu/Workspace/project_templates/mcu/stm32_ws/src/libraries/STM32F4xx_StdPeriph_Driver/src/stm32f4xx_rtc.c ****   * @param  None
 918:/home/rdu/Workspace/project_templates/mcu/stm32_ws/src/libraries/STM32F4xx_StdPeriph_Driver/src/stm32f4xx_rtc.c ****   * @retval RTC current Calendar Sub seconds value.
 919:/home/rdu/Workspace/project_templates/mcu/stm32_ws/src/libraries/STM32F4xx_StdPeriph_Driver/src/stm32f4xx_rtc.c ****   */
 920:/home/rdu/Workspace/project_templates/mcu/stm32_ws/src/libraries/STM32F4xx_StdPeriph_Driver/src/stm32f4xx_rtc.c **** uint32_t RTC_GetSubSecond(void)
 921:/home/rdu/Workspace/project_templates/mcu/stm32_ws/src/libraries/STM32F4xx_StdPeriph_Driver/src/stm32f4xx_rtc.c **** {
 1118              		.loc 1 921 0
 1119              		.cfi_startproc
 1120              		@ args = 0, pretend = 0, frame = 8
 1121              		@ frame_needed = 0, uses_anonymous_args = 0
 1122              		@ link register save eliminated.
 1123 0000 82B0     		sub	sp, sp, #8
 1124              	.LCFI27:
 1125              		.cfi_def_cfa_offset 8
 922:/home/rdu/Workspace/project_templates/mcu/stm32_ws/src/libraries/STM32F4xx_StdPeriph_Driver/src/stm32f4xx_rtc.c ****   uint32_t tmpreg = 0;
 1126              		.loc 1 922 0
 1127 0002 0023     		movs	r3, #0
 1128 0004 0193     		str	r3, [sp, #4]
 923:/home/rdu/Workspace/project_templates/mcu/stm32_ws/src/libraries/STM32F4xx_StdPeriph_Driver/src/stm32f4xx_rtc.c ****   
 924:/home/rdu/Workspace/project_templates/mcu/stm32_ws/src/libraries/STM32F4xx_StdPeriph_Driver/src/stm32f4xx_rtc.c ****   /* Get sub seconds values from the correspondent registers*/
 925:/home/rdu/Workspace/project_templates/mcu/stm32_ws/src/libraries/STM32F4xx_StdPeriph_Driver/src/stm32f4xx_rtc.c ****   tmpreg = (uint32_t)(RTC->SSR);
 1129              		.loc 1 925 0
 1130 0006 044B     		ldr	r3, .L81
 1131 0008 9B6A     		ldr	r3, [r3, #40]
 1132 000a 0193     		str	r3, [sp, #4]
 926:/home/rdu/Workspace/project_templates/mcu/stm32_ws/src/libraries/STM32F4xx_StdPeriph_Driver/src/stm32f4xx_rtc.c ****   
 927:/home/rdu/Workspace/project_templates/mcu/stm32_ws/src/libraries/STM32F4xx_StdPeriph_Driver/src/stm32f4xx_rtc.c ****   /* Read DR register to unfroze calendar registers */
 928:/home/rdu/Workspace/project_templates/mcu/stm32_ws/src/libraries/STM32F4xx_StdPeriph_Driver/src/stm32f4xx_rtc.c ****   (void) (RTC->DR);
 1133              		.loc 1 928 0
 1134 000c 024B     		ldr	r3, .L81
 1135 000e 5B68     		ldr	r3, [r3, #4]
 929:/home/rdu/Workspace/project_templates/mcu/stm32_ws/src/libraries/STM32F4xx_StdPeriph_Driver/src/stm32f4xx_rtc.c ****   
 930:/home/rdu/Workspace/project_templates/mcu/stm32_ws/src/libraries/STM32F4xx_StdPeriph_Driver/src/stm32f4xx_rtc.c ****   return (tmpreg);
 1136              		.loc 1 930 0
 1137 0010 019B     		ldr	r3, [sp, #4]
 931:/home/rdu/Workspace/project_templates/mcu/stm32_ws/src/libraries/STM32F4xx_StdPeriph_Driver/src/stm32f4xx_rtc.c **** }
 1138              		.loc 1 931 0
 1139 0012 1846     		mov	r0, r3
 1140 0014 02B0     		add	sp, sp, #8
 1141              	.LCFI28:
 1142              		.cfi_def_cfa_offset 0
 1143              		@ sp needed
 1144 0016 7047     		bx	lr
 1145              	.L82:
 1146              		.align	2
 1147              	.L81:
 1148 0018 00280040 		.word	1073752064
 1149              		.cfi_endproc
 1150              	.LFE135:
 1152              		.section	.text.RTC_SetDate,"ax",%progbits
 1153              		.align	1
 1154              		.global	RTC_SetDate
 1155              		.syntax unified
 1156              		.thumb
 1157              		.thumb_func
 1158              		.fpu fpv4-sp-d16
 1160              	RTC_SetDate:
 1161              	.LFB136:
 932:/home/rdu/Workspace/project_templates/mcu/stm32_ws/src/libraries/STM32F4xx_StdPeriph_Driver/src/stm32f4xx_rtc.c **** 
 933:/home/rdu/Workspace/project_templates/mcu/stm32_ws/src/libraries/STM32F4xx_StdPeriph_Driver/src/stm32f4xx_rtc.c **** /**
 934:/home/rdu/Workspace/project_templates/mcu/stm32_ws/src/libraries/STM32F4xx_StdPeriph_Driver/src/stm32f4xx_rtc.c ****   * @brief  Set the RTC current date.
 935:/home/rdu/Workspace/project_templates/mcu/stm32_ws/src/libraries/STM32F4xx_StdPeriph_Driver/src/stm32f4xx_rtc.c ****   * @param  RTC_Format: specifies the format of the entered parameters.
 936:/home/rdu/Workspace/project_templates/mcu/stm32_ws/src/libraries/STM32F4xx_StdPeriph_Driver/src/stm32f4xx_rtc.c ****   *          This parameter can be  one of the following values:
 937:/home/rdu/Workspace/project_templates/mcu/stm32_ws/src/libraries/STM32F4xx_StdPeriph_Driver/src/stm32f4xx_rtc.c ****   *            @arg RTC_Format_BIN:  Binary data format 
 938:/home/rdu/Workspace/project_templates/mcu/stm32_ws/src/libraries/STM32F4xx_StdPeriph_Driver/src/stm32f4xx_rtc.c ****   *            @arg RTC_Format_BCD:  BCD data format
 939:/home/rdu/Workspace/project_templates/mcu/stm32_ws/src/libraries/STM32F4xx_StdPeriph_Driver/src/stm32f4xx_rtc.c ****   * @param  RTC_DateStruct: pointer to a RTC_DateTypeDef structure that contains 
 940:/home/rdu/Workspace/project_templates/mcu/stm32_ws/src/libraries/STM32F4xx_StdPeriph_Driver/src/stm32f4xx_rtc.c ****   *                         the date configuration information for the RTC.
 941:/home/rdu/Workspace/project_templates/mcu/stm32_ws/src/libraries/STM32F4xx_StdPeriph_Driver/src/stm32f4xx_rtc.c ****   * @retval An ErrorStatus enumeration value:
 942:/home/rdu/Workspace/project_templates/mcu/stm32_ws/src/libraries/STM32F4xx_StdPeriph_Driver/src/stm32f4xx_rtc.c ****   *          - SUCCESS: RTC Date register is configured
 943:/home/rdu/Workspace/project_templates/mcu/stm32_ws/src/libraries/STM32F4xx_StdPeriph_Driver/src/stm32f4xx_rtc.c ****   *          - ERROR: RTC Date register is not configured
 944:/home/rdu/Workspace/project_templates/mcu/stm32_ws/src/libraries/STM32F4xx_StdPeriph_Driver/src/stm32f4xx_rtc.c ****   */
 945:/home/rdu/Workspace/project_templates/mcu/stm32_ws/src/libraries/STM32F4xx_StdPeriph_Driver/src/stm32f4xx_rtc.c **** ErrorStatus RTC_SetDate(uint32_t RTC_Format, RTC_DateTypeDef* RTC_DateStruct)
 946:/home/rdu/Workspace/project_templates/mcu/stm32_ws/src/libraries/STM32F4xx_StdPeriph_Driver/src/stm32f4xx_rtc.c **** {
 1162              		.loc 1 946 0
 1163              		.cfi_startproc
 1164              		@ args = 0, pretend = 0, frame = 16
 1165              		@ frame_needed = 0, uses_anonymous_args = 0
 1166 0000 10B5     		push	{r4, lr}
 1167              	.LCFI29:
 1168              		.cfi_def_cfa_offset 8
 1169              		.cfi_offset 4, -8
 1170              		.cfi_offset 14, -4
 1171 0002 84B0     		sub	sp, sp, #16
 1172              	.LCFI30:
 1173              		.cfi_def_cfa_offset 24
 1174 0004 0190     		str	r0, [sp, #4]
 1175 0006 0091     		str	r1, [sp]
 947:/home/rdu/Workspace/project_templates/mcu/stm32_ws/src/libraries/STM32F4xx_StdPeriph_Driver/src/stm32f4xx_rtc.c ****   uint32_t tmpreg = 0;
 1176              		.loc 1 947 0
 1177 0008 0023     		movs	r3, #0
 1178 000a 0393     		str	r3, [sp, #12]
 948:/home/rdu/Workspace/project_templates/mcu/stm32_ws/src/libraries/STM32F4xx_StdPeriph_Driver/src/stm32f4xx_rtc.c ****   ErrorStatus status = ERROR;
 1179              		.loc 1 948 0
 1180 000c 0023     		movs	r3, #0
 1181 000e 8DF80B30 		strb	r3, [sp, #11]
 949:/home/rdu/Workspace/project_templates/mcu/stm32_ws/src/libraries/STM32F4xx_StdPeriph_Driver/src/stm32f4xx_rtc.c ****   
 950:/home/rdu/Workspace/project_templates/mcu/stm32_ws/src/libraries/STM32F4xx_StdPeriph_Driver/src/stm32f4xx_rtc.c ****   /* Check the parameters */
 951:/home/rdu/Workspace/project_templates/mcu/stm32_ws/src/libraries/STM32F4xx_StdPeriph_Driver/src/stm32f4xx_rtc.c ****   assert_param(IS_RTC_FORMAT(RTC_Format));
 952:/home/rdu/Workspace/project_templates/mcu/stm32_ws/src/libraries/STM32F4xx_StdPeriph_Driver/src/stm32f4xx_rtc.c **** 
 953:/home/rdu/Workspace/project_templates/mcu/stm32_ws/src/libraries/STM32F4xx_StdPeriph_Driver/src/stm32f4xx_rtc.c ****   if ((RTC_Format == RTC_Format_BIN) && ((RTC_DateStruct->RTC_Month & 0x10) == 0x10))
 1182              		.loc 1 953 0
 1183 0012 019B     		ldr	r3, [sp, #4]
 1184 0014 002B     		cmp	r3, #0
 1185 0016 0ED1     		bne	.L84
 1186              		.loc 1 953 0 is_stmt 0 discriminator 1
 1187 0018 009B     		ldr	r3, [sp]
 1188 001a 5B78     		ldrb	r3, [r3, #1]	@ zero_extendqisi2
 1189 001c 03F01003 		and	r3, r3, #16
 1190 0020 002B     		cmp	r3, #0
 1191 0022 08D0     		beq	.L84
 954:/home/rdu/Workspace/project_templates/mcu/stm32_ws/src/libraries/STM32F4xx_StdPeriph_Driver/src/stm32f4xx_rtc.c ****   {
 955:/home/rdu/Workspace/project_templates/mcu/stm32_ws/src/libraries/STM32F4xx_StdPeriph_Driver/src/stm32f4xx_rtc.c ****     RTC_DateStruct->RTC_Month = (RTC_DateStruct->RTC_Month & (uint32_t)~(0x10)) + 0x0A;
 1192              		.loc 1 955 0 is_stmt 1
 1193 0024 009B     		ldr	r3, [sp]
 1194 0026 5B78     		ldrb	r3, [r3, #1]	@ zero_extendqisi2
 1195 0028 23F01003 		bic	r3, r3, #16
 1196 002c DBB2     		uxtb	r3, r3
 1197 002e 0A33     		adds	r3, r3, #10
 1198 0030 DAB2     		uxtb	r2, r3
 1199 0032 009B     		ldr	r3, [sp]
 1200 0034 5A70     		strb	r2, [r3, #1]
 1201              	.L84:
 956:/home/rdu/Workspace/project_templates/mcu/stm32_ws/src/libraries/STM32F4xx_StdPeriph_Driver/src/stm32f4xx_rtc.c ****   }  
 957:/home/rdu/Workspace/project_templates/mcu/stm32_ws/src/libraries/STM32F4xx_StdPeriph_Driver/src/stm32f4xx_rtc.c ****   if (RTC_Format == RTC_Format_BIN)
 1202              		.loc 1 957 0
 1203 0036 019B     		ldr	r3, [sp, #4]
 1204 0038 002B     		cmp	r3, #0
 1205 003a 0DD0     		beq	.L85
 958:/home/rdu/Workspace/project_templates/mcu/stm32_ws/src/libraries/STM32F4xx_StdPeriph_Driver/src/stm32f4xx_rtc.c ****   {
 959:/home/rdu/Workspace/project_templates/mcu/stm32_ws/src/libraries/STM32F4xx_StdPeriph_Driver/src/stm32f4xx_rtc.c ****     assert_param(IS_RTC_YEAR(RTC_DateStruct->RTC_Year));
 960:/home/rdu/Workspace/project_templates/mcu/stm32_ws/src/libraries/STM32F4xx_StdPeriph_Driver/src/stm32f4xx_rtc.c ****     assert_param(IS_RTC_MONTH(RTC_DateStruct->RTC_Month));
 961:/home/rdu/Workspace/project_templates/mcu/stm32_ws/src/libraries/STM32F4xx_StdPeriph_Driver/src/stm32f4xx_rtc.c ****     assert_param(IS_RTC_DATE(RTC_DateStruct->RTC_Date));
 962:/home/rdu/Workspace/project_templates/mcu/stm32_ws/src/libraries/STM32F4xx_StdPeriph_Driver/src/stm32f4xx_rtc.c ****   }
 963:/home/rdu/Workspace/project_templates/mcu/stm32_ws/src/libraries/STM32F4xx_StdPeriph_Driver/src/stm32f4xx_rtc.c ****   else
 964:/home/rdu/Workspace/project_templates/mcu/stm32_ws/src/libraries/STM32F4xx_StdPeriph_Driver/src/stm32f4xx_rtc.c ****   {
 965:/home/rdu/Workspace/project_templates/mcu/stm32_ws/src/libraries/STM32F4xx_StdPeriph_Driver/src/stm32f4xx_rtc.c ****     assert_param(IS_RTC_YEAR(RTC_Bcd2ToByte(RTC_DateStruct->RTC_Year)));
 966:/home/rdu/Workspace/project_templates/mcu/stm32_ws/src/libraries/STM32F4xx_StdPeriph_Driver/src/stm32f4xx_rtc.c ****     tmpreg = RTC_Bcd2ToByte(RTC_DateStruct->RTC_Month);
 1206              		.loc 1 966 0
 1207 003c 009B     		ldr	r3, [sp]
 1208 003e 5B78     		ldrb	r3, [r3, #1]	@ zero_extendqisi2
 1209 0040 1846     		mov	r0, r3
 1210 0042 FFF7FEFF 		bl	RTC_Bcd2ToByte
 1211 0046 0346     		mov	r3, r0
 1212 0048 0393     		str	r3, [sp, #12]
 967:/home/rdu/Workspace/project_templates/mcu/stm32_ws/src/libraries/STM32F4xx_StdPeriph_Driver/src/stm32f4xx_rtc.c ****     assert_param(IS_RTC_MONTH(tmpreg));
 968:/home/rdu/Workspace/project_templates/mcu/stm32_ws/src/libraries/STM32F4xx_StdPeriph_Driver/src/stm32f4xx_rtc.c ****     tmpreg = RTC_Bcd2ToByte(RTC_DateStruct->RTC_Date);
 1213              		.loc 1 968 0
 1214 004a 009B     		ldr	r3, [sp]
 1215 004c 9B78     		ldrb	r3, [r3, #2]	@ zero_extendqisi2
 1216 004e 1846     		mov	r0, r3
 1217 0050 FFF7FEFF 		bl	RTC_Bcd2ToByte
 1218 0054 0346     		mov	r3, r0
 1219 0056 0393     		str	r3, [sp, #12]
 1220              	.L85:
 969:/home/rdu/Workspace/project_templates/mcu/stm32_ws/src/libraries/STM32F4xx_StdPeriph_Driver/src/stm32f4xx_rtc.c ****     assert_param(IS_RTC_DATE(tmpreg));
 970:/home/rdu/Workspace/project_templates/mcu/stm32_ws/src/libraries/STM32F4xx_StdPeriph_Driver/src/stm32f4xx_rtc.c ****   }
 971:/home/rdu/Workspace/project_templates/mcu/stm32_ws/src/libraries/STM32F4xx_StdPeriph_Driver/src/stm32f4xx_rtc.c ****   assert_param(IS_RTC_WEEKDAY(RTC_DateStruct->RTC_WeekDay));
 972:/home/rdu/Workspace/project_templates/mcu/stm32_ws/src/libraries/STM32F4xx_StdPeriph_Driver/src/stm32f4xx_rtc.c **** 
 973:/home/rdu/Workspace/project_templates/mcu/stm32_ws/src/libraries/STM32F4xx_StdPeriph_Driver/src/stm32f4xx_rtc.c ****   /* Check the input parameters format */
 974:/home/rdu/Workspace/project_templates/mcu/stm32_ws/src/libraries/STM32F4xx_StdPeriph_Driver/src/stm32f4xx_rtc.c ****   if (RTC_Format != RTC_Format_BIN)
 1221              		.loc 1 974 0
 1222 0058 019B     		ldr	r3, [sp, #4]
 1223 005a 002B     		cmp	r3, #0
 1224 005c 0FD0     		beq	.L86
 975:/home/rdu/Workspace/project_templates/mcu/stm32_ws/src/libraries/STM32F4xx_StdPeriph_Driver/src/stm32f4xx_rtc.c ****   {
 976:/home/rdu/Workspace/project_templates/mcu/stm32_ws/src/libraries/STM32F4xx_StdPeriph_Driver/src/stm32f4xx_rtc.c ****     tmpreg = ((((uint32_t)RTC_DateStruct->RTC_Year) << 16) | \
 1225              		.loc 1 976 0
 1226 005e 009B     		ldr	r3, [sp]
 1227 0060 DB78     		ldrb	r3, [r3, #3]	@ zero_extendqisi2
 1228 0062 1A04     		lsls	r2, r3, #16
 977:/home/rdu/Workspace/project_templates/mcu/stm32_ws/src/libraries/STM32F4xx_StdPeriph_Driver/src/stm32f4xx_rtc.c ****               (((uint32_t)RTC_DateStruct->RTC_Month) << 8) | \
 1229              		.loc 1 977 0
 1230 0064 009B     		ldr	r3, [sp]
 1231 0066 5B78     		ldrb	r3, [r3, #1]	@ zero_extendqisi2
 1232 0068 1B02     		lsls	r3, r3, #8
 976:/home/rdu/Workspace/project_templates/mcu/stm32_ws/src/libraries/STM32F4xx_StdPeriph_Driver/src/stm32f4xx_rtc.c ****               (((uint32_t)RTC_DateStruct->RTC_Month) << 8) | \
 1233              		.loc 1 976 0
 1234 006a 1343     		orrs	r3, r3, r2
 978:/home/rdu/Workspace/project_templates/mcu/stm32_ws/src/libraries/STM32F4xx_StdPeriph_Driver/src/stm32f4xx_rtc.c ****               ((uint32_t)RTC_DateStruct->RTC_Date) | \
 1235              		.loc 1 978 0
 1236 006c 009A     		ldr	r2, [sp]
 1237 006e 9278     		ldrb	r2, [r2, #2]	@ zero_extendqisi2
 977:/home/rdu/Workspace/project_templates/mcu/stm32_ws/src/libraries/STM32F4xx_StdPeriph_Driver/src/stm32f4xx_rtc.c ****               (((uint32_t)RTC_DateStruct->RTC_Month) << 8) | \
 1238              		.loc 1 977 0
 1239 0070 1A43     		orrs	r2, r2, r3
 979:/home/rdu/Workspace/project_templates/mcu/stm32_ws/src/libraries/STM32F4xx_StdPeriph_Driver/src/stm32f4xx_rtc.c ****               (((uint32_t)RTC_DateStruct->RTC_WeekDay) << 13)); 
 1240              		.loc 1 979 0
 1241 0072 009B     		ldr	r3, [sp]
 1242 0074 1B78     		ldrb	r3, [r3]	@ zero_extendqisi2
 1243 0076 5B03     		lsls	r3, r3, #13
 976:/home/rdu/Workspace/project_templates/mcu/stm32_ws/src/libraries/STM32F4xx_StdPeriph_Driver/src/stm32f4xx_rtc.c ****               (((uint32_t)RTC_DateStruct->RTC_Month) << 8) | \
 1244              		.loc 1 976 0
 1245 0078 1343     		orrs	r3, r3, r2
 1246 007a 0393     		str	r3, [sp, #12]
 1247 007c 1BE0     		b	.L87
 1248              	.L86:
 980:/home/rdu/Workspace/project_templates/mcu/stm32_ws/src/libraries/STM32F4xx_StdPeriph_Driver/src/stm32f4xx_rtc.c ****   }  
 981:/home/rdu/Workspace/project_templates/mcu/stm32_ws/src/libraries/STM32F4xx_StdPeriph_Driver/src/stm32f4xx_rtc.c ****   else
 982:/home/rdu/Workspace/project_templates/mcu/stm32_ws/src/libraries/STM32F4xx_StdPeriph_Driver/src/stm32f4xx_rtc.c ****   {
 983:/home/rdu/Workspace/project_templates/mcu/stm32_ws/src/libraries/STM32F4xx_StdPeriph_Driver/src/stm32f4xx_rtc.c ****     tmpreg = (((uint32_t)RTC_ByteToBcd2(RTC_DateStruct->RTC_Year) << 16) | \
 1249              		.loc 1 983 0
 1250 007e 009B     		ldr	r3, [sp]
 1251 0080 DB78     		ldrb	r3, [r3, #3]	@ zero_extendqisi2
 1252 0082 1846     		mov	r0, r3
 1253 0084 FFF7FEFF 		bl	RTC_ByteToBcd2
 1254 0088 0346     		mov	r3, r0
 1255 008a 1C04     		lsls	r4, r3, #16
 984:/home/rdu/Workspace/project_templates/mcu/stm32_ws/src/libraries/STM32F4xx_StdPeriph_Driver/src/stm32f4xx_rtc.c ****               ((uint32_t)RTC_ByteToBcd2(RTC_DateStruct->RTC_Month) << 8) | \
 1256              		.loc 1 984 0
 1257 008c 009B     		ldr	r3, [sp]
 1258 008e 5B78     		ldrb	r3, [r3, #1]	@ zero_extendqisi2
 1259 0090 1846     		mov	r0, r3
 1260 0092 FFF7FEFF 		bl	RTC_ByteToBcd2
 1261 0096 0346     		mov	r3, r0
 1262 0098 1B02     		lsls	r3, r3, #8
 983:/home/rdu/Workspace/project_templates/mcu/stm32_ws/src/libraries/STM32F4xx_StdPeriph_Driver/src/stm32f4xx_rtc.c ****               ((uint32_t)RTC_ByteToBcd2(RTC_DateStruct->RTC_Month) << 8) | \
 1263              		.loc 1 983 0
 1264 009a 1C43     		orrs	r4, r4, r3
 985:/home/rdu/Workspace/project_templates/mcu/stm32_ws/src/libraries/STM32F4xx_StdPeriph_Driver/src/stm32f4xx_rtc.c ****               ((uint32_t)RTC_ByteToBcd2(RTC_DateStruct->RTC_Date)) | \
 1265              		.loc 1 985 0
 1266 009c 009B     		ldr	r3, [sp]
 1267 009e 9B78     		ldrb	r3, [r3, #2]	@ zero_extendqisi2
 1268 00a0 1846     		mov	r0, r3
 1269 00a2 FFF7FEFF 		bl	RTC_ByteToBcd2
 1270 00a6 0346     		mov	r3, r0
 984:/home/rdu/Workspace/project_templates/mcu/stm32_ws/src/libraries/STM32F4xx_StdPeriph_Driver/src/stm32f4xx_rtc.c ****               ((uint32_t)RTC_ByteToBcd2(RTC_DateStruct->RTC_Month) << 8) | \
 1271              		.loc 1 984 0
 1272 00a8 44EA0302 		orr	r2, r4, r3
 986:/home/rdu/Workspace/project_templates/mcu/stm32_ws/src/libraries/STM32F4xx_StdPeriph_Driver/src/stm32f4xx_rtc.c ****               ((uint32_t)RTC_DateStruct->RTC_WeekDay << 13));
 1273              		.loc 1 986 0
 1274 00ac 009B     		ldr	r3, [sp]
 1275 00ae 1B78     		ldrb	r3, [r3]	@ zero_extendqisi2
 1276 00b0 5B03     		lsls	r3, r3, #13
 983:/home/rdu/Workspace/project_templates/mcu/stm32_ws/src/libraries/STM32F4xx_StdPeriph_Driver/src/stm32f4xx_rtc.c ****               ((uint32_t)RTC_ByteToBcd2(RTC_DateStruct->RTC_Month) << 8) | \
 1277              		.loc 1 983 0
 1278 00b2 1343     		orrs	r3, r3, r2
 1279 00b4 0393     		str	r3, [sp, #12]
 1280              	.L87:
 987:/home/rdu/Workspace/project_templates/mcu/stm32_ws/src/libraries/STM32F4xx_StdPeriph_Driver/src/stm32f4xx_rtc.c ****   }
 988:/home/rdu/Workspace/project_templates/mcu/stm32_ws/src/libraries/STM32F4xx_StdPeriph_Driver/src/stm32f4xx_rtc.c **** 
 989:/home/rdu/Workspace/project_templates/mcu/stm32_ws/src/libraries/STM32F4xx_StdPeriph_Driver/src/stm32f4xx_rtc.c ****   /* Disable the write protection for RTC registers */
 990:/home/rdu/Workspace/project_templates/mcu/stm32_ws/src/libraries/STM32F4xx_StdPeriph_Driver/src/stm32f4xx_rtc.c ****   RTC->WPR = 0xCA;
 1281              		.loc 1 990 0
 1282 00b6 1B4B     		ldr	r3, .L94
 1283 00b8 CA22     		movs	r2, #202
 1284 00ba 5A62     		str	r2, [r3, #36]
 991:/home/rdu/Workspace/project_templates/mcu/stm32_ws/src/libraries/STM32F4xx_StdPeriph_Driver/src/stm32f4xx_rtc.c ****   RTC->WPR = 0x53;
 1285              		.loc 1 991 0
 1286 00bc 194B     		ldr	r3, .L94
 1287 00be 5322     		movs	r2, #83
 1288 00c0 5A62     		str	r2, [r3, #36]
 992:/home/rdu/Workspace/project_templates/mcu/stm32_ws/src/libraries/STM32F4xx_StdPeriph_Driver/src/stm32f4xx_rtc.c **** 
 993:/home/rdu/Workspace/project_templates/mcu/stm32_ws/src/libraries/STM32F4xx_StdPeriph_Driver/src/stm32f4xx_rtc.c ****   /* Set Initialization mode */
 994:/home/rdu/Workspace/project_templates/mcu/stm32_ws/src/libraries/STM32F4xx_StdPeriph_Driver/src/stm32f4xx_rtc.c ****   if (RTC_EnterInitMode() == ERROR)
 1289              		.loc 1 994 0
 1290 00c2 FFF7FEFF 		bl	RTC_EnterInitMode
 1291 00c6 0346     		mov	r3, r0
 1292 00c8 002B     		cmp	r3, #0
 1293 00ca 03D1     		bne	.L88
 995:/home/rdu/Workspace/project_templates/mcu/stm32_ws/src/libraries/STM32F4xx_StdPeriph_Driver/src/stm32f4xx_rtc.c ****   {
 996:/home/rdu/Workspace/project_templates/mcu/stm32_ws/src/libraries/STM32F4xx_StdPeriph_Driver/src/stm32f4xx_rtc.c ****     status = ERROR;
 1294              		.loc 1 996 0
 1295 00cc 0023     		movs	r3, #0
 1296 00ce 8DF80B30 		strb	r3, [sp, #11]
 1297 00d2 1EE0     		b	.L89
 1298              	.L88:
 997:/home/rdu/Workspace/project_templates/mcu/stm32_ws/src/libraries/STM32F4xx_StdPeriph_Driver/src/stm32f4xx_rtc.c ****   } 
 998:/home/rdu/Workspace/project_templates/mcu/stm32_ws/src/libraries/STM32F4xx_StdPeriph_Driver/src/stm32f4xx_rtc.c ****   else
 999:/home/rdu/Workspace/project_templates/mcu/stm32_ws/src/libraries/STM32F4xx_StdPeriph_Driver/src/stm32f4xx_rtc.c ****   {
1000:/home/rdu/Workspace/project_templates/mcu/stm32_ws/src/libraries/STM32F4xx_StdPeriph_Driver/src/stm32f4xx_rtc.c ****     /* Set the RTC_DR register */
1001:/home/rdu/Workspace/project_templates/mcu/stm32_ws/src/libraries/STM32F4xx_StdPeriph_Driver/src/stm32f4xx_rtc.c ****     RTC->DR = (uint32_t)(tmpreg & RTC_DR_RESERVED_MASK);
 1299              		.loc 1 1001 0
 1300 00d4 134A     		ldr	r2, .L94
 1301 00d6 039B     		ldr	r3, [sp, #12]
 1302 00d8 23F07F43 		bic	r3, r3, #-16777216
 1303 00dc 23F0C003 		bic	r3, r3, #192
 1304 00e0 5360     		str	r3, [r2, #4]
1002:/home/rdu/Workspace/project_templates/mcu/stm32_ws/src/libraries/STM32F4xx_StdPeriph_Driver/src/stm32f4xx_rtc.c **** 
1003:/home/rdu/Workspace/project_templates/mcu/stm32_ws/src/libraries/STM32F4xx_StdPeriph_Driver/src/stm32f4xx_rtc.c ****     /* Exit Initialization mode */
1004:/home/rdu/Workspace/project_templates/mcu/stm32_ws/src/libraries/STM32F4xx_StdPeriph_Driver/src/stm32f4xx_rtc.c ****     RTC_ExitInitMode(); 
 1305              		.loc 1 1004 0
 1306 00e2 FFF7FEFF 		bl	RTC_ExitInitMode
1005:/home/rdu/Workspace/project_templates/mcu/stm32_ws/src/libraries/STM32F4xx_StdPeriph_Driver/src/stm32f4xx_rtc.c **** 
1006:/home/rdu/Workspace/project_templates/mcu/stm32_ws/src/libraries/STM32F4xx_StdPeriph_Driver/src/stm32f4xx_rtc.c ****     /* If  RTC_CR_BYPSHAD bit = 0, wait for synchro else this check is not needed */
1007:/home/rdu/Workspace/project_templates/mcu/stm32_ws/src/libraries/STM32F4xx_StdPeriph_Driver/src/stm32f4xx_rtc.c ****     if ((RTC->CR & RTC_CR_BYPSHAD) == RESET)
 1307              		.loc 1 1007 0
 1308 00e6 0F4B     		ldr	r3, .L94
 1309 00e8 9B68     		ldr	r3, [r3, #8]
 1310 00ea 03F02003 		and	r3, r3, #32
 1311 00ee 002B     		cmp	r3, #0
 1312 00f0 0CD1     		bne	.L90
1008:/home/rdu/Workspace/project_templates/mcu/stm32_ws/src/libraries/STM32F4xx_StdPeriph_Driver/src/stm32f4xx_rtc.c ****     {
1009:/home/rdu/Workspace/project_templates/mcu/stm32_ws/src/libraries/STM32F4xx_StdPeriph_Driver/src/stm32f4xx_rtc.c ****     if(RTC_WaitForSynchro() == ERROR)
 1313              		.loc 1 1009 0
 1314 00f2 FFF7FEFF 		bl	RTC_WaitForSynchro
 1315 00f6 0346     		mov	r3, r0
 1316 00f8 002B     		cmp	r3, #0
 1317 00fa 03D1     		bne	.L91
1010:/home/rdu/Workspace/project_templates/mcu/stm32_ws/src/libraries/STM32F4xx_StdPeriph_Driver/src/stm32f4xx_rtc.c ****     {
1011:/home/rdu/Workspace/project_templates/mcu/stm32_ws/src/libraries/STM32F4xx_StdPeriph_Driver/src/stm32f4xx_rtc.c ****       status = ERROR;
 1318              		.loc 1 1011 0
 1319 00fc 0023     		movs	r3, #0
 1320 00fe 8DF80B30 		strb	r3, [sp, #11]
 1321 0102 06E0     		b	.L89
 1322              	.L91:
1012:/home/rdu/Workspace/project_templates/mcu/stm32_ws/src/libraries/STM32F4xx_StdPeriph_Driver/src/stm32f4xx_rtc.c ****     }
1013:/home/rdu/Workspace/project_templates/mcu/stm32_ws/src/libraries/STM32F4xx_StdPeriph_Driver/src/stm32f4xx_rtc.c ****     else
1014:/home/rdu/Workspace/project_templates/mcu/stm32_ws/src/libraries/STM32F4xx_StdPeriph_Driver/src/stm32f4xx_rtc.c ****     {
1015:/home/rdu/Workspace/project_templates/mcu/stm32_ws/src/libraries/STM32F4xx_StdPeriph_Driver/src/stm32f4xx_rtc.c ****       status = SUCCESS;
 1323              		.loc 1 1015 0
 1324 0104 0123     		movs	r3, #1
 1325 0106 8DF80B30 		strb	r3, [sp, #11]
 1326 010a 02E0     		b	.L89
 1327              	.L90:
1016:/home/rdu/Workspace/project_templates/mcu/stm32_ws/src/libraries/STM32F4xx_StdPeriph_Driver/src/stm32f4xx_rtc.c ****     }
1017:/home/rdu/Workspace/project_templates/mcu/stm32_ws/src/libraries/STM32F4xx_StdPeriph_Driver/src/stm32f4xx_rtc.c ****   }
1018:/home/rdu/Workspace/project_templates/mcu/stm32_ws/src/libraries/STM32F4xx_StdPeriph_Driver/src/stm32f4xx_rtc.c ****     else
1019:/home/rdu/Workspace/project_templates/mcu/stm32_ws/src/libraries/STM32F4xx_StdPeriph_Driver/src/stm32f4xx_rtc.c ****     {
1020:/home/rdu/Workspace/project_templates/mcu/stm32_ws/src/libraries/STM32F4xx_StdPeriph_Driver/src/stm32f4xx_rtc.c ****       status = SUCCESS;
 1328              		.loc 1 1020 0
 1329 010c 0123     		movs	r3, #1
 1330 010e 8DF80B30 		strb	r3, [sp, #11]
 1331              	.L89:
1021:/home/rdu/Workspace/project_templates/mcu/stm32_ws/src/libraries/STM32F4xx_StdPeriph_Driver/src/stm32f4xx_rtc.c ****     }
1022:/home/rdu/Workspace/project_templates/mcu/stm32_ws/src/libraries/STM32F4xx_StdPeriph_Driver/src/stm32f4xx_rtc.c ****   }
1023:/home/rdu/Workspace/project_templates/mcu/stm32_ws/src/libraries/STM32F4xx_StdPeriph_Driver/src/stm32f4xx_rtc.c ****   /* Enable the write protection for RTC registers */
1024:/home/rdu/Workspace/project_templates/mcu/stm32_ws/src/libraries/STM32F4xx_StdPeriph_Driver/src/stm32f4xx_rtc.c ****   RTC->WPR = 0xFF;   
 1332              		.loc 1 1024 0
 1333 0112 044B     		ldr	r3, .L94
 1334 0114 FF22     		movs	r2, #255
 1335 0116 5A62     		str	r2, [r3, #36]
1025:/home/rdu/Workspace/project_templates/mcu/stm32_ws/src/libraries/STM32F4xx_StdPeriph_Driver/src/stm32f4xx_rtc.c ****   
1026:/home/rdu/Workspace/project_templates/mcu/stm32_ws/src/libraries/STM32F4xx_StdPeriph_Driver/src/stm32f4xx_rtc.c ****   return status;
 1336              		.loc 1 1026 0
 1337 0118 9DF80B30 		ldrb	r3, [sp, #11]	@ zero_extendqisi2
1027:/home/rdu/Workspace/project_templates/mcu/stm32_ws/src/libraries/STM32F4xx_StdPeriph_Driver/src/stm32f4xx_rtc.c **** }
 1338              		.loc 1 1027 0
 1339 011c 1846     		mov	r0, r3
 1340 011e 04B0     		add	sp, sp, #16
 1341              	.LCFI31:
 1342              		.cfi_def_cfa_offset 8
 1343              		@ sp needed
 1344 0120 10BD     		pop	{r4, pc}
 1345              	.L95:
 1346 0122 00BF     		.align	2
 1347              	.L94:
 1348 0124 00280040 		.word	1073752064
 1349              		.cfi_endproc
 1350              	.LFE136:
 1352              		.section	.text.RTC_DateStructInit,"ax",%progbits
 1353              		.align	1
 1354              		.global	RTC_DateStructInit
 1355              		.syntax unified
 1356              		.thumb
 1357              		.thumb_func
 1358              		.fpu fpv4-sp-d16
 1360              	RTC_DateStructInit:
 1361              	.LFB137:
1028:/home/rdu/Workspace/project_templates/mcu/stm32_ws/src/libraries/STM32F4xx_StdPeriph_Driver/src/stm32f4xx_rtc.c **** 
1029:/home/rdu/Workspace/project_templates/mcu/stm32_ws/src/libraries/STM32F4xx_StdPeriph_Driver/src/stm32f4xx_rtc.c **** /**
1030:/home/rdu/Workspace/project_templates/mcu/stm32_ws/src/libraries/STM32F4xx_StdPeriph_Driver/src/stm32f4xx_rtc.c ****   * @brief  Fills each RTC_DateStruct member with its default value
1031:/home/rdu/Workspace/project_templates/mcu/stm32_ws/src/libraries/STM32F4xx_StdPeriph_Driver/src/stm32f4xx_rtc.c ****   *         (Monday, January 01 xx00).
1032:/home/rdu/Workspace/project_templates/mcu/stm32_ws/src/libraries/STM32F4xx_StdPeriph_Driver/src/stm32f4xx_rtc.c ****   * @param  RTC_DateStruct: pointer to a RTC_DateTypeDef structure which will be 
1033:/home/rdu/Workspace/project_templates/mcu/stm32_ws/src/libraries/STM32F4xx_StdPeriph_Driver/src/stm32f4xx_rtc.c ****   *         initialized.
1034:/home/rdu/Workspace/project_templates/mcu/stm32_ws/src/libraries/STM32F4xx_StdPeriph_Driver/src/stm32f4xx_rtc.c ****   * @retval None
1035:/home/rdu/Workspace/project_templates/mcu/stm32_ws/src/libraries/STM32F4xx_StdPeriph_Driver/src/stm32f4xx_rtc.c ****   */
1036:/home/rdu/Workspace/project_templates/mcu/stm32_ws/src/libraries/STM32F4xx_StdPeriph_Driver/src/stm32f4xx_rtc.c **** void RTC_DateStructInit(RTC_DateTypeDef* RTC_DateStruct)
1037:/home/rdu/Workspace/project_templates/mcu/stm32_ws/src/libraries/STM32F4xx_StdPeriph_Driver/src/stm32f4xx_rtc.c **** {
 1362              		.loc 1 1037 0
 1363              		.cfi_startproc
 1364              		@ args = 0, pretend = 0, frame = 8
 1365              		@ frame_needed = 0, uses_anonymous_args = 0
 1366              		@ link register save eliminated.
 1367 0000 82B0     		sub	sp, sp, #8
 1368              	.LCFI32:
 1369              		.cfi_def_cfa_offset 8
 1370 0002 0190     		str	r0, [sp, #4]
1038:/home/rdu/Workspace/project_templates/mcu/stm32_ws/src/libraries/STM32F4xx_StdPeriph_Driver/src/stm32f4xx_rtc.c ****   /* Monday, January 01 xx00 */
1039:/home/rdu/Workspace/project_templates/mcu/stm32_ws/src/libraries/STM32F4xx_StdPeriph_Driver/src/stm32f4xx_rtc.c ****   RTC_DateStruct->RTC_WeekDay = RTC_Weekday_Monday;
 1371              		.loc 1 1039 0
 1372 0004 019B     		ldr	r3, [sp, #4]
 1373 0006 0122     		movs	r2, #1
 1374 0008 1A70     		strb	r2, [r3]
1040:/home/rdu/Workspace/project_templates/mcu/stm32_ws/src/libraries/STM32F4xx_StdPeriph_Driver/src/stm32f4xx_rtc.c ****   RTC_DateStruct->RTC_Date = 1;
 1375              		.loc 1 1040 0
 1376 000a 019B     		ldr	r3, [sp, #4]
 1377 000c 0122     		movs	r2, #1
 1378 000e 9A70     		strb	r2, [r3, #2]
1041:/home/rdu/Workspace/project_templates/mcu/stm32_ws/src/libraries/STM32F4xx_StdPeriph_Driver/src/stm32f4xx_rtc.c ****   RTC_DateStruct->RTC_Month = RTC_Month_January;
 1379              		.loc 1 1041 0
 1380 0010 019B     		ldr	r3, [sp, #4]
 1381 0012 0122     		movs	r2, #1
 1382 0014 5A70     		strb	r2, [r3, #1]
1042:/home/rdu/Workspace/project_templates/mcu/stm32_ws/src/libraries/STM32F4xx_StdPeriph_Driver/src/stm32f4xx_rtc.c ****   RTC_DateStruct->RTC_Year = 0;
 1383              		.loc 1 1042 0
 1384 0016 019B     		ldr	r3, [sp, #4]
 1385 0018 0022     		movs	r2, #0
 1386 001a DA70     		strb	r2, [r3, #3]
1043:/home/rdu/Workspace/project_templates/mcu/stm32_ws/src/libraries/STM32F4xx_StdPeriph_Driver/src/stm32f4xx_rtc.c **** }
 1387              		.loc 1 1043 0
 1388 001c 00BF     		nop
 1389 001e 02B0     		add	sp, sp, #8
 1390              	.LCFI33:
 1391              		.cfi_def_cfa_offset 0
 1392              		@ sp needed
 1393 0020 7047     		bx	lr
 1394              		.cfi_endproc
 1395              	.LFE137:
 1397              		.section	.text.RTC_GetDate,"ax",%progbits
 1398              		.align	1
 1399              		.global	RTC_GetDate
 1400              		.syntax unified
 1401              		.thumb
 1402              		.thumb_func
 1403              		.fpu fpv4-sp-d16
 1405              	RTC_GetDate:
 1406              	.LFB138:
1044:/home/rdu/Workspace/project_templates/mcu/stm32_ws/src/libraries/STM32F4xx_StdPeriph_Driver/src/stm32f4xx_rtc.c **** 
1045:/home/rdu/Workspace/project_templates/mcu/stm32_ws/src/libraries/STM32F4xx_StdPeriph_Driver/src/stm32f4xx_rtc.c **** /**
1046:/home/rdu/Workspace/project_templates/mcu/stm32_ws/src/libraries/STM32F4xx_StdPeriph_Driver/src/stm32f4xx_rtc.c ****   * @brief  Get the RTC current date. 
1047:/home/rdu/Workspace/project_templates/mcu/stm32_ws/src/libraries/STM32F4xx_StdPeriph_Driver/src/stm32f4xx_rtc.c ****   * @param  RTC_Format: specifies the format of the returned parameters.
1048:/home/rdu/Workspace/project_templates/mcu/stm32_ws/src/libraries/STM32F4xx_StdPeriph_Driver/src/stm32f4xx_rtc.c ****   *          This parameter can be one of the following values:
1049:/home/rdu/Workspace/project_templates/mcu/stm32_ws/src/libraries/STM32F4xx_StdPeriph_Driver/src/stm32f4xx_rtc.c ****   *            @arg RTC_Format_BIN: Binary data format 
1050:/home/rdu/Workspace/project_templates/mcu/stm32_ws/src/libraries/STM32F4xx_StdPeriph_Driver/src/stm32f4xx_rtc.c ****   *            @arg RTC_Format_BCD: BCD data format
1051:/home/rdu/Workspace/project_templates/mcu/stm32_ws/src/libraries/STM32F4xx_StdPeriph_Driver/src/stm32f4xx_rtc.c ****   * @param RTC_DateStruct: pointer to a RTC_DateTypeDef structure that will 
1052:/home/rdu/Workspace/project_templates/mcu/stm32_ws/src/libraries/STM32F4xx_StdPeriph_Driver/src/stm32f4xx_rtc.c ****   *                        contain the returned current date configuration.     
1053:/home/rdu/Workspace/project_templates/mcu/stm32_ws/src/libraries/STM32F4xx_StdPeriph_Driver/src/stm32f4xx_rtc.c ****   * @retval None
1054:/home/rdu/Workspace/project_templates/mcu/stm32_ws/src/libraries/STM32F4xx_StdPeriph_Driver/src/stm32f4xx_rtc.c ****   */
1055:/home/rdu/Workspace/project_templates/mcu/stm32_ws/src/libraries/STM32F4xx_StdPeriph_Driver/src/stm32f4xx_rtc.c **** void RTC_GetDate(uint32_t RTC_Format, RTC_DateTypeDef* RTC_DateStruct)
1056:/home/rdu/Workspace/project_templates/mcu/stm32_ws/src/libraries/STM32F4xx_StdPeriph_Driver/src/stm32f4xx_rtc.c **** {
 1407              		.loc 1 1056 0
 1408              		.cfi_startproc
 1409              		@ args = 0, pretend = 0, frame = 16
 1410              		@ frame_needed = 0, uses_anonymous_args = 0
 1411 0000 00B5     		push	{lr}
 1412              	.LCFI34:
 1413              		.cfi_def_cfa_offset 4
 1414              		.cfi_offset 14, -4
 1415 0002 85B0     		sub	sp, sp, #20
 1416              	.LCFI35:
 1417              		.cfi_def_cfa_offset 24
 1418 0004 0190     		str	r0, [sp, #4]
 1419 0006 0091     		str	r1, [sp]
1057:/home/rdu/Workspace/project_templates/mcu/stm32_ws/src/libraries/STM32F4xx_StdPeriph_Driver/src/stm32f4xx_rtc.c ****   uint32_t tmpreg = 0;
 1420              		.loc 1 1057 0
 1421 0008 0023     		movs	r3, #0
 1422 000a 0393     		str	r3, [sp, #12]
1058:/home/rdu/Workspace/project_templates/mcu/stm32_ws/src/libraries/STM32F4xx_StdPeriph_Driver/src/stm32f4xx_rtc.c **** 
1059:/home/rdu/Workspace/project_templates/mcu/stm32_ws/src/libraries/STM32F4xx_StdPeriph_Driver/src/stm32f4xx_rtc.c ****   /* Check the parameters */
1060:/home/rdu/Workspace/project_templates/mcu/stm32_ws/src/libraries/STM32F4xx_StdPeriph_Driver/src/stm32f4xx_rtc.c ****   assert_param(IS_RTC_FORMAT(RTC_Format));
1061:/home/rdu/Workspace/project_templates/mcu/stm32_ws/src/libraries/STM32F4xx_StdPeriph_Driver/src/stm32f4xx_rtc.c ****   
1062:/home/rdu/Workspace/project_templates/mcu/stm32_ws/src/libraries/STM32F4xx_StdPeriph_Driver/src/stm32f4xx_rtc.c ****   /* Get the RTC_TR register */
1063:/home/rdu/Workspace/project_templates/mcu/stm32_ws/src/libraries/STM32F4xx_StdPeriph_Driver/src/stm32f4xx_rtc.c ****   tmpreg = (uint32_t)(RTC->DR & RTC_DR_RESERVED_MASK); 
 1423              		.loc 1 1063 0
 1424 000c 224B     		ldr	r3, .L100
 1425 000e 5B68     		ldr	r3, [r3, #4]
 1426 0010 23F07F43 		bic	r3, r3, #-16777216
 1427 0014 23F0C003 		bic	r3, r3, #192
 1428 0018 0393     		str	r3, [sp, #12]
1064:/home/rdu/Workspace/project_templates/mcu/stm32_ws/src/libraries/STM32F4xx_StdPeriph_Driver/src/stm32f4xx_rtc.c **** 
1065:/home/rdu/Workspace/project_templates/mcu/stm32_ws/src/libraries/STM32F4xx_StdPeriph_Driver/src/stm32f4xx_rtc.c ****   /* Fill the structure fields with the read parameters */
1066:/home/rdu/Workspace/project_templates/mcu/stm32_ws/src/libraries/STM32F4xx_StdPeriph_Driver/src/stm32f4xx_rtc.c ****   RTC_DateStruct->RTC_Year = (uint8_t)((tmpreg & (RTC_DR_YT | RTC_DR_YU)) >> 16);
 1429              		.loc 1 1066 0
 1430 001a 039B     		ldr	r3, [sp, #12]
 1431 001c 1B0C     		lsrs	r3, r3, #16
 1432 001e DAB2     		uxtb	r2, r3
 1433 0020 009B     		ldr	r3, [sp]
 1434 0022 DA70     		strb	r2, [r3, #3]
1067:/home/rdu/Workspace/project_templates/mcu/stm32_ws/src/libraries/STM32F4xx_StdPeriph_Driver/src/stm32f4xx_rtc.c ****   RTC_DateStruct->RTC_Month = (uint8_t)((tmpreg & (RTC_DR_MT | RTC_DR_MU)) >> 8);
 1435              		.loc 1 1067 0
 1436 0024 039B     		ldr	r3, [sp, #12]
 1437 0026 1B0A     		lsrs	r3, r3, #8
 1438 0028 DBB2     		uxtb	r3, r3
 1439 002a 03F01F03 		and	r3, r3, #31
 1440 002e DAB2     		uxtb	r2, r3
 1441 0030 009B     		ldr	r3, [sp]
 1442 0032 5A70     		strb	r2, [r3, #1]
1068:/home/rdu/Workspace/project_templates/mcu/stm32_ws/src/libraries/STM32F4xx_StdPeriph_Driver/src/stm32f4xx_rtc.c ****   RTC_DateStruct->RTC_Date = (uint8_t)(tmpreg & (RTC_DR_DT | RTC_DR_DU));
 1443              		.loc 1 1068 0
 1444 0034 039B     		ldr	r3, [sp, #12]
 1445 0036 DBB2     		uxtb	r3, r3
 1446 0038 03F03F03 		and	r3, r3, #63
 1447 003c DAB2     		uxtb	r2, r3
 1448 003e 009B     		ldr	r3, [sp]
 1449 0040 9A70     		strb	r2, [r3, #2]
1069:/home/rdu/Workspace/project_templates/mcu/stm32_ws/src/libraries/STM32F4xx_StdPeriph_Driver/src/stm32f4xx_rtc.c ****   RTC_DateStruct->RTC_WeekDay = (uint8_t)((tmpreg & (RTC_DR_WDU)) >> 13);
 1450              		.loc 1 1069 0
 1451 0042 039B     		ldr	r3, [sp, #12]
 1452 0044 5B0B     		lsrs	r3, r3, #13
 1453 0046 DBB2     		uxtb	r3, r3
 1454 0048 03F00703 		and	r3, r3, #7
 1455 004c DAB2     		uxtb	r2, r3
 1456 004e 009B     		ldr	r3, [sp]
 1457 0050 1A70     		strb	r2, [r3]
1070:/home/rdu/Workspace/project_templates/mcu/stm32_ws/src/libraries/STM32F4xx_StdPeriph_Driver/src/stm32f4xx_rtc.c **** 
1071:/home/rdu/Workspace/project_templates/mcu/stm32_ws/src/libraries/STM32F4xx_StdPeriph_Driver/src/stm32f4xx_rtc.c ****   /* Check the input parameters format */
1072:/home/rdu/Workspace/project_templates/mcu/stm32_ws/src/libraries/STM32F4xx_StdPeriph_Driver/src/stm32f4xx_rtc.c ****   if (RTC_Format == RTC_Format_BIN)
 1458              		.loc 1 1072 0
 1459 0052 019B     		ldr	r3, [sp, #4]
 1460 0054 002B     		cmp	r3, #0
 1461 0056 1AD1     		bne	.L99
1073:/home/rdu/Workspace/project_templates/mcu/stm32_ws/src/libraries/STM32F4xx_StdPeriph_Driver/src/stm32f4xx_rtc.c ****   {
1074:/home/rdu/Workspace/project_templates/mcu/stm32_ws/src/libraries/STM32F4xx_StdPeriph_Driver/src/stm32f4xx_rtc.c ****     /* Convert the structure parameters to Binary format */
1075:/home/rdu/Workspace/project_templates/mcu/stm32_ws/src/libraries/STM32F4xx_StdPeriph_Driver/src/stm32f4xx_rtc.c ****     RTC_DateStruct->RTC_Year = (uint8_t)RTC_Bcd2ToByte(RTC_DateStruct->RTC_Year);
 1462              		.loc 1 1075 0
 1463 0058 009B     		ldr	r3, [sp]
 1464 005a DB78     		ldrb	r3, [r3, #3]	@ zero_extendqisi2
 1465 005c 1846     		mov	r0, r3
 1466 005e FFF7FEFF 		bl	RTC_Bcd2ToByte
 1467 0062 0346     		mov	r3, r0
 1468 0064 1A46     		mov	r2, r3
 1469 0066 009B     		ldr	r3, [sp]
 1470 0068 DA70     		strb	r2, [r3, #3]
1076:/home/rdu/Workspace/project_templates/mcu/stm32_ws/src/libraries/STM32F4xx_StdPeriph_Driver/src/stm32f4xx_rtc.c ****     RTC_DateStruct->RTC_Month = (uint8_t)RTC_Bcd2ToByte(RTC_DateStruct->RTC_Month);
 1471              		.loc 1 1076 0
 1472 006a 009B     		ldr	r3, [sp]
 1473 006c 5B78     		ldrb	r3, [r3, #1]	@ zero_extendqisi2
 1474 006e 1846     		mov	r0, r3
 1475 0070 FFF7FEFF 		bl	RTC_Bcd2ToByte
 1476 0074 0346     		mov	r3, r0
 1477 0076 1A46     		mov	r2, r3
 1478 0078 009B     		ldr	r3, [sp]
 1479 007a 5A70     		strb	r2, [r3, #1]
1077:/home/rdu/Workspace/project_templates/mcu/stm32_ws/src/libraries/STM32F4xx_StdPeriph_Driver/src/stm32f4xx_rtc.c ****     RTC_DateStruct->RTC_Date = (uint8_t)RTC_Bcd2ToByte(RTC_DateStruct->RTC_Date);
 1480              		.loc 1 1077 0
 1481 007c 009B     		ldr	r3, [sp]
 1482 007e 9B78     		ldrb	r3, [r3, #2]	@ zero_extendqisi2
 1483 0080 1846     		mov	r0, r3
 1484 0082 FFF7FEFF 		bl	RTC_Bcd2ToByte
 1485 0086 0346     		mov	r3, r0
 1486 0088 1A46     		mov	r2, r3
 1487 008a 009B     		ldr	r3, [sp]
 1488 008c 9A70     		strb	r2, [r3, #2]
 1489              	.L99:
1078:/home/rdu/Workspace/project_templates/mcu/stm32_ws/src/libraries/STM32F4xx_StdPeriph_Driver/src/stm32f4xx_rtc.c ****   }
1079:/home/rdu/Workspace/project_templates/mcu/stm32_ws/src/libraries/STM32F4xx_StdPeriph_Driver/src/stm32f4xx_rtc.c **** }
 1490              		.loc 1 1079 0
 1491 008e 00BF     		nop
 1492 0090 05B0     		add	sp, sp, #20
 1493              	.LCFI36:
 1494              		.cfi_def_cfa_offset 4
 1495              		@ sp needed
 1496 0092 5DF804FB 		ldr	pc, [sp], #4
 1497              	.L101:
 1498 0096 00BF     		.align	2
 1499              	.L100:
 1500 0098 00280040 		.word	1073752064
 1501              		.cfi_endproc
 1502              	.LFE138:
 1504              		.section	.text.RTC_SetAlarm,"ax",%progbits
 1505              		.align	1
 1506              		.global	RTC_SetAlarm
 1507              		.syntax unified
 1508              		.thumb
 1509              		.thumb_func
 1510              		.fpu fpv4-sp-d16
 1512              	RTC_SetAlarm:
 1513              	.LFB139:
1080:/home/rdu/Workspace/project_templates/mcu/stm32_ws/src/libraries/STM32F4xx_StdPeriph_Driver/src/stm32f4xx_rtc.c **** 
1081:/home/rdu/Workspace/project_templates/mcu/stm32_ws/src/libraries/STM32F4xx_StdPeriph_Driver/src/stm32f4xx_rtc.c **** /**
1082:/home/rdu/Workspace/project_templates/mcu/stm32_ws/src/libraries/STM32F4xx_StdPeriph_Driver/src/stm32f4xx_rtc.c ****   * @}
1083:/home/rdu/Workspace/project_templates/mcu/stm32_ws/src/libraries/STM32F4xx_StdPeriph_Driver/src/stm32f4xx_rtc.c ****   */
1084:/home/rdu/Workspace/project_templates/mcu/stm32_ws/src/libraries/STM32F4xx_StdPeriph_Driver/src/stm32f4xx_rtc.c **** 
1085:/home/rdu/Workspace/project_templates/mcu/stm32_ws/src/libraries/STM32F4xx_StdPeriph_Driver/src/stm32f4xx_rtc.c **** /** @defgroup RTC_Group3 Alarms configuration functions
1086:/home/rdu/Workspace/project_templates/mcu/stm32_ws/src/libraries/STM32F4xx_StdPeriph_Driver/src/stm32f4xx_rtc.c ****  *  @brief   Alarms (Alarm A and Alarm B) configuration functions 
1087:/home/rdu/Workspace/project_templates/mcu/stm32_ws/src/libraries/STM32F4xx_StdPeriph_Driver/src/stm32f4xx_rtc.c ****  *
1088:/home/rdu/Workspace/project_templates/mcu/stm32_ws/src/libraries/STM32F4xx_StdPeriph_Driver/src/stm32f4xx_rtc.c **** @verbatim   
1089:/home/rdu/Workspace/project_templates/mcu/stm32_ws/src/libraries/STM32F4xx_StdPeriph_Driver/src/stm32f4xx_rtc.c ****  ===============================================================================
1090:/home/rdu/Workspace/project_templates/mcu/stm32_ws/src/libraries/STM32F4xx_StdPeriph_Driver/src/stm32f4xx_rtc.c ****          ##### Alarms A and B configuration functions #####
1091:/home/rdu/Workspace/project_templates/mcu/stm32_ws/src/libraries/STM32F4xx_StdPeriph_Driver/src/stm32f4xx_rtc.c ****  ===============================================================================  
1092:/home/rdu/Workspace/project_templates/mcu/stm32_ws/src/libraries/STM32F4xx_StdPeriph_Driver/src/stm32f4xx_rtc.c ****  
1093:/home/rdu/Workspace/project_templates/mcu/stm32_ws/src/libraries/STM32F4xx_StdPeriph_Driver/src/stm32f4xx_rtc.c ****  [..] This section provide functions allowing to program and read the RTC Alarms.
1094:/home/rdu/Workspace/project_templates/mcu/stm32_ws/src/libraries/STM32F4xx_StdPeriph_Driver/src/stm32f4xx_rtc.c **** 
1095:/home/rdu/Workspace/project_templates/mcu/stm32_ws/src/libraries/STM32F4xx_StdPeriph_Driver/src/stm32f4xx_rtc.c **** @endverbatim
1096:/home/rdu/Workspace/project_templates/mcu/stm32_ws/src/libraries/STM32F4xx_StdPeriph_Driver/src/stm32f4xx_rtc.c ****   * @{
1097:/home/rdu/Workspace/project_templates/mcu/stm32_ws/src/libraries/STM32F4xx_StdPeriph_Driver/src/stm32f4xx_rtc.c ****   */
1098:/home/rdu/Workspace/project_templates/mcu/stm32_ws/src/libraries/STM32F4xx_StdPeriph_Driver/src/stm32f4xx_rtc.c **** 
1099:/home/rdu/Workspace/project_templates/mcu/stm32_ws/src/libraries/STM32F4xx_StdPeriph_Driver/src/stm32f4xx_rtc.c **** /**
1100:/home/rdu/Workspace/project_templates/mcu/stm32_ws/src/libraries/STM32F4xx_StdPeriph_Driver/src/stm32f4xx_rtc.c ****   * @brief  Set the specified RTC Alarm.
1101:/home/rdu/Workspace/project_templates/mcu/stm32_ws/src/libraries/STM32F4xx_StdPeriph_Driver/src/stm32f4xx_rtc.c ****   * @note   The Alarm register can only be written when the corresponding Alarm
1102:/home/rdu/Workspace/project_templates/mcu/stm32_ws/src/libraries/STM32F4xx_StdPeriph_Driver/src/stm32f4xx_rtc.c ****   *         is disabled (Use the RTC_AlarmCmd(DISABLE)).    
1103:/home/rdu/Workspace/project_templates/mcu/stm32_ws/src/libraries/STM32F4xx_StdPeriph_Driver/src/stm32f4xx_rtc.c ****   * @param  RTC_Format: specifies the format of the returned parameters.
1104:/home/rdu/Workspace/project_templates/mcu/stm32_ws/src/libraries/STM32F4xx_StdPeriph_Driver/src/stm32f4xx_rtc.c ****   *          This parameter can be one of the following values:
1105:/home/rdu/Workspace/project_templates/mcu/stm32_ws/src/libraries/STM32F4xx_StdPeriph_Driver/src/stm32f4xx_rtc.c ****   *            @arg RTC_Format_BIN: Binary data format 
1106:/home/rdu/Workspace/project_templates/mcu/stm32_ws/src/libraries/STM32F4xx_StdPeriph_Driver/src/stm32f4xx_rtc.c ****   *            @arg RTC_Format_BCD: BCD data format
1107:/home/rdu/Workspace/project_templates/mcu/stm32_ws/src/libraries/STM32F4xx_StdPeriph_Driver/src/stm32f4xx_rtc.c ****   * @param  RTC_Alarm: specifies the alarm to be configured.
1108:/home/rdu/Workspace/project_templates/mcu/stm32_ws/src/libraries/STM32F4xx_StdPeriph_Driver/src/stm32f4xx_rtc.c ****   *          This parameter can be one of the following values:
1109:/home/rdu/Workspace/project_templates/mcu/stm32_ws/src/libraries/STM32F4xx_StdPeriph_Driver/src/stm32f4xx_rtc.c ****   *            @arg RTC_Alarm_A: to select Alarm A
1110:/home/rdu/Workspace/project_templates/mcu/stm32_ws/src/libraries/STM32F4xx_StdPeriph_Driver/src/stm32f4xx_rtc.c ****   *            @arg RTC_Alarm_B: to select Alarm B  
1111:/home/rdu/Workspace/project_templates/mcu/stm32_ws/src/libraries/STM32F4xx_StdPeriph_Driver/src/stm32f4xx_rtc.c ****   * @param  RTC_AlarmStruct: pointer to a RTC_AlarmTypeDef structure that 
1112:/home/rdu/Workspace/project_templates/mcu/stm32_ws/src/libraries/STM32F4xx_StdPeriph_Driver/src/stm32f4xx_rtc.c ****   *                          contains the alarm configuration parameters.     
1113:/home/rdu/Workspace/project_templates/mcu/stm32_ws/src/libraries/STM32F4xx_StdPeriph_Driver/src/stm32f4xx_rtc.c ****   * @retval None
1114:/home/rdu/Workspace/project_templates/mcu/stm32_ws/src/libraries/STM32F4xx_StdPeriph_Driver/src/stm32f4xx_rtc.c ****   */
1115:/home/rdu/Workspace/project_templates/mcu/stm32_ws/src/libraries/STM32F4xx_StdPeriph_Driver/src/stm32f4xx_rtc.c **** void RTC_SetAlarm(uint32_t RTC_Format, uint32_t RTC_Alarm, RTC_AlarmTypeDef* RTC_AlarmStruct)
1116:/home/rdu/Workspace/project_templates/mcu/stm32_ws/src/libraries/STM32F4xx_StdPeriph_Driver/src/stm32f4xx_rtc.c **** {
 1514              		.loc 1 1116 0
 1515              		.cfi_startproc
 1516              		@ args = 0, pretend = 0, frame = 24
 1517              		@ frame_needed = 0, uses_anonymous_args = 0
 1518 0000 10B5     		push	{r4, lr}
 1519              	.LCFI37:
 1520              		.cfi_def_cfa_offset 8
 1521              		.cfi_offset 4, -8
 1522              		.cfi_offset 14, -4
 1523 0002 86B0     		sub	sp, sp, #24
 1524              	.LCFI38:
 1525              		.cfi_def_cfa_offset 32
 1526 0004 0390     		str	r0, [sp, #12]
 1527 0006 0291     		str	r1, [sp, #8]
 1528 0008 0192     		str	r2, [sp, #4]
1117:/home/rdu/Workspace/project_templates/mcu/stm32_ws/src/libraries/STM32F4xx_StdPeriph_Driver/src/stm32f4xx_rtc.c ****   uint32_t tmpreg = 0;
 1529              		.loc 1 1117 0
 1530 000a 0023     		movs	r3, #0
 1531 000c 0593     		str	r3, [sp, #20]
1118:/home/rdu/Workspace/project_templates/mcu/stm32_ws/src/libraries/STM32F4xx_StdPeriph_Driver/src/stm32f4xx_rtc.c ****   
1119:/home/rdu/Workspace/project_templates/mcu/stm32_ws/src/libraries/STM32F4xx_StdPeriph_Driver/src/stm32f4xx_rtc.c ****   /* Check the parameters */
1120:/home/rdu/Workspace/project_templates/mcu/stm32_ws/src/libraries/STM32F4xx_StdPeriph_Driver/src/stm32f4xx_rtc.c ****   assert_param(IS_RTC_FORMAT(RTC_Format));
1121:/home/rdu/Workspace/project_templates/mcu/stm32_ws/src/libraries/STM32F4xx_StdPeriph_Driver/src/stm32f4xx_rtc.c ****   assert_param(IS_RTC_ALARM(RTC_Alarm));
1122:/home/rdu/Workspace/project_templates/mcu/stm32_ws/src/libraries/STM32F4xx_StdPeriph_Driver/src/stm32f4xx_rtc.c ****   assert_param(IS_ALARM_MASK(RTC_AlarmStruct->RTC_AlarmMask));
1123:/home/rdu/Workspace/project_templates/mcu/stm32_ws/src/libraries/STM32F4xx_StdPeriph_Driver/src/stm32f4xx_rtc.c ****   assert_param(IS_RTC_ALARM_DATE_WEEKDAY_SEL(RTC_AlarmStruct->RTC_AlarmDateWeekDaySel));
1124:/home/rdu/Workspace/project_templates/mcu/stm32_ws/src/libraries/STM32F4xx_StdPeriph_Driver/src/stm32f4xx_rtc.c **** 
1125:/home/rdu/Workspace/project_templates/mcu/stm32_ws/src/libraries/STM32F4xx_StdPeriph_Driver/src/stm32f4xx_rtc.c ****   if (RTC_Format == RTC_Format_BIN)
 1532              		.loc 1 1125 0
 1533 000e 039B     		ldr	r3, [sp, #12]
 1534 0010 002B     		cmp	r3, #0
 1535 0012 09D1     		bne	.L103
1126:/home/rdu/Workspace/project_templates/mcu/stm32_ws/src/libraries/STM32F4xx_StdPeriph_Driver/src/stm32f4xx_rtc.c ****   {
1127:/home/rdu/Workspace/project_templates/mcu/stm32_ws/src/libraries/STM32F4xx_StdPeriph_Driver/src/stm32f4xx_rtc.c ****     if ((RTC->CR & RTC_CR_FMT) != (uint32_t)RESET)
 1536              		.loc 1 1127 0
 1537 0014 464B     		ldr	r3, .L113
 1538 0016 9B68     		ldr	r3, [r3, #8]
 1539 0018 03F04003 		and	r3, r3, #64
 1540 001c 002B     		cmp	r3, #0
 1541 001e 27D1     		bne	.L105
1128:/home/rdu/Workspace/project_templates/mcu/stm32_ws/src/libraries/STM32F4xx_StdPeriph_Driver/src/stm32f4xx_rtc.c ****     {
1129:/home/rdu/Workspace/project_templates/mcu/stm32_ws/src/libraries/STM32F4xx_StdPeriph_Driver/src/stm32f4xx_rtc.c ****       assert_param(IS_RTC_HOUR12(RTC_AlarmStruct->RTC_AlarmTime.RTC_Hours));
1130:/home/rdu/Workspace/project_templates/mcu/stm32_ws/src/libraries/STM32F4xx_StdPeriph_Driver/src/stm32f4xx_rtc.c ****       assert_param(IS_RTC_H12(RTC_AlarmStruct->RTC_AlarmTime.RTC_H12));
1131:/home/rdu/Workspace/project_templates/mcu/stm32_ws/src/libraries/STM32F4xx_StdPeriph_Driver/src/stm32f4xx_rtc.c ****     } 
1132:/home/rdu/Workspace/project_templates/mcu/stm32_ws/src/libraries/STM32F4xx_StdPeriph_Driver/src/stm32f4xx_rtc.c ****     else
1133:/home/rdu/Workspace/project_templates/mcu/stm32_ws/src/libraries/STM32F4xx_StdPeriph_Driver/src/stm32f4xx_rtc.c ****     {
1134:/home/rdu/Workspace/project_templates/mcu/stm32_ws/src/libraries/STM32F4xx_StdPeriph_Driver/src/stm32f4xx_rtc.c ****       RTC_AlarmStruct->RTC_AlarmTime.RTC_H12 = 0x00;
 1542              		.loc 1 1134 0
 1543 0020 019B     		ldr	r3, [sp, #4]
 1544 0022 0022     		movs	r2, #0
 1545 0024 DA70     		strb	r2, [r3, #3]
 1546 0026 23E0     		b	.L105
 1547              	.L103:
1135:/home/rdu/Workspace/project_templates/mcu/stm32_ws/src/libraries/STM32F4xx_StdPeriph_Driver/src/stm32f4xx_rtc.c ****       assert_param(IS_RTC_HOUR24(RTC_AlarmStruct->RTC_AlarmTime.RTC_Hours));
1136:/home/rdu/Workspace/project_templates/mcu/stm32_ws/src/libraries/STM32F4xx_StdPeriph_Driver/src/stm32f4xx_rtc.c ****     }
1137:/home/rdu/Workspace/project_templates/mcu/stm32_ws/src/libraries/STM32F4xx_StdPeriph_Driver/src/stm32f4xx_rtc.c ****     assert_param(IS_RTC_MINUTES(RTC_AlarmStruct->RTC_AlarmTime.RTC_Minutes));
1138:/home/rdu/Workspace/project_templates/mcu/stm32_ws/src/libraries/STM32F4xx_StdPeriph_Driver/src/stm32f4xx_rtc.c ****     assert_param(IS_RTC_SECONDS(RTC_AlarmStruct->RTC_AlarmTime.RTC_Seconds));
1139:/home/rdu/Workspace/project_templates/mcu/stm32_ws/src/libraries/STM32F4xx_StdPeriph_Driver/src/stm32f4xx_rtc.c ****     
1140:/home/rdu/Workspace/project_templates/mcu/stm32_ws/src/libraries/STM32F4xx_StdPeriph_Driver/src/stm32f4xx_rtc.c ****     if(RTC_AlarmStruct->RTC_AlarmDateWeekDaySel == RTC_AlarmDateWeekDaySel_Date)
1141:/home/rdu/Workspace/project_templates/mcu/stm32_ws/src/libraries/STM32F4xx_StdPeriph_Driver/src/stm32f4xx_rtc.c ****     {
1142:/home/rdu/Workspace/project_templates/mcu/stm32_ws/src/libraries/STM32F4xx_StdPeriph_Driver/src/stm32f4xx_rtc.c ****       assert_param(IS_RTC_ALARM_DATE_WEEKDAY_DATE(RTC_AlarmStruct->RTC_AlarmDateWeekDay));
1143:/home/rdu/Workspace/project_templates/mcu/stm32_ws/src/libraries/STM32F4xx_StdPeriph_Driver/src/stm32f4xx_rtc.c ****     }
1144:/home/rdu/Workspace/project_templates/mcu/stm32_ws/src/libraries/STM32F4xx_StdPeriph_Driver/src/stm32f4xx_rtc.c ****     else
1145:/home/rdu/Workspace/project_templates/mcu/stm32_ws/src/libraries/STM32F4xx_StdPeriph_Driver/src/stm32f4xx_rtc.c ****     {
1146:/home/rdu/Workspace/project_templates/mcu/stm32_ws/src/libraries/STM32F4xx_StdPeriph_Driver/src/stm32f4xx_rtc.c ****       assert_param(IS_RTC_ALARM_DATE_WEEKDAY_WEEKDAY(RTC_AlarmStruct->RTC_AlarmDateWeekDay));
1147:/home/rdu/Workspace/project_templates/mcu/stm32_ws/src/libraries/STM32F4xx_StdPeriph_Driver/src/stm32f4xx_rtc.c ****     }
1148:/home/rdu/Workspace/project_templates/mcu/stm32_ws/src/libraries/STM32F4xx_StdPeriph_Driver/src/stm32f4xx_rtc.c ****   }
1149:/home/rdu/Workspace/project_templates/mcu/stm32_ws/src/libraries/STM32F4xx_StdPeriph_Driver/src/stm32f4xx_rtc.c ****   else
1150:/home/rdu/Workspace/project_templates/mcu/stm32_ws/src/libraries/STM32F4xx_StdPeriph_Driver/src/stm32f4xx_rtc.c ****   {
1151:/home/rdu/Workspace/project_templates/mcu/stm32_ws/src/libraries/STM32F4xx_StdPeriph_Driver/src/stm32f4xx_rtc.c ****     if ((RTC->CR & RTC_CR_FMT) != (uint32_t)RESET)
 1548              		.loc 1 1151 0
 1549 0028 414B     		ldr	r3, .L113
 1550 002a 9B68     		ldr	r3, [r3, #8]
 1551 002c 03F04003 		and	r3, r3, #64
 1552 0030 002B     		cmp	r3, #0
 1553 0032 07D0     		beq	.L106
1152:/home/rdu/Workspace/project_templates/mcu/stm32_ws/src/libraries/STM32F4xx_StdPeriph_Driver/src/stm32f4xx_rtc.c ****     {
1153:/home/rdu/Workspace/project_templates/mcu/stm32_ws/src/libraries/STM32F4xx_StdPeriph_Driver/src/stm32f4xx_rtc.c ****       tmpreg = RTC_Bcd2ToByte(RTC_AlarmStruct->RTC_AlarmTime.RTC_Hours);
 1554              		.loc 1 1153 0
 1555 0034 019B     		ldr	r3, [sp, #4]
 1556 0036 1B78     		ldrb	r3, [r3]	@ zero_extendqisi2
 1557 0038 1846     		mov	r0, r3
 1558 003a FFF7FEFF 		bl	RTC_Bcd2ToByte
 1559 003e 0346     		mov	r3, r0
 1560 0040 0593     		str	r3, [sp, #20]
 1561 0042 02E0     		b	.L107
 1562              	.L106:
1154:/home/rdu/Workspace/project_templates/mcu/stm32_ws/src/libraries/STM32F4xx_StdPeriph_Driver/src/stm32f4xx_rtc.c ****       assert_param(IS_RTC_HOUR12(tmpreg));
1155:/home/rdu/Workspace/project_templates/mcu/stm32_ws/src/libraries/STM32F4xx_StdPeriph_Driver/src/stm32f4xx_rtc.c ****       assert_param(IS_RTC_H12(RTC_AlarmStruct->RTC_AlarmTime.RTC_H12));
1156:/home/rdu/Workspace/project_templates/mcu/stm32_ws/src/libraries/STM32F4xx_StdPeriph_Driver/src/stm32f4xx_rtc.c ****     } 
1157:/home/rdu/Workspace/project_templates/mcu/stm32_ws/src/libraries/STM32F4xx_StdPeriph_Driver/src/stm32f4xx_rtc.c ****     else
1158:/home/rdu/Workspace/project_templates/mcu/stm32_ws/src/libraries/STM32F4xx_StdPeriph_Driver/src/stm32f4xx_rtc.c ****     {
1159:/home/rdu/Workspace/project_templates/mcu/stm32_ws/src/libraries/STM32F4xx_StdPeriph_Driver/src/stm32f4xx_rtc.c ****       RTC_AlarmStruct->RTC_AlarmTime.RTC_H12 = 0x00;
 1563              		.loc 1 1159 0
 1564 0044 019B     		ldr	r3, [sp, #4]
 1565 0046 0022     		movs	r2, #0
 1566 0048 DA70     		strb	r2, [r3, #3]
 1567              	.L107:
1160:/home/rdu/Workspace/project_templates/mcu/stm32_ws/src/libraries/STM32F4xx_StdPeriph_Driver/src/stm32f4xx_rtc.c ****       assert_param(IS_RTC_HOUR24(RTC_Bcd2ToByte(RTC_AlarmStruct->RTC_AlarmTime.RTC_Hours)));
1161:/home/rdu/Workspace/project_templates/mcu/stm32_ws/src/libraries/STM32F4xx_StdPeriph_Driver/src/stm32f4xx_rtc.c ****     }
1162:/home/rdu/Workspace/project_templates/mcu/stm32_ws/src/libraries/STM32F4xx_StdPeriph_Driver/src/stm32f4xx_rtc.c ****     
1163:/home/rdu/Workspace/project_templates/mcu/stm32_ws/src/libraries/STM32F4xx_StdPeriph_Driver/src/stm32f4xx_rtc.c ****     assert_param(IS_RTC_MINUTES(RTC_Bcd2ToByte(RTC_AlarmStruct->RTC_AlarmTime.RTC_Minutes)));
1164:/home/rdu/Workspace/project_templates/mcu/stm32_ws/src/libraries/STM32F4xx_StdPeriph_Driver/src/stm32f4xx_rtc.c ****     assert_param(IS_RTC_SECONDS(RTC_Bcd2ToByte(RTC_AlarmStruct->RTC_AlarmTime.RTC_Seconds)));
1165:/home/rdu/Workspace/project_templates/mcu/stm32_ws/src/libraries/STM32F4xx_StdPeriph_Driver/src/stm32f4xx_rtc.c ****     
1166:/home/rdu/Workspace/project_templates/mcu/stm32_ws/src/libraries/STM32F4xx_StdPeriph_Driver/src/stm32f4xx_rtc.c ****     if(RTC_AlarmStruct->RTC_AlarmDateWeekDaySel == RTC_AlarmDateWeekDaySel_Date)
 1568              		.loc 1 1166 0
 1569 004a 019B     		ldr	r3, [sp, #4]
 1570 004c 9B68     		ldr	r3, [r3, #8]
 1571 004e 002B     		cmp	r3, #0
 1572 0050 07D1     		bne	.L108
1167:/home/rdu/Workspace/project_templates/mcu/stm32_ws/src/libraries/STM32F4xx_StdPeriph_Driver/src/stm32f4xx_rtc.c ****     {
1168:/home/rdu/Workspace/project_templates/mcu/stm32_ws/src/libraries/STM32F4xx_StdPeriph_Driver/src/stm32f4xx_rtc.c ****       tmpreg = RTC_Bcd2ToByte(RTC_AlarmStruct->RTC_AlarmDateWeekDay);
 1573              		.loc 1 1168 0
 1574 0052 019B     		ldr	r3, [sp, #4]
 1575 0054 1B7B     		ldrb	r3, [r3, #12]	@ zero_extendqisi2
 1576 0056 1846     		mov	r0, r3
 1577 0058 FFF7FEFF 		bl	RTC_Bcd2ToByte
 1578 005c 0346     		mov	r3, r0
 1579 005e 0593     		str	r3, [sp, #20]
 1580 0060 06E0     		b	.L105
 1581              	.L108:
1169:/home/rdu/Workspace/project_templates/mcu/stm32_ws/src/libraries/STM32F4xx_StdPeriph_Driver/src/stm32f4xx_rtc.c ****       assert_param(IS_RTC_ALARM_DATE_WEEKDAY_DATE(tmpreg));    
1170:/home/rdu/Workspace/project_templates/mcu/stm32_ws/src/libraries/STM32F4xx_StdPeriph_Driver/src/stm32f4xx_rtc.c ****     }
1171:/home/rdu/Workspace/project_templates/mcu/stm32_ws/src/libraries/STM32F4xx_StdPeriph_Driver/src/stm32f4xx_rtc.c ****     else
1172:/home/rdu/Workspace/project_templates/mcu/stm32_ws/src/libraries/STM32F4xx_StdPeriph_Driver/src/stm32f4xx_rtc.c ****     {
1173:/home/rdu/Workspace/project_templates/mcu/stm32_ws/src/libraries/STM32F4xx_StdPeriph_Driver/src/stm32f4xx_rtc.c ****       tmpreg = RTC_Bcd2ToByte(RTC_AlarmStruct->RTC_AlarmDateWeekDay);
 1582              		.loc 1 1173 0
 1583 0062 019B     		ldr	r3, [sp, #4]
 1584 0064 1B7B     		ldrb	r3, [r3, #12]	@ zero_extendqisi2
 1585 0066 1846     		mov	r0, r3
 1586 0068 FFF7FEFF 		bl	RTC_Bcd2ToByte
 1587 006c 0346     		mov	r3, r0
 1588 006e 0593     		str	r3, [sp, #20]
 1589              	.L105:
1174:/home/rdu/Workspace/project_templates/mcu/stm32_ws/src/libraries/STM32F4xx_StdPeriph_Driver/src/stm32f4xx_rtc.c ****       assert_param(IS_RTC_ALARM_DATE_WEEKDAY_WEEKDAY(tmpreg));      
1175:/home/rdu/Workspace/project_templates/mcu/stm32_ws/src/libraries/STM32F4xx_StdPeriph_Driver/src/stm32f4xx_rtc.c ****     }    
1176:/home/rdu/Workspace/project_templates/mcu/stm32_ws/src/libraries/STM32F4xx_StdPeriph_Driver/src/stm32f4xx_rtc.c ****   }
1177:/home/rdu/Workspace/project_templates/mcu/stm32_ws/src/libraries/STM32F4xx_StdPeriph_Driver/src/stm32f4xx_rtc.c **** 
1178:/home/rdu/Workspace/project_templates/mcu/stm32_ws/src/libraries/STM32F4xx_StdPeriph_Driver/src/stm32f4xx_rtc.c ****   /* Check the input parameters format */
1179:/home/rdu/Workspace/project_templates/mcu/stm32_ws/src/libraries/STM32F4xx_StdPeriph_Driver/src/stm32f4xx_rtc.c ****   if (RTC_Format != RTC_Format_BIN)
 1590              		.loc 1 1179 0
 1591 0070 039B     		ldr	r3, [sp, #12]
 1592 0072 002B     		cmp	r3, #0
 1593 0074 19D0     		beq	.L109
1180:/home/rdu/Workspace/project_templates/mcu/stm32_ws/src/libraries/STM32F4xx_StdPeriph_Driver/src/stm32f4xx_rtc.c ****   {
1181:/home/rdu/Workspace/project_templates/mcu/stm32_ws/src/libraries/STM32F4xx_StdPeriph_Driver/src/stm32f4xx_rtc.c ****     tmpreg = (((uint32_t)(RTC_AlarmStruct->RTC_AlarmTime.RTC_Hours) << 16) | \
 1594              		.loc 1 1181 0
 1595 0076 019B     		ldr	r3, [sp, #4]
 1596 0078 1B78     		ldrb	r3, [r3]	@ zero_extendqisi2
 1597 007a 1A04     		lsls	r2, r3, #16
1182:/home/rdu/Workspace/project_templates/mcu/stm32_ws/src/libraries/STM32F4xx_StdPeriph_Driver/src/stm32f4xx_rtc.c ****               ((uint32_t)(RTC_AlarmStruct->RTC_AlarmTime.RTC_Minutes) << 8) | \
 1598              		.loc 1 1182 0
 1599 007c 019B     		ldr	r3, [sp, #4]
 1600 007e 5B78     		ldrb	r3, [r3, #1]	@ zero_extendqisi2
 1601 0080 1B02     		lsls	r3, r3, #8
1181:/home/rdu/Workspace/project_templates/mcu/stm32_ws/src/libraries/STM32F4xx_StdPeriph_Driver/src/stm32f4xx_rtc.c ****               ((uint32_t)(RTC_AlarmStruct->RTC_AlarmTime.RTC_Minutes) << 8) | \
 1602              		.loc 1 1181 0
 1603 0082 1343     		orrs	r3, r3, r2
1183:/home/rdu/Workspace/project_templates/mcu/stm32_ws/src/libraries/STM32F4xx_StdPeriph_Driver/src/stm32f4xx_rtc.c ****               ((uint32_t)RTC_AlarmStruct->RTC_AlarmTime.RTC_Seconds) | \
 1604              		.loc 1 1183 0
 1605 0084 019A     		ldr	r2, [sp, #4]
 1606 0086 9278     		ldrb	r2, [r2, #2]	@ zero_extendqisi2
1182:/home/rdu/Workspace/project_templates/mcu/stm32_ws/src/libraries/STM32F4xx_StdPeriph_Driver/src/stm32f4xx_rtc.c ****               ((uint32_t)(RTC_AlarmStruct->RTC_AlarmTime.RTC_Minutes) << 8) | \
 1607              		.loc 1 1182 0
 1608 0088 1A43     		orrs	r2, r2, r3
1184:/home/rdu/Workspace/project_templates/mcu/stm32_ws/src/libraries/STM32F4xx_StdPeriph_Driver/src/stm32f4xx_rtc.c ****               ((uint32_t)(RTC_AlarmStruct->RTC_AlarmTime.RTC_H12) << 16) | \
 1609              		.loc 1 1184 0
 1610 008a 019B     		ldr	r3, [sp, #4]
 1611 008c DB78     		ldrb	r3, [r3, #3]	@ zero_extendqisi2
 1612 008e 1B04     		lsls	r3, r3, #16
1183:/home/rdu/Workspace/project_templates/mcu/stm32_ws/src/libraries/STM32F4xx_StdPeriph_Driver/src/stm32f4xx_rtc.c ****               ((uint32_t)RTC_AlarmStruct->RTC_AlarmTime.RTC_Seconds) | \
 1613              		.loc 1 1183 0
 1614 0090 1A43     		orrs	r2, r2, r3
1185:/home/rdu/Workspace/project_templates/mcu/stm32_ws/src/libraries/STM32F4xx_StdPeriph_Driver/src/stm32f4xx_rtc.c ****               ((uint32_t)(RTC_AlarmStruct->RTC_AlarmDateWeekDay) << 24) | \
 1615              		.loc 1 1185 0
 1616 0092 019B     		ldr	r3, [sp, #4]
 1617 0094 1B7B     		ldrb	r3, [r3, #12]	@ zero_extendqisi2
 1618 0096 1B06     		lsls	r3, r3, #24
1184:/home/rdu/Workspace/project_templates/mcu/stm32_ws/src/libraries/STM32F4xx_StdPeriph_Driver/src/stm32f4xx_rtc.c ****               ((uint32_t)(RTC_AlarmStruct->RTC_AlarmTime.RTC_H12) << 16) | \
 1619              		.loc 1 1184 0
 1620 0098 1A43     		orrs	r2, r2, r3
1186:/home/rdu/Workspace/project_templates/mcu/stm32_ws/src/libraries/STM32F4xx_StdPeriph_Driver/src/stm32f4xx_rtc.c ****               ((uint32_t)RTC_AlarmStruct->RTC_AlarmDateWeekDaySel) | \
 1621              		.loc 1 1186 0
 1622 009a 019B     		ldr	r3, [sp, #4]
 1623 009c 9B68     		ldr	r3, [r3, #8]
1185:/home/rdu/Workspace/project_templates/mcu/stm32_ws/src/libraries/STM32F4xx_StdPeriph_Driver/src/stm32f4xx_rtc.c ****               ((uint32_t)(RTC_AlarmStruct->RTC_AlarmDateWeekDay) << 24) | \
 1624              		.loc 1 1185 0
 1625 009e 1A43     		orrs	r2, r2, r3
1187:/home/rdu/Workspace/project_templates/mcu/stm32_ws/src/libraries/STM32F4xx_StdPeriph_Driver/src/stm32f4xx_rtc.c ****               ((uint32_t)RTC_AlarmStruct->RTC_AlarmMask)); 
 1626              		.loc 1 1187 0
 1627 00a0 019B     		ldr	r3, [sp, #4]
 1628 00a2 5B68     		ldr	r3, [r3, #4]
1181:/home/rdu/Workspace/project_templates/mcu/stm32_ws/src/libraries/STM32F4xx_StdPeriph_Driver/src/stm32f4xx_rtc.c ****               ((uint32_t)(RTC_AlarmStruct->RTC_AlarmTime.RTC_Minutes) << 8) | \
 1629              		.loc 1 1181 0
 1630 00a4 1343     		orrs	r3, r3, r2
 1631 00a6 0593     		str	r3, [sp, #20]
 1632 00a8 2BE0     		b	.L110
 1633              	.L109:
1188:/home/rdu/Workspace/project_templates/mcu/stm32_ws/src/libraries/STM32F4xx_StdPeriph_Driver/src/stm32f4xx_rtc.c ****   }  
1189:/home/rdu/Workspace/project_templates/mcu/stm32_ws/src/libraries/STM32F4xx_StdPeriph_Driver/src/stm32f4xx_rtc.c ****   else
1190:/home/rdu/Workspace/project_templates/mcu/stm32_ws/src/libraries/STM32F4xx_StdPeriph_Driver/src/stm32f4xx_rtc.c ****   {
1191:/home/rdu/Workspace/project_templates/mcu/stm32_ws/src/libraries/STM32F4xx_StdPeriph_Driver/src/stm32f4xx_rtc.c ****     tmpreg = (((uint32_t)RTC_ByteToBcd2(RTC_AlarmStruct->RTC_AlarmTime.RTC_Hours) << 16) | \
 1634              		.loc 1 1191 0
 1635 00aa 019B     		ldr	r3, [sp, #4]
 1636 00ac 1B78     		ldrb	r3, [r3]	@ zero_extendqisi2
 1637 00ae 1846     		mov	r0, r3
 1638 00b0 FFF7FEFF 		bl	RTC_ByteToBcd2
 1639 00b4 0346     		mov	r3, r0
 1640 00b6 1C04     		lsls	r4, r3, #16
1192:/home/rdu/Workspace/project_templates/mcu/stm32_ws/src/libraries/STM32F4xx_StdPeriph_Driver/src/stm32f4xx_rtc.c ****               ((uint32_t)RTC_ByteToBcd2(RTC_AlarmStruct->RTC_AlarmTime.RTC_Minutes) << 8) | \
 1641              		.loc 1 1192 0
 1642 00b8 019B     		ldr	r3, [sp, #4]
 1643 00ba 5B78     		ldrb	r3, [r3, #1]	@ zero_extendqisi2
 1644 00bc 1846     		mov	r0, r3
 1645 00be FFF7FEFF 		bl	RTC_ByteToBcd2
 1646 00c2 0346     		mov	r3, r0
 1647 00c4 1B02     		lsls	r3, r3, #8
1191:/home/rdu/Workspace/project_templates/mcu/stm32_ws/src/libraries/STM32F4xx_StdPeriph_Driver/src/stm32f4xx_rtc.c ****               ((uint32_t)RTC_ByteToBcd2(RTC_AlarmStruct->RTC_AlarmTime.RTC_Minutes) << 8) | \
 1648              		.loc 1 1191 0
 1649 00c6 1C43     		orrs	r4, r4, r3
1193:/home/rdu/Workspace/project_templates/mcu/stm32_ws/src/libraries/STM32F4xx_StdPeriph_Driver/src/stm32f4xx_rtc.c ****               ((uint32_t)RTC_ByteToBcd2(RTC_AlarmStruct->RTC_AlarmTime.RTC_Seconds)) | \
 1650              		.loc 1 1193 0
 1651 00c8 019B     		ldr	r3, [sp, #4]
 1652 00ca 9B78     		ldrb	r3, [r3, #2]	@ zero_extendqisi2
 1653 00cc 1846     		mov	r0, r3
 1654 00ce FFF7FEFF 		bl	RTC_ByteToBcd2
 1655 00d2 0346     		mov	r3, r0
1192:/home/rdu/Workspace/project_templates/mcu/stm32_ws/src/libraries/STM32F4xx_StdPeriph_Driver/src/stm32f4xx_rtc.c ****               ((uint32_t)RTC_ByteToBcd2(RTC_AlarmStruct->RTC_AlarmTime.RTC_Minutes) << 8) | \
 1656              		.loc 1 1192 0
 1657 00d4 44EA0302 		orr	r2, r4, r3
1194:/home/rdu/Workspace/project_templates/mcu/stm32_ws/src/libraries/STM32F4xx_StdPeriph_Driver/src/stm32f4xx_rtc.c ****               ((uint32_t)(RTC_AlarmStruct->RTC_AlarmTime.RTC_H12) << 16) | \
 1658              		.loc 1 1194 0
 1659 00d8 019B     		ldr	r3, [sp, #4]
 1660 00da DB78     		ldrb	r3, [r3, #3]	@ zero_extendqisi2
 1661 00dc 1B04     		lsls	r3, r3, #16
1193:/home/rdu/Workspace/project_templates/mcu/stm32_ws/src/libraries/STM32F4xx_StdPeriph_Driver/src/stm32f4xx_rtc.c ****               ((uint32_t)RTC_ByteToBcd2(RTC_AlarmStruct->RTC_AlarmTime.RTC_Seconds)) | \
 1662              		.loc 1 1193 0
 1663 00de 42EA0304 		orr	r4, r2, r3
1195:/home/rdu/Workspace/project_templates/mcu/stm32_ws/src/libraries/STM32F4xx_StdPeriph_Driver/src/stm32f4xx_rtc.c ****               ((uint32_t)RTC_ByteToBcd2(RTC_AlarmStruct->RTC_AlarmDateWeekDay) << 24) | \
 1664              		.loc 1 1195 0
 1665 00e2 019B     		ldr	r3, [sp, #4]
 1666 00e4 1B7B     		ldrb	r3, [r3, #12]	@ zero_extendqisi2
 1667 00e6 1846     		mov	r0, r3
 1668 00e8 FFF7FEFF 		bl	RTC_ByteToBcd2
 1669 00ec 0346     		mov	r3, r0
 1670 00ee 1B06     		lsls	r3, r3, #24
1194:/home/rdu/Workspace/project_templates/mcu/stm32_ws/src/libraries/STM32F4xx_StdPeriph_Driver/src/stm32f4xx_rtc.c ****               ((uint32_t)(RTC_AlarmStruct->RTC_AlarmTime.RTC_H12) << 16) | \
 1671              		.loc 1 1194 0
 1672 00f0 44EA0302 		orr	r2, r4, r3
1196:/home/rdu/Workspace/project_templates/mcu/stm32_ws/src/libraries/STM32F4xx_StdPeriph_Driver/src/stm32f4xx_rtc.c ****               ((uint32_t)RTC_AlarmStruct->RTC_AlarmDateWeekDaySel) | \
 1673              		.loc 1 1196 0
 1674 00f4 019B     		ldr	r3, [sp, #4]
 1675 00f6 9B68     		ldr	r3, [r3, #8]
1195:/home/rdu/Workspace/project_templates/mcu/stm32_ws/src/libraries/STM32F4xx_StdPeriph_Driver/src/stm32f4xx_rtc.c ****               ((uint32_t)RTC_ByteToBcd2(RTC_AlarmStruct->RTC_AlarmDateWeekDay) << 24) | \
 1676              		.loc 1 1195 0
 1677 00f8 1A43     		orrs	r2, r2, r3
1197:/home/rdu/Workspace/project_templates/mcu/stm32_ws/src/libraries/STM32F4xx_StdPeriph_Driver/src/stm32f4xx_rtc.c ****               ((uint32_t)RTC_AlarmStruct->RTC_AlarmMask)); 
 1678              		.loc 1 1197 0
 1679 00fa 019B     		ldr	r3, [sp, #4]
 1680 00fc 5B68     		ldr	r3, [r3, #4]
1191:/home/rdu/Workspace/project_templates/mcu/stm32_ws/src/libraries/STM32F4xx_StdPeriph_Driver/src/stm32f4xx_rtc.c ****               ((uint32_t)RTC_ByteToBcd2(RTC_AlarmStruct->RTC_AlarmTime.RTC_Minutes) << 8) | \
 1681              		.loc 1 1191 0
 1682 00fe 1343     		orrs	r3, r3, r2
 1683 0100 0593     		str	r3, [sp, #20]
 1684              	.L110:
1198:/home/rdu/Workspace/project_templates/mcu/stm32_ws/src/libraries/STM32F4xx_StdPeriph_Driver/src/stm32f4xx_rtc.c ****   } 
1199:/home/rdu/Workspace/project_templates/mcu/stm32_ws/src/libraries/STM32F4xx_StdPeriph_Driver/src/stm32f4xx_rtc.c **** 
1200:/home/rdu/Workspace/project_templates/mcu/stm32_ws/src/libraries/STM32F4xx_StdPeriph_Driver/src/stm32f4xx_rtc.c ****   /* Disable the write protection for RTC registers */
1201:/home/rdu/Workspace/project_templates/mcu/stm32_ws/src/libraries/STM32F4xx_StdPeriph_Driver/src/stm32f4xx_rtc.c ****   RTC->WPR = 0xCA;
 1685              		.loc 1 1201 0
 1686 0102 0B4B     		ldr	r3, .L113
 1687 0104 CA22     		movs	r2, #202
 1688 0106 5A62     		str	r2, [r3, #36]
1202:/home/rdu/Workspace/project_templates/mcu/stm32_ws/src/libraries/STM32F4xx_StdPeriph_Driver/src/stm32f4xx_rtc.c ****   RTC->WPR = 0x53;
 1689              		.loc 1 1202 0
 1690 0108 094B     		ldr	r3, .L113
 1691 010a 5322     		movs	r2, #83
 1692 010c 5A62     		str	r2, [r3, #36]
1203:/home/rdu/Workspace/project_templates/mcu/stm32_ws/src/libraries/STM32F4xx_StdPeriph_Driver/src/stm32f4xx_rtc.c **** 
1204:/home/rdu/Workspace/project_templates/mcu/stm32_ws/src/libraries/STM32F4xx_StdPeriph_Driver/src/stm32f4xx_rtc.c ****   /* Configure the Alarm register */
1205:/home/rdu/Workspace/project_templates/mcu/stm32_ws/src/libraries/STM32F4xx_StdPeriph_Driver/src/stm32f4xx_rtc.c ****   if (RTC_Alarm == RTC_Alarm_A)
 1693              		.loc 1 1205 0
 1694 010e 029B     		ldr	r3, [sp, #8]
 1695 0110 B3F5807F 		cmp	r3, #256
 1696 0114 03D1     		bne	.L111
1206:/home/rdu/Workspace/project_templates/mcu/stm32_ws/src/libraries/STM32F4xx_StdPeriph_Driver/src/stm32f4xx_rtc.c ****   {
1207:/home/rdu/Workspace/project_templates/mcu/stm32_ws/src/libraries/STM32F4xx_StdPeriph_Driver/src/stm32f4xx_rtc.c ****     RTC->ALRMAR = (uint32_t)tmpreg;
 1697              		.loc 1 1207 0
 1698 0116 064A     		ldr	r2, .L113
 1699 0118 059B     		ldr	r3, [sp, #20]
 1700 011a D361     		str	r3, [r2, #28]
 1701 011c 02E0     		b	.L112
 1702              	.L111:
1208:/home/rdu/Workspace/project_templates/mcu/stm32_ws/src/libraries/STM32F4xx_StdPeriph_Driver/src/stm32f4xx_rtc.c ****   }
1209:/home/rdu/Workspace/project_templates/mcu/stm32_ws/src/libraries/STM32F4xx_StdPeriph_Driver/src/stm32f4xx_rtc.c ****   else
1210:/home/rdu/Workspace/project_templates/mcu/stm32_ws/src/libraries/STM32F4xx_StdPeriph_Driver/src/stm32f4xx_rtc.c ****   {
1211:/home/rdu/Workspace/project_templates/mcu/stm32_ws/src/libraries/STM32F4xx_StdPeriph_Driver/src/stm32f4xx_rtc.c ****     RTC->ALRMBR = (uint32_t)tmpreg;
 1703              		.loc 1 1211 0
 1704 011e 044A     		ldr	r2, .L113
 1705 0120 059B     		ldr	r3, [sp, #20]
 1706 0122 1362     		str	r3, [r2, #32]
 1707              	.L112:
1212:/home/rdu/Workspace/project_templates/mcu/stm32_ws/src/libraries/STM32F4xx_StdPeriph_Driver/src/stm32f4xx_rtc.c ****   }
1213:/home/rdu/Workspace/project_templates/mcu/stm32_ws/src/libraries/STM32F4xx_StdPeriph_Driver/src/stm32f4xx_rtc.c **** 
1214:/home/rdu/Workspace/project_templates/mcu/stm32_ws/src/libraries/STM32F4xx_StdPeriph_Driver/src/stm32f4xx_rtc.c ****   /* Enable the write protection for RTC registers */
1215:/home/rdu/Workspace/project_templates/mcu/stm32_ws/src/libraries/STM32F4xx_StdPeriph_Driver/src/stm32f4xx_rtc.c ****   RTC->WPR = 0xFF;   
 1708              		.loc 1 1215 0
 1709 0124 024B     		ldr	r3, .L113
 1710 0126 FF22     		movs	r2, #255
 1711 0128 5A62     		str	r2, [r3, #36]
1216:/home/rdu/Workspace/project_templates/mcu/stm32_ws/src/libraries/STM32F4xx_StdPeriph_Driver/src/stm32f4xx_rtc.c **** }
 1712              		.loc 1 1216 0
 1713 012a 00BF     		nop
 1714 012c 06B0     		add	sp, sp, #24
 1715              	.LCFI39:
 1716              		.cfi_def_cfa_offset 8
 1717              		@ sp needed
 1718 012e 10BD     		pop	{r4, pc}
 1719              	.L114:
 1720              		.align	2
 1721              	.L113:
 1722 0130 00280040 		.word	1073752064
 1723              		.cfi_endproc
 1724              	.LFE139:
 1726              		.section	.text.RTC_AlarmStructInit,"ax",%progbits
 1727              		.align	1
 1728              		.global	RTC_AlarmStructInit
 1729              		.syntax unified
 1730              		.thumb
 1731              		.thumb_func
 1732              		.fpu fpv4-sp-d16
 1734              	RTC_AlarmStructInit:
 1735              	.LFB140:
1217:/home/rdu/Workspace/project_templates/mcu/stm32_ws/src/libraries/STM32F4xx_StdPeriph_Driver/src/stm32f4xx_rtc.c **** 
1218:/home/rdu/Workspace/project_templates/mcu/stm32_ws/src/libraries/STM32F4xx_StdPeriph_Driver/src/stm32f4xx_rtc.c **** /**
1219:/home/rdu/Workspace/project_templates/mcu/stm32_ws/src/libraries/STM32F4xx_StdPeriph_Driver/src/stm32f4xx_rtc.c ****   * @brief  Fills each RTC_AlarmStruct member with its default value
1220:/home/rdu/Workspace/project_templates/mcu/stm32_ws/src/libraries/STM32F4xx_StdPeriph_Driver/src/stm32f4xx_rtc.c ****   *         (Time = 00h:00mn:00sec / Date = 1st day of the month/Mask =
1221:/home/rdu/Workspace/project_templates/mcu/stm32_ws/src/libraries/STM32F4xx_StdPeriph_Driver/src/stm32f4xx_rtc.c ****   *         all fields are masked).
1222:/home/rdu/Workspace/project_templates/mcu/stm32_ws/src/libraries/STM32F4xx_StdPeriph_Driver/src/stm32f4xx_rtc.c ****   * @param  RTC_AlarmStruct: pointer to a @ref RTC_AlarmTypeDef structure which
1223:/home/rdu/Workspace/project_templates/mcu/stm32_ws/src/libraries/STM32F4xx_StdPeriph_Driver/src/stm32f4xx_rtc.c ****   *         will be initialized.
1224:/home/rdu/Workspace/project_templates/mcu/stm32_ws/src/libraries/STM32F4xx_StdPeriph_Driver/src/stm32f4xx_rtc.c ****   * @retval None
1225:/home/rdu/Workspace/project_templates/mcu/stm32_ws/src/libraries/STM32F4xx_StdPeriph_Driver/src/stm32f4xx_rtc.c ****   */
1226:/home/rdu/Workspace/project_templates/mcu/stm32_ws/src/libraries/STM32F4xx_StdPeriph_Driver/src/stm32f4xx_rtc.c **** void RTC_AlarmStructInit(RTC_AlarmTypeDef* RTC_AlarmStruct)
1227:/home/rdu/Workspace/project_templates/mcu/stm32_ws/src/libraries/STM32F4xx_StdPeriph_Driver/src/stm32f4xx_rtc.c **** {
 1736              		.loc 1 1227 0
 1737              		.cfi_startproc
 1738              		@ args = 0, pretend = 0, frame = 8
 1739              		@ frame_needed = 0, uses_anonymous_args = 0
 1740              		@ link register save eliminated.
 1741 0000 82B0     		sub	sp, sp, #8
 1742              	.LCFI40:
 1743              		.cfi_def_cfa_offset 8
 1744 0002 0190     		str	r0, [sp, #4]
1228:/home/rdu/Workspace/project_templates/mcu/stm32_ws/src/libraries/STM32F4xx_StdPeriph_Driver/src/stm32f4xx_rtc.c ****   /* Alarm Time Settings : Time = 00h:00mn:00sec */
1229:/home/rdu/Workspace/project_templates/mcu/stm32_ws/src/libraries/STM32F4xx_StdPeriph_Driver/src/stm32f4xx_rtc.c ****   RTC_AlarmStruct->RTC_AlarmTime.RTC_H12 = RTC_H12_AM;
 1745              		.loc 1 1229 0
 1746 0004 019B     		ldr	r3, [sp, #4]
 1747 0006 0022     		movs	r2, #0
 1748 0008 DA70     		strb	r2, [r3, #3]
1230:/home/rdu/Workspace/project_templates/mcu/stm32_ws/src/libraries/STM32F4xx_StdPeriph_Driver/src/stm32f4xx_rtc.c ****   RTC_AlarmStruct->RTC_AlarmTime.RTC_Hours = 0;
 1749              		.loc 1 1230 0
 1750 000a 019B     		ldr	r3, [sp, #4]
 1751 000c 0022     		movs	r2, #0
 1752 000e 1A70     		strb	r2, [r3]
1231:/home/rdu/Workspace/project_templates/mcu/stm32_ws/src/libraries/STM32F4xx_StdPeriph_Driver/src/stm32f4xx_rtc.c ****   RTC_AlarmStruct->RTC_AlarmTime.RTC_Minutes = 0;
 1753              		.loc 1 1231 0
 1754 0010 019B     		ldr	r3, [sp, #4]
 1755 0012 0022     		movs	r2, #0
 1756 0014 5A70     		strb	r2, [r3, #1]
1232:/home/rdu/Workspace/project_templates/mcu/stm32_ws/src/libraries/STM32F4xx_StdPeriph_Driver/src/stm32f4xx_rtc.c ****   RTC_AlarmStruct->RTC_AlarmTime.RTC_Seconds = 0;
 1757              		.loc 1 1232 0
 1758 0016 019B     		ldr	r3, [sp, #4]
 1759 0018 0022     		movs	r2, #0
 1760 001a 9A70     		strb	r2, [r3, #2]
1233:/home/rdu/Workspace/project_templates/mcu/stm32_ws/src/libraries/STM32F4xx_StdPeriph_Driver/src/stm32f4xx_rtc.c **** 
1234:/home/rdu/Workspace/project_templates/mcu/stm32_ws/src/libraries/STM32F4xx_StdPeriph_Driver/src/stm32f4xx_rtc.c ****   /* Alarm Date Settings : Date = 1st day of the month */
1235:/home/rdu/Workspace/project_templates/mcu/stm32_ws/src/libraries/STM32F4xx_StdPeriph_Driver/src/stm32f4xx_rtc.c ****   RTC_AlarmStruct->RTC_AlarmDateWeekDaySel = RTC_AlarmDateWeekDaySel_Date;
 1761              		.loc 1 1235 0
 1762 001c 019B     		ldr	r3, [sp, #4]
 1763 001e 0022     		movs	r2, #0
 1764 0020 9A60     		str	r2, [r3, #8]
1236:/home/rdu/Workspace/project_templates/mcu/stm32_ws/src/libraries/STM32F4xx_StdPeriph_Driver/src/stm32f4xx_rtc.c ****   RTC_AlarmStruct->RTC_AlarmDateWeekDay = 1;
 1765              		.loc 1 1236 0
 1766 0022 019B     		ldr	r3, [sp, #4]
 1767 0024 0122     		movs	r2, #1
 1768 0026 1A73     		strb	r2, [r3, #12]
1237:/home/rdu/Workspace/project_templates/mcu/stm32_ws/src/libraries/STM32F4xx_StdPeriph_Driver/src/stm32f4xx_rtc.c **** 
1238:/home/rdu/Workspace/project_templates/mcu/stm32_ws/src/libraries/STM32F4xx_StdPeriph_Driver/src/stm32f4xx_rtc.c ****   /* Alarm Masks Settings : Mask =  all fields are not masked */
1239:/home/rdu/Workspace/project_templates/mcu/stm32_ws/src/libraries/STM32F4xx_StdPeriph_Driver/src/stm32f4xx_rtc.c ****   RTC_AlarmStruct->RTC_AlarmMask = RTC_AlarmMask_None;
 1769              		.loc 1 1239 0
 1770 0028 019B     		ldr	r3, [sp, #4]
 1771 002a 0022     		movs	r2, #0
 1772 002c 5A60     		str	r2, [r3, #4]
1240:/home/rdu/Workspace/project_templates/mcu/stm32_ws/src/libraries/STM32F4xx_StdPeriph_Driver/src/stm32f4xx_rtc.c **** }
 1773              		.loc 1 1240 0
 1774 002e 00BF     		nop
 1775 0030 02B0     		add	sp, sp, #8
 1776              	.LCFI41:
 1777              		.cfi_def_cfa_offset 0
 1778              		@ sp needed
 1779 0032 7047     		bx	lr
 1780              		.cfi_endproc
 1781              	.LFE140:
 1783              		.section	.text.RTC_GetAlarm,"ax",%progbits
 1784              		.align	1
 1785              		.global	RTC_GetAlarm
 1786              		.syntax unified
 1787              		.thumb
 1788              		.thumb_func
 1789              		.fpu fpv4-sp-d16
 1791              	RTC_GetAlarm:
 1792              	.LFB141:
1241:/home/rdu/Workspace/project_templates/mcu/stm32_ws/src/libraries/STM32F4xx_StdPeriph_Driver/src/stm32f4xx_rtc.c **** 
1242:/home/rdu/Workspace/project_templates/mcu/stm32_ws/src/libraries/STM32F4xx_StdPeriph_Driver/src/stm32f4xx_rtc.c **** /**
1243:/home/rdu/Workspace/project_templates/mcu/stm32_ws/src/libraries/STM32F4xx_StdPeriph_Driver/src/stm32f4xx_rtc.c ****   * @brief  Get the RTC Alarm value and masks.
1244:/home/rdu/Workspace/project_templates/mcu/stm32_ws/src/libraries/STM32F4xx_StdPeriph_Driver/src/stm32f4xx_rtc.c ****   * @param  RTC_Format: specifies the format of the output parameters.
1245:/home/rdu/Workspace/project_templates/mcu/stm32_ws/src/libraries/STM32F4xx_StdPeriph_Driver/src/stm32f4xx_rtc.c ****   *          This parameter can be one of the following values:
1246:/home/rdu/Workspace/project_templates/mcu/stm32_ws/src/libraries/STM32F4xx_StdPeriph_Driver/src/stm32f4xx_rtc.c ****   *            @arg RTC_Format_BIN: Binary data format 
1247:/home/rdu/Workspace/project_templates/mcu/stm32_ws/src/libraries/STM32F4xx_StdPeriph_Driver/src/stm32f4xx_rtc.c ****   *            @arg RTC_Format_BCD: BCD data format
1248:/home/rdu/Workspace/project_templates/mcu/stm32_ws/src/libraries/STM32F4xx_StdPeriph_Driver/src/stm32f4xx_rtc.c ****   * @param  RTC_Alarm: specifies the alarm to be read.
1249:/home/rdu/Workspace/project_templates/mcu/stm32_ws/src/libraries/STM32F4xx_StdPeriph_Driver/src/stm32f4xx_rtc.c ****   *          This parameter can be one of the following values:
1250:/home/rdu/Workspace/project_templates/mcu/stm32_ws/src/libraries/STM32F4xx_StdPeriph_Driver/src/stm32f4xx_rtc.c ****   *            @arg RTC_Alarm_A: to select Alarm A
1251:/home/rdu/Workspace/project_templates/mcu/stm32_ws/src/libraries/STM32F4xx_StdPeriph_Driver/src/stm32f4xx_rtc.c ****   *            @arg RTC_Alarm_B: to select Alarm B  
1252:/home/rdu/Workspace/project_templates/mcu/stm32_ws/src/libraries/STM32F4xx_StdPeriph_Driver/src/stm32f4xx_rtc.c ****   * @param  RTC_AlarmStruct: pointer to a RTC_AlarmTypeDef structure that will 
1253:/home/rdu/Workspace/project_templates/mcu/stm32_ws/src/libraries/STM32F4xx_StdPeriph_Driver/src/stm32f4xx_rtc.c ****   *                          contains the output alarm configuration values.     
1254:/home/rdu/Workspace/project_templates/mcu/stm32_ws/src/libraries/STM32F4xx_StdPeriph_Driver/src/stm32f4xx_rtc.c ****   * @retval None
1255:/home/rdu/Workspace/project_templates/mcu/stm32_ws/src/libraries/STM32F4xx_StdPeriph_Driver/src/stm32f4xx_rtc.c ****   */
1256:/home/rdu/Workspace/project_templates/mcu/stm32_ws/src/libraries/STM32F4xx_StdPeriph_Driver/src/stm32f4xx_rtc.c **** void RTC_GetAlarm(uint32_t RTC_Format, uint32_t RTC_Alarm, RTC_AlarmTypeDef* RTC_AlarmStruct)
1257:/home/rdu/Workspace/project_templates/mcu/stm32_ws/src/libraries/STM32F4xx_StdPeriph_Driver/src/stm32f4xx_rtc.c **** {
 1793              		.loc 1 1257 0
 1794              		.cfi_startproc
 1795              		@ args = 0, pretend = 0, frame = 24
 1796              		@ frame_needed = 0, uses_anonymous_args = 0
 1797 0000 00B5     		push	{lr}
 1798              	.LCFI42:
 1799              		.cfi_def_cfa_offset 4
 1800              		.cfi_offset 14, -4
 1801 0002 87B0     		sub	sp, sp, #28
 1802              	.LCFI43:
 1803              		.cfi_def_cfa_offset 32
 1804 0004 0390     		str	r0, [sp, #12]
 1805 0006 0291     		str	r1, [sp, #8]
 1806 0008 0192     		str	r2, [sp, #4]
1258:/home/rdu/Workspace/project_templates/mcu/stm32_ws/src/libraries/STM32F4xx_StdPeriph_Driver/src/stm32f4xx_rtc.c ****   uint32_t tmpreg = 0;
 1807              		.loc 1 1258 0
 1808 000a 0023     		movs	r3, #0
 1809 000c 0593     		str	r3, [sp, #20]
1259:/home/rdu/Workspace/project_templates/mcu/stm32_ws/src/libraries/STM32F4xx_StdPeriph_Driver/src/stm32f4xx_rtc.c **** 
1260:/home/rdu/Workspace/project_templates/mcu/stm32_ws/src/libraries/STM32F4xx_StdPeriph_Driver/src/stm32f4xx_rtc.c ****   /* Check the parameters */
1261:/home/rdu/Workspace/project_templates/mcu/stm32_ws/src/libraries/STM32F4xx_StdPeriph_Driver/src/stm32f4xx_rtc.c ****   assert_param(IS_RTC_FORMAT(RTC_Format));
1262:/home/rdu/Workspace/project_templates/mcu/stm32_ws/src/libraries/STM32F4xx_StdPeriph_Driver/src/stm32f4xx_rtc.c ****   assert_param(IS_RTC_ALARM(RTC_Alarm)); 
1263:/home/rdu/Workspace/project_templates/mcu/stm32_ws/src/libraries/STM32F4xx_StdPeriph_Driver/src/stm32f4xx_rtc.c **** 
1264:/home/rdu/Workspace/project_templates/mcu/stm32_ws/src/libraries/STM32F4xx_StdPeriph_Driver/src/stm32f4xx_rtc.c ****   /* Get the RTC_ALRMxR register */
1265:/home/rdu/Workspace/project_templates/mcu/stm32_ws/src/libraries/STM32F4xx_StdPeriph_Driver/src/stm32f4xx_rtc.c ****   if (RTC_Alarm == RTC_Alarm_A)
 1810              		.loc 1 1265 0
 1811 000e 029B     		ldr	r3, [sp, #8]
 1812 0010 B3F5807F 		cmp	r3, #256
 1813 0014 03D1     		bne	.L117
1266:/home/rdu/Workspace/project_templates/mcu/stm32_ws/src/libraries/STM32F4xx_StdPeriph_Driver/src/stm32f4xx_rtc.c ****   {
1267:/home/rdu/Workspace/project_templates/mcu/stm32_ws/src/libraries/STM32F4xx_StdPeriph_Driver/src/stm32f4xx_rtc.c ****     tmpreg = (uint32_t)(RTC->ALRMAR);
 1814              		.loc 1 1267 0
 1815 0016 314B     		ldr	r3, .L121
 1816 0018 DB69     		ldr	r3, [r3, #28]
 1817 001a 0593     		str	r3, [sp, #20]
 1818 001c 02E0     		b	.L118
 1819              	.L117:
1268:/home/rdu/Workspace/project_templates/mcu/stm32_ws/src/libraries/STM32F4xx_StdPeriph_Driver/src/stm32f4xx_rtc.c ****   }
1269:/home/rdu/Workspace/project_templates/mcu/stm32_ws/src/libraries/STM32F4xx_StdPeriph_Driver/src/stm32f4xx_rtc.c ****   else
1270:/home/rdu/Workspace/project_templates/mcu/stm32_ws/src/libraries/STM32F4xx_StdPeriph_Driver/src/stm32f4xx_rtc.c ****   {
1271:/home/rdu/Workspace/project_templates/mcu/stm32_ws/src/libraries/STM32F4xx_StdPeriph_Driver/src/stm32f4xx_rtc.c ****     tmpreg = (uint32_t)(RTC->ALRMBR);
 1820              		.loc 1 1271 0
 1821 001e 2F4B     		ldr	r3, .L121
 1822 0020 1B6A     		ldr	r3, [r3, #32]
 1823 0022 0593     		str	r3, [sp, #20]
 1824              	.L118:
1272:/home/rdu/Workspace/project_templates/mcu/stm32_ws/src/libraries/STM32F4xx_StdPeriph_Driver/src/stm32f4xx_rtc.c ****   }
1273:/home/rdu/Workspace/project_templates/mcu/stm32_ws/src/libraries/STM32F4xx_StdPeriph_Driver/src/stm32f4xx_rtc.c **** 
1274:/home/rdu/Workspace/project_templates/mcu/stm32_ws/src/libraries/STM32F4xx_StdPeriph_Driver/src/stm32f4xx_rtc.c ****   /* Fill the structure with the read parameters */
1275:/home/rdu/Workspace/project_templates/mcu/stm32_ws/src/libraries/STM32F4xx_StdPeriph_Driver/src/stm32f4xx_rtc.c ****   RTC_AlarmStruct->RTC_AlarmTime.RTC_Hours = (uint32_t)((tmpreg & (RTC_ALRMAR_HT | \
 1825              		.loc 1 1275 0
 1826 0024 059B     		ldr	r3, [sp, #20]
 1827 0026 1B0C     		lsrs	r3, r3, #16
 1828 0028 DBB2     		uxtb	r3, r3
 1829 002a 03F03F03 		and	r3, r3, #63
 1830 002e DAB2     		uxtb	r2, r3
 1831 0030 019B     		ldr	r3, [sp, #4]
 1832 0032 1A70     		strb	r2, [r3]
1276:/home/rdu/Workspace/project_templates/mcu/stm32_ws/src/libraries/STM32F4xx_StdPeriph_Driver/src/stm32f4xx_rtc.c ****                                                      RTC_ALRMAR_HU)) >> 16);
1277:/home/rdu/Workspace/project_templates/mcu/stm32_ws/src/libraries/STM32F4xx_StdPeriph_Driver/src/stm32f4xx_rtc.c ****   RTC_AlarmStruct->RTC_AlarmTime.RTC_Minutes = (uint32_t)((tmpreg & (RTC_ALRMAR_MNT | \
 1833              		.loc 1 1277 0
 1834 0034 059B     		ldr	r3, [sp, #20]
 1835 0036 1B0A     		lsrs	r3, r3, #8
 1836 0038 DBB2     		uxtb	r3, r3
 1837 003a 03F07F03 		and	r3, r3, #127
 1838 003e DAB2     		uxtb	r2, r3
 1839 0040 019B     		ldr	r3, [sp, #4]
 1840 0042 5A70     		strb	r2, [r3, #1]
1278:/home/rdu/Workspace/project_templates/mcu/stm32_ws/src/libraries/STM32F4xx_StdPeriph_Driver/src/stm32f4xx_rtc.c ****                                                      RTC_ALRMAR_MNU)) >> 8);
1279:/home/rdu/Workspace/project_templates/mcu/stm32_ws/src/libraries/STM32F4xx_StdPeriph_Driver/src/stm32f4xx_rtc.c ****   RTC_AlarmStruct->RTC_AlarmTime.RTC_Seconds = (uint32_t)(tmpreg & (RTC_ALRMAR_ST | \
 1841              		.loc 1 1279 0
 1842 0044 059B     		ldr	r3, [sp, #20]
 1843 0046 DBB2     		uxtb	r3, r3
 1844 0048 03F07F03 		and	r3, r3, #127
 1845 004c DAB2     		uxtb	r2, r3
 1846 004e 019B     		ldr	r3, [sp, #4]
 1847 0050 9A70     		strb	r2, [r3, #2]
1280:/home/rdu/Workspace/project_templates/mcu/stm32_ws/src/libraries/STM32F4xx_StdPeriph_Driver/src/stm32f4xx_rtc.c ****                                                      RTC_ALRMAR_SU));
1281:/home/rdu/Workspace/project_templates/mcu/stm32_ws/src/libraries/STM32F4xx_StdPeriph_Driver/src/stm32f4xx_rtc.c ****   RTC_AlarmStruct->RTC_AlarmTime.RTC_H12 = (uint32_t)((tmpreg & RTC_ALRMAR_PM) >> 16);
 1848              		.loc 1 1281 0
 1849 0052 059B     		ldr	r3, [sp, #20]
 1850 0054 1B0C     		lsrs	r3, r3, #16
 1851 0056 DBB2     		uxtb	r3, r3
 1852 0058 03F04003 		and	r3, r3, #64
 1853 005c DAB2     		uxtb	r2, r3
 1854 005e 019B     		ldr	r3, [sp, #4]
 1855 0060 DA70     		strb	r2, [r3, #3]
1282:/home/rdu/Workspace/project_templates/mcu/stm32_ws/src/libraries/STM32F4xx_StdPeriph_Driver/src/stm32f4xx_rtc.c ****   RTC_AlarmStruct->RTC_AlarmDateWeekDay = (uint32_t)((tmpreg & (RTC_ALRMAR_DT | RTC_ALRMAR_DU)) >> 
 1856              		.loc 1 1282 0
 1857 0062 059B     		ldr	r3, [sp, #20]
 1858 0064 1B0E     		lsrs	r3, r3, #24
 1859 0066 DBB2     		uxtb	r3, r3
 1860 0068 03F03F03 		and	r3, r3, #63
 1861 006c DAB2     		uxtb	r2, r3
 1862 006e 019B     		ldr	r3, [sp, #4]
 1863 0070 1A73     		strb	r2, [r3, #12]
1283:/home/rdu/Workspace/project_templates/mcu/stm32_ws/src/libraries/STM32F4xx_StdPeriph_Driver/src/stm32f4xx_rtc.c ****   RTC_AlarmStruct->RTC_AlarmDateWeekDaySel = (uint32_t)(tmpreg & RTC_ALRMAR_WDSEL);
 1864              		.loc 1 1283 0
 1865 0072 059B     		ldr	r3, [sp, #20]
 1866 0074 03F08042 		and	r2, r3, #1073741824
 1867 0078 019B     		ldr	r3, [sp, #4]
 1868 007a 9A60     		str	r2, [r3, #8]
1284:/home/rdu/Workspace/project_templates/mcu/stm32_ws/src/libraries/STM32F4xx_StdPeriph_Driver/src/stm32f4xx_rtc.c ****   RTC_AlarmStruct->RTC_AlarmMask = (uint32_t)(tmpreg & RTC_AlarmMask_All);
 1869              		.loc 1 1284 0
 1870 007c 059B     		ldr	r3, [sp, #20]
 1871 007e 03F08032 		and	r2, r3, #-2139062144
 1872 0082 019B     		ldr	r3, [sp, #4]
 1873 0084 5A60     		str	r2, [r3, #4]
1285:/home/rdu/Workspace/project_templates/mcu/stm32_ws/src/libraries/STM32F4xx_StdPeriph_Driver/src/stm32f4xx_rtc.c **** 
1286:/home/rdu/Workspace/project_templates/mcu/stm32_ws/src/libraries/STM32F4xx_StdPeriph_Driver/src/stm32f4xx_rtc.c ****   if (RTC_Format == RTC_Format_BIN)
 1874              		.loc 1 1286 0
 1875 0086 039B     		ldr	r3, [sp, #12]
 1876 0088 002B     		cmp	r3, #0
 1877 008a 23D1     		bne	.L120
1287:/home/rdu/Workspace/project_templates/mcu/stm32_ws/src/libraries/STM32F4xx_StdPeriph_Driver/src/stm32f4xx_rtc.c ****   {
1288:/home/rdu/Workspace/project_templates/mcu/stm32_ws/src/libraries/STM32F4xx_StdPeriph_Driver/src/stm32f4xx_rtc.c ****     RTC_AlarmStruct->RTC_AlarmTime.RTC_Hours = RTC_Bcd2ToByte(RTC_AlarmStruct-> \
 1878              		.loc 1 1288 0
 1879 008c 019B     		ldr	r3, [sp, #4]
 1880 008e 1B78     		ldrb	r3, [r3]	@ zero_extendqisi2
 1881 0090 1846     		mov	r0, r3
 1882 0092 FFF7FEFF 		bl	RTC_Bcd2ToByte
 1883 0096 0346     		mov	r3, r0
 1884 0098 1A46     		mov	r2, r3
 1885 009a 019B     		ldr	r3, [sp, #4]
 1886 009c 1A70     		strb	r2, [r3]
1289:/home/rdu/Workspace/project_templates/mcu/stm32_ws/src/libraries/STM32F4xx_StdPeriph_Driver/src/stm32f4xx_rtc.c ****                                                         RTC_AlarmTime.RTC_Hours);
1290:/home/rdu/Workspace/project_templates/mcu/stm32_ws/src/libraries/STM32F4xx_StdPeriph_Driver/src/stm32f4xx_rtc.c ****     RTC_AlarmStruct->RTC_AlarmTime.RTC_Minutes = RTC_Bcd2ToByte(RTC_AlarmStruct-> \
 1887              		.loc 1 1290 0
 1888 009e 019B     		ldr	r3, [sp, #4]
 1889 00a0 5B78     		ldrb	r3, [r3, #1]	@ zero_extendqisi2
 1890 00a2 1846     		mov	r0, r3
 1891 00a4 FFF7FEFF 		bl	RTC_Bcd2ToByte
 1892 00a8 0346     		mov	r3, r0
 1893 00aa 1A46     		mov	r2, r3
 1894 00ac 019B     		ldr	r3, [sp, #4]
 1895 00ae 5A70     		strb	r2, [r3, #1]
1291:/home/rdu/Workspace/project_templates/mcu/stm32_ws/src/libraries/STM32F4xx_StdPeriph_Driver/src/stm32f4xx_rtc.c ****                                                         RTC_AlarmTime.RTC_Minutes);
1292:/home/rdu/Workspace/project_templates/mcu/stm32_ws/src/libraries/STM32F4xx_StdPeriph_Driver/src/stm32f4xx_rtc.c ****     RTC_AlarmStruct->RTC_AlarmTime.RTC_Seconds = RTC_Bcd2ToByte(RTC_AlarmStruct-> \
 1896              		.loc 1 1292 0
 1897 00b0 019B     		ldr	r3, [sp, #4]
 1898 00b2 9B78     		ldrb	r3, [r3, #2]	@ zero_extendqisi2
 1899 00b4 1846     		mov	r0, r3
 1900 00b6 FFF7FEFF 		bl	RTC_Bcd2ToByte
 1901 00ba 0346     		mov	r3, r0
 1902 00bc 1A46     		mov	r2, r3
 1903 00be 019B     		ldr	r3, [sp, #4]
 1904 00c0 9A70     		strb	r2, [r3, #2]
1293:/home/rdu/Workspace/project_templates/mcu/stm32_ws/src/libraries/STM32F4xx_StdPeriph_Driver/src/stm32f4xx_rtc.c ****                                                         RTC_AlarmTime.RTC_Seconds);
1294:/home/rdu/Workspace/project_templates/mcu/stm32_ws/src/libraries/STM32F4xx_StdPeriph_Driver/src/stm32f4xx_rtc.c ****     RTC_AlarmStruct->RTC_AlarmDateWeekDay = RTC_Bcd2ToByte(RTC_AlarmStruct->RTC_AlarmDateWeekDay);
 1905              		.loc 1 1294 0
 1906 00c2 019B     		ldr	r3, [sp, #4]
 1907 00c4 1B7B     		ldrb	r3, [r3, #12]	@ zero_extendqisi2
 1908 00c6 1846     		mov	r0, r3
 1909 00c8 FFF7FEFF 		bl	RTC_Bcd2ToByte
 1910 00cc 0346     		mov	r3, r0
 1911 00ce 1A46     		mov	r2, r3
 1912 00d0 019B     		ldr	r3, [sp, #4]
 1913 00d2 1A73     		strb	r2, [r3, #12]
 1914              	.L120:
1295:/home/rdu/Workspace/project_templates/mcu/stm32_ws/src/libraries/STM32F4xx_StdPeriph_Driver/src/stm32f4xx_rtc.c ****   }  
1296:/home/rdu/Workspace/project_templates/mcu/stm32_ws/src/libraries/STM32F4xx_StdPeriph_Driver/src/stm32f4xx_rtc.c **** }
 1915              		.loc 1 1296 0
 1916 00d4 00BF     		nop
 1917 00d6 07B0     		add	sp, sp, #28
 1918              	.LCFI44:
 1919              		.cfi_def_cfa_offset 4
 1920              		@ sp needed
 1921 00d8 5DF804FB 		ldr	pc, [sp], #4
 1922              	.L122:
 1923              		.align	2
 1924              	.L121:
 1925 00dc 00280040 		.word	1073752064
 1926              		.cfi_endproc
 1927              	.LFE141:
 1929              		.section	.text.RTC_AlarmCmd,"ax",%progbits
 1930              		.align	1
 1931              		.global	RTC_AlarmCmd
 1932              		.syntax unified
 1933              		.thumb
 1934              		.thumb_func
 1935              		.fpu fpv4-sp-d16
 1937              	RTC_AlarmCmd:
 1938              	.LFB142:
1297:/home/rdu/Workspace/project_templates/mcu/stm32_ws/src/libraries/STM32F4xx_StdPeriph_Driver/src/stm32f4xx_rtc.c **** 
1298:/home/rdu/Workspace/project_templates/mcu/stm32_ws/src/libraries/STM32F4xx_StdPeriph_Driver/src/stm32f4xx_rtc.c **** /**
1299:/home/rdu/Workspace/project_templates/mcu/stm32_ws/src/libraries/STM32F4xx_StdPeriph_Driver/src/stm32f4xx_rtc.c ****   * @brief  Enables or disables the specified RTC Alarm.
1300:/home/rdu/Workspace/project_templates/mcu/stm32_ws/src/libraries/STM32F4xx_StdPeriph_Driver/src/stm32f4xx_rtc.c ****   * @param  RTC_Alarm: specifies the alarm to be configured.
1301:/home/rdu/Workspace/project_templates/mcu/stm32_ws/src/libraries/STM32F4xx_StdPeriph_Driver/src/stm32f4xx_rtc.c ****   *          This parameter can be any combination of the following values:
1302:/home/rdu/Workspace/project_templates/mcu/stm32_ws/src/libraries/STM32F4xx_StdPeriph_Driver/src/stm32f4xx_rtc.c ****   *            @arg RTC_Alarm_A: to select Alarm A
1303:/home/rdu/Workspace/project_templates/mcu/stm32_ws/src/libraries/STM32F4xx_StdPeriph_Driver/src/stm32f4xx_rtc.c ****   *            @arg RTC_Alarm_B: to select Alarm B  
1304:/home/rdu/Workspace/project_templates/mcu/stm32_ws/src/libraries/STM32F4xx_StdPeriph_Driver/src/stm32f4xx_rtc.c ****   * @param  NewState: new state of the specified alarm.
1305:/home/rdu/Workspace/project_templates/mcu/stm32_ws/src/libraries/STM32F4xx_StdPeriph_Driver/src/stm32f4xx_rtc.c ****   *          This parameter can be: ENABLE or DISABLE.
1306:/home/rdu/Workspace/project_templates/mcu/stm32_ws/src/libraries/STM32F4xx_StdPeriph_Driver/src/stm32f4xx_rtc.c ****   * @retval An ErrorStatus enumeration value:
1307:/home/rdu/Workspace/project_templates/mcu/stm32_ws/src/libraries/STM32F4xx_StdPeriph_Driver/src/stm32f4xx_rtc.c ****   *          - SUCCESS: RTC Alarm is enabled/disabled
1308:/home/rdu/Workspace/project_templates/mcu/stm32_ws/src/libraries/STM32F4xx_StdPeriph_Driver/src/stm32f4xx_rtc.c ****   *          - ERROR: RTC Alarm is not enabled/disabled  
1309:/home/rdu/Workspace/project_templates/mcu/stm32_ws/src/libraries/STM32F4xx_StdPeriph_Driver/src/stm32f4xx_rtc.c ****   */
1310:/home/rdu/Workspace/project_templates/mcu/stm32_ws/src/libraries/STM32F4xx_StdPeriph_Driver/src/stm32f4xx_rtc.c **** ErrorStatus RTC_AlarmCmd(uint32_t RTC_Alarm, FunctionalState NewState)
1311:/home/rdu/Workspace/project_templates/mcu/stm32_ws/src/libraries/STM32F4xx_StdPeriph_Driver/src/stm32f4xx_rtc.c **** {
 1939              		.loc 1 1311 0
 1940              		.cfi_startproc
 1941              		@ args = 0, pretend = 0, frame = 24
 1942              		@ frame_needed = 0, uses_anonymous_args = 0
 1943              		@ link register save eliminated.
 1944 0000 86B0     		sub	sp, sp, #24
 1945              	.LCFI45:
 1946              		.cfi_def_cfa_offset 24
 1947 0002 0190     		str	r0, [sp, #4]
 1948 0004 0B46     		mov	r3, r1
 1949 0006 8DF80330 		strb	r3, [sp, #3]
1312:/home/rdu/Workspace/project_templates/mcu/stm32_ws/src/libraries/STM32F4xx_StdPeriph_Driver/src/stm32f4xx_rtc.c ****   __IO uint32_t alarmcounter = 0x00;
 1950              		.loc 1 1312 0
 1951 000a 0023     		movs	r3, #0
 1952 000c 0393     		str	r3, [sp, #12]
1313:/home/rdu/Workspace/project_templates/mcu/stm32_ws/src/libraries/STM32F4xx_StdPeriph_Driver/src/stm32f4xx_rtc.c ****   uint32_t alarmstatus = 0x00;
 1953              		.loc 1 1313 0
 1954 000e 0023     		movs	r3, #0
 1955 0010 0493     		str	r3, [sp, #16]
1314:/home/rdu/Workspace/project_templates/mcu/stm32_ws/src/libraries/STM32F4xx_StdPeriph_Driver/src/stm32f4xx_rtc.c ****   ErrorStatus status = ERROR;
 1956              		.loc 1 1314 0
 1957 0012 0023     		movs	r3, #0
 1958 0014 8DF81730 		strb	r3, [sp, #23]
1315:/home/rdu/Workspace/project_templates/mcu/stm32_ws/src/libraries/STM32F4xx_StdPeriph_Driver/src/stm32f4xx_rtc.c ****     
1316:/home/rdu/Workspace/project_templates/mcu/stm32_ws/src/libraries/STM32F4xx_StdPeriph_Driver/src/stm32f4xx_rtc.c ****   /* Check the parameters */
1317:/home/rdu/Workspace/project_templates/mcu/stm32_ws/src/libraries/STM32F4xx_StdPeriph_Driver/src/stm32f4xx_rtc.c ****   assert_param(IS_RTC_CMD_ALARM(RTC_Alarm));
1318:/home/rdu/Workspace/project_templates/mcu/stm32_ws/src/libraries/STM32F4xx_StdPeriph_Driver/src/stm32f4xx_rtc.c ****   assert_param(IS_FUNCTIONAL_STATE(NewState));
1319:/home/rdu/Workspace/project_templates/mcu/stm32_ws/src/libraries/STM32F4xx_StdPeriph_Driver/src/stm32f4xx_rtc.c **** 
1320:/home/rdu/Workspace/project_templates/mcu/stm32_ws/src/libraries/STM32F4xx_StdPeriph_Driver/src/stm32f4xx_rtc.c ****   /* Disable the write protection for RTC registers */
1321:/home/rdu/Workspace/project_templates/mcu/stm32_ws/src/libraries/STM32F4xx_StdPeriph_Driver/src/stm32f4xx_rtc.c ****   RTC->WPR = 0xCA;
 1959              		.loc 1 1321 0
 1960 0018 204B     		ldr	r3, .L130
 1961 001a CA22     		movs	r2, #202
 1962 001c 5A62     		str	r2, [r3, #36]
1322:/home/rdu/Workspace/project_templates/mcu/stm32_ws/src/libraries/STM32F4xx_StdPeriph_Driver/src/stm32f4xx_rtc.c ****   RTC->WPR = 0x53;
 1963              		.loc 1 1322 0
 1964 001e 1F4B     		ldr	r3, .L130
 1965 0020 5322     		movs	r2, #83
 1966 0022 5A62     		str	r2, [r3, #36]
1323:/home/rdu/Workspace/project_templates/mcu/stm32_ws/src/libraries/STM32F4xx_StdPeriph_Driver/src/stm32f4xx_rtc.c **** 
1324:/home/rdu/Workspace/project_templates/mcu/stm32_ws/src/libraries/STM32F4xx_StdPeriph_Driver/src/stm32f4xx_rtc.c ****   /* Configure the Alarm state */
1325:/home/rdu/Workspace/project_templates/mcu/stm32_ws/src/libraries/STM32F4xx_StdPeriph_Driver/src/stm32f4xx_rtc.c ****   if (NewState != DISABLE)
 1967              		.loc 1 1325 0
 1968 0024 9DF80330 		ldrb	r3, [sp, #3]	@ zero_extendqisi2
 1969 0028 002B     		cmp	r3, #0
 1970 002a 09D0     		beq	.L124
1326:/home/rdu/Workspace/project_templates/mcu/stm32_ws/src/libraries/STM32F4xx_StdPeriph_Driver/src/stm32f4xx_rtc.c ****   {
1327:/home/rdu/Workspace/project_templates/mcu/stm32_ws/src/libraries/STM32F4xx_StdPeriph_Driver/src/stm32f4xx_rtc.c ****     RTC->CR |= (uint32_t)RTC_Alarm;
 1971              		.loc 1 1327 0
 1972 002c 1B4B     		ldr	r3, .L130
 1973 002e 9A68     		ldr	r2, [r3, #8]
 1974 0030 1A49     		ldr	r1, .L130
 1975 0032 019B     		ldr	r3, [sp, #4]
 1976 0034 1343     		orrs	r3, r3, r2
 1977 0036 8B60     		str	r3, [r1, #8]
1328:/home/rdu/Workspace/project_templates/mcu/stm32_ws/src/libraries/STM32F4xx_StdPeriph_Driver/src/stm32f4xx_rtc.c **** 
1329:/home/rdu/Workspace/project_templates/mcu/stm32_ws/src/libraries/STM32F4xx_StdPeriph_Driver/src/stm32f4xx_rtc.c ****     status = SUCCESS;    
 1978              		.loc 1 1329 0
 1979 0038 0123     		movs	r3, #1
 1980 003a 8DF81730 		strb	r3, [sp, #23]
 1981 003e 24E0     		b	.L125
 1982              	.L124:
1330:/home/rdu/Workspace/project_templates/mcu/stm32_ws/src/libraries/STM32F4xx_StdPeriph_Driver/src/stm32f4xx_rtc.c ****   }
1331:/home/rdu/Workspace/project_templates/mcu/stm32_ws/src/libraries/STM32F4xx_StdPeriph_Driver/src/stm32f4xx_rtc.c ****   else
1332:/home/rdu/Workspace/project_templates/mcu/stm32_ws/src/libraries/STM32F4xx_StdPeriph_Driver/src/stm32f4xx_rtc.c ****   { 
1333:/home/rdu/Workspace/project_templates/mcu/stm32_ws/src/libraries/STM32F4xx_StdPeriph_Driver/src/stm32f4xx_rtc.c ****     /* Disable the Alarm in RTC_CR register */
1334:/home/rdu/Workspace/project_templates/mcu/stm32_ws/src/libraries/STM32F4xx_StdPeriph_Driver/src/stm32f4xx_rtc.c ****     RTC->CR &= (uint32_t)~RTC_Alarm;
 1983              		.loc 1 1334 0
 1984 0040 164B     		ldr	r3, .L130
 1985 0042 9A68     		ldr	r2, [r3, #8]
 1986 0044 019B     		ldr	r3, [sp, #4]
 1987 0046 DB43     		mvns	r3, r3
 1988 0048 1449     		ldr	r1, .L130
 1989 004a 1340     		ands	r3, r3, r2
 1990 004c 8B60     		str	r3, [r1, #8]
 1991              	.L127:
1335:/home/rdu/Workspace/project_templates/mcu/stm32_ws/src/libraries/STM32F4xx_StdPeriph_Driver/src/stm32f4xx_rtc.c ****    
1336:/home/rdu/Workspace/project_templates/mcu/stm32_ws/src/libraries/STM32F4xx_StdPeriph_Driver/src/stm32f4xx_rtc.c ****     /* Wait till RTC ALRxWF flag is set and if Time out is reached exit */
1337:/home/rdu/Workspace/project_templates/mcu/stm32_ws/src/libraries/STM32F4xx_StdPeriph_Driver/src/stm32f4xx_rtc.c ****     do
1338:/home/rdu/Workspace/project_templates/mcu/stm32_ws/src/libraries/STM32F4xx_StdPeriph_Driver/src/stm32f4xx_rtc.c ****     {
1339:/home/rdu/Workspace/project_templates/mcu/stm32_ws/src/libraries/STM32F4xx_StdPeriph_Driver/src/stm32f4xx_rtc.c ****       alarmstatus = RTC->ISR & (RTC_Alarm >> 8);
 1992              		.loc 1 1339 0 discriminator 2
 1993 004e 134B     		ldr	r3, .L130
 1994 0050 DA68     		ldr	r2, [r3, #12]
 1995 0052 019B     		ldr	r3, [sp, #4]
 1996 0054 1B0A     		lsrs	r3, r3, #8
 1997 0056 1340     		ands	r3, r3, r2
 1998 0058 0493     		str	r3, [sp, #16]
1340:/home/rdu/Workspace/project_templates/mcu/stm32_ws/src/libraries/STM32F4xx_StdPeriph_Driver/src/stm32f4xx_rtc.c ****       alarmcounter++;  
 1999              		.loc 1 1340 0 discriminator 2
 2000 005a 039B     		ldr	r3, [sp, #12]
 2001 005c 0133     		adds	r3, r3, #1
 2002 005e 0393     		str	r3, [sp, #12]
1341:/home/rdu/Workspace/project_templates/mcu/stm32_ws/src/libraries/STM32F4xx_StdPeriph_Driver/src/stm32f4xx_rtc.c ****     } while((alarmcounter != INITMODE_TIMEOUT) && (alarmstatus == 0x00));
 2003              		.loc 1 1341 0 discriminator 2
 2004 0060 039B     		ldr	r3, [sp, #12]
 2005 0062 B3F5803F 		cmp	r3, #65536
 2006 0066 02D0     		beq	.L126
 2007              		.loc 1 1341 0 is_stmt 0 discriminator 1
 2008 0068 049B     		ldr	r3, [sp, #16]
 2009 006a 002B     		cmp	r3, #0
 2010 006c EFD0     		beq	.L127
 2011              	.L126:
1342:/home/rdu/Workspace/project_templates/mcu/stm32_ws/src/libraries/STM32F4xx_StdPeriph_Driver/src/stm32f4xx_rtc.c ****     
1343:/home/rdu/Workspace/project_templates/mcu/stm32_ws/src/libraries/STM32F4xx_StdPeriph_Driver/src/stm32f4xx_rtc.c ****     if ((RTC->ISR & (RTC_Alarm >> 8)) == RESET)
 2012              		.loc 1 1343 0 is_stmt 1
 2013 006e 0B4B     		ldr	r3, .L130
 2014 0070 DA68     		ldr	r2, [r3, #12]
 2015 0072 019B     		ldr	r3, [sp, #4]
 2016 0074 1B0A     		lsrs	r3, r3, #8
 2017 0076 1340     		ands	r3, r3, r2
 2018 0078 002B     		cmp	r3, #0
 2019 007a 03D1     		bne	.L128
1344:/home/rdu/Workspace/project_templates/mcu/stm32_ws/src/libraries/STM32F4xx_StdPeriph_Driver/src/stm32f4xx_rtc.c ****     {
1345:/home/rdu/Workspace/project_templates/mcu/stm32_ws/src/libraries/STM32F4xx_StdPeriph_Driver/src/stm32f4xx_rtc.c ****       status = ERROR;
 2020              		.loc 1 1345 0
 2021 007c 0023     		movs	r3, #0
 2022 007e 8DF81730 		strb	r3, [sp, #23]
 2023 0082 02E0     		b	.L125
 2024              	.L128:
1346:/home/rdu/Workspace/project_templates/mcu/stm32_ws/src/libraries/STM32F4xx_StdPeriph_Driver/src/stm32f4xx_rtc.c ****     } 
1347:/home/rdu/Workspace/project_templates/mcu/stm32_ws/src/libraries/STM32F4xx_StdPeriph_Driver/src/stm32f4xx_rtc.c ****     else
1348:/home/rdu/Workspace/project_templates/mcu/stm32_ws/src/libraries/STM32F4xx_StdPeriph_Driver/src/stm32f4xx_rtc.c ****     {
1349:/home/rdu/Workspace/project_templates/mcu/stm32_ws/src/libraries/STM32F4xx_StdPeriph_Driver/src/stm32f4xx_rtc.c ****       status = SUCCESS;
 2025              		.loc 1 1349 0
 2026 0084 0123     		movs	r3, #1
 2027 0086 8DF81730 		strb	r3, [sp, #23]
 2028              	.L125:
1350:/home/rdu/Workspace/project_templates/mcu/stm32_ws/src/libraries/STM32F4xx_StdPeriph_Driver/src/stm32f4xx_rtc.c ****     }        
1351:/home/rdu/Workspace/project_templates/mcu/stm32_ws/src/libraries/STM32F4xx_StdPeriph_Driver/src/stm32f4xx_rtc.c ****   } 
1352:/home/rdu/Workspace/project_templates/mcu/stm32_ws/src/libraries/STM32F4xx_StdPeriph_Driver/src/stm32f4xx_rtc.c **** 
1353:/home/rdu/Workspace/project_templates/mcu/stm32_ws/src/libraries/STM32F4xx_StdPeriph_Driver/src/stm32f4xx_rtc.c ****   /* Enable the write protection for RTC registers */
1354:/home/rdu/Workspace/project_templates/mcu/stm32_ws/src/libraries/STM32F4xx_StdPeriph_Driver/src/stm32f4xx_rtc.c ****   RTC->WPR = 0xFF; 
 2029              		.loc 1 1354 0
 2030 008a 044B     		ldr	r3, .L130
 2031 008c FF22     		movs	r2, #255
 2032 008e 5A62     		str	r2, [r3, #36]
1355:/home/rdu/Workspace/project_templates/mcu/stm32_ws/src/libraries/STM32F4xx_StdPeriph_Driver/src/stm32f4xx_rtc.c ****   
1356:/home/rdu/Workspace/project_templates/mcu/stm32_ws/src/libraries/STM32F4xx_StdPeriph_Driver/src/stm32f4xx_rtc.c ****   return status;
 2033              		.loc 1 1356 0
 2034 0090 9DF81730 		ldrb	r3, [sp, #23]	@ zero_extendqisi2
1357:/home/rdu/Workspace/project_templates/mcu/stm32_ws/src/libraries/STM32F4xx_StdPeriph_Driver/src/stm32f4xx_rtc.c **** }
 2035              		.loc 1 1357 0
 2036 0094 1846     		mov	r0, r3
 2037 0096 06B0     		add	sp, sp, #24
 2038              	.LCFI46:
 2039              		.cfi_def_cfa_offset 0
 2040              		@ sp needed
 2041 0098 7047     		bx	lr
 2042              	.L131:
 2043 009a 00BF     		.align	2
 2044              	.L130:
 2045 009c 00280040 		.word	1073752064
 2046              		.cfi_endproc
 2047              	.LFE142:
 2049              		.section	.text.RTC_AlarmSubSecondConfig,"ax",%progbits
 2050              		.align	1
 2051              		.global	RTC_AlarmSubSecondConfig
 2052              		.syntax unified
 2053              		.thumb
 2054              		.thumb_func
 2055              		.fpu fpv4-sp-d16
 2057              	RTC_AlarmSubSecondConfig:
 2058              	.LFB143:
1358:/home/rdu/Workspace/project_templates/mcu/stm32_ws/src/libraries/STM32F4xx_StdPeriph_Driver/src/stm32f4xx_rtc.c **** 
1359:/home/rdu/Workspace/project_templates/mcu/stm32_ws/src/libraries/STM32F4xx_StdPeriph_Driver/src/stm32f4xx_rtc.c **** /**
1360:/home/rdu/Workspace/project_templates/mcu/stm32_ws/src/libraries/STM32F4xx_StdPeriph_Driver/src/stm32f4xx_rtc.c ****   * @brief  Configure the RTC AlarmA/B Sub seconds value and mask.*
1361:/home/rdu/Workspace/project_templates/mcu/stm32_ws/src/libraries/STM32F4xx_StdPeriph_Driver/src/stm32f4xx_rtc.c ****   * @note   This function is performed only when the Alarm is disabled. 
1362:/home/rdu/Workspace/project_templates/mcu/stm32_ws/src/libraries/STM32F4xx_StdPeriph_Driver/src/stm32f4xx_rtc.c ****   * @param  RTC_Alarm: specifies the alarm to be configured.
1363:/home/rdu/Workspace/project_templates/mcu/stm32_ws/src/libraries/STM32F4xx_StdPeriph_Driver/src/stm32f4xx_rtc.c ****   *   This parameter can be one of the following values:
1364:/home/rdu/Workspace/project_templates/mcu/stm32_ws/src/libraries/STM32F4xx_StdPeriph_Driver/src/stm32f4xx_rtc.c ****   *     @arg RTC_Alarm_A: to select Alarm A
1365:/home/rdu/Workspace/project_templates/mcu/stm32_ws/src/libraries/STM32F4xx_StdPeriph_Driver/src/stm32f4xx_rtc.c ****   *     @arg RTC_Alarm_B: to select Alarm B
1366:/home/rdu/Workspace/project_templates/mcu/stm32_ws/src/libraries/STM32F4xx_StdPeriph_Driver/src/stm32f4xx_rtc.c ****   * @param  RTC_AlarmSubSecondValue: specifies the Sub seconds value.
1367:/home/rdu/Workspace/project_templates/mcu/stm32_ws/src/libraries/STM32F4xx_StdPeriph_Driver/src/stm32f4xx_rtc.c ****   *   This parameter can be a value from 0 to 0x00007FFF.
1368:/home/rdu/Workspace/project_templates/mcu/stm32_ws/src/libraries/STM32F4xx_StdPeriph_Driver/src/stm32f4xx_rtc.c ****   * @param  RTC_AlarmSubSecondMask:  specifies the Sub seconds Mask.
1369:/home/rdu/Workspace/project_templates/mcu/stm32_ws/src/libraries/STM32F4xx_StdPeriph_Driver/src/stm32f4xx_rtc.c ****   *   This parameter can be any combination of the following values:
1370:/home/rdu/Workspace/project_templates/mcu/stm32_ws/src/libraries/STM32F4xx_StdPeriph_Driver/src/stm32f4xx_rtc.c ****   *     @arg RTC_AlarmSubSecondMask_All    : All Alarm SS fields are masked.
1371:/home/rdu/Workspace/project_templates/mcu/stm32_ws/src/libraries/STM32F4xx_StdPeriph_Driver/src/stm32f4xx_rtc.c ****   *                                          There is no comparison on sub seconds for Alarm.
1372:/home/rdu/Workspace/project_templates/mcu/stm32_ws/src/libraries/STM32F4xx_StdPeriph_Driver/src/stm32f4xx_rtc.c ****   *     @arg RTC_AlarmSubSecondMask_SS14_1 : SS[14:1] are don't care in Alarm comparison.
1373:/home/rdu/Workspace/project_templates/mcu/stm32_ws/src/libraries/STM32F4xx_StdPeriph_Driver/src/stm32f4xx_rtc.c ****   *                                          Only SS[0] is compared
1374:/home/rdu/Workspace/project_templates/mcu/stm32_ws/src/libraries/STM32F4xx_StdPeriph_Driver/src/stm32f4xx_rtc.c ****   *     @arg RTC_AlarmSubSecondMask_SS14_2 : SS[14:2] are don't care in Alarm comparison.
1375:/home/rdu/Workspace/project_templates/mcu/stm32_ws/src/libraries/STM32F4xx_StdPeriph_Driver/src/stm32f4xx_rtc.c ****   *                                          Only SS[1:0] are compared
1376:/home/rdu/Workspace/project_templates/mcu/stm32_ws/src/libraries/STM32F4xx_StdPeriph_Driver/src/stm32f4xx_rtc.c ****   *     @arg RTC_AlarmSubSecondMask_SS14_3 : SS[14:3] are don't care in Alarm comparison.
1377:/home/rdu/Workspace/project_templates/mcu/stm32_ws/src/libraries/STM32F4xx_StdPeriph_Driver/src/stm32f4xx_rtc.c ****   *                                          Only SS[2:0] are compared
1378:/home/rdu/Workspace/project_templates/mcu/stm32_ws/src/libraries/STM32F4xx_StdPeriph_Driver/src/stm32f4xx_rtc.c ****   *     @arg RTC_AlarmSubSecondMask_SS14_4 : SS[14:4] are don't care in Alarm comparison.
1379:/home/rdu/Workspace/project_templates/mcu/stm32_ws/src/libraries/STM32F4xx_StdPeriph_Driver/src/stm32f4xx_rtc.c ****   *                                          Only SS[3:0] are compared
1380:/home/rdu/Workspace/project_templates/mcu/stm32_ws/src/libraries/STM32F4xx_StdPeriph_Driver/src/stm32f4xx_rtc.c ****   *     @arg RTC_AlarmSubSecondMask_SS14_5 : SS[14:5] are don't care in Alarm comparison.
1381:/home/rdu/Workspace/project_templates/mcu/stm32_ws/src/libraries/STM32F4xx_StdPeriph_Driver/src/stm32f4xx_rtc.c ****   *                                          Only SS[4:0] are compared
1382:/home/rdu/Workspace/project_templates/mcu/stm32_ws/src/libraries/STM32F4xx_StdPeriph_Driver/src/stm32f4xx_rtc.c ****   *     @arg RTC_AlarmSubSecondMask_SS14_6 : SS[14:6] are don't care in Alarm comparison.
1383:/home/rdu/Workspace/project_templates/mcu/stm32_ws/src/libraries/STM32F4xx_StdPeriph_Driver/src/stm32f4xx_rtc.c ****   *                                          Only SS[5:0] are compared
1384:/home/rdu/Workspace/project_templates/mcu/stm32_ws/src/libraries/STM32F4xx_StdPeriph_Driver/src/stm32f4xx_rtc.c ****   *     @arg RTC_AlarmSubSecondMask_SS14_7 : SS[14:7] are don't care in Alarm comparison.
1385:/home/rdu/Workspace/project_templates/mcu/stm32_ws/src/libraries/STM32F4xx_StdPeriph_Driver/src/stm32f4xx_rtc.c ****   *                                          Only SS[6:0] are compared
1386:/home/rdu/Workspace/project_templates/mcu/stm32_ws/src/libraries/STM32F4xx_StdPeriph_Driver/src/stm32f4xx_rtc.c ****   *     @arg RTC_AlarmSubSecondMask_SS14_8 : SS[14:8] are don't care in Alarm comparison.
1387:/home/rdu/Workspace/project_templates/mcu/stm32_ws/src/libraries/STM32F4xx_StdPeriph_Driver/src/stm32f4xx_rtc.c ****   *                                          Only SS[7:0] are compared
1388:/home/rdu/Workspace/project_templates/mcu/stm32_ws/src/libraries/STM32F4xx_StdPeriph_Driver/src/stm32f4xx_rtc.c ****   *     @arg RTC_AlarmSubSecondMask_SS14_9 : SS[14:9] are don't care in Alarm comparison.
1389:/home/rdu/Workspace/project_templates/mcu/stm32_ws/src/libraries/STM32F4xx_StdPeriph_Driver/src/stm32f4xx_rtc.c ****   *                                          Only SS[8:0] are compared
1390:/home/rdu/Workspace/project_templates/mcu/stm32_ws/src/libraries/STM32F4xx_StdPeriph_Driver/src/stm32f4xx_rtc.c ****   *     @arg RTC_AlarmSubSecondMask_SS14_10: SS[14:10] are don't care in Alarm comparison.
1391:/home/rdu/Workspace/project_templates/mcu/stm32_ws/src/libraries/STM32F4xx_StdPeriph_Driver/src/stm32f4xx_rtc.c ****   *                                          Only SS[9:0] are compared
1392:/home/rdu/Workspace/project_templates/mcu/stm32_ws/src/libraries/STM32F4xx_StdPeriph_Driver/src/stm32f4xx_rtc.c ****   *     @arg RTC_AlarmSubSecondMask_SS14_11: SS[14:11] are don't care in Alarm comparison.
1393:/home/rdu/Workspace/project_templates/mcu/stm32_ws/src/libraries/STM32F4xx_StdPeriph_Driver/src/stm32f4xx_rtc.c ****   *                                          Only SS[10:0] are compared
1394:/home/rdu/Workspace/project_templates/mcu/stm32_ws/src/libraries/STM32F4xx_StdPeriph_Driver/src/stm32f4xx_rtc.c ****   *     @arg RTC_AlarmSubSecondMask_SS14_12: SS[14:12] are don't care in Alarm comparison.
1395:/home/rdu/Workspace/project_templates/mcu/stm32_ws/src/libraries/STM32F4xx_StdPeriph_Driver/src/stm32f4xx_rtc.c ****   *                                          Only SS[11:0] are compared
1396:/home/rdu/Workspace/project_templates/mcu/stm32_ws/src/libraries/STM32F4xx_StdPeriph_Driver/src/stm32f4xx_rtc.c ****   *     @arg RTC_AlarmSubSecondMask_SS14_13: SS[14:13] are don't care in Alarm comparison.
1397:/home/rdu/Workspace/project_templates/mcu/stm32_ws/src/libraries/STM32F4xx_StdPeriph_Driver/src/stm32f4xx_rtc.c ****   *                                          Only SS[12:0] are compared
1398:/home/rdu/Workspace/project_templates/mcu/stm32_ws/src/libraries/STM32F4xx_StdPeriph_Driver/src/stm32f4xx_rtc.c ****   *     @arg RTC_AlarmSubSecondMask_SS14   : SS[14] is don't care in Alarm comparison.
1399:/home/rdu/Workspace/project_templates/mcu/stm32_ws/src/libraries/STM32F4xx_StdPeriph_Driver/src/stm32f4xx_rtc.c ****   *                                          Only SS[13:0] are compared
1400:/home/rdu/Workspace/project_templates/mcu/stm32_ws/src/libraries/STM32F4xx_StdPeriph_Driver/src/stm32f4xx_rtc.c ****   *     @arg RTC_AlarmSubSecondMask_None   : SS[14:0] are compared and must match
1401:/home/rdu/Workspace/project_templates/mcu/stm32_ws/src/libraries/STM32F4xx_StdPeriph_Driver/src/stm32f4xx_rtc.c ****   *                                          to activate alarm
1402:/home/rdu/Workspace/project_templates/mcu/stm32_ws/src/libraries/STM32F4xx_StdPeriph_Driver/src/stm32f4xx_rtc.c ****   * @retval None
1403:/home/rdu/Workspace/project_templates/mcu/stm32_ws/src/libraries/STM32F4xx_StdPeriph_Driver/src/stm32f4xx_rtc.c ****   */
1404:/home/rdu/Workspace/project_templates/mcu/stm32_ws/src/libraries/STM32F4xx_StdPeriph_Driver/src/stm32f4xx_rtc.c **** void RTC_AlarmSubSecondConfig(uint32_t RTC_Alarm, uint32_t RTC_AlarmSubSecondValue, uint32_t RTC_Al
1405:/home/rdu/Workspace/project_templates/mcu/stm32_ws/src/libraries/STM32F4xx_StdPeriph_Driver/src/stm32f4xx_rtc.c **** {
 2059              		.loc 1 1405 0
 2060              		.cfi_startproc
 2061              		@ args = 0, pretend = 0, frame = 24
 2062              		@ frame_needed = 0, uses_anonymous_args = 0
 2063              		@ link register save eliminated.
 2064 0000 86B0     		sub	sp, sp, #24
 2065              	.LCFI47:
 2066              		.cfi_def_cfa_offset 24
 2067 0002 0390     		str	r0, [sp, #12]
 2068 0004 0291     		str	r1, [sp, #8]
 2069 0006 0192     		str	r2, [sp, #4]
1406:/home/rdu/Workspace/project_templates/mcu/stm32_ws/src/libraries/STM32F4xx_StdPeriph_Driver/src/stm32f4xx_rtc.c ****   uint32_t tmpreg = 0;
 2070              		.loc 1 1406 0
 2071 0008 0023     		movs	r3, #0
 2072 000a 0593     		str	r3, [sp, #20]
1407:/home/rdu/Workspace/project_templates/mcu/stm32_ws/src/libraries/STM32F4xx_StdPeriph_Driver/src/stm32f4xx_rtc.c **** 
1408:/home/rdu/Workspace/project_templates/mcu/stm32_ws/src/libraries/STM32F4xx_StdPeriph_Driver/src/stm32f4xx_rtc.c ****   /* Check the parameters */
1409:/home/rdu/Workspace/project_templates/mcu/stm32_ws/src/libraries/STM32F4xx_StdPeriph_Driver/src/stm32f4xx_rtc.c ****   assert_param(IS_RTC_ALARM(RTC_Alarm));
1410:/home/rdu/Workspace/project_templates/mcu/stm32_ws/src/libraries/STM32F4xx_StdPeriph_Driver/src/stm32f4xx_rtc.c ****   assert_param(IS_RTC_ALARM_SUB_SECOND_VALUE(RTC_AlarmSubSecondValue));
1411:/home/rdu/Workspace/project_templates/mcu/stm32_ws/src/libraries/STM32F4xx_StdPeriph_Driver/src/stm32f4xx_rtc.c ****   assert_param(IS_RTC_ALARM_SUB_SECOND_MASK(RTC_AlarmSubSecondMask));
1412:/home/rdu/Workspace/project_templates/mcu/stm32_ws/src/libraries/STM32F4xx_StdPeriph_Driver/src/stm32f4xx_rtc.c ****   
1413:/home/rdu/Workspace/project_templates/mcu/stm32_ws/src/libraries/STM32F4xx_StdPeriph_Driver/src/stm32f4xx_rtc.c ****   /* Disable the write protection for RTC registers */
1414:/home/rdu/Workspace/project_templates/mcu/stm32_ws/src/libraries/STM32F4xx_StdPeriph_Driver/src/stm32f4xx_rtc.c ****   RTC->WPR = 0xCA;
 2073              		.loc 1 1414 0
 2074 000c 0D4B     		ldr	r3, .L135
 2075 000e CA22     		movs	r2, #202
 2076 0010 5A62     		str	r2, [r3, #36]
1415:/home/rdu/Workspace/project_templates/mcu/stm32_ws/src/libraries/STM32F4xx_StdPeriph_Driver/src/stm32f4xx_rtc.c ****   RTC->WPR = 0x53;
 2077              		.loc 1 1415 0
 2078 0012 0C4B     		ldr	r3, .L135
 2079 0014 5322     		movs	r2, #83
 2080 0016 5A62     		str	r2, [r3, #36]
1416:/home/rdu/Workspace/project_templates/mcu/stm32_ws/src/libraries/STM32F4xx_StdPeriph_Driver/src/stm32f4xx_rtc.c ****   
1417:/home/rdu/Workspace/project_templates/mcu/stm32_ws/src/libraries/STM32F4xx_StdPeriph_Driver/src/stm32f4xx_rtc.c ****   /* Configure the Alarm A or Alarm B Sub Second registers */
1418:/home/rdu/Workspace/project_templates/mcu/stm32_ws/src/libraries/STM32F4xx_StdPeriph_Driver/src/stm32f4xx_rtc.c ****   tmpreg = (uint32_t) (uint32_t)(RTC_AlarmSubSecondValue) | (uint32_t)(RTC_AlarmSubSecondMask);
 2081              		.loc 1 1418 0
 2082 0018 029A     		ldr	r2, [sp, #8]
 2083 001a 019B     		ldr	r3, [sp, #4]
 2084 001c 1343     		orrs	r3, r3, r2
 2085 001e 0593     		str	r3, [sp, #20]
1419:/home/rdu/Workspace/project_templates/mcu/stm32_ws/src/libraries/STM32F4xx_StdPeriph_Driver/src/stm32f4xx_rtc.c ****   
1420:/home/rdu/Workspace/project_templates/mcu/stm32_ws/src/libraries/STM32F4xx_StdPeriph_Driver/src/stm32f4xx_rtc.c ****   if (RTC_Alarm == RTC_Alarm_A)
 2086              		.loc 1 1420 0
 2087 0020 039B     		ldr	r3, [sp, #12]
 2088 0022 B3F5807F 		cmp	r3, #256
 2089 0026 03D1     		bne	.L133
1421:/home/rdu/Workspace/project_templates/mcu/stm32_ws/src/libraries/STM32F4xx_StdPeriph_Driver/src/stm32f4xx_rtc.c ****   {
1422:/home/rdu/Workspace/project_templates/mcu/stm32_ws/src/libraries/STM32F4xx_StdPeriph_Driver/src/stm32f4xx_rtc.c ****     /* Configure the Alarm A Sub Second register */
1423:/home/rdu/Workspace/project_templates/mcu/stm32_ws/src/libraries/STM32F4xx_StdPeriph_Driver/src/stm32f4xx_rtc.c ****     RTC->ALRMASSR = tmpreg;
 2090              		.loc 1 1423 0
 2091 0028 064A     		ldr	r2, .L135
 2092 002a 059B     		ldr	r3, [sp, #20]
 2093 002c 5364     		str	r3, [r2, #68]
 2094 002e 02E0     		b	.L134
 2095              	.L133:
1424:/home/rdu/Workspace/project_templates/mcu/stm32_ws/src/libraries/STM32F4xx_StdPeriph_Driver/src/stm32f4xx_rtc.c ****   }
1425:/home/rdu/Workspace/project_templates/mcu/stm32_ws/src/libraries/STM32F4xx_StdPeriph_Driver/src/stm32f4xx_rtc.c ****   else
1426:/home/rdu/Workspace/project_templates/mcu/stm32_ws/src/libraries/STM32F4xx_StdPeriph_Driver/src/stm32f4xx_rtc.c ****   {
1427:/home/rdu/Workspace/project_templates/mcu/stm32_ws/src/libraries/STM32F4xx_StdPeriph_Driver/src/stm32f4xx_rtc.c ****     /* Configure the Alarm B Sub Second register */
1428:/home/rdu/Workspace/project_templates/mcu/stm32_ws/src/libraries/STM32F4xx_StdPeriph_Driver/src/stm32f4xx_rtc.c ****     RTC->ALRMBSSR = tmpreg;
 2096              		.loc 1 1428 0
 2097 0030 044A     		ldr	r2, .L135
 2098 0032 059B     		ldr	r3, [sp, #20]
 2099 0034 9364     		str	r3, [r2, #72]
 2100              	.L134:
1429:/home/rdu/Workspace/project_templates/mcu/stm32_ws/src/libraries/STM32F4xx_StdPeriph_Driver/src/stm32f4xx_rtc.c ****   }
1430:/home/rdu/Workspace/project_templates/mcu/stm32_ws/src/libraries/STM32F4xx_StdPeriph_Driver/src/stm32f4xx_rtc.c **** 
1431:/home/rdu/Workspace/project_templates/mcu/stm32_ws/src/libraries/STM32F4xx_StdPeriph_Driver/src/stm32f4xx_rtc.c ****   /* Enable the write protection for RTC registers */
1432:/home/rdu/Workspace/project_templates/mcu/stm32_ws/src/libraries/STM32F4xx_StdPeriph_Driver/src/stm32f4xx_rtc.c ****   RTC->WPR = 0xFF;
 2101              		.loc 1 1432 0
 2102 0036 034B     		ldr	r3, .L135
 2103 0038 FF22     		movs	r2, #255
 2104 003a 5A62     		str	r2, [r3, #36]
1433:/home/rdu/Workspace/project_templates/mcu/stm32_ws/src/libraries/STM32F4xx_StdPeriph_Driver/src/stm32f4xx_rtc.c **** 
1434:/home/rdu/Workspace/project_templates/mcu/stm32_ws/src/libraries/STM32F4xx_StdPeriph_Driver/src/stm32f4xx_rtc.c **** }
 2105              		.loc 1 1434 0
 2106 003c 00BF     		nop
 2107 003e 06B0     		add	sp, sp, #24
 2108              	.LCFI48:
 2109              		.cfi_def_cfa_offset 0
 2110              		@ sp needed
 2111 0040 7047     		bx	lr
 2112              	.L136:
 2113 0042 00BF     		.align	2
 2114              	.L135:
 2115 0044 00280040 		.word	1073752064
 2116              		.cfi_endproc
 2117              	.LFE143:
 2119              		.section	.text.RTC_GetAlarmSubSecond,"ax",%progbits
 2120              		.align	1
 2121              		.global	RTC_GetAlarmSubSecond
 2122              		.syntax unified
 2123              		.thumb
 2124              		.thumb_func
 2125              		.fpu fpv4-sp-d16
 2127              	RTC_GetAlarmSubSecond:
 2128              	.LFB144:
1435:/home/rdu/Workspace/project_templates/mcu/stm32_ws/src/libraries/STM32F4xx_StdPeriph_Driver/src/stm32f4xx_rtc.c **** 
1436:/home/rdu/Workspace/project_templates/mcu/stm32_ws/src/libraries/STM32F4xx_StdPeriph_Driver/src/stm32f4xx_rtc.c **** /**
1437:/home/rdu/Workspace/project_templates/mcu/stm32_ws/src/libraries/STM32F4xx_StdPeriph_Driver/src/stm32f4xx_rtc.c ****   * @brief  Gets the RTC Alarm Sub seconds value.
1438:/home/rdu/Workspace/project_templates/mcu/stm32_ws/src/libraries/STM32F4xx_StdPeriph_Driver/src/stm32f4xx_rtc.c ****   * @param  RTC_Alarm: specifies the alarm to be read.
1439:/home/rdu/Workspace/project_templates/mcu/stm32_ws/src/libraries/STM32F4xx_StdPeriph_Driver/src/stm32f4xx_rtc.c ****   *   This parameter can be one of the following values:
1440:/home/rdu/Workspace/project_templates/mcu/stm32_ws/src/libraries/STM32F4xx_StdPeriph_Driver/src/stm32f4xx_rtc.c ****   *     @arg RTC_Alarm_A: to select Alarm A
1441:/home/rdu/Workspace/project_templates/mcu/stm32_ws/src/libraries/STM32F4xx_StdPeriph_Driver/src/stm32f4xx_rtc.c ****   *     @arg RTC_Alarm_B: to select Alarm B
1442:/home/rdu/Workspace/project_templates/mcu/stm32_ws/src/libraries/STM32F4xx_StdPeriph_Driver/src/stm32f4xx_rtc.c ****   * @param  None
1443:/home/rdu/Workspace/project_templates/mcu/stm32_ws/src/libraries/STM32F4xx_StdPeriph_Driver/src/stm32f4xx_rtc.c ****   * @retval RTC Alarm Sub seconds value.
1444:/home/rdu/Workspace/project_templates/mcu/stm32_ws/src/libraries/STM32F4xx_StdPeriph_Driver/src/stm32f4xx_rtc.c ****   */
1445:/home/rdu/Workspace/project_templates/mcu/stm32_ws/src/libraries/STM32F4xx_StdPeriph_Driver/src/stm32f4xx_rtc.c **** uint32_t RTC_GetAlarmSubSecond(uint32_t RTC_Alarm)
1446:/home/rdu/Workspace/project_templates/mcu/stm32_ws/src/libraries/STM32F4xx_StdPeriph_Driver/src/stm32f4xx_rtc.c **** {
 2129              		.loc 1 1446 0
 2130              		.cfi_startproc
 2131              		@ args = 0, pretend = 0, frame = 16
 2132              		@ frame_needed = 0, uses_anonymous_args = 0
 2133              		@ link register save eliminated.
 2134 0000 84B0     		sub	sp, sp, #16
 2135              	.LCFI49:
 2136              		.cfi_def_cfa_offset 16
 2137 0002 0190     		str	r0, [sp, #4]
1447:/home/rdu/Workspace/project_templates/mcu/stm32_ws/src/libraries/STM32F4xx_StdPeriph_Driver/src/stm32f4xx_rtc.c ****   uint32_t tmpreg = 0;
 2138              		.loc 1 1447 0
 2139 0004 0023     		movs	r3, #0
 2140 0006 0393     		str	r3, [sp, #12]
1448:/home/rdu/Workspace/project_templates/mcu/stm32_ws/src/libraries/STM32F4xx_StdPeriph_Driver/src/stm32f4xx_rtc.c ****   
1449:/home/rdu/Workspace/project_templates/mcu/stm32_ws/src/libraries/STM32F4xx_StdPeriph_Driver/src/stm32f4xx_rtc.c ****   /* Get the RTC_ALRMxR register */
1450:/home/rdu/Workspace/project_templates/mcu/stm32_ws/src/libraries/STM32F4xx_StdPeriph_Driver/src/stm32f4xx_rtc.c ****   if (RTC_Alarm == RTC_Alarm_A)
 2141              		.loc 1 1450 0
 2142 0008 019B     		ldr	r3, [sp, #4]
 2143 000a B3F5807F 		cmp	r3, #256
 2144 000e 05D1     		bne	.L138
1451:/home/rdu/Workspace/project_templates/mcu/stm32_ws/src/libraries/STM32F4xx_StdPeriph_Driver/src/stm32f4xx_rtc.c ****   {
1452:/home/rdu/Workspace/project_templates/mcu/stm32_ws/src/libraries/STM32F4xx_StdPeriph_Driver/src/stm32f4xx_rtc.c ****     tmpreg = (uint32_t)((RTC->ALRMASSR) & RTC_ALRMASSR_SS);
 2145              		.loc 1 1452 0
 2146 0010 074B     		ldr	r3, .L141
 2147 0012 5B6C     		ldr	r3, [r3, #68]
 2148 0014 C3F30E03 		ubfx	r3, r3, #0, #15
 2149 0018 0393     		str	r3, [sp, #12]
 2150 001a 04E0     		b	.L139
 2151              	.L138:
1453:/home/rdu/Workspace/project_templates/mcu/stm32_ws/src/libraries/STM32F4xx_StdPeriph_Driver/src/stm32f4xx_rtc.c ****   }
1454:/home/rdu/Workspace/project_templates/mcu/stm32_ws/src/libraries/STM32F4xx_StdPeriph_Driver/src/stm32f4xx_rtc.c ****   else
1455:/home/rdu/Workspace/project_templates/mcu/stm32_ws/src/libraries/STM32F4xx_StdPeriph_Driver/src/stm32f4xx_rtc.c ****   {
1456:/home/rdu/Workspace/project_templates/mcu/stm32_ws/src/libraries/STM32F4xx_StdPeriph_Driver/src/stm32f4xx_rtc.c ****     tmpreg = (uint32_t)((RTC->ALRMBSSR) & RTC_ALRMBSSR_SS);
 2152              		.loc 1 1456 0
 2153 001c 044B     		ldr	r3, .L141
 2154 001e 9B6C     		ldr	r3, [r3, #72]
 2155 0020 C3F30E03 		ubfx	r3, r3, #0, #15
 2156 0024 0393     		str	r3, [sp, #12]
 2157              	.L139:
1457:/home/rdu/Workspace/project_templates/mcu/stm32_ws/src/libraries/STM32F4xx_StdPeriph_Driver/src/stm32f4xx_rtc.c ****   } 
1458:/home/rdu/Workspace/project_templates/mcu/stm32_ws/src/libraries/STM32F4xx_StdPeriph_Driver/src/stm32f4xx_rtc.c ****   
1459:/home/rdu/Workspace/project_templates/mcu/stm32_ws/src/libraries/STM32F4xx_StdPeriph_Driver/src/stm32f4xx_rtc.c ****   return (tmpreg);
 2158              		.loc 1 1459 0
 2159 0026 039B     		ldr	r3, [sp, #12]
1460:/home/rdu/Workspace/project_templates/mcu/stm32_ws/src/libraries/STM32F4xx_StdPeriph_Driver/src/stm32f4xx_rtc.c **** }
 2160              		.loc 1 1460 0
 2161 0028 1846     		mov	r0, r3
 2162 002a 04B0     		add	sp, sp, #16
 2163              	.LCFI50:
 2164              		.cfi_def_cfa_offset 0
 2165              		@ sp needed
 2166 002c 7047     		bx	lr
 2167              	.L142:
 2168 002e 00BF     		.align	2
 2169              	.L141:
 2170 0030 00280040 		.word	1073752064
 2171              		.cfi_endproc
 2172              	.LFE144:
 2174              		.section	.text.RTC_WakeUpClockConfig,"ax",%progbits
 2175              		.align	1
 2176              		.global	RTC_WakeUpClockConfig
 2177              		.syntax unified
 2178              		.thumb
 2179              		.thumb_func
 2180              		.fpu fpv4-sp-d16
 2182              	RTC_WakeUpClockConfig:
 2183              	.LFB145:
1461:/home/rdu/Workspace/project_templates/mcu/stm32_ws/src/libraries/STM32F4xx_StdPeriph_Driver/src/stm32f4xx_rtc.c **** 
1462:/home/rdu/Workspace/project_templates/mcu/stm32_ws/src/libraries/STM32F4xx_StdPeriph_Driver/src/stm32f4xx_rtc.c **** /**
1463:/home/rdu/Workspace/project_templates/mcu/stm32_ws/src/libraries/STM32F4xx_StdPeriph_Driver/src/stm32f4xx_rtc.c ****   * @}
1464:/home/rdu/Workspace/project_templates/mcu/stm32_ws/src/libraries/STM32F4xx_StdPeriph_Driver/src/stm32f4xx_rtc.c ****   */
1465:/home/rdu/Workspace/project_templates/mcu/stm32_ws/src/libraries/STM32F4xx_StdPeriph_Driver/src/stm32f4xx_rtc.c **** 
1466:/home/rdu/Workspace/project_templates/mcu/stm32_ws/src/libraries/STM32F4xx_StdPeriph_Driver/src/stm32f4xx_rtc.c **** /** @defgroup RTC_Group4 WakeUp Timer configuration functions
1467:/home/rdu/Workspace/project_templates/mcu/stm32_ws/src/libraries/STM32F4xx_StdPeriph_Driver/src/stm32f4xx_rtc.c ****  *  @brief   WakeUp Timer configuration functions 
1468:/home/rdu/Workspace/project_templates/mcu/stm32_ws/src/libraries/STM32F4xx_StdPeriph_Driver/src/stm32f4xx_rtc.c ****  *
1469:/home/rdu/Workspace/project_templates/mcu/stm32_ws/src/libraries/STM32F4xx_StdPeriph_Driver/src/stm32f4xx_rtc.c **** @verbatim   
1470:/home/rdu/Workspace/project_templates/mcu/stm32_ws/src/libraries/STM32F4xx_StdPeriph_Driver/src/stm32f4xx_rtc.c ****  ===============================================================================
1471:/home/rdu/Workspace/project_templates/mcu/stm32_ws/src/libraries/STM32F4xx_StdPeriph_Driver/src/stm32f4xx_rtc.c ****                  ##### WakeUp Timer configuration functions #####
1472:/home/rdu/Workspace/project_templates/mcu/stm32_ws/src/libraries/STM32F4xx_StdPeriph_Driver/src/stm32f4xx_rtc.c ****  ===============================================================================  
1473:/home/rdu/Workspace/project_templates/mcu/stm32_ws/src/libraries/STM32F4xx_StdPeriph_Driver/src/stm32f4xx_rtc.c **** 
1474:/home/rdu/Workspace/project_templates/mcu/stm32_ws/src/libraries/STM32F4xx_StdPeriph_Driver/src/stm32f4xx_rtc.c ****  [..] This section provide functions allowing to program and read the RTC WakeUp.
1475:/home/rdu/Workspace/project_templates/mcu/stm32_ws/src/libraries/STM32F4xx_StdPeriph_Driver/src/stm32f4xx_rtc.c **** 
1476:/home/rdu/Workspace/project_templates/mcu/stm32_ws/src/libraries/STM32F4xx_StdPeriph_Driver/src/stm32f4xx_rtc.c **** @endverbatim
1477:/home/rdu/Workspace/project_templates/mcu/stm32_ws/src/libraries/STM32F4xx_StdPeriph_Driver/src/stm32f4xx_rtc.c ****   * @{
1478:/home/rdu/Workspace/project_templates/mcu/stm32_ws/src/libraries/STM32F4xx_StdPeriph_Driver/src/stm32f4xx_rtc.c ****   */
1479:/home/rdu/Workspace/project_templates/mcu/stm32_ws/src/libraries/STM32F4xx_StdPeriph_Driver/src/stm32f4xx_rtc.c **** 
1480:/home/rdu/Workspace/project_templates/mcu/stm32_ws/src/libraries/STM32F4xx_StdPeriph_Driver/src/stm32f4xx_rtc.c **** /**
1481:/home/rdu/Workspace/project_templates/mcu/stm32_ws/src/libraries/STM32F4xx_StdPeriph_Driver/src/stm32f4xx_rtc.c ****   * @brief  Configures the RTC Wakeup clock source.
1482:/home/rdu/Workspace/project_templates/mcu/stm32_ws/src/libraries/STM32F4xx_StdPeriph_Driver/src/stm32f4xx_rtc.c ****   * @note   The WakeUp Clock source can only be changed when the RTC WakeUp
1483:/home/rdu/Workspace/project_templates/mcu/stm32_ws/src/libraries/STM32F4xx_StdPeriph_Driver/src/stm32f4xx_rtc.c ****   *         is disabled (Use the RTC_WakeUpCmd(DISABLE)).      
1484:/home/rdu/Workspace/project_templates/mcu/stm32_ws/src/libraries/STM32F4xx_StdPeriph_Driver/src/stm32f4xx_rtc.c ****   * @param  RTC_WakeUpClock: Wakeup Clock source.
1485:/home/rdu/Workspace/project_templates/mcu/stm32_ws/src/libraries/STM32F4xx_StdPeriph_Driver/src/stm32f4xx_rtc.c ****   *          This parameter can be one of the following values:
1486:/home/rdu/Workspace/project_templates/mcu/stm32_ws/src/libraries/STM32F4xx_StdPeriph_Driver/src/stm32f4xx_rtc.c ****   *            @arg RTC_WakeUpClock_RTCCLK_Div16: RTC Wakeup Counter Clock = RTCCLK/16
1487:/home/rdu/Workspace/project_templates/mcu/stm32_ws/src/libraries/STM32F4xx_StdPeriph_Driver/src/stm32f4xx_rtc.c ****   *            @arg RTC_WakeUpClock_RTCCLK_Div8: RTC Wakeup Counter Clock = RTCCLK/8
1488:/home/rdu/Workspace/project_templates/mcu/stm32_ws/src/libraries/STM32F4xx_StdPeriph_Driver/src/stm32f4xx_rtc.c ****   *            @arg RTC_WakeUpClock_RTCCLK_Div4: RTC Wakeup Counter Clock = RTCCLK/4
1489:/home/rdu/Workspace/project_templates/mcu/stm32_ws/src/libraries/STM32F4xx_StdPeriph_Driver/src/stm32f4xx_rtc.c ****   *            @arg RTC_WakeUpClock_RTCCLK_Div2: RTC Wakeup Counter Clock = RTCCLK/2
1490:/home/rdu/Workspace/project_templates/mcu/stm32_ws/src/libraries/STM32F4xx_StdPeriph_Driver/src/stm32f4xx_rtc.c ****   *            @arg RTC_WakeUpClock_CK_SPRE_16bits: RTC Wakeup Counter Clock = CK_SPRE
1491:/home/rdu/Workspace/project_templates/mcu/stm32_ws/src/libraries/STM32F4xx_StdPeriph_Driver/src/stm32f4xx_rtc.c ****   *            @arg RTC_WakeUpClock_CK_SPRE_17bits: RTC Wakeup Counter Clock = CK_SPRE
1492:/home/rdu/Workspace/project_templates/mcu/stm32_ws/src/libraries/STM32F4xx_StdPeriph_Driver/src/stm32f4xx_rtc.c ****   * @retval None
1493:/home/rdu/Workspace/project_templates/mcu/stm32_ws/src/libraries/STM32F4xx_StdPeriph_Driver/src/stm32f4xx_rtc.c ****   */
1494:/home/rdu/Workspace/project_templates/mcu/stm32_ws/src/libraries/STM32F4xx_StdPeriph_Driver/src/stm32f4xx_rtc.c **** void RTC_WakeUpClockConfig(uint32_t RTC_WakeUpClock)
1495:/home/rdu/Workspace/project_templates/mcu/stm32_ws/src/libraries/STM32F4xx_StdPeriph_Driver/src/stm32f4xx_rtc.c **** {
 2184              		.loc 1 1495 0
 2185              		.cfi_startproc
 2186              		@ args = 0, pretend = 0, frame = 8
 2187              		@ frame_needed = 0, uses_anonymous_args = 0
 2188              		@ link register save eliminated.
 2189 0000 82B0     		sub	sp, sp, #8
 2190              	.LCFI51:
 2191              		.cfi_def_cfa_offset 8
 2192 0002 0190     		str	r0, [sp, #4]
1496:/home/rdu/Workspace/project_templates/mcu/stm32_ws/src/libraries/STM32F4xx_StdPeriph_Driver/src/stm32f4xx_rtc.c ****   /* Check the parameters */
1497:/home/rdu/Workspace/project_templates/mcu/stm32_ws/src/libraries/STM32F4xx_StdPeriph_Driver/src/stm32f4xx_rtc.c ****   assert_param(IS_RTC_WAKEUP_CLOCK(RTC_WakeUpClock));
1498:/home/rdu/Workspace/project_templates/mcu/stm32_ws/src/libraries/STM32F4xx_StdPeriph_Driver/src/stm32f4xx_rtc.c **** 
1499:/home/rdu/Workspace/project_templates/mcu/stm32_ws/src/libraries/STM32F4xx_StdPeriph_Driver/src/stm32f4xx_rtc.c ****   /* Disable the write protection for RTC registers */
1500:/home/rdu/Workspace/project_templates/mcu/stm32_ws/src/libraries/STM32F4xx_StdPeriph_Driver/src/stm32f4xx_rtc.c ****   RTC->WPR = 0xCA;
 2193              		.loc 1 1500 0
 2194 0004 0B4B     		ldr	r3, .L144
 2195 0006 CA22     		movs	r2, #202
 2196 0008 5A62     		str	r2, [r3, #36]
1501:/home/rdu/Workspace/project_templates/mcu/stm32_ws/src/libraries/STM32F4xx_StdPeriph_Driver/src/stm32f4xx_rtc.c ****   RTC->WPR = 0x53;
 2197              		.loc 1 1501 0
 2198 000a 0A4B     		ldr	r3, .L144
 2199 000c 5322     		movs	r2, #83
 2200 000e 5A62     		str	r2, [r3, #36]
1502:/home/rdu/Workspace/project_templates/mcu/stm32_ws/src/libraries/STM32F4xx_StdPeriph_Driver/src/stm32f4xx_rtc.c **** 
1503:/home/rdu/Workspace/project_templates/mcu/stm32_ws/src/libraries/STM32F4xx_StdPeriph_Driver/src/stm32f4xx_rtc.c ****   /* Clear the Wakeup Timer clock source bits in CR register */
1504:/home/rdu/Workspace/project_templates/mcu/stm32_ws/src/libraries/STM32F4xx_StdPeriph_Driver/src/stm32f4xx_rtc.c ****   RTC->CR &= (uint32_t)~RTC_CR_WUCKSEL;
 2201              		.loc 1 1504 0
 2202 0010 084B     		ldr	r3, .L144
 2203 0012 9B68     		ldr	r3, [r3, #8]
 2204 0014 074A     		ldr	r2, .L144
 2205 0016 23F00703 		bic	r3, r3, #7
 2206 001a 9360     		str	r3, [r2, #8]
1505:/home/rdu/Workspace/project_templates/mcu/stm32_ws/src/libraries/STM32F4xx_StdPeriph_Driver/src/stm32f4xx_rtc.c **** 
1506:/home/rdu/Workspace/project_templates/mcu/stm32_ws/src/libraries/STM32F4xx_StdPeriph_Driver/src/stm32f4xx_rtc.c ****   /* Configure the clock source */
1507:/home/rdu/Workspace/project_templates/mcu/stm32_ws/src/libraries/STM32F4xx_StdPeriph_Driver/src/stm32f4xx_rtc.c ****   RTC->CR |= (uint32_t)RTC_WakeUpClock;
 2207              		.loc 1 1507 0
 2208 001c 054B     		ldr	r3, .L144
 2209 001e 9A68     		ldr	r2, [r3, #8]
 2210 0020 0449     		ldr	r1, .L144
 2211 0022 019B     		ldr	r3, [sp, #4]
 2212 0024 1343     		orrs	r3, r3, r2
 2213 0026 8B60     		str	r3, [r1, #8]
1508:/home/rdu/Workspace/project_templates/mcu/stm32_ws/src/libraries/STM32F4xx_StdPeriph_Driver/src/stm32f4xx_rtc.c ****   
1509:/home/rdu/Workspace/project_templates/mcu/stm32_ws/src/libraries/STM32F4xx_StdPeriph_Driver/src/stm32f4xx_rtc.c ****   /* Enable the write protection for RTC registers */
1510:/home/rdu/Workspace/project_templates/mcu/stm32_ws/src/libraries/STM32F4xx_StdPeriph_Driver/src/stm32f4xx_rtc.c ****   RTC->WPR = 0xFF; 
 2214              		.loc 1 1510 0
 2215 0028 024B     		ldr	r3, .L144
 2216 002a FF22     		movs	r2, #255
 2217 002c 5A62     		str	r2, [r3, #36]
1511:/home/rdu/Workspace/project_templates/mcu/stm32_ws/src/libraries/STM32F4xx_StdPeriph_Driver/src/stm32f4xx_rtc.c **** }
 2218              		.loc 1 1511 0
 2219 002e 00BF     		nop
 2220 0030 02B0     		add	sp, sp, #8
 2221              	.LCFI52:
 2222              		.cfi_def_cfa_offset 0
 2223              		@ sp needed
 2224 0032 7047     		bx	lr
 2225              	.L145:
 2226              		.align	2
 2227              	.L144:
 2228 0034 00280040 		.word	1073752064
 2229              		.cfi_endproc
 2230              	.LFE145:
 2232              		.section	.text.RTC_SetWakeUpCounter,"ax",%progbits
 2233              		.align	1
 2234              		.global	RTC_SetWakeUpCounter
 2235              		.syntax unified
 2236              		.thumb
 2237              		.thumb_func
 2238              		.fpu fpv4-sp-d16
 2240              	RTC_SetWakeUpCounter:
 2241              	.LFB146:
1512:/home/rdu/Workspace/project_templates/mcu/stm32_ws/src/libraries/STM32F4xx_StdPeriph_Driver/src/stm32f4xx_rtc.c **** 
1513:/home/rdu/Workspace/project_templates/mcu/stm32_ws/src/libraries/STM32F4xx_StdPeriph_Driver/src/stm32f4xx_rtc.c **** /**
1514:/home/rdu/Workspace/project_templates/mcu/stm32_ws/src/libraries/STM32F4xx_StdPeriph_Driver/src/stm32f4xx_rtc.c ****   * @brief  Configures the RTC Wakeup counter.
1515:/home/rdu/Workspace/project_templates/mcu/stm32_ws/src/libraries/STM32F4xx_StdPeriph_Driver/src/stm32f4xx_rtc.c ****   * @note   The RTC WakeUp counter can only be written when the RTC WakeUp
1516:/home/rdu/Workspace/project_templates/mcu/stm32_ws/src/libraries/STM32F4xx_StdPeriph_Driver/src/stm32f4xx_rtc.c ****   *         is disabled (Use the RTC_WakeUpCmd(DISABLE)).        
1517:/home/rdu/Workspace/project_templates/mcu/stm32_ws/src/libraries/STM32F4xx_StdPeriph_Driver/src/stm32f4xx_rtc.c ****   * @param  RTC_WakeUpCounter: specifies the WakeUp counter.
1518:/home/rdu/Workspace/project_templates/mcu/stm32_ws/src/libraries/STM32F4xx_StdPeriph_Driver/src/stm32f4xx_rtc.c ****   *          This parameter can be a value from 0x0000 to 0xFFFF. 
1519:/home/rdu/Workspace/project_templates/mcu/stm32_ws/src/libraries/STM32F4xx_StdPeriph_Driver/src/stm32f4xx_rtc.c ****   * @retval None
1520:/home/rdu/Workspace/project_templates/mcu/stm32_ws/src/libraries/STM32F4xx_StdPeriph_Driver/src/stm32f4xx_rtc.c ****   */
1521:/home/rdu/Workspace/project_templates/mcu/stm32_ws/src/libraries/STM32F4xx_StdPeriph_Driver/src/stm32f4xx_rtc.c **** void RTC_SetWakeUpCounter(uint32_t RTC_WakeUpCounter)
1522:/home/rdu/Workspace/project_templates/mcu/stm32_ws/src/libraries/STM32F4xx_StdPeriph_Driver/src/stm32f4xx_rtc.c **** {
 2242              		.loc 1 1522 0
 2243              		.cfi_startproc
 2244              		@ args = 0, pretend = 0, frame = 8
 2245              		@ frame_needed = 0, uses_anonymous_args = 0
 2246              		@ link register save eliminated.
 2247 0000 82B0     		sub	sp, sp, #8
 2248              	.LCFI53:
 2249              		.cfi_def_cfa_offset 8
 2250 0002 0190     		str	r0, [sp, #4]
1523:/home/rdu/Workspace/project_templates/mcu/stm32_ws/src/libraries/STM32F4xx_StdPeriph_Driver/src/stm32f4xx_rtc.c ****   /* Check the parameters */
1524:/home/rdu/Workspace/project_templates/mcu/stm32_ws/src/libraries/STM32F4xx_StdPeriph_Driver/src/stm32f4xx_rtc.c ****   assert_param(IS_RTC_WAKEUP_COUNTER(RTC_WakeUpCounter));
1525:/home/rdu/Workspace/project_templates/mcu/stm32_ws/src/libraries/STM32F4xx_StdPeriph_Driver/src/stm32f4xx_rtc.c ****   
1526:/home/rdu/Workspace/project_templates/mcu/stm32_ws/src/libraries/STM32F4xx_StdPeriph_Driver/src/stm32f4xx_rtc.c ****   /* Disable the write protection for RTC registers */
1527:/home/rdu/Workspace/project_templates/mcu/stm32_ws/src/libraries/STM32F4xx_StdPeriph_Driver/src/stm32f4xx_rtc.c ****   RTC->WPR = 0xCA;
 2251              		.loc 1 1527 0
 2252 0004 074B     		ldr	r3, .L147
 2253 0006 CA22     		movs	r2, #202
 2254 0008 5A62     		str	r2, [r3, #36]
1528:/home/rdu/Workspace/project_templates/mcu/stm32_ws/src/libraries/STM32F4xx_StdPeriph_Driver/src/stm32f4xx_rtc.c ****   RTC->WPR = 0x53;
 2255              		.loc 1 1528 0
 2256 000a 064B     		ldr	r3, .L147
 2257 000c 5322     		movs	r2, #83
 2258 000e 5A62     		str	r2, [r3, #36]
1529:/home/rdu/Workspace/project_templates/mcu/stm32_ws/src/libraries/STM32F4xx_StdPeriph_Driver/src/stm32f4xx_rtc.c ****   
1530:/home/rdu/Workspace/project_templates/mcu/stm32_ws/src/libraries/STM32F4xx_StdPeriph_Driver/src/stm32f4xx_rtc.c ****   /* Configure the Wakeup Timer counter */
1531:/home/rdu/Workspace/project_templates/mcu/stm32_ws/src/libraries/STM32F4xx_StdPeriph_Driver/src/stm32f4xx_rtc.c ****   RTC->WUTR = (uint32_t)RTC_WakeUpCounter;
 2259              		.loc 1 1531 0
 2260 0010 044A     		ldr	r2, .L147
 2261 0012 019B     		ldr	r3, [sp, #4]
 2262 0014 5361     		str	r3, [r2, #20]
1532:/home/rdu/Workspace/project_templates/mcu/stm32_ws/src/libraries/STM32F4xx_StdPeriph_Driver/src/stm32f4xx_rtc.c ****   
1533:/home/rdu/Workspace/project_templates/mcu/stm32_ws/src/libraries/STM32F4xx_StdPeriph_Driver/src/stm32f4xx_rtc.c ****   /* Enable the write protection for RTC registers */
1534:/home/rdu/Workspace/project_templates/mcu/stm32_ws/src/libraries/STM32F4xx_StdPeriph_Driver/src/stm32f4xx_rtc.c ****   RTC->WPR = 0xFF; 
 2263              		.loc 1 1534 0
 2264 0016 034B     		ldr	r3, .L147
 2265 0018 FF22     		movs	r2, #255
 2266 001a 5A62     		str	r2, [r3, #36]
1535:/home/rdu/Workspace/project_templates/mcu/stm32_ws/src/libraries/STM32F4xx_StdPeriph_Driver/src/stm32f4xx_rtc.c **** }
 2267              		.loc 1 1535 0
 2268 001c 00BF     		nop
 2269 001e 02B0     		add	sp, sp, #8
 2270              	.LCFI54:
 2271              		.cfi_def_cfa_offset 0
 2272              		@ sp needed
 2273 0020 7047     		bx	lr
 2274              	.L148:
 2275 0022 00BF     		.align	2
 2276              	.L147:
 2277 0024 00280040 		.word	1073752064
 2278              		.cfi_endproc
 2279              	.LFE146:
 2281              		.section	.text.RTC_GetWakeUpCounter,"ax",%progbits
 2282              		.align	1
 2283              		.global	RTC_GetWakeUpCounter
 2284              		.syntax unified
 2285              		.thumb
 2286              		.thumb_func
 2287              		.fpu fpv4-sp-d16
 2289              	RTC_GetWakeUpCounter:
 2290              	.LFB147:
1536:/home/rdu/Workspace/project_templates/mcu/stm32_ws/src/libraries/STM32F4xx_StdPeriph_Driver/src/stm32f4xx_rtc.c **** 
1537:/home/rdu/Workspace/project_templates/mcu/stm32_ws/src/libraries/STM32F4xx_StdPeriph_Driver/src/stm32f4xx_rtc.c **** /**
1538:/home/rdu/Workspace/project_templates/mcu/stm32_ws/src/libraries/STM32F4xx_StdPeriph_Driver/src/stm32f4xx_rtc.c ****   * @brief  Returns the RTC WakeUp timer counter value.
1539:/home/rdu/Workspace/project_templates/mcu/stm32_ws/src/libraries/STM32F4xx_StdPeriph_Driver/src/stm32f4xx_rtc.c ****   * @param  None
1540:/home/rdu/Workspace/project_templates/mcu/stm32_ws/src/libraries/STM32F4xx_StdPeriph_Driver/src/stm32f4xx_rtc.c ****   * @retval The RTC WakeUp Counter value.
1541:/home/rdu/Workspace/project_templates/mcu/stm32_ws/src/libraries/STM32F4xx_StdPeriph_Driver/src/stm32f4xx_rtc.c ****   */
1542:/home/rdu/Workspace/project_templates/mcu/stm32_ws/src/libraries/STM32F4xx_StdPeriph_Driver/src/stm32f4xx_rtc.c **** uint32_t RTC_GetWakeUpCounter(void)
1543:/home/rdu/Workspace/project_templates/mcu/stm32_ws/src/libraries/STM32F4xx_StdPeriph_Driver/src/stm32f4xx_rtc.c **** {
 2291              		.loc 1 1543 0
 2292              		.cfi_startproc
 2293              		@ args = 0, pretend = 0, frame = 0
 2294              		@ frame_needed = 0, uses_anonymous_args = 0
 2295              		@ link register save eliminated.
1544:/home/rdu/Workspace/project_templates/mcu/stm32_ws/src/libraries/STM32F4xx_StdPeriph_Driver/src/stm32f4xx_rtc.c ****   /* Get the counter value */
1545:/home/rdu/Workspace/project_templates/mcu/stm32_ws/src/libraries/STM32F4xx_StdPeriph_Driver/src/stm32f4xx_rtc.c ****   return ((uint32_t)(RTC->WUTR & RTC_WUTR_WUT));
 2296              		.loc 1 1545 0
 2297 0000 024B     		ldr	r3, .L151
 2298 0002 5B69     		ldr	r3, [r3, #20]
 2299 0004 9BB2     		uxth	r3, r3
1546:/home/rdu/Workspace/project_templates/mcu/stm32_ws/src/libraries/STM32F4xx_StdPeriph_Driver/src/stm32f4xx_rtc.c **** }
 2300              		.loc 1 1546 0
 2301 0006 1846     		mov	r0, r3
 2302 0008 7047     		bx	lr
 2303              	.L152:
 2304 000a 00BF     		.align	2
 2305              	.L151:
 2306 000c 00280040 		.word	1073752064
 2307              		.cfi_endproc
 2308              	.LFE147:
 2310              		.section	.text.RTC_WakeUpCmd,"ax",%progbits
 2311              		.align	1
 2312              		.global	RTC_WakeUpCmd
 2313              		.syntax unified
 2314              		.thumb
 2315              		.thumb_func
 2316              		.fpu fpv4-sp-d16
 2318              	RTC_WakeUpCmd:
 2319              	.LFB148:
1547:/home/rdu/Workspace/project_templates/mcu/stm32_ws/src/libraries/STM32F4xx_StdPeriph_Driver/src/stm32f4xx_rtc.c **** 
1548:/home/rdu/Workspace/project_templates/mcu/stm32_ws/src/libraries/STM32F4xx_StdPeriph_Driver/src/stm32f4xx_rtc.c **** /**
1549:/home/rdu/Workspace/project_templates/mcu/stm32_ws/src/libraries/STM32F4xx_StdPeriph_Driver/src/stm32f4xx_rtc.c ****   * @brief  Enables or Disables the RTC WakeUp timer.
1550:/home/rdu/Workspace/project_templates/mcu/stm32_ws/src/libraries/STM32F4xx_StdPeriph_Driver/src/stm32f4xx_rtc.c ****   * @param  NewState: new state of the WakeUp timer.
1551:/home/rdu/Workspace/project_templates/mcu/stm32_ws/src/libraries/STM32F4xx_StdPeriph_Driver/src/stm32f4xx_rtc.c ****   *          This parameter can be: ENABLE or DISABLE.
1552:/home/rdu/Workspace/project_templates/mcu/stm32_ws/src/libraries/STM32F4xx_StdPeriph_Driver/src/stm32f4xx_rtc.c ****   * @retval None
1553:/home/rdu/Workspace/project_templates/mcu/stm32_ws/src/libraries/STM32F4xx_StdPeriph_Driver/src/stm32f4xx_rtc.c ****   */
1554:/home/rdu/Workspace/project_templates/mcu/stm32_ws/src/libraries/STM32F4xx_StdPeriph_Driver/src/stm32f4xx_rtc.c **** ErrorStatus RTC_WakeUpCmd(FunctionalState NewState)
1555:/home/rdu/Workspace/project_templates/mcu/stm32_ws/src/libraries/STM32F4xx_StdPeriph_Driver/src/stm32f4xx_rtc.c **** {
 2320              		.loc 1 1555 0
 2321              		.cfi_startproc
 2322              		@ args = 0, pretend = 0, frame = 24
 2323              		@ frame_needed = 0, uses_anonymous_args = 0
 2324              		@ link register save eliminated.
 2325 0000 86B0     		sub	sp, sp, #24
 2326              	.LCFI55:
 2327              		.cfi_def_cfa_offset 24
 2328 0002 0346     		mov	r3, r0
 2329 0004 8DF80730 		strb	r3, [sp, #7]
1556:/home/rdu/Workspace/project_templates/mcu/stm32_ws/src/libraries/STM32F4xx_StdPeriph_Driver/src/stm32f4xx_rtc.c ****   __IO uint32_t wutcounter = 0x00;
 2330              		.loc 1 1556 0
 2331 0008 0023     		movs	r3, #0
 2332 000a 0393     		str	r3, [sp, #12]
1557:/home/rdu/Workspace/project_templates/mcu/stm32_ws/src/libraries/STM32F4xx_StdPeriph_Driver/src/stm32f4xx_rtc.c ****   uint32_t wutwfstatus = 0x00;
 2333              		.loc 1 1557 0
 2334 000c 0023     		movs	r3, #0
 2335 000e 0493     		str	r3, [sp, #16]
1558:/home/rdu/Workspace/project_templates/mcu/stm32_ws/src/libraries/STM32F4xx_StdPeriph_Driver/src/stm32f4xx_rtc.c ****   ErrorStatus status = ERROR;
 2336              		.loc 1 1558 0
 2337 0010 0023     		movs	r3, #0
 2338 0012 8DF81730 		strb	r3, [sp, #23]
1559:/home/rdu/Workspace/project_templates/mcu/stm32_ws/src/libraries/STM32F4xx_StdPeriph_Driver/src/stm32f4xx_rtc.c ****   
1560:/home/rdu/Workspace/project_templates/mcu/stm32_ws/src/libraries/STM32F4xx_StdPeriph_Driver/src/stm32f4xx_rtc.c ****   /* Check the parameters */
1561:/home/rdu/Workspace/project_templates/mcu/stm32_ws/src/libraries/STM32F4xx_StdPeriph_Driver/src/stm32f4xx_rtc.c ****   assert_param(IS_FUNCTIONAL_STATE(NewState));
1562:/home/rdu/Workspace/project_templates/mcu/stm32_ws/src/libraries/STM32F4xx_StdPeriph_Driver/src/stm32f4xx_rtc.c **** 
1563:/home/rdu/Workspace/project_templates/mcu/stm32_ws/src/libraries/STM32F4xx_StdPeriph_Driver/src/stm32f4xx_rtc.c ****   /* Disable the write protection for RTC registers */
1564:/home/rdu/Workspace/project_templates/mcu/stm32_ws/src/libraries/STM32F4xx_StdPeriph_Driver/src/stm32f4xx_rtc.c ****   RTC->WPR = 0xCA;
 2339              		.loc 1 1564 0
 2340 0016 1F4B     		ldr	r3, .L160
 2341 0018 CA22     		movs	r2, #202
 2342 001a 5A62     		str	r2, [r3, #36]
1565:/home/rdu/Workspace/project_templates/mcu/stm32_ws/src/libraries/STM32F4xx_StdPeriph_Driver/src/stm32f4xx_rtc.c ****   RTC->WPR = 0x53;
 2343              		.loc 1 1565 0
 2344 001c 1D4B     		ldr	r3, .L160
 2345 001e 5322     		movs	r2, #83
 2346 0020 5A62     		str	r2, [r3, #36]
1566:/home/rdu/Workspace/project_templates/mcu/stm32_ws/src/libraries/STM32F4xx_StdPeriph_Driver/src/stm32f4xx_rtc.c **** 
1567:/home/rdu/Workspace/project_templates/mcu/stm32_ws/src/libraries/STM32F4xx_StdPeriph_Driver/src/stm32f4xx_rtc.c ****   if (NewState != DISABLE)
 2347              		.loc 1 1567 0
 2348 0022 9DF80730 		ldrb	r3, [sp, #7]	@ zero_extendqisi2
 2349 0026 002B     		cmp	r3, #0
 2350 0028 09D0     		beq	.L154
1568:/home/rdu/Workspace/project_templates/mcu/stm32_ws/src/libraries/STM32F4xx_StdPeriph_Driver/src/stm32f4xx_rtc.c ****   {
1569:/home/rdu/Workspace/project_templates/mcu/stm32_ws/src/libraries/STM32F4xx_StdPeriph_Driver/src/stm32f4xx_rtc.c ****     /* Enable the Wakeup Timer */
1570:/home/rdu/Workspace/project_templates/mcu/stm32_ws/src/libraries/STM32F4xx_StdPeriph_Driver/src/stm32f4xx_rtc.c ****     RTC->CR |= (uint32_t)RTC_CR_WUTE;
 2351              		.loc 1 1570 0
 2352 002a 1A4B     		ldr	r3, .L160
 2353 002c 9B68     		ldr	r3, [r3, #8]
 2354 002e 194A     		ldr	r2, .L160
 2355 0030 43F48063 		orr	r3, r3, #1024
 2356 0034 9360     		str	r3, [r2, #8]
1571:/home/rdu/Workspace/project_templates/mcu/stm32_ws/src/libraries/STM32F4xx_StdPeriph_Driver/src/stm32f4xx_rtc.c ****     status = SUCCESS;    
 2357              		.loc 1 1571 0
 2358 0036 0123     		movs	r3, #1
 2359 0038 8DF81730 		strb	r3, [sp, #23]
 2360 003c 21E0     		b	.L155
 2361              	.L154:
1572:/home/rdu/Workspace/project_templates/mcu/stm32_ws/src/libraries/STM32F4xx_StdPeriph_Driver/src/stm32f4xx_rtc.c ****   }
1573:/home/rdu/Workspace/project_templates/mcu/stm32_ws/src/libraries/STM32F4xx_StdPeriph_Driver/src/stm32f4xx_rtc.c ****   else
1574:/home/rdu/Workspace/project_templates/mcu/stm32_ws/src/libraries/STM32F4xx_StdPeriph_Driver/src/stm32f4xx_rtc.c ****   {
1575:/home/rdu/Workspace/project_templates/mcu/stm32_ws/src/libraries/STM32F4xx_StdPeriph_Driver/src/stm32f4xx_rtc.c ****     /* Disable the Wakeup Timer */
1576:/home/rdu/Workspace/project_templates/mcu/stm32_ws/src/libraries/STM32F4xx_StdPeriph_Driver/src/stm32f4xx_rtc.c ****     RTC->CR &= (uint32_t)~RTC_CR_WUTE;
 2362              		.loc 1 1576 0
 2363 003e 154B     		ldr	r3, .L160
 2364 0040 9B68     		ldr	r3, [r3, #8]
 2365 0042 144A     		ldr	r2, .L160
 2366 0044 23F48063 		bic	r3, r3, #1024
 2367 0048 9360     		str	r3, [r2, #8]
 2368              	.L157:
1577:/home/rdu/Workspace/project_templates/mcu/stm32_ws/src/libraries/STM32F4xx_StdPeriph_Driver/src/stm32f4xx_rtc.c ****     /* Wait till RTC WUTWF flag is set and if Time out is reached exit */
1578:/home/rdu/Workspace/project_templates/mcu/stm32_ws/src/libraries/STM32F4xx_StdPeriph_Driver/src/stm32f4xx_rtc.c ****     do
1579:/home/rdu/Workspace/project_templates/mcu/stm32_ws/src/libraries/STM32F4xx_StdPeriph_Driver/src/stm32f4xx_rtc.c ****     {
1580:/home/rdu/Workspace/project_templates/mcu/stm32_ws/src/libraries/STM32F4xx_StdPeriph_Driver/src/stm32f4xx_rtc.c ****       wutwfstatus = RTC->ISR & RTC_ISR_WUTWF;
 2369              		.loc 1 1580 0 discriminator 2
 2370 004a 124B     		ldr	r3, .L160
 2371 004c DB68     		ldr	r3, [r3, #12]
 2372 004e 03F00403 		and	r3, r3, #4
 2373 0052 0493     		str	r3, [sp, #16]
1581:/home/rdu/Workspace/project_templates/mcu/stm32_ws/src/libraries/STM32F4xx_StdPeriph_Driver/src/stm32f4xx_rtc.c ****       wutcounter++;  
 2374              		.loc 1 1581 0 discriminator 2
 2375 0054 039B     		ldr	r3, [sp, #12]
 2376 0056 0133     		adds	r3, r3, #1
 2377 0058 0393     		str	r3, [sp, #12]
1582:/home/rdu/Workspace/project_templates/mcu/stm32_ws/src/libraries/STM32F4xx_StdPeriph_Driver/src/stm32f4xx_rtc.c ****     } while((wutcounter != INITMODE_TIMEOUT) && (wutwfstatus == 0x00));
 2378              		.loc 1 1582 0 discriminator 2
 2379 005a 039B     		ldr	r3, [sp, #12]
 2380 005c B3F5803F 		cmp	r3, #65536
 2381 0060 02D0     		beq	.L156
 2382              		.loc 1 1582 0 is_stmt 0 discriminator 1
 2383 0062 049B     		ldr	r3, [sp, #16]
 2384 0064 002B     		cmp	r3, #0
 2385 0066 F0D0     		beq	.L157
 2386              	.L156:
1583:/home/rdu/Workspace/project_templates/mcu/stm32_ws/src/libraries/STM32F4xx_StdPeriph_Driver/src/stm32f4xx_rtc.c ****     
1584:/home/rdu/Workspace/project_templates/mcu/stm32_ws/src/libraries/STM32F4xx_StdPeriph_Driver/src/stm32f4xx_rtc.c ****     if ((RTC->ISR & RTC_ISR_WUTWF) == RESET)
 2387              		.loc 1 1584 0 is_stmt 1
 2388 0068 0A4B     		ldr	r3, .L160
 2389 006a DB68     		ldr	r3, [r3, #12]
 2390 006c 03F00403 		and	r3, r3, #4
 2391 0070 002B     		cmp	r3, #0
 2392 0072 03D1     		bne	.L158
1585:/home/rdu/Workspace/project_templates/mcu/stm32_ws/src/libraries/STM32F4xx_StdPeriph_Driver/src/stm32f4xx_rtc.c ****     {
1586:/home/rdu/Workspace/project_templates/mcu/stm32_ws/src/libraries/STM32F4xx_StdPeriph_Driver/src/stm32f4xx_rtc.c ****       status = ERROR;
 2393              		.loc 1 1586 0
 2394 0074 0023     		movs	r3, #0
 2395 0076 8DF81730 		strb	r3, [sp, #23]
 2396 007a 02E0     		b	.L155
 2397              	.L158:
1587:/home/rdu/Workspace/project_templates/mcu/stm32_ws/src/libraries/STM32F4xx_StdPeriph_Driver/src/stm32f4xx_rtc.c ****     }
1588:/home/rdu/Workspace/project_templates/mcu/stm32_ws/src/libraries/STM32F4xx_StdPeriph_Driver/src/stm32f4xx_rtc.c ****     else
1589:/home/rdu/Workspace/project_templates/mcu/stm32_ws/src/libraries/STM32F4xx_StdPeriph_Driver/src/stm32f4xx_rtc.c ****     {
1590:/home/rdu/Workspace/project_templates/mcu/stm32_ws/src/libraries/STM32F4xx_StdPeriph_Driver/src/stm32f4xx_rtc.c ****       status = SUCCESS;
 2398              		.loc 1 1590 0
 2399 007c 0123     		movs	r3, #1
 2400 007e 8DF81730 		strb	r3, [sp, #23]
 2401              	.L155:
1591:/home/rdu/Workspace/project_templates/mcu/stm32_ws/src/libraries/STM32F4xx_StdPeriph_Driver/src/stm32f4xx_rtc.c ****     }    
1592:/home/rdu/Workspace/project_templates/mcu/stm32_ws/src/libraries/STM32F4xx_StdPeriph_Driver/src/stm32f4xx_rtc.c ****   }
1593:/home/rdu/Workspace/project_templates/mcu/stm32_ws/src/libraries/STM32F4xx_StdPeriph_Driver/src/stm32f4xx_rtc.c **** 
1594:/home/rdu/Workspace/project_templates/mcu/stm32_ws/src/libraries/STM32F4xx_StdPeriph_Driver/src/stm32f4xx_rtc.c ****   /* Enable the write protection for RTC registers */
1595:/home/rdu/Workspace/project_templates/mcu/stm32_ws/src/libraries/STM32F4xx_StdPeriph_Driver/src/stm32f4xx_rtc.c ****   RTC->WPR = 0xFF; 
 2402              		.loc 1 1595 0
 2403 0082 044B     		ldr	r3, .L160
 2404 0084 FF22     		movs	r2, #255
 2405 0086 5A62     		str	r2, [r3, #36]
1596:/home/rdu/Workspace/project_templates/mcu/stm32_ws/src/libraries/STM32F4xx_StdPeriph_Driver/src/stm32f4xx_rtc.c ****   
1597:/home/rdu/Workspace/project_templates/mcu/stm32_ws/src/libraries/STM32F4xx_StdPeriph_Driver/src/stm32f4xx_rtc.c ****   return status;
 2406              		.loc 1 1597 0
 2407 0088 9DF81730 		ldrb	r3, [sp, #23]	@ zero_extendqisi2
1598:/home/rdu/Workspace/project_templates/mcu/stm32_ws/src/libraries/STM32F4xx_StdPeriph_Driver/src/stm32f4xx_rtc.c **** }
 2408              		.loc 1 1598 0
 2409 008c 1846     		mov	r0, r3
 2410 008e 06B0     		add	sp, sp, #24
 2411              	.LCFI56:
 2412              		.cfi_def_cfa_offset 0
 2413              		@ sp needed
 2414 0090 7047     		bx	lr
 2415              	.L161:
 2416 0092 00BF     		.align	2
 2417              	.L160:
 2418 0094 00280040 		.word	1073752064
 2419              		.cfi_endproc
 2420              	.LFE148:
 2422              		.section	.text.RTC_DayLightSavingConfig,"ax",%progbits
 2423              		.align	1
 2424              		.global	RTC_DayLightSavingConfig
 2425              		.syntax unified
 2426              		.thumb
 2427              		.thumb_func
 2428              		.fpu fpv4-sp-d16
 2430              	RTC_DayLightSavingConfig:
 2431              	.LFB149:
1599:/home/rdu/Workspace/project_templates/mcu/stm32_ws/src/libraries/STM32F4xx_StdPeriph_Driver/src/stm32f4xx_rtc.c **** 
1600:/home/rdu/Workspace/project_templates/mcu/stm32_ws/src/libraries/STM32F4xx_StdPeriph_Driver/src/stm32f4xx_rtc.c **** /**
1601:/home/rdu/Workspace/project_templates/mcu/stm32_ws/src/libraries/STM32F4xx_StdPeriph_Driver/src/stm32f4xx_rtc.c ****   * @}
1602:/home/rdu/Workspace/project_templates/mcu/stm32_ws/src/libraries/STM32F4xx_StdPeriph_Driver/src/stm32f4xx_rtc.c ****   */
1603:/home/rdu/Workspace/project_templates/mcu/stm32_ws/src/libraries/STM32F4xx_StdPeriph_Driver/src/stm32f4xx_rtc.c **** 
1604:/home/rdu/Workspace/project_templates/mcu/stm32_ws/src/libraries/STM32F4xx_StdPeriph_Driver/src/stm32f4xx_rtc.c **** /** @defgroup RTC_Group5 Daylight Saving configuration functions
1605:/home/rdu/Workspace/project_templates/mcu/stm32_ws/src/libraries/STM32F4xx_StdPeriph_Driver/src/stm32f4xx_rtc.c ****  *  @brief   Daylight Saving configuration functions 
1606:/home/rdu/Workspace/project_templates/mcu/stm32_ws/src/libraries/STM32F4xx_StdPeriph_Driver/src/stm32f4xx_rtc.c ****  *
1607:/home/rdu/Workspace/project_templates/mcu/stm32_ws/src/libraries/STM32F4xx_StdPeriph_Driver/src/stm32f4xx_rtc.c **** @verbatim   
1608:/home/rdu/Workspace/project_templates/mcu/stm32_ws/src/libraries/STM32F4xx_StdPeriph_Driver/src/stm32f4xx_rtc.c ****  ===============================================================================
1609:/home/rdu/Workspace/project_templates/mcu/stm32_ws/src/libraries/STM32F4xx_StdPeriph_Driver/src/stm32f4xx_rtc.c ****               ##### Daylight Saving configuration functions #####
1610:/home/rdu/Workspace/project_templates/mcu/stm32_ws/src/libraries/STM32F4xx_StdPeriph_Driver/src/stm32f4xx_rtc.c ****  ===============================================================================  
1611:/home/rdu/Workspace/project_templates/mcu/stm32_ws/src/libraries/STM32F4xx_StdPeriph_Driver/src/stm32f4xx_rtc.c **** 
1612:/home/rdu/Workspace/project_templates/mcu/stm32_ws/src/libraries/STM32F4xx_StdPeriph_Driver/src/stm32f4xx_rtc.c ****  [..] This section provide functions allowing to configure the RTC DayLight Saving.
1613:/home/rdu/Workspace/project_templates/mcu/stm32_ws/src/libraries/STM32F4xx_StdPeriph_Driver/src/stm32f4xx_rtc.c **** 
1614:/home/rdu/Workspace/project_templates/mcu/stm32_ws/src/libraries/STM32F4xx_StdPeriph_Driver/src/stm32f4xx_rtc.c **** @endverbatim
1615:/home/rdu/Workspace/project_templates/mcu/stm32_ws/src/libraries/STM32F4xx_StdPeriph_Driver/src/stm32f4xx_rtc.c ****   * @{
1616:/home/rdu/Workspace/project_templates/mcu/stm32_ws/src/libraries/STM32F4xx_StdPeriph_Driver/src/stm32f4xx_rtc.c ****   */
1617:/home/rdu/Workspace/project_templates/mcu/stm32_ws/src/libraries/STM32F4xx_StdPeriph_Driver/src/stm32f4xx_rtc.c **** 
1618:/home/rdu/Workspace/project_templates/mcu/stm32_ws/src/libraries/STM32F4xx_StdPeriph_Driver/src/stm32f4xx_rtc.c **** /**
1619:/home/rdu/Workspace/project_templates/mcu/stm32_ws/src/libraries/STM32F4xx_StdPeriph_Driver/src/stm32f4xx_rtc.c ****   * @brief  Adds or substract one hour from the current time.
1620:/home/rdu/Workspace/project_templates/mcu/stm32_ws/src/libraries/STM32F4xx_StdPeriph_Driver/src/stm32f4xx_rtc.c ****   * @param  RTC_DayLightSaveOperation: the value of hour adjustment. 
1621:/home/rdu/Workspace/project_templates/mcu/stm32_ws/src/libraries/STM32F4xx_StdPeriph_Driver/src/stm32f4xx_rtc.c ****   *          This parameter can be one of the following values:
1622:/home/rdu/Workspace/project_templates/mcu/stm32_ws/src/libraries/STM32F4xx_StdPeriph_Driver/src/stm32f4xx_rtc.c ****   *            @arg RTC_DayLightSaving_SUB1H: Substract one hour (winter time)
1623:/home/rdu/Workspace/project_templates/mcu/stm32_ws/src/libraries/STM32F4xx_StdPeriph_Driver/src/stm32f4xx_rtc.c ****   *            @arg RTC_DayLightSaving_ADD1H: Add one hour (summer time)
1624:/home/rdu/Workspace/project_templates/mcu/stm32_ws/src/libraries/STM32F4xx_StdPeriph_Driver/src/stm32f4xx_rtc.c ****   * @param  RTC_StoreOperation: Specifies the value to be written in the BCK bit 
1625:/home/rdu/Workspace/project_templates/mcu/stm32_ws/src/libraries/STM32F4xx_StdPeriph_Driver/src/stm32f4xx_rtc.c ****   *                            in CR register to store the operation.
1626:/home/rdu/Workspace/project_templates/mcu/stm32_ws/src/libraries/STM32F4xx_StdPeriph_Driver/src/stm32f4xx_rtc.c ****   *          This parameter can be one of the following values:
1627:/home/rdu/Workspace/project_templates/mcu/stm32_ws/src/libraries/STM32F4xx_StdPeriph_Driver/src/stm32f4xx_rtc.c ****   *            @arg RTC_StoreOperation_Reset: BCK Bit Reset
1628:/home/rdu/Workspace/project_templates/mcu/stm32_ws/src/libraries/STM32F4xx_StdPeriph_Driver/src/stm32f4xx_rtc.c ****   *            @arg RTC_StoreOperation_Set: BCK Bit Set
1629:/home/rdu/Workspace/project_templates/mcu/stm32_ws/src/libraries/STM32F4xx_StdPeriph_Driver/src/stm32f4xx_rtc.c ****   * @retval None
1630:/home/rdu/Workspace/project_templates/mcu/stm32_ws/src/libraries/STM32F4xx_StdPeriph_Driver/src/stm32f4xx_rtc.c ****   */
1631:/home/rdu/Workspace/project_templates/mcu/stm32_ws/src/libraries/STM32F4xx_StdPeriph_Driver/src/stm32f4xx_rtc.c **** void RTC_DayLightSavingConfig(uint32_t RTC_DayLightSaving, uint32_t RTC_StoreOperation)
1632:/home/rdu/Workspace/project_templates/mcu/stm32_ws/src/libraries/STM32F4xx_StdPeriph_Driver/src/stm32f4xx_rtc.c **** {
 2432              		.loc 1 1632 0
 2433              		.cfi_startproc
 2434              		@ args = 0, pretend = 0, frame = 8
 2435              		@ frame_needed = 0, uses_anonymous_args = 0
 2436              		@ link register save eliminated.
 2437 0000 82B0     		sub	sp, sp, #8
 2438              	.LCFI57:
 2439              		.cfi_def_cfa_offset 8
 2440 0002 0190     		str	r0, [sp, #4]
 2441 0004 0091     		str	r1, [sp]
1633:/home/rdu/Workspace/project_templates/mcu/stm32_ws/src/libraries/STM32F4xx_StdPeriph_Driver/src/stm32f4xx_rtc.c ****   /* Check the parameters */
1634:/home/rdu/Workspace/project_templates/mcu/stm32_ws/src/libraries/STM32F4xx_StdPeriph_Driver/src/stm32f4xx_rtc.c ****   assert_param(IS_RTC_DAYLIGHT_SAVING(RTC_DayLightSaving));
1635:/home/rdu/Workspace/project_templates/mcu/stm32_ws/src/libraries/STM32F4xx_StdPeriph_Driver/src/stm32f4xx_rtc.c ****   assert_param(IS_RTC_STORE_OPERATION(RTC_StoreOperation));
1636:/home/rdu/Workspace/project_templates/mcu/stm32_ws/src/libraries/STM32F4xx_StdPeriph_Driver/src/stm32f4xx_rtc.c **** 
1637:/home/rdu/Workspace/project_templates/mcu/stm32_ws/src/libraries/STM32F4xx_StdPeriph_Driver/src/stm32f4xx_rtc.c ****   /* Disable the write protection for RTC registers */
1638:/home/rdu/Workspace/project_templates/mcu/stm32_ws/src/libraries/STM32F4xx_StdPeriph_Driver/src/stm32f4xx_rtc.c ****   RTC->WPR = 0xCA;
 2442              		.loc 1 1638 0
 2443 0006 0D4B     		ldr	r3, .L163
 2444 0008 CA22     		movs	r2, #202
 2445 000a 5A62     		str	r2, [r3, #36]
1639:/home/rdu/Workspace/project_templates/mcu/stm32_ws/src/libraries/STM32F4xx_StdPeriph_Driver/src/stm32f4xx_rtc.c ****   RTC->WPR = 0x53;
 2446              		.loc 1 1639 0
 2447 000c 0B4B     		ldr	r3, .L163
 2448 000e 5322     		movs	r2, #83
 2449 0010 5A62     		str	r2, [r3, #36]
1640:/home/rdu/Workspace/project_templates/mcu/stm32_ws/src/libraries/STM32F4xx_StdPeriph_Driver/src/stm32f4xx_rtc.c **** 
1641:/home/rdu/Workspace/project_templates/mcu/stm32_ws/src/libraries/STM32F4xx_StdPeriph_Driver/src/stm32f4xx_rtc.c ****   /* Clear the bits to be configured */
1642:/home/rdu/Workspace/project_templates/mcu/stm32_ws/src/libraries/STM32F4xx_StdPeriph_Driver/src/stm32f4xx_rtc.c ****   RTC->CR &= (uint32_t)~(RTC_CR_BCK);
 2450              		.loc 1 1642 0
 2451 0012 0A4B     		ldr	r3, .L163
 2452 0014 9B68     		ldr	r3, [r3, #8]
 2453 0016 094A     		ldr	r2, .L163
 2454 0018 23F48023 		bic	r3, r3, #262144
 2455 001c 9360     		str	r3, [r2, #8]
1643:/home/rdu/Workspace/project_templates/mcu/stm32_ws/src/libraries/STM32F4xx_StdPeriph_Driver/src/stm32f4xx_rtc.c **** 
1644:/home/rdu/Workspace/project_templates/mcu/stm32_ws/src/libraries/STM32F4xx_StdPeriph_Driver/src/stm32f4xx_rtc.c ****   /* Configure the RTC_CR register */
1645:/home/rdu/Workspace/project_templates/mcu/stm32_ws/src/libraries/STM32F4xx_StdPeriph_Driver/src/stm32f4xx_rtc.c ****   RTC->CR |= (uint32_t)(RTC_DayLightSaving | RTC_StoreOperation);
 2456              		.loc 1 1645 0
 2457 001e 074B     		ldr	r3, .L163
 2458 0020 9A68     		ldr	r2, [r3, #8]
 2459 0022 0199     		ldr	r1, [sp, #4]
 2460 0024 009B     		ldr	r3, [sp]
 2461 0026 0B43     		orrs	r3, r3, r1
 2462 0028 0449     		ldr	r1, .L163
 2463 002a 1343     		orrs	r3, r3, r2
 2464 002c 8B60     		str	r3, [r1, #8]
1646:/home/rdu/Workspace/project_templates/mcu/stm32_ws/src/libraries/STM32F4xx_StdPeriph_Driver/src/stm32f4xx_rtc.c **** 
1647:/home/rdu/Workspace/project_templates/mcu/stm32_ws/src/libraries/STM32F4xx_StdPeriph_Driver/src/stm32f4xx_rtc.c ****   /* Enable the write protection for RTC registers */
1648:/home/rdu/Workspace/project_templates/mcu/stm32_ws/src/libraries/STM32F4xx_StdPeriph_Driver/src/stm32f4xx_rtc.c ****   RTC->WPR = 0xFF; 
 2465              		.loc 1 1648 0
 2466 002e 034B     		ldr	r3, .L163
 2467 0030 FF22     		movs	r2, #255
 2468 0032 5A62     		str	r2, [r3, #36]
1649:/home/rdu/Workspace/project_templates/mcu/stm32_ws/src/libraries/STM32F4xx_StdPeriph_Driver/src/stm32f4xx_rtc.c **** }
 2469              		.loc 1 1649 0
 2470 0034 00BF     		nop
 2471 0036 02B0     		add	sp, sp, #8
 2472              	.LCFI58:
 2473              		.cfi_def_cfa_offset 0
 2474              		@ sp needed
 2475 0038 7047     		bx	lr
 2476              	.L164:
 2477 003a 00BF     		.align	2
 2478              	.L163:
 2479 003c 00280040 		.word	1073752064
 2480              		.cfi_endproc
 2481              	.LFE149:
 2483              		.section	.text.RTC_GetStoreOperation,"ax",%progbits
 2484              		.align	1
 2485              		.global	RTC_GetStoreOperation
 2486              		.syntax unified
 2487              		.thumb
 2488              		.thumb_func
 2489              		.fpu fpv4-sp-d16
 2491              	RTC_GetStoreOperation:
 2492              	.LFB150:
1650:/home/rdu/Workspace/project_templates/mcu/stm32_ws/src/libraries/STM32F4xx_StdPeriph_Driver/src/stm32f4xx_rtc.c **** 
1651:/home/rdu/Workspace/project_templates/mcu/stm32_ws/src/libraries/STM32F4xx_StdPeriph_Driver/src/stm32f4xx_rtc.c **** /**
1652:/home/rdu/Workspace/project_templates/mcu/stm32_ws/src/libraries/STM32F4xx_StdPeriph_Driver/src/stm32f4xx_rtc.c ****   * @brief  Returns the RTC Day Light Saving stored operation.
1653:/home/rdu/Workspace/project_templates/mcu/stm32_ws/src/libraries/STM32F4xx_StdPeriph_Driver/src/stm32f4xx_rtc.c ****   * @param  None
1654:/home/rdu/Workspace/project_templates/mcu/stm32_ws/src/libraries/STM32F4xx_StdPeriph_Driver/src/stm32f4xx_rtc.c ****   * @retval RTC Day Light Saving stored operation.
1655:/home/rdu/Workspace/project_templates/mcu/stm32_ws/src/libraries/STM32F4xx_StdPeriph_Driver/src/stm32f4xx_rtc.c ****   *          - RTC_StoreOperation_Reset
1656:/home/rdu/Workspace/project_templates/mcu/stm32_ws/src/libraries/STM32F4xx_StdPeriph_Driver/src/stm32f4xx_rtc.c ****   *          - RTC_StoreOperation_Set       
1657:/home/rdu/Workspace/project_templates/mcu/stm32_ws/src/libraries/STM32F4xx_StdPeriph_Driver/src/stm32f4xx_rtc.c ****   */
1658:/home/rdu/Workspace/project_templates/mcu/stm32_ws/src/libraries/STM32F4xx_StdPeriph_Driver/src/stm32f4xx_rtc.c **** uint32_t RTC_GetStoreOperation(void)
1659:/home/rdu/Workspace/project_templates/mcu/stm32_ws/src/libraries/STM32F4xx_StdPeriph_Driver/src/stm32f4xx_rtc.c **** {
 2493              		.loc 1 1659 0
 2494              		.cfi_startproc
 2495              		@ args = 0, pretend = 0, frame = 0
 2496              		@ frame_needed = 0, uses_anonymous_args = 0
 2497              		@ link register save eliminated.
1660:/home/rdu/Workspace/project_templates/mcu/stm32_ws/src/libraries/STM32F4xx_StdPeriph_Driver/src/stm32f4xx_rtc.c ****   return (RTC->CR & RTC_CR_BCK);
 2498              		.loc 1 1660 0
 2499 0000 024B     		ldr	r3, .L167
 2500 0002 9B68     		ldr	r3, [r3, #8]
 2501 0004 03F48023 		and	r3, r3, #262144
1661:/home/rdu/Workspace/project_templates/mcu/stm32_ws/src/libraries/STM32F4xx_StdPeriph_Driver/src/stm32f4xx_rtc.c **** }
 2502              		.loc 1 1661 0
 2503 0008 1846     		mov	r0, r3
 2504 000a 7047     		bx	lr
 2505              	.L168:
 2506              		.align	2
 2507              	.L167:
 2508 000c 00280040 		.word	1073752064
 2509              		.cfi_endproc
 2510              	.LFE150:
 2512              		.section	.text.RTC_OutputConfig,"ax",%progbits
 2513              		.align	1
 2514              		.global	RTC_OutputConfig
 2515              		.syntax unified
 2516              		.thumb
 2517              		.thumb_func
 2518              		.fpu fpv4-sp-d16
 2520              	RTC_OutputConfig:
 2521              	.LFB151:
1662:/home/rdu/Workspace/project_templates/mcu/stm32_ws/src/libraries/STM32F4xx_StdPeriph_Driver/src/stm32f4xx_rtc.c **** 
1663:/home/rdu/Workspace/project_templates/mcu/stm32_ws/src/libraries/STM32F4xx_StdPeriph_Driver/src/stm32f4xx_rtc.c **** /**
1664:/home/rdu/Workspace/project_templates/mcu/stm32_ws/src/libraries/STM32F4xx_StdPeriph_Driver/src/stm32f4xx_rtc.c ****   * @}
1665:/home/rdu/Workspace/project_templates/mcu/stm32_ws/src/libraries/STM32F4xx_StdPeriph_Driver/src/stm32f4xx_rtc.c ****   */
1666:/home/rdu/Workspace/project_templates/mcu/stm32_ws/src/libraries/STM32F4xx_StdPeriph_Driver/src/stm32f4xx_rtc.c **** 
1667:/home/rdu/Workspace/project_templates/mcu/stm32_ws/src/libraries/STM32F4xx_StdPeriph_Driver/src/stm32f4xx_rtc.c **** /** @defgroup RTC_Group6 Output pin Configuration function
1668:/home/rdu/Workspace/project_templates/mcu/stm32_ws/src/libraries/STM32F4xx_StdPeriph_Driver/src/stm32f4xx_rtc.c ****  *  @brief   Output pin Configuration function 
1669:/home/rdu/Workspace/project_templates/mcu/stm32_ws/src/libraries/STM32F4xx_StdPeriph_Driver/src/stm32f4xx_rtc.c ****  *
1670:/home/rdu/Workspace/project_templates/mcu/stm32_ws/src/libraries/STM32F4xx_StdPeriph_Driver/src/stm32f4xx_rtc.c **** @verbatim   
1671:/home/rdu/Workspace/project_templates/mcu/stm32_ws/src/libraries/STM32F4xx_StdPeriph_Driver/src/stm32f4xx_rtc.c ****  ===============================================================================
1672:/home/rdu/Workspace/project_templates/mcu/stm32_ws/src/libraries/STM32F4xx_StdPeriph_Driver/src/stm32f4xx_rtc.c ****                  ##### Output pin Configuration function #####
1673:/home/rdu/Workspace/project_templates/mcu/stm32_ws/src/libraries/STM32F4xx_StdPeriph_Driver/src/stm32f4xx_rtc.c ****  ===============================================================================  
1674:/home/rdu/Workspace/project_templates/mcu/stm32_ws/src/libraries/STM32F4xx_StdPeriph_Driver/src/stm32f4xx_rtc.c **** 
1675:/home/rdu/Workspace/project_templates/mcu/stm32_ws/src/libraries/STM32F4xx_StdPeriph_Driver/src/stm32f4xx_rtc.c ****  [..] This section provide functions allowing to configure the RTC Output source.
1676:/home/rdu/Workspace/project_templates/mcu/stm32_ws/src/libraries/STM32F4xx_StdPeriph_Driver/src/stm32f4xx_rtc.c **** 
1677:/home/rdu/Workspace/project_templates/mcu/stm32_ws/src/libraries/STM32F4xx_StdPeriph_Driver/src/stm32f4xx_rtc.c **** @endverbatim
1678:/home/rdu/Workspace/project_templates/mcu/stm32_ws/src/libraries/STM32F4xx_StdPeriph_Driver/src/stm32f4xx_rtc.c ****   * @{
1679:/home/rdu/Workspace/project_templates/mcu/stm32_ws/src/libraries/STM32F4xx_StdPeriph_Driver/src/stm32f4xx_rtc.c ****   */
1680:/home/rdu/Workspace/project_templates/mcu/stm32_ws/src/libraries/STM32F4xx_StdPeriph_Driver/src/stm32f4xx_rtc.c **** 
1681:/home/rdu/Workspace/project_templates/mcu/stm32_ws/src/libraries/STM32F4xx_StdPeriph_Driver/src/stm32f4xx_rtc.c **** /**
1682:/home/rdu/Workspace/project_templates/mcu/stm32_ws/src/libraries/STM32F4xx_StdPeriph_Driver/src/stm32f4xx_rtc.c ****   * @brief  Configures the RTC output source (AFO_ALARM).
1683:/home/rdu/Workspace/project_templates/mcu/stm32_ws/src/libraries/STM32F4xx_StdPeriph_Driver/src/stm32f4xx_rtc.c ****   * @param  RTC_Output: Specifies which signal will be routed to the RTC output. 
1684:/home/rdu/Workspace/project_templates/mcu/stm32_ws/src/libraries/STM32F4xx_StdPeriph_Driver/src/stm32f4xx_rtc.c ****   *          This parameter can be one of the following values:
1685:/home/rdu/Workspace/project_templates/mcu/stm32_ws/src/libraries/STM32F4xx_StdPeriph_Driver/src/stm32f4xx_rtc.c ****   *            @arg RTC_Output_Disable: No output selected
1686:/home/rdu/Workspace/project_templates/mcu/stm32_ws/src/libraries/STM32F4xx_StdPeriph_Driver/src/stm32f4xx_rtc.c ****   *            @arg RTC_Output_AlarmA: signal of AlarmA mapped to output
1687:/home/rdu/Workspace/project_templates/mcu/stm32_ws/src/libraries/STM32F4xx_StdPeriph_Driver/src/stm32f4xx_rtc.c ****   *            @arg RTC_Output_AlarmB: signal of AlarmB mapped to output
1688:/home/rdu/Workspace/project_templates/mcu/stm32_ws/src/libraries/STM32F4xx_StdPeriph_Driver/src/stm32f4xx_rtc.c ****   *            @arg RTC_Output_WakeUp: signal of WakeUp mapped to output
1689:/home/rdu/Workspace/project_templates/mcu/stm32_ws/src/libraries/STM32F4xx_StdPeriph_Driver/src/stm32f4xx_rtc.c ****   * @param  RTC_OutputPolarity: Specifies the polarity of the output signal. 
1690:/home/rdu/Workspace/project_templates/mcu/stm32_ws/src/libraries/STM32F4xx_StdPeriph_Driver/src/stm32f4xx_rtc.c ****   *          This parameter can be one of the following:
1691:/home/rdu/Workspace/project_templates/mcu/stm32_ws/src/libraries/STM32F4xx_StdPeriph_Driver/src/stm32f4xx_rtc.c ****   *            @arg RTC_OutputPolarity_High: The output pin is high when the 
1692:/home/rdu/Workspace/project_templates/mcu/stm32_ws/src/libraries/STM32F4xx_StdPeriph_Driver/src/stm32f4xx_rtc.c ****   *                                 ALRAF/ALRBF/WUTF is high (depending on OSEL)
1693:/home/rdu/Workspace/project_templates/mcu/stm32_ws/src/libraries/STM32F4xx_StdPeriph_Driver/src/stm32f4xx_rtc.c ****   *            @arg RTC_OutputPolarity_Low: The output pin is low when the 
1694:/home/rdu/Workspace/project_templates/mcu/stm32_ws/src/libraries/STM32F4xx_StdPeriph_Driver/src/stm32f4xx_rtc.c ****   *                                 ALRAF/ALRBF/WUTF is high (depending on OSEL)
1695:/home/rdu/Workspace/project_templates/mcu/stm32_ws/src/libraries/STM32F4xx_StdPeriph_Driver/src/stm32f4xx_rtc.c ****   * @retval None
1696:/home/rdu/Workspace/project_templates/mcu/stm32_ws/src/libraries/STM32F4xx_StdPeriph_Driver/src/stm32f4xx_rtc.c ****   */
1697:/home/rdu/Workspace/project_templates/mcu/stm32_ws/src/libraries/STM32F4xx_StdPeriph_Driver/src/stm32f4xx_rtc.c **** void RTC_OutputConfig(uint32_t RTC_Output, uint32_t RTC_OutputPolarity)
1698:/home/rdu/Workspace/project_templates/mcu/stm32_ws/src/libraries/STM32F4xx_StdPeriph_Driver/src/stm32f4xx_rtc.c **** {
 2522              		.loc 1 1698 0
 2523              		.cfi_startproc
 2524              		@ args = 0, pretend = 0, frame = 8
 2525              		@ frame_needed = 0, uses_anonymous_args = 0
 2526              		@ link register save eliminated.
 2527 0000 82B0     		sub	sp, sp, #8
 2528              	.LCFI59:
 2529              		.cfi_def_cfa_offset 8
 2530 0002 0190     		str	r0, [sp, #4]
 2531 0004 0091     		str	r1, [sp]
1699:/home/rdu/Workspace/project_templates/mcu/stm32_ws/src/libraries/STM32F4xx_StdPeriph_Driver/src/stm32f4xx_rtc.c ****   /* Check the parameters */
1700:/home/rdu/Workspace/project_templates/mcu/stm32_ws/src/libraries/STM32F4xx_StdPeriph_Driver/src/stm32f4xx_rtc.c ****   assert_param(IS_RTC_OUTPUT(RTC_Output));
1701:/home/rdu/Workspace/project_templates/mcu/stm32_ws/src/libraries/STM32F4xx_StdPeriph_Driver/src/stm32f4xx_rtc.c ****   assert_param(IS_RTC_OUTPUT_POL(RTC_OutputPolarity));
1702:/home/rdu/Workspace/project_templates/mcu/stm32_ws/src/libraries/STM32F4xx_StdPeriph_Driver/src/stm32f4xx_rtc.c **** 
1703:/home/rdu/Workspace/project_templates/mcu/stm32_ws/src/libraries/STM32F4xx_StdPeriph_Driver/src/stm32f4xx_rtc.c ****   /* Disable the write protection for RTC registers */
1704:/home/rdu/Workspace/project_templates/mcu/stm32_ws/src/libraries/STM32F4xx_StdPeriph_Driver/src/stm32f4xx_rtc.c ****   RTC->WPR = 0xCA;
 2532              		.loc 1 1704 0
 2533 0006 0D4B     		ldr	r3, .L170
 2534 0008 CA22     		movs	r2, #202
 2535 000a 5A62     		str	r2, [r3, #36]
1705:/home/rdu/Workspace/project_templates/mcu/stm32_ws/src/libraries/STM32F4xx_StdPeriph_Driver/src/stm32f4xx_rtc.c ****   RTC->WPR = 0x53;
 2536              		.loc 1 1705 0
 2537 000c 0B4B     		ldr	r3, .L170
 2538 000e 5322     		movs	r2, #83
 2539 0010 5A62     		str	r2, [r3, #36]
1706:/home/rdu/Workspace/project_templates/mcu/stm32_ws/src/libraries/STM32F4xx_StdPeriph_Driver/src/stm32f4xx_rtc.c **** 
1707:/home/rdu/Workspace/project_templates/mcu/stm32_ws/src/libraries/STM32F4xx_StdPeriph_Driver/src/stm32f4xx_rtc.c ****   /* Clear the bits to be configured */
1708:/home/rdu/Workspace/project_templates/mcu/stm32_ws/src/libraries/STM32F4xx_StdPeriph_Driver/src/stm32f4xx_rtc.c ****   RTC->CR &= (uint32_t)~(RTC_CR_OSEL | RTC_CR_POL);
 2540              		.loc 1 1708 0
 2541 0012 0A4B     		ldr	r3, .L170
 2542 0014 9B68     		ldr	r3, [r3, #8]
 2543 0016 094A     		ldr	r2, .L170
 2544 0018 23F4E003 		bic	r3, r3, #7340032
 2545 001c 9360     		str	r3, [r2, #8]
1709:/home/rdu/Workspace/project_templates/mcu/stm32_ws/src/libraries/STM32F4xx_StdPeriph_Driver/src/stm32f4xx_rtc.c **** 
1710:/home/rdu/Workspace/project_templates/mcu/stm32_ws/src/libraries/STM32F4xx_StdPeriph_Driver/src/stm32f4xx_rtc.c ****   /* Configure the output selection and polarity */
1711:/home/rdu/Workspace/project_templates/mcu/stm32_ws/src/libraries/STM32F4xx_StdPeriph_Driver/src/stm32f4xx_rtc.c ****   RTC->CR |= (uint32_t)(RTC_Output | RTC_OutputPolarity);
 2546              		.loc 1 1711 0
 2547 001e 074B     		ldr	r3, .L170
 2548 0020 9A68     		ldr	r2, [r3, #8]
 2549 0022 0199     		ldr	r1, [sp, #4]
 2550 0024 009B     		ldr	r3, [sp]
 2551 0026 0B43     		orrs	r3, r3, r1
 2552 0028 0449     		ldr	r1, .L170
 2553 002a 1343     		orrs	r3, r3, r2
 2554 002c 8B60     		str	r3, [r1, #8]
1712:/home/rdu/Workspace/project_templates/mcu/stm32_ws/src/libraries/STM32F4xx_StdPeriph_Driver/src/stm32f4xx_rtc.c **** 
1713:/home/rdu/Workspace/project_templates/mcu/stm32_ws/src/libraries/STM32F4xx_StdPeriph_Driver/src/stm32f4xx_rtc.c ****   /* Enable the write protection for RTC registers */
1714:/home/rdu/Workspace/project_templates/mcu/stm32_ws/src/libraries/STM32F4xx_StdPeriph_Driver/src/stm32f4xx_rtc.c ****   RTC->WPR = 0xFF; 
 2555              		.loc 1 1714 0
 2556 002e 034B     		ldr	r3, .L170
 2557 0030 FF22     		movs	r2, #255
 2558 0032 5A62     		str	r2, [r3, #36]
1715:/home/rdu/Workspace/project_templates/mcu/stm32_ws/src/libraries/STM32F4xx_StdPeriph_Driver/src/stm32f4xx_rtc.c **** }
 2559              		.loc 1 1715 0
 2560 0034 00BF     		nop
 2561 0036 02B0     		add	sp, sp, #8
 2562              	.LCFI60:
 2563              		.cfi_def_cfa_offset 0
 2564              		@ sp needed
 2565 0038 7047     		bx	lr
 2566              	.L171:
 2567 003a 00BF     		.align	2
 2568              	.L170:
 2569 003c 00280040 		.word	1073752064
 2570              		.cfi_endproc
 2571              	.LFE151:
 2573              		.section	.text.RTC_CoarseCalibConfig,"ax",%progbits
 2574              		.align	1
 2575              		.global	RTC_CoarseCalibConfig
 2576              		.syntax unified
 2577              		.thumb
 2578              		.thumb_func
 2579              		.fpu fpv4-sp-d16
 2581              	RTC_CoarseCalibConfig:
 2582              	.LFB152:
1716:/home/rdu/Workspace/project_templates/mcu/stm32_ws/src/libraries/STM32F4xx_StdPeriph_Driver/src/stm32f4xx_rtc.c **** 
1717:/home/rdu/Workspace/project_templates/mcu/stm32_ws/src/libraries/STM32F4xx_StdPeriph_Driver/src/stm32f4xx_rtc.c **** /**
1718:/home/rdu/Workspace/project_templates/mcu/stm32_ws/src/libraries/STM32F4xx_StdPeriph_Driver/src/stm32f4xx_rtc.c ****   * @}
1719:/home/rdu/Workspace/project_templates/mcu/stm32_ws/src/libraries/STM32F4xx_StdPeriph_Driver/src/stm32f4xx_rtc.c ****   */
1720:/home/rdu/Workspace/project_templates/mcu/stm32_ws/src/libraries/STM32F4xx_StdPeriph_Driver/src/stm32f4xx_rtc.c **** 
1721:/home/rdu/Workspace/project_templates/mcu/stm32_ws/src/libraries/STM32F4xx_StdPeriph_Driver/src/stm32f4xx_rtc.c **** /** @defgroup RTC_Group7 Digital Calibration configuration functions
1722:/home/rdu/Workspace/project_templates/mcu/stm32_ws/src/libraries/STM32F4xx_StdPeriph_Driver/src/stm32f4xx_rtc.c ****  *  @brief   Coarse Calibration configuration functions 
1723:/home/rdu/Workspace/project_templates/mcu/stm32_ws/src/libraries/STM32F4xx_StdPeriph_Driver/src/stm32f4xx_rtc.c ****  *
1724:/home/rdu/Workspace/project_templates/mcu/stm32_ws/src/libraries/STM32F4xx_StdPeriph_Driver/src/stm32f4xx_rtc.c **** @verbatim   
1725:/home/rdu/Workspace/project_templates/mcu/stm32_ws/src/libraries/STM32F4xx_StdPeriph_Driver/src/stm32f4xx_rtc.c ****  ===============================================================================
1726:/home/rdu/Workspace/project_templates/mcu/stm32_ws/src/libraries/STM32F4xx_StdPeriph_Driver/src/stm32f4xx_rtc.c ****               ##### Digital Calibration configuration functions #####
1727:/home/rdu/Workspace/project_templates/mcu/stm32_ws/src/libraries/STM32F4xx_StdPeriph_Driver/src/stm32f4xx_rtc.c ****  ===============================================================================  
1728:/home/rdu/Workspace/project_templates/mcu/stm32_ws/src/libraries/STM32F4xx_StdPeriph_Driver/src/stm32f4xx_rtc.c **** 
1729:/home/rdu/Workspace/project_templates/mcu/stm32_ws/src/libraries/STM32F4xx_StdPeriph_Driver/src/stm32f4xx_rtc.c **** @endverbatim
1730:/home/rdu/Workspace/project_templates/mcu/stm32_ws/src/libraries/STM32F4xx_StdPeriph_Driver/src/stm32f4xx_rtc.c ****   * @{
1731:/home/rdu/Workspace/project_templates/mcu/stm32_ws/src/libraries/STM32F4xx_StdPeriph_Driver/src/stm32f4xx_rtc.c ****   */
1732:/home/rdu/Workspace/project_templates/mcu/stm32_ws/src/libraries/STM32F4xx_StdPeriph_Driver/src/stm32f4xx_rtc.c **** 
1733:/home/rdu/Workspace/project_templates/mcu/stm32_ws/src/libraries/STM32F4xx_StdPeriph_Driver/src/stm32f4xx_rtc.c **** /**
1734:/home/rdu/Workspace/project_templates/mcu/stm32_ws/src/libraries/STM32F4xx_StdPeriph_Driver/src/stm32f4xx_rtc.c ****   * @brief  Configures the Coarse calibration parameters.
1735:/home/rdu/Workspace/project_templates/mcu/stm32_ws/src/libraries/STM32F4xx_StdPeriph_Driver/src/stm32f4xx_rtc.c ****   * @param  RTC_CalibSign: specifies the sign of the coarse calibration value.
1736:/home/rdu/Workspace/project_templates/mcu/stm32_ws/src/libraries/STM32F4xx_StdPeriph_Driver/src/stm32f4xx_rtc.c ****   *          This parameter can be  one of the following values:
1737:/home/rdu/Workspace/project_templates/mcu/stm32_ws/src/libraries/STM32F4xx_StdPeriph_Driver/src/stm32f4xx_rtc.c ****   *            @arg RTC_CalibSign_Positive: The value sign is positive 
1738:/home/rdu/Workspace/project_templates/mcu/stm32_ws/src/libraries/STM32F4xx_StdPeriph_Driver/src/stm32f4xx_rtc.c ****   *            @arg RTC_CalibSign_Negative: The value sign is negative
1739:/home/rdu/Workspace/project_templates/mcu/stm32_ws/src/libraries/STM32F4xx_StdPeriph_Driver/src/stm32f4xx_rtc.c ****   * @param  Value: value of coarse calibration expressed in ppm (coded on 5 bits).
1740:/home/rdu/Workspace/project_templates/mcu/stm32_ws/src/libraries/STM32F4xx_StdPeriph_Driver/src/stm32f4xx_rtc.c ****   *    
1741:/home/rdu/Workspace/project_templates/mcu/stm32_ws/src/libraries/STM32F4xx_StdPeriph_Driver/src/stm32f4xx_rtc.c ****   * @note   This Calibration value should be between 0 and 63 when using negative
1742:/home/rdu/Workspace/project_templates/mcu/stm32_ws/src/libraries/STM32F4xx_StdPeriph_Driver/src/stm32f4xx_rtc.c ****   *         sign with a 2-ppm step.
1743:/home/rdu/Workspace/project_templates/mcu/stm32_ws/src/libraries/STM32F4xx_StdPeriph_Driver/src/stm32f4xx_rtc.c ****   *           
1744:/home/rdu/Workspace/project_templates/mcu/stm32_ws/src/libraries/STM32F4xx_StdPeriph_Driver/src/stm32f4xx_rtc.c ****   * @note   This Calibration value should be between 0 and 126 when using positive
1745:/home/rdu/Workspace/project_templates/mcu/stm32_ws/src/libraries/STM32F4xx_StdPeriph_Driver/src/stm32f4xx_rtc.c ****   *         sign with a 4-ppm step.
1746:/home/rdu/Workspace/project_templates/mcu/stm32_ws/src/libraries/STM32F4xx_StdPeriph_Driver/src/stm32f4xx_rtc.c ****   *           
1747:/home/rdu/Workspace/project_templates/mcu/stm32_ws/src/libraries/STM32F4xx_StdPeriph_Driver/src/stm32f4xx_rtc.c ****   * @retval An ErrorStatus enumeration value:
1748:/home/rdu/Workspace/project_templates/mcu/stm32_ws/src/libraries/STM32F4xx_StdPeriph_Driver/src/stm32f4xx_rtc.c ****   *          - SUCCESS: RTC Coarse calibration are initialized
1749:/home/rdu/Workspace/project_templates/mcu/stm32_ws/src/libraries/STM32F4xx_StdPeriph_Driver/src/stm32f4xx_rtc.c ****   *          - ERROR: RTC Coarse calibration are not initialized     
1750:/home/rdu/Workspace/project_templates/mcu/stm32_ws/src/libraries/STM32F4xx_StdPeriph_Driver/src/stm32f4xx_rtc.c ****   */
1751:/home/rdu/Workspace/project_templates/mcu/stm32_ws/src/libraries/STM32F4xx_StdPeriph_Driver/src/stm32f4xx_rtc.c **** ErrorStatus RTC_CoarseCalibConfig(uint32_t RTC_CalibSign, uint32_t Value)
1752:/home/rdu/Workspace/project_templates/mcu/stm32_ws/src/libraries/STM32F4xx_StdPeriph_Driver/src/stm32f4xx_rtc.c **** {
 2583              		.loc 1 1752 0
 2584              		.cfi_startproc
 2585              		@ args = 0, pretend = 0, frame = 16
 2586              		@ frame_needed = 0, uses_anonymous_args = 0
 2587 0000 00B5     		push	{lr}
 2588              	.LCFI61:
 2589              		.cfi_def_cfa_offset 4
 2590              		.cfi_offset 14, -4
 2591 0002 85B0     		sub	sp, sp, #20
 2592              	.LCFI62:
 2593              		.cfi_def_cfa_offset 24
 2594 0004 0190     		str	r0, [sp, #4]
 2595 0006 0091     		str	r1, [sp]
1753:/home/rdu/Workspace/project_templates/mcu/stm32_ws/src/libraries/STM32F4xx_StdPeriph_Driver/src/stm32f4xx_rtc.c ****   ErrorStatus status = ERROR;
 2596              		.loc 1 1753 0
 2597 0008 0023     		movs	r3, #0
 2598 000a 8DF80F30 		strb	r3, [sp, #15]
1754:/home/rdu/Workspace/project_templates/mcu/stm32_ws/src/libraries/STM32F4xx_StdPeriph_Driver/src/stm32f4xx_rtc.c ****    
1755:/home/rdu/Workspace/project_templates/mcu/stm32_ws/src/libraries/STM32F4xx_StdPeriph_Driver/src/stm32f4xx_rtc.c ****   /* Check the parameters */
1756:/home/rdu/Workspace/project_templates/mcu/stm32_ws/src/libraries/STM32F4xx_StdPeriph_Driver/src/stm32f4xx_rtc.c ****   assert_param(IS_RTC_CALIB_SIGN(RTC_CalibSign));
1757:/home/rdu/Workspace/project_templates/mcu/stm32_ws/src/libraries/STM32F4xx_StdPeriph_Driver/src/stm32f4xx_rtc.c ****   assert_param(IS_RTC_CALIB_VALUE(Value)); 
1758:/home/rdu/Workspace/project_templates/mcu/stm32_ws/src/libraries/STM32F4xx_StdPeriph_Driver/src/stm32f4xx_rtc.c **** 
1759:/home/rdu/Workspace/project_templates/mcu/stm32_ws/src/libraries/STM32F4xx_StdPeriph_Driver/src/stm32f4xx_rtc.c ****   /* Disable the write protection for RTC registers */
1760:/home/rdu/Workspace/project_templates/mcu/stm32_ws/src/libraries/STM32F4xx_StdPeriph_Driver/src/stm32f4xx_rtc.c ****   RTC->WPR = 0xCA;
 2599              		.loc 1 1760 0
 2600 000e 114B     		ldr	r3, .L176
 2601 0010 CA22     		movs	r2, #202
 2602 0012 5A62     		str	r2, [r3, #36]
1761:/home/rdu/Workspace/project_templates/mcu/stm32_ws/src/libraries/STM32F4xx_StdPeriph_Driver/src/stm32f4xx_rtc.c ****   RTC->WPR = 0x53;
 2603              		.loc 1 1761 0
 2604 0014 0F4B     		ldr	r3, .L176
 2605 0016 5322     		movs	r2, #83
 2606 0018 5A62     		str	r2, [r3, #36]
1762:/home/rdu/Workspace/project_templates/mcu/stm32_ws/src/libraries/STM32F4xx_StdPeriph_Driver/src/stm32f4xx_rtc.c **** 
1763:/home/rdu/Workspace/project_templates/mcu/stm32_ws/src/libraries/STM32F4xx_StdPeriph_Driver/src/stm32f4xx_rtc.c ****   /* Set Initialization mode */
1764:/home/rdu/Workspace/project_templates/mcu/stm32_ws/src/libraries/STM32F4xx_StdPeriph_Driver/src/stm32f4xx_rtc.c ****   if (RTC_EnterInitMode() == ERROR)
 2607              		.loc 1 1764 0
 2608 001a FFF7FEFF 		bl	RTC_EnterInitMode
 2609 001e 0346     		mov	r3, r0
 2610 0020 002B     		cmp	r3, #0
 2611 0022 03D1     		bne	.L173
1765:/home/rdu/Workspace/project_templates/mcu/stm32_ws/src/libraries/STM32F4xx_StdPeriph_Driver/src/stm32f4xx_rtc.c ****   {
1766:/home/rdu/Workspace/project_templates/mcu/stm32_ws/src/libraries/STM32F4xx_StdPeriph_Driver/src/stm32f4xx_rtc.c ****     status = ERROR;
 2612              		.loc 1 1766 0
 2613 0024 0023     		movs	r3, #0
 2614 0026 8DF80F30 		strb	r3, [sp, #15]
 2615 002a 09E0     		b	.L174
 2616              	.L173:
1767:/home/rdu/Workspace/project_templates/mcu/stm32_ws/src/libraries/STM32F4xx_StdPeriph_Driver/src/stm32f4xx_rtc.c ****   } 
1768:/home/rdu/Workspace/project_templates/mcu/stm32_ws/src/libraries/STM32F4xx_StdPeriph_Driver/src/stm32f4xx_rtc.c ****   else
1769:/home/rdu/Workspace/project_templates/mcu/stm32_ws/src/libraries/STM32F4xx_StdPeriph_Driver/src/stm32f4xx_rtc.c ****   {
1770:/home/rdu/Workspace/project_templates/mcu/stm32_ws/src/libraries/STM32F4xx_StdPeriph_Driver/src/stm32f4xx_rtc.c ****     /* Set the coarse calibration value */
1771:/home/rdu/Workspace/project_templates/mcu/stm32_ws/src/libraries/STM32F4xx_StdPeriph_Driver/src/stm32f4xx_rtc.c ****     RTC->CALIBR = (uint32_t)(RTC_CalibSign | Value);
 2617              		.loc 1 1771 0
 2618 002c 0949     		ldr	r1, .L176
 2619 002e 019A     		ldr	r2, [sp, #4]
 2620 0030 009B     		ldr	r3, [sp]
 2621 0032 1343     		orrs	r3, r3, r2
 2622 0034 8B61     		str	r3, [r1, #24]
1772:/home/rdu/Workspace/project_templates/mcu/stm32_ws/src/libraries/STM32F4xx_StdPeriph_Driver/src/stm32f4xx_rtc.c ****     /* Exit Initialization mode */
1773:/home/rdu/Workspace/project_templates/mcu/stm32_ws/src/libraries/STM32F4xx_StdPeriph_Driver/src/stm32f4xx_rtc.c ****     RTC_ExitInitMode();
 2623              		.loc 1 1773 0
 2624 0036 FFF7FEFF 		bl	RTC_ExitInitMode
1774:/home/rdu/Workspace/project_templates/mcu/stm32_ws/src/libraries/STM32F4xx_StdPeriph_Driver/src/stm32f4xx_rtc.c ****     
1775:/home/rdu/Workspace/project_templates/mcu/stm32_ws/src/libraries/STM32F4xx_StdPeriph_Driver/src/stm32f4xx_rtc.c ****     status = SUCCESS;
 2625              		.loc 1 1775 0
 2626 003a 0123     		movs	r3, #1
 2627 003c 8DF80F30 		strb	r3, [sp, #15]
 2628              	.L174:
1776:/home/rdu/Workspace/project_templates/mcu/stm32_ws/src/libraries/STM32F4xx_StdPeriph_Driver/src/stm32f4xx_rtc.c ****   } 
1777:/home/rdu/Workspace/project_templates/mcu/stm32_ws/src/libraries/STM32F4xx_StdPeriph_Driver/src/stm32f4xx_rtc.c **** 
1778:/home/rdu/Workspace/project_templates/mcu/stm32_ws/src/libraries/STM32F4xx_StdPeriph_Driver/src/stm32f4xx_rtc.c ****   /* Enable the write protection for RTC registers */
1779:/home/rdu/Workspace/project_templates/mcu/stm32_ws/src/libraries/STM32F4xx_StdPeriph_Driver/src/stm32f4xx_rtc.c ****   RTC->WPR = 0xFF; 
 2629              		.loc 1 1779 0
 2630 0040 044B     		ldr	r3, .L176
 2631 0042 FF22     		movs	r2, #255
 2632 0044 5A62     		str	r2, [r3, #36]
1780:/home/rdu/Workspace/project_templates/mcu/stm32_ws/src/libraries/STM32F4xx_StdPeriph_Driver/src/stm32f4xx_rtc.c ****   
1781:/home/rdu/Workspace/project_templates/mcu/stm32_ws/src/libraries/STM32F4xx_StdPeriph_Driver/src/stm32f4xx_rtc.c ****   return status;
 2633              		.loc 1 1781 0
 2634 0046 9DF80F30 		ldrb	r3, [sp, #15]	@ zero_extendqisi2
1782:/home/rdu/Workspace/project_templates/mcu/stm32_ws/src/libraries/STM32F4xx_StdPeriph_Driver/src/stm32f4xx_rtc.c **** }
 2635              		.loc 1 1782 0
 2636 004a 1846     		mov	r0, r3
 2637 004c 05B0     		add	sp, sp, #20
 2638              	.LCFI63:
 2639              		.cfi_def_cfa_offset 4
 2640              		@ sp needed
 2641 004e 5DF804FB 		ldr	pc, [sp], #4
 2642              	.L177:
 2643 0052 00BF     		.align	2
 2644              	.L176:
 2645 0054 00280040 		.word	1073752064
 2646              		.cfi_endproc
 2647              	.LFE152:
 2649              		.section	.text.RTC_CoarseCalibCmd,"ax",%progbits
 2650              		.align	1
 2651              		.global	RTC_CoarseCalibCmd
 2652              		.syntax unified
 2653              		.thumb
 2654              		.thumb_func
 2655              		.fpu fpv4-sp-d16
 2657              	RTC_CoarseCalibCmd:
 2658              	.LFB153:
1783:/home/rdu/Workspace/project_templates/mcu/stm32_ws/src/libraries/STM32F4xx_StdPeriph_Driver/src/stm32f4xx_rtc.c **** 
1784:/home/rdu/Workspace/project_templates/mcu/stm32_ws/src/libraries/STM32F4xx_StdPeriph_Driver/src/stm32f4xx_rtc.c **** /**
1785:/home/rdu/Workspace/project_templates/mcu/stm32_ws/src/libraries/STM32F4xx_StdPeriph_Driver/src/stm32f4xx_rtc.c ****   * @brief  Enables or disables the Coarse calibration process.
1786:/home/rdu/Workspace/project_templates/mcu/stm32_ws/src/libraries/STM32F4xx_StdPeriph_Driver/src/stm32f4xx_rtc.c ****   * @param  NewState: new state of the Coarse calibration.
1787:/home/rdu/Workspace/project_templates/mcu/stm32_ws/src/libraries/STM32F4xx_StdPeriph_Driver/src/stm32f4xx_rtc.c ****   *          This parameter can be: ENABLE or DISABLE.
1788:/home/rdu/Workspace/project_templates/mcu/stm32_ws/src/libraries/STM32F4xx_StdPeriph_Driver/src/stm32f4xx_rtc.c ****   * @retval An ErrorStatus enumeration value:
1789:/home/rdu/Workspace/project_templates/mcu/stm32_ws/src/libraries/STM32F4xx_StdPeriph_Driver/src/stm32f4xx_rtc.c ****   *          - SUCCESS: RTC Coarse calibration are enabled/disabled
1790:/home/rdu/Workspace/project_templates/mcu/stm32_ws/src/libraries/STM32F4xx_StdPeriph_Driver/src/stm32f4xx_rtc.c ****   *          - ERROR: RTC Coarse calibration are not enabled/disabled    
1791:/home/rdu/Workspace/project_templates/mcu/stm32_ws/src/libraries/STM32F4xx_StdPeriph_Driver/src/stm32f4xx_rtc.c ****   */
1792:/home/rdu/Workspace/project_templates/mcu/stm32_ws/src/libraries/STM32F4xx_StdPeriph_Driver/src/stm32f4xx_rtc.c **** ErrorStatus RTC_CoarseCalibCmd(FunctionalState NewState)
1793:/home/rdu/Workspace/project_templates/mcu/stm32_ws/src/libraries/STM32F4xx_StdPeriph_Driver/src/stm32f4xx_rtc.c **** {
 2659              		.loc 1 1793 0
 2660              		.cfi_startproc
 2661              		@ args = 0, pretend = 0, frame = 16
 2662              		@ frame_needed = 0, uses_anonymous_args = 0
 2663 0000 00B5     		push	{lr}
 2664              	.LCFI64:
 2665              		.cfi_def_cfa_offset 4
 2666              		.cfi_offset 14, -4
 2667 0002 85B0     		sub	sp, sp, #20
 2668              	.LCFI65:
 2669              		.cfi_def_cfa_offset 24
 2670 0004 0346     		mov	r3, r0
 2671 0006 8DF80730 		strb	r3, [sp, #7]
1794:/home/rdu/Workspace/project_templates/mcu/stm32_ws/src/libraries/STM32F4xx_StdPeriph_Driver/src/stm32f4xx_rtc.c ****   ErrorStatus status = ERROR;
 2672              		.loc 1 1794 0
 2673 000a 0023     		movs	r3, #0
 2674 000c 8DF80F30 		strb	r3, [sp, #15]
1795:/home/rdu/Workspace/project_templates/mcu/stm32_ws/src/libraries/STM32F4xx_StdPeriph_Driver/src/stm32f4xx_rtc.c ****   
1796:/home/rdu/Workspace/project_templates/mcu/stm32_ws/src/libraries/STM32F4xx_StdPeriph_Driver/src/stm32f4xx_rtc.c ****   /* Check the parameters */
1797:/home/rdu/Workspace/project_templates/mcu/stm32_ws/src/libraries/STM32F4xx_StdPeriph_Driver/src/stm32f4xx_rtc.c ****   assert_param(IS_FUNCTIONAL_STATE(NewState));
1798:/home/rdu/Workspace/project_templates/mcu/stm32_ws/src/libraries/STM32F4xx_StdPeriph_Driver/src/stm32f4xx_rtc.c **** 
1799:/home/rdu/Workspace/project_templates/mcu/stm32_ws/src/libraries/STM32F4xx_StdPeriph_Driver/src/stm32f4xx_rtc.c ****   /* Disable the write protection for RTC registers */
1800:/home/rdu/Workspace/project_templates/mcu/stm32_ws/src/libraries/STM32F4xx_StdPeriph_Driver/src/stm32f4xx_rtc.c ****   RTC->WPR = 0xCA;
 2675              		.loc 1 1800 0
 2676 0010 164B     		ldr	r3, .L184
 2677 0012 CA22     		movs	r2, #202
 2678 0014 5A62     		str	r2, [r3, #36]
1801:/home/rdu/Workspace/project_templates/mcu/stm32_ws/src/libraries/STM32F4xx_StdPeriph_Driver/src/stm32f4xx_rtc.c ****   RTC->WPR = 0x53;
 2679              		.loc 1 1801 0
 2680 0016 154B     		ldr	r3, .L184
 2681 0018 5322     		movs	r2, #83
 2682 001a 5A62     		str	r2, [r3, #36]
1802:/home/rdu/Workspace/project_templates/mcu/stm32_ws/src/libraries/STM32F4xx_StdPeriph_Driver/src/stm32f4xx_rtc.c ****   
1803:/home/rdu/Workspace/project_templates/mcu/stm32_ws/src/libraries/STM32F4xx_StdPeriph_Driver/src/stm32f4xx_rtc.c ****   /* Set Initialization mode */
1804:/home/rdu/Workspace/project_templates/mcu/stm32_ws/src/libraries/STM32F4xx_StdPeriph_Driver/src/stm32f4xx_rtc.c ****   if (RTC_EnterInitMode() == ERROR)
 2683              		.loc 1 1804 0
 2684 001c FFF7FEFF 		bl	RTC_EnterInitMode
 2685 0020 0346     		mov	r3, r0
 2686 0022 002B     		cmp	r3, #0
 2687 0024 03D1     		bne	.L179
1805:/home/rdu/Workspace/project_templates/mcu/stm32_ws/src/libraries/STM32F4xx_StdPeriph_Driver/src/stm32f4xx_rtc.c ****   {
1806:/home/rdu/Workspace/project_templates/mcu/stm32_ws/src/libraries/STM32F4xx_StdPeriph_Driver/src/stm32f4xx_rtc.c ****     status =  ERROR;
 2688              		.loc 1 1806 0
 2689 0026 0023     		movs	r3, #0
 2690 0028 8DF80F30 		strb	r3, [sp, #15]
 2691 002c 15E0     		b	.L180
 2692              	.L179:
1807:/home/rdu/Workspace/project_templates/mcu/stm32_ws/src/libraries/STM32F4xx_StdPeriph_Driver/src/stm32f4xx_rtc.c ****   }
1808:/home/rdu/Workspace/project_templates/mcu/stm32_ws/src/libraries/STM32F4xx_StdPeriph_Driver/src/stm32f4xx_rtc.c ****   else
1809:/home/rdu/Workspace/project_templates/mcu/stm32_ws/src/libraries/STM32F4xx_StdPeriph_Driver/src/stm32f4xx_rtc.c ****   {
1810:/home/rdu/Workspace/project_templates/mcu/stm32_ws/src/libraries/STM32F4xx_StdPeriph_Driver/src/stm32f4xx_rtc.c ****     if (NewState != DISABLE)
 2693              		.loc 1 1810 0
 2694 002e 9DF80730 		ldrb	r3, [sp, #7]	@ zero_extendqisi2
 2695 0032 002B     		cmp	r3, #0
 2696 0034 06D0     		beq	.L181
1811:/home/rdu/Workspace/project_templates/mcu/stm32_ws/src/libraries/STM32F4xx_StdPeriph_Driver/src/stm32f4xx_rtc.c ****     {
1812:/home/rdu/Workspace/project_templates/mcu/stm32_ws/src/libraries/STM32F4xx_StdPeriph_Driver/src/stm32f4xx_rtc.c ****       /* Enable the Coarse Calibration */
1813:/home/rdu/Workspace/project_templates/mcu/stm32_ws/src/libraries/STM32F4xx_StdPeriph_Driver/src/stm32f4xx_rtc.c ****       RTC->CR |= (uint32_t)RTC_CR_DCE;
 2697              		.loc 1 1813 0
 2698 0036 0D4B     		ldr	r3, .L184
 2699 0038 9B68     		ldr	r3, [r3, #8]
 2700 003a 0C4A     		ldr	r2, .L184
 2701 003c 43F08003 		orr	r3, r3, #128
 2702 0040 9360     		str	r3, [r2, #8]
 2703 0042 05E0     		b	.L182
 2704              	.L181:
1814:/home/rdu/Workspace/project_templates/mcu/stm32_ws/src/libraries/STM32F4xx_StdPeriph_Driver/src/stm32f4xx_rtc.c ****     }
1815:/home/rdu/Workspace/project_templates/mcu/stm32_ws/src/libraries/STM32F4xx_StdPeriph_Driver/src/stm32f4xx_rtc.c ****     else
1816:/home/rdu/Workspace/project_templates/mcu/stm32_ws/src/libraries/STM32F4xx_StdPeriph_Driver/src/stm32f4xx_rtc.c ****     { 
1817:/home/rdu/Workspace/project_templates/mcu/stm32_ws/src/libraries/STM32F4xx_StdPeriph_Driver/src/stm32f4xx_rtc.c ****       /* Disable the Coarse Calibration */
1818:/home/rdu/Workspace/project_templates/mcu/stm32_ws/src/libraries/STM32F4xx_StdPeriph_Driver/src/stm32f4xx_rtc.c ****       RTC->CR &= (uint32_t)~RTC_CR_DCE;
 2705              		.loc 1 1818 0
 2706 0044 094B     		ldr	r3, .L184
 2707 0046 9B68     		ldr	r3, [r3, #8]
 2708 0048 084A     		ldr	r2, .L184
 2709 004a 23F08003 		bic	r3, r3, #128
 2710 004e 9360     		str	r3, [r2, #8]
 2711              	.L182:
1819:/home/rdu/Workspace/project_templates/mcu/stm32_ws/src/libraries/STM32F4xx_StdPeriph_Driver/src/stm32f4xx_rtc.c ****     }
1820:/home/rdu/Workspace/project_templates/mcu/stm32_ws/src/libraries/STM32F4xx_StdPeriph_Driver/src/stm32f4xx_rtc.c ****     /* Exit Initialization mode */
1821:/home/rdu/Workspace/project_templates/mcu/stm32_ws/src/libraries/STM32F4xx_StdPeriph_Driver/src/stm32f4xx_rtc.c ****     RTC_ExitInitMode();
 2712              		.loc 1 1821 0
 2713 0050 FFF7FEFF 		bl	RTC_ExitInitMode
1822:/home/rdu/Workspace/project_templates/mcu/stm32_ws/src/libraries/STM32F4xx_StdPeriph_Driver/src/stm32f4xx_rtc.c ****     
1823:/home/rdu/Workspace/project_templates/mcu/stm32_ws/src/libraries/STM32F4xx_StdPeriph_Driver/src/stm32f4xx_rtc.c ****     status = SUCCESS;
 2714              		.loc 1 1823 0
 2715 0054 0123     		movs	r3, #1
 2716 0056 8DF80F30 		strb	r3, [sp, #15]
 2717              	.L180:
1824:/home/rdu/Workspace/project_templates/mcu/stm32_ws/src/libraries/STM32F4xx_StdPeriph_Driver/src/stm32f4xx_rtc.c ****   } 
1825:/home/rdu/Workspace/project_templates/mcu/stm32_ws/src/libraries/STM32F4xx_StdPeriph_Driver/src/stm32f4xx_rtc.c ****   
1826:/home/rdu/Workspace/project_templates/mcu/stm32_ws/src/libraries/STM32F4xx_StdPeriph_Driver/src/stm32f4xx_rtc.c ****   /* Enable the write protection for RTC registers */
1827:/home/rdu/Workspace/project_templates/mcu/stm32_ws/src/libraries/STM32F4xx_StdPeriph_Driver/src/stm32f4xx_rtc.c ****   RTC->WPR = 0xFF; 
 2718              		.loc 1 1827 0
 2719 005a 044B     		ldr	r3, .L184
 2720 005c FF22     		movs	r2, #255
 2721 005e 5A62     		str	r2, [r3, #36]
1828:/home/rdu/Workspace/project_templates/mcu/stm32_ws/src/libraries/STM32F4xx_StdPeriph_Driver/src/stm32f4xx_rtc.c ****   
1829:/home/rdu/Workspace/project_templates/mcu/stm32_ws/src/libraries/STM32F4xx_StdPeriph_Driver/src/stm32f4xx_rtc.c ****   return status;
 2722              		.loc 1 1829 0
 2723 0060 9DF80F30 		ldrb	r3, [sp, #15]	@ zero_extendqisi2
1830:/home/rdu/Workspace/project_templates/mcu/stm32_ws/src/libraries/STM32F4xx_StdPeriph_Driver/src/stm32f4xx_rtc.c **** }
 2724              		.loc 1 1830 0
 2725 0064 1846     		mov	r0, r3
 2726 0066 05B0     		add	sp, sp, #20
 2727              	.LCFI66:
 2728              		.cfi_def_cfa_offset 4
 2729              		@ sp needed
 2730 0068 5DF804FB 		ldr	pc, [sp], #4
 2731              	.L185:
 2732              		.align	2
 2733              	.L184:
 2734 006c 00280040 		.word	1073752064
 2735              		.cfi_endproc
 2736              	.LFE153:
 2738              		.section	.text.RTC_CalibOutputCmd,"ax",%progbits
 2739              		.align	1
 2740              		.global	RTC_CalibOutputCmd
 2741              		.syntax unified
 2742              		.thumb
 2743              		.thumb_func
 2744              		.fpu fpv4-sp-d16
 2746              	RTC_CalibOutputCmd:
 2747              	.LFB154:
1831:/home/rdu/Workspace/project_templates/mcu/stm32_ws/src/libraries/STM32F4xx_StdPeriph_Driver/src/stm32f4xx_rtc.c **** 
1832:/home/rdu/Workspace/project_templates/mcu/stm32_ws/src/libraries/STM32F4xx_StdPeriph_Driver/src/stm32f4xx_rtc.c **** /**
1833:/home/rdu/Workspace/project_templates/mcu/stm32_ws/src/libraries/STM32F4xx_StdPeriph_Driver/src/stm32f4xx_rtc.c ****   * @brief  Enables or disables the RTC clock to be output through the relative pin.
1834:/home/rdu/Workspace/project_templates/mcu/stm32_ws/src/libraries/STM32F4xx_StdPeriph_Driver/src/stm32f4xx_rtc.c ****   * @param  NewState: new state of the digital calibration Output.
1835:/home/rdu/Workspace/project_templates/mcu/stm32_ws/src/libraries/STM32F4xx_StdPeriph_Driver/src/stm32f4xx_rtc.c ****   *          This parameter can be: ENABLE or DISABLE.
1836:/home/rdu/Workspace/project_templates/mcu/stm32_ws/src/libraries/STM32F4xx_StdPeriph_Driver/src/stm32f4xx_rtc.c ****   * @retval None
1837:/home/rdu/Workspace/project_templates/mcu/stm32_ws/src/libraries/STM32F4xx_StdPeriph_Driver/src/stm32f4xx_rtc.c ****   */
1838:/home/rdu/Workspace/project_templates/mcu/stm32_ws/src/libraries/STM32F4xx_StdPeriph_Driver/src/stm32f4xx_rtc.c **** void RTC_CalibOutputCmd(FunctionalState NewState)
1839:/home/rdu/Workspace/project_templates/mcu/stm32_ws/src/libraries/STM32F4xx_StdPeriph_Driver/src/stm32f4xx_rtc.c **** {
 2748              		.loc 1 1839 0
 2749              		.cfi_startproc
 2750              		@ args = 0, pretend = 0, frame = 8
 2751              		@ frame_needed = 0, uses_anonymous_args = 0
 2752              		@ link register save eliminated.
 2753 0000 82B0     		sub	sp, sp, #8
 2754              	.LCFI67:
 2755              		.cfi_def_cfa_offset 8
 2756 0002 0346     		mov	r3, r0
 2757 0004 8DF80730 		strb	r3, [sp, #7]
1840:/home/rdu/Workspace/project_templates/mcu/stm32_ws/src/libraries/STM32F4xx_StdPeriph_Driver/src/stm32f4xx_rtc.c ****   /* Check the parameters */
1841:/home/rdu/Workspace/project_templates/mcu/stm32_ws/src/libraries/STM32F4xx_StdPeriph_Driver/src/stm32f4xx_rtc.c ****   assert_param(IS_FUNCTIONAL_STATE(NewState));
1842:/home/rdu/Workspace/project_templates/mcu/stm32_ws/src/libraries/STM32F4xx_StdPeriph_Driver/src/stm32f4xx_rtc.c ****   
1843:/home/rdu/Workspace/project_templates/mcu/stm32_ws/src/libraries/STM32F4xx_StdPeriph_Driver/src/stm32f4xx_rtc.c ****   /* Disable the write protection for RTC registers */
1844:/home/rdu/Workspace/project_templates/mcu/stm32_ws/src/libraries/STM32F4xx_StdPeriph_Driver/src/stm32f4xx_rtc.c ****   RTC->WPR = 0xCA;
 2758              		.loc 1 1844 0
 2759 0008 0E4B     		ldr	r3, .L189
 2760 000a CA22     		movs	r2, #202
 2761 000c 5A62     		str	r2, [r3, #36]
1845:/home/rdu/Workspace/project_templates/mcu/stm32_ws/src/libraries/STM32F4xx_StdPeriph_Driver/src/stm32f4xx_rtc.c ****   RTC->WPR = 0x53;
 2762              		.loc 1 1845 0
 2763 000e 0D4B     		ldr	r3, .L189
 2764 0010 5322     		movs	r2, #83
 2765 0012 5A62     		str	r2, [r3, #36]
1846:/home/rdu/Workspace/project_templates/mcu/stm32_ws/src/libraries/STM32F4xx_StdPeriph_Driver/src/stm32f4xx_rtc.c ****   
1847:/home/rdu/Workspace/project_templates/mcu/stm32_ws/src/libraries/STM32F4xx_StdPeriph_Driver/src/stm32f4xx_rtc.c ****   if (NewState != DISABLE)
 2766              		.loc 1 1847 0
 2767 0014 9DF80730 		ldrb	r3, [sp, #7]	@ zero_extendqisi2
 2768 0018 002B     		cmp	r3, #0
 2769 001a 06D0     		beq	.L187
1848:/home/rdu/Workspace/project_templates/mcu/stm32_ws/src/libraries/STM32F4xx_StdPeriph_Driver/src/stm32f4xx_rtc.c ****   {
1849:/home/rdu/Workspace/project_templates/mcu/stm32_ws/src/libraries/STM32F4xx_StdPeriph_Driver/src/stm32f4xx_rtc.c ****     /* Enable the RTC clock output */
1850:/home/rdu/Workspace/project_templates/mcu/stm32_ws/src/libraries/STM32F4xx_StdPeriph_Driver/src/stm32f4xx_rtc.c ****     RTC->CR |= (uint32_t)RTC_CR_COE;
 2770              		.loc 1 1850 0
 2771 001c 094B     		ldr	r3, .L189
 2772 001e 9B68     		ldr	r3, [r3, #8]
 2773 0020 084A     		ldr	r2, .L189
 2774 0022 43F40003 		orr	r3, r3, #8388608
 2775 0026 9360     		str	r3, [r2, #8]
 2776 0028 05E0     		b	.L188
 2777              	.L187:
1851:/home/rdu/Workspace/project_templates/mcu/stm32_ws/src/libraries/STM32F4xx_StdPeriph_Driver/src/stm32f4xx_rtc.c ****   }
1852:/home/rdu/Workspace/project_templates/mcu/stm32_ws/src/libraries/STM32F4xx_StdPeriph_Driver/src/stm32f4xx_rtc.c ****   else
1853:/home/rdu/Workspace/project_templates/mcu/stm32_ws/src/libraries/STM32F4xx_StdPeriph_Driver/src/stm32f4xx_rtc.c ****   { 
1854:/home/rdu/Workspace/project_templates/mcu/stm32_ws/src/libraries/STM32F4xx_StdPeriph_Driver/src/stm32f4xx_rtc.c ****     /* Disable the RTC clock output */
1855:/home/rdu/Workspace/project_templates/mcu/stm32_ws/src/libraries/STM32F4xx_StdPeriph_Driver/src/stm32f4xx_rtc.c ****     RTC->CR &= (uint32_t)~RTC_CR_COE;
 2778              		.loc 1 1855 0
 2779 002a 064B     		ldr	r3, .L189
 2780 002c 9B68     		ldr	r3, [r3, #8]
 2781 002e 054A     		ldr	r2, .L189
 2782 0030 23F40003 		bic	r3, r3, #8388608
 2783 0034 9360     		str	r3, [r2, #8]
 2784              	.L188:
1856:/home/rdu/Workspace/project_templates/mcu/stm32_ws/src/libraries/STM32F4xx_StdPeriph_Driver/src/stm32f4xx_rtc.c ****   }
1857:/home/rdu/Workspace/project_templates/mcu/stm32_ws/src/libraries/STM32F4xx_StdPeriph_Driver/src/stm32f4xx_rtc.c ****   
1858:/home/rdu/Workspace/project_templates/mcu/stm32_ws/src/libraries/STM32F4xx_StdPeriph_Driver/src/stm32f4xx_rtc.c ****   /* Enable the write protection for RTC registers */
1859:/home/rdu/Workspace/project_templates/mcu/stm32_ws/src/libraries/STM32F4xx_StdPeriph_Driver/src/stm32f4xx_rtc.c ****   RTC->WPR = 0xFF; 
 2785              		.loc 1 1859 0
 2786 0036 034B     		ldr	r3, .L189
 2787 0038 FF22     		movs	r2, #255
 2788 003a 5A62     		str	r2, [r3, #36]
1860:/home/rdu/Workspace/project_templates/mcu/stm32_ws/src/libraries/STM32F4xx_StdPeriph_Driver/src/stm32f4xx_rtc.c **** }
 2789              		.loc 1 1860 0
 2790 003c 00BF     		nop
 2791 003e 02B0     		add	sp, sp, #8
 2792              	.LCFI68:
 2793              		.cfi_def_cfa_offset 0
 2794              		@ sp needed
 2795 0040 7047     		bx	lr
 2796              	.L190:
 2797 0042 00BF     		.align	2
 2798              	.L189:
 2799 0044 00280040 		.word	1073752064
 2800              		.cfi_endproc
 2801              	.LFE154:
 2803              		.section	.text.RTC_CalibOutputConfig,"ax",%progbits
 2804              		.align	1
 2805              		.global	RTC_CalibOutputConfig
 2806              		.syntax unified
 2807              		.thumb
 2808              		.thumb_func
 2809              		.fpu fpv4-sp-d16
 2811              	RTC_CalibOutputConfig:
 2812              	.LFB155:
1861:/home/rdu/Workspace/project_templates/mcu/stm32_ws/src/libraries/STM32F4xx_StdPeriph_Driver/src/stm32f4xx_rtc.c **** 
1862:/home/rdu/Workspace/project_templates/mcu/stm32_ws/src/libraries/STM32F4xx_StdPeriph_Driver/src/stm32f4xx_rtc.c **** /**
1863:/home/rdu/Workspace/project_templates/mcu/stm32_ws/src/libraries/STM32F4xx_StdPeriph_Driver/src/stm32f4xx_rtc.c ****   * @brief  Configure the Calibration Pinout (RTC_CALIB) Selection (1Hz or 512Hz).
1864:/home/rdu/Workspace/project_templates/mcu/stm32_ws/src/libraries/STM32F4xx_StdPeriph_Driver/src/stm32f4xx_rtc.c ****   * @param  RTC_CalibOutput : Select the Calibration output Selection .
1865:/home/rdu/Workspace/project_templates/mcu/stm32_ws/src/libraries/STM32F4xx_StdPeriph_Driver/src/stm32f4xx_rtc.c ****   *   This parameter can be one of the following values:
1866:/home/rdu/Workspace/project_templates/mcu/stm32_ws/src/libraries/STM32F4xx_StdPeriph_Driver/src/stm32f4xx_rtc.c ****   *     @arg RTC_CalibOutput_512Hz: A signal has a regular waveform at 512Hz. 
1867:/home/rdu/Workspace/project_templates/mcu/stm32_ws/src/libraries/STM32F4xx_StdPeriph_Driver/src/stm32f4xx_rtc.c ****   *     @arg RTC_CalibOutput_1Hz  : A signal has a regular waveform at 1Hz.
1868:/home/rdu/Workspace/project_templates/mcu/stm32_ws/src/libraries/STM32F4xx_StdPeriph_Driver/src/stm32f4xx_rtc.c ****   * @retval None
1869:/home/rdu/Workspace/project_templates/mcu/stm32_ws/src/libraries/STM32F4xx_StdPeriph_Driver/src/stm32f4xx_rtc.c **** */
1870:/home/rdu/Workspace/project_templates/mcu/stm32_ws/src/libraries/STM32F4xx_StdPeriph_Driver/src/stm32f4xx_rtc.c **** void RTC_CalibOutputConfig(uint32_t RTC_CalibOutput)
1871:/home/rdu/Workspace/project_templates/mcu/stm32_ws/src/libraries/STM32F4xx_StdPeriph_Driver/src/stm32f4xx_rtc.c **** {
 2813              		.loc 1 1871 0
 2814              		.cfi_startproc
 2815              		@ args = 0, pretend = 0, frame = 8
 2816              		@ frame_needed = 0, uses_anonymous_args = 0
 2817              		@ link register save eliminated.
 2818 0000 82B0     		sub	sp, sp, #8
 2819              	.LCFI69:
 2820              		.cfi_def_cfa_offset 8
 2821 0002 0190     		str	r0, [sp, #4]
1872:/home/rdu/Workspace/project_templates/mcu/stm32_ws/src/libraries/STM32F4xx_StdPeriph_Driver/src/stm32f4xx_rtc.c ****   /* Check the parameters */
1873:/home/rdu/Workspace/project_templates/mcu/stm32_ws/src/libraries/STM32F4xx_StdPeriph_Driver/src/stm32f4xx_rtc.c ****   assert_param(IS_RTC_CALIB_OUTPUT(RTC_CalibOutput));
1874:/home/rdu/Workspace/project_templates/mcu/stm32_ws/src/libraries/STM32F4xx_StdPeriph_Driver/src/stm32f4xx_rtc.c **** 
1875:/home/rdu/Workspace/project_templates/mcu/stm32_ws/src/libraries/STM32F4xx_StdPeriph_Driver/src/stm32f4xx_rtc.c ****   /* Disable the write protection for RTC registers */
1876:/home/rdu/Workspace/project_templates/mcu/stm32_ws/src/libraries/STM32F4xx_StdPeriph_Driver/src/stm32f4xx_rtc.c ****   RTC->WPR = 0xCA;
 2822              		.loc 1 1876 0
 2823 0004 0B4B     		ldr	r3, .L192
 2824 0006 CA22     		movs	r2, #202
 2825 0008 5A62     		str	r2, [r3, #36]
1877:/home/rdu/Workspace/project_templates/mcu/stm32_ws/src/libraries/STM32F4xx_StdPeriph_Driver/src/stm32f4xx_rtc.c ****   RTC->WPR = 0x53;
 2826              		.loc 1 1877 0
 2827 000a 0A4B     		ldr	r3, .L192
 2828 000c 5322     		movs	r2, #83
 2829 000e 5A62     		str	r2, [r3, #36]
1878:/home/rdu/Workspace/project_templates/mcu/stm32_ws/src/libraries/STM32F4xx_StdPeriph_Driver/src/stm32f4xx_rtc.c ****   
1879:/home/rdu/Workspace/project_templates/mcu/stm32_ws/src/libraries/STM32F4xx_StdPeriph_Driver/src/stm32f4xx_rtc.c ****   /*clear flags before configuration */
1880:/home/rdu/Workspace/project_templates/mcu/stm32_ws/src/libraries/STM32F4xx_StdPeriph_Driver/src/stm32f4xx_rtc.c ****   RTC->CR &= (uint32_t)~(RTC_CR_COSEL);
 2830              		.loc 1 1880 0
 2831 0010 084B     		ldr	r3, .L192
 2832 0012 9B68     		ldr	r3, [r3, #8]
 2833 0014 074A     		ldr	r2, .L192
 2834 0016 23F40023 		bic	r3, r3, #524288
 2835 001a 9360     		str	r3, [r2, #8]
1881:/home/rdu/Workspace/project_templates/mcu/stm32_ws/src/libraries/STM32F4xx_StdPeriph_Driver/src/stm32f4xx_rtc.c **** 
1882:/home/rdu/Workspace/project_templates/mcu/stm32_ws/src/libraries/STM32F4xx_StdPeriph_Driver/src/stm32f4xx_rtc.c ****   /* Configure the RTC_CR register */
1883:/home/rdu/Workspace/project_templates/mcu/stm32_ws/src/libraries/STM32F4xx_StdPeriph_Driver/src/stm32f4xx_rtc.c ****   RTC->CR |= (uint32_t)RTC_CalibOutput;
 2836              		.loc 1 1883 0
 2837 001c 054B     		ldr	r3, .L192
 2838 001e 9A68     		ldr	r2, [r3, #8]
 2839 0020 0449     		ldr	r1, .L192
 2840 0022 019B     		ldr	r3, [sp, #4]
 2841 0024 1343     		orrs	r3, r3, r2
 2842 0026 8B60     		str	r3, [r1, #8]
1884:/home/rdu/Workspace/project_templates/mcu/stm32_ws/src/libraries/STM32F4xx_StdPeriph_Driver/src/stm32f4xx_rtc.c **** 
1885:/home/rdu/Workspace/project_templates/mcu/stm32_ws/src/libraries/STM32F4xx_StdPeriph_Driver/src/stm32f4xx_rtc.c ****   /* Enable the write protection for RTC registers */
1886:/home/rdu/Workspace/project_templates/mcu/stm32_ws/src/libraries/STM32F4xx_StdPeriph_Driver/src/stm32f4xx_rtc.c ****   RTC->WPR = 0xFF;
 2843              		.loc 1 1886 0
 2844 0028 024B     		ldr	r3, .L192
 2845 002a FF22     		movs	r2, #255
 2846 002c 5A62     		str	r2, [r3, #36]
1887:/home/rdu/Workspace/project_templates/mcu/stm32_ws/src/libraries/STM32F4xx_StdPeriph_Driver/src/stm32f4xx_rtc.c **** }
 2847              		.loc 1 1887 0
 2848 002e 00BF     		nop
 2849 0030 02B0     		add	sp, sp, #8
 2850              	.LCFI70:
 2851              		.cfi_def_cfa_offset 0
 2852              		@ sp needed
 2853 0032 7047     		bx	lr
 2854              	.L193:
 2855              		.align	2
 2856              	.L192:
 2857 0034 00280040 		.word	1073752064
 2858              		.cfi_endproc
 2859              	.LFE155:
 2861              		.section	.text.RTC_SmoothCalibConfig,"ax",%progbits
 2862              		.align	1
 2863              		.global	RTC_SmoothCalibConfig
 2864              		.syntax unified
 2865              		.thumb
 2866              		.thumb_func
 2867              		.fpu fpv4-sp-d16
 2869              	RTC_SmoothCalibConfig:
 2870              	.LFB156:
1888:/home/rdu/Workspace/project_templates/mcu/stm32_ws/src/libraries/STM32F4xx_StdPeriph_Driver/src/stm32f4xx_rtc.c **** 
1889:/home/rdu/Workspace/project_templates/mcu/stm32_ws/src/libraries/STM32F4xx_StdPeriph_Driver/src/stm32f4xx_rtc.c **** /**
1890:/home/rdu/Workspace/project_templates/mcu/stm32_ws/src/libraries/STM32F4xx_StdPeriph_Driver/src/stm32f4xx_rtc.c ****   * @brief  Configures the Smooth Calibration Settings.
1891:/home/rdu/Workspace/project_templates/mcu/stm32_ws/src/libraries/STM32F4xx_StdPeriph_Driver/src/stm32f4xx_rtc.c ****   * @param  RTC_SmoothCalibPeriod : Select the Smooth Calibration Period.
1892:/home/rdu/Workspace/project_templates/mcu/stm32_ws/src/libraries/STM32F4xx_StdPeriph_Driver/src/stm32f4xx_rtc.c ****   *   This parameter can be can be one of the following values:
1893:/home/rdu/Workspace/project_templates/mcu/stm32_ws/src/libraries/STM32F4xx_StdPeriph_Driver/src/stm32f4xx_rtc.c ****   *     @arg RTC_SmoothCalibPeriod_32sec : The smooth calibration period is 32s.
1894:/home/rdu/Workspace/project_templates/mcu/stm32_ws/src/libraries/STM32F4xx_StdPeriph_Driver/src/stm32f4xx_rtc.c ****   *     @arg RTC_SmoothCalibPeriod_16sec : The smooth calibration period is 16s.
1895:/home/rdu/Workspace/project_templates/mcu/stm32_ws/src/libraries/STM32F4xx_StdPeriph_Driver/src/stm32f4xx_rtc.c ****   *     @arg RTC_SmoothCalibPeriod_8sec  : The smooth calibration period is 8s.
1896:/home/rdu/Workspace/project_templates/mcu/stm32_ws/src/libraries/STM32F4xx_StdPeriph_Driver/src/stm32f4xx_rtc.c ****   * @param  RTC_SmoothCalibPlusPulses : Select to Set or reset the CALP bit.
1897:/home/rdu/Workspace/project_templates/mcu/stm32_ws/src/libraries/STM32F4xx_StdPeriph_Driver/src/stm32f4xx_rtc.c ****   *   This parameter can be one of the following values:
1898:/home/rdu/Workspace/project_templates/mcu/stm32_ws/src/libraries/STM32F4xx_StdPeriph_Driver/src/stm32f4xx_rtc.c ****   *     @arg RTC_SmoothCalibPlusPulses_Set  : Add one RTCCLK pulse every 2**11 pulses.
1899:/home/rdu/Workspace/project_templates/mcu/stm32_ws/src/libraries/STM32F4xx_StdPeriph_Driver/src/stm32f4xx_rtc.c ****   *     @arg RTC_SmoothCalibPlusPulses_Reset: No RTCCLK pulses are added.
1900:/home/rdu/Workspace/project_templates/mcu/stm32_ws/src/libraries/STM32F4xx_StdPeriph_Driver/src/stm32f4xx_rtc.c ****   * @param  RTC_SmouthCalibMinusPulsesValue: Select the value of CALM[8:0] bits.
1901:/home/rdu/Workspace/project_templates/mcu/stm32_ws/src/libraries/STM32F4xx_StdPeriph_Driver/src/stm32f4xx_rtc.c ****   *   This parameter can be one any value from 0 to 0x000001FF.
1902:/home/rdu/Workspace/project_templates/mcu/stm32_ws/src/libraries/STM32F4xx_StdPeriph_Driver/src/stm32f4xx_rtc.c ****   * @retval An ErrorStatus enumeration value:
1903:/home/rdu/Workspace/project_templates/mcu/stm32_ws/src/libraries/STM32F4xx_StdPeriph_Driver/src/stm32f4xx_rtc.c ****   *          - SUCCESS: RTC Calib registers are configured
1904:/home/rdu/Workspace/project_templates/mcu/stm32_ws/src/libraries/STM32F4xx_StdPeriph_Driver/src/stm32f4xx_rtc.c ****   *          - ERROR: RTC Calib registers are not configured
1905:/home/rdu/Workspace/project_templates/mcu/stm32_ws/src/libraries/STM32F4xx_StdPeriph_Driver/src/stm32f4xx_rtc.c **** */
1906:/home/rdu/Workspace/project_templates/mcu/stm32_ws/src/libraries/STM32F4xx_StdPeriph_Driver/src/stm32f4xx_rtc.c **** ErrorStatus RTC_SmoothCalibConfig(uint32_t RTC_SmoothCalibPeriod,
1907:/home/rdu/Workspace/project_templates/mcu/stm32_ws/src/libraries/STM32F4xx_StdPeriph_Driver/src/stm32f4xx_rtc.c ****                                   uint32_t RTC_SmoothCalibPlusPulses,
1908:/home/rdu/Workspace/project_templates/mcu/stm32_ws/src/libraries/STM32F4xx_StdPeriph_Driver/src/stm32f4xx_rtc.c ****                                   uint32_t RTC_SmouthCalibMinusPulsesValue)
1909:/home/rdu/Workspace/project_templates/mcu/stm32_ws/src/libraries/STM32F4xx_StdPeriph_Driver/src/stm32f4xx_rtc.c **** {
 2871              		.loc 1 1909 0
 2872              		.cfi_startproc
 2873              		@ args = 0, pretend = 0, frame = 24
 2874              		@ frame_needed = 0, uses_anonymous_args = 0
 2875              		@ link register save eliminated.
 2876 0000 86B0     		sub	sp, sp, #24
 2877              	.LCFI71:
 2878              		.cfi_def_cfa_offset 24
 2879 0002 0390     		str	r0, [sp, #12]
 2880 0004 0291     		str	r1, [sp, #8]
 2881 0006 0192     		str	r2, [sp, #4]
1910:/home/rdu/Workspace/project_templates/mcu/stm32_ws/src/libraries/STM32F4xx_StdPeriph_Driver/src/stm32f4xx_rtc.c ****   ErrorStatus status = ERROR;
 2882              		.loc 1 1910 0
 2883 0008 0023     		movs	r3, #0
 2884 000a 8DF81730 		strb	r3, [sp, #23]
1911:/home/rdu/Workspace/project_templates/mcu/stm32_ws/src/libraries/STM32F4xx_StdPeriph_Driver/src/stm32f4xx_rtc.c ****   uint32_t recalpfcount = 0;
 2885              		.loc 1 1911 0
 2886 000e 0023     		movs	r3, #0
 2887 0010 0493     		str	r3, [sp, #16]
1912:/home/rdu/Workspace/project_templates/mcu/stm32_ws/src/libraries/STM32F4xx_StdPeriph_Driver/src/stm32f4xx_rtc.c **** 
1913:/home/rdu/Workspace/project_templates/mcu/stm32_ws/src/libraries/STM32F4xx_StdPeriph_Driver/src/stm32f4xx_rtc.c ****   /* Check the parameters */
1914:/home/rdu/Workspace/project_templates/mcu/stm32_ws/src/libraries/STM32F4xx_StdPeriph_Driver/src/stm32f4xx_rtc.c ****   assert_param(IS_RTC_SMOOTH_CALIB_PERIOD(RTC_SmoothCalibPeriod));
1915:/home/rdu/Workspace/project_templates/mcu/stm32_ws/src/libraries/STM32F4xx_StdPeriph_Driver/src/stm32f4xx_rtc.c ****   assert_param(IS_RTC_SMOOTH_CALIB_PLUS(RTC_SmoothCalibPlusPulses));
1916:/home/rdu/Workspace/project_templates/mcu/stm32_ws/src/libraries/STM32F4xx_StdPeriph_Driver/src/stm32f4xx_rtc.c ****   assert_param(IS_RTC_SMOOTH_CALIB_MINUS(RTC_SmouthCalibMinusPulsesValue));
1917:/home/rdu/Workspace/project_templates/mcu/stm32_ws/src/libraries/STM32F4xx_StdPeriph_Driver/src/stm32f4xx_rtc.c **** 
1918:/home/rdu/Workspace/project_templates/mcu/stm32_ws/src/libraries/STM32F4xx_StdPeriph_Driver/src/stm32f4xx_rtc.c ****   /* Disable the write protection for RTC registers */
1919:/home/rdu/Workspace/project_templates/mcu/stm32_ws/src/libraries/STM32F4xx_StdPeriph_Driver/src/stm32f4xx_rtc.c ****   RTC->WPR = 0xCA;
 2888              		.loc 1 1919 0
 2889 0012 1B4B     		ldr	r3, .L201
 2890 0014 CA22     		movs	r2, #202
 2891 0016 5A62     		str	r2, [r3, #36]
1920:/home/rdu/Workspace/project_templates/mcu/stm32_ws/src/libraries/STM32F4xx_StdPeriph_Driver/src/stm32f4xx_rtc.c ****   RTC->WPR = 0x53;
 2892              		.loc 1 1920 0
 2893 0018 194B     		ldr	r3, .L201
 2894 001a 5322     		movs	r2, #83
 2895 001c 5A62     		str	r2, [r3, #36]
1921:/home/rdu/Workspace/project_templates/mcu/stm32_ws/src/libraries/STM32F4xx_StdPeriph_Driver/src/stm32f4xx_rtc.c ****   
1922:/home/rdu/Workspace/project_templates/mcu/stm32_ws/src/libraries/STM32F4xx_StdPeriph_Driver/src/stm32f4xx_rtc.c ****   /* check if a calibration is pending*/
1923:/home/rdu/Workspace/project_templates/mcu/stm32_ws/src/libraries/STM32F4xx_StdPeriph_Driver/src/stm32f4xx_rtc.c ****   if ((RTC->ISR & RTC_ISR_RECALPF) != RESET)
 2896              		.loc 1 1923 0
 2897 001e 184B     		ldr	r3, .L201
 2898 0020 DB68     		ldr	r3, [r3, #12]
 2899 0022 03F48033 		and	r3, r3, #65536
 2900 0026 002B     		cmp	r3, #0
 2901 0028 0DD0     		beq	.L195
1924:/home/rdu/Workspace/project_templates/mcu/stm32_ws/src/libraries/STM32F4xx_StdPeriph_Driver/src/stm32f4xx_rtc.c ****   {
1925:/home/rdu/Workspace/project_templates/mcu/stm32_ws/src/libraries/STM32F4xx_StdPeriph_Driver/src/stm32f4xx_rtc.c ****     /* wait until the Calibration is completed*/
1926:/home/rdu/Workspace/project_templates/mcu/stm32_ws/src/libraries/STM32F4xx_StdPeriph_Driver/src/stm32f4xx_rtc.c ****     while (((RTC->ISR & RTC_ISR_RECALPF) != RESET) && (recalpfcount != RECALPF_TIMEOUT))
 2902              		.loc 1 1926 0
 2903 002a 02E0     		b	.L196
 2904              	.L197:
1927:/home/rdu/Workspace/project_templates/mcu/stm32_ws/src/libraries/STM32F4xx_StdPeriph_Driver/src/stm32f4xx_rtc.c ****     {
1928:/home/rdu/Workspace/project_templates/mcu/stm32_ws/src/libraries/STM32F4xx_StdPeriph_Driver/src/stm32f4xx_rtc.c ****       recalpfcount++;
 2905              		.loc 1 1928 0
 2906 002c 049B     		ldr	r3, [sp, #16]
 2907 002e 0133     		adds	r3, r3, #1
 2908 0030 0493     		str	r3, [sp, #16]
 2909              	.L196:
1926:/home/rdu/Workspace/project_templates/mcu/stm32_ws/src/libraries/STM32F4xx_StdPeriph_Driver/src/stm32f4xx_rtc.c ****     {
 2910              		.loc 1 1926 0
 2911 0032 134B     		ldr	r3, .L201
 2912 0034 DB68     		ldr	r3, [r3, #12]
 2913 0036 03F48033 		and	r3, r3, #65536
 2914 003a 002B     		cmp	r3, #0
 2915 003c 03D0     		beq	.L195
1926:/home/rdu/Workspace/project_templates/mcu/stm32_ws/src/libraries/STM32F4xx_StdPeriph_Driver/src/stm32f4xx_rtc.c ****     {
 2916              		.loc 1 1926 0 is_stmt 0 discriminator 1
 2917 003e 049B     		ldr	r3, [sp, #16]
 2918 0040 B3F5003F 		cmp	r3, #131072
 2919 0044 F2D1     		bne	.L197
 2920              	.L195:
1929:/home/rdu/Workspace/project_templates/mcu/stm32_ws/src/libraries/STM32F4xx_StdPeriph_Driver/src/stm32f4xx_rtc.c ****     }
1930:/home/rdu/Workspace/project_templates/mcu/stm32_ws/src/libraries/STM32F4xx_StdPeriph_Driver/src/stm32f4xx_rtc.c ****   }
1931:/home/rdu/Workspace/project_templates/mcu/stm32_ws/src/libraries/STM32F4xx_StdPeriph_Driver/src/stm32f4xx_rtc.c **** 
1932:/home/rdu/Workspace/project_templates/mcu/stm32_ws/src/libraries/STM32F4xx_StdPeriph_Driver/src/stm32f4xx_rtc.c ****   /* check if the calibration pending is completed or if there is no calibration operation at all*/
1933:/home/rdu/Workspace/project_templates/mcu/stm32_ws/src/libraries/STM32F4xx_StdPeriph_Driver/src/stm32f4xx_rtc.c ****   if ((RTC->ISR & RTC_ISR_RECALPF) == RESET)
 2921              		.loc 1 1933 0 is_stmt 1
 2922 0046 0E4B     		ldr	r3, .L201
 2923 0048 DB68     		ldr	r3, [r3, #12]
 2924 004a 03F48033 		and	r3, r3, #65536
 2925 004e 002B     		cmp	r3, #0
 2926 0050 0AD1     		bne	.L198
1934:/home/rdu/Workspace/project_templates/mcu/stm32_ws/src/libraries/STM32F4xx_StdPeriph_Driver/src/stm32f4xx_rtc.c ****   {
1935:/home/rdu/Workspace/project_templates/mcu/stm32_ws/src/libraries/STM32F4xx_StdPeriph_Driver/src/stm32f4xx_rtc.c ****     /* Configure the Smooth calibration settings */
1936:/home/rdu/Workspace/project_templates/mcu/stm32_ws/src/libraries/STM32F4xx_StdPeriph_Driver/src/stm32f4xx_rtc.c ****     RTC->CALR = (uint32_t)((uint32_t)RTC_SmoothCalibPeriod | (uint32_t)RTC_SmoothCalibPlusPulses | 
 2927              		.loc 1 1936 0
 2928 0052 039A     		ldr	r2, [sp, #12]
 2929 0054 029B     		ldr	r3, [sp, #8]
 2930 0056 1A43     		orrs	r2, r2, r3
 2931 0058 0949     		ldr	r1, .L201
 2932 005a 019B     		ldr	r3, [sp, #4]
 2933 005c 1343     		orrs	r3, r3, r2
 2934 005e CB63     		str	r3, [r1, #60]
1937:/home/rdu/Workspace/project_templates/mcu/stm32_ws/src/libraries/STM32F4xx_StdPeriph_Driver/src/stm32f4xx_rtc.c **** 
1938:/home/rdu/Workspace/project_templates/mcu/stm32_ws/src/libraries/STM32F4xx_StdPeriph_Driver/src/stm32f4xx_rtc.c ****     status = SUCCESS;
 2935              		.loc 1 1938 0
 2936 0060 0123     		movs	r3, #1
 2937 0062 8DF81730 		strb	r3, [sp, #23]
 2938 0066 02E0     		b	.L199
 2939              	.L198:
1939:/home/rdu/Workspace/project_templates/mcu/stm32_ws/src/libraries/STM32F4xx_StdPeriph_Driver/src/stm32f4xx_rtc.c ****   }
1940:/home/rdu/Workspace/project_templates/mcu/stm32_ws/src/libraries/STM32F4xx_StdPeriph_Driver/src/stm32f4xx_rtc.c ****   else
1941:/home/rdu/Workspace/project_templates/mcu/stm32_ws/src/libraries/STM32F4xx_StdPeriph_Driver/src/stm32f4xx_rtc.c ****   {
1942:/home/rdu/Workspace/project_templates/mcu/stm32_ws/src/libraries/STM32F4xx_StdPeriph_Driver/src/stm32f4xx_rtc.c ****     status = ERROR;
 2940              		.loc 1 1942 0
 2941 0068 0023     		movs	r3, #0
 2942 006a 8DF81730 		strb	r3, [sp, #23]
 2943              	.L199:
1943:/home/rdu/Workspace/project_templates/mcu/stm32_ws/src/libraries/STM32F4xx_StdPeriph_Driver/src/stm32f4xx_rtc.c ****   }
1944:/home/rdu/Workspace/project_templates/mcu/stm32_ws/src/libraries/STM32F4xx_StdPeriph_Driver/src/stm32f4xx_rtc.c **** 
1945:/home/rdu/Workspace/project_templates/mcu/stm32_ws/src/libraries/STM32F4xx_StdPeriph_Driver/src/stm32f4xx_rtc.c ****   /* Enable the write protection for RTC registers */
1946:/home/rdu/Workspace/project_templates/mcu/stm32_ws/src/libraries/STM32F4xx_StdPeriph_Driver/src/stm32f4xx_rtc.c ****   RTC->WPR = 0xFF;
 2944              		.loc 1 1946 0
 2945 006e 044B     		ldr	r3, .L201
 2946 0070 FF22     		movs	r2, #255
 2947 0072 5A62     		str	r2, [r3, #36]
1947:/home/rdu/Workspace/project_templates/mcu/stm32_ws/src/libraries/STM32F4xx_StdPeriph_Driver/src/stm32f4xx_rtc.c ****   
1948:/home/rdu/Workspace/project_templates/mcu/stm32_ws/src/libraries/STM32F4xx_StdPeriph_Driver/src/stm32f4xx_rtc.c ****   return (ErrorStatus)(status);
 2948              		.loc 1 1948 0
 2949 0074 9DF81730 		ldrb	r3, [sp, #23]	@ zero_extendqisi2
1949:/home/rdu/Workspace/project_templates/mcu/stm32_ws/src/libraries/STM32F4xx_StdPeriph_Driver/src/stm32f4xx_rtc.c **** }
 2950              		.loc 1 1949 0
 2951 0078 1846     		mov	r0, r3
 2952 007a 06B0     		add	sp, sp, #24
 2953              	.LCFI72:
 2954              		.cfi_def_cfa_offset 0
 2955              		@ sp needed
 2956 007c 7047     		bx	lr
 2957              	.L202:
 2958 007e 00BF     		.align	2
 2959              	.L201:
 2960 0080 00280040 		.word	1073752064
 2961              		.cfi_endproc
 2962              	.LFE156:
 2964              		.section	.text.RTC_TimeStampCmd,"ax",%progbits
 2965              		.align	1
 2966              		.global	RTC_TimeStampCmd
 2967              		.syntax unified
 2968              		.thumb
 2969              		.thumb_func
 2970              		.fpu fpv4-sp-d16
 2972              	RTC_TimeStampCmd:
 2973              	.LFB157:
1950:/home/rdu/Workspace/project_templates/mcu/stm32_ws/src/libraries/STM32F4xx_StdPeriph_Driver/src/stm32f4xx_rtc.c **** 
1951:/home/rdu/Workspace/project_templates/mcu/stm32_ws/src/libraries/STM32F4xx_StdPeriph_Driver/src/stm32f4xx_rtc.c **** /**
1952:/home/rdu/Workspace/project_templates/mcu/stm32_ws/src/libraries/STM32F4xx_StdPeriph_Driver/src/stm32f4xx_rtc.c ****   * @}
1953:/home/rdu/Workspace/project_templates/mcu/stm32_ws/src/libraries/STM32F4xx_StdPeriph_Driver/src/stm32f4xx_rtc.c ****   */
1954:/home/rdu/Workspace/project_templates/mcu/stm32_ws/src/libraries/STM32F4xx_StdPeriph_Driver/src/stm32f4xx_rtc.c **** 
1955:/home/rdu/Workspace/project_templates/mcu/stm32_ws/src/libraries/STM32F4xx_StdPeriph_Driver/src/stm32f4xx_rtc.c **** 
1956:/home/rdu/Workspace/project_templates/mcu/stm32_ws/src/libraries/STM32F4xx_StdPeriph_Driver/src/stm32f4xx_rtc.c **** /** @defgroup RTC_Group8 TimeStamp configuration functions
1957:/home/rdu/Workspace/project_templates/mcu/stm32_ws/src/libraries/STM32F4xx_StdPeriph_Driver/src/stm32f4xx_rtc.c ****  *  @brief   TimeStamp configuration functions 
1958:/home/rdu/Workspace/project_templates/mcu/stm32_ws/src/libraries/STM32F4xx_StdPeriph_Driver/src/stm32f4xx_rtc.c ****  *
1959:/home/rdu/Workspace/project_templates/mcu/stm32_ws/src/libraries/STM32F4xx_StdPeriph_Driver/src/stm32f4xx_rtc.c **** @verbatim   
1960:/home/rdu/Workspace/project_templates/mcu/stm32_ws/src/libraries/STM32F4xx_StdPeriph_Driver/src/stm32f4xx_rtc.c ****  ===============================================================================
1961:/home/rdu/Workspace/project_templates/mcu/stm32_ws/src/libraries/STM32F4xx_StdPeriph_Driver/src/stm32f4xx_rtc.c ****                  ##### TimeStamp configuration functions #####
1962:/home/rdu/Workspace/project_templates/mcu/stm32_ws/src/libraries/STM32F4xx_StdPeriph_Driver/src/stm32f4xx_rtc.c ****  ===============================================================================  
1963:/home/rdu/Workspace/project_templates/mcu/stm32_ws/src/libraries/STM32F4xx_StdPeriph_Driver/src/stm32f4xx_rtc.c **** 
1964:/home/rdu/Workspace/project_templates/mcu/stm32_ws/src/libraries/STM32F4xx_StdPeriph_Driver/src/stm32f4xx_rtc.c **** @endverbatim
1965:/home/rdu/Workspace/project_templates/mcu/stm32_ws/src/libraries/STM32F4xx_StdPeriph_Driver/src/stm32f4xx_rtc.c ****   * @{
1966:/home/rdu/Workspace/project_templates/mcu/stm32_ws/src/libraries/STM32F4xx_StdPeriph_Driver/src/stm32f4xx_rtc.c ****   */
1967:/home/rdu/Workspace/project_templates/mcu/stm32_ws/src/libraries/STM32F4xx_StdPeriph_Driver/src/stm32f4xx_rtc.c **** 
1968:/home/rdu/Workspace/project_templates/mcu/stm32_ws/src/libraries/STM32F4xx_StdPeriph_Driver/src/stm32f4xx_rtc.c **** /**
1969:/home/rdu/Workspace/project_templates/mcu/stm32_ws/src/libraries/STM32F4xx_StdPeriph_Driver/src/stm32f4xx_rtc.c ****   * @brief  Enables or Disables the RTC TimeStamp functionality with the 
1970:/home/rdu/Workspace/project_templates/mcu/stm32_ws/src/libraries/STM32F4xx_StdPeriph_Driver/src/stm32f4xx_rtc.c ****   *         specified time stamp pin stimulating edge.
1971:/home/rdu/Workspace/project_templates/mcu/stm32_ws/src/libraries/STM32F4xx_StdPeriph_Driver/src/stm32f4xx_rtc.c ****   * @param  RTC_TimeStampEdge: Specifies the pin edge on which the TimeStamp is 
1972:/home/rdu/Workspace/project_templates/mcu/stm32_ws/src/libraries/STM32F4xx_StdPeriph_Driver/src/stm32f4xx_rtc.c ****   *         activated.
1973:/home/rdu/Workspace/project_templates/mcu/stm32_ws/src/libraries/STM32F4xx_StdPeriph_Driver/src/stm32f4xx_rtc.c ****   *          This parameter can be one of the following:
1974:/home/rdu/Workspace/project_templates/mcu/stm32_ws/src/libraries/STM32F4xx_StdPeriph_Driver/src/stm32f4xx_rtc.c ****   *            @arg RTC_TimeStampEdge_Rising: the Time stamp event occurs on the rising 
1975:/home/rdu/Workspace/project_templates/mcu/stm32_ws/src/libraries/STM32F4xx_StdPeriph_Driver/src/stm32f4xx_rtc.c ****   *                                    edge of the related pin.
1976:/home/rdu/Workspace/project_templates/mcu/stm32_ws/src/libraries/STM32F4xx_StdPeriph_Driver/src/stm32f4xx_rtc.c ****   *            @arg RTC_TimeStampEdge_Falling: the Time stamp event occurs on the 
1977:/home/rdu/Workspace/project_templates/mcu/stm32_ws/src/libraries/STM32F4xx_StdPeriph_Driver/src/stm32f4xx_rtc.c ****   *                                     falling edge of the related pin.
1978:/home/rdu/Workspace/project_templates/mcu/stm32_ws/src/libraries/STM32F4xx_StdPeriph_Driver/src/stm32f4xx_rtc.c ****   * @param  NewState: new state of the TimeStamp.
1979:/home/rdu/Workspace/project_templates/mcu/stm32_ws/src/libraries/STM32F4xx_StdPeriph_Driver/src/stm32f4xx_rtc.c ****   *          This parameter can be: ENABLE or DISABLE.
1980:/home/rdu/Workspace/project_templates/mcu/stm32_ws/src/libraries/STM32F4xx_StdPeriph_Driver/src/stm32f4xx_rtc.c ****   * @retval None
1981:/home/rdu/Workspace/project_templates/mcu/stm32_ws/src/libraries/STM32F4xx_StdPeriph_Driver/src/stm32f4xx_rtc.c ****   */
1982:/home/rdu/Workspace/project_templates/mcu/stm32_ws/src/libraries/STM32F4xx_StdPeriph_Driver/src/stm32f4xx_rtc.c **** void RTC_TimeStampCmd(uint32_t RTC_TimeStampEdge, FunctionalState NewState)
1983:/home/rdu/Workspace/project_templates/mcu/stm32_ws/src/libraries/STM32F4xx_StdPeriph_Driver/src/stm32f4xx_rtc.c **** {
 2974              		.loc 1 1983 0
 2975              		.cfi_startproc
 2976              		@ args = 0, pretend = 0, frame = 16
 2977              		@ frame_needed = 0, uses_anonymous_args = 0
 2978              		@ link register save eliminated.
 2979 0000 84B0     		sub	sp, sp, #16
 2980              	.LCFI73:
 2981              		.cfi_def_cfa_offset 16
 2982 0002 0190     		str	r0, [sp, #4]
 2983 0004 0B46     		mov	r3, r1
 2984 0006 8DF80330 		strb	r3, [sp, #3]
1984:/home/rdu/Workspace/project_templates/mcu/stm32_ws/src/libraries/STM32F4xx_StdPeriph_Driver/src/stm32f4xx_rtc.c ****   uint32_t tmpreg = 0;
 2985              		.loc 1 1984 0
 2986 000a 0023     		movs	r3, #0
 2987 000c 0393     		str	r3, [sp, #12]
1985:/home/rdu/Workspace/project_templates/mcu/stm32_ws/src/libraries/STM32F4xx_StdPeriph_Driver/src/stm32f4xx_rtc.c **** 
1986:/home/rdu/Workspace/project_templates/mcu/stm32_ws/src/libraries/STM32F4xx_StdPeriph_Driver/src/stm32f4xx_rtc.c ****   /* Check the parameters */
1987:/home/rdu/Workspace/project_templates/mcu/stm32_ws/src/libraries/STM32F4xx_StdPeriph_Driver/src/stm32f4xx_rtc.c ****   assert_param(IS_RTC_TIMESTAMP_EDGE(RTC_TimeStampEdge));
1988:/home/rdu/Workspace/project_templates/mcu/stm32_ws/src/libraries/STM32F4xx_StdPeriph_Driver/src/stm32f4xx_rtc.c ****   assert_param(IS_FUNCTIONAL_STATE(NewState));
1989:/home/rdu/Workspace/project_templates/mcu/stm32_ws/src/libraries/STM32F4xx_StdPeriph_Driver/src/stm32f4xx_rtc.c **** 
1990:/home/rdu/Workspace/project_templates/mcu/stm32_ws/src/libraries/STM32F4xx_StdPeriph_Driver/src/stm32f4xx_rtc.c ****   /* Get the RTC_CR register and clear the bits to be configured */
1991:/home/rdu/Workspace/project_templates/mcu/stm32_ws/src/libraries/STM32F4xx_StdPeriph_Driver/src/stm32f4xx_rtc.c ****   tmpreg = (uint32_t)(RTC->CR & (uint32_t)~(RTC_CR_TSEDGE | RTC_CR_TSE));
 2988              		.loc 1 1991 0
 2989 000e 124B     		ldr	r3, .L206
 2990 0010 9B68     		ldr	r3, [r3, #8]
 2991 0012 23F40063 		bic	r3, r3, #2048
 2992 0016 23F00803 		bic	r3, r3, #8
 2993 001a 0393     		str	r3, [sp, #12]
1992:/home/rdu/Workspace/project_templates/mcu/stm32_ws/src/libraries/STM32F4xx_StdPeriph_Driver/src/stm32f4xx_rtc.c **** 
1993:/home/rdu/Workspace/project_templates/mcu/stm32_ws/src/libraries/STM32F4xx_StdPeriph_Driver/src/stm32f4xx_rtc.c ****   /* Get the new configuration */
1994:/home/rdu/Workspace/project_templates/mcu/stm32_ws/src/libraries/STM32F4xx_StdPeriph_Driver/src/stm32f4xx_rtc.c ****   if (NewState != DISABLE)
 2994              		.loc 1 1994 0
 2995 001c 9DF80330 		ldrb	r3, [sp, #3]	@ zero_extendqisi2
 2996 0020 002B     		cmp	r3, #0
 2997 0022 06D0     		beq	.L204
1995:/home/rdu/Workspace/project_templates/mcu/stm32_ws/src/libraries/STM32F4xx_StdPeriph_Driver/src/stm32f4xx_rtc.c ****   {
1996:/home/rdu/Workspace/project_templates/mcu/stm32_ws/src/libraries/STM32F4xx_StdPeriph_Driver/src/stm32f4xx_rtc.c ****     tmpreg |= (uint32_t)(RTC_TimeStampEdge | RTC_CR_TSE);
 2998              		.loc 1 1996 0
 2999 0024 019A     		ldr	r2, [sp, #4]
 3000 0026 039B     		ldr	r3, [sp, #12]
 3001 0028 1343     		orrs	r3, r3, r2
 3002 002a 43F40063 		orr	r3, r3, #2048
 3003 002e 0393     		str	r3, [sp, #12]
 3004 0030 03E0     		b	.L205
 3005              	.L204:
1997:/home/rdu/Workspace/project_templates/mcu/stm32_ws/src/libraries/STM32F4xx_StdPeriph_Driver/src/stm32f4xx_rtc.c ****   }
1998:/home/rdu/Workspace/project_templates/mcu/stm32_ws/src/libraries/STM32F4xx_StdPeriph_Driver/src/stm32f4xx_rtc.c ****   else
1999:/home/rdu/Workspace/project_templates/mcu/stm32_ws/src/libraries/STM32F4xx_StdPeriph_Driver/src/stm32f4xx_rtc.c ****   {
2000:/home/rdu/Workspace/project_templates/mcu/stm32_ws/src/libraries/STM32F4xx_StdPeriph_Driver/src/stm32f4xx_rtc.c ****     tmpreg |= (uint32_t)(RTC_TimeStampEdge);
 3006              		.loc 1 2000 0
 3007 0032 039A     		ldr	r2, [sp, #12]
 3008 0034 019B     		ldr	r3, [sp, #4]
 3009 0036 1343     		orrs	r3, r3, r2
 3010 0038 0393     		str	r3, [sp, #12]
 3011              	.L205:
2001:/home/rdu/Workspace/project_templates/mcu/stm32_ws/src/libraries/STM32F4xx_StdPeriph_Driver/src/stm32f4xx_rtc.c ****   }
2002:/home/rdu/Workspace/project_templates/mcu/stm32_ws/src/libraries/STM32F4xx_StdPeriph_Driver/src/stm32f4xx_rtc.c **** 
2003:/home/rdu/Workspace/project_templates/mcu/stm32_ws/src/libraries/STM32F4xx_StdPeriph_Driver/src/stm32f4xx_rtc.c ****   /* Disable the write protection for RTC registers */
2004:/home/rdu/Workspace/project_templates/mcu/stm32_ws/src/libraries/STM32F4xx_StdPeriph_Driver/src/stm32f4xx_rtc.c ****   RTC->WPR = 0xCA;
 3012              		.loc 1 2004 0
 3013 003a 074B     		ldr	r3, .L206
 3014 003c CA22     		movs	r2, #202
 3015 003e 5A62     		str	r2, [r3, #36]
2005:/home/rdu/Workspace/project_templates/mcu/stm32_ws/src/libraries/STM32F4xx_StdPeriph_Driver/src/stm32f4xx_rtc.c ****   RTC->WPR = 0x53;
 3016              		.loc 1 2005 0
 3017 0040 054B     		ldr	r3, .L206
 3018 0042 5322     		movs	r2, #83
 3019 0044 5A62     		str	r2, [r3, #36]
2006:/home/rdu/Workspace/project_templates/mcu/stm32_ws/src/libraries/STM32F4xx_StdPeriph_Driver/src/stm32f4xx_rtc.c **** 
2007:/home/rdu/Workspace/project_templates/mcu/stm32_ws/src/libraries/STM32F4xx_StdPeriph_Driver/src/stm32f4xx_rtc.c ****   /* Configure the Time Stamp TSEDGE and Enable bits */
2008:/home/rdu/Workspace/project_templates/mcu/stm32_ws/src/libraries/STM32F4xx_StdPeriph_Driver/src/stm32f4xx_rtc.c ****   RTC->CR = (uint32_t)tmpreg;
 3020              		.loc 1 2008 0
 3021 0046 044A     		ldr	r2, .L206
 3022 0048 039B     		ldr	r3, [sp, #12]
 3023 004a 9360     		str	r3, [r2, #8]
2009:/home/rdu/Workspace/project_templates/mcu/stm32_ws/src/libraries/STM32F4xx_StdPeriph_Driver/src/stm32f4xx_rtc.c **** 
2010:/home/rdu/Workspace/project_templates/mcu/stm32_ws/src/libraries/STM32F4xx_StdPeriph_Driver/src/stm32f4xx_rtc.c ****   /* Enable the write protection for RTC registers */
2011:/home/rdu/Workspace/project_templates/mcu/stm32_ws/src/libraries/STM32F4xx_StdPeriph_Driver/src/stm32f4xx_rtc.c ****   RTC->WPR = 0xFF; 
 3024              		.loc 1 2011 0
 3025 004c 024B     		ldr	r3, .L206
 3026 004e FF22     		movs	r2, #255
 3027 0050 5A62     		str	r2, [r3, #36]
2012:/home/rdu/Workspace/project_templates/mcu/stm32_ws/src/libraries/STM32F4xx_StdPeriph_Driver/src/stm32f4xx_rtc.c **** }
 3028              		.loc 1 2012 0
 3029 0052 00BF     		nop
 3030 0054 04B0     		add	sp, sp, #16
 3031              	.LCFI74:
 3032              		.cfi_def_cfa_offset 0
 3033              		@ sp needed
 3034 0056 7047     		bx	lr
 3035              	.L207:
 3036              		.align	2
 3037              	.L206:
 3038 0058 00280040 		.word	1073752064
 3039              		.cfi_endproc
 3040              	.LFE157:
 3042              		.section	.text.RTC_GetTimeStamp,"ax",%progbits
 3043              		.align	1
 3044              		.global	RTC_GetTimeStamp
 3045              		.syntax unified
 3046              		.thumb
 3047              		.thumb_func
 3048              		.fpu fpv4-sp-d16
 3050              	RTC_GetTimeStamp:
 3051              	.LFB158:
2013:/home/rdu/Workspace/project_templates/mcu/stm32_ws/src/libraries/STM32F4xx_StdPeriph_Driver/src/stm32f4xx_rtc.c **** 
2014:/home/rdu/Workspace/project_templates/mcu/stm32_ws/src/libraries/STM32F4xx_StdPeriph_Driver/src/stm32f4xx_rtc.c **** /**
2015:/home/rdu/Workspace/project_templates/mcu/stm32_ws/src/libraries/STM32F4xx_StdPeriph_Driver/src/stm32f4xx_rtc.c ****   * @brief  Get the RTC TimeStamp value and masks.
2016:/home/rdu/Workspace/project_templates/mcu/stm32_ws/src/libraries/STM32F4xx_StdPeriph_Driver/src/stm32f4xx_rtc.c ****   * @param  RTC_Format: specifies the format of the output parameters.
2017:/home/rdu/Workspace/project_templates/mcu/stm32_ws/src/libraries/STM32F4xx_StdPeriph_Driver/src/stm32f4xx_rtc.c ****   *          This parameter can be one of the following values:
2018:/home/rdu/Workspace/project_templates/mcu/stm32_ws/src/libraries/STM32F4xx_StdPeriph_Driver/src/stm32f4xx_rtc.c ****   *            @arg RTC_Format_BIN: Binary data format 
2019:/home/rdu/Workspace/project_templates/mcu/stm32_ws/src/libraries/STM32F4xx_StdPeriph_Driver/src/stm32f4xx_rtc.c ****   *            @arg RTC_Format_BCD: BCD data format
2020:/home/rdu/Workspace/project_templates/mcu/stm32_ws/src/libraries/STM32F4xx_StdPeriph_Driver/src/stm32f4xx_rtc.c ****   * @param RTC_StampTimeStruct: pointer to a RTC_TimeTypeDef structure that will 
2021:/home/rdu/Workspace/project_templates/mcu/stm32_ws/src/libraries/STM32F4xx_StdPeriph_Driver/src/stm32f4xx_rtc.c ****   *                             contains the TimeStamp time values. 
2022:/home/rdu/Workspace/project_templates/mcu/stm32_ws/src/libraries/STM32F4xx_StdPeriph_Driver/src/stm32f4xx_rtc.c ****   * @param RTC_StampDateStruct: pointer to a RTC_DateTypeDef structure that will 
2023:/home/rdu/Workspace/project_templates/mcu/stm32_ws/src/libraries/STM32F4xx_StdPeriph_Driver/src/stm32f4xx_rtc.c ****   *                             contains the TimeStamp date values.     
2024:/home/rdu/Workspace/project_templates/mcu/stm32_ws/src/libraries/STM32F4xx_StdPeriph_Driver/src/stm32f4xx_rtc.c ****   * @retval None
2025:/home/rdu/Workspace/project_templates/mcu/stm32_ws/src/libraries/STM32F4xx_StdPeriph_Driver/src/stm32f4xx_rtc.c ****   */
2026:/home/rdu/Workspace/project_templates/mcu/stm32_ws/src/libraries/STM32F4xx_StdPeriph_Driver/src/stm32f4xx_rtc.c **** void RTC_GetTimeStamp(uint32_t RTC_Format, RTC_TimeTypeDef* RTC_StampTimeStruct, 
2027:/home/rdu/Workspace/project_templates/mcu/stm32_ws/src/libraries/STM32F4xx_StdPeriph_Driver/src/stm32f4xx_rtc.c ****                                       RTC_DateTypeDef* RTC_StampDateStruct)
2028:/home/rdu/Workspace/project_templates/mcu/stm32_ws/src/libraries/STM32F4xx_StdPeriph_Driver/src/stm32f4xx_rtc.c **** {
 3052              		.loc 1 2028 0
 3053              		.cfi_startproc
 3054              		@ args = 0, pretend = 0, frame = 24
 3055              		@ frame_needed = 0, uses_anonymous_args = 0
 3056 0000 00B5     		push	{lr}
 3057              	.LCFI75:
 3058              		.cfi_def_cfa_offset 4
 3059              		.cfi_offset 14, -4
 3060 0002 87B0     		sub	sp, sp, #28
 3061              	.LCFI76:
 3062              		.cfi_def_cfa_offset 32
 3063 0004 0390     		str	r0, [sp, #12]
 3064 0006 0291     		str	r1, [sp, #8]
 3065 0008 0192     		str	r2, [sp, #4]
2029:/home/rdu/Workspace/project_templates/mcu/stm32_ws/src/libraries/STM32F4xx_StdPeriph_Driver/src/stm32f4xx_rtc.c ****   uint32_t tmptime = 0, tmpdate = 0;
 3066              		.loc 1 2029 0
 3067 000a 0023     		movs	r3, #0
 3068 000c 0593     		str	r3, [sp, #20]
 3069 000e 0023     		movs	r3, #0
 3070 0010 0493     		str	r3, [sp, #16]
2030:/home/rdu/Workspace/project_templates/mcu/stm32_ws/src/libraries/STM32F4xx_StdPeriph_Driver/src/stm32f4xx_rtc.c **** 
2031:/home/rdu/Workspace/project_templates/mcu/stm32_ws/src/libraries/STM32F4xx_StdPeriph_Driver/src/stm32f4xx_rtc.c ****   /* Check the parameters */
2032:/home/rdu/Workspace/project_templates/mcu/stm32_ws/src/libraries/STM32F4xx_StdPeriph_Driver/src/stm32f4xx_rtc.c ****   assert_param(IS_RTC_FORMAT(RTC_Format));
2033:/home/rdu/Workspace/project_templates/mcu/stm32_ws/src/libraries/STM32F4xx_StdPeriph_Driver/src/stm32f4xx_rtc.c **** 
2034:/home/rdu/Workspace/project_templates/mcu/stm32_ws/src/libraries/STM32F4xx_StdPeriph_Driver/src/stm32f4xx_rtc.c ****   /* Get the TimeStamp time and date registers values */
2035:/home/rdu/Workspace/project_templates/mcu/stm32_ws/src/libraries/STM32F4xx_StdPeriph_Driver/src/stm32f4xx_rtc.c ****   tmptime = (uint32_t)(RTC->TSTR & RTC_TR_RESERVED_MASK);
 3071              		.loc 1 2035 0
 3072 0012 424B     		ldr	r3, .L211
 3073 0014 1B6B     		ldr	r3, [r3, #48]
 3074 0016 03F07F33 		and	r3, r3, #2139062143
 3075 001a 23F0FE43 		bic	r3, r3, #2130706432
 3076 001e 0593     		str	r3, [sp, #20]
2036:/home/rdu/Workspace/project_templates/mcu/stm32_ws/src/libraries/STM32F4xx_StdPeriph_Driver/src/stm32f4xx_rtc.c ****   tmpdate = (uint32_t)(RTC->TSDR & RTC_DR_RESERVED_MASK);
 3077              		.loc 1 2036 0
 3078 0020 3E4B     		ldr	r3, .L211
 3079 0022 5B6B     		ldr	r3, [r3, #52]
 3080 0024 23F07F43 		bic	r3, r3, #-16777216
 3081 0028 23F0C003 		bic	r3, r3, #192
 3082 002c 0493     		str	r3, [sp, #16]
2037:/home/rdu/Workspace/project_templates/mcu/stm32_ws/src/libraries/STM32F4xx_StdPeriph_Driver/src/stm32f4xx_rtc.c **** 
2038:/home/rdu/Workspace/project_templates/mcu/stm32_ws/src/libraries/STM32F4xx_StdPeriph_Driver/src/stm32f4xx_rtc.c ****   /* Fill the Time structure fields with the read parameters */
2039:/home/rdu/Workspace/project_templates/mcu/stm32_ws/src/libraries/STM32F4xx_StdPeriph_Driver/src/stm32f4xx_rtc.c ****   RTC_StampTimeStruct->RTC_Hours = (uint8_t)((tmptime & (RTC_TR_HT | RTC_TR_HU)) >> 16);
 3083              		.loc 1 2039 0
 3084 002e 059B     		ldr	r3, [sp, #20]
 3085 0030 1B0C     		lsrs	r3, r3, #16
 3086 0032 DBB2     		uxtb	r3, r3
 3087 0034 03F03F03 		and	r3, r3, #63
 3088 0038 DAB2     		uxtb	r2, r3
 3089 003a 029B     		ldr	r3, [sp, #8]
 3090 003c 1A70     		strb	r2, [r3]
2040:/home/rdu/Workspace/project_templates/mcu/stm32_ws/src/libraries/STM32F4xx_StdPeriph_Driver/src/stm32f4xx_rtc.c ****   RTC_StampTimeStruct->RTC_Minutes = (uint8_t)((tmptime & (RTC_TR_MNT | RTC_TR_MNU)) >> 8);
 3091              		.loc 1 2040 0
 3092 003e 059B     		ldr	r3, [sp, #20]
 3093 0040 1B0A     		lsrs	r3, r3, #8
 3094 0042 DBB2     		uxtb	r3, r3
 3095 0044 03F07F03 		and	r3, r3, #127
 3096 0048 DAB2     		uxtb	r2, r3
 3097 004a 029B     		ldr	r3, [sp, #8]
 3098 004c 5A70     		strb	r2, [r3, #1]
2041:/home/rdu/Workspace/project_templates/mcu/stm32_ws/src/libraries/STM32F4xx_StdPeriph_Driver/src/stm32f4xx_rtc.c ****   RTC_StampTimeStruct->RTC_Seconds = (uint8_t)(tmptime & (RTC_TR_ST | RTC_TR_SU));
 3099              		.loc 1 2041 0
 3100 004e 059B     		ldr	r3, [sp, #20]
 3101 0050 DBB2     		uxtb	r3, r3
 3102 0052 03F07F03 		and	r3, r3, #127
 3103 0056 DAB2     		uxtb	r2, r3
 3104 0058 029B     		ldr	r3, [sp, #8]
 3105 005a 9A70     		strb	r2, [r3, #2]
2042:/home/rdu/Workspace/project_templates/mcu/stm32_ws/src/libraries/STM32F4xx_StdPeriph_Driver/src/stm32f4xx_rtc.c ****   RTC_StampTimeStruct->RTC_H12 = (uint8_t)((tmptime & (RTC_TR_PM)) >> 16);  
 3106              		.loc 1 2042 0
 3107 005c 059B     		ldr	r3, [sp, #20]
 3108 005e 1B0C     		lsrs	r3, r3, #16
 3109 0060 DBB2     		uxtb	r3, r3
 3110 0062 03F04003 		and	r3, r3, #64
 3111 0066 DAB2     		uxtb	r2, r3
 3112 0068 029B     		ldr	r3, [sp, #8]
 3113 006a DA70     		strb	r2, [r3, #3]
2043:/home/rdu/Workspace/project_templates/mcu/stm32_ws/src/libraries/STM32F4xx_StdPeriph_Driver/src/stm32f4xx_rtc.c **** 
2044:/home/rdu/Workspace/project_templates/mcu/stm32_ws/src/libraries/STM32F4xx_StdPeriph_Driver/src/stm32f4xx_rtc.c ****   /* Fill the Date structure fields with the read parameters */
2045:/home/rdu/Workspace/project_templates/mcu/stm32_ws/src/libraries/STM32F4xx_StdPeriph_Driver/src/stm32f4xx_rtc.c ****   RTC_StampDateStruct->RTC_Year = 0;
 3114              		.loc 1 2045 0
 3115 006c 019B     		ldr	r3, [sp, #4]
 3116 006e 0022     		movs	r2, #0
 3117 0070 DA70     		strb	r2, [r3, #3]
2046:/home/rdu/Workspace/project_templates/mcu/stm32_ws/src/libraries/STM32F4xx_StdPeriph_Driver/src/stm32f4xx_rtc.c ****   RTC_StampDateStruct->RTC_Month = (uint8_t)((tmpdate & (RTC_DR_MT | RTC_DR_MU)) >> 8);
 3118              		.loc 1 2046 0
 3119 0072 049B     		ldr	r3, [sp, #16]
 3120 0074 1B0A     		lsrs	r3, r3, #8
 3121 0076 DBB2     		uxtb	r3, r3
 3122 0078 03F01F03 		and	r3, r3, #31
 3123 007c DAB2     		uxtb	r2, r3
 3124 007e 019B     		ldr	r3, [sp, #4]
 3125 0080 5A70     		strb	r2, [r3, #1]
2047:/home/rdu/Workspace/project_templates/mcu/stm32_ws/src/libraries/STM32F4xx_StdPeriph_Driver/src/stm32f4xx_rtc.c ****   RTC_StampDateStruct->RTC_Date = (uint8_t)(tmpdate & (RTC_DR_DT | RTC_DR_DU));
 3126              		.loc 1 2047 0
 3127 0082 049B     		ldr	r3, [sp, #16]
 3128 0084 DBB2     		uxtb	r3, r3
 3129 0086 03F03F03 		and	r3, r3, #63
 3130 008a DAB2     		uxtb	r2, r3
 3131 008c 019B     		ldr	r3, [sp, #4]
 3132 008e 9A70     		strb	r2, [r3, #2]
2048:/home/rdu/Workspace/project_templates/mcu/stm32_ws/src/libraries/STM32F4xx_StdPeriph_Driver/src/stm32f4xx_rtc.c ****   RTC_StampDateStruct->RTC_WeekDay = (uint8_t)((tmpdate & (RTC_DR_WDU)) >> 13);
 3133              		.loc 1 2048 0
 3134 0090 049B     		ldr	r3, [sp, #16]
 3135 0092 5B0B     		lsrs	r3, r3, #13
 3136 0094 DBB2     		uxtb	r3, r3
 3137 0096 03F00703 		and	r3, r3, #7
 3138 009a DAB2     		uxtb	r2, r3
 3139 009c 019B     		ldr	r3, [sp, #4]
 3140 009e 1A70     		strb	r2, [r3]
2049:/home/rdu/Workspace/project_templates/mcu/stm32_ws/src/libraries/STM32F4xx_StdPeriph_Driver/src/stm32f4xx_rtc.c **** 
2050:/home/rdu/Workspace/project_templates/mcu/stm32_ws/src/libraries/STM32F4xx_StdPeriph_Driver/src/stm32f4xx_rtc.c ****   /* Check the input parameters format */
2051:/home/rdu/Workspace/project_templates/mcu/stm32_ws/src/libraries/STM32F4xx_StdPeriph_Driver/src/stm32f4xx_rtc.c ****   if (RTC_Format == RTC_Format_BIN)
 3141              		.loc 1 2051 0
 3142 00a0 039B     		ldr	r3, [sp, #12]
 3143 00a2 002B     		cmp	r3, #0
 3144 00a4 35D1     		bne	.L210
2052:/home/rdu/Workspace/project_templates/mcu/stm32_ws/src/libraries/STM32F4xx_StdPeriph_Driver/src/stm32f4xx_rtc.c ****   {
2053:/home/rdu/Workspace/project_templates/mcu/stm32_ws/src/libraries/STM32F4xx_StdPeriph_Driver/src/stm32f4xx_rtc.c ****     /* Convert the Time structure parameters to Binary format */
2054:/home/rdu/Workspace/project_templates/mcu/stm32_ws/src/libraries/STM32F4xx_StdPeriph_Driver/src/stm32f4xx_rtc.c ****     RTC_StampTimeStruct->RTC_Hours = (uint8_t)RTC_Bcd2ToByte(RTC_StampTimeStruct->RTC_Hours);
 3145              		.loc 1 2054 0
 3146 00a6 029B     		ldr	r3, [sp, #8]
 3147 00a8 1B78     		ldrb	r3, [r3]	@ zero_extendqisi2
 3148 00aa 1846     		mov	r0, r3
 3149 00ac FFF7FEFF 		bl	RTC_Bcd2ToByte
 3150 00b0 0346     		mov	r3, r0
 3151 00b2 1A46     		mov	r2, r3
 3152 00b4 029B     		ldr	r3, [sp, #8]
 3153 00b6 1A70     		strb	r2, [r3]
2055:/home/rdu/Workspace/project_templates/mcu/stm32_ws/src/libraries/STM32F4xx_StdPeriph_Driver/src/stm32f4xx_rtc.c ****     RTC_StampTimeStruct->RTC_Minutes = (uint8_t)RTC_Bcd2ToByte(RTC_StampTimeStruct->RTC_Minutes);
 3154              		.loc 1 2055 0
 3155 00b8 029B     		ldr	r3, [sp, #8]
 3156 00ba 5B78     		ldrb	r3, [r3, #1]	@ zero_extendqisi2
 3157 00bc 1846     		mov	r0, r3
 3158 00be FFF7FEFF 		bl	RTC_Bcd2ToByte
 3159 00c2 0346     		mov	r3, r0
 3160 00c4 1A46     		mov	r2, r3
 3161 00c6 029B     		ldr	r3, [sp, #8]
 3162 00c8 5A70     		strb	r2, [r3, #1]
2056:/home/rdu/Workspace/project_templates/mcu/stm32_ws/src/libraries/STM32F4xx_StdPeriph_Driver/src/stm32f4xx_rtc.c ****     RTC_StampTimeStruct->RTC_Seconds = (uint8_t)RTC_Bcd2ToByte(RTC_StampTimeStruct->RTC_Seconds);
 3163              		.loc 1 2056 0
 3164 00ca 029B     		ldr	r3, [sp, #8]
 3165 00cc 9B78     		ldrb	r3, [r3, #2]	@ zero_extendqisi2
 3166 00ce 1846     		mov	r0, r3
 3167 00d0 FFF7FEFF 		bl	RTC_Bcd2ToByte
 3168 00d4 0346     		mov	r3, r0
 3169 00d6 1A46     		mov	r2, r3
 3170 00d8 029B     		ldr	r3, [sp, #8]
 3171 00da 9A70     		strb	r2, [r3, #2]
2057:/home/rdu/Workspace/project_templates/mcu/stm32_ws/src/libraries/STM32F4xx_StdPeriph_Driver/src/stm32f4xx_rtc.c **** 
2058:/home/rdu/Workspace/project_templates/mcu/stm32_ws/src/libraries/STM32F4xx_StdPeriph_Driver/src/stm32f4xx_rtc.c ****     /* Convert the Date structure parameters to Binary format */
2059:/home/rdu/Workspace/project_templates/mcu/stm32_ws/src/libraries/STM32F4xx_StdPeriph_Driver/src/stm32f4xx_rtc.c ****     RTC_StampDateStruct->RTC_Month = (uint8_t)RTC_Bcd2ToByte(RTC_StampDateStruct->RTC_Month);
 3172              		.loc 1 2059 0
 3173 00dc 019B     		ldr	r3, [sp, #4]
 3174 00de 5B78     		ldrb	r3, [r3, #1]	@ zero_extendqisi2
 3175 00e0 1846     		mov	r0, r3
 3176 00e2 FFF7FEFF 		bl	RTC_Bcd2ToByte
 3177 00e6 0346     		mov	r3, r0
 3178 00e8 1A46     		mov	r2, r3
 3179 00ea 019B     		ldr	r3, [sp, #4]
 3180 00ec 5A70     		strb	r2, [r3, #1]
2060:/home/rdu/Workspace/project_templates/mcu/stm32_ws/src/libraries/STM32F4xx_StdPeriph_Driver/src/stm32f4xx_rtc.c ****     RTC_StampDateStruct->RTC_Date = (uint8_t)RTC_Bcd2ToByte(RTC_StampDateStruct->RTC_Date);
 3181              		.loc 1 2060 0
 3182 00ee 019B     		ldr	r3, [sp, #4]
 3183 00f0 9B78     		ldrb	r3, [r3, #2]	@ zero_extendqisi2
 3184 00f2 1846     		mov	r0, r3
 3185 00f4 FFF7FEFF 		bl	RTC_Bcd2ToByte
 3186 00f8 0346     		mov	r3, r0
 3187 00fa 1A46     		mov	r2, r3
 3188 00fc 019B     		ldr	r3, [sp, #4]
 3189 00fe 9A70     		strb	r2, [r3, #2]
2061:/home/rdu/Workspace/project_templates/mcu/stm32_ws/src/libraries/STM32F4xx_StdPeriph_Driver/src/stm32f4xx_rtc.c ****     RTC_StampDateStruct->RTC_WeekDay = (uint8_t)RTC_Bcd2ToByte(RTC_StampDateStruct->RTC_WeekDay);
 3190              		.loc 1 2061 0
 3191 0100 019B     		ldr	r3, [sp, #4]
 3192 0102 1B78     		ldrb	r3, [r3]	@ zero_extendqisi2
 3193 0104 1846     		mov	r0, r3
 3194 0106 FFF7FEFF 		bl	RTC_Bcd2ToByte
 3195 010a 0346     		mov	r3, r0
 3196 010c 1A46     		mov	r2, r3
 3197 010e 019B     		ldr	r3, [sp, #4]
 3198 0110 1A70     		strb	r2, [r3]
 3199              	.L210:
2062:/home/rdu/Workspace/project_templates/mcu/stm32_ws/src/libraries/STM32F4xx_StdPeriph_Driver/src/stm32f4xx_rtc.c ****   }
2063:/home/rdu/Workspace/project_templates/mcu/stm32_ws/src/libraries/STM32F4xx_StdPeriph_Driver/src/stm32f4xx_rtc.c **** }
 3200              		.loc 1 2063 0
 3201 0112 00BF     		nop
 3202 0114 07B0     		add	sp, sp, #28
 3203              	.LCFI77:
 3204              		.cfi_def_cfa_offset 4
 3205              		@ sp needed
 3206 0116 5DF804FB 		ldr	pc, [sp], #4
 3207              	.L212:
 3208 011a 00BF     		.align	2
 3209              	.L211:
 3210 011c 00280040 		.word	1073752064
 3211              		.cfi_endproc
 3212              	.LFE158:
 3214              		.section	.text.RTC_GetTimeStampSubSecond,"ax",%progbits
 3215              		.align	1
 3216              		.global	RTC_GetTimeStampSubSecond
 3217              		.syntax unified
 3218              		.thumb
 3219              		.thumb_func
 3220              		.fpu fpv4-sp-d16
 3222              	RTC_GetTimeStampSubSecond:
 3223              	.LFB159:
2064:/home/rdu/Workspace/project_templates/mcu/stm32_ws/src/libraries/STM32F4xx_StdPeriph_Driver/src/stm32f4xx_rtc.c **** 
2065:/home/rdu/Workspace/project_templates/mcu/stm32_ws/src/libraries/STM32F4xx_StdPeriph_Driver/src/stm32f4xx_rtc.c **** /**
2066:/home/rdu/Workspace/project_templates/mcu/stm32_ws/src/libraries/STM32F4xx_StdPeriph_Driver/src/stm32f4xx_rtc.c ****   * @brief  Get the RTC timestamp Sub seconds value.
2067:/home/rdu/Workspace/project_templates/mcu/stm32_ws/src/libraries/STM32F4xx_StdPeriph_Driver/src/stm32f4xx_rtc.c ****   * @param  None
2068:/home/rdu/Workspace/project_templates/mcu/stm32_ws/src/libraries/STM32F4xx_StdPeriph_Driver/src/stm32f4xx_rtc.c ****   * @retval RTC current timestamp Sub seconds value.
2069:/home/rdu/Workspace/project_templates/mcu/stm32_ws/src/libraries/STM32F4xx_StdPeriph_Driver/src/stm32f4xx_rtc.c ****   */
2070:/home/rdu/Workspace/project_templates/mcu/stm32_ws/src/libraries/STM32F4xx_StdPeriph_Driver/src/stm32f4xx_rtc.c **** uint32_t RTC_GetTimeStampSubSecond(void)
2071:/home/rdu/Workspace/project_templates/mcu/stm32_ws/src/libraries/STM32F4xx_StdPeriph_Driver/src/stm32f4xx_rtc.c **** {
 3224              		.loc 1 2071 0
 3225              		.cfi_startproc
 3226              		@ args = 0, pretend = 0, frame = 0
 3227              		@ frame_needed = 0, uses_anonymous_args = 0
 3228              		@ link register save eliminated.
2072:/home/rdu/Workspace/project_templates/mcu/stm32_ws/src/libraries/STM32F4xx_StdPeriph_Driver/src/stm32f4xx_rtc.c ****   /* Get timestamp sub seconds values from the correspondent registers */
2073:/home/rdu/Workspace/project_templates/mcu/stm32_ws/src/libraries/STM32F4xx_StdPeriph_Driver/src/stm32f4xx_rtc.c ****   return (uint32_t)(RTC->TSSSR);
 3229              		.loc 1 2073 0
 3230 0000 014B     		ldr	r3, .L215
 3231 0002 9B6B     		ldr	r3, [r3, #56]
2074:/home/rdu/Workspace/project_templates/mcu/stm32_ws/src/libraries/STM32F4xx_StdPeriph_Driver/src/stm32f4xx_rtc.c **** }
 3232              		.loc 1 2074 0
 3233 0004 1846     		mov	r0, r3
 3234 0006 7047     		bx	lr
 3235              	.L216:
 3236              		.align	2
 3237              	.L215:
 3238 0008 00280040 		.word	1073752064
 3239              		.cfi_endproc
 3240              	.LFE159:
 3242              		.section	.text.RTC_TamperTriggerConfig,"ax",%progbits
 3243              		.align	1
 3244              		.global	RTC_TamperTriggerConfig
 3245              		.syntax unified
 3246              		.thumb
 3247              		.thumb_func
 3248              		.fpu fpv4-sp-d16
 3250              	RTC_TamperTriggerConfig:
 3251              	.LFB160:
2075:/home/rdu/Workspace/project_templates/mcu/stm32_ws/src/libraries/STM32F4xx_StdPeriph_Driver/src/stm32f4xx_rtc.c **** 
2076:/home/rdu/Workspace/project_templates/mcu/stm32_ws/src/libraries/STM32F4xx_StdPeriph_Driver/src/stm32f4xx_rtc.c **** /**
2077:/home/rdu/Workspace/project_templates/mcu/stm32_ws/src/libraries/STM32F4xx_StdPeriph_Driver/src/stm32f4xx_rtc.c ****   * @}
2078:/home/rdu/Workspace/project_templates/mcu/stm32_ws/src/libraries/STM32F4xx_StdPeriph_Driver/src/stm32f4xx_rtc.c ****   */
2079:/home/rdu/Workspace/project_templates/mcu/stm32_ws/src/libraries/STM32F4xx_StdPeriph_Driver/src/stm32f4xx_rtc.c **** 
2080:/home/rdu/Workspace/project_templates/mcu/stm32_ws/src/libraries/STM32F4xx_StdPeriph_Driver/src/stm32f4xx_rtc.c **** /** @defgroup RTC_Group9 Tampers configuration functions
2081:/home/rdu/Workspace/project_templates/mcu/stm32_ws/src/libraries/STM32F4xx_StdPeriph_Driver/src/stm32f4xx_rtc.c ****  *  @brief   Tampers configuration functions 
2082:/home/rdu/Workspace/project_templates/mcu/stm32_ws/src/libraries/STM32F4xx_StdPeriph_Driver/src/stm32f4xx_rtc.c ****  *
2083:/home/rdu/Workspace/project_templates/mcu/stm32_ws/src/libraries/STM32F4xx_StdPeriph_Driver/src/stm32f4xx_rtc.c **** @verbatim   
2084:/home/rdu/Workspace/project_templates/mcu/stm32_ws/src/libraries/STM32F4xx_StdPeriph_Driver/src/stm32f4xx_rtc.c ****  ===============================================================================
2085:/home/rdu/Workspace/project_templates/mcu/stm32_ws/src/libraries/STM32F4xx_StdPeriph_Driver/src/stm32f4xx_rtc.c ****                  ##### Tampers configuration functions #####
2086:/home/rdu/Workspace/project_templates/mcu/stm32_ws/src/libraries/STM32F4xx_StdPeriph_Driver/src/stm32f4xx_rtc.c ****  ===============================================================================  
2087:/home/rdu/Workspace/project_templates/mcu/stm32_ws/src/libraries/STM32F4xx_StdPeriph_Driver/src/stm32f4xx_rtc.c **** 
2088:/home/rdu/Workspace/project_templates/mcu/stm32_ws/src/libraries/STM32F4xx_StdPeriph_Driver/src/stm32f4xx_rtc.c **** @endverbatim
2089:/home/rdu/Workspace/project_templates/mcu/stm32_ws/src/libraries/STM32F4xx_StdPeriph_Driver/src/stm32f4xx_rtc.c ****   * @{
2090:/home/rdu/Workspace/project_templates/mcu/stm32_ws/src/libraries/STM32F4xx_StdPeriph_Driver/src/stm32f4xx_rtc.c ****   */
2091:/home/rdu/Workspace/project_templates/mcu/stm32_ws/src/libraries/STM32F4xx_StdPeriph_Driver/src/stm32f4xx_rtc.c **** 
2092:/home/rdu/Workspace/project_templates/mcu/stm32_ws/src/libraries/STM32F4xx_StdPeriph_Driver/src/stm32f4xx_rtc.c **** /**
2093:/home/rdu/Workspace/project_templates/mcu/stm32_ws/src/libraries/STM32F4xx_StdPeriph_Driver/src/stm32f4xx_rtc.c ****   * @brief  Configures the select Tamper pin edge.
2094:/home/rdu/Workspace/project_templates/mcu/stm32_ws/src/libraries/STM32F4xx_StdPeriph_Driver/src/stm32f4xx_rtc.c ****   * @param  RTC_Tamper: Selected tamper pin.
2095:/home/rdu/Workspace/project_templates/mcu/stm32_ws/src/libraries/STM32F4xx_StdPeriph_Driver/src/stm32f4xx_rtc.c ****   *          This parameter can be RTC_Tamper_1 or RTC_Tamper 2
2096:/home/rdu/Workspace/project_templates/mcu/stm32_ws/src/libraries/STM32F4xx_StdPeriph_Driver/src/stm32f4xx_rtc.c ****   * @param  RTC_TamperTrigger: Specifies the trigger on the tamper pin that 
2097:/home/rdu/Workspace/project_templates/mcu/stm32_ws/src/libraries/STM32F4xx_StdPeriph_Driver/src/stm32f4xx_rtc.c ****   *         stimulates tamper event. 
2098:/home/rdu/Workspace/project_templates/mcu/stm32_ws/src/libraries/STM32F4xx_StdPeriph_Driver/src/stm32f4xx_rtc.c ****   *   This parameter can be one of the following values:
2099:/home/rdu/Workspace/project_templates/mcu/stm32_ws/src/libraries/STM32F4xx_StdPeriph_Driver/src/stm32f4xx_rtc.c ****   *     @arg RTC_TamperTrigger_RisingEdge: Rising Edge of the tamper pin causes tamper event.
2100:/home/rdu/Workspace/project_templates/mcu/stm32_ws/src/libraries/STM32F4xx_StdPeriph_Driver/src/stm32f4xx_rtc.c ****   *     @arg RTC_TamperTrigger_FallingEdge: Falling Edge of the tamper pin causes tamper event.
2101:/home/rdu/Workspace/project_templates/mcu/stm32_ws/src/libraries/STM32F4xx_StdPeriph_Driver/src/stm32f4xx_rtc.c ****   *     @arg RTC_TamperTrigger_LowLevel: Low Level of the tamper pin causes tamper event.
2102:/home/rdu/Workspace/project_templates/mcu/stm32_ws/src/libraries/STM32F4xx_StdPeriph_Driver/src/stm32f4xx_rtc.c ****   *     @arg RTC_TamperTrigger_HighLevel: High Level of the tamper pin causes tamper event.
2103:/home/rdu/Workspace/project_templates/mcu/stm32_ws/src/libraries/STM32F4xx_StdPeriph_Driver/src/stm32f4xx_rtc.c ****   * @retval None
2104:/home/rdu/Workspace/project_templates/mcu/stm32_ws/src/libraries/STM32F4xx_StdPeriph_Driver/src/stm32f4xx_rtc.c ****   */
2105:/home/rdu/Workspace/project_templates/mcu/stm32_ws/src/libraries/STM32F4xx_StdPeriph_Driver/src/stm32f4xx_rtc.c **** void RTC_TamperTriggerConfig(uint32_t RTC_Tamper, uint32_t RTC_TamperTrigger)
2106:/home/rdu/Workspace/project_templates/mcu/stm32_ws/src/libraries/STM32F4xx_StdPeriph_Driver/src/stm32f4xx_rtc.c **** {
 3252              		.loc 1 2106 0
 3253              		.cfi_startproc
 3254              		@ args = 0, pretend = 0, frame = 8
 3255              		@ frame_needed = 0, uses_anonymous_args = 0
 3256              		@ link register save eliminated.
 3257 0000 82B0     		sub	sp, sp, #8
 3258              	.LCFI78:
 3259              		.cfi_def_cfa_offset 8
 3260 0002 0190     		str	r0, [sp, #4]
 3261 0004 0091     		str	r1, [sp]
2107:/home/rdu/Workspace/project_templates/mcu/stm32_ws/src/libraries/STM32F4xx_StdPeriph_Driver/src/stm32f4xx_rtc.c ****   /* Check the parameters */
2108:/home/rdu/Workspace/project_templates/mcu/stm32_ws/src/libraries/STM32F4xx_StdPeriph_Driver/src/stm32f4xx_rtc.c ****   assert_param(IS_RTC_TAMPER(RTC_Tamper)); 
2109:/home/rdu/Workspace/project_templates/mcu/stm32_ws/src/libraries/STM32F4xx_StdPeriph_Driver/src/stm32f4xx_rtc.c ****   assert_param(IS_RTC_TAMPER_TRIGGER(RTC_TamperTrigger));
2110:/home/rdu/Workspace/project_templates/mcu/stm32_ws/src/libraries/STM32F4xx_StdPeriph_Driver/src/stm32f4xx_rtc.c ****  
2111:/home/rdu/Workspace/project_templates/mcu/stm32_ws/src/libraries/STM32F4xx_StdPeriph_Driver/src/stm32f4xx_rtc.c ****   if (RTC_TamperTrigger == RTC_TamperTrigger_RisingEdge)
 3262              		.loc 1 2111 0
 3263 0006 009B     		ldr	r3, [sp]
 3264 0008 002B     		cmp	r3, #0
 3265 000a 08D1     		bne	.L218
2112:/home/rdu/Workspace/project_templates/mcu/stm32_ws/src/libraries/STM32F4xx_StdPeriph_Driver/src/stm32f4xx_rtc.c ****   {  
2113:/home/rdu/Workspace/project_templates/mcu/stm32_ws/src/libraries/STM32F4xx_StdPeriph_Driver/src/stm32f4xx_rtc.c ****     /* Configure the RTC_TAFCR register */
2114:/home/rdu/Workspace/project_templates/mcu/stm32_ws/src/libraries/STM32F4xx_StdPeriph_Driver/src/stm32f4xx_rtc.c ****     RTC->TAFCR &= (uint32_t)((uint32_t)~(RTC_Tamper << 1));	
 3266              		.loc 1 2114 0
 3267 000c 094B     		ldr	r3, .L221
 3268 000e 1A6C     		ldr	r2, [r3, #64]
 3269 0010 019B     		ldr	r3, [sp, #4]
 3270 0012 5B00     		lsls	r3, r3, #1
 3271 0014 DB43     		mvns	r3, r3
 3272 0016 0749     		ldr	r1, .L221
 3273 0018 1340     		ands	r3, r3, r2
 3274 001a 0B64     		str	r3, [r1, #64]
2115:/home/rdu/Workspace/project_templates/mcu/stm32_ws/src/libraries/STM32F4xx_StdPeriph_Driver/src/stm32f4xx_rtc.c ****   }
2116:/home/rdu/Workspace/project_templates/mcu/stm32_ws/src/libraries/STM32F4xx_StdPeriph_Driver/src/stm32f4xx_rtc.c ****   else
2117:/home/rdu/Workspace/project_templates/mcu/stm32_ws/src/libraries/STM32F4xx_StdPeriph_Driver/src/stm32f4xx_rtc.c ****   { 
2118:/home/rdu/Workspace/project_templates/mcu/stm32_ws/src/libraries/STM32F4xx_StdPeriph_Driver/src/stm32f4xx_rtc.c ****     /* Configure the RTC_TAFCR register */
2119:/home/rdu/Workspace/project_templates/mcu/stm32_ws/src/libraries/STM32F4xx_StdPeriph_Driver/src/stm32f4xx_rtc.c ****     RTC->TAFCR |= (uint32_t)(RTC_Tamper << 1);  
2120:/home/rdu/Workspace/project_templates/mcu/stm32_ws/src/libraries/STM32F4xx_StdPeriph_Driver/src/stm32f4xx_rtc.c ****   }  
2121:/home/rdu/Workspace/project_templates/mcu/stm32_ws/src/libraries/STM32F4xx_StdPeriph_Driver/src/stm32f4xx_rtc.c **** }
 3275              		.loc 1 2121 0
 3276 001c 06E0     		b	.L220
 3277              	.L218:
2119:/home/rdu/Workspace/project_templates/mcu/stm32_ws/src/libraries/STM32F4xx_StdPeriph_Driver/src/stm32f4xx_rtc.c ****   }  
 3278              		.loc 1 2119 0
 3279 001e 054B     		ldr	r3, .L221
 3280 0020 1A6C     		ldr	r2, [r3, #64]
 3281 0022 019B     		ldr	r3, [sp, #4]
 3282 0024 5B00     		lsls	r3, r3, #1
 3283 0026 0349     		ldr	r1, .L221
 3284 0028 1343     		orrs	r3, r3, r2
 3285 002a 0B64     		str	r3, [r1, #64]
 3286              	.L220:
 3287              		.loc 1 2121 0
 3288 002c 00BF     		nop
 3289 002e 02B0     		add	sp, sp, #8
 3290              	.LCFI79:
 3291              		.cfi_def_cfa_offset 0
 3292              		@ sp needed
 3293 0030 7047     		bx	lr
 3294              	.L222:
 3295 0032 00BF     		.align	2
 3296              	.L221:
 3297 0034 00280040 		.word	1073752064
 3298              		.cfi_endproc
 3299              	.LFE160:
 3301              		.section	.text.RTC_TamperCmd,"ax",%progbits
 3302              		.align	1
 3303              		.global	RTC_TamperCmd
 3304              		.syntax unified
 3305              		.thumb
 3306              		.thumb_func
 3307              		.fpu fpv4-sp-d16
 3309              	RTC_TamperCmd:
 3310              	.LFB161:
2122:/home/rdu/Workspace/project_templates/mcu/stm32_ws/src/libraries/STM32F4xx_StdPeriph_Driver/src/stm32f4xx_rtc.c **** 
2123:/home/rdu/Workspace/project_templates/mcu/stm32_ws/src/libraries/STM32F4xx_StdPeriph_Driver/src/stm32f4xx_rtc.c **** /**
2124:/home/rdu/Workspace/project_templates/mcu/stm32_ws/src/libraries/STM32F4xx_StdPeriph_Driver/src/stm32f4xx_rtc.c ****   * @brief  Enables or Disables the Tamper detection.
2125:/home/rdu/Workspace/project_templates/mcu/stm32_ws/src/libraries/STM32F4xx_StdPeriph_Driver/src/stm32f4xx_rtc.c ****   * @param  RTC_Tamper: Selected tamper pin.
2126:/home/rdu/Workspace/project_templates/mcu/stm32_ws/src/libraries/STM32F4xx_StdPeriph_Driver/src/stm32f4xx_rtc.c ****   *          This parameter can be RTC_Tamper_1 or RTC_Tamper_2
2127:/home/rdu/Workspace/project_templates/mcu/stm32_ws/src/libraries/STM32F4xx_StdPeriph_Driver/src/stm32f4xx_rtc.c ****   * @param  NewState: new state of the tamper pin.
2128:/home/rdu/Workspace/project_templates/mcu/stm32_ws/src/libraries/STM32F4xx_StdPeriph_Driver/src/stm32f4xx_rtc.c ****   *          This parameter can be: ENABLE or DISABLE.                   
2129:/home/rdu/Workspace/project_templates/mcu/stm32_ws/src/libraries/STM32F4xx_StdPeriph_Driver/src/stm32f4xx_rtc.c ****   * @retval None
2130:/home/rdu/Workspace/project_templates/mcu/stm32_ws/src/libraries/STM32F4xx_StdPeriph_Driver/src/stm32f4xx_rtc.c ****   */
2131:/home/rdu/Workspace/project_templates/mcu/stm32_ws/src/libraries/STM32F4xx_StdPeriph_Driver/src/stm32f4xx_rtc.c **** void RTC_TamperCmd(uint32_t RTC_Tamper, FunctionalState NewState)
2132:/home/rdu/Workspace/project_templates/mcu/stm32_ws/src/libraries/STM32F4xx_StdPeriph_Driver/src/stm32f4xx_rtc.c **** {
 3311              		.loc 1 2132 0
 3312              		.cfi_startproc
 3313              		@ args = 0, pretend = 0, frame = 8
 3314              		@ frame_needed = 0, uses_anonymous_args = 0
 3315              		@ link register save eliminated.
 3316 0000 82B0     		sub	sp, sp, #8
 3317              	.LCFI80:
 3318              		.cfi_def_cfa_offset 8
 3319 0002 0190     		str	r0, [sp, #4]
 3320 0004 0B46     		mov	r3, r1
 3321 0006 8DF80330 		strb	r3, [sp, #3]
2133:/home/rdu/Workspace/project_templates/mcu/stm32_ws/src/libraries/STM32F4xx_StdPeriph_Driver/src/stm32f4xx_rtc.c ****   /* Check the parameters */
2134:/home/rdu/Workspace/project_templates/mcu/stm32_ws/src/libraries/STM32F4xx_StdPeriph_Driver/src/stm32f4xx_rtc.c ****   assert_param(IS_RTC_TAMPER(RTC_Tamper));  
2135:/home/rdu/Workspace/project_templates/mcu/stm32_ws/src/libraries/STM32F4xx_StdPeriph_Driver/src/stm32f4xx_rtc.c ****   assert_param(IS_FUNCTIONAL_STATE(NewState));
2136:/home/rdu/Workspace/project_templates/mcu/stm32_ws/src/libraries/STM32F4xx_StdPeriph_Driver/src/stm32f4xx_rtc.c ****   
2137:/home/rdu/Workspace/project_templates/mcu/stm32_ws/src/libraries/STM32F4xx_StdPeriph_Driver/src/stm32f4xx_rtc.c ****   if (NewState != DISABLE)
 3322              		.loc 1 2137 0
 3323 000a 9DF80330 		ldrb	r3, [sp, #3]	@ zero_extendqisi2
 3324 000e 002B     		cmp	r3, #0
 3325 0010 06D0     		beq	.L224
2138:/home/rdu/Workspace/project_templates/mcu/stm32_ws/src/libraries/STM32F4xx_StdPeriph_Driver/src/stm32f4xx_rtc.c ****   {
2139:/home/rdu/Workspace/project_templates/mcu/stm32_ws/src/libraries/STM32F4xx_StdPeriph_Driver/src/stm32f4xx_rtc.c ****     /* Enable the selected Tamper pin */
2140:/home/rdu/Workspace/project_templates/mcu/stm32_ws/src/libraries/STM32F4xx_StdPeriph_Driver/src/stm32f4xx_rtc.c ****     RTC->TAFCR |= (uint32_t)RTC_Tamper;
 3326              		.loc 1 2140 0
 3327 0012 084B     		ldr	r3, .L227
 3328 0014 1A6C     		ldr	r2, [r3, #64]
 3329 0016 0749     		ldr	r1, .L227
 3330 0018 019B     		ldr	r3, [sp, #4]
 3331 001a 1343     		orrs	r3, r3, r2
 3332 001c 0B64     		str	r3, [r1, #64]
2141:/home/rdu/Workspace/project_templates/mcu/stm32_ws/src/libraries/STM32F4xx_StdPeriph_Driver/src/stm32f4xx_rtc.c ****   }
2142:/home/rdu/Workspace/project_templates/mcu/stm32_ws/src/libraries/STM32F4xx_StdPeriph_Driver/src/stm32f4xx_rtc.c ****   else
2143:/home/rdu/Workspace/project_templates/mcu/stm32_ws/src/libraries/STM32F4xx_StdPeriph_Driver/src/stm32f4xx_rtc.c ****   {
2144:/home/rdu/Workspace/project_templates/mcu/stm32_ws/src/libraries/STM32F4xx_StdPeriph_Driver/src/stm32f4xx_rtc.c ****     /* Disable the selected Tamper pin */
2145:/home/rdu/Workspace/project_templates/mcu/stm32_ws/src/libraries/STM32F4xx_StdPeriph_Driver/src/stm32f4xx_rtc.c ****     RTC->TAFCR &= (uint32_t)~RTC_Tamper;    
2146:/home/rdu/Workspace/project_templates/mcu/stm32_ws/src/libraries/STM32F4xx_StdPeriph_Driver/src/stm32f4xx_rtc.c ****   }  
2147:/home/rdu/Workspace/project_templates/mcu/stm32_ws/src/libraries/STM32F4xx_StdPeriph_Driver/src/stm32f4xx_rtc.c **** }
 3333              		.loc 1 2147 0
 3334 001e 06E0     		b	.L226
 3335              	.L224:
2145:/home/rdu/Workspace/project_templates/mcu/stm32_ws/src/libraries/STM32F4xx_StdPeriph_Driver/src/stm32f4xx_rtc.c ****   }  
 3336              		.loc 1 2145 0
 3337 0020 044B     		ldr	r3, .L227
 3338 0022 1A6C     		ldr	r2, [r3, #64]
 3339 0024 019B     		ldr	r3, [sp, #4]
 3340 0026 DB43     		mvns	r3, r3
 3341 0028 0249     		ldr	r1, .L227
 3342 002a 1340     		ands	r3, r3, r2
 3343 002c 0B64     		str	r3, [r1, #64]
 3344              	.L226:
 3345              		.loc 1 2147 0
 3346 002e 00BF     		nop
 3347 0030 02B0     		add	sp, sp, #8
 3348              	.LCFI81:
 3349              		.cfi_def_cfa_offset 0
 3350              		@ sp needed
 3351 0032 7047     		bx	lr
 3352              	.L228:
 3353              		.align	2
 3354              	.L227:
 3355 0034 00280040 		.word	1073752064
 3356              		.cfi_endproc
 3357              	.LFE161:
 3359              		.section	.text.RTC_TamperFilterConfig,"ax",%progbits
 3360              		.align	1
 3361              		.global	RTC_TamperFilterConfig
 3362              		.syntax unified
 3363              		.thumb
 3364              		.thumb_func
 3365              		.fpu fpv4-sp-d16
 3367              	RTC_TamperFilterConfig:
 3368              	.LFB162:
2148:/home/rdu/Workspace/project_templates/mcu/stm32_ws/src/libraries/STM32F4xx_StdPeriph_Driver/src/stm32f4xx_rtc.c **** 
2149:/home/rdu/Workspace/project_templates/mcu/stm32_ws/src/libraries/STM32F4xx_StdPeriph_Driver/src/stm32f4xx_rtc.c **** /**
2150:/home/rdu/Workspace/project_templates/mcu/stm32_ws/src/libraries/STM32F4xx_StdPeriph_Driver/src/stm32f4xx_rtc.c ****   * @brief  Configures the Tampers Filter.
2151:/home/rdu/Workspace/project_templates/mcu/stm32_ws/src/libraries/STM32F4xx_StdPeriph_Driver/src/stm32f4xx_rtc.c ****   * @param  RTC_TamperFilter: Specifies the tampers filter.
2152:/home/rdu/Workspace/project_templates/mcu/stm32_ws/src/libraries/STM32F4xx_StdPeriph_Driver/src/stm32f4xx_rtc.c ****   *   This parameter can be one of the following values:
2153:/home/rdu/Workspace/project_templates/mcu/stm32_ws/src/libraries/STM32F4xx_StdPeriph_Driver/src/stm32f4xx_rtc.c ****   *     @arg RTC_TamperFilter_Disable: Tamper filter is disabled.
2154:/home/rdu/Workspace/project_templates/mcu/stm32_ws/src/libraries/STM32F4xx_StdPeriph_Driver/src/stm32f4xx_rtc.c ****   *     @arg RTC_TamperFilter_2Sample: Tamper is activated after 2 consecutive 
2155:/home/rdu/Workspace/project_templates/mcu/stm32_ws/src/libraries/STM32F4xx_StdPeriph_Driver/src/stm32f4xx_rtc.c ****   *                                    samples at the active level 
2156:/home/rdu/Workspace/project_templates/mcu/stm32_ws/src/libraries/STM32F4xx_StdPeriph_Driver/src/stm32f4xx_rtc.c ****   *     @arg RTC_TamperFilter_4Sample: Tamper is activated after 4 consecutive 
2157:/home/rdu/Workspace/project_templates/mcu/stm32_ws/src/libraries/STM32F4xx_StdPeriph_Driver/src/stm32f4xx_rtc.c ****   *                                    samples at the active level
2158:/home/rdu/Workspace/project_templates/mcu/stm32_ws/src/libraries/STM32F4xx_StdPeriph_Driver/src/stm32f4xx_rtc.c ****   *     @arg RTC_TamperFilter_8Sample: Tamper is activated after 8 consecutive 
2159:/home/rdu/Workspace/project_templates/mcu/stm32_ws/src/libraries/STM32F4xx_StdPeriph_Driver/src/stm32f4xx_rtc.c ****   *                                    samples at the active level 
2160:/home/rdu/Workspace/project_templates/mcu/stm32_ws/src/libraries/STM32F4xx_StdPeriph_Driver/src/stm32f4xx_rtc.c ****   * @retval None
2161:/home/rdu/Workspace/project_templates/mcu/stm32_ws/src/libraries/STM32F4xx_StdPeriph_Driver/src/stm32f4xx_rtc.c ****   */
2162:/home/rdu/Workspace/project_templates/mcu/stm32_ws/src/libraries/STM32F4xx_StdPeriph_Driver/src/stm32f4xx_rtc.c **** void RTC_TamperFilterConfig(uint32_t RTC_TamperFilter)
2163:/home/rdu/Workspace/project_templates/mcu/stm32_ws/src/libraries/STM32F4xx_StdPeriph_Driver/src/stm32f4xx_rtc.c **** {
 3369              		.loc 1 2163 0
 3370              		.cfi_startproc
 3371              		@ args = 0, pretend = 0, frame = 8
 3372              		@ frame_needed = 0, uses_anonymous_args = 0
 3373              		@ link register save eliminated.
 3374 0000 82B0     		sub	sp, sp, #8
 3375              	.LCFI82:
 3376              		.cfi_def_cfa_offset 8
 3377 0002 0190     		str	r0, [sp, #4]
2164:/home/rdu/Workspace/project_templates/mcu/stm32_ws/src/libraries/STM32F4xx_StdPeriph_Driver/src/stm32f4xx_rtc.c ****   /* Check the parameters */
2165:/home/rdu/Workspace/project_templates/mcu/stm32_ws/src/libraries/STM32F4xx_StdPeriph_Driver/src/stm32f4xx_rtc.c ****   assert_param(IS_RTC_TAMPER_FILTER(RTC_TamperFilter));
2166:/home/rdu/Workspace/project_templates/mcu/stm32_ws/src/libraries/STM32F4xx_StdPeriph_Driver/src/stm32f4xx_rtc.c ****    
2167:/home/rdu/Workspace/project_templates/mcu/stm32_ws/src/libraries/STM32F4xx_StdPeriph_Driver/src/stm32f4xx_rtc.c ****   /* Clear TAMPFLT[1:0] bits in the RTC_TAFCR register */
2168:/home/rdu/Workspace/project_templates/mcu/stm32_ws/src/libraries/STM32F4xx_StdPeriph_Driver/src/stm32f4xx_rtc.c ****   RTC->TAFCR &= (uint32_t)~(RTC_TAFCR_TAMPFLT);
 3378              		.loc 1 2168 0
 3379 0004 074B     		ldr	r3, .L230
 3380 0006 1B6C     		ldr	r3, [r3, #64]
 3381 0008 064A     		ldr	r2, .L230
 3382 000a 23F4C053 		bic	r3, r3, #6144
 3383 000e 1364     		str	r3, [r2, #64]
2169:/home/rdu/Workspace/project_templates/mcu/stm32_ws/src/libraries/STM32F4xx_StdPeriph_Driver/src/stm32f4xx_rtc.c **** 
2170:/home/rdu/Workspace/project_templates/mcu/stm32_ws/src/libraries/STM32F4xx_StdPeriph_Driver/src/stm32f4xx_rtc.c ****   /* Configure the RTC_TAFCR register */
2171:/home/rdu/Workspace/project_templates/mcu/stm32_ws/src/libraries/STM32F4xx_StdPeriph_Driver/src/stm32f4xx_rtc.c ****   RTC->TAFCR |= (uint32_t)RTC_TamperFilter;
 3384              		.loc 1 2171 0
 3385 0010 044B     		ldr	r3, .L230
 3386 0012 1A6C     		ldr	r2, [r3, #64]
 3387 0014 0349     		ldr	r1, .L230
 3388 0016 019B     		ldr	r3, [sp, #4]
 3389 0018 1343     		orrs	r3, r3, r2
 3390 001a 0B64     		str	r3, [r1, #64]
2172:/home/rdu/Workspace/project_templates/mcu/stm32_ws/src/libraries/STM32F4xx_StdPeriph_Driver/src/stm32f4xx_rtc.c **** }
 3391              		.loc 1 2172 0
 3392 001c 00BF     		nop
 3393 001e 02B0     		add	sp, sp, #8
 3394              	.LCFI83:
 3395              		.cfi_def_cfa_offset 0
 3396              		@ sp needed
 3397 0020 7047     		bx	lr
 3398              	.L231:
 3399 0022 00BF     		.align	2
 3400              	.L230:
 3401 0024 00280040 		.word	1073752064
 3402              		.cfi_endproc
 3403              	.LFE162:
 3405              		.section	.text.RTC_TamperSamplingFreqConfig,"ax",%progbits
 3406              		.align	1
 3407              		.global	RTC_TamperSamplingFreqConfig
 3408              		.syntax unified
 3409              		.thumb
 3410              		.thumb_func
 3411              		.fpu fpv4-sp-d16
 3413              	RTC_TamperSamplingFreqConfig:
 3414              	.LFB163:
2173:/home/rdu/Workspace/project_templates/mcu/stm32_ws/src/libraries/STM32F4xx_StdPeriph_Driver/src/stm32f4xx_rtc.c **** 
2174:/home/rdu/Workspace/project_templates/mcu/stm32_ws/src/libraries/STM32F4xx_StdPeriph_Driver/src/stm32f4xx_rtc.c **** /**
2175:/home/rdu/Workspace/project_templates/mcu/stm32_ws/src/libraries/STM32F4xx_StdPeriph_Driver/src/stm32f4xx_rtc.c ****   * @brief  Configures the Tampers Sampling Frequency.
2176:/home/rdu/Workspace/project_templates/mcu/stm32_ws/src/libraries/STM32F4xx_StdPeriph_Driver/src/stm32f4xx_rtc.c ****   * @param  RTC_TamperSamplingFreq: Specifies the tampers Sampling Frequency.
2177:/home/rdu/Workspace/project_templates/mcu/stm32_ws/src/libraries/STM32F4xx_StdPeriph_Driver/src/stm32f4xx_rtc.c ****   *   This parameter can be one of the following values:
2178:/home/rdu/Workspace/project_templates/mcu/stm32_ws/src/libraries/STM32F4xx_StdPeriph_Driver/src/stm32f4xx_rtc.c ****   *     @arg RTC_TamperSamplingFreq_RTCCLK_Div32768: Each of the tamper inputs are sampled
2179:/home/rdu/Workspace/project_templates/mcu/stm32_ws/src/libraries/STM32F4xx_StdPeriph_Driver/src/stm32f4xx_rtc.c ****   *                                           with a frequency =  RTCCLK / 32768
2180:/home/rdu/Workspace/project_templates/mcu/stm32_ws/src/libraries/STM32F4xx_StdPeriph_Driver/src/stm32f4xx_rtc.c ****   *     @arg RTC_TamperSamplingFreq_RTCCLK_Div16384: Each of the tamper inputs are sampled
2181:/home/rdu/Workspace/project_templates/mcu/stm32_ws/src/libraries/STM32F4xx_StdPeriph_Driver/src/stm32f4xx_rtc.c ****   *                                           with a frequency =  RTCCLK / 16384
2182:/home/rdu/Workspace/project_templates/mcu/stm32_ws/src/libraries/STM32F4xx_StdPeriph_Driver/src/stm32f4xx_rtc.c ****   *     @arg RTC_TamperSamplingFreq_RTCCLK_Div8192: Each of the tamper inputs are sampled
2183:/home/rdu/Workspace/project_templates/mcu/stm32_ws/src/libraries/STM32F4xx_StdPeriph_Driver/src/stm32f4xx_rtc.c ****   *                                           with a frequency =  RTCCLK / 8192
2184:/home/rdu/Workspace/project_templates/mcu/stm32_ws/src/libraries/STM32F4xx_StdPeriph_Driver/src/stm32f4xx_rtc.c ****   *     @arg RTC_TamperSamplingFreq_RTCCLK_Div4096: Each of the tamper inputs are sampled
2185:/home/rdu/Workspace/project_templates/mcu/stm32_ws/src/libraries/STM32F4xx_StdPeriph_Driver/src/stm32f4xx_rtc.c ****   *                                           with a frequency =  RTCCLK / 4096
2186:/home/rdu/Workspace/project_templates/mcu/stm32_ws/src/libraries/STM32F4xx_StdPeriph_Driver/src/stm32f4xx_rtc.c ****   *     @arg RTC_TamperSamplingFreq_RTCCLK_Div2048: Each of the tamper inputs are sampled
2187:/home/rdu/Workspace/project_templates/mcu/stm32_ws/src/libraries/STM32F4xx_StdPeriph_Driver/src/stm32f4xx_rtc.c ****   *                                           with a frequency =  RTCCLK / 2048
2188:/home/rdu/Workspace/project_templates/mcu/stm32_ws/src/libraries/STM32F4xx_StdPeriph_Driver/src/stm32f4xx_rtc.c ****   *     @arg RTC_TamperSamplingFreq_RTCCLK_Div1024: Each of the tamper inputs are sampled
2189:/home/rdu/Workspace/project_templates/mcu/stm32_ws/src/libraries/STM32F4xx_StdPeriph_Driver/src/stm32f4xx_rtc.c ****   *                                           with a frequency =  RTCCLK / 1024
2190:/home/rdu/Workspace/project_templates/mcu/stm32_ws/src/libraries/STM32F4xx_StdPeriph_Driver/src/stm32f4xx_rtc.c ****   *     @arg RTC_TamperSamplingFreq_RTCCLK_Div512: Each of the tamper inputs are sampled
2191:/home/rdu/Workspace/project_templates/mcu/stm32_ws/src/libraries/STM32F4xx_StdPeriph_Driver/src/stm32f4xx_rtc.c ****   *                                           with a frequency =  RTCCLK / 512  
2192:/home/rdu/Workspace/project_templates/mcu/stm32_ws/src/libraries/STM32F4xx_StdPeriph_Driver/src/stm32f4xx_rtc.c ****   *     @arg RTC_TamperSamplingFreq_RTCCLK_Div256: Each of the tamper inputs are sampled
2193:/home/rdu/Workspace/project_templates/mcu/stm32_ws/src/libraries/STM32F4xx_StdPeriph_Driver/src/stm32f4xx_rtc.c ****   *                                           with a frequency =  RTCCLK / 256  
2194:/home/rdu/Workspace/project_templates/mcu/stm32_ws/src/libraries/STM32F4xx_StdPeriph_Driver/src/stm32f4xx_rtc.c ****   * @retval None
2195:/home/rdu/Workspace/project_templates/mcu/stm32_ws/src/libraries/STM32F4xx_StdPeriph_Driver/src/stm32f4xx_rtc.c ****   */
2196:/home/rdu/Workspace/project_templates/mcu/stm32_ws/src/libraries/STM32F4xx_StdPeriph_Driver/src/stm32f4xx_rtc.c **** void RTC_TamperSamplingFreqConfig(uint32_t RTC_TamperSamplingFreq)
2197:/home/rdu/Workspace/project_templates/mcu/stm32_ws/src/libraries/STM32F4xx_StdPeriph_Driver/src/stm32f4xx_rtc.c **** {
 3415              		.loc 1 2197 0
 3416              		.cfi_startproc
 3417              		@ args = 0, pretend = 0, frame = 8
 3418              		@ frame_needed = 0, uses_anonymous_args = 0
 3419              		@ link register save eliminated.
 3420 0000 82B0     		sub	sp, sp, #8
 3421              	.LCFI84:
 3422              		.cfi_def_cfa_offset 8
 3423 0002 0190     		str	r0, [sp, #4]
2198:/home/rdu/Workspace/project_templates/mcu/stm32_ws/src/libraries/STM32F4xx_StdPeriph_Driver/src/stm32f4xx_rtc.c ****   /* Check the parameters */
2199:/home/rdu/Workspace/project_templates/mcu/stm32_ws/src/libraries/STM32F4xx_StdPeriph_Driver/src/stm32f4xx_rtc.c ****   assert_param(IS_RTC_TAMPER_SAMPLING_FREQ(RTC_TamperSamplingFreq));
2200:/home/rdu/Workspace/project_templates/mcu/stm32_ws/src/libraries/STM32F4xx_StdPeriph_Driver/src/stm32f4xx_rtc.c ****  
2201:/home/rdu/Workspace/project_templates/mcu/stm32_ws/src/libraries/STM32F4xx_StdPeriph_Driver/src/stm32f4xx_rtc.c ****   /* Clear TAMPFREQ[2:0] bits in the RTC_TAFCR register */
2202:/home/rdu/Workspace/project_templates/mcu/stm32_ws/src/libraries/STM32F4xx_StdPeriph_Driver/src/stm32f4xx_rtc.c ****   RTC->TAFCR &= (uint32_t)~(RTC_TAFCR_TAMPFREQ);
 3424              		.loc 1 2202 0
 3425 0004 074B     		ldr	r3, .L233
 3426 0006 1B6C     		ldr	r3, [r3, #64]
 3427 0008 064A     		ldr	r2, .L233
 3428 000a 23F4E063 		bic	r3, r3, #1792
 3429 000e 1364     		str	r3, [r2, #64]
2203:/home/rdu/Workspace/project_templates/mcu/stm32_ws/src/libraries/STM32F4xx_StdPeriph_Driver/src/stm32f4xx_rtc.c **** 
2204:/home/rdu/Workspace/project_templates/mcu/stm32_ws/src/libraries/STM32F4xx_StdPeriph_Driver/src/stm32f4xx_rtc.c ****   /* Configure the RTC_TAFCR register */
2205:/home/rdu/Workspace/project_templates/mcu/stm32_ws/src/libraries/STM32F4xx_StdPeriph_Driver/src/stm32f4xx_rtc.c ****   RTC->TAFCR |= (uint32_t)RTC_TamperSamplingFreq;
 3430              		.loc 1 2205 0
 3431 0010 044B     		ldr	r3, .L233
 3432 0012 1A6C     		ldr	r2, [r3, #64]
 3433 0014 0349     		ldr	r1, .L233
 3434 0016 019B     		ldr	r3, [sp, #4]
 3435 0018 1343     		orrs	r3, r3, r2
 3436 001a 0B64     		str	r3, [r1, #64]
2206:/home/rdu/Workspace/project_templates/mcu/stm32_ws/src/libraries/STM32F4xx_StdPeriph_Driver/src/stm32f4xx_rtc.c **** }
 3437              		.loc 1 2206 0
 3438 001c 00BF     		nop
 3439 001e 02B0     		add	sp, sp, #8
 3440              	.LCFI85:
 3441              		.cfi_def_cfa_offset 0
 3442              		@ sp needed
 3443 0020 7047     		bx	lr
 3444              	.L234:
 3445 0022 00BF     		.align	2
 3446              	.L233:
 3447 0024 00280040 		.word	1073752064
 3448              		.cfi_endproc
 3449              	.LFE163:
 3451              		.section	.text.RTC_TamperPinsPrechargeDuration,"ax",%progbits
 3452              		.align	1
 3453              		.global	RTC_TamperPinsPrechargeDuration
 3454              		.syntax unified
 3455              		.thumb
 3456              		.thumb_func
 3457              		.fpu fpv4-sp-d16
 3459              	RTC_TamperPinsPrechargeDuration:
 3460              	.LFB164:
2207:/home/rdu/Workspace/project_templates/mcu/stm32_ws/src/libraries/STM32F4xx_StdPeriph_Driver/src/stm32f4xx_rtc.c **** 
2208:/home/rdu/Workspace/project_templates/mcu/stm32_ws/src/libraries/STM32F4xx_StdPeriph_Driver/src/stm32f4xx_rtc.c **** /**
2209:/home/rdu/Workspace/project_templates/mcu/stm32_ws/src/libraries/STM32F4xx_StdPeriph_Driver/src/stm32f4xx_rtc.c ****   * @brief  Configures the Tampers Pins input Precharge Duration.
2210:/home/rdu/Workspace/project_templates/mcu/stm32_ws/src/libraries/STM32F4xx_StdPeriph_Driver/src/stm32f4xx_rtc.c ****   * @param  RTC_TamperPrechargeDuration: Specifies the Tampers Pins input
2211:/home/rdu/Workspace/project_templates/mcu/stm32_ws/src/libraries/STM32F4xx_StdPeriph_Driver/src/stm32f4xx_rtc.c ****   *         Precharge Duration.
2212:/home/rdu/Workspace/project_templates/mcu/stm32_ws/src/libraries/STM32F4xx_StdPeriph_Driver/src/stm32f4xx_rtc.c ****   *   This parameter can be one of the following values:
2213:/home/rdu/Workspace/project_templates/mcu/stm32_ws/src/libraries/STM32F4xx_StdPeriph_Driver/src/stm32f4xx_rtc.c ****   *     @arg RTC_TamperPrechargeDuration_1RTCCLK: Tamper pins are precharged before sampling during
2214:/home/rdu/Workspace/project_templates/mcu/stm32_ws/src/libraries/STM32F4xx_StdPeriph_Driver/src/stm32f4xx_rtc.c ****   *     @arg RTC_TamperPrechargeDuration_2RTCCLK: Tamper pins are precharged before sampling during
2215:/home/rdu/Workspace/project_templates/mcu/stm32_ws/src/libraries/STM32F4xx_StdPeriph_Driver/src/stm32f4xx_rtc.c ****   *     @arg RTC_TamperPrechargeDuration_4RTCCLK: Tamper pins are precharged before sampling during
2216:/home/rdu/Workspace/project_templates/mcu/stm32_ws/src/libraries/STM32F4xx_StdPeriph_Driver/src/stm32f4xx_rtc.c ****   *     @arg RTC_TamperPrechargeDuration_8RTCCLK: Tamper pins are precharged before sampling during
2217:/home/rdu/Workspace/project_templates/mcu/stm32_ws/src/libraries/STM32F4xx_StdPeriph_Driver/src/stm32f4xx_rtc.c ****   * @retval None
2218:/home/rdu/Workspace/project_templates/mcu/stm32_ws/src/libraries/STM32F4xx_StdPeriph_Driver/src/stm32f4xx_rtc.c ****   */
2219:/home/rdu/Workspace/project_templates/mcu/stm32_ws/src/libraries/STM32F4xx_StdPeriph_Driver/src/stm32f4xx_rtc.c **** void RTC_TamperPinsPrechargeDuration(uint32_t RTC_TamperPrechargeDuration)
2220:/home/rdu/Workspace/project_templates/mcu/stm32_ws/src/libraries/STM32F4xx_StdPeriph_Driver/src/stm32f4xx_rtc.c **** {
 3461              		.loc 1 2220 0
 3462              		.cfi_startproc
 3463              		@ args = 0, pretend = 0, frame = 8
 3464              		@ frame_needed = 0, uses_anonymous_args = 0
 3465              		@ link register save eliminated.
 3466 0000 82B0     		sub	sp, sp, #8
 3467              	.LCFI86:
 3468              		.cfi_def_cfa_offset 8
 3469 0002 0190     		str	r0, [sp, #4]
2221:/home/rdu/Workspace/project_templates/mcu/stm32_ws/src/libraries/STM32F4xx_StdPeriph_Driver/src/stm32f4xx_rtc.c ****   /* Check the parameters */
2222:/home/rdu/Workspace/project_templates/mcu/stm32_ws/src/libraries/STM32F4xx_StdPeriph_Driver/src/stm32f4xx_rtc.c ****   assert_param(IS_RTC_TAMPER_PRECHARGE_DURATION(RTC_TamperPrechargeDuration));
2223:/home/rdu/Workspace/project_templates/mcu/stm32_ws/src/libraries/STM32F4xx_StdPeriph_Driver/src/stm32f4xx_rtc.c ****    
2224:/home/rdu/Workspace/project_templates/mcu/stm32_ws/src/libraries/STM32F4xx_StdPeriph_Driver/src/stm32f4xx_rtc.c ****   /* Clear TAMPPRCH[1:0] bits in the RTC_TAFCR register */
2225:/home/rdu/Workspace/project_templates/mcu/stm32_ws/src/libraries/STM32F4xx_StdPeriph_Driver/src/stm32f4xx_rtc.c ****   RTC->TAFCR &= (uint32_t)~(RTC_TAFCR_TAMPPRCH);
 3470              		.loc 1 2225 0
 3471 0004 074B     		ldr	r3, .L236
 3472 0006 1B6C     		ldr	r3, [r3, #64]
 3473 0008 064A     		ldr	r2, .L236
 3474 000a 23F4C043 		bic	r3, r3, #24576
 3475 000e 1364     		str	r3, [r2, #64]
2226:/home/rdu/Workspace/project_templates/mcu/stm32_ws/src/libraries/STM32F4xx_StdPeriph_Driver/src/stm32f4xx_rtc.c **** 
2227:/home/rdu/Workspace/project_templates/mcu/stm32_ws/src/libraries/STM32F4xx_StdPeriph_Driver/src/stm32f4xx_rtc.c ****   /* Configure the RTC_TAFCR register */
2228:/home/rdu/Workspace/project_templates/mcu/stm32_ws/src/libraries/STM32F4xx_StdPeriph_Driver/src/stm32f4xx_rtc.c ****   RTC->TAFCR |= (uint32_t)RTC_TamperPrechargeDuration;
 3476              		.loc 1 2228 0
 3477 0010 044B     		ldr	r3, .L236
 3478 0012 1A6C     		ldr	r2, [r3, #64]
 3479 0014 0349     		ldr	r1, .L236
 3480 0016 019B     		ldr	r3, [sp, #4]
 3481 0018 1343     		orrs	r3, r3, r2
 3482 001a 0B64     		str	r3, [r1, #64]
2229:/home/rdu/Workspace/project_templates/mcu/stm32_ws/src/libraries/STM32F4xx_StdPeriph_Driver/src/stm32f4xx_rtc.c **** }
 3483              		.loc 1 2229 0
 3484 001c 00BF     		nop
 3485 001e 02B0     		add	sp, sp, #8
 3486              	.LCFI87:
 3487              		.cfi_def_cfa_offset 0
 3488              		@ sp needed
 3489 0020 7047     		bx	lr
 3490              	.L237:
 3491 0022 00BF     		.align	2
 3492              	.L236:
 3493 0024 00280040 		.word	1073752064
 3494              		.cfi_endproc
 3495              	.LFE164:
 3497              		.section	.text.RTC_TimeStampOnTamperDetectionCmd,"ax",%progbits
 3498              		.align	1
 3499              		.global	RTC_TimeStampOnTamperDetectionCmd
 3500              		.syntax unified
 3501              		.thumb
 3502              		.thumb_func
 3503              		.fpu fpv4-sp-d16
 3505              	RTC_TimeStampOnTamperDetectionCmd:
 3506              	.LFB165:
2230:/home/rdu/Workspace/project_templates/mcu/stm32_ws/src/libraries/STM32F4xx_StdPeriph_Driver/src/stm32f4xx_rtc.c **** 
2231:/home/rdu/Workspace/project_templates/mcu/stm32_ws/src/libraries/STM32F4xx_StdPeriph_Driver/src/stm32f4xx_rtc.c **** /**
2232:/home/rdu/Workspace/project_templates/mcu/stm32_ws/src/libraries/STM32F4xx_StdPeriph_Driver/src/stm32f4xx_rtc.c ****   * @brief  Enables or Disables the TimeStamp on Tamper Detection Event.
2233:/home/rdu/Workspace/project_templates/mcu/stm32_ws/src/libraries/STM32F4xx_StdPeriph_Driver/src/stm32f4xx_rtc.c ****   * @note   The timestamp is valid even the TSE bit in tamper control register 
2234:/home/rdu/Workspace/project_templates/mcu/stm32_ws/src/libraries/STM32F4xx_StdPeriph_Driver/src/stm32f4xx_rtc.c ****   *         is reset.   
2235:/home/rdu/Workspace/project_templates/mcu/stm32_ws/src/libraries/STM32F4xx_StdPeriph_Driver/src/stm32f4xx_rtc.c ****   * @param  NewState: new state of the timestamp on tamper event.
2236:/home/rdu/Workspace/project_templates/mcu/stm32_ws/src/libraries/STM32F4xx_StdPeriph_Driver/src/stm32f4xx_rtc.c ****   *         This parameter can be: ENABLE or DISABLE.
2237:/home/rdu/Workspace/project_templates/mcu/stm32_ws/src/libraries/STM32F4xx_StdPeriph_Driver/src/stm32f4xx_rtc.c ****   * @retval None
2238:/home/rdu/Workspace/project_templates/mcu/stm32_ws/src/libraries/STM32F4xx_StdPeriph_Driver/src/stm32f4xx_rtc.c ****   */
2239:/home/rdu/Workspace/project_templates/mcu/stm32_ws/src/libraries/STM32F4xx_StdPeriph_Driver/src/stm32f4xx_rtc.c **** void RTC_TimeStampOnTamperDetectionCmd(FunctionalState NewState)
2240:/home/rdu/Workspace/project_templates/mcu/stm32_ws/src/libraries/STM32F4xx_StdPeriph_Driver/src/stm32f4xx_rtc.c **** {
 3507              		.loc 1 2240 0
 3508              		.cfi_startproc
 3509              		@ args = 0, pretend = 0, frame = 8
 3510              		@ frame_needed = 0, uses_anonymous_args = 0
 3511              		@ link register save eliminated.
 3512 0000 82B0     		sub	sp, sp, #8
 3513              	.LCFI88:
 3514              		.cfi_def_cfa_offset 8
 3515 0002 0346     		mov	r3, r0
 3516 0004 8DF80730 		strb	r3, [sp, #7]
2241:/home/rdu/Workspace/project_templates/mcu/stm32_ws/src/libraries/STM32F4xx_StdPeriph_Driver/src/stm32f4xx_rtc.c ****   /* Check the parameters */
2242:/home/rdu/Workspace/project_templates/mcu/stm32_ws/src/libraries/STM32F4xx_StdPeriph_Driver/src/stm32f4xx_rtc.c ****   assert_param(IS_FUNCTIONAL_STATE(NewState));
2243:/home/rdu/Workspace/project_templates/mcu/stm32_ws/src/libraries/STM32F4xx_StdPeriph_Driver/src/stm32f4xx_rtc.c ****    
2244:/home/rdu/Workspace/project_templates/mcu/stm32_ws/src/libraries/STM32F4xx_StdPeriph_Driver/src/stm32f4xx_rtc.c ****   if (NewState != DISABLE)
 3517              		.loc 1 2244 0
 3518 0008 9DF80730 		ldrb	r3, [sp, #7]	@ zero_extendqisi2
 3519 000c 002B     		cmp	r3, #0
 3520 000e 06D0     		beq	.L239
2245:/home/rdu/Workspace/project_templates/mcu/stm32_ws/src/libraries/STM32F4xx_StdPeriph_Driver/src/stm32f4xx_rtc.c ****   {
2246:/home/rdu/Workspace/project_templates/mcu/stm32_ws/src/libraries/STM32F4xx_StdPeriph_Driver/src/stm32f4xx_rtc.c ****     /* Save timestamp on tamper detection event */
2247:/home/rdu/Workspace/project_templates/mcu/stm32_ws/src/libraries/STM32F4xx_StdPeriph_Driver/src/stm32f4xx_rtc.c ****     RTC->TAFCR |= (uint32_t)RTC_TAFCR_TAMPTS;
 3521              		.loc 1 2247 0
 3522 0010 074B     		ldr	r3, .L242
 3523 0012 1B6C     		ldr	r3, [r3, #64]
 3524 0014 064A     		ldr	r2, .L242
 3525 0016 43F08003 		orr	r3, r3, #128
 3526 001a 1364     		str	r3, [r2, #64]
2248:/home/rdu/Workspace/project_templates/mcu/stm32_ws/src/libraries/STM32F4xx_StdPeriph_Driver/src/stm32f4xx_rtc.c ****   }
2249:/home/rdu/Workspace/project_templates/mcu/stm32_ws/src/libraries/STM32F4xx_StdPeriph_Driver/src/stm32f4xx_rtc.c ****   else
2250:/home/rdu/Workspace/project_templates/mcu/stm32_ws/src/libraries/STM32F4xx_StdPeriph_Driver/src/stm32f4xx_rtc.c ****   {
2251:/home/rdu/Workspace/project_templates/mcu/stm32_ws/src/libraries/STM32F4xx_StdPeriph_Driver/src/stm32f4xx_rtc.c ****     /* Tamper detection does not cause a timestamp to be saved */
2252:/home/rdu/Workspace/project_templates/mcu/stm32_ws/src/libraries/STM32F4xx_StdPeriph_Driver/src/stm32f4xx_rtc.c ****     RTC->TAFCR &= (uint32_t)~RTC_TAFCR_TAMPTS;    
2253:/home/rdu/Workspace/project_templates/mcu/stm32_ws/src/libraries/STM32F4xx_StdPeriph_Driver/src/stm32f4xx_rtc.c ****   }
2254:/home/rdu/Workspace/project_templates/mcu/stm32_ws/src/libraries/STM32F4xx_StdPeriph_Driver/src/stm32f4xx_rtc.c **** }
 3527              		.loc 1 2254 0
 3528 001c 05E0     		b	.L241
 3529              	.L239:
2252:/home/rdu/Workspace/project_templates/mcu/stm32_ws/src/libraries/STM32F4xx_StdPeriph_Driver/src/stm32f4xx_rtc.c ****   }
 3530              		.loc 1 2252 0
 3531 001e 044B     		ldr	r3, .L242
 3532 0020 1B6C     		ldr	r3, [r3, #64]
 3533 0022 034A     		ldr	r2, .L242
 3534 0024 23F08003 		bic	r3, r3, #128
 3535 0028 1364     		str	r3, [r2, #64]
 3536              	.L241:
 3537              		.loc 1 2254 0
 3538 002a 00BF     		nop
 3539 002c 02B0     		add	sp, sp, #8
 3540              	.LCFI89:
 3541              		.cfi_def_cfa_offset 0
 3542              		@ sp needed
 3543 002e 7047     		bx	lr
 3544              	.L243:
 3545              		.align	2
 3546              	.L242:
 3547 0030 00280040 		.word	1073752064
 3548              		.cfi_endproc
 3549              	.LFE165:
 3551              		.section	.text.RTC_TamperPullUpCmd,"ax",%progbits
 3552              		.align	1
 3553              		.global	RTC_TamperPullUpCmd
 3554              		.syntax unified
 3555              		.thumb
 3556              		.thumb_func
 3557              		.fpu fpv4-sp-d16
 3559              	RTC_TamperPullUpCmd:
 3560              	.LFB166:
2255:/home/rdu/Workspace/project_templates/mcu/stm32_ws/src/libraries/STM32F4xx_StdPeriph_Driver/src/stm32f4xx_rtc.c **** 
2256:/home/rdu/Workspace/project_templates/mcu/stm32_ws/src/libraries/STM32F4xx_StdPeriph_Driver/src/stm32f4xx_rtc.c **** /**
2257:/home/rdu/Workspace/project_templates/mcu/stm32_ws/src/libraries/STM32F4xx_StdPeriph_Driver/src/stm32f4xx_rtc.c ****   * @brief  Enables or Disables the Precharge of Tamper pin.
2258:/home/rdu/Workspace/project_templates/mcu/stm32_ws/src/libraries/STM32F4xx_StdPeriph_Driver/src/stm32f4xx_rtc.c ****   * @param  NewState: new state of tamper pull up.
2259:/home/rdu/Workspace/project_templates/mcu/stm32_ws/src/libraries/STM32F4xx_StdPeriph_Driver/src/stm32f4xx_rtc.c ****   *   This parameter can be: ENABLE or DISABLE.                   
2260:/home/rdu/Workspace/project_templates/mcu/stm32_ws/src/libraries/STM32F4xx_StdPeriph_Driver/src/stm32f4xx_rtc.c ****   * @retval None
2261:/home/rdu/Workspace/project_templates/mcu/stm32_ws/src/libraries/STM32F4xx_StdPeriph_Driver/src/stm32f4xx_rtc.c ****   */
2262:/home/rdu/Workspace/project_templates/mcu/stm32_ws/src/libraries/STM32F4xx_StdPeriph_Driver/src/stm32f4xx_rtc.c **** void RTC_TamperPullUpCmd(FunctionalState NewState)
2263:/home/rdu/Workspace/project_templates/mcu/stm32_ws/src/libraries/STM32F4xx_StdPeriph_Driver/src/stm32f4xx_rtc.c **** {
 3561              		.loc 1 2263 0
 3562              		.cfi_startproc
 3563              		@ args = 0, pretend = 0, frame = 8
 3564              		@ frame_needed = 0, uses_anonymous_args = 0
 3565              		@ link register save eliminated.
 3566 0000 82B0     		sub	sp, sp, #8
 3567              	.LCFI90:
 3568              		.cfi_def_cfa_offset 8
 3569 0002 0346     		mov	r3, r0
 3570 0004 8DF80730 		strb	r3, [sp, #7]
2264:/home/rdu/Workspace/project_templates/mcu/stm32_ws/src/libraries/STM32F4xx_StdPeriph_Driver/src/stm32f4xx_rtc.c ****   /* Check the parameters */
2265:/home/rdu/Workspace/project_templates/mcu/stm32_ws/src/libraries/STM32F4xx_StdPeriph_Driver/src/stm32f4xx_rtc.c ****   assert_param(IS_FUNCTIONAL_STATE(NewState));
2266:/home/rdu/Workspace/project_templates/mcu/stm32_ws/src/libraries/STM32F4xx_StdPeriph_Driver/src/stm32f4xx_rtc.c ****   
2267:/home/rdu/Workspace/project_templates/mcu/stm32_ws/src/libraries/STM32F4xx_StdPeriph_Driver/src/stm32f4xx_rtc.c ****  if (NewState != DISABLE)
 3571              		.loc 1 2267 0
 3572 0008 9DF80730 		ldrb	r3, [sp, #7]	@ zero_extendqisi2
 3573 000c 002B     		cmp	r3, #0
 3574 000e 06D0     		beq	.L245
2268:/home/rdu/Workspace/project_templates/mcu/stm32_ws/src/libraries/STM32F4xx_StdPeriph_Driver/src/stm32f4xx_rtc.c ****   {
2269:/home/rdu/Workspace/project_templates/mcu/stm32_ws/src/libraries/STM32F4xx_StdPeriph_Driver/src/stm32f4xx_rtc.c ****     /* Enable precharge of the selected Tamper pin */
2270:/home/rdu/Workspace/project_templates/mcu/stm32_ws/src/libraries/STM32F4xx_StdPeriph_Driver/src/stm32f4xx_rtc.c ****     RTC->TAFCR &= (uint32_t)~RTC_TAFCR_TAMPPUDIS; 
 3575              		.loc 1 2270 0
 3576 0010 074B     		ldr	r3, .L248
 3577 0012 1B6C     		ldr	r3, [r3, #64]
 3578 0014 064A     		ldr	r2, .L248
 3579 0016 23F40043 		bic	r3, r3, #32768
 3580 001a 1364     		str	r3, [r2, #64]
2271:/home/rdu/Workspace/project_templates/mcu/stm32_ws/src/libraries/STM32F4xx_StdPeriph_Driver/src/stm32f4xx_rtc.c ****   }
2272:/home/rdu/Workspace/project_templates/mcu/stm32_ws/src/libraries/STM32F4xx_StdPeriph_Driver/src/stm32f4xx_rtc.c ****   else
2273:/home/rdu/Workspace/project_templates/mcu/stm32_ws/src/libraries/STM32F4xx_StdPeriph_Driver/src/stm32f4xx_rtc.c ****   {
2274:/home/rdu/Workspace/project_templates/mcu/stm32_ws/src/libraries/STM32F4xx_StdPeriph_Driver/src/stm32f4xx_rtc.c ****     /* Disable precharge of the selected Tamper pin */
2275:/home/rdu/Workspace/project_templates/mcu/stm32_ws/src/libraries/STM32F4xx_StdPeriph_Driver/src/stm32f4xx_rtc.c ****     RTC->TAFCR |= (uint32_t)RTC_TAFCR_TAMPPUDIS;    
2276:/home/rdu/Workspace/project_templates/mcu/stm32_ws/src/libraries/STM32F4xx_StdPeriph_Driver/src/stm32f4xx_rtc.c ****   } 
2277:/home/rdu/Workspace/project_templates/mcu/stm32_ws/src/libraries/STM32F4xx_StdPeriph_Driver/src/stm32f4xx_rtc.c **** }
 3581              		.loc 1 2277 0
 3582 001c 05E0     		b	.L247
 3583              	.L245:
2275:/home/rdu/Workspace/project_templates/mcu/stm32_ws/src/libraries/STM32F4xx_StdPeriph_Driver/src/stm32f4xx_rtc.c ****   } 
 3584              		.loc 1 2275 0
 3585 001e 044B     		ldr	r3, .L248
 3586 0020 1B6C     		ldr	r3, [r3, #64]
 3587 0022 034A     		ldr	r2, .L248
 3588 0024 43F40043 		orr	r3, r3, #32768
 3589 0028 1364     		str	r3, [r2, #64]
 3590              	.L247:
 3591              		.loc 1 2277 0
 3592 002a 00BF     		nop
 3593 002c 02B0     		add	sp, sp, #8
 3594              	.LCFI91:
 3595              		.cfi_def_cfa_offset 0
 3596              		@ sp needed
 3597 002e 7047     		bx	lr
 3598              	.L249:
 3599              		.align	2
 3600              	.L248:
 3601 0030 00280040 		.word	1073752064
 3602              		.cfi_endproc
 3603              	.LFE166:
 3605              		.section	.text.RTC_WriteBackupRegister,"ax",%progbits
 3606              		.align	1
 3607              		.global	RTC_WriteBackupRegister
 3608              		.syntax unified
 3609              		.thumb
 3610              		.thumb_func
 3611              		.fpu fpv4-sp-d16
 3613              	RTC_WriteBackupRegister:
 3614              	.LFB167:
2278:/home/rdu/Workspace/project_templates/mcu/stm32_ws/src/libraries/STM32F4xx_StdPeriph_Driver/src/stm32f4xx_rtc.c **** 
2279:/home/rdu/Workspace/project_templates/mcu/stm32_ws/src/libraries/STM32F4xx_StdPeriph_Driver/src/stm32f4xx_rtc.c **** /**
2280:/home/rdu/Workspace/project_templates/mcu/stm32_ws/src/libraries/STM32F4xx_StdPeriph_Driver/src/stm32f4xx_rtc.c ****   * @}
2281:/home/rdu/Workspace/project_templates/mcu/stm32_ws/src/libraries/STM32F4xx_StdPeriph_Driver/src/stm32f4xx_rtc.c ****   */
2282:/home/rdu/Workspace/project_templates/mcu/stm32_ws/src/libraries/STM32F4xx_StdPeriph_Driver/src/stm32f4xx_rtc.c **** 
2283:/home/rdu/Workspace/project_templates/mcu/stm32_ws/src/libraries/STM32F4xx_StdPeriph_Driver/src/stm32f4xx_rtc.c **** /** @defgroup RTC_Group10 Backup Data Registers configuration functions
2284:/home/rdu/Workspace/project_templates/mcu/stm32_ws/src/libraries/STM32F4xx_StdPeriph_Driver/src/stm32f4xx_rtc.c ****  *  @brief   Backup Data Registers configuration functions  
2285:/home/rdu/Workspace/project_templates/mcu/stm32_ws/src/libraries/STM32F4xx_StdPeriph_Driver/src/stm32f4xx_rtc.c ****  *
2286:/home/rdu/Workspace/project_templates/mcu/stm32_ws/src/libraries/STM32F4xx_StdPeriph_Driver/src/stm32f4xx_rtc.c **** @verbatim   
2287:/home/rdu/Workspace/project_templates/mcu/stm32_ws/src/libraries/STM32F4xx_StdPeriph_Driver/src/stm32f4xx_rtc.c ****  ===============================================================================
2288:/home/rdu/Workspace/project_templates/mcu/stm32_ws/src/libraries/STM32F4xx_StdPeriph_Driver/src/stm32f4xx_rtc.c ****              ##### Backup Data Registers configuration functions ##### 
2289:/home/rdu/Workspace/project_templates/mcu/stm32_ws/src/libraries/STM32F4xx_StdPeriph_Driver/src/stm32f4xx_rtc.c ****  ===============================================================================  
2290:/home/rdu/Workspace/project_templates/mcu/stm32_ws/src/libraries/STM32F4xx_StdPeriph_Driver/src/stm32f4xx_rtc.c **** 
2291:/home/rdu/Workspace/project_templates/mcu/stm32_ws/src/libraries/STM32F4xx_StdPeriph_Driver/src/stm32f4xx_rtc.c **** @endverbatim
2292:/home/rdu/Workspace/project_templates/mcu/stm32_ws/src/libraries/STM32F4xx_StdPeriph_Driver/src/stm32f4xx_rtc.c ****   * @{
2293:/home/rdu/Workspace/project_templates/mcu/stm32_ws/src/libraries/STM32F4xx_StdPeriph_Driver/src/stm32f4xx_rtc.c ****   */
2294:/home/rdu/Workspace/project_templates/mcu/stm32_ws/src/libraries/STM32F4xx_StdPeriph_Driver/src/stm32f4xx_rtc.c **** 
2295:/home/rdu/Workspace/project_templates/mcu/stm32_ws/src/libraries/STM32F4xx_StdPeriph_Driver/src/stm32f4xx_rtc.c **** /**
2296:/home/rdu/Workspace/project_templates/mcu/stm32_ws/src/libraries/STM32F4xx_StdPeriph_Driver/src/stm32f4xx_rtc.c ****   * @brief  Writes a data in a specified RTC Backup data register.
2297:/home/rdu/Workspace/project_templates/mcu/stm32_ws/src/libraries/STM32F4xx_StdPeriph_Driver/src/stm32f4xx_rtc.c ****   * @param  RTC_BKP_DR: RTC Backup data Register number.
2298:/home/rdu/Workspace/project_templates/mcu/stm32_ws/src/libraries/STM32F4xx_StdPeriph_Driver/src/stm32f4xx_rtc.c ****   *          This parameter can be: RTC_BKP_DRx where x can be from 0 to 19 to 
2299:/home/rdu/Workspace/project_templates/mcu/stm32_ws/src/libraries/STM32F4xx_StdPeriph_Driver/src/stm32f4xx_rtc.c ****   *                          specify the register.
2300:/home/rdu/Workspace/project_templates/mcu/stm32_ws/src/libraries/STM32F4xx_StdPeriph_Driver/src/stm32f4xx_rtc.c ****   * @param  Data: Data to be written in the specified RTC Backup data register.                    
2301:/home/rdu/Workspace/project_templates/mcu/stm32_ws/src/libraries/STM32F4xx_StdPeriph_Driver/src/stm32f4xx_rtc.c ****   * @retval None
2302:/home/rdu/Workspace/project_templates/mcu/stm32_ws/src/libraries/STM32F4xx_StdPeriph_Driver/src/stm32f4xx_rtc.c ****   */
2303:/home/rdu/Workspace/project_templates/mcu/stm32_ws/src/libraries/STM32F4xx_StdPeriph_Driver/src/stm32f4xx_rtc.c **** void RTC_WriteBackupRegister(uint32_t RTC_BKP_DR, uint32_t Data)
2304:/home/rdu/Workspace/project_templates/mcu/stm32_ws/src/libraries/STM32F4xx_StdPeriph_Driver/src/stm32f4xx_rtc.c **** {
 3615              		.loc 1 2304 0
 3616              		.cfi_startproc
 3617              		@ args = 0, pretend = 0, frame = 16
 3618              		@ frame_needed = 0, uses_anonymous_args = 0
 3619              		@ link register save eliminated.
 3620 0000 84B0     		sub	sp, sp, #16
 3621              	.LCFI92:
 3622              		.cfi_def_cfa_offset 16
 3623 0002 0190     		str	r0, [sp, #4]
 3624 0004 0091     		str	r1, [sp]
2305:/home/rdu/Workspace/project_templates/mcu/stm32_ws/src/libraries/STM32F4xx_StdPeriph_Driver/src/stm32f4xx_rtc.c ****   __IO uint32_t tmp = 0;
 3625              		.loc 1 2305 0
 3626 0006 0023     		movs	r3, #0
 3627 0008 0393     		str	r3, [sp, #12]
2306:/home/rdu/Workspace/project_templates/mcu/stm32_ws/src/libraries/STM32F4xx_StdPeriph_Driver/src/stm32f4xx_rtc.c ****   
2307:/home/rdu/Workspace/project_templates/mcu/stm32_ws/src/libraries/STM32F4xx_StdPeriph_Driver/src/stm32f4xx_rtc.c ****   /* Check the parameters */
2308:/home/rdu/Workspace/project_templates/mcu/stm32_ws/src/libraries/STM32F4xx_StdPeriph_Driver/src/stm32f4xx_rtc.c ****   assert_param(IS_RTC_BKP(RTC_BKP_DR));
2309:/home/rdu/Workspace/project_templates/mcu/stm32_ws/src/libraries/STM32F4xx_StdPeriph_Driver/src/stm32f4xx_rtc.c **** 
2310:/home/rdu/Workspace/project_templates/mcu/stm32_ws/src/libraries/STM32F4xx_StdPeriph_Driver/src/stm32f4xx_rtc.c ****   tmp = RTC_BASE + 0x50;
 3628              		.loc 1 2310 0
 3629 000a 074B     		ldr	r3, .L251
 3630 000c 0393     		str	r3, [sp, #12]
2311:/home/rdu/Workspace/project_templates/mcu/stm32_ws/src/libraries/STM32F4xx_StdPeriph_Driver/src/stm32f4xx_rtc.c ****   tmp += (RTC_BKP_DR * 4);
 3631              		.loc 1 2311 0
 3632 000e 019B     		ldr	r3, [sp, #4]
 3633 0010 9A00     		lsls	r2, r3, #2
 3634 0012 039B     		ldr	r3, [sp, #12]
 3635 0014 1344     		add	r3, r3, r2
 3636 0016 0393     		str	r3, [sp, #12]
2312:/home/rdu/Workspace/project_templates/mcu/stm32_ws/src/libraries/STM32F4xx_StdPeriph_Driver/src/stm32f4xx_rtc.c **** 
2313:/home/rdu/Workspace/project_templates/mcu/stm32_ws/src/libraries/STM32F4xx_StdPeriph_Driver/src/stm32f4xx_rtc.c ****   /* Write the specified register */
2314:/home/rdu/Workspace/project_templates/mcu/stm32_ws/src/libraries/STM32F4xx_StdPeriph_Driver/src/stm32f4xx_rtc.c ****   *(__IO uint32_t *)tmp = (uint32_t)Data;
 3637              		.loc 1 2314 0
 3638 0018 039B     		ldr	r3, [sp, #12]
 3639 001a 1A46     		mov	r2, r3
 3640 001c 009B     		ldr	r3, [sp]
 3641 001e 1360     		str	r3, [r2]
2315:/home/rdu/Workspace/project_templates/mcu/stm32_ws/src/libraries/STM32F4xx_StdPeriph_Driver/src/stm32f4xx_rtc.c **** }
 3642              		.loc 1 2315 0
 3643 0020 00BF     		nop
 3644 0022 04B0     		add	sp, sp, #16
 3645              	.LCFI93:
 3646              		.cfi_def_cfa_offset 0
 3647              		@ sp needed
 3648 0024 7047     		bx	lr
 3649              	.L252:
 3650 0026 00BF     		.align	2
 3651              	.L251:
 3652 0028 50280040 		.word	1073752144
 3653              		.cfi_endproc
 3654              	.LFE167:
 3656              		.section	.text.RTC_ReadBackupRegister,"ax",%progbits
 3657              		.align	1
 3658              		.global	RTC_ReadBackupRegister
 3659              		.syntax unified
 3660              		.thumb
 3661              		.thumb_func
 3662              		.fpu fpv4-sp-d16
 3664              	RTC_ReadBackupRegister:
 3665              	.LFB168:
2316:/home/rdu/Workspace/project_templates/mcu/stm32_ws/src/libraries/STM32F4xx_StdPeriph_Driver/src/stm32f4xx_rtc.c **** 
2317:/home/rdu/Workspace/project_templates/mcu/stm32_ws/src/libraries/STM32F4xx_StdPeriph_Driver/src/stm32f4xx_rtc.c **** /**
2318:/home/rdu/Workspace/project_templates/mcu/stm32_ws/src/libraries/STM32F4xx_StdPeriph_Driver/src/stm32f4xx_rtc.c ****   * @brief  Reads data from the specified RTC Backup data Register.
2319:/home/rdu/Workspace/project_templates/mcu/stm32_ws/src/libraries/STM32F4xx_StdPeriph_Driver/src/stm32f4xx_rtc.c ****   * @param  RTC_BKP_DR: RTC Backup data Register number.
2320:/home/rdu/Workspace/project_templates/mcu/stm32_ws/src/libraries/STM32F4xx_StdPeriph_Driver/src/stm32f4xx_rtc.c ****   *          This parameter can be: RTC_BKP_DRx where x can be from 0 to 19 to 
2321:/home/rdu/Workspace/project_templates/mcu/stm32_ws/src/libraries/STM32F4xx_StdPeriph_Driver/src/stm32f4xx_rtc.c ****   *                          specify the register.                   
2322:/home/rdu/Workspace/project_templates/mcu/stm32_ws/src/libraries/STM32F4xx_StdPeriph_Driver/src/stm32f4xx_rtc.c ****   * @retval None
2323:/home/rdu/Workspace/project_templates/mcu/stm32_ws/src/libraries/STM32F4xx_StdPeriph_Driver/src/stm32f4xx_rtc.c ****   */
2324:/home/rdu/Workspace/project_templates/mcu/stm32_ws/src/libraries/STM32F4xx_StdPeriph_Driver/src/stm32f4xx_rtc.c **** uint32_t RTC_ReadBackupRegister(uint32_t RTC_BKP_DR)
2325:/home/rdu/Workspace/project_templates/mcu/stm32_ws/src/libraries/STM32F4xx_StdPeriph_Driver/src/stm32f4xx_rtc.c **** {
 3666              		.loc 1 2325 0
 3667              		.cfi_startproc
 3668              		@ args = 0, pretend = 0, frame = 16
 3669              		@ frame_needed = 0, uses_anonymous_args = 0
 3670              		@ link register save eliminated.
 3671 0000 84B0     		sub	sp, sp, #16
 3672              	.LCFI94:
 3673              		.cfi_def_cfa_offset 16
 3674 0002 0190     		str	r0, [sp, #4]
2326:/home/rdu/Workspace/project_templates/mcu/stm32_ws/src/libraries/STM32F4xx_StdPeriph_Driver/src/stm32f4xx_rtc.c ****   __IO uint32_t tmp = 0;
 3675              		.loc 1 2326 0
 3676 0004 0023     		movs	r3, #0
 3677 0006 0393     		str	r3, [sp, #12]
2327:/home/rdu/Workspace/project_templates/mcu/stm32_ws/src/libraries/STM32F4xx_StdPeriph_Driver/src/stm32f4xx_rtc.c ****   
2328:/home/rdu/Workspace/project_templates/mcu/stm32_ws/src/libraries/STM32F4xx_StdPeriph_Driver/src/stm32f4xx_rtc.c ****   /* Check the parameters */
2329:/home/rdu/Workspace/project_templates/mcu/stm32_ws/src/libraries/STM32F4xx_StdPeriph_Driver/src/stm32f4xx_rtc.c ****   assert_param(IS_RTC_BKP(RTC_BKP_DR));
2330:/home/rdu/Workspace/project_templates/mcu/stm32_ws/src/libraries/STM32F4xx_StdPeriph_Driver/src/stm32f4xx_rtc.c **** 
2331:/home/rdu/Workspace/project_templates/mcu/stm32_ws/src/libraries/STM32F4xx_StdPeriph_Driver/src/stm32f4xx_rtc.c ****   tmp = RTC_BASE + 0x50;
 3678              		.loc 1 2331 0
 3679 0008 054B     		ldr	r3, .L255
 3680 000a 0393     		str	r3, [sp, #12]
2332:/home/rdu/Workspace/project_templates/mcu/stm32_ws/src/libraries/STM32F4xx_StdPeriph_Driver/src/stm32f4xx_rtc.c ****   tmp += (RTC_BKP_DR * 4);
 3681              		.loc 1 2332 0
 3682 000c 019B     		ldr	r3, [sp, #4]
 3683 000e 9A00     		lsls	r2, r3, #2
 3684 0010 039B     		ldr	r3, [sp, #12]
 3685 0012 1344     		add	r3, r3, r2
 3686 0014 0393     		str	r3, [sp, #12]
2333:/home/rdu/Workspace/project_templates/mcu/stm32_ws/src/libraries/STM32F4xx_StdPeriph_Driver/src/stm32f4xx_rtc.c ****   
2334:/home/rdu/Workspace/project_templates/mcu/stm32_ws/src/libraries/STM32F4xx_StdPeriph_Driver/src/stm32f4xx_rtc.c ****   /* Read the specified register */
2335:/home/rdu/Workspace/project_templates/mcu/stm32_ws/src/libraries/STM32F4xx_StdPeriph_Driver/src/stm32f4xx_rtc.c ****   return (*(__IO uint32_t *)tmp);
 3687              		.loc 1 2335 0
 3688 0016 039B     		ldr	r3, [sp, #12]
 3689 0018 1B68     		ldr	r3, [r3]
2336:/home/rdu/Workspace/project_templates/mcu/stm32_ws/src/libraries/STM32F4xx_StdPeriph_Driver/src/stm32f4xx_rtc.c **** }
 3690              		.loc 1 2336 0
 3691 001a 1846     		mov	r0, r3
 3692 001c 04B0     		add	sp, sp, #16
 3693              	.LCFI95:
 3694              		.cfi_def_cfa_offset 0
 3695              		@ sp needed
 3696 001e 7047     		bx	lr
 3697              	.L256:
 3698              		.align	2
 3699              	.L255:
 3700 0020 50280040 		.word	1073752144
 3701              		.cfi_endproc
 3702              	.LFE168:
 3704              		.section	.text.RTC_TamperPinSelection,"ax",%progbits
 3705              		.align	1
 3706              		.global	RTC_TamperPinSelection
 3707              		.syntax unified
 3708              		.thumb
 3709              		.thumb_func
 3710              		.fpu fpv4-sp-d16
 3712              	RTC_TamperPinSelection:
 3713              	.LFB169:
2337:/home/rdu/Workspace/project_templates/mcu/stm32_ws/src/libraries/STM32F4xx_StdPeriph_Driver/src/stm32f4xx_rtc.c **** 
2338:/home/rdu/Workspace/project_templates/mcu/stm32_ws/src/libraries/STM32F4xx_StdPeriph_Driver/src/stm32f4xx_rtc.c **** /**
2339:/home/rdu/Workspace/project_templates/mcu/stm32_ws/src/libraries/STM32F4xx_StdPeriph_Driver/src/stm32f4xx_rtc.c ****   * @}
2340:/home/rdu/Workspace/project_templates/mcu/stm32_ws/src/libraries/STM32F4xx_StdPeriph_Driver/src/stm32f4xx_rtc.c ****   */
2341:/home/rdu/Workspace/project_templates/mcu/stm32_ws/src/libraries/STM32F4xx_StdPeriph_Driver/src/stm32f4xx_rtc.c **** 
2342:/home/rdu/Workspace/project_templates/mcu/stm32_ws/src/libraries/STM32F4xx_StdPeriph_Driver/src/stm32f4xx_rtc.c **** /** @defgroup RTC_Group11 RTC Tamper and TimeStamp Pins Selection and Output Type Config configurat
2343:/home/rdu/Workspace/project_templates/mcu/stm32_ws/src/libraries/STM32F4xx_StdPeriph_Driver/src/stm32f4xx_rtc.c ****  *  @brief   RTC Tamper and TimeStamp Pins Selection and Output Type Config 
2344:/home/rdu/Workspace/project_templates/mcu/stm32_ws/src/libraries/STM32F4xx_StdPeriph_Driver/src/stm32f4xx_rtc.c ****  *           configuration functions  
2345:/home/rdu/Workspace/project_templates/mcu/stm32_ws/src/libraries/STM32F4xx_StdPeriph_Driver/src/stm32f4xx_rtc.c ****  *
2346:/home/rdu/Workspace/project_templates/mcu/stm32_ws/src/libraries/STM32F4xx_StdPeriph_Driver/src/stm32f4xx_rtc.c **** @verbatim   
2347:/home/rdu/Workspace/project_templates/mcu/stm32_ws/src/libraries/STM32F4xx_StdPeriph_Driver/src/stm32f4xx_rtc.c ****  ==================================================================================================
2348:/home/rdu/Workspace/project_templates/mcu/stm32_ws/src/libraries/STM32F4xx_StdPeriph_Driver/src/stm32f4xx_rtc.c ****  ##### RTC Tamper and TimeStamp Pins Selection and Output Type Config configuration functions #####
2349:/home/rdu/Workspace/project_templates/mcu/stm32_ws/src/libraries/STM32F4xx_StdPeriph_Driver/src/stm32f4xx_rtc.c ****  ==================================================================================================
2350:/home/rdu/Workspace/project_templates/mcu/stm32_ws/src/libraries/STM32F4xx_StdPeriph_Driver/src/stm32f4xx_rtc.c **** 
2351:/home/rdu/Workspace/project_templates/mcu/stm32_ws/src/libraries/STM32F4xx_StdPeriph_Driver/src/stm32f4xx_rtc.c **** @endverbatim
2352:/home/rdu/Workspace/project_templates/mcu/stm32_ws/src/libraries/STM32F4xx_StdPeriph_Driver/src/stm32f4xx_rtc.c ****   * @{
2353:/home/rdu/Workspace/project_templates/mcu/stm32_ws/src/libraries/STM32F4xx_StdPeriph_Driver/src/stm32f4xx_rtc.c ****   */
2354:/home/rdu/Workspace/project_templates/mcu/stm32_ws/src/libraries/STM32F4xx_StdPeriph_Driver/src/stm32f4xx_rtc.c **** 
2355:/home/rdu/Workspace/project_templates/mcu/stm32_ws/src/libraries/STM32F4xx_StdPeriph_Driver/src/stm32f4xx_rtc.c **** /**
2356:/home/rdu/Workspace/project_templates/mcu/stm32_ws/src/libraries/STM32F4xx_StdPeriph_Driver/src/stm32f4xx_rtc.c ****   * @brief  Selects the RTC Tamper Pin.
2357:/home/rdu/Workspace/project_templates/mcu/stm32_ws/src/libraries/STM32F4xx_StdPeriph_Driver/src/stm32f4xx_rtc.c ****   * @param  RTC_TamperPin: specifies the RTC Tamper Pin.
2358:/home/rdu/Workspace/project_templates/mcu/stm32_ws/src/libraries/STM32F4xx_StdPeriph_Driver/src/stm32f4xx_rtc.c ****   *          This parameter can be one of the following values:
2359:/home/rdu/Workspace/project_templates/mcu/stm32_ws/src/libraries/STM32F4xx_StdPeriph_Driver/src/stm32f4xx_rtc.c ****   *            @arg RTC_TamperPin_Default: RTC_AF1 is used as RTC Tamper Pin.
2360:/home/rdu/Workspace/project_templates/mcu/stm32_ws/src/libraries/STM32F4xx_StdPeriph_Driver/src/stm32f4xx_rtc.c ****   *            @arg RTC_TamperPin_Pos1: RTC_AF2 is selected as RTC Tamper Pin.    
2361:/home/rdu/Workspace/project_templates/mcu/stm32_ws/src/libraries/STM32F4xx_StdPeriph_Driver/src/stm32f4xx_rtc.c ****   * @retval None
2362:/home/rdu/Workspace/project_templates/mcu/stm32_ws/src/libraries/STM32F4xx_StdPeriph_Driver/src/stm32f4xx_rtc.c ****   */
2363:/home/rdu/Workspace/project_templates/mcu/stm32_ws/src/libraries/STM32F4xx_StdPeriph_Driver/src/stm32f4xx_rtc.c **** void RTC_TamperPinSelection(uint32_t RTC_TamperPin)
2364:/home/rdu/Workspace/project_templates/mcu/stm32_ws/src/libraries/STM32F4xx_StdPeriph_Driver/src/stm32f4xx_rtc.c **** {
 3714              		.loc 1 2364 0
 3715              		.cfi_startproc
 3716              		@ args = 0, pretend = 0, frame = 8
 3717              		@ frame_needed = 0, uses_anonymous_args = 0
 3718              		@ link register save eliminated.
 3719 0000 82B0     		sub	sp, sp, #8
 3720              	.LCFI96:
 3721              		.cfi_def_cfa_offset 8
 3722 0002 0190     		str	r0, [sp, #4]
2365:/home/rdu/Workspace/project_templates/mcu/stm32_ws/src/libraries/STM32F4xx_StdPeriph_Driver/src/stm32f4xx_rtc.c ****   /* Check the parameters */
2366:/home/rdu/Workspace/project_templates/mcu/stm32_ws/src/libraries/STM32F4xx_StdPeriph_Driver/src/stm32f4xx_rtc.c ****   assert_param(IS_RTC_TAMPER_PIN(RTC_TamperPin));
2367:/home/rdu/Workspace/project_templates/mcu/stm32_ws/src/libraries/STM32F4xx_StdPeriph_Driver/src/stm32f4xx_rtc.c ****   
2368:/home/rdu/Workspace/project_templates/mcu/stm32_ws/src/libraries/STM32F4xx_StdPeriph_Driver/src/stm32f4xx_rtc.c ****   RTC->TAFCR &= (uint32_t)~(RTC_TAFCR_TAMPINSEL);
 3723              		.loc 1 2368 0
 3724 0004 074B     		ldr	r3, .L258
 3725 0006 1B6C     		ldr	r3, [r3, #64]
 3726 0008 064A     		ldr	r2, .L258
 3727 000a 23F48033 		bic	r3, r3, #65536
 3728 000e 1364     		str	r3, [r2, #64]
2369:/home/rdu/Workspace/project_templates/mcu/stm32_ws/src/libraries/STM32F4xx_StdPeriph_Driver/src/stm32f4xx_rtc.c ****   RTC->TAFCR |= (uint32_t)(RTC_TamperPin);  
 3729              		.loc 1 2369 0
 3730 0010 044B     		ldr	r3, .L258
 3731 0012 1A6C     		ldr	r2, [r3, #64]
 3732 0014 0349     		ldr	r1, .L258
 3733 0016 019B     		ldr	r3, [sp, #4]
 3734 0018 1343     		orrs	r3, r3, r2
 3735 001a 0B64     		str	r3, [r1, #64]
2370:/home/rdu/Workspace/project_templates/mcu/stm32_ws/src/libraries/STM32F4xx_StdPeriph_Driver/src/stm32f4xx_rtc.c **** }
 3736              		.loc 1 2370 0
 3737 001c 00BF     		nop
 3738 001e 02B0     		add	sp, sp, #8
 3739              	.LCFI97:
 3740              		.cfi_def_cfa_offset 0
 3741              		@ sp needed
 3742 0020 7047     		bx	lr
 3743              	.L259:
 3744 0022 00BF     		.align	2
 3745              	.L258:
 3746 0024 00280040 		.word	1073752064
 3747              		.cfi_endproc
 3748              	.LFE169:
 3750              		.section	.text.RTC_TimeStampPinSelection,"ax",%progbits
 3751              		.align	1
 3752              		.global	RTC_TimeStampPinSelection
 3753              		.syntax unified
 3754              		.thumb
 3755              		.thumb_func
 3756              		.fpu fpv4-sp-d16
 3758              	RTC_TimeStampPinSelection:
 3759              	.LFB170:
2371:/home/rdu/Workspace/project_templates/mcu/stm32_ws/src/libraries/STM32F4xx_StdPeriph_Driver/src/stm32f4xx_rtc.c **** 
2372:/home/rdu/Workspace/project_templates/mcu/stm32_ws/src/libraries/STM32F4xx_StdPeriph_Driver/src/stm32f4xx_rtc.c **** /**
2373:/home/rdu/Workspace/project_templates/mcu/stm32_ws/src/libraries/STM32F4xx_StdPeriph_Driver/src/stm32f4xx_rtc.c ****   * @brief  Selects the RTC TimeStamp Pin.
2374:/home/rdu/Workspace/project_templates/mcu/stm32_ws/src/libraries/STM32F4xx_StdPeriph_Driver/src/stm32f4xx_rtc.c ****   * @param  RTC_TimeStampPin: specifies the RTC TimeStamp Pin.
2375:/home/rdu/Workspace/project_templates/mcu/stm32_ws/src/libraries/STM32F4xx_StdPeriph_Driver/src/stm32f4xx_rtc.c ****   *          This parameter can be one of the following values:
2376:/home/rdu/Workspace/project_templates/mcu/stm32_ws/src/libraries/STM32F4xx_StdPeriph_Driver/src/stm32f4xx_rtc.c ****   *            @arg RTC_TimeStampPin_PC13: PC13 is selected as RTC TimeStamp Pin.
2377:/home/rdu/Workspace/project_templates/mcu/stm32_ws/src/libraries/STM32F4xx_StdPeriph_Driver/src/stm32f4xx_rtc.c ****   *            @arg RTC_TimeStampPin_PI8: PI8 is selected as RTC TimeStamp Pin.    
2378:/home/rdu/Workspace/project_templates/mcu/stm32_ws/src/libraries/STM32F4xx_StdPeriph_Driver/src/stm32f4xx_rtc.c ****   * @retval None
2379:/home/rdu/Workspace/project_templates/mcu/stm32_ws/src/libraries/STM32F4xx_StdPeriph_Driver/src/stm32f4xx_rtc.c ****   */
2380:/home/rdu/Workspace/project_templates/mcu/stm32_ws/src/libraries/STM32F4xx_StdPeriph_Driver/src/stm32f4xx_rtc.c **** void RTC_TimeStampPinSelection(uint32_t RTC_TimeStampPin)
2381:/home/rdu/Workspace/project_templates/mcu/stm32_ws/src/libraries/STM32F4xx_StdPeriph_Driver/src/stm32f4xx_rtc.c **** {
 3760              		.loc 1 2381 0
 3761              		.cfi_startproc
 3762              		@ args = 0, pretend = 0, frame = 8
 3763              		@ frame_needed = 0, uses_anonymous_args = 0
 3764              		@ link register save eliminated.
 3765 0000 82B0     		sub	sp, sp, #8
 3766              	.LCFI98:
 3767              		.cfi_def_cfa_offset 8
 3768 0002 0190     		str	r0, [sp, #4]
2382:/home/rdu/Workspace/project_templates/mcu/stm32_ws/src/libraries/STM32F4xx_StdPeriph_Driver/src/stm32f4xx_rtc.c ****   /* Check the parameters */
2383:/home/rdu/Workspace/project_templates/mcu/stm32_ws/src/libraries/STM32F4xx_StdPeriph_Driver/src/stm32f4xx_rtc.c ****   assert_param(IS_RTC_TIMESTAMP_PIN(RTC_TimeStampPin));
2384:/home/rdu/Workspace/project_templates/mcu/stm32_ws/src/libraries/STM32F4xx_StdPeriph_Driver/src/stm32f4xx_rtc.c ****   
2385:/home/rdu/Workspace/project_templates/mcu/stm32_ws/src/libraries/STM32F4xx_StdPeriph_Driver/src/stm32f4xx_rtc.c ****   RTC->TAFCR &= (uint32_t)~(RTC_TAFCR_TSINSEL);
 3769              		.loc 1 2385 0
 3770 0004 074B     		ldr	r3, .L261
 3771 0006 1B6C     		ldr	r3, [r3, #64]
 3772 0008 064A     		ldr	r2, .L261
 3773 000a 23F40033 		bic	r3, r3, #131072
 3774 000e 1364     		str	r3, [r2, #64]
2386:/home/rdu/Workspace/project_templates/mcu/stm32_ws/src/libraries/STM32F4xx_StdPeriph_Driver/src/stm32f4xx_rtc.c ****   RTC->TAFCR |= (uint32_t)(RTC_TimeStampPin);  
 3775              		.loc 1 2386 0
 3776 0010 044B     		ldr	r3, .L261
 3777 0012 1A6C     		ldr	r2, [r3, #64]
 3778 0014 0349     		ldr	r1, .L261
 3779 0016 019B     		ldr	r3, [sp, #4]
 3780 0018 1343     		orrs	r3, r3, r2
 3781 001a 0B64     		str	r3, [r1, #64]
2387:/home/rdu/Workspace/project_templates/mcu/stm32_ws/src/libraries/STM32F4xx_StdPeriph_Driver/src/stm32f4xx_rtc.c **** }
 3782              		.loc 1 2387 0
 3783 001c 00BF     		nop
 3784 001e 02B0     		add	sp, sp, #8
 3785              	.LCFI99:
 3786              		.cfi_def_cfa_offset 0
 3787              		@ sp needed
 3788 0020 7047     		bx	lr
 3789              	.L262:
 3790 0022 00BF     		.align	2
 3791              	.L261:
 3792 0024 00280040 		.word	1073752064
 3793              		.cfi_endproc
 3794              	.LFE170:
 3796              		.section	.text.RTC_OutputTypeConfig,"ax",%progbits
 3797              		.align	1
 3798              		.global	RTC_OutputTypeConfig
 3799              		.syntax unified
 3800              		.thumb
 3801              		.thumb_func
 3802              		.fpu fpv4-sp-d16
 3804              	RTC_OutputTypeConfig:
 3805              	.LFB171:
2388:/home/rdu/Workspace/project_templates/mcu/stm32_ws/src/libraries/STM32F4xx_StdPeriph_Driver/src/stm32f4xx_rtc.c **** 
2389:/home/rdu/Workspace/project_templates/mcu/stm32_ws/src/libraries/STM32F4xx_StdPeriph_Driver/src/stm32f4xx_rtc.c **** /**
2390:/home/rdu/Workspace/project_templates/mcu/stm32_ws/src/libraries/STM32F4xx_StdPeriph_Driver/src/stm32f4xx_rtc.c ****   * @brief  Configures the RTC Output Pin mode. 
2391:/home/rdu/Workspace/project_templates/mcu/stm32_ws/src/libraries/STM32F4xx_StdPeriph_Driver/src/stm32f4xx_rtc.c ****   * @param  RTC_OutputType: specifies the RTC Output (PC13) pin mode.
2392:/home/rdu/Workspace/project_templates/mcu/stm32_ws/src/libraries/STM32F4xx_StdPeriph_Driver/src/stm32f4xx_rtc.c ****   *          This parameter can be one of the following values:
2393:/home/rdu/Workspace/project_templates/mcu/stm32_ws/src/libraries/STM32F4xx_StdPeriph_Driver/src/stm32f4xx_rtc.c ****   *            @arg RTC_OutputType_OpenDrain: RTC Output (PC13) is configured in 
2394:/home/rdu/Workspace/project_templates/mcu/stm32_ws/src/libraries/STM32F4xx_StdPeriph_Driver/src/stm32f4xx_rtc.c ****   *                                    Open Drain mode.
2395:/home/rdu/Workspace/project_templates/mcu/stm32_ws/src/libraries/STM32F4xx_StdPeriph_Driver/src/stm32f4xx_rtc.c ****   *            @arg RTC_OutputType_PushPull:  RTC Output (PC13) is configured in 
2396:/home/rdu/Workspace/project_templates/mcu/stm32_ws/src/libraries/STM32F4xx_StdPeriph_Driver/src/stm32f4xx_rtc.c ****   *                                    Push Pull mode.    
2397:/home/rdu/Workspace/project_templates/mcu/stm32_ws/src/libraries/STM32F4xx_StdPeriph_Driver/src/stm32f4xx_rtc.c ****   * @retval None
2398:/home/rdu/Workspace/project_templates/mcu/stm32_ws/src/libraries/STM32F4xx_StdPeriph_Driver/src/stm32f4xx_rtc.c ****   */
2399:/home/rdu/Workspace/project_templates/mcu/stm32_ws/src/libraries/STM32F4xx_StdPeriph_Driver/src/stm32f4xx_rtc.c **** void RTC_OutputTypeConfig(uint32_t RTC_OutputType)
2400:/home/rdu/Workspace/project_templates/mcu/stm32_ws/src/libraries/STM32F4xx_StdPeriph_Driver/src/stm32f4xx_rtc.c **** {
 3806              		.loc 1 2400 0
 3807              		.cfi_startproc
 3808              		@ args = 0, pretend = 0, frame = 8
 3809              		@ frame_needed = 0, uses_anonymous_args = 0
 3810              		@ link register save eliminated.
 3811 0000 82B0     		sub	sp, sp, #8
 3812              	.LCFI100:
 3813              		.cfi_def_cfa_offset 8
 3814 0002 0190     		str	r0, [sp, #4]
2401:/home/rdu/Workspace/project_templates/mcu/stm32_ws/src/libraries/STM32F4xx_StdPeriph_Driver/src/stm32f4xx_rtc.c ****   /* Check the parameters */
2402:/home/rdu/Workspace/project_templates/mcu/stm32_ws/src/libraries/STM32F4xx_StdPeriph_Driver/src/stm32f4xx_rtc.c ****   assert_param(IS_RTC_OUTPUT_TYPE(RTC_OutputType));
2403:/home/rdu/Workspace/project_templates/mcu/stm32_ws/src/libraries/STM32F4xx_StdPeriph_Driver/src/stm32f4xx_rtc.c ****   
2404:/home/rdu/Workspace/project_templates/mcu/stm32_ws/src/libraries/STM32F4xx_StdPeriph_Driver/src/stm32f4xx_rtc.c ****   RTC->TAFCR &= (uint32_t)~(RTC_TAFCR_ALARMOUTTYPE);
 3815              		.loc 1 2404 0
 3816 0004 074B     		ldr	r3, .L264
 3817 0006 1B6C     		ldr	r3, [r3, #64]
 3818 0008 064A     		ldr	r2, .L264
 3819 000a 23F48023 		bic	r3, r3, #262144
 3820 000e 1364     		str	r3, [r2, #64]
2405:/home/rdu/Workspace/project_templates/mcu/stm32_ws/src/libraries/STM32F4xx_StdPeriph_Driver/src/stm32f4xx_rtc.c ****   RTC->TAFCR |= (uint32_t)(RTC_OutputType);  
 3821              		.loc 1 2405 0
 3822 0010 044B     		ldr	r3, .L264
 3823 0012 1A6C     		ldr	r2, [r3, #64]
 3824 0014 0349     		ldr	r1, .L264
 3825 0016 019B     		ldr	r3, [sp, #4]
 3826 0018 1343     		orrs	r3, r3, r2
 3827 001a 0B64     		str	r3, [r1, #64]
2406:/home/rdu/Workspace/project_templates/mcu/stm32_ws/src/libraries/STM32F4xx_StdPeriph_Driver/src/stm32f4xx_rtc.c **** }
 3828              		.loc 1 2406 0
 3829 001c 00BF     		nop
 3830 001e 02B0     		add	sp, sp, #8
 3831              	.LCFI101:
 3832              		.cfi_def_cfa_offset 0
 3833              		@ sp needed
 3834 0020 7047     		bx	lr
 3835              	.L265:
 3836 0022 00BF     		.align	2
 3837              	.L264:
 3838 0024 00280040 		.word	1073752064
 3839              		.cfi_endproc
 3840              	.LFE171:
 3842              		.section	.text.RTC_SynchroShiftConfig,"ax",%progbits
 3843              		.align	1
 3844              		.global	RTC_SynchroShiftConfig
 3845              		.syntax unified
 3846              		.thumb
 3847              		.thumb_func
 3848              		.fpu fpv4-sp-d16
 3850              	RTC_SynchroShiftConfig:
 3851              	.LFB172:
2407:/home/rdu/Workspace/project_templates/mcu/stm32_ws/src/libraries/STM32F4xx_StdPeriph_Driver/src/stm32f4xx_rtc.c **** 
2408:/home/rdu/Workspace/project_templates/mcu/stm32_ws/src/libraries/STM32F4xx_StdPeriph_Driver/src/stm32f4xx_rtc.c **** /**
2409:/home/rdu/Workspace/project_templates/mcu/stm32_ws/src/libraries/STM32F4xx_StdPeriph_Driver/src/stm32f4xx_rtc.c ****   * @}
2410:/home/rdu/Workspace/project_templates/mcu/stm32_ws/src/libraries/STM32F4xx_StdPeriph_Driver/src/stm32f4xx_rtc.c ****   */
2411:/home/rdu/Workspace/project_templates/mcu/stm32_ws/src/libraries/STM32F4xx_StdPeriph_Driver/src/stm32f4xx_rtc.c **** 
2412:/home/rdu/Workspace/project_templates/mcu/stm32_ws/src/libraries/STM32F4xx_StdPeriph_Driver/src/stm32f4xx_rtc.c **** /** @defgroup RTC_Group12 Shift control synchronisation functions
2413:/home/rdu/Workspace/project_templates/mcu/stm32_ws/src/libraries/STM32F4xx_StdPeriph_Driver/src/stm32f4xx_rtc.c ****  *  @brief   Shift control synchronisation functions 
2414:/home/rdu/Workspace/project_templates/mcu/stm32_ws/src/libraries/STM32F4xx_StdPeriph_Driver/src/stm32f4xx_rtc.c ****  *
2415:/home/rdu/Workspace/project_templates/mcu/stm32_ws/src/libraries/STM32F4xx_StdPeriph_Driver/src/stm32f4xx_rtc.c **** @verbatim   
2416:/home/rdu/Workspace/project_templates/mcu/stm32_ws/src/libraries/STM32F4xx_StdPeriph_Driver/src/stm32f4xx_rtc.c ****  ===============================================================================
2417:/home/rdu/Workspace/project_templates/mcu/stm32_ws/src/libraries/STM32F4xx_StdPeriph_Driver/src/stm32f4xx_rtc.c ****               ##### Shift control synchronisation functions #####
2418:/home/rdu/Workspace/project_templates/mcu/stm32_ws/src/libraries/STM32F4xx_StdPeriph_Driver/src/stm32f4xx_rtc.c ****  ===============================================================================  
2419:/home/rdu/Workspace/project_templates/mcu/stm32_ws/src/libraries/STM32F4xx_StdPeriph_Driver/src/stm32f4xx_rtc.c **** 
2420:/home/rdu/Workspace/project_templates/mcu/stm32_ws/src/libraries/STM32F4xx_StdPeriph_Driver/src/stm32f4xx_rtc.c **** @endverbatim
2421:/home/rdu/Workspace/project_templates/mcu/stm32_ws/src/libraries/STM32F4xx_StdPeriph_Driver/src/stm32f4xx_rtc.c ****   * @{
2422:/home/rdu/Workspace/project_templates/mcu/stm32_ws/src/libraries/STM32F4xx_StdPeriph_Driver/src/stm32f4xx_rtc.c ****   */
2423:/home/rdu/Workspace/project_templates/mcu/stm32_ws/src/libraries/STM32F4xx_StdPeriph_Driver/src/stm32f4xx_rtc.c **** 
2424:/home/rdu/Workspace/project_templates/mcu/stm32_ws/src/libraries/STM32F4xx_StdPeriph_Driver/src/stm32f4xx_rtc.c **** /**
2425:/home/rdu/Workspace/project_templates/mcu/stm32_ws/src/libraries/STM32F4xx_StdPeriph_Driver/src/stm32f4xx_rtc.c ****   * @brief  Configures the Synchronization Shift Control Settings.
2426:/home/rdu/Workspace/project_templates/mcu/stm32_ws/src/libraries/STM32F4xx_StdPeriph_Driver/src/stm32f4xx_rtc.c ****   * @note   When REFCKON is set, firmware must not write to Shift control register 
2427:/home/rdu/Workspace/project_templates/mcu/stm32_ws/src/libraries/STM32F4xx_StdPeriph_Driver/src/stm32f4xx_rtc.c ****   * @param  RTC_ShiftAdd1S : Select to add or not 1 second to the time Calendar.
2428:/home/rdu/Workspace/project_templates/mcu/stm32_ws/src/libraries/STM32F4xx_StdPeriph_Driver/src/stm32f4xx_rtc.c ****   *   This parameter can be one of the following values :
2429:/home/rdu/Workspace/project_templates/mcu/stm32_ws/src/libraries/STM32F4xx_StdPeriph_Driver/src/stm32f4xx_rtc.c ****   *     @arg RTC_ShiftAdd1S_Set  : Add one second to the clock calendar. 
2430:/home/rdu/Workspace/project_templates/mcu/stm32_ws/src/libraries/STM32F4xx_StdPeriph_Driver/src/stm32f4xx_rtc.c ****   *     @arg RTC_ShiftAdd1S_Reset: No effect.
2431:/home/rdu/Workspace/project_templates/mcu/stm32_ws/src/libraries/STM32F4xx_StdPeriph_Driver/src/stm32f4xx_rtc.c ****   * @param  RTC_ShiftSubFS: Select the number of Second Fractions to Substitute.
2432:/home/rdu/Workspace/project_templates/mcu/stm32_ws/src/libraries/STM32F4xx_StdPeriph_Driver/src/stm32f4xx_rtc.c ****   *         This parameter can be one any value from 0 to 0x7FFF.
2433:/home/rdu/Workspace/project_templates/mcu/stm32_ws/src/libraries/STM32F4xx_StdPeriph_Driver/src/stm32f4xx_rtc.c ****   * @retval An ErrorStatus enumeration value:
2434:/home/rdu/Workspace/project_templates/mcu/stm32_ws/src/libraries/STM32F4xx_StdPeriph_Driver/src/stm32f4xx_rtc.c ****   *          - SUCCESS: RTC Shift registers are configured
2435:/home/rdu/Workspace/project_templates/mcu/stm32_ws/src/libraries/STM32F4xx_StdPeriph_Driver/src/stm32f4xx_rtc.c ****   *          - ERROR: RTC Shift registers are not configured
2436:/home/rdu/Workspace/project_templates/mcu/stm32_ws/src/libraries/STM32F4xx_StdPeriph_Driver/src/stm32f4xx_rtc.c **** */
2437:/home/rdu/Workspace/project_templates/mcu/stm32_ws/src/libraries/STM32F4xx_StdPeriph_Driver/src/stm32f4xx_rtc.c **** ErrorStatus RTC_SynchroShiftConfig(uint32_t RTC_ShiftAdd1S, uint32_t RTC_ShiftSubFS)
2438:/home/rdu/Workspace/project_templates/mcu/stm32_ws/src/libraries/STM32F4xx_StdPeriph_Driver/src/stm32f4xx_rtc.c **** {
 3852              		.loc 1 2438 0
 3853              		.cfi_startproc
 3854              		@ args = 0, pretend = 0, frame = 16
 3855              		@ frame_needed = 0, uses_anonymous_args = 0
 3856 0000 00B5     		push	{lr}
 3857              	.LCFI102:
 3858              		.cfi_def_cfa_offset 4
 3859              		.cfi_offset 14, -4
 3860 0002 85B0     		sub	sp, sp, #20
 3861              	.LCFI103:
 3862              		.cfi_def_cfa_offset 24
 3863 0004 0190     		str	r0, [sp, #4]
 3864 0006 0091     		str	r1, [sp]
2439:/home/rdu/Workspace/project_templates/mcu/stm32_ws/src/libraries/STM32F4xx_StdPeriph_Driver/src/stm32f4xx_rtc.c ****   ErrorStatus status = ERROR;
 3865              		.loc 1 2439 0
 3866 0008 0023     		movs	r3, #0
 3867 000a 8DF80F30 		strb	r3, [sp, #15]
2440:/home/rdu/Workspace/project_templates/mcu/stm32_ws/src/libraries/STM32F4xx_StdPeriph_Driver/src/stm32f4xx_rtc.c ****   uint32_t shpfcount = 0;
 3868              		.loc 1 2440 0
 3869 000e 0023     		movs	r3, #0
 3870 0010 0293     		str	r3, [sp, #8]
2441:/home/rdu/Workspace/project_templates/mcu/stm32_ws/src/libraries/STM32F4xx_StdPeriph_Driver/src/stm32f4xx_rtc.c **** 
2442:/home/rdu/Workspace/project_templates/mcu/stm32_ws/src/libraries/STM32F4xx_StdPeriph_Driver/src/stm32f4xx_rtc.c ****   /* Check the parameters */
2443:/home/rdu/Workspace/project_templates/mcu/stm32_ws/src/libraries/STM32F4xx_StdPeriph_Driver/src/stm32f4xx_rtc.c ****   assert_param(IS_RTC_SHIFT_ADD1S(RTC_ShiftAdd1S));
2444:/home/rdu/Workspace/project_templates/mcu/stm32_ws/src/libraries/STM32F4xx_StdPeriph_Driver/src/stm32f4xx_rtc.c ****   assert_param(IS_RTC_SHIFT_SUBFS(RTC_ShiftSubFS));
2445:/home/rdu/Workspace/project_templates/mcu/stm32_ws/src/libraries/STM32F4xx_StdPeriph_Driver/src/stm32f4xx_rtc.c **** 
2446:/home/rdu/Workspace/project_templates/mcu/stm32_ws/src/libraries/STM32F4xx_StdPeriph_Driver/src/stm32f4xx_rtc.c ****   /* Disable the write protection for RTC registers */
2447:/home/rdu/Workspace/project_templates/mcu/stm32_ws/src/libraries/STM32F4xx_StdPeriph_Driver/src/stm32f4xx_rtc.c ****   RTC->WPR = 0xCA;
 3871              		.loc 1 2447 0
 3872 0012 244B     		ldr	r3, .L277
 3873 0014 CA22     		movs	r2, #202
 3874 0016 5A62     		str	r2, [r3, #36]
2448:/home/rdu/Workspace/project_templates/mcu/stm32_ws/src/libraries/STM32F4xx_StdPeriph_Driver/src/stm32f4xx_rtc.c ****   RTC->WPR = 0x53;
 3875              		.loc 1 2448 0
 3876 0018 224B     		ldr	r3, .L277
 3877 001a 5322     		movs	r2, #83
 3878 001c 5A62     		str	r2, [r3, #36]
2449:/home/rdu/Workspace/project_templates/mcu/stm32_ws/src/libraries/STM32F4xx_StdPeriph_Driver/src/stm32f4xx_rtc.c ****   
2450:/home/rdu/Workspace/project_templates/mcu/stm32_ws/src/libraries/STM32F4xx_StdPeriph_Driver/src/stm32f4xx_rtc.c ****   /* Check if a Shift is pending*/
2451:/home/rdu/Workspace/project_templates/mcu/stm32_ws/src/libraries/STM32F4xx_StdPeriph_Driver/src/stm32f4xx_rtc.c ****   if ((RTC->ISR & RTC_ISR_SHPF) != RESET)
 3879              		.loc 1 2451 0
 3880 001e 214B     		ldr	r3, .L277
 3881 0020 DB68     		ldr	r3, [r3, #12]
 3882 0022 03F00803 		and	r3, r3, #8
 3883 0026 002B     		cmp	r3, #0
 3884 0028 0DD0     		beq	.L267
2452:/home/rdu/Workspace/project_templates/mcu/stm32_ws/src/libraries/STM32F4xx_StdPeriph_Driver/src/stm32f4xx_rtc.c ****   {
2453:/home/rdu/Workspace/project_templates/mcu/stm32_ws/src/libraries/STM32F4xx_StdPeriph_Driver/src/stm32f4xx_rtc.c ****     /* Wait until the shift is completed*/
2454:/home/rdu/Workspace/project_templates/mcu/stm32_ws/src/libraries/STM32F4xx_StdPeriph_Driver/src/stm32f4xx_rtc.c ****     while (((RTC->ISR & RTC_ISR_SHPF) != RESET) && (shpfcount != SHPF_TIMEOUT))
 3885              		.loc 1 2454 0
 3886 002a 02E0     		b	.L268
 3887              	.L269:
2455:/home/rdu/Workspace/project_templates/mcu/stm32_ws/src/libraries/STM32F4xx_StdPeriph_Driver/src/stm32f4xx_rtc.c ****     {
2456:/home/rdu/Workspace/project_templates/mcu/stm32_ws/src/libraries/STM32F4xx_StdPeriph_Driver/src/stm32f4xx_rtc.c ****       shpfcount++;
 3888              		.loc 1 2456 0
 3889 002c 029B     		ldr	r3, [sp, #8]
 3890 002e 0133     		adds	r3, r3, #1
 3891 0030 0293     		str	r3, [sp, #8]
 3892              	.L268:
2454:/home/rdu/Workspace/project_templates/mcu/stm32_ws/src/libraries/STM32F4xx_StdPeriph_Driver/src/stm32f4xx_rtc.c ****     {
 3893              		.loc 1 2454 0
 3894 0032 1C4B     		ldr	r3, .L277
 3895 0034 DB68     		ldr	r3, [r3, #12]
 3896 0036 03F00803 		and	r3, r3, #8
 3897 003a 002B     		cmp	r3, #0
 3898 003c 03D0     		beq	.L267
2454:/home/rdu/Workspace/project_templates/mcu/stm32_ws/src/libraries/STM32F4xx_StdPeriph_Driver/src/stm32f4xx_rtc.c ****     {
 3899              		.loc 1 2454 0 is_stmt 0 discriminator 1
 3900 003e 029B     		ldr	r3, [sp, #8]
 3901 0040 B3F5805F 		cmp	r3, #4096
 3902 0044 F2D1     		bne	.L269
 3903              	.L267:
2457:/home/rdu/Workspace/project_templates/mcu/stm32_ws/src/libraries/STM32F4xx_StdPeriph_Driver/src/stm32f4xx_rtc.c ****     }
2458:/home/rdu/Workspace/project_templates/mcu/stm32_ws/src/libraries/STM32F4xx_StdPeriph_Driver/src/stm32f4xx_rtc.c ****   }
2459:/home/rdu/Workspace/project_templates/mcu/stm32_ws/src/libraries/STM32F4xx_StdPeriph_Driver/src/stm32f4xx_rtc.c **** 
2460:/home/rdu/Workspace/project_templates/mcu/stm32_ws/src/libraries/STM32F4xx_StdPeriph_Driver/src/stm32f4xx_rtc.c ****   /* Check if the Shift pending is completed or if there is no Shift operation at all*/
2461:/home/rdu/Workspace/project_templates/mcu/stm32_ws/src/libraries/STM32F4xx_StdPeriph_Driver/src/stm32f4xx_rtc.c ****   if ((RTC->ISR & RTC_ISR_SHPF) == RESET)
 3904              		.loc 1 2461 0 is_stmt 1
 3905 0046 174B     		ldr	r3, .L277
 3906 0048 DB68     		ldr	r3, [r3, #12]
 3907 004a 03F00803 		and	r3, r3, #8
 3908 004e 002B     		cmp	r3, #0
 3909 0050 1BD1     		bne	.L270
2462:/home/rdu/Workspace/project_templates/mcu/stm32_ws/src/libraries/STM32F4xx_StdPeriph_Driver/src/stm32f4xx_rtc.c ****   {
2463:/home/rdu/Workspace/project_templates/mcu/stm32_ws/src/libraries/STM32F4xx_StdPeriph_Driver/src/stm32f4xx_rtc.c ****     /* check if the reference clock detection is disabled */
2464:/home/rdu/Workspace/project_templates/mcu/stm32_ws/src/libraries/STM32F4xx_StdPeriph_Driver/src/stm32f4xx_rtc.c ****     if((RTC->CR & RTC_CR_REFCKON) == RESET)
 3910              		.loc 1 2464 0
 3911 0052 144B     		ldr	r3, .L277
 3912 0054 9B68     		ldr	r3, [r3, #8]
 3913 0056 03F01003 		and	r3, r3, #16
 3914 005a 002B     		cmp	r3, #0
 3915 005c 11D1     		bne	.L271
2465:/home/rdu/Workspace/project_templates/mcu/stm32_ws/src/libraries/STM32F4xx_StdPeriph_Driver/src/stm32f4xx_rtc.c ****     {
2466:/home/rdu/Workspace/project_templates/mcu/stm32_ws/src/libraries/STM32F4xx_StdPeriph_Driver/src/stm32f4xx_rtc.c ****       /* Configure the Shift settings */
2467:/home/rdu/Workspace/project_templates/mcu/stm32_ws/src/libraries/STM32F4xx_StdPeriph_Driver/src/stm32f4xx_rtc.c ****       RTC->SHIFTR = (uint32_t)(uint32_t)(RTC_ShiftSubFS) | (uint32_t)(RTC_ShiftAdd1S);
 3916              		.loc 1 2467 0
 3917 005e 1149     		ldr	r1, .L277
 3918 0060 009A     		ldr	r2, [sp]
 3919 0062 019B     		ldr	r3, [sp, #4]
 3920 0064 1343     		orrs	r3, r3, r2
 3921 0066 CB62     		str	r3, [r1, #44]
2468:/home/rdu/Workspace/project_templates/mcu/stm32_ws/src/libraries/STM32F4xx_StdPeriph_Driver/src/stm32f4xx_rtc.c ****     
2469:/home/rdu/Workspace/project_templates/mcu/stm32_ws/src/libraries/STM32F4xx_StdPeriph_Driver/src/stm32f4xx_rtc.c ****       if(RTC_WaitForSynchro() == ERROR)
 3922              		.loc 1 2469 0
 3923 0068 FFF7FEFF 		bl	RTC_WaitForSynchro
 3924 006c 0346     		mov	r3, r0
 3925 006e 002B     		cmp	r3, #0
 3926 0070 03D1     		bne	.L272
2470:/home/rdu/Workspace/project_templates/mcu/stm32_ws/src/libraries/STM32F4xx_StdPeriph_Driver/src/stm32f4xx_rtc.c ****       {
2471:/home/rdu/Workspace/project_templates/mcu/stm32_ws/src/libraries/STM32F4xx_StdPeriph_Driver/src/stm32f4xx_rtc.c ****         status = ERROR;
 3927              		.loc 1 2471 0
 3928 0072 0023     		movs	r3, #0
 3929 0074 8DF80F30 		strb	r3, [sp, #15]
 3930 0078 0AE0     		b	.L275
 3931              	.L272:
2472:/home/rdu/Workspace/project_templates/mcu/stm32_ws/src/libraries/STM32F4xx_StdPeriph_Driver/src/stm32f4xx_rtc.c ****       }
2473:/home/rdu/Workspace/project_templates/mcu/stm32_ws/src/libraries/STM32F4xx_StdPeriph_Driver/src/stm32f4xx_rtc.c ****       else
2474:/home/rdu/Workspace/project_templates/mcu/stm32_ws/src/libraries/STM32F4xx_StdPeriph_Driver/src/stm32f4xx_rtc.c ****       {
2475:/home/rdu/Workspace/project_templates/mcu/stm32_ws/src/libraries/STM32F4xx_StdPeriph_Driver/src/stm32f4xx_rtc.c ****         status = SUCCESS;
 3932              		.loc 1 2475 0
 3933 007a 0123     		movs	r3, #1
 3934 007c 8DF80F30 		strb	r3, [sp, #15]
 3935 0080 06E0     		b	.L275
 3936              	.L271:
2476:/home/rdu/Workspace/project_templates/mcu/stm32_ws/src/libraries/STM32F4xx_StdPeriph_Driver/src/stm32f4xx_rtc.c ****       }
2477:/home/rdu/Workspace/project_templates/mcu/stm32_ws/src/libraries/STM32F4xx_StdPeriph_Driver/src/stm32f4xx_rtc.c ****     }
2478:/home/rdu/Workspace/project_templates/mcu/stm32_ws/src/libraries/STM32F4xx_StdPeriph_Driver/src/stm32f4xx_rtc.c ****     else
2479:/home/rdu/Workspace/project_templates/mcu/stm32_ws/src/libraries/STM32F4xx_StdPeriph_Driver/src/stm32f4xx_rtc.c ****     {
2480:/home/rdu/Workspace/project_templates/mcu/stm32_ws/src/libraries/STM32F4xx_StdPeriph_Driver/src/stm32f4xx_rtc.c ****       status = ERROR;
 3937              		.loc 1 2480 0
 3938 0082 0023     		movs	r3, #0
 3939 0084 8DF80F30 		strb	r3, [sp, #15]
 3940 0088 02E0     		b	.L275
 3941              	.L270:
2481:/home/rdu/Workspace/project_templates/mcu/stm32_ws/src/libraries/STM32F4xx_StdPeriph_Driver/src/stm32f4xx_rtc.c ****     }
2482:/home/rdu/Workspace/project_templates/mcu/stm32_ws/src/libraries/STM32F4xx_StdPeriph_Driver/src/stm32f4xx_rtc.c ****   }
2483:/home/rdu/Workspace/project_templates/mcu/stm32_ws/src/libraries/STM32F4xx_StdPeriph_Driver/src/stm32f4xx_rtc.c ****   else
2484:/home/rdu/Workspace/project_templates/mcu/stm32_ws/src/libraries/STM32F4xx_StdPeriph_Driver/src/stm32f4xx_rtc.c ****   {
2485:/home/rdu/Workspace/project_templates/mcu/stm32_ws/src/libraries/STM32F4xx_StdPeriph_Driver/src/stm32f4xx_rtc.c ****     status = ERROR;
 3942              		.loc 1 2485 0
 3943 008a 0023     		movs	r3, #0
 3944 008c 8DF80F30 		strb	r3, [sp, #15]
 3945              	.L275:
2486:/home/rdu/Workspace/project_templates/mcu/stm32_ws/src/libraries/STM32F4xx_StdPeriph_Driver/src/stm32f4xx_rtc.c ****   }
2487:/home/rdu/Workspace/project_templates/mcu/stm32_ws/src/libraries/STM32F4xx_StdPeriph_Driver/src/stm32f4xx_rtc.c **** 
2488:/home/rdu/Workspace/project_templates/mcu/stm32_ws/src/libraries/STM32F4xx_StdPeriph_Driver/src/stm32f4xx_rtc.c ****   /* Enable the write protection for RTC registers */
2489:/home/rdu/Workspace/project_templates/mcu/stm32_ws/src/libraries/STM32F4xx_StdPeriph_Driver/src/stm32f4xx_rtc.c ****   RTC->WPR = 0xFF;
 3946              		.loc 1 2489 0
 3947 0090 044B     		ldr	r3, .L277
 3948 0092 FF22     		movs	r2, #255
 3949 0094 5A62     		str	r2, [r3, #36]
2490:/home/rdu/Workspace/project_templates/mcu/stm32_ws/src/libraries/STM32F4xx_StdPeriph_Driver/src/stm32f4xx_rtc.c ****   
2491:/home/rdu/Workspace/project_templates/mcu/stm32_ws/src/libraries/STM32F4xx_StdPeriph_Driver/src/stm32f4xx_rtc.c ****   return (ErrorStatus)(status);
 3950              		.loc 1 2491 0
 3951 0096 9DF80F30 		ldrb	r3, [sp, #15]	@ zero_extendqisi2
2492:/home/rdu/Workspace/project_templates/mcu/stm32_ws/src/libraries/STM32F4xx_StdPeriph_Driver/src/stm32f4xx_rtc.c **** }
 3952              		.loc 1 2492 0
 3953 009a 1846     		mov	r0, r3
 3954 009c 05B0     		add	sp, sp, #20
 3955              	.LCFI104:
 3956              		.cfi_def_cfa_offset 4
 3957              		@ sp needed
 3958 009e 5DF804FB 		ldr	pc, [sp], #4
 3959              	.L278:
 3960 00a2 00BF     		.align	2
 3961              	.L277:
 3962 00a4 00280040 		.word	1073752064
 3963              		.cfi_endproc
 3964              	.LFE172:
 3966              		.section	.text.RTC_ITConfig,"ax",%progbits
 3967              		.align	1
 3968              		.global	RTC_ITConfig
 3969              		.syntax unified
 3970              		.thumb
 3971              		.thumb_func
 3972              		.fpu fpv4-sp-d16
 3974              	RTC_ITConfig:
 3975              	.LFB173:
2493:/home/rdu/Workspace/project_templates/mcu/stm32_ws/src/libraries/STM32F4xx_StdPeriph_Driver/src/stm32f4xx_rtc.c **** 
2494:/home/rdu/Workspace/project_templates/mcu/stm32_ws/src/libraries/STM32F4xx_StdPeriph_Driver/src/stm32f4xx_rtc.c **** /**
2495:/home/rdu/Workspace/project_templates/mcu/stm32_ws/src/libraries/STM32F4xx_StdPeriph_Driver/src/stm32f4xx_rtc.c ****   * @}
2496:/home/rdu/Workspace/project_templates/mcu/stm32_ws/src/libraries/STM32F4xx_StdPeriph_Driver/src/stm32f4xx_rtc.c ****   */
2497:/home/rdu/Workspace/project_templates/mcu/stm32_ws/src/libraries/STM32F4xx_StdPeriph_Driver/src/stm32f4xx_rtc.c **** 
2498:/home/rdu/Workspace/project_templates/mcu/stm32_ws/src/libraries/STM32F4xx_StdPeriph_Driver/src/stm32f4xx_rtc.c **** /** @defgroup RTC_Group13 Interrupts and flags management functions
2499:/home/rdu/Workspace/project_templates/mcu/stm32_ws/src/libraries/STM32F4xx_StdPeriph_Driver/src/stm32f4xx_rtc.c ****  *  @brief   Interrupts and flags management functions  
2500:/home/rdu/Workspace/project_templates/mcu/stm32_ws/src/libraries/STM32F4xx_StdPeriph_Driver/src/stm32f4xx_rtc.c ****  *
2501:/home/rdu/Workspace/project_templates/mcu/stm32_ws/src/libraries/STM32F4xx_StdPeriph_Driver/src/stm32f4xx_rtc.c **** @verbatim   
2502:/home/rdu/Workspace/project_templates/mcu/stm32_ws/src/libraries/STM32F4xx_StdPeriph_Driver/src/stm32f4xx_rtc.c ****  ===============================================================================
2503:/home/rdu/Workspace/project_templates/mcu/stm32_ws/src/libraries/STM32F4xx_StdPeriph_Driver/src/stm32f4xx_rtc.c ****               ##### Interrupts and flags management functions #####
2504:/home/rdu/Workspace/project_templates/mcu/stm32_ws/src/libraries/STM32F4xx_StdPeriph_Driver/src/stm32f4xx_rtc.c ****  ===============================================================================  
2505:/home/rdu/Workspace/project_templates/mcu/stm32_ws/src/libraries/STM32F4xx_StdPeriph_Driver/src/stm32f4xx_rtc.c ****  [..] All RTC interrupts are connected to the EXTI controller.
2506:/home/rdu/Workspace/project_templates/mcu/stm32_ws/src/libraries/STM32F4xx_StdPeriph_Driver/src/stm32f4xx_rtc.c ****  
2507:/home/rdu/Workspace/project_templates/mcu/stm32_ws/src/libraries/STM32F4xx_StdPeriph_Driver/src/stm32f4xx_rtc.c ****    (+) To enable the RTC Alarm interrupt, the following sequence is required:
2508:/home/rdu/Workspace/project_templates/mcu/stm32_ws/src/libraries/STM32F4xx_StdPeriph_Driver/src/stm32f4xx_rtc.c ****        (++) Configure and enable the EXTI Line 17 in interrupt mode and select 
2509:/home/rdu/Workspace/project_templates/mcu/stm32_ws/src/libraries/STM32F4xx_StdPeriph_Driver/src/stm32f4xx_rtc.c ****             the rising edge sensitivity using the EXTI_Init() function.
2510:/home/rdu/Workspace/project_templates/mcu/stm32_ws/src/libraries/STM32F4xx_StdPeriph_Driver/src/stm32f4xx_rtc.c ****        (++) Configure and enable the RTC_Alarm IRQ channel in the NVIC using the 
2511:/home/rdu/Workspace/project_templates/mcu/stm32_ws/src/libraries/STM32F4xx_StdPeriph_Driver/src/stm32f4xx_rtc.c ****             NVIC_Init() function.
2512:/home/rdu/Workspace/project_templates/mcu/stm32_ws/src/libraries/STM32F4xx_StdPeriph_Driver/src/stm32f4xx_rtc.c ****        (++) Configure the RTC to generate RTC alarms (Alarm A and/or Alarm B) using
2513:/home/rdu/Workspace/project_templates/mcu/stm32_ws/src/libraries/STM32F4xx_StdPeriph_Driver/src/stm32f4xx_rtc.c ****             the RTC_SetAlarm() and RTC_AlarmCmd() functions.
2514:/home/rdu/Workspace/project_templates/mcu/stm32_ws/src/libraries/STM32F4xx_StdPeriph_Driver/src/stm32f4xx_rtc.c **** 
2515:/home/rdu/Workspace/project_templates/mcu/stm32_ws/src/libraries/STM32F4xx_StdPeriph_Driver/src/stm32f4xx_rtc.c ****    (+) To enable the RTC Wakeup interrupt, the following sequence is required:
2516:/home/rdu/Workspace/project_templates/mcu/stm32_ws/src/libraries/STM32F4xx_StdPeriph_Driver/src/stm32f4xx_rtc.c ****        (++) Configure and enable the EXTI Line 22 in interrupt mode and select the
2517:/home/rdu/Workspace/project_templates/mcu/stm32_ws/src/libraries/STM32F4xx_StdPeriph_Driver/src/stm32f4xx_rtc.c ****             rising edge sensitivity using the EXTI_Init() function.
2518:/home/rdu/Workspace/project_templates/mcu/stm32_ws/src/libraries/STM32F4xx_StdPeriph_Driver/src/stm32f4xx_rtc.c ****        (++) Configure and enable the RTC_WKUP IRQ channel in the NVIC using the 
2519:/home/rdu/Workspace/project_templates/mcu/stm32_ws/src/libraries/STM32F4xx_StdPeriph_Driver/src/stm32f4xx_rtc.c ****             NVIC_Init() function.
2520:/home/rdu/Workspace/project_templates/mcu/stm32_ws/src/libraries/STM32F4xx_StdPeriph_Driver/src/stm32f4xx_rtc.c ****        (++) Configure the RTC to generate the RTC wakeup timer event using the 
2521:/home/rdu/Workspace/project_templates/mcu/stm32_ws/src/libraries/STM32F4xx_StdPeriph_Driver/src/stm32f4xx_rtc.c ****             RTC_WakeUpClockConfig(), RTC_SetWakeUpCounter() and RTC_WakeUpCmd() 
2522:/home/rdu/Workspace/project_templates/mcu/stm32_ws/src/libraries/STM32F4xx_StdPeriph_Driver/src/stm32f4xx_rtc.c ****             functions.
2523:/home/rdu/Workspace/project_templates/mcu/stm32_ws/src/libraries/STM32F4xx_StdPeriph_Driver/src/stm32f4xx_rtc.c **** 
2524:/home/rdu/Workspace/project_templates/mcu/stm32_ws/src/libraries/STM32F4xx_StdPeriph_Driver/src/stm32f4xx_rtc.c ****    (+) To enable the RTC Tamper interrupt, the following sequence is required:
2525:/home/rdu/Workspace/project_templates/mcu/stm32_ws/src/libraries/STM32F4xx_StdPeriph_Driver/src/stm32f4xx_rtc.c ****        (++) Configure and enable the EXTI Line 21 in interrupt mode and select 
2526:/home/rdu/Workspace/project_templates/mcu/stm32_ws/src/libraries/STM32F4xx_StdPeriph_Driver/src/stm32f4xx_rtc.c ****             the rising edge sensitivity using the EXTI_Init() function.
2527:/home/rdu/Workspace/project_templates/mcu/stm32_ws/src/libraries/STM32F4xx_StdPeriph_Driver/src/stm32f4xx_rtc.c ****        (++) Configure and enable the TAMP_STAMP IRQ channel in the NVIC using the
2528:/home/rdu/Workspace/project_templates/mcu/stm32_ws/src/libraries/STM32F4xx_StdPeriph_Driver/src/stm32f4xx_rtc.c ****             NVIC_Init() function.
2529:/home/rdu/Workspace/project_templates/mcu/stm32_ws/src/libraries/STM32F4xx_StdPeriph_Driver/src/stm32f4xx_rtc.c ****        (++) Configure the RTC to detect the RTC tamper event using the 
2530:/home/rdu/Workspace/project_templates/mcu/stm32_ws/src/libraries/STM32F4xx_StdPeriph_Driver/src/stm32f4xx_rtc.c ****             RTC_TamperTriggerConfig() and RTC_TamperCmd() functions.
2531:/home/rdu/Workspace/project_templates/mcu/stm32_ws/src/libraries/STM32F4xx_StdPeriph_Driver/src/stm32f4xx_rtc.c **** 
2532:/home/rdu/Workspace/project_templates/mcu/stm32_ws/src/libraries/STM32F4xx_StdPeriph_Driver/src/stm32f4xx_rtc.c ****    (+) To enable the RTC TimeStamp interrupt, the following sequence is required:
2533:/home/rdu/Workspace/project_templates/mcu/stm32_ws/src/libraries/STM32F4xx_StdPeriph_Driver/src/stm32f4xx_rtc.c ****        (++) Configure and enable the EXTI Line 21 in interrupt mode and select the
2534:/home/rdu/Workspace/project_templates/mcu/stm32_ws/src/libraries/STM32F4xx_StdPeriph_Driver/src/stm32f4xx_rtc.c ****             rising edge sensitivity using the EXTI_Init() function.
2535:/home/rdu/Workspace/project_templates/mcu/stm32_ws/src/libraries/STM32F4xx_StdPeriph_Driver/src/stm32f4xx_rtc.c ****        (++) Configure and enable the TAMP_STAMP IRQ channel in the NVIC using the 
2536:/home/rdu/Workspace/project_templates/mcu/stm32_ws/src/libraries/STM32F4xx_StdPeriph_Driver/src/stm32f4xx_rtc.c ****             NVIC_Init() function.
2537:/home/rdu/Workspace/project_templates/mcu/stm32_ws/src/libraries/STM32F4xx_StdPeriph_Driver/src/stm32f4xx_rtc.c ****        (++) Configure the RTC to detect the RTC time stamp event using the 
2538:/home/rdu/Workspace/project_templates/mcu/stm32_ws/src/libraries/STM32F4xx_StdPeriph_Driver/src/stm32f4xx_rtc.c ****             RTC_TimeStampCmd() functions.
2539:/home/rdu/Workspace/project_templates/mcu/stm32_ws/src/libraries/STM32F4xx_StdPeriph_Driver/src/stm32f4xx_rtc.c **** 
2540:/home/rdu/Workspace/project_templates/mcu/stm32_ws/src/libraries/STM32F4xx_StdPeriph_Driver/src/stm32f4xx_rtc.c **** @endverbatim
2541:/home/rdu/Workspace/project_templates/mcu/stm32_ws/src/libraries/STM32F4xx_StdPeriph_Driver/src/stm32f4xx_rtc.c ****   * @{
2542:/home/rdu/Workspace/project_templates/mcu/stm32_ws/src/libraries/STM32F4xx_StdPeriph_Driver/src/stm32f4xx_rtc.c ****   */
2543:/home/rdu/Workspace/project_templates/mcu/stm32_ws/src/libraries/STM32F4xx_StdPeriph_Driver/src/stm32f4xx_rtc.c **** 
2544:/home/rdu/Workspace/project_templates/mcu/stm32_ws/src/libraries/STM32F4xx_StdPeriph_Driver/src/stm32f4xx_rtc.c **** /**
2545:/home/rdu/Workspace/project_templates/mcu/stm32_ws/src/libraries/STM32F4xx_StdPeriph_Driver/src/stm32f4xx_rtc.c ****   * @brief  Enables or disables the specified RTC interrupts.
2546:/home/rdu/Workspace/project_templates/mcu/stm32_ws/src/libraries/STM32F4xx_StdPeriph_Driver/src/stm32f4xx_rtc.c ****   * @param  RTC_IT: specifies the RTC interrupt sources to be enabled or disabled. 
2547:/home/rdu/Workspace/project_templates/mcu/stm32_ws/src/libraries/STM32F4xx_StdPeriph_Driver/src/stm32f4xx_rtc.c ****   *          This parameter can be any combination of the following values:
2548:/home/rdu/Workspace/project_templates/mcu/stm32_ws/src/libraries/STM32F4xx_StdPeriph_Driver/src/stm32f4xx_rtc.c ****   *            @arg RTC_IT_TS:  Time Stamp interrupt mask
2549:/home/rdu/Workspace/project_templates/mcu/stm32_ws/src/libraries/STM32F4xx_StdPeriph_Driver/src/stm32f4xx_rtc.c ****   *            @arg RTC_IT_WUT:  WakeUp Timer interrupt mask
2550:/home/rdu/Workspace/project_templates/mcu/stm32_ws/src/libraries/STM32F4xx_StdPeriph_Driver/src/stm32f4xx_rtc.c ****   *            @arg RTC_IT_ALRB:  Alarm B interrupt mask
2551:/home/rdu/Workspace/project_templates/mcu/stm32_ws/src/libraries/STM32F4xx_StdPeriph_Driver/src/stm32f4xx_rtc.c ****   *            @arg RTC_IT_ALRA:  Alarm A interrupt mask
2552:/home/rdu/Workspace/project_templates/mcu/stm32_ws/src/libraries/STM32F4xx_StdPeriph_Driver/src/stm32f4xx_rtc.c ****   *            @arg RTC_IT_TAMP: Tamper event interrupt mask
2553:/home/rdu/Workspace/project_templates/mcu/stm32_ws/src/libraries/STM32F4xx_StdPeriph_Driver/src/stm32f4xx_rtc.c ****   * @param  NewState: new state of the specified RTC interrupts.
2554:/home/rdu/Workspace/project_templates/mcu/stm32_ws/src/libraries/STM32F4xx_StdPeriph_Driver/src/stm32f4xx_rtc.c ****   *          This parameter can be: ENABLE or DISABLE.
2555:/home/rdu/Workspace/project_templates/mcu/stm32_ws/src/libraries/STM32F4xx_StdPeriph_Driver/src/stm32f4xx_rtc.c ****   * @retval None
2556:/home/rdu/Workspace/project_templates/mcu/stm32_ws/src/libraries/STM32F4xx_StdPeriph_Driver/src/stm32f4xx_rtc.c ****   */
2557:/home/rdu/Workspace/project_templates/mcu/stm32_ws/src/libraries/STM32F4xx_StdPeriph_Driver/src/stm32f4xx_rtc.c **** void RTC_ITConfig(uint32_t RTC_IT, FunctionalState NewState)
2558:/home/rdu/Workspace/project_templates/mcu/stm32_ws/src/libraries/STM32F4xx_StdPeriph_Driver/src/stm32f4xx_rtc.c **** {
 3976              		.loc 1 2558 0
 3977              		.cfi_startproc
 3978              		@ args = 0, pretend = 0, frame = 8
 3979              		@ frame_needed = 0, uses_anonymous_args = 0
 3980              		@ link register save eliminated.
 3981 0000 82B0     		sub	sp, sp, #8
 3982              	.LCFI105:
 3983              		.cfi_def_cfa_offset 8
 3984 0002 0190     		str	r0, [sp, #4]
 3985 0004 0B46     		mov	r3, r1
 3986 0006 8DF80330 		strb	r3, [sp, #3]
2559:/home/rdu/Workspace/project_templates/mcu/stm32_ws/src/libraries/STM32F4xx_StdPeriph_Driver/src/stm32f4xx_rtc.c ****   /* Check the parameters */
2560:/home/rdu/Workspace/project_templates/mcu/stm32_ws/src/libraries/STM32F4xx_StdPeriph_Driver/src/stm32f4xx_rtc.c ****   assert_param(IS_RTC_CONFIG_IT(RTC_IT));
2561:/home/rdu/Workspace/project_templates/mcu/stm32_ws/src/libraries/STM32F4xx_StdPeriph_Driver/src/stm32f4xx_rtc.c ****   assert_param(IS_FUNCTIONAL_STATE(NewState));
2562:/home/rdu/Workspace/project_templates/mcu/stm32_ws/src/libraries/STM32F4xx_StdPeriph_Driver/src/stm32f4xx_rtc.c **** 
2563:/home/rdu/Workspace/project_templates/mcu/stm32_ws/src/libraries/STM32F4xx_StdPeriph_Driver/src/stm32f4xx_rtc.c ****   /* Disable the write protection for RTC registers */
2564:/home/rdu/Workspace/project_templates/mcu/stm32_ws/src/libraries/STM32F4xx_StdPeriph_Driver/src/stm32f4xx_rtc.c ****   RTC->WPR = 0xCA;
 3987              		.loc 1 2564 0
 3988 000a 194B     		ldr	r3, .L282
 3989 000c CA22     		movs	r2, #202
 3990 000e 5A62     		str	r2, [r3, #36]
2565:/home/rdu/Workspace/project_templates/mcu/stm32_ws/src/libraries/STM32F4xx_StdPeriph_Driver/src/stm32f4xx_rtc.c ****   RTC->WPR = 0x53;
 3991              		.loc 1 2565 0
 3992 0010 174B     		ldr	r3, .L282
 3993 0012 5322     		movs	r2, #83
 3994 0014 5A62     		str	r2, [r3, #36]
2566:/home/rdu/Workspace/project_templates/mcu/stm32_ws/src/libraries/STM32F4xx_StdPeriph_Driver/src/stm32f4xx_rtc.c **** 
2567:/home/rdu/Workspace/project_templates/mcu/stm32_ws/src/libraries/STM32F4xx_StdPeriph_Driver/src/stm32f4xx_rtc.c ****   if (NewState != DISABLE)
 3995              		.loc 1 2567 0
 3996 0016 9DF80330 		ldrb	r3, [sp, #3]	@ zero_extendqisi2
 3997 001a 002B     		cmp	r3, #0
 3998 001c 10D0     		beq	.L280
2568:/home/rdu/Workspace/project_templates/mcu/stm32_ws/src/libraries/STM32F4xx_StdPeriph_Driver/src/stm32f4xx_rtc.c ****   {
2569:/home/rdu/Workspace/project_templates/mcu/stm32_ws/src/libraries/STM32F4xx_StdPeriph_Driver/src/stm32f4xx_rtc.c ****     /* Configure the Interrupts in the RTC_CR register */
2570:/home/rdu/Workspace/project_templates/mcu/stm32_ws/src/libraries/STM32F4xx_StdPeriph_Driver/src/stm32f4xx_rtc.c ****     RTC->CR |= (uint32_t)(RTC_IT & ~RTC_TAFCR_TAMPIE);
 3999              		.loc 1 2570 0
 4000 001e 144B     		ldr	r3, .L282
 4001 0020 9A68     		ldr	r2, [r3, #8]
 4002 0022 019B     		ldr	r3, [sp, #4]
 4003 0024 23F00403 		bic	r3, r3, #4
 4004 0028 1149     		ldr	r1, .L282
 4005 002a 1343     		orrs	r3, r3, r2
 4006 002c 8B60     		str	r3, [r1, #8]
2571:/home/rdu/Workspace/project_templates/mcu/stm32_ws/src/libraries/STM32F4xx_StdPeriph_Driver/src/stm32f4xx_rtc.c ****     /* Configure the Tamper Interrupt in the RTC_TAFCR */
2572:/home/rdu/Workspace/project_templates/mcu/stm32_ws/src/libraries/STM32F4xx_StdPeriph_Driver/src/stm32f4xx_rtc.c ****     RTC->TAFCR |= (uint32_t)(RTC_IT & RTC_TAFCR_TAMPIE);
 4007              		.loc 1 2572 0
 4008 002e 104B     		ldr	r3, .L282
 4009 0030 1A6C     		ldr	r2, [r3, #64]
 4010 0032 019B     		ldr	r3, [sp, #4]
 4011 0034 03F00403 		and	r3, r3, #4
 4012 0038 0D49     		ldr	r1, .L282
 4013 003a 1343     		orrs	r3, r3, r2
 4014 003c 0B64     		str	r3, [r1, #64]
 4015 003e 11E0     		b	.L281
 4016              	.L280:
2573:/home/rdu/Workspace/project_templates/mcu/stm32_ws/src/libraries/STM32F4xx_StdPeriph_Driver/src/stm32f4xx_rtc.c ****   }
2574:/home/rdu/Workspace/project_templates/mcu/stm32_ws/src/libraries/STM32F4xx_StdPeriph_Driver/src/stm32f4xx_rtc.c ****   else
2575:/home/rdu/Workspace/project_templates/mcu/stm32_ws/src/libraries/STM32F4xx_StdPeriph_Driver/src/stm32f4xx_rtc.c ****   {
2576:/home/rdu/Workspace/project_templates/mcu/stm32_ws/src/libraries/STM32F4xx_StdPeriph_Driver/src/stm32f4xx_rtc.c ****     /* Configure the Interrupts in the RTC_CR register */
2577:/home/rdu/Workspace/project_templates/mcu/stm32_ws/src/libraries/STM32F4xx_StdPeriph_Driver/src/stm32f4xx_rtc.c ****     RTC->CR &= (uint32_t)~(RTC_IT & (uint32_t)~RTC_TAFCR_TAMPIE);
 4017              		.loc 1 2577 0
 4018 0040 0B4B     		ldr	r3, .L282
 4019 0042 9A68     		ldr	r2, [r3, #8]
 4020 0044 019B     		ldr	r3, [sp, #4]
 4021 0046 23F00403 		bic	r3, r3, #4
 4022 004a DB43     		mvns	r3, r3
 4023 004c 0849     		ldr	r1, .L282
 4024 004e 1340     		ands	r3, r3, r2
 4025 0050 8B60     		str	r3, [r1, #8]
2578:/home/rdu/Workspace/project_templates/mcu/stm32_ws/src/libraries/STM32F4xx_StdPeriph_Driver/src/stm32f4xx_rtc.c ****     /* Configure the Tamper Interrupt in the RTC_TAFCR */
2579:/home/rdu/Workspace/project_templates/mcu/stm32_ws/src/libraries/STM32F4xx_StdPeriph_Driver/src/stm32f4xx_rtc.c ****     RTC->TAFCR &= (uint32_t)~(RTC_IT & RTC_TAFCR_TAMPIE);
 4026              		.loc 1 2579 0
 4027 0052 074B     		ldr	r3, .L282
 4028 0054 1A6C     		ldr	r2, [r3, #64]
 4029 0056 019B     		ldr	r3, [sp, #4]
 4030 0058 03F00403 		and	r3, r3, #4
 4031 005c DB43     		mvns	r3, r3
 4032 005e 0449     		ldr	r1, .L282
 4033 0060 1340     		ands	r3, r3, r2
 4034 0062 0B64     		str	r3, [r1, #64]
 4035              	.L281:
2580:/home/rdu/Workspace/project_templates/mcu/stm32_ws/src/libraries/STM32F4xx_StdPeriph_Driver/src/stm32f4xx_rtc.c ****   }
2581:/home/rdu/Workspace/project_templates/mcu/stm32_ws/src/libraries/STM32F4xx_StdPeriph_Driver/src/stm32f4xx_rtc.c ****   /* Enable the write protection for RTC registers */
2582:/home/rdu/Workspace/project_templates/mcu/stm32_ws/src/libraries/STM32F4xx_StdPeriph_Driver/src/stm32f4xx_rtc.c ****   RTC->WPR = 0xFF; 
 4036              		.loc 1 2582 0
 4037 0064 024B     		ldr	r3, .L282
 4038 0066 FF22     		movs	r2, #255
 4039 0068 5A62     		str	r2, [r3, #36]
2583:/home/rdu/Workspace/project_templates/mcu/stm32_ws/src/libraries/STM32F4xx_StdPeriph_Driver/src/stm32f4xx_rtc.c **** }
 4040              		.loc 1 2583 0
 4041 006a 00BF     		nop
 4042 006c 02B0     		add	sp, sp, #8
 4043              	.LCFI106:
 4044              		.cfi_def_cfa_offset 0
 4045              		@ sp needed
 4046 006e 7047     		bx	lr
 4047              	.L283:
 4048              		.align	2
 4049              	.L282:
 4050 0070 00280040 		.word	1073752064
 4051              		.cfi_endproc
 4052              	.LFE173:
 4054              		.section	.text.RTC_GetFlagStatus,"ax",%progbits
 4055              		.align	1
 4056              		.global	RTC_GetFlagStatus
 4057              		.syntax unified
 4058              		.thumb
 4059              		.thumb_func
 4060              		.fpu fpv4-sp-d16
 4062              	RTC_GetFlagStatus:
 4063              	.LFB174:
2584:/home/rdu/Workspace/project_templates/mcu/stm32_ws/src/libraries/STM32F4xx_StdPeriph_Driver/src/stm32f4xx_rtc.c **** 
2585:/home/rdu/Workspace/project_templates/mcu/stm32_ws/src/libraries/STM32F4xx_StdPeriph_Driver/src/stm32f4xx_rtc.c **** /**
2586:/home/rdu/Workspace/project_templates/mcu/stm32_ws/src/libraries/STM32F4xx_StdPeriph_Driver/src/stm32f4xx_rtc.c ****   * @brief  Checks whether the specified RTC flag is set or not.
2587:/home/rdu/Workspace/project_templates/mcu/stm32_ws/src/libraries/STM32F4xx_StdPeriph_Driver/src/stm32f4xx_rtc.c ****   * @param  RTC_FLAG: specifies the flag to check.
2588:/home/rdu/Workspace/project_templates/mcu/stm32_ws/src/libraries/STM32F4xx_StdPeriph_Driver/src/stm32f4xx_rtc.c ****   *          This parameter can be one of the following values:
2589:/home/rdu/Workspace/project_templates/mcu/stm32_ws/src/libraries/STM32F4xx_StdPeriph_Driver/src/stm32f4xx_rtc.c ****   *            @arg RTC_FLAG_RECALPF: RECALPF event flag.
2590:/home/rdu/Workspace/project_templates/mcu/stm32_ws/src/libraries/STM32F4xx_StdPeriph_Driver/src/stm32f4xx_rtc.c ****   *            @arg RTC_FLAG_TAMP1F: Tamper 1 event flag
2591:/home/rdu/Workspace/project_templates/mcu/stm32_ws/src/libraries/STM32F4xx_StdPeriph_Driver/src/stm32f4xx_rtc.c ****   *            @arg RTC_FLAG_TAMP2F: Tamper 2 event flag
2592:/home/rdu/Workspace/project_templates/mcu/stm32_ws/src/libraries/STM32F4xx_StdPeriph_Driver/src/stm32f4xx_rtc.c ****   *            @arg RTC_FLAG_TSOVF: Time Stamp OverFlow flag
2593:/home/rdu/Workspace/project_templates/mcu/stm32_ws/src/libraries/STM32F4xx_StdPeriph_Driver/src/stm32f4xx_rtc.c ****   *            @arg RTC_FLAG_TSF: Time Stamp event flag
2594:/home/rdu/Workspace/project_templates/mcu/stm32_ws/src/libraries/STM32F4xx_StdPeriph_Driver/src/stm32f4xx_rtc.c ****   *            @arg RTC_FLAG_WUTF: WakeUp Timer flag
2595:/home/rdu/Workspace/project_templates/mcu/stm32_ws/src/libraries/STM32F4xx_StdPeriph_Driver/src/stm32f4xx_rtc.c ****   *            @arg RTC_FLAG_ALRBF: Alarm B flag
2596:/home/rdu/Workspace/project_templates/mcu/stm32_ws/src/libraries/STM32F4xx_StdPeriph_Driver/src/stm32f4xx_rtc.c ****   *            @arg RTC_FLAG_ALRAF: Alarm A flag
2597:/home/rdu/Workspace/project_templates/mcu/stm32_ws/src/libraries/STM32F4xx_StdPeriph_Driver/src/stm32f4xx_rtc.c ****   *            @arg RTC_FLAG_INITF: Initialization mode flag
2598:/home/rdu/Workspace/project_templates/mcu/stm32_ws/src/libraries/STM32F4xx_StdPeriph_Driver/src/stm32f4xx_rtc.c ****   *            @arg RTC_FLAG_RSF: Registers Synchronized flag
2599:/home/rdu/Workspace/project_templates/mcu/stm32_ws/src/libraries/STM32F4xx_StdPeriph_Driver/src/stm32f4xx_rtc.c ****   *            @arg RTC_FLAG_INITS: Registers Configured flag
2600:/home/rdu/Workspace/project_templates/mcu/stm32_ws/src/libraries/STM32F4xx_StdPeriph_Driver/src/stm32f4xx_rtc.c ****   *            @arg RTC_FLAG_SHPF: Shift operation pending flag.
2601:/home/rdu/Workspace/project_templates/mcu/stm32_ws/src/libraries/STM32F4xx_StdPeriph_Driver/src/stm32f4xx_rtc.c ****   *            @arg RTC_FLAG_WUTWF: WakeUp Timer Write flag
2602:/home/rdu/Workspace/project_templates/mcu/stm32_ws/src/libraries/STM32F4xx_StdPeriph_Driver/src/stm32f4xx_rtc.c ****   *            @arg RTC_FLAG_ALRBWF: Alarm B Write flag
2603:/home/rdu/Workspace/project_templates/mcu/stm32_ws/src/libraries/STM32F4xx_StdPeriph_Driver/src/stm32f4xx_rtc.c ****   *            @arg RTC_FLAG_ALRAWF: Alarm A write flag
2604:/home/rdu/Workspace/project_templates/mcu/stm32_ws/src/libraries/STM32F4xx_StdPeriph_Driver/src/stm32f4xx_rtc.c ****   * @retval The new state of RTC_FLAG (SET or RESET).
2605:/home/rdu/Workspace/project_templates/mcu/stm32_ws/src/libraries/STM32F4xx_StdPeriph_Driver/src/stm32f4xx_rtc.c ****   */
2606:/home/rdu/Workspace/project_templates/mcu/stm32_ws/src/libraries/STM32F4xx_StdPeriph_Driver/src/stm32f4xx_rtc.c **** FlagStatus RTC_GetFlagStatus(uint32_t RTC_FLAG)
2607:/home/rdu/Workspace/project_templates/mcu/stm32_ws/src/libraries/STM32F4xx_StdPeriph_Driver/src/stm32f4xx_rtc.c **** {
 4064              		.loc 1 2607 0
 4065              		.cfi_startproc
 4066              		@ args = 0, pretend = 0, frame = 16
 4067              		@ frame_needed = 0, uses_anonymous_args = 0
 4068              		@ link register save eliminated.
 4069 0000 84B0     		sub	sp, sp, #16
 4070              	.LCFI107:
 4071              		.cfi_def_cfa_offset 16
 4072 0002 0190     		str	r0, [sp, #4]
2608:/home/rdu/Workspace/project_templates/mcu/stm32_ws/src/libraries/STM32F4xx_StdPeriph_Driver/src/stm32f4xx_rtc.c ****   FlagStatus bitstatus = RESET;
 4073              		.loc 1 2608 0
 4074 0004 0023     		movs	r3, #0
 4075 0006 8DF80F30 		strb	r3, [sp, #15]
2609:/home/rdu/Workspace/project_templates/mcu/stm32_ws/src/libraries/STM32F4xx_StdPeriph_Driver/src/stm32f4xx_rtc.c ****   uint32_t tmpreg = 0;
 4076              		.loc 1 2609 0
 4077 000a 0023     		movs	r3, #0
 4078 000c 0293     		str	r3, [sp, #8]
2610:/home/rdu/Workspace/project_templates/mcu/stm32_ws/src/libraries/STM32F4xx_StdPeriph_Driver/src/stm32f4xx_rtc.c ****   
2611:/home/rdu/Workspace/project_templates/mcu/stm32_ws/src/libraries/STM32F4xx_StdPeriph_Driver/src/stm32f4xx_rtc.c ****   /* Check the parameters */
2612:/home/rdu/Workspace/project_templates/mcu/stm32_ws/src/libraries/STM32F4xx_StdPeriph_Driver/src/stm32f4xx_rtc.c ****   assert_param(IS_RTC_GET_FLAG(RTC_FLAG));
2613:/home/rdu/Workspace/project_templates/mcu/stm32_ws/src/libraries/STM32F4xx_StdPeriph_Driver/src/stm32f4xx_rtc.c ****   
2614:/home/rdu/Workspace/project_templates/mcu/stm32_ws/src/libraries/STM32F4xx_StdPeriph_Driver/src/stm32f4xx_rtc.c ****   /* Get all the flags */
2615:/home/rdu/Workspace/project_templates/mcu/stm32_ws/src/libraries/STM32F4xx_StdPeriph_Driver/src/stm32f4xx_rtc.c ****   tmpreg = (uint32_t)(RTC->ISR & RTC_FLAGS_MASK);
 4079              		.loc 1 2615 0
 4080 000e 0B4B     		ldr	r3, .L288
 4081 0010 DA68     		ldr	r2, [r3, #12]
 4082 0012 0B4B     		ldr	r3, .L288+4
 4083 0014 1340     		ands	r3, r3, r2
 4084 0016 0293     		str	r3, [sp, #8]
2616:/home/rdu/Workspace/project_templates/mcu/stm32_ws/src/libraries/STM32F4xx_StdPeriph_Driver/src/stm32f4xx_rtc.c ****   
2617:/home/rdu/Workspace/project_templates/mcu/stm32_ws/src/libraries/STM32F4xx_StdPeriph_Driver/src/stm32f4xx_rtc.c ****   /* Return the status of the flag */
2618:/home/rdu/Workspace/project_templates/mcu/stm32_ws/src/libraries/STM32F4xx_StdPeriph_Driver/src/stm32f4xx_rtc.c ****   if ((tmpreg & RTC_FLAG) != (uint32_t)RESET)
 4085              		.loc 1 2618 0
 4086 0018 029A     		ldr	r2, [sp, #8]
 4087 001a 019B     		ldr	r3, [sp, #4]
 4088 001c 1340     		ands	r3, r3, r2
 4089 001e 002B     		cmp	r3, #0
 4090 0020 03D0     		beq	.L285
2619:/home/rdu/Workspace/project_templates/mcu/stm32_ws/src/libraries/STM32F4xx_StdPeriph_Driver/src/stm32f4xx_rtc.c ****   {
2620:/home/rdu/Workspace/project_templates/mcu/stm32_ws/src/libraries/STM32F4xx_StdPeriph_Driver/src/stm32f4xx_rtc.c ****     bitstatus = SET;
 4091              		.loc 1 2620 0
 4092 0022 0123     		movs	r3, #1
 4093 0024 8DF80F30 		strb	r3, [sp, #15]
 4094 0028 02E0     		b	.L286
 4095              	.L285:
2621:/home/rdu/Workspace/project_templates/mcu/stm32_ws/src/libraries/STM32F4xx_StdPeriph_Driver/src/stm32f4xx_rtc.c ****   }
2622:/home/rdu/Workspace/project_templates/mcu/stm32_ws/src/libraries/STM32F4xx_StdPeriph_Driver/src/stm32f4xx_rtc.c ****   else
2623:/home/rdu/Workspace/project_templates/mcu/stm32_ws/src/libraries/STM32F4xx_StdPeriph_Driver/src/stm32f4xx_rtc.c ****   {
2624:/home/rdu/Workspace/project_templates/mcu/stm32_ws/src/libraries/STM32F4xx_StdPeriph_Driver/src/stm32f4xx_rtc.c ****     bitstatus = RESET;
 4096              		.loc 1 2624 0
 4097 002a 0023     		movs	r3, #0
 4098 002c 8DF80F30 		strb	r3, [sp, #15]
 4099              	.L286:
2625:/home/rdu/Workspace/project_templates/mcu/stm32_ws/src/libraries/STM32F4xx_StdPeriph_Driver/src/stm32f4xx_rtc.c ****   }
2626:/home/rdu/Workspace/project_templates/mcu/stm32_ws/src/libraries/STM32F4xx_StdPeriph_Driver/src/stm32f4xx_rtc.c ****   return bitstatus;
 4100              		.loc 1 2626 0
 4101 0030 9DF80F30 		ldrb	r3, [sp, #15]	@ zero_extendqisi2
2627:/home/rdu/Workspace/project_templates/mcu/stm32_ws/src/libraries/STM32F4xx_StdPeriph_Driver/src/stm32f4xx_rtc.c **** }
 4102              		.loc 1 2627 0
 4103 0034 1846     		mov	r0, r3
 4104 0036 04B0     		add	sp, sp, #16
 4105              	.LCFI108:
 4106              		.cfi_def_cfa_offset 0
 4107              		@ sp needed
 4108 0038 7047     		bx	lr
 4109              	.L289:
 4110 003a 00BF     		.align	2
 4111              	.L288:
 4112 003c 00280040 		.word	1073752064
 4113 0040 7F7F0100 		.word	98175
 4114              		.cfi_endproc
 4115              	.LFE174:
 4117              		.section	.text.RTC_ClearFlag,"ax",%progbits
 4118              		.align	1
 4119              		.global	RTC_ClearFlag
 4120              		.syntax unified
 4121              		.thumb
 4122              		.thumb_func
 4123              		.fpu fpv4-sp-d16
 4125              	RTC_ClearFlag:
 4126              	.LFB175:
2628:/home/rdu/Workspace/project_templates/mcu/stm32_ws/src/libraries/STM32F4xx_StdPeriph_Driver/src/stm32f4xx_rtc.c **** 
2629:/home/rdu/Workspace/project_templates/mcu/stm32_ws/src/libraries/STM32F4xx_StdPeriph_Driver/src/stm32f4xx_rtc.c **** /**
2630:/home/rdu/Workspace/project_templates/mcu/stm32_ws/src/libraries/STM32F4xx_StdPeriph_Driver/src/stm32f4xx_rtc.c ****   * @brief  Clears the RTC's pending flags.
2631:/home/rdu/Workspace/project_templates/mcu/stm32_ws/src/libraries/STM32F4xx_StdPeriph_Driver/src/stm32f4xx_rtc.c ****   * @param  RTC_FLAG: specifies the RTC flag to clear.
2632:/home/rdu/Workspace/project_templates/mcu/stm32_ws/src/libraries/STM32F4xx_StdPeriph_Driver/src/stm32f4xx_rtc.c ****   *          This parameter can be any combination of the following values:
2633:/home/rdu/Workspace/project_templates/mcu/stm32_ws/src/libraries/STM32F4xx_StdPeriph_Driver/src/stm32f4xx_rtc.c ****   *            @arg RTC_FLAG_TAMP1F: Tamper 1 event flag
2634:/home/rdu/Workspace/project_templates/mcu/stm32_ws/src/libraries/STM32F4xx_StdPeriph_Driver/src/stm32f4xx_rtc.c ****   *            @arg RTC_FLAG_TAMP2F: Tamper 2 event flag
2635:/home/rdu/Workspace/project_templates/mcu/stm32_ws/src/libraries/STM32F4xx_StdPeriph_Driver/src/stm32f4xx_rtc.c ****   *            @arg RTC_FLAG_TSOVF: Time Stamp Overflow flag 
2636:/home/rdu/Workspace/project_templates/mcu/stm32_ws/src/libraries/STM32F4xx_StdPeriph_Driver/src/stm32f4xx_rtc.c ****   *            @arg RTC_FLAG_TSF: Time Stamp event flag
2637:/home/rdu/Workspace/project_templates/mcu/stm32_ws/src/libraries/STM32F4xx_StdPeriph_Driver/src/stm32f4xx_rtc.c ****   *            @arg RTC_FLAG_WUTF: WakeUp Timer flag
2638:/home/rdu/Workspace/project_templates/mcu/stm32_ws/src/libraries/STM32F4xx_StdPeriph_Driver/src/stm32f4xx_rtc.c ****   *            @arg RTC_FLAG_ALRBF: Alarm B flag
2639:/home/rdu/Workspace/project_templates/mcu/stm32_ws/src/libraries/STM32F4xx_StdPeriph_Driver/src/stm32f4xx_rtc.c ****   *            @arg RTC_FLAG_ALRAF: Alarm A flag
2640:/home/rdu/Workspace/project_templates/mcu/stm32_ws/src/libraries/STM32F4xx_StdPeriph_Driver/src/stm32f4xx_rtc.c ****   *            @arg RTC_FLAG_RSF: Registers Synchronized flag
2641:/home/rdu/Workspace/project_templates/mcu/stm32_ws/src/libraries/STM32F4xx_StdPeriph_Driver/src/stm32f4xx_rtc.c ****   * @retval None
2642:/home/rdu/Workspace/project_templates/mcu/stm32_ws/src/libraries/STM32F4xx_StdPeriph_Driver/src/stm32f4xx_rtc.c ****   */
2643:/home/rdu/Workspace/project_templates/mcu/stm32_ws/src/libraries/STM32F4xx_StdPeriph_Driver/src/stm32f4xx_rtc.c **** void RTC_ClearFlag(uint32_t RTC_FLAG)
2644:/home/rdu/Workspace/project_templates/mcu/stm32_ws/src/libraries/STM32F4xx_StdPeriph_Driver/src/stm32f4xx_rtc.c **** {
 4127              		.loc 1 2644 0
 4128              		.cfi_startproc
 4129              		@ args = 0, pretend = 0, frame = 8
 4130              		@ frame_needed = 0, uses_anonymous_args = 0
 4131              		@ link register save eliminated.
 4132 0000 82B0     		sub	sp, sp, #8
 4133              	.LCFI109:
 4134              		.cfi_def_cfa_offset 8
 4135 0002 0190     		str	r0, [sp, #4]
2645:/home/rdu/Workspace/project_templates/mcu/stm32_ws/src/libraries/STM32F4xx_StdPeriph_Driver/src/stm32f4xx_rtc.c ****   /* Check the parameters */
2646:/home/rdu/Workspace/project_templates/mcu/stm32_ws/src/libraries/STM32F4xx_StdPeriph_Driver/src/stm32f4xx_rtc.c ****   assert_param(IS_RTC_CLEAR_FLAG(RTC_FLAG));
2647:/home/rdu/Workspace/project_templates/mcu/stm32_ws/src/libraries/STM32F4xx_StdPeriph_Driver/src/stm32f4xx_rtc.c **** 
2648:/home/rdu/Workspace/project_templates/mcu/stm32_ws/src/libraries/STM32F4xx_StdPeriph_Driver/src/stm32f4xx_rtc.c ****   /* Clear the Flags in the RTC_ISR register */
2649:/home/rdu/Workspace/project_templates/mcu/stm32_ws/src/libraries/STM32F4xx_StdPeriph_Driver/src/stm32f4xx_rtc.c ****   RTC->ISR = (uint32_t)((uint32_t)(~((RTC_FLAG | RTC_ISR_INIT)& 0x0000FFFF) | (uint32_t)(RTC->ISR &
 4136              		.loc 1 2649 0
 4137 0004 019B     		ldr	r3, [sp, #4]
 4138 0006 9BB2     		uxth	r3, r3
 4139 0008 43F08003 		orr	r3, r3, #128
 4140 000c DA43     		mvns	r2, r3
 4141 000e 054B     		ldr	r3, .L291
 4142 0010 DB68     		ldr	r3, [r3, #12]
 4143 0012 03F08003 		and	r3, r3, #128
 4144 0016 0349     		ldr	r1, .L291
 4145 0018 1343     		orrs	r3, r3, r2
 4146 001a CB60     		str	r3, [r1, #12]
2650:/home/rdu/Workspace/project_templates/mcu/stm32_ws/src/libraries/STM32F4xx_StdPeriph_Driver/src/stm32f4xx_rtc.c **** }
 4147              		.loc 1 2650 0
 4148 001c 00BF     		nop
 4149 001e 02B0     		add	sp, sp, #8
 4150              	.LCFI110:
 4151              		.cfi_def_cfa_offset 0
 4152              		@ sp needed
 4153 0020 7047     		bx	lr
 4154              	.L292:
 4155 0022 00BF     		.align	2
 4156              	.L291:
 4157 0024 00280040 		.word	1073752064
 4158              		.cfi_endproc
 4159              	.LFE175:
 4161              		.section	.text.RTC_GetITStatus,"ax",%progbits
 4162              		.align	1
 4163              		.global	RTC_GetITStatus
 4164              		.syntax unified
 4165              		.thumb
 4166              		.thumb_func
 4167              		.fpu fpv4-sp-d16
 4169              	RTC_GetITStatus:
 4170              	.LFB176:
2651:/home/rdu/Workspace/project_templates/mcu/stm32_ws/src/libraries/STM32F4xx_StdPeriph_Driver/src/stm32f4xx_rtc.c **** 
2652:/home/rdu/Workspace/project_templates/mcu/stm32_ws/src/libraries/STM32F4xx_StdPeriph_Driver/src/stm32f4xx_rtc.c **** /**
2653:/home/rdu/Workspace/project_templates/mcu/stm32_ws/src/libraries/STM32F4xx_StdPeriph_Driver/src/stm32f4xx_rtc.c ****   * @brief  Checks whether the specified RTC interrupt has occurred or not.
2654:/home/rdu/Workspace/project_templates/mcu/stm32_ws/src/libraries/STM32F4xx_StdPeriph_Driver/src/stm32f4xx_rtc.c ****   * @param  RTC_IT: specifies the RTC interrupt source to check.
2655:/home/rdu/Workspace/project_templates/mcu/stm32_ws/src/libraries/STM32F4xx_StdPeriph_Driver/src/stm32f4xx_rtc.c ****   *          This parameter can be one of the following values:
2656:/home/rdu/Workspace/project_templates/mcu/stm32_ws/src/libraries/STM32F4xx_StdPeriph_Driver/src/stm32f4xx_rtc.c ****   *            @arg RTC_IT_TS: Time Stamp interrupt 
2657:/home/rdu/Workspace/project_templates/mcu/stm32_ws/src/libraries/STM32F4xx_StdPeriph_Driver/src/stm32f4xx_rtc.c ****   *            @arg RTC_IT_WUT: WakeUp Timer interrupt 
2658:/home/rdu/Workspace/project_templates/mcu/stm32_ws/src/libraries/STM32F4xx_StdPeriph_Driver/src/stm32f4xx_rtc.c ****   *            @arg RTC_IT_ALRB: Alarm B interrupt 
2659:/home/rdu/Workspace/project_templates/mcu/stm32_ws/src/libraries/STM32F4xx_StdPeriph_Driver/src/stm32f4xx_rtc.c ****   *            @arg RTC_IT_ALRA: Alarm A interrupt 
2660:/home/rdu/Workspace/project_templates/mcu/stm32_ws/src/libraries/STM32F4xx_StdPeriph_Driver/src/stm32f4xx_rtc.c ****   *            @arg RTC_IT_TAMP1: Tamper 1 event interrupt
2661:/home/rdu/Workspace/project_templates/mcu/stm32_ws/src/libraries/STM32F4xx_StdPeriph_Driver/src/stm32f4xx_rtc.c ****   *            @arg RTC_IT_TAMP2: Tamper 2 event interrupt
2662:/home/rdu/Workspace/project_templates/mcu/stm32_ws/src/libraries/STM32F4xx_StdPeriph_Driver/src/stm32f4xx_rtc.c ****   * @retval The new state of RTC_IT (SET or RESET).
2663:/home/rdu/Workspace/project_templates/mcu/stm32_ws/src/libraries/STM32F4xx_StdPeriph_Driver/src/stm32f4xx_rtc.c ****   */
2664:/home/rdu/Workspace/project_templates/mcu/stm32_ws/src/libraries/STM32F4xx_StdPeriph_Driver/src/stm32f4xx_rtc.c **** ITStatus RTC_GetITStatus(uint32_t RTC_IT)
2665:/home/rdu/Workspace/project_templates/mcu/stm32_ws/src/libraries/STM32F4xx_StdPeriph_Driver/src/stm32f4xx_rtc.c **** {
 4171              		.loc 1 2665 0
 4172              		.cfi_startproc
 4173              		@ args = 0, pretend = 0, frame = 24
 4174              		@ frame_needed = 0, uses_anonymous_args = 0
 4175              		@ link register save eliminated.
 4176 0000 86B0     		sub	sp, sp, #24
 4177              	.LCFI111:
 4178              		.cfi_def_cfa_offset 24
 4179 0002 0190     		str	r0, [sp, #4]
2666:/home/rdu/Workspace/project_templates/mcu/stm32_ws/src/libraries/STM32F4xx_StdPeriph_Driver/src/stm32f4xx_rtc.c ****   ITStatus bitstatus = RESET;
 4180              		.loc 1 2666 0
 4181 0004 0023     		movs	r3, #0
 4182 0006 8DF81730 		strb	r3, [sp, #23]
2667:/home/rdu/Workspace/project_templates/mcu/stm32_ws/src/libraries/STM32F4xx_StdPeriph_Driver/src/stm32f4xx_rtc.c ****   uint32_t tmpreg = 0, enablestatus = 0;
 4183              		.loc 1 2667 0
 4184 000a 0023     		movs	r3, #0
 4185 000c 0493     		str	r3, [sp, #16]
 4186 000e 0023     		movs	r3, #0
 4187 0010 0393     		str	r3, [sp, #12]
2668:/home/rdu/Workspace/project_templates/mcu/stm32_ws/src/libraries/STM32F4xx_StdPeriph_Driver/src/stm32f4xx_rtc.c ****  
2669:/home/rdu/Workspace/project_templates/mcu/stm32_ws/src/libraries/STM32F4xx_StdPeriph_Driver/src/stm32f4xx_rtc.c ****   /* Check the parameters */
2670:/home/rdu/Workspace/project_templates/mcu/stm32_ws/src/libraries/STM32F4xx_StdPeriph_Driver/src/stm32f4xx_rtc.c ****   assert_param(IS_RTC_GET_IT(RTC_IT));
2671:/home/rdu/Workspace/project_templates/mcu/stm32_ws/src/libraries/STM32F4xx_StdPeriph_Driver/src/stm32f4xx_rtc.c ****   
2672:/home/rdu/Workspace/project_templates/mcu/stm32_ws/src/libraries/STM32F4xx_StdPeriph_Driver/src/stm32f4xx_rtc.c ****   /* Get the TAMPER Interrupt enable bit and pending bit */
2673:/home/rdu/Workspace/project_templates/mcu/stm32_ws/src/libraries/STM32F4xx_StdPeriph_Driver/src/stm32f4xx_rtc.c ****   tmpreg = (uint32_t)(RTC->TAFCR & (RTC_TAFCR_TAMPIE));
 4188              		.loc 1 2673 0
 4189 0012 164B     		ldr	r3, .L297
 4190 0014 1B6C     		ldr	r3, [r3, #64]
 4191 0016 03F00403 		and	r3, r3, #4
 4192 001a 0493     		str	r3, [sp, #16]
2674:/home/rdu/Workspace/project_templates/mcu/stm32_ws/src/libraries/STM32F4xx_StdPeriph_Driver/src/stm32f4xx_rtc.c ****  
2675:/home/rdu/Workspace/project_templates/mcu/stm32_ws/src/libraries/STM32F4xx_StdPeriph_Driver/src/stm32f4xx_rtc.c ****   /* Get the Interrupt enable Status */
2676:/home/rdu/Workspace/project_templates/mcu/stm32_ws/src/libraries/STM32F4xx_StdPeriph_Driver/src/stm32f4xx_rtc.c ****   enablestatus = (uint32_t)((RTC->CR & RTC_IT) | (tmpreg & (RTC_IT >> 15)) | (tmpreg & (RTC_IT >> 1
 4193              		.loc 1 2676 0
 4194 001c 134B     		ldr	r3, .L297
 4195 001e 9A68     		ldr	r2, [r3, #8]
 4196 0020 019B     		ldr	r3, [sp, #4]
 4197 0022 1A40     		ands	r2, r2, r3
 4198 0024 019B     		ldr	r3, [sp, #4]
 4199 0026 D90B     		lsrs	r1, r3, #15
 4200 0028 049B     		ldr	r3, [sp, #16]
 4201 002a 0B40     		ands	r3, r3, r1
 4202 002c 1A43     		orrs	r2, r2, r3
 4203 002e 019B     		ldr	r3, [sp, #4]
 4204 0030 190C     		lsrs	r1, r3, #16
 4205 0032 049B     		ldr	r3, [sp, #16]
 4206 0034 0B40     		ands	r3, r3, r1
 4207 0036 1343     		orrs	r3, r3, r2
 4208 0038 0393     		str	r3, [sp, #12]
2677:/home/rdu/Workspace/project_templates/mcu/stm32_ws/src/libraries/STM32F4xx_StdPeriph_Driver/src/stm32f4xx_rtc.c ****   
2678:/home/rdu/Workspace/project_templates/mcu/stm32_ws/src/libraries/STM32F4xx_StdPeriph_Driver/src/stm32f4xx_rtc.c ****   /* Get the Interrupt pending bit */
2679:/home/rdu/Workspace/project_templates/mcu/stm32_ws/src/libraries/STM32F4xx_StdPeriph_Driver/src/stm32f4xx_rtc.c ****   tmpreg = (uint32_t)((RTC->ISR & (uint32_t)(RTC_IT >> 4)));
 4209              		.loc 1 2679 0
 4210 003a 0C4B     		ldr	r3, .L297
 4211 003c DA68     		ldr	r2, [r3, #12]
 4212 003e 019B     		ldr	r3, [sp, #4]
 4213 0040 1B09     		lsrs	r3, r3, #4
 4214 0042 1340     		ands	r3, r3, r2
 4215 0044 0493     		str	r3, [sp, #16]
2680:/home/rdu/Workspace/project_templates/mcu/stm32_ws/src/libraries/STM32F4xx_StdPeriph_Driver/src/stm32f4xx_rtc.c ****   
2681:/home/rdu/Workspace/project_templates/mcu/stm32_ws/src/libraries/STM32F4xx_StdPeriph_Driver/src/stm32f4xx_rtc.c ****   /* Get the status of the Interrupt */
2682:/home/rdu/Workspace/project_templates/mcu/stm32_ws/src/libraries/STM32F4xx_StdPeriph_Driver/src/stm32f4xx_rtc.c ****   if ((enablestatus != (uint32_t)RESET) && ((tmpreg & 0x0000FFFF) != (uint32_t)RESET))
 4216              		.loc 1 2682 0
 4217 0046 039B     		ldr	r3, [sp, #12]
 4218 0048 002B     		cmp	r3, #0
 4219 004a 07D0     		beq	.L294
 4220              		.loc 1 2682 0 is_stmt 0 discriminator 1
 4221 004c 049B     		ldr	r3, [sp, #16]
 4222 004e 9BB2     		uxth	r3, r3
 4223 0050 002B     		cmp	r3, #0
 4224 0052 03D0     		beq	.L294
2683:/home/rdu/Workspace/project_templates/mcu/stm32_ws/src/libraries/STM32F4xx_StdPeriph_Driver/src/stm32f4xx_rtc.c ****   {
2684:/home/rdu/Workspace/project_templates/mcu/stm32_ws/src/libraries/STM32F4xx_StdPeriph_Driver/src/stm32f4xx_rtc.c ****     bitstatus = SET;
 4225              		.loc 1 2684 0 is_stmt 1
 4226 0054 0123     		movs	r3, #1
 4227 0056 8DF81730 		strb	r3, [sp, #23]
 4228 005a 02E0     		b	.L295
 4229              	.L294:
2685:/home/rdu/Workspace/project_templates/mcu/stm32_ws/src/libraries/STM32F4xx_StdPeriph_Driver/src/stm32f4xx_rtc.c ****   }
2686:/home/rdu/Workspace/project_templates/mcu/stm32_ws/src/libraries/STM32F4xx_StdPeriph_Driver/src/stm32f4xx_rtc.c ****   else
2687:/home/rdu/Workspace/project_templates/mcu/stm32_ws/src/libraries/STM32F4xx_StdPeriph_Driver/src/stm32f4xx_rtc.c ****   {
2688:/home/rdu/Workspace/project_templates/mcu/stm32_ws/src/libraries/STM32F4xx_StdPeriph_Driver/src/stm32f4xx_rtc.c ****     bitstatus = RESET;
 4230              		.loc 1 2688 0
 4231 005c 0023     		movs	r3, #0
 4232 005e 8DF81730 		strb	r3, [sp, #23]
 4233              	.L295:
2689:/home/rdu/Workspace/project_templates/mcu/stm32_ws/src/libraries/STM32F4xx_StdPeriph_Driver/src/stm32f4xx_rtc.c ****   }
2690:/home/rdu/Workspace/project_templates/mcu/stm32_ws/src/libraries/STM32F4xx_StdPeriph_Driver/src/stm32f4xx_rtc.c ****   return bitstatus;
 4234              		.loc 1 2690 0
 4235 0062 9DF81730 		ldrb	r3, [sp, #23]	@ zero_extendqisi2
2691:/home/rdu/Workspace/project_templates/mcu/stm32_ws/src/libraries/STM32F4xx_StdPeriph_Driver/src/stm32f4xx_rtc.c **** }
 4236              		.loc 1 2691 0
 4237 0066 1846     		mov	r0, r3
 4238 0068 06B0     		add	sp, sp, #24
 4239              	.LCFI112:
 4240              		.cfi_def_cfa_offset 0
 4241              		@ sp needed
 4242 006a 7047     		bx	lr
 4243              	.L298:
 4244              		.align	2
 4245              	.L297:
 4246 006c 00280040 		.word	1073752064
 4247              		.cfi_endproc
 4248              	.LFE176:
 4250              		.section	.text.RTC_ClearITPendingBit,"ax",%progbits
 4251              		.align	1
 4252              		.global	RTC_ClearITPendingBit
 4253              		.syntax unified
 4254              		.thumb
 4255              		.thumb_func
 4256              		.fpu fpv4-sp-d16
 4258              	RTC_ClearITPendingBit:
 4259              	.LFB177:
2692:/home/rdu/Workspace/project_templates/mcu/stm32_ws/src/libraries/STM32F4xx_StdPeriph_Driver/src/stm32f4xx_rtc.c **** 
2693:/home/rdu/Workspace/project_templates/mcu/stm32_ws/src/libraries/STM32F4xx_StdPeriph_Driver/src/stm32f4xx_rtc.c **** /**
2694:/home/rdu/Workspace/project_templates/mcu/stm32_ws/src/libraries/STM32F4xx_StdPeriph_Driver/src/stm32f4xx_rtc.c ****   * @brief  Clears the RTC's interrupt pending bits.
2695:/home/rdu/Workspace/project_templates/mcu/stm32_ws/src/libraries/STM32F4xx_StdPeriph_Driver/src/stm32f4xx_rtc.c ****   * @param  RTC_IT: specifies the RTC interrupt pending bit to clear.
2696:/home/rdu/Workspace/project_templates/mcu/stm32_ws/src/libraries/STM32F4xx_StdPeriph_Driver/src/stm32f4xx_rtc.c ****   *          This parameter can be any combination of the following values:
2697:/home/rdu/Workspace/project_templates/mcu/stm32_ws/src/libraries/STM32F4xx_StdPeriph_Driver/src/stm32f4xx_rtc.c ****   *            @arg RTC_IT_TS: Time Stamp interrupt 
2698:/home/rdu/Workspace/project_templates/mcu/stm32_ws/src/libraries/STM32F4xx_StdPeriph_Driver/src/stm32f4xx_rtc.c ****   *            @arg RTC_IT_WUT: WakeUp Timer interrupt 
2699:/home/rdu/Workspace/project_templates/mcu/stm32_ws/src/libraries/STM32F4xx_StdPeriph_Driver/src/stm32f4xx_rtc.c ****   *            @arg RTC_IT_ALRB: Alarm B interrupt 
2700:/home/rdu/Workspace/project_templates/mcu/stm32_ws/src/libraries/STM32F4xx_StdPeriph_Driver/src/stm32f4xx_rtc.c ****   *            @arg RTC_IT_ALRA: Alarm A interrupt 
2701:/home/rdu/Workspace/project_templates/mcu/stm32_ws/src/libraries/STM32F4xx_StdPeriph_Driver/src/stm32f4xx_rtc.c ****   *            @arg RTC_IT_TAMP1: Tamper 1 event interrupt
2702:/home/rdu/Workspace/project_templates/mcu/stm32_ws/src/libraries/STM32F4xx_StdPeriph_Driver/src/stm32f4xx_rtc.c ****   *            @arg RTC_IT_TAMP2: Tamper 2 event interrupt 
2703:/home/rdu/Workspace/project_templates/mcu/stm32_ws/src/libraries/STM32F4xx_StdPeriph_Driver/src/stm32f4xx_rtc.c ****   * @retval None
2704:/home/rdu/Workspace/project_templates/mcu/stm32_ws/src/libraries/STM32F4xx_StdPeriph_Driver/src/stm32f4xx_rtc.c ****   */
2705:/home/rdu/Workspace/project_templates/mcu/stm32_ws/src/libraries/STM32F4xx_StdPeriph_Driver/src/stm32f4xx_rtc.c **** void RTC_ClearITPendingBit(uint32_t RTC_IT)
2706:/home/rdu/Workspace/project_templates/mcu/stm32_ws/src/libraries/STM32F4xx_StdPeriph_Driver/src/stm32f4xx_rtc.c **** {
 4260              		.loc 1 2706 0
 4261              		.cfi_startproc
 4262              		@ args = 0, pretend = 0, frame = 16
 4263              		@ frame_needed = 0, uses_anonymous_args = 0
 4264              		@ link register save eliminated.
 4265 0000 84B0     		sub	sp, sp, #16
 4266              	.LCFI113:
 4267              		.cfi_def_cfa_offset 16
 4268 0002 0190     		str	r0, [sp, #4]
2707:/home/rdu/Workspace/project_templates/mcu/stm32_ws/src/libraries/STM32F4xx_StdPeriph_Driver/src/stm32f4xx_rtc.c ****   uint32_t tmpreg = 0;
 4269              		.loc 1 2707 0
 4270 0004 0023     		movs	r3, #0
 4271 0006 0393     		str	r3, [sp, #12]
2708:/home/rdu/Workspace/project_templates/mcu/stm32_ws/src/libraries/STM32F4xx_StdPeriph_Driver/src/stm32f4xx_rtc.c **** 
2709:/home/rdu/Workspace/project_templates/mcu/stm32_ws/src/libraries/STM32F4xx_StdPeriph_Driver/src/stm32f4xx_rtc.c ****   /* Check the parameters */
2710:/home/rdu/Workspace/project_templates/mcu/stm32_ws/src/libraries/STM32F4xx_StdPeriph_Driver/src/stm32f4xx_rtc.c ****   assert_param(IS_RTC_CLEAR_IT(RTC_IT));
2711:/home/rdu/Workspace/project_templates/mcu/stm32_ws/src/libraries/STM32F4xx_StdPeriph_Driver/src/stm32f4xx_rtc.c **** 
2712:/home/rdu/Workspace/project_templates/mcu/stm32_ws/src/libraries/STM32F4xx_StdPeriph_Driver/src/stm32f4xx_rtc.c ****   /* Get the RTC_ISR Interrupt pending bits mask */
2713:/home/rdu/Workspace/project_templates/mcu/stm32_ws/src/libraries/STM32F4xx_StdPeriph_Driver/src/stm32f4xx_rtc.c ****   tmpreg = (uint32_t)(RTC_IT >> 4);
 4272              		.loc 1 2713 0
 4273 0008 019B     		ldr	r3, [sp, #4]
 4274 000a 1B09     		lsrs	r3, r3, #4
 4275 000c 0393     		str	r3, [sp, #12]
2714:/home/rdu/Workspace/project_templates/mcu/stm32_ws/src/libraries/STM32F4xx_StdPeriph_Driver/src/stm32f4xx_rtc.c **** 
2715:/home/rdu/Workspace/project_templates/mcu/stm32_ws/src/libraries/STM32F4xx_StdPeriph_Driver/src/stm32f4xx_rtc.c ****   /* Clear the interrupt pending bits in the RTC_ISR register */
2716:/home/rdu/Workspace/project_templates/mcu/stm32_ws/src/libraries/STM32F4xx_StdPeriph_Driver/src/stm32f4xx_rtc.c ****   RTC->ISR = (uint32_t)((uint32_t)(~((tmpreg | RTC_ISR_INIT)& 0x0000FFFF) | (uint32_t)(RTC->ISR & R
 4276              		.loc 1 2716 0
 4277 000e 039B     		ldr	r3, [sp, #12]
 4278 0010 9BB2     		uxth	r3, r3
 4279 0012 43F08003 		orr	r3, r3, #128
 4280 0016 DA43     		mvns	r2, r3
 4281 0018 044B     		ldr	r3, .L300
 4282 001a DB68     		ldr	r3, [r3, #12]
 4283 001c 03F08003 		and	r3, r3, #128
 4284 0020 0249     		ldr	r1, .L300
 4285 0022 1343     		orrs	r3, r3, r2
 4286 0024 CB60     		str	r3, [r1, #12]
2717:/home/rdu/Workspace/project_templates/mcu/stm32_ws/src/libraries/STM32F4xx_StdPeriph_Driver/src/stm32f4xx_rtc.c **** }
 4287              		.loc 1 2717 0
 4288 0026 00BF     		nop
 4289 0028 04B0     		add	sp, sp, #16
 4290              	.LCFI114:
 4291              		.cfi_def_cfa_offset 0
 4292              		@ sp needed
 4293 002a 7047     		bx	lr
 4294              	.L301:
 4295              		.align	2
 4296              	.L300:
 4297 002c 00280040 		.word	1073752064
 4298              		.cfi_endproc
 4299              	.LFE177:
 4301              		.section	.text.RTC_ByteToBcd2,"ax",%progbits
 4302              		.align	1
 4303              		.syntax unified
 4304              		.thumb
 4305              		.thumb_func
 4306              		.fpu fpv4-sp-d16
 4308              	RTC_ByteToBcd2:
 4309              	.LFB178:
2718:/home/rdu/Workspace/project_templates/mcu/stm32_ws/src/libraries/STM32F4xx_StdPeriph_Driver/src/stm32f4xx_rtc.c **** 
2719:/home/rdu/Workspace/project_templates/mcu/stm32_ws/src/libraries/STM32F4xx_StdPeriph_Driver/src/stm32f4xx_rtc.c **** /**
2720:/home/rdu/Workspace/project_templates/mcu/stm32_ws/src/libraries/STM32F4xx_StdPeriph_Driver/src/stm32f4xx_rtc.c ****   * @}
2721:/home/rdu/Workspace/project_templates/mcu/stm32_ws/src/libraries/STM32F4xx_StdPeriph_Driver/src/stm32f4xx_rtc.c ****   */
2722:/home/rdu/Workspace/project_templates/mcu/stm32_ws/src/libraries/STM32F4xx_StdPeriph_Driver/src/stm32f4xx_rtc.c **** 
2723:/home/rdu/Workspace/project_templates/mcu/stm32_ws/src/libraries/STM32F4xx_StdPeriph_Driver/src/stm32f4xx_rtc.c **** /**
2724:/home/rdu/Workspace/project_templates/mcu/stm32_ws/src/libraries/STM32F4xx_StdPeriph_Driver/src/stm32f4xx_rtc.c ****   * @brief  Converts a 2 digit decimal to BCD format.
2725:/home/rdu/Workspace/project_templates/mcu/stm32_ws/src/libraries/STM32F4xx_StdPeriph_Driver/src/stm32f4xx_rtc.c ****   * @param  Value: Byte to be converted.
2726:/home/rdu/Workspace/project_templates/mcu/stm32_ws/src/libraries/STM32F4xx_StdPeriph_Driver/src/stm32f4xx_rtc.c ****   * @retval Converted byte
2727:/home/rdu/Workspace/project_templates/mcu/stm32_ws/src/libraries/STM32F4xx_StdPeriph_Driver/src/stm32f4xx_rtc.c ****   */
2728:/home/rdu/Workspace/project_templates/mcu/stm32_ws/src/libraries/STM32F4xx_StdPeriph_Driver/src/stm32f4xx_rtc.c **** static uint8_t RTC_ByteToBcd2(uint8_t Value)
2729:/home/rdu/Workspace/project_templates/mcu/stm32_ws/src/libraries/STM32F4xx_StdPeriph_Driver/src/stm32f4xx_rtc.c **** {
 4310              		.loc 1 2729 0
 4311              		.cfi_startproc
 4312              		@ args = 0, pretend = 0, frame = 16
 4313              		@ frame_needed = 0, uses_anonymous_args = 0
 4314              		@ link register save eliminated.
 4315 0000 84B0     		sub	sp, sp, #16
 4316              	.LCFI115:
 4317              		.cfi_def_cfa_offset 16
 4318 0002 0346     		mov	r3, r0
 4319 0004 8DF80730 		strb	r3, [sp, #7]
2730:/home/rdu/Workspace/project_templates/mcu/stm32_ws/src/libraries/STM32F4xx_StdPeriph_Driver/src/stm32f4xx_rtc.c ****   uint8_t bcdhigh = 0;
 4320              		.loc 1 2730 0
 4321 0008 0023     		movs	r3, #0
 4322 000a 8DF80F30 		strb	r3, [sp, #15]
2731:/home/rdu/Workspace/project_templates/mcu/stm32_ws/src/libraries/STM32F4xx_StdPeriph_Driver/src/stm32f4xx_rtc.c ****   
2732:/home/rdu/Workspace/project_templates/mcu/stm32_ws/src/libraries/STM32F4xx_StdPeriph_Driver/src/stm32f4xx_rtc.c ****   while (Value >= 10)
 4323              		.loc 1 2732 0
 4324 000e 09E0     		b	.L303
 4325              	.L304:
2733:/home/rdu/Workspace/project_templates/mcu/stm32_ws/src/libraries/STM32F4xx_StdPeriph_Driver/src/stm32f4xx_rtc.c ****   {
2734:/home/rdu/Workspace/project_templates/mcu/stm32_ws/src/libraries/STM32F4xx_StdPeriph_Driver/src/stm32f4xx_rtc.c ****     bcdhigh++;
 4326              		.loc 1 2734 0
 4327 0010 9DF80F30 		ldrb	r3, [sp, #15]	@ zero_extendqisi2
 4328 0014 0133     		adds	r3, r3, #1
 4329 0016 8DF80F30 		strb	r3, [sp, #15]
2735:/home/rdu/Workspace/project_templates/mcu/stm32_ws/src/libraries/STM32F4xx_StdPeriph_Driver/src/stm32f4xx_rtc.c ****     Value -= 10;
 4330              		.loc 1 2735 0
 4331 001a 9DF80730 		ldrb	r3, [sp, #7]
 4332 001e 0A3B     		subs	r3, r3, #10
 4333 0020 8DF80730 		strb	r3, [sp, #7]
 4334              	.L303:
2732:/home/rdu/Workspace/project_templates/mcu/stm32_ws/src/libraries/STM32F4xx_StdPeriph_Driver/src/stm32f4xx_rtc.c ****   {
 4335              		.loc 1 2732 0
 4336 0024 9DF80730 		ldrb	r3, [sp, #7]	@ zero_extendqisi2
 4337 0028 092B     		cmp	r3, #9
 4338 002a F1D8     		bhi	.L304
2736:/home/rdu/Workspace/project_templates/mcu/stm32_ws/src/libraries/STM32F4xx_StdPeriph_Driver/src/stm32f4xx_rtc.c ****   }
2737:/home/rdu/Workspace/project_templates/mcu/stm32_ws/src/libraries/STM32F4xx_StdPeriph_Driver/src/stm32f4xx_rtc.c ****   
2738:/home/rdu/Workspace/project_templates/mcu/stm32_ws/src/libraries/STM32F4xx_StdPeriph_Driver/src/stm32f4xx_rtc.c ****   return  ((uint8_t)(bcdhigh << 4) | Value);
 4339              		.loc 1 2738 0
 4340 002c 9DF80F30 		ldrb	r3, [sp, #15]
 4341 0030 1B01     		lsls	r3, r3, #4
 4342 0032 DAB2     		uxtb	r2, r3
 4343 0034 9DF80730 		ldrb	r3, [sp, #7]
 4344 0038 1343     		orrs	r3, r3, r2
 4345 003a DBB2     		uxtb	r3, r3
2739:/home/rdu/Workspace/project_templates/mcu/stm32_ws/src/libraries/STM32F4xx_StdPeriph_Driver/src/stm32f4xx_rtc.c **** }
 4346              		.loc 1 2739 0
 4347 003c 1846     		mov	r0, r3
 4348 003e 04B0     		add	sp, sp, #16
 4349              	.LCFI116:
 4350              		.cfi_def_cfa_offset 0
 4351              		@ sp needed
 4352 0040 7047     		bx	lr
 4353              		.cfi_endproc
 4354              	.LFE178:
 4356              		.section	.text.RTC_Bcd2ToByte,"ax",%progbits
 4357              		.align	1
 4358              		.syntax unified
 4359              		.thumb
 4360              		.thumb_func
 4361              		.fpu fpv4-sp-d16
 4363              	RTC_Bcd2ToByte:
 4364              	.LFB179:
2740:/home/rdu/Workspace/project_templates/mcu/stm32_ws/src/libraries/STM32F4xx_StdPeriph_Driver/src/stm32f4xx_rtc.c **** 
2741:/home/rdu/Workspace/project_templates/mcu/stm32_ws/src/libraries/STM32F4xx_StdPeriph_Driver/src/stm32f4xx_rtc.c **** /**
2742:/home/rdu/Workspace/project_templates/mcu/stm32_ws/src/libraries/STM32F4xx_StdPeriph_Driver/src/stm32f4xx_rtc.c ****   * @brief  Convert from 2 digit BCD to Binary.
2743:/home/rdu/Workspace/project_templates/mcu/stm32_ws/src/libraries/STM32F4xx_StdPeriph_Driver/src/stm32f4xx_rtc.c ****   * @param  Value: BCD value to be converted.
2744:/home/rdu/Workspace/project_templates/mcu/stm32_ws/src/libraries/STM32F4xx_StdPeriph_Driver/src/stm32f4xx_rtc.c ****   * @retval Converted word
2745:/home/rdu/Workspace/project_templates/mcu/stm32_ws/src/libraries/STM32F4xx_StdPeriph_Driver/src/stm32f4xx_rtc.c ****   */
2746:/home/rdu/Workspace/project_templates/mcu/stm32_ws/src/libraries/STM32F4xx_StdPeriph_Driver/src/stm32f4xx_rtc.c **** static uint8_t RTC_Bcd2ToByte(uint8_t Value)
2747:/home/rdu/Workspace/project_templates/mcu/stm32_ws/src/libraries/STM32F4xx_StdPeriph_Driver/src/stm32f4xx_rtc.c **** {
 4365              		.loc 1 2747 0
 4366              		.cfi_startproc
 4367              		@ args = 0, pretend = 0, frame = 16
 4368              		@ frame_needed = 0, uses_anonymous_args = 0
 4369              		@ link register save eliminated.
 4370 0000 84B0     		sub	sp, sp, #16
 4371              	.LCFI117:
 4372              		.cfi_def_cfa_offset 16
 4373 0002 0346     		mov	r3, r0
 4374 0004 8DF80730 		strb	r3, [sp, #7]
2748:/home/rdu/Workspace/project_templates/mcu/stm32_ws/src/libraries/STM32F4xx_StdPeriph_Driver/src/stm32f4xx_rtc.c ****   uint8_t tmp = 0;
 4375              		.loc 1 2748 0
 4376 0008 0023     		movs	r3, #0
 4377 000a 8DF80F30 		strb	r3, [sp, #15]
2749:/home/rdu/Workspace/project_templates/mcu/stm32_ws/src/libraries/STM32F4xx_StdPeriph_Driver/src/stm32f4xx_rtc.c ****   tmp = ((uint8_t)(Value & (uint8_t)0xF0) >> (uint8_t)0x4) * 10;
 4378              		.loc 1 2749 0
 4379 000e 9DF80730 		ldrb	r3, [sp, #7]	@ zero_extendqisi2
 4380 0012 1B09     		lsrs	r3, r3, #4
 4381 0014 DBB2     		uxtb	r3, r3
 4382 0016 1A46     		mov	r2, r3
 4383 0018 9200     		lsls	r2, r2, #2
 4384 001a 1344     		add	r3, r3, r2
 4385 001c 5B00     		lsls	r3, r3, #1
 4386 001e 8DF80F30 		strb	r3, [sp, #15]
2750:/home/rdu/Workspace/project_templates/mcu/stm32_ws/src/libraries/STM32F4xx_StdPeriph_Driver/src/stm32f4xx_rtc.c ****   return (tmp + (Value & (uint8_t)0x0F));
 4387              		.loc 1 2750 0
 4388 0022 9DF80730 		ldrb	r3, [sp, #7]
 4389 0026 03F00F03 		and	r3, r3, #15
 4390 002a DAB2     		uxtb	r2, r3
 4391 002c 9DF80F30 		ldrb	r3, [sp, #15]
 4392 0030 1344     		add	r3, r3, r2
 4393 0032 DBB2     		uxtb	r3, r3
2751:/home/rdu/Workspace/project_templates/mcu/stm32_ws/src/libraries/STM32F4xx_StdPeriph_Driver/src/stm32f4xx_rtc.c **** }
 4394              		.loc 1 2751 0
 4395 0034 1846     		mov	r0, r3
 4396 0036 04B0     		add	sp, sp, #16
 4397              	.LCFI118:
 4398              		.cfi_def_cfa_offset 0
 4399              		@ sp needed
 4400 0038 7047     		bx	lr
 4401              		.cfi_endproc
 4402              	.LFE179:
 4404              		.text
 4405              	.Letext0:
 4406              		.file 2 "/home/rdu/Software/gcc-arm-none-eabi-7-2017-q4-major/arm-none-eabi/include/machine/_defau
 4407              		.file 3 "/home/rdu/Software/gcc-arm-none-eabi-7-2017-q4-major/arm-none-eabi/include/sys/_stdint.h"
 4408              		.file 4 "/home/rdu/Workspace/project_templates/mcu/stm32_ws/src/libraries/CMSIS/CMSIS_STM32F4/Incl
 4409              		.file 5 "/home/rdu/Workspace/project_templates/mcu/stm32_ws/src/libraries/CMSIS/CMSIS_STM32F4/Devi
 4410              		.file 6 "/home/rdu/Workspace/project_templates/mcu/stm32_ws/src/libraries/CMSIS/CMSIS_STM32F4/Devi
 4411              		.file 7 "/home/rdu/Workspace/project_templates/mcu/stm32_ws/src/libraries/STM32F4xx_StdPeriph_Driv
DEFINED SYMBOLS
                            *ABS*:0000000000000000 stm32f4xx_rtc.c
     /tmp/cc7lJmCA.s:16     .text.RTC_DeInit:0000000000000000 $t
     /tmp/cc7lJmCA.s:23     .text.RTC_DeInit:0000000000000000 RTC_DeInit
     /tmp/cc7lJmCA.s:393    .text.RTC_EnterInitMode:0000000000000000 RTC_EnterInitMode
     /tmp/cc7lJmCA.s:516    .text.RTC_WaitForSynchro:0000000000000000 RTC_WaitForSynchro
     /tmp/cc7lJmCA.s:188    .text.RTC_DeInit:00000000000000f4 $d
     /tmp/cc7lJmCA.s:194    .text.RTC_Init:0000000000000000 $t
     /tmp/cc7lJmCA.s:201    .text.RTC_Init:0000000000000000 RTC_Init
     /tmp/cc7lJmCA.s:485    .text.RTC_ExitInitMode:0000000000000000 RTC_ExitInitMode
     /tmp/cc7lJmCA.s:286    .text.RTC_Init:0000000000000078 $d
     /tmp/cc7lJmCA.s:291    .text.RTC_StructInit:0000000000000000 $t
     /tmp/cc7lJmCA.s:298    .text.RTC_StructInit:0000000000000000 RTC_StructInit
     /tmp/cc7lJmCA.s:332    .text.RTC_WriteProtectionCmd:0000000000000000 $t
     /tmp/cc7lJmCA.s:339    .text.RTC_WriteProtectionCmd:0000000000000000 RTC_WriteProtectionCmd
     /tmp/cc7lJmCA.s:381    .text.RTC_WriteProtectionCmd:000000000000002c $d
     /tmp/cc7lJmCA.s:386    .text.RTC_EnterInitMode:0000000000000000 $t
     /tmp/cc7lJmCA.s:473    .text.RTC_EnterInitMode:0000000000000070 $d
     /tmp/cc7lJmCA.s:478    .text.RTC_ExitInitMode:0000000000000000 $t
     /tmp/cc7lJmCA.s:504    .text.RTC_ExitInitMode:0000000000000010 $d
     /tmp/cc7lJmCA.s:509    .text.RTC_WaitForSynchro:0000000000000000 $t
     /tmp/cc7lJmCA.s:599    .text.RTC_WaitForSynchro:0000000000000070 $d
     /tmp/cc7lJmCA.s:604    .text.RTC_RefClockCmd:0000000000000000 $t
     /tmp/cc7lJmCA.s:611    .text.RTC_RefClockCmd:0000000000000000 RTC_RefClockCmd
     /tmp/cc7lJmCA.s:688    .text.RTC_RefClockCmd:000000000000006c $d
     /tmp/cc7lJmCA.s:693    .text.RTC_BypassShadowCmd:0000000000000000 $t
     /tmp/cc7lJmCA.s:700    .text.RTC_BypassShadowCmd:0000000000000000 RTC_BypassShadowCmd
     /tmp/cc7lJmCA.s:753    .text.RTC_BypassShadowCmd:0000000000000044 $d
     /tmp/cc7lJmCA.s:758    .text.RTC_SetTime:0000000000000000 $t
     /tmp/cc7lJmCA.s:765    .text.RTC_SetTime:0000000000000000 RTC_SetTime
     /tmp/cc7lJmCA.s:4363   .text.RTC_Bcd2ToByte:0000000000000000 RTC_Bcd2ToByte
     /tmp/cc7lJmCA.s:4308   .text.RTC_ByteToBcd2:0000000000000000 RTC_ByteToBcd2
     /tmp/cc7lJmCA.s:950    .text.RTC_SetTime:0000000000000118 $d
     /tmp/cc7lJmCA.s:955    .text.RTC_TimeStructInit:0000000000000000 $t
     /tmp/cc7lJmCA.s:962    .text.RTC_TimeStructInit:0000000000000000 RTC_TimeStructInit
     /tmp/cc7lJmCA.s:1000   .text.RTC_GetTime:0000000000000000 $t
     /tmp/cc7lJmCA.s:1007   .text.RTC_GetTime:0000000000000000 RTC_GetTime
     /tmp/cc7lJmCA.s:1104   .text.RTC_GetTime:000000000000009c $d
     /tmp/cc7lJmCA.s:1109   .text.RTC_GetSubSecond:0000000000000000 $t
     /tmp/cc7lJmCA.s:1116   .text.RTC_GetSubSecond:0000000000000000 RTC_GetSubSecond
     /tmp/cc7lJmCA.s:1148   .text.RTC_GetSubSecond:0000000000000018 $d
     /tmp/cc7lJmCA.s:1153   .text.RTC_SetDate:0000000000000000 $t
     /tmp/cc7lJmCA.s:1160   .text.RTC_SetDate:0000000000000000 RTC_SetDate
     /tmp/cc7lJmCA.s:1348   .text.RTC_SetDate:0000000000000124 $d
     /tmp/cc7lJmCA.s:1353   .text.RTC_DateStructInit:0000000000000000 $t
     /tmp/cc7lJmCA.s:1360   .text.RTC_DateStructInit:0000000000000000 RTC_DateStructInit
     /tmp/cc7lJmCA.s:1398   .text.RTC_GetDate:0000000000000000 $t
     /tmp/cc7lJmCA.s:1405   .text.RTC_GetDate:0000000000000000 RTC_GetDate
     /tmp/cc7lJmCA.s:1500   .text.RTC_GetDate:0000000000000098 $d
     /tmp/cc7lJmCA.s:1505   .text.RTC_SetAlarm:0000000000000000 $t
     /tmp/cc7lJmCA.s:1512   .text.RTC_SetAlarm:0000000000000000 RTC_SetAlarm
     /tmp/cc7lJmCA.s:1722   .text.RTC_SetAlarm:0000000000000130 $d
     /tmp/cc7lJmCA.s:1727   .text.RTC_AlarmStructInit:0000000000000000 $t
     /tmp/cc7lJmCA.s:1734   .text.RTC_AlarmStructInit:0000000000000000 RTC_AlarmStructInit
     /tmp/cc7lJmCA.s:1784   .text.RTC_GetAlarm:0000000000000000 $t
     /tmp/cc7lJmCA.s:1791   .text.RTC_GetAlarm:0000000000000000 RTC_GetAlarm
     /tmp/cc7lJmCA.s:1925   .text.RTC_GetAlarm:00000000000000dc $d
     /tmp/cc7lJmCA.s:1930   .text.RTC_AlarmCmd:0000000000000000 $t
     /tmp/cc7lJmCA.s:1937   .text.RTC_AlarmCmd:0000000000000000 RTC_AlarmCmd
     /tmp/cc7lJmCA.s:2045   .text.RTC_AlarmCmd:000000000000009c $d
     /tmp/cc7lJmCA.s:2050   .text.RTC_AlarmSubSecondConfig:0000000000000000 $t
     /tmp/cc7lJmCA.s:2057   .text.RTC_AlarmSubSecondConfig:0000000000000000 RTC_AlarmSubSecondConfig
     /tmp/cc7lJmCA.s:2115   .text.RTC_AlarmSubSecondConfig:0000000000000044 $d
     /tmp/cc7lJmCA.s:2120   .text.RTC_GetAlarmSubSecond:0000000000000000 $t
     /tmp/cc7lJmCA.s:2127   .text.RTC_GetAlarmSubSecond:0000000000000000 RTC_GetAlarmSubSecond
     /tmp/cc7lJmCA.s:2170   .text.RTC_GetAlarmSubSecond:0000000000000030 $d
     /tmp/cc7lJmCA.s:2175   .text.RTC_WakeUpClockConfig:0000000000000000 $t
     /tmp/cc7lJmCA.s:2182   .text.RTC_WakeUpClockConfig:0000000000000000 RTC_WakeUpClockConfig
     /tmp/cc7lJmCA.s:2228   .text.RTC_WakeUpClockConfig:0000000000000034 $d
     /tmp/cc7lJmCA.s:2233   .text.RTC_SetWakeUpCounter:0000000000000000 $t
     /tmp/cc7lJmCA.s:2240   .text.RTC_SetWakeUpCounter:0000000000000000 RTC_SetWakeUpCounter
     /tmp/cc7lJmCA.s:2277   .text.RTC_SetWakeUpCounter:0000000000000024 $d
     /tmp/cc7lJmCA.s:2282   .text.RTC_GetWakeUpCounter:0000000000000000 $t
     /tmp/cc7lJmCA.s:2289   .text.RTC_GetWakeUpCounter:0000000000000000 RTC_GetWakeUpCounter
     /tmp/cc7lJmCA.s:2306   .text.RTC_GetWakeUpCounter:000000000000000c $d
     /tmp/cc7lJmCA.s:2311   .text.RTC_WakeUpCmd:0000000000000000 $t
     /tmp/cc7lJmCA.s:2318   .text.RTC_WakeUpCmd:0000000000000000 RTC_WakeUpCmd
     /tmp/cc7lJmCA.s:2418   .text.RTC_WakeUpCmd:0000000000000094 $d
     /tmp/cc7lJmCA.s:2423   .text.RTC_DayLightSavingConfig:0000000000000000 $t
     /tmp/cc7lJmCA.s:2430   .text.RTC_DayLightSavingConfig:0000000000000000 RTC_DayLightSavingConfig
     /tmp/cc7lJmCA.s:2479   .text.RTC_DayLightSavingConfig:000000000000003c $d
     /tmp/cc7lJmCA.s:2484   .text.RTC_GetStoreOperation:0000000000000000 $t
     /tmp/cc7lJmCA.s:2491   .text.RTC_GetStoreOperation:0000000000000000 RTC_GetStoreOperation
     /tmp/cc7lJmCA.s:2508   .text.RTC_GetStoreOperation:000000000000000c $d
     /tmp/cc7lJmCA.s:2513   .text.RTC_OutputConfig:0000000000000000 $t
     /tmp/cc7lJmCA.s:2520   .text.RTC_OutputConfig:0000000000000000 RTC_OutputConfig
     /tmp/cc7lJmCA.s:2569   .text.RTC_OutputConfig:000000000000003c $d
     /tmp/cc7lJmCA.s:2574   .text.RTC_CoarseCalibConfig:0000000000000000 $t
     /tmp/cc7lJmCA.s:2581   .text.RTC_CoarseCalibConfig:0000000000000000 RTC_CoarseCalibConfig
     /tmp/cc7lJmCA.s:2645   .text.RTC_CoarseCalibConfig:0000000000000054 $d
     /tmp/cc7lJmCA.s:2650   .text.RTC_CoarseCalibCmd:0000000000000000 $t
     /tmp/cc7lJmCA.s:2657   .text.RTC_CoarseCalibCmd:0000000000000000 RTC_CoarseCalibCmd
     /tmp/cc7lJmCA.s:2734   .text.RTC_CoarseCalibCmd:000000000000006c $d
     /tmp/cc7lJmCA.s:2739   .text.RTC_CalibOutputCmd:0000000000000000 $t
     /tmp/cc7lJmCA.s:2746   .text.RTC_CalibOutputCmd:0000000000000000 RTC_CalibOutputCmd
     /tmp/cc7lJmCA.s:2799   .text.RTC_CalibOutputCmd:0000000000000044 $d
     /tmp/cc7lJmCA.s:2804   .text.RTC_CalibOutputConfig:0000000000000000 $t
     /tmp/cc7lJmCA.s:2811   .text.RTC_CalibOutputConfig:0000000000000000 RTC_CalibOutputConfig
     /tmp/cc7lJmCA.s:2857   .text.RTC_CalibOutputConfig:0000000000000034 $d
     /tmp/cc7lJmCA.s:2862   .text.RTC_SmoothCalibConfig:0000000000000000 $t
     /tmp/cc7lJmCA.s:2869   .text.RTC_SmoothCalibConfig:0000000000000000 RTC_SmoothCalibConfig
     /tmp/cc7lJmCA.s:2960   .text.RTC_SmoothCalibConfig:0000000000000080 $d
     /tmp/cc7lJmCA.s:2965   .text.RTC_TimeStampCmd:0000000000000000 $t
     /tmp/cc7lJmCA.s:2972   .text.RTC_TimeStampCmd:0000000000000000 RTC_TimeStampCmd
     /tmp/cc7lJmCA.s:3038   .text.RTC_TimeStampCmd:0000000000000058 $d
     /tmp/cc7lJmCA.s:3043   .text.RTC_GetTimeStamp:0000000000000000 $t
     /tmp/cc7lJmCA.s:3050   .text.RTC_GetTimeStamp:0000000000000000 RTC_GetTimeStamp
     /tmp/cc7lJmCA.s:3210   .text.RTC_GetTimeStamp:000000000000011c $d
     /tmp/cc7lJmCA.s:3215   .text.RTC_GetTimeStampSubSecond:0000000000000000 $t
     /tmp/cc7lJmCA.s:3222   .text.RTC_GetTimeStampSubSecond:0000000000000000 RTC_GetTimeStampSubSecond
     /tmp/cc7lJmCA.s:3238   .text.RTC_GetTimeStampSubSecond:0000000000000008 $d
     /tmp/cc7lJmCA.s:3243   .text.RTC_TamperTriggerConfig:0000000000000000 $t
     /tmp/cc7lJmCA.s:3250   .text.RTC_TamperTriggerConfig:0000000000000000 RTC_TamperTriggerConfig
     /tmp/cc7lJmCA.s:3297   .text.RTC_TamperTriggerConfig:0000000000000034 $d
     /tmp/cc7lJmCA.s:3302   .text.RTC_TamperCmd:0000000000000000 $t
     /tmp/cc7lJmCA.s:3309   .text.RTC_TamperCmd:0000000000000000 RTC_TamperCmd
     /tmp/cc7lJmCA.s:3355   .text.RTC_TamperCmd:0000000000000034 $d
     /tmp/cc7lJmCA.s:3360   .text.RTC_TamperFilterConfig:0000000000000000 $t
     /tmp/cc7lJmCA.s:3367   .text.RTC_TamperFilterConfig:0000000000000000 RTC_TamperFilterConfig
     /tmp/cc7lJmCA.s:3401   .text.RTC_TamperFilterConfig:0000000000000024 $d
     /tmp/cc7lJmCA.s:3406   .text.RTC_TamperSamplingFreqConfig:0000000000000000 $t
     /tmp/cc7lJmCA.s:3413   .text.RTC_TamperSamplingFreqConfig:0000000000000000 RTC_TamperSamplingFreqConfig
     /tmp/cc7lJmCA.s:3447   .text.RTC_TamperSamplingFreqConfig:0000000000000024 $d
     /tmp/cc7lJmCA.s:3452   .text.RTC_TamperPinsPrechargeDuration:0000000000000000 $t
     /tmp/cc7lJmCA.s:3459   .text.RTC_TamperPinsPrechargeDuration:0000000000000000 RTC_TamperPinsPrechargeDuration
     /tmp/cc7lJmCA.s:3493   .text.RTC_TamperPinsPrechargeDuration:0000000000000024 $d
     /tmp/cc7lJmCA.s:3498   .text.RTC_TimeStampOnTamperDetectionCmd:0000000000000000 $t
     /tmp/cc7lJmCA.s:3505   .text.RTC_TimeStampOnTamperDetectionCmd:0000000000000000 RTC_TimeStampOnTamperDetectionCmd
     /tmp/cc7lJmCA.s:3547   .text.RTC_TimeStampOnTamperDetectionCmd:0000000000000030 $d
     /tmp/cc7lJmCA.s:3552   .text.RTC_TamperPullUpCmd:0000000000000000 $t
     /tmp/cc7lJmCA.s:3559   .text.RTC_TamperPullUpCmd:0000000000000000 RTC_TamperPullUpCmd
     /tmp/cc7lJmCA.s:3601   .text.RTC_TamperPullUpCmd:0000000000000030 $d
     /tmp/cc7lJmCA.s:3606   .text.RTC_WriteBackupRegister:0000000000000000 $t
     /tmp/cc7lJmCA.s:3613   .text.RTC_WriteBackupRegister:0000000000000000 RTC_WriteBackupRegister
     /tmp/cc7lJmCA.s:3652   .text.RTC_WriteBackupRegister:0000000000000028 $d
     /tmp/cc7lJmCA.s:3657   .text.RTC_ReadBackupRegister:0000000000000000 $t
     /tmp/cc7lJmCA.s:3664   .text.RTC_ReadBackupRegister:0000000000000000 RTC_ReadBackupRegister
     /tmp/cc7lJmCA.s:3700   .text.RTC_ReadBackupRegister:0000000000000020 $d
     /tmp/cc7lJmCA.s:3705   .text.RTC_TamperPinSelection:0000000000000000 $t
     /tmp/cc7lJmCA.s:3712   .text.RTC_TamperPinSelection:0000000000000000 RTC_TamperPinSelection
     /tmp/cc7lJmCA.s:3746   .text.RTC_TamperPinSelection:0000000000000024 $d
     /tmp/cc7lJmCA.s:3751   .text.RTC_TimeStampPinSelection:0000000000000000 $t
     /tmp/cc7lJmCA.s:3758   .text.RTC_TimeStampPinSelection:0000000000000000 RTC_TimeStampPinSelection
     /tmp/cc7lJmCA.s:3792   .text.RTC_TimeStampPinSelection:0000000000000024 $d
     /tmp/cc7lJmCA.s:3797   .text.RTC_OutputTypeConfig:0000000000000000 $t
     /tmp/cc7lJmCA.s:3804   .text.RTC_OutputTypeConfig:0000000000000000 RTC_OutputTypeConfig
     /tmp/cc7lJmCA.s:3838   .text.RTC_OutputTypeConfig:0000000000000024 $d
     /tmp/cc7lJmCA.s:3843   .text.RTC_SynchroShiftConfig:0000000000000000 $t
     /tmp/cc7lJmCA.s:3850   .text.RTC_SynchroShiftConfig:0000000000000000 RTC_SynchroShiftConfig
     /tmp/cc7lJmCA.s:3962   .text.RTC_SynchroShiftConfig:00000000000000a4 $d
     /tmp/cc7lJmCA.s:3967   .text.RTC_ITConfig:0000000000000000 $t
     /tmp/cc7lJmCA.s:3974   .text.RTC_ITConfig:0000000000000000 RTC_ITConfig
     /tmp/cc7lJmCA.s:4050   .text.RTC_ITConfig:0000000000000070 $d
     /tmp/cc7lJmCA.s:4055   .text.RTC_GetFlagStatus:0000000000000000 $t
     /tmp/cc7lJmCA.s:4062   .text.RTC_GetFlagStatus:0000000000000000 RTC_GetFlagStatus
     /tmp/cc7lJmCA.s:4112   .text.RTC_GetFlagStatus:000000000000003c $d
     /tmp/cc7lJmCA.s:4118   .text.RTC_ClearFlag:0000000000000000 $t
     /tmp/cc7lJmCA.s:4125   .text.RTC_ClearFlag:0000000000000000 RTC_ClearFlag
     /tmp/cc7lJmCA.s:4157   .text.RTC_ClearFlag:0000000000000024 $d
     /tmp/cc7lJmCA.s:4162   .text.RTC_GetITStatus:0000000000000000 $t
     /tmp/cc7lJmCA.s:4169   .text.RTC_GetITStatus:0000000000000000 RTC_GetITStatus
     /tmp/cc7lJmCA.s:4246   .text.RTC_GetITStatus:000000000000006c $d
     /tmp/cc7lJmCA.s:4251   .text.RTC_ClearITPendingBit:0000000000000000 $t
     /tmp/cc7lJmCA.s:4258   .text.RTC_ClearITPendingBit:0000000000000000 RTC_ClearITPendingBit
     /tmp/cc7lJmCA.s:4297   .text.RTC_ClearITPendingBit:000000000000002c $d
     /tmp/cc7lJmCA.s:4302   .text.RTC_ByteToBcd2:0000000000000000 $t
     /tmp/cc7lJmCA.s:4357   .text.RTC_Bcd2ToByte:0000000000000000 $t

NO UNDEFINED SYMBOLS
