   1              		.cpu cortex-m4
   2              		.eabi_attribute 27, 1
   3              		.eabi_attribute 28, 1
   4              		.eabi_attribute 23, 1
   5              		.eabi_attribute 24, 1
   6              		.eabi_attribute 25, 1
   7              		.eabi_attribute 26, 1
   8              		.eabi_attribute 30, 6
   9              		.eabi_attribute 34, 1
  10              		.eabi_attribute 18, 4
  11              		.file	"event_groups.c"
  12              		.text
  13              	.Ltext0:
  14              		.cfi_sections	.debug_frame
  15              		.section	.text.xEventGroupCreate,"ax",%progbits
  16              		.align	1
  17              		.global	xEventGroupCreate
  18              		.syntax unified
  19              		.thumb
  20              		.thumb_func
  21              		.fpu fpv4-sp-d16
  23              	xEventGroupCreate:
  24              	.LFB5:
  25              		.file 1 "/home/rdu/Workspace/project_templates/mcu/stm32_ws/src/libraries/FreeRTOS/Source/event_gr
   1:/home/rdu/Workspace/project_templates/mcu/stm32_ws/src/libraries/FreeRTOS/Source/event_groups.c **** /*
   2:/home/rdu/Workspace/project_templates/mcu/stm32_ws/src/libraries/FreeRTOS/Source/event_groups.c ****  * FreeRTOS Kernel V10.1.1
   3:/home/rdu/Workspace/project_templates/mcu/stm32_ws/src/libraries/FreeRTOS/Source/event_groups.c ****  * Copyright (C) 2018 Amazon.com, Inc. or its affiliates.  All Rights Reserved.
   4:/home/rdu/Workspace/project_templates/mcu/stm32_ws/src/libraries/FreeRTOS/Source/event_groups.c ****  *
   5:/home/rdu/Workspace/project_templates/mcu/stm32_ws/src/libraries/FreeRTOS/Source/event_groups.c ****  * Permission is hereby granted, free of charge, to any person obtaining a copy of
   6:/home/rdu/Workspace/project_templates/mcu/stm32_ws/src/libraries/FreeRTOS/Source/event_groups.c ****  * this software and associated documentation files (the "Software"), to deal in
   7:/home/rdu/Workspace/project_templates/mcu/stm32_ws/src/libraries/FreeRTOS/Source/event_groups.c ****  * the Software without restriction, including without limitation the rights to
   8:/home/rdu/Workspace/project_templates/mcu/stm32_ws/src/libraries/FreeRTOS/Source/event_groups.c ****  * use, copy, modify, merge, publish, distribute, sublicense, and/or sell copies of
   9:/home/rdu/Workspace/project_templates/mcu/stm32_ws/src/libraries/FreeRTOS/Source/event_groups.c ****  * the Software, and to permit persons to whom the Software is furnished to do so,
  10:/home/rdu/Workspace/project_templates/mcu/stm32_ws/src/libraries/FreeRTOS/Source/event_groups.c ****  * subject to the following conditions:
  11:/home/rdu/Workspace/project_templates/mcu/stm32_ws/src/libraries/FreeRTOS/Source/event_groups.c ****  *
  12:/home/rdu/Workspace/project_templates/mcu/stm32_ws/src/libraries/FreeRTOS/Source/event_groups.c ****  * The above copyright notice and this permission notice shall be included in all
  13:/home/rdu/Workspace/project_templates/mcu/stm32_ws/src/libraries/FreeRTOS/Source/event_groups.c ****  * copies or substantial portions of the Software.
  14:/home/rdu/Workspace/project_templates/mcu/stm32_ws/src/libraries/FreeRTOS/Source/event_groups.c ****  *
  15:/home/rdu/Workspace/project_templates/mcu/stm32_ws/src/libraries/FreeRTOS/Source/event_groups.c ****  * THE SOFTWARE IS PROVIDED "AS IS", WITHOUT WARRANTY OF ANY KIND, EXPRESS OR
  16:/home/rdu/Workspace/project_templates/mcu/stm32_ws/src/libraries/FreeRTOS/Source/event_groups.c ****  * IMPLIED, INCLUDING BUT NOT LIMITED TO THE WARRANTIES OF MERCHANTABILITY, FITNESS
  17:/home/rdu/Workspace/project_templates/mcu/stm32_ws/src/libraries/FreeRTOS/Source/event_groups.c ****  * FOR A PARTICULAR PURPOSE AND NONINFRINGEMENT. IN NO EVENT SHALL THE AUTHORS OR
  18:/home/rdu/Workspace/project_templates/mcu/stm32_ws/src/libraries/FreeRTOS/Source/event_groups.c ****  * COPYRIGHT HOLDERS BE LIABLE FOR ANY CLAIM, DAMAGES OR OTHER LIABILITY, WHETHER
  19:/home/rdu/Workspace/project_templates/mcu/stm32_ws/src/libraries/FreeRTOS/Source/event_groups.c ****  * IN AN ACTION OF CONTRACT, TORT OR OTHERWISE, ARISING FROM, OUT OF OR IN
  20:/home/rdu/Workspace/project_templates/mcu/stm32_ws/src/libraries/FreeRTOS/Source/event_groups.c ****  * CONNECTION WITH THE SOFTWARE OR THE USE OR OTHER DEALINGS IN THE SOFTWARE.
  21:/home/rdu/Workspace/project_templates/mcu/stm32_ws/src/libraries/FreeRTOS/Source/event_groups.c ****  *
  22:/home/rdu/Workspace/project_templates/mcu/stm32_ws/src/libraries/FreeRTOS/Source/event_groups.c ****  * http://www.FreeRTOS.org
  23:/home/rdu/Workspace/project_templates/mcu/stm32_ws/src/libraries/FreeRTOS/Source/event_groups.c ****  * http://aws.amazon.com/freertos
  24:/home/rdu/Workspace/project_templates/mcu/stm32_ws/src/libraries/FreeRTOS/Source/event_groups.c ****  *
  25:/home/rdu/Workspace/project_templates/mcu/stm32_ws/src/libraries/FreeRTOS/Source/event_groups.c ****  * 1 tab == 4 spaces!
  26:/home/rdu/Workspace/project_templates/mcu/stm32_ws/src/libraries/FreeRTOS/Source/event_groups.c ****  */
  27:/home/rdu/Workspace/project_templates/mcu/stm32_ws/src/libraries/FreeRTOS/Source/event_groups.c **** 
  28:/home/rdu/Workspace/project_templates/mcu/stm32_ws/src/libraries/FreeRTOS/Source/event_groups.c **** /* Standard includes. */
  29:/home/rdu/Workspace/project_templates/mcu/stm32_ws/src/libraries/FreeRTOS/Source/event_groups.c **** #include <stdlib.h>
  30:/home/rdu/Workspace/project_templates/mcu/stm32_ws/src/libraries/FreeRTOS/Source/event_groups.c **** 
  31:/home/rdu/Workspace/project_templates/mcu/stm32_ws/src/libraries/FreeRTOS/Source/event_groups.c **** /* Defining MPU_WRAPPERS_INCLUDED_FROM_API_FILE prevents task.h from redefining
  32:/home/rdu/Workspace/project_templates/mcu/stm32_ws/src/libraries/FreeRTOS/Source/event_groups.c **** all the API functions to use the MPU wrappers.  That should only be done when
  33:/home/rdu/Workspace/project_templates/mcu/stm32_ws/src/libraries/FreeRTOS/Source/event_groups.c **** task.h is included from an application file. */
  34:/home/rdu/Workspace/project_templates/mcu/stm32_ws/src/libraries/FreeRTOS/Source/event_groups.c **** #define MPU_WRAPPERS_INCLUDED_FROM_API_FILE
  35:/home/rdu/Workspace/project_templates/mcu/stm32_ws/src/libraries/FreeRTOS/Source/event_groups.c **** 
  36:/home/rdu/Workspace/project_templates/mcu/stm32_ws/src/libraries/FreeRTOS/Source/event_groups.c **** /* FreeRTOS includes. */
  37:/home/rdu/Workspace/project_templates/mcu/stm32_ws/src/libraries/FreeRTOS/Source/event_groups.c **** #include "FreeRTOS.h"
  38:/home/rdu/Workspace/project_templates/mcu/stm32_ws/src/libraries/FreeRTOS/Source/event_groups.c **** #include "task.h"
  39:/home/rdu/Workspace/project_templates/mcu/stm32_ws/src/libraries/FreeRTOS/Source/event_groups.c **** #include "timers.h"
  40:/home/rdu/Workspace/project_templates/mcu/stm32_ws/src/libraries/FreeRTOS/Source/event_groups.c **** #include "event_groups.h"
  41:/home/rdu/Workspace/project_templates/mcu/stm32_ws/src/libraries/FreeRTOS/Source/event_groups.c **** 
  42:/home/rdu/Workspace/project_templates/mcu/stm32_ws/src/libraries/FreeRTOS/Source/event_groups.c **** /* Lint e961, e750 and e9021 are suppressed as a MISRA exception justified
  43:/home/rdu/Workspace/project_templates/mcu/stm32_ws/src/libraries/FreeRTOS/Source/event_groups.c **** because the MPU ports require MPU_WRAPPERS_INCLUDED_FROM_API_FILE to be defined
  44:/home/rdu/Workspace/project_templates/mcu/stm32_ws/src/libraries/FreeRTOS/Source/event_groups.c **** for the header files above, but not in this file, in order to generate the
  45:/home/rdu/Workspace/project_templates/mcu/stm32_ws/src/libraries/FreeRTOS/Source/event_groups.c **** correct privileged Vs unprivileged linkage and placement. */
  46:/home/rdu/Workspace/project_templates/mcu/stm32_ws/src/libraries/FreeRTOS/Source/event_groups.c **** #undef MPU_WRAPPERS_INCLUDED_FROM_API_FILE /*lint !e961 !e750 !e9021 See comment above. */
  47:/home/rdu/Workspace/project_templates/mcu/stm32_ws/src/libraries/FreeRTOS/Source/event_groups.c **** 
  48:/home/rdu/Workspace/project_templates/mcu/stm32_ws/src/libraries/FreeRTOS/Source/event_groups.c **** /* The following bit fields convey control information in a task's event list
  49:/home/rdu/Workspace/project_templates/mcu/stm32_ws/src/libraries/FreeRTOS/Source/event_groups.c **** item value.  It is important they don't clash with the
  50:/home/rdu/Workspace/project_templates/mcu/stm32_ws/src/libraries/FreeRTOS/Source/event_groups.c **** taskEVENT_LIST_ITEM_VALUE_IN_USE definition. */
  51:/home/rdu/Workspace/project_templates/mcu/stm32_ws/src/libraries/FreeRTOS/Source/event_groups.c **** #if configUSE_16_BIT_TICKS == 1
  52:/home/rdu/Workspace/project_templates/mcu/stm32_ws/src/libraries/FreeRTOS/Source/event_groups.c **** 	#define eventCLEAR_EVENTS_ON_EXIT_BIT	0x0100U
  53:/home/rdu/Workspace/project_templates/mcu/stm32_ws/src/libraries/FreeRTOS/Source/event_groups.c **** 	#define eventUNBLOCKED_DUE_TO_BIT_SET	0x0200U
  54:/home/rdu/Workspace/project_templates/mcu/stm32_ws/src/libraries/FreeRTOS/Source/event_groups.c **** 	#define eventWAIT_FOR_ALL_BITS			0x0400U
  55:/home/rdu/Workspace/project_templates/mcu/stm32_ws/src/libraries/FreeRTOS/Source/event_groups.c **** 	#define eventEVENT_BITS_CONTROL_BYTES	0xff00U
  56:/home/rdu/Workspace/project_templates/mcu/stm32_ws/src/libraries/FreeRTOS/Source/event_groups.c **** #else
  57:/home/rdu/Workspace/project_templates/mcu/stm32_ws/src/libraries/FreeRTOS/Source/event_groups.c **** 	#define eventCLEAR_EVENTS_ON_EXIT_BIT	0x01000000UL
  58:/home/rdu/Workspace/project_templates/mcu/stm32_ws/src/libraries/FreeRTOS/Source/event_groups.c **** 	#define eventUNBLOCKED_DUE_TO_BIT_SET	0x02000000UL
  59:/home/rdu/Workspace/project_templates/mcu/stm32_ws/src/libraries/FreeRTOS/Source/event_groups.c **** 	#define eventWAIT_FOR_ALL_BITS			0x04000000UL
  60:/home/rdu/Workspace/project_templates/mcu/stm32_ws/src/libraries/FreeRTOS/Source/event_groups.c **** 	#define eventEVENT_BITS_CONTROL_BYTES	0xff000000UL
  61:/home/rdu/Workspace/project_templates/mcu/stm32_ws/src/libraries/FreeRTOS/Source/event_groups.c **** #endif
  62:/home/rdu/Workspace/project_templates/mcu/stm32_ws/src/libraries/FreeRTOS/Source/event_groups.c **** 
  63:/home/rdu/Workspace/project_templates/mcu/stm32_ws/src/libraries/FreeRTOS/Source/event_groups.c **** typedef struct EventGroupDef_t
  64:/home/rdu/Workspace/project_templates/mcu/stm32_ws/src/libraries/FreeRTOS/Source/event_groups.c **** {
  65:/home/rdu/Workspace/project_templates/mcu/stm32_ws/src/libraries/FreeRTOS/Source/event_groups.c **** 	EventBits_t uxEventBits;
  66:/home/rdu/Workspace/project_templates/mcu/stm32_ws/src/libraries/FreeRTOS/Source/event_groups.c **** 	List_t xTasksWaitingForBits;		/*< List of tasks waiting for a bit to be set. */
  67:/home/rdu/Workspace/project_templates/mcu/stm32_ws/src/libraries/FreeRTOS/Source/event_groups.c **** 
  68:/home/rdu/Workspace/project_templates/mcu/stm32_ws/src/libraries/FreeRTOS/Source/event_groups.c **** 	#if( configUSE_TRACE_FACILITY == 1 )
  69:/home/rdu/Workspace/project_templates/mcu/stm32_ws/src/libraries/FreeRTOS/Source/event_groups.c **** 		UBaseType_t uxEventGroupNumber;
  70:/home/rdu/Workspace/project_templates/mcu/stm32_ws/src/libraries/FreeRTOS/Source/event_groups.c **** 	#endif
  71:/home/rdu/Workspace/project_templates/mcu/stm32_ws/src/libraries/FreeRTOS/Source/event_groups.c **** 
  72:/home/rdu/Workspace/project_templates/mcu/stm32_ws/src/libraries/FreeRTOS/Source/event_groups.c **** 	#if( ( configSUPPORT_STATIC_ALLOCATION == 1 ) && ( configSUPPORT_DYNAMIC_ALLOCATION == 1 ) )
  73:/home/rdu/Workspace/project_templates/mcu/stm32_ws/src/libraries/FreeRTOS/Source/event_groups.c **** 		uint8_t ucStaticallyAllocated; /*< Set to pdTRUE if the event group is statically allocated to en
  74:/home/rdu/Workspace/project_templates/mcu/stm32_ws/src/libraries/FreeRTOS/Source/event_groups.c **** 	#endif
  75:/home/rdu/Workspace/project_templates/mcu/stm32_ws/src/libraries/FreeRTOS/Source/event_groups.c **** } EventGroup_t;
  76:/home/rdu/Workspace/project_templates/mcu/stm32_ws/src/libraries/FreeRTOS/Source/event_groups.c **** 
  77:/home/rdu/Workspace/project_templates/mcu/stm32_ws/src/libraries/FreeRTOS/Source/event_groups.c **** /*-----------------------------------------------------------*/
  78:/home/rdu/Workspace/project_templates/mcu/stm32_ws/src/libraries/FreeRTOS/Source/event_groups.c **** 
  79:/home/rdu/Workspace/project_templates/mcu/stm32_ws/src/libraries/FreeRTOS/Source/event_groups.c **** /*
  80:/home/rdu/Workspace/project_templates/mcu/stm32_ws/src/libraries/FreeRTOS/Source/event_groups.c ****  * Test the bits set in uxCurrentEventBits to see if the wait condition is met.
  81:/home/rdu/Workspace/project_templates/mcu/stm32_ws/src/libraries/FreeRTOS/Source/event_groups.c ****  * The wait condition is defined by xWaitForAllBits.  If xWaitForAllBits is
  82:/home/rdu/Workspace/project_templates/mcu/stm32_ws/src/libraries/FreeRTOS/Source/event_groups.c ****  * pdTRUE then the wait condition is met if all the bits set in uxBitsToWaitFor
  83:/home/rdu/Workspace/project_templates/mcu/stm32_ws/src/libraries/FreeRTOS/Source/event_groups.c ****  * are also set in uxCurrentEventBits.  If xWaitForAllBits is pdFALSE then the
  84:/home/rdu/Workspace/project_templates/mcu/stm32_ws/src/libraries/FreeRTOS/Source/event_groups.c ****  * wait condition is met if any of the bits set in uxBitsToWait for are also set
  85:/home/rdu/Workspace/project_templates/mcu/stm32_ws/src/libraries/FreeRTOS/Source/event_groups.c ****  * in uxCurrentEventBits.
  86:/home/rdu/Workspace/project_templates/mcu/stm32_ws/src/libraries/FreeRTOS/Source/event_groups.c ****  */
  87:/home/rdu/Workspace/project_templates/mcu/stm32_ws/src/libraries/FreeRTOS/Source/event_groups.c **** static BaseType_t prvTestWaitCondition( const EventBits_t uxCurrentEventBits, const EventBits_t uxB
  88:/home/rdu/Workspace/project_templates/mcu/stm32_ws/src/libraries/FreeRTOS/Source/event_groups.c **** 
  89:/home/rdu/Workspace/project_templates/mcu/stm32_ws/src/libraries/FreeRTOS/Source/event_groups.c **** /*-----------------------------------------------------------*/
  90:/home/rdu/Workspace/project_templates/mcu/stm32_ws/src/libraries/FreeRTOS/Source/event_groups.c **** 
  91:/home/rdu/Workspace/project_templates/mcu/stm32_ws/src/libraries/FreeRTOS/Source/event_groups.c **** #if( configSUPPORT_STATIC_ALLOCATION == 1 )
  92:/home/rdu/Workspace/project_templates/mcu/stm32_ws/src/libraries/FreeRTOS/Source/event_groups.c **** 
  93:/home/rdu/Workspace/project_templates/mcu/stm32_ws/src/libraries/FreeRTOS/Source/event_groups.c **** 	EventGroupHandle_t xEventGroupCreateStatic( StaticEventGroup_t *pxEventGroupBuffer )
  94:/home/rdu/Workspace/project_templates/mcu/stm32_ws/src/libraries/FreeRTOS/Source/event_groups.c **** 	{
  95:/home/rdu/Workspace/project_templates/mcu/stm32_ws/src/libraries/FreeRTOS/Source/event_groups.c **** 	EventGroup_t *pxEventBits;
  96:/home/rdu/Workspace/project_templates/mcu/stm32_ws/src/libraries/FreeRTOS/Source/event_groups.c **** 
  97:/home/rdu/Workspace/project_templates/mcu/stm32_ws/src/libraries/FreeRTOS/Source/event_groups.c **** 		/* A StaticEventGroup_t object must be provided. */
  98:/home/rdu/Workspace/project_templates/mcu/stm32_ws/src/libraries/FreeRTOS/Source/event_groups.c **** 		configASSERT( pxEventGroupBuffer );
  99:/home/rdu/Workspace/project_templates/mcu/stm32_ws/src/libraries/FreeRTOS/Source/event_groups.c **** 
 100:/home/rdu/Workspace/project_templates/mcu/stm32_ws/src/libraries/FreeRTOS/Source/event_groups.c **** 		#if( configASSERT_DEFINED == 1 )
 101:/home/rdu/Workspace/project_templates/mcu/stm32_ws/src/libraries/FreeRTOS/Source/event_groups.c **** 		{
 102:/home/rdu/Workspace/project_templates/mcu/stm32_ws/src/libraries/FreeRTOS/Source/event_groups.c **** 			/* Sanity check that the size of the structure used to declare a
 103:/home/rdu/Workspace/project_templates/mcu/stm32_ws/src/libraries/FreeRTOS/Source/event_groups.c **** 			variable of type StaticEventGroup_t equals the size of the real
 104:/home/rdu/Workspace/project_templates/mcu/stm32_ws/src/libraries/FreeRTOS/Source/event_groups.c **** 			event group structure. */
 105:/home/rdu/Workspace/project_templates/mcu/stm32_ws/src/libraries/FreeRTOS/Source/event_groups.c **** 			volatile size_t xSize = sizeof( StaticEventGroup_t );
 106:/home/rdu/Workspace/project_templates/mcu/stm32_ws/src/libraries/FreeRTOS/Source/event_groups.c **** 			configASSERT( xSize == sizeof( EventGroup_t ) );
 107:/home/rdu/Workspace/project_templates/mcu/stm32_ws/src/libraries/FreeRTOS/Source/event_groups.c **** 		} /*lint !e529 xSize is referenced if configASSERT() is defined. */
 108:/home/rdu/Workspace/project_templates/mcu/stm32_ws/src/libraries/FreeRTOS/Source/event_groups.c **** 		#endif /* configASSERT_DEFINED */
 109:/home/rdu/Workspace/project_templates/mcu/stm32_ws/src/libraries/FreeRTOS/Source/event_groups.c **** 
 110:/home/rdu/Workspace/project_templates/mcu/stm32_ws/src/libraries/FreeRTOS/Source/event_groups.c **** 		/* The user has provided a statically allocated event group - use it. */
 111:/home/rdu/Workspace/project_templates/mcu/stm32_ws/src/libraries/FreeRTOS/Source/event_groups.c **** 		pxEventBits = ( EventGroup_t * ) pxEventGroupBuffer; /*lint !e740 !e9087 EventGroup_t and StaticE
 112:/home/rdu/Workspace/project_templates/mcu/stm32_ws/src/libraries/FreeRTOS/Source/event_groups.c **** 
 113:/home/rdu/Workspace/project_templates/mcu/stm32_ws/src/libraries/FreeRTOS/Source/event_groups.c **** 		if( pxEventBits != NULL )
 114:/home/rdu/Workspace/project_templates/mcu/stm32_ws/src/libraries/FreeRTOS/Source/event_groups.c **** 		{
 115:/home/rdu/Workspace/project_templates/mcu/stm32_ws/src/libraries/FreeRTOS/Source/event_groups.c **** 			pxEventBits->uxEventBits = 0;
 116:/home/rdu/Workspace/project_templates/mcu/stm32_ws/src/libraries/FreeRTOS/Source/event_groups.c **** 			vListInitialise( &( pxEventBits->xTasksWaitingForBits ) );
 117:/home/rdu/Workspace/project_templates/mcu/stm32_ws/src/libraries/FreeRTOS/Source/event_groups.c **** 
 118:/home/rdu/Workspace/project_templates/mcu/stm32_ws/src/libraries/FreeRTOS/Source/event_groups.c **** 			#if( configSUPPORT_DYNAMIC_ALLOCATION == 1 )
 119:/home/rdu/Workspace/project_templates/mcu/stm32_ws/src/libraries/FreeRTOS/Source/event_groups.c **** 			{
 120:/home/rdu/Workspace/project_templates/mcu/stm32_ws/src/libraries/FreeRTOS/Source/event_groups.c **** 				/* Both static and dynamic allocation can be used, so note that
 121:/home/rdu/Workspace/project_templates/mcu/stm32_ws/src/libraries/FreeRTOS/Source/event_groups.c **** 				this event group was created statically in case the event group
 122:/home/rdu/Workspace/project_templates/mcu/stm32_ws/src/libraries/FreeRTOS/Source/event_groups.c **** 				is later deleted. */
 123:/home/rdu/Workspace/project_templates/mcu/stm32_ws/src/libraries/FreeRTOS/Source/event_groups.c **** 				pxEventBits->ucStaticallyAllocated = pdTRUE;
 124:/home/rdu/Workspace/project_templates/mcu/stm32_ws/src/libraries/FreeRTOS/Source/event_groups.c **** 			}
 125:/home/rdu/Workspace/project_templates/mcu/stm32_ws/src/libraries/FreeRTOS/Source/event_groups.c **** 			#endif /* configSUPPORT_DYNAMIC_ALLOCATION */
 126:/home/rdu/Workspace/project_templates/mcu/stm32_ws/src/libraries/FreeRTOS/Source/event_groups.c **** 
 127:/home/rdu/Workspace/project_templates/mcu/stm32_ws/src/libraries/FreeRTOS/Source/event_groups.c **** 			traceEVENT_GROUP_CREATE( pxEventBits );
 128:/home/rdu/Workspace/project_templates/mcu/stm32_ws/src/libraries/FreeRTOS/Source/event_groups.c **** 		}
 129:/home/rdu/Workspace/project_templates/mcu/stm32_ws/src/libraries/FreeRTOS/Source/event_groups.c **** 		else
 130:/home/rdu/Workspace/project_templates/mcu/stm32_ws/src/libraries/FreeRTOS/Source/event_groups.c **** 		{
 131:/home/rdu/Workspace/project_templates/mcu/stm32_ws/src/libraries/FreeRTOS/Source/event_groups.c **** 			/* xEventGroupCreateStatic should only ever be called with
 132:/home/rdu/Workspace/project_templates/mcu/stm32_ws/src/libraries/FreeRTOS/Source/event_groups.c **** 			pxEventGroupBuffer pointing to a pre-allocated (compile time
 133:/home/rdu/Workspace/project_templates/mcu/stm32_ws/src/libraries/FreeRTOS/Source/event_groups.c **** 			allocated) StaticEventGroup_t variable. */
 134:/home/rdu/Workspace/project_templates/mcu/stm32_ws/src/libraries/FreeRTOS/Source/event_groups.c **** 			traceEVENT_GROUP_CREATE_FAILED();
 135:/home/rdu/Workspace/project_templates/mcu/stm32_ws/src/libraries/FreeRTOS/Source/event_groups.c **** 		}
 136:/home/rdu/Workspace/project_templates/mcu/stm32_ws/src/libraries/FreeRTOS/Source/event_groups.c **** 
 137:/home/rdu/Workspace/project_templates/mcu/stm32_ws/src/libraries/FreeRTOS/Source/event_groups.c **** 		return pxEventBits;
 138:/home/rdu/Workspace/project_templates/mcu/stm32_ws/src/libraries/FreeRTOS/Source/event_groups.c **** 	}
 139:/home/rdu/Workspace/project_templates/mcu/stm32_ws/src/libraries/FreeRTOS/Source/event_groups.c **** 
 140:/home/rdu/Workspace/project_templates/mcu/stm32_ws/src/libraries/FreeRTOS/Source/event_groups.c **** #endif /* configSUPPORT_STATIC_ALLOCATION */
 141:/home/rdu/Workspace/project_templates/mcu/stm32_ws/src/libraries/FreeRTOS/Source/event_groups.c **** /*-----------------------------------------------------------*/
 142:/home/rdu/Workspace/project_templates/mcu/stm32_ws/src/libraries/FreeRTOS/Source/event_groups.c **** 
 143:/home/rdu/Workspace/project_templates/mcu/stm32_ws/src/libraries/FreeRTOS/Source/event_groups.c **** #if( configSUPPORT_DYNAMIC_ALLOCATION == 1 )
 144:/home/rdu/Workspace/project_templates/mcu/stm32_ws/src/libraries/FreeRTOS/Source/event_groups.c **** 
 145:/home/rdu/Workspace/project_templates/mcu/stm32_ws/src/libraries/FreeRTOS/Source/event_groups.c **** 	EventGroupHandle_t xEventGroupCreate( void )
 146:/home/rdu/Workspace/project_templates/mcu/stm32_ws/src/libraries/FreeRTOS/Source/event_groups.c **** 	{
  26              		.loc 1 146 0
  27              		.cfi_startproc
  28              		@ args = 0, pretend = 0, frame = 8
  29              		@ frame_needed = 0, uses_anonymous_args = 0
  30 0000 00B5     		push	{lr}
  31              	.LCFI0:
  32              		.cfi_def_cfa_offset 4
  33              		.cfi_offset 14, -4
  34 0002 83B0     		sub	sp, sp, #12
  35              	.LCFI1:
  36              		.cfi_def_cfa_offset 16
 147:/home/rdu/Workspace/project_templates/mcu/stm32_ws/src/libraries/FreeRTOS/Source/event_groups.c **** 	EventGroup_t *pxEventBits;
 148:/home/rdu/Workspace/project_templates/mcu/stm32_ws/src/libraries/FreeRTOS/Source/event_groups.c **** 
 149:/home/rdu/Workspace/project_templates/mcu/stm32_ws/src/libraries/FreeRTOS/Source/event_groups.c **** 		/* Allocate the event group.  Justification for MISRA deviation as
 150:/home/rdu/Workspace/project_templates/mcu/stm32_ws/src/libraries/FreeRTOS/Source/event_groups.c **** 		follows:  pvPortMalloc() always ensures returned memory blocks are
 151:/home/rdu/Workspace/project_templates/mcu/stm32_ws/src/libraries/FreeRTOS/Source/event_groups.c **** 		aligned per the requirements of the MCU stack.  In this case
 152:/home/rdu/Workspace/project_templates/mcu/stm32_ws/src/libraries/FreeRTOS/Source/event_groups.c **** 		pvPortMalloc() must return a pointer that is guaranteed to meet the
 153:/home/rdu/Workspace/project_templates/mcu/stm32_ws/src/libraries/FreeRTOS/Source/event_groups.c **** 		alignment requirements of the EventGroup_t structure - which (if you
 154:/home/rdu/Workspace/project_templates/mcu/stm32_ws/src/libraries/FreeRTOS/Source/event_groups.c **** 		follow it through) is the alignment requirements of the TickType_t type
 155:/home/rdu/Workspace/project_templates/mcu/stm32_ws/src/libraries/FreeRTOS/Source/event_groups.c **** 		(EventBits_t being of TickType_t itself).  Therefore, whenever the
 156:/home/rdu/Workspace/project_templates/mcu/stm32_ws/src/libraries/FreeRTOS/Source/event_groups.c **** 		stack alignment requirements are greater than or equal to the
 157:/home/rdu/Workspace/project_templates/mcu/stm32_ws/src/libraries/FreeRTOS/Source/event_groups.c **** 		TickType_t alignment requirements the cast is safe.  In other cases,
 158:/home/rdu/Workspace/project_templates/mcu/stm32_ws/src/libraries/FreeRTOS/Source/event_groups.c **** 		where the natural word size of the architecture is less than
 159:/home/rdu/Workspace/project_templates/mcu/stm32_ws/src/libraries/FreeRTOS/Source/event_groups.c **** 		sizeof( TickType_t ), the TickType_t variables will be accessed in two
 160:/home/rdu/Workspace/project_templates/mcu/stm32_ws/src/libraries/FreeRTOS/Source/event_groups.c **** 		or more reads operations, and the alignment requirements is only that
 161:/home/rdu/Workspace/project_templates/mcu/stm32_ws/src/libraries/FreeRTOS/Source/event_groups.c **** 		of each individual read. */
 162:/home/rdu/Workspace/project_templates/mcu/stm32_ws/src/libraries/FreeRTOS/Source/event_groups.c **** 		pxEventBits = ( EventGroup_t * ) pvPortMalloc( sizeof( EventGroup_t ) ); /*lint !e9087 !e9079 see
  37              		.loc 1 162 0
  38 0004 1C20     		movs	r0, #28
  39 0006 FFF7FEFF 		bl	pvPortMalloc
  40 000a 0190     		str	r0, [sp, #4]
 163:/home/rdu/Workspace/project_templates/mcu/stm32_ws/src/libraries/FreeRTOS/Source/event_groups.c **** 
 164:/home/rdu/Workspace/project_templates/mcu/stm32_ws/src/libraries/FreeRTOS/Source/event_groups.c **** 		if( pxEventBits != NULL )
  41              		.loc 1 164 0
  42 000c 019B     		ldr	r3, [sp, #4]
  43 000e 002B     		cmp	r3, #0
  44 0010 07D0     		beq	.L2
 165:/home/rdu/Workspace/project_templates/mcu/stm32_ws/src/libraries/FreeRTOS/Source/event_groups.c **** 		{
 166:/home/rdu/Workspace/project_templates/mcu/stm32_ws/src/libraries/FreeRTOS/Source/event_groups.c **** 			pxEventBits->uxEventBits = 0;
  45              		.loc 1 166 0
  46 0012 019B     		ldr	r3, [sp, #4]
  47 0014 0022     		movs	r2, #0
  48 0016 1A60     		str	r2, [r3]
 167:/home/rdu/Workspace/project_templates/mcu/stm32_ws/src/libraries/FreeRTOS/Source/event_groups.c **** 			vListInitialise( &( pxEventBits->xTasksWaitingForBits ) );
  49              		.loc 1 167 0
  50 0018 019B     		ldr	r3, [sp, #4]
  51 001a 0433     		adds	r3, r3, #4
  52 001c 1846     		mov	r0, r3
  53 001e FFF7FEFF 		bl	vListInitialise
  54              	.L2:
 168:/home/rdu/Workspace/project_templates/mcu/stm32_ws/src/libraries/FreeRTOS/Source/event_groups.c **** 
 169:/home/rdu/Workspace/project_templates/mcu/stm32_ws/src/libraries/FreeRTOS/Source/event_groups.c **** 			#if( configSUPPORT_STATIC_ALLOCATION == 1 )
 170:/home/rdu/Workspace/project_templates/mcu/stm32_ws/src/libraries/FreeRTOS/Source/event_groups.c **** 			{
 171:/home/rdu/Workspace/project_templates/mcu/stm32_ws/src/libraries/FreeRTOS/Source/event_groups.c **** 				/* Both static and dynamic allocation can be used, so note this
 172:/home/rdu/Workspace/project_templates/mcu/stm32_ws/src/libraries/FreeRTOS/Source/event_groups.c **** 				event group was allocated statically in case the event group is
 173:/home/rdu/Workspace/project_templates/mcu/stm32_ws/src/libraries/FreeRTOS/Source/event_groups.c **** 				later deleted. */
 174:/home/rdu/Workspace/project_templates/mcu/stm32_ws/src/libraries/FreeRTOS/Source/event_groups.c **** 				pxEventBits->ucStaticallyAllocated = pdFALSE;
 175:/home/rdu/Workspace/project_templates/mcu/stm32_ws/src/libraries/FreeRTOS/Source/event_groups.c **** 			}
 176:/home/rdu/Workspace/project_templates/mcu/stm32_ws/src/libraries/FreeRTOS/Source/event_groups.c **** 			#endif /* configSUPPORT_STATIC_ALLOCATION */
 177:/home/rdu/Workspace/project_templates/mcu/stm32_ws/src/libraries/FreeRTOS/Source/event_groups.c **** 
 178:/home/rdu/Workspace/project_templates/mcu/stm32_ws/src/libraries/FreeRTOS/Source/event_groups.c **** 			traceEVENT_GROUP_CREATE( pxEventBits );
 179:/home/rdu/Workspace/project_templates/mcu/stm32_ws/src/libraries/FreeRTOS/Source/event_groups.c **** 		}
 180:/home/rdu/Workspace/project_templates/mcu/stm32_ws/src/libraries/FreeRTOS/Source/event_groups.c **** 		else
 181:/home/rdu/Workspace/project_templates/mcu/stm32_ws/src/libraries/FreeRTOS/Source/event_groups.c **** 		{
 182:/home/rdu/Workspace/project_templates/mcu/stm32_ws/src/libraries/FreeRTOS/Source/event_groups.c **** 			traceEVENT_GROUP_CREATE_FAILED(); /*lint !e9063 Else branch only exists to allow tracing and doe
 183:/home/rdu/Workspace/project_templates/mcu/stm32_ws/src/libraries/FreeRTOS/Source/event_groups.c **** 		}
 184:/home/rdu/Workspace/project_templates/mcu/stm32_ws/src/libraries/FreeRTOS/Source/event_groups.c **** 
 185:/home/rdu/Workspace/project_templates/mcu/stm32_ws/src/libraries/FreeRTOS/Source/event_groups.c **** 		return pxEventBits;
  55              		.loc 1 185 0
  56 0022 019B     		ldr	r3, [sp, #4]
 186:/home/rdu/Workspace/project_templates/mcu/stm32_ws/src/libraries/FreeRTOS/Source/event_groups.c **** 	}
  57              		.loc 1 186 0
  58 0024 1846     		mov	r0, r3
  59 0026 03B0     		add	sp, sp, #12
  60              	.LCFI2:
  61              		.cfi_def_cfa_offset 4
  62              		@ sp needed
  63 0028 5DF804FB 		ldr	pc, [sp], #4
  64              		.cfi_endproc
  65              	.LFE5:
  67              		.section	.text.xEventGroupSync,"ax",%progbits
  68              		.align	1
  69              		.global	xEventGroupSync
  70              		.syntax unified
  71              		.thumb
  72              		.thumb_func
  73              		.fpu fpv4-sp-d16
  75              	xEventGroupSync:
  76              	.LFB6:
 187:/home/rdu/Workspace/project_templates/mcu/stm32_ws/src/libraries/FreeRTOS/Source/event_groups.c **** 
 188:/home/rdu/Workspace/project_templates/mcu/stm32_ws/src/libraries/FreeRTOS/Source/event_groups.c **** #endif /* configSUPPORT_DYNAMIC_ALLOCATION */
 189:/home/rdu/Workspace/project_templates/mcu/stm32_ws/src/libraries/FreeRTOS/Source/event_groups.c **** /*-----------------------------------------------------------*/
 190:/home/rdu/Workspace/project_templates/mcu/stm32_ws/src/libraries/FreeRTOS/Source/event_groups.c **** 
 191:/home/rdu/Workspace/project_templates/mcu/stm32_ws/src/libraries/FreeRTOS/Source/event_groups.c **** EventBits_t xEventGroupSync( EventGroupHandle_t xEventGroup, const EventBits_t uxBitsToSet, const E
 192:/home/rdu/Workspace/project_templates/mcu/stm32_ws/src/libraries/FreeRTOS/Source/event_groups.c **** {
  77              		.loc 1 192 0
  78              		.cfi_startproc
  79              		@ args = 0, pretend = 0, frame = 48
  80              		@ frame_needed = 0, uses_anonymous_args = 0
  81 0000 00B5     		push	{lr}
  82              	.LCFI3:
  83              		.cfi_def_cfa_offset 4
  84              		.cfi_offset 14, -4
  85 0002 8DB0     		sub	sp, sp, #52
  86              	.LCFI4:
  87              		.cfi_def_cfa_offset 56
  88 0004 0390     		str	r0, [sp, #12]
  89 0006 0291     		str	r1, [sp, #8]
  90 0008 0192     		str	r2, [sp, #4]
  91 000a 0093     		str	r3, [sp]
 193:/home/rdu/Workspace/project_templates/mcu/stm32_ws/src/libraries/FreeRTOS/Source/event_groups.c **** EventBits_t uxOriginalBitValue, uxReturn;
 194:/home/rdu/Workspace/project_templates/mcu/stm32_ws/src/libraries/FreeRTOS/Source/event_groups.c **** EventGroup_t *pxEventBits = xEventGroup;
  92              		.loc 1 194 0
  93 000c 039B     		ldr	r3, [sp, #12]
  94 000e 0A93     		str	r3, [sp, #40]
 195:/home/rdu/Workspace/project_templates/mcu/stm32_ws/src/libraries/FreeRTOS/Source/event_groups.c **** BaseType_t xAlreadyYielded;
 196:/home/rdu/Workspace/project_templates/mcu/stm32_ws/src/libraries/FreeRTOS/Source/event_groups.c **** BaseType_t xTimeoutOccurred = pdFALSE;
  95              		.loc 1 196 0
  96 0010 0023     		movs	r3, #0
  97 0012 0993     		str	r3, [sp, #36]
 197:/home/rdu/Workspace/project_templates/mcu/stm32_ws/src/libraries/FreeRTOS/Source/event_groups.c **** 
 198:/home/rdu/Workspace/project_templates/mcu/stm32_ws/src/libraries/FreeRTOS/Source/event_groups.c **** 	configASSERT( ( uxBitsToWaitFor & eventEVENT_BITS_CONTROL_BYTES ) == 0 );
  98              		.loc 1 198 0
  99 0014 019B     		ldr	r3, [sp, #4]
 100 0016 03F07F43 		and	r3, r3, #-16777216
 101 001a 002B     		cmp	r3, #0
 102 001c 09D0     		beq	.L5
 103              	.LBB31:
 104              	.LBB32:
 105              		.file 2 "/home/rdu/Workspace/project_templates/mcu/stm32_ws/src/libraries/FreeRTOS/Source/portable
   1:/home/rdu/Workspace/project_templates/mcu/stm32_ws/src/libraries/FreeRTOS/Source/portable/GCC/ARM_CM4F/portmacro.h **** /*
   2:/home/rdu/Workspace/project_templates/mcu/stm32_ws/src/libraries/FreeRTOS/Source/portable/GCC/ARM_CM4F/portmacro.h ****  * FreeRTOS Kernel V10.1.1
   3:/home/rdu/Workspace/project_templates/mcu/stm32_ws/src/libraries/FreeRTOS/Source/portable/GCC/ARM_CM4F/portmacro.h ****  * Copyright (C) 2018 Amazon.com, Inc. or its affiliates.  All Rights Reserved.
   4:/home/rdu/Workspace/project_templates/mcu/stm32_ws/src/libraries/FreeRTOS/Source/portable/GCC/ARM_CM4F/portmacro.h ****  *
   5:/home/rdu/Workspace/project_templates/mcu/stm32_ws/src/libraries/FreeRTOS/Source/portable/GCC/ARM_CM4F/portmacro.h ****  * Permission is hereby granted, free of charge, to any person obtaining a copy of
   6:/home/rdu/Workspace/project_templates/mcu/stm32_ws/src/libraries/FreeRTOS/Source/portable/GCC/ARM_CM4F/portmacro.h ****  * this software and associated documentation files (the "Software"), to deal in
   7:/home/rdu/Workspace/project_templates/mcu/stm32_ws/src/libraries/FreeRTOS/Source/portable/GCC/ARM_CM4F/portmacro.h ****  * the Software without restriction, including without limitation the rights to
   8:/home/rdu/Workspace/project_templates/mcu/stm32_ws/src/libraries/FreeRTOS/Source/portable/GCC/ARM_CM4F/portmacro.h ****  * use, copy, modify, merge, publish, distribute, sublicense, and/or sell copies of
   9:/home/rdu/Workspace/project_templates/mcu/stm32_ws/src/libraries/FreeRTOS/Source/portable/GCC/ARM_CM4F/portmacro.h ****  * the Software, and to permit persons to whom the Software is furnished to do so,
  10:/home/rdu/Workspace/project_templates/mcu/stm32_ws/src/libraries/FreeRTOS/Source/portable/GCC/ARM_CM4F/portmacro.h ****  * subject to the following conditions:
  11:/home/rdu/Workspace/project_templates/mcu/stm32_ws/src/libraries/FreeRTOS/Source/portable/GCC/ARM_CM4F/portmacro.h ****  *
  12:/home/rdu/Workspace/project_templates/mcu/stm32_ws/src/libraries/FreeRTOS/Source/portable/GCC/ARM_CM4F/portmacro.h ****  * The above copyright notice and this permission notice shall be included in all
  13:/home/rdu/Workspace/project_templates/mcu/stm32_ws/src/libraries/FreeRTOS/Source/portable/GCC/ARM_CM4F/portmacro.h ****  * copies or substantial portions of the Software.
  14:/home/rdu/Workspace/project_templates/mcu/stm32_ws/src/libraries/FreeRTOS/Source/portable/GCC/ARM_CM4F/portmacro.h ****  *
  15:/home/rdu/Workspace/project_templates/mcu/stm32_ws/src/libraries/FreeRTOS/Source/portable/GCC/ARM_CM4F/portmacro.h ****  * THE SOFTWARE IS PROVIDED "AS IS", WITHOUT WARRANTY OF ANY KIND, EXPRESS OR
  16:/home/rdu/Workspace/project_templates/mcu/stm32_ws/src/libraries/FreeRTOS/Source/portable/GCC/ARM_CM4F/portmacro.h ****  * IMPLIED, INCLUDING BUT NOT LIMITED TO THE WARRANTIES OF MERCHANTABILITY, FITNESS
  17:/home/rdu/Workspace/project_templates/mcu/stm32_ws/src/libraries/FreeRTOS/Source/portable/GCC/ARM_CM4F/portmacro.h ****  * FOR A PARTICULAR PURPOSE AND NONINFRINGEMENT. IN NO EVENT SHALL THE AUTHORS OR
  18:/home/rdu/Workspace/project_templates/mcu/stm32_ws/src/libraries/FreeRTOS/Source/portable/GCC/ARM_CM4F/portmacro.h ****  * COPYRIGHT HOLDERS BE LIABLE FOR ANY CLAIM, DAMAGES OR OTHER LIABILITY, WHETHER
  19:/home/rdu/Workspace/project_templates/mcu/stm32_ws/src/libraries/FreeRTOS/Source/portable/GCC/ARM_CM4F/portmacro.h ****  * IN AN ACTION OF CONTRACT, TORT OR OTHERWISE, ARISING FROM, OUT OF OR IN
  20:/home/rdu/Workspace/project_templates/mcu/stm32_ws/src/libraries/FreeRTOS/Source/portable/GCC/ARM_CM4F/portmacro.h ****  * CONNECTION WITH THE SOFTWARE OR THE USE OR OTHER DEALINGS IN THE SOFTWARE.
  21:/home/rdu/Workspace/project_templates/mcu/stm32_ws/src/libraries/FreeRTOS/Source/portable/GCC/ARM_CM4F/portmacro.h ****  *
  22:/home/rdu/Workspace/project_templates/mcu/stm32_ws/src/libraries/FreeRTOS/Source/portable/GCC/ARM_CM4F/portmacro.h ****  * http://www.FreeRTOS.org
  23:/home/rdu/Workspace/project_templates/mcu/stm32_ws/src/libraries/FreeRTOS/Source/portable/GCC/ARM_CM4F/portmacro.h ****  * http://aws.amazon.com/freertos
  24:/home/rdu/Workspace/project_templates/mcu/stm32_ws/src/libraries/FreeRTOS/Source/portable/GCC/ARM_CM4F/portmacro.h ****  *
  25:/home/rdu/Workspace/project_templates/mcu/stm32_ws/src/libraries/FreeRTOS/Source/portable/GCC/ARM_CM4F/portmacro.h ****  * 1 tab == 4 spaces!
  26:/home/rdu/Workspace/project_templates/mcu/stm32_ws/src/libraries/FreeRTOS/Source/portable/GCC/ARM_CM4F/portmacro.h ****  */
  27:/home/rdu/Workspace/project_templates/mcu/stm32_ws/src/libraries/FreeRTOS/Source/portable/GCC/ARM_CM4F/portmacro.h **** 
  28:/home/rdu/Workspace/project_templates/mcu/stm32_ws/src/libraries/FreeRTOS/Source/portable/GCC/ARM_CM4F/portmacro.h **** 
  29:/home/rdu/Workspace/project_templates/mcu/stm32_ws/src/libraries/FreeRTOS/Source/portable/GCC/ARM_CM4F/portmacro.h **** #ifndef PORTMACRO_H
  30:/home/rdu/Workspace/project_templates/mcu/stm32_ws/src/libraries/FreeRTOS/Source/portable/GCC/ARM_CM4F/portmacro.h **** #define PORTMACRO_H
  31:/home/rdu/Workspace/project_templates/mcu/stm32_ws/src/libraries/FreeRTOS/Source/portable/GCC/ARM_CM4F/portmacro.h **** 
  32:/home/rdu/Workspace/project_templates/mcu/stm32_ws/src/libraries/FreeRTOS/Source/portable/GCC/ARM_CM4F/portmacro.h **** #ifdef __cplusplus
  33:/home/rdu/Workspace/project_templates/mcu/stm32_ws/src/libraries/FreeRTOS/Source/portable/GCC/ARM_CM4F/portmacro.h **** extern "C" {
  34:/home/rdu/Workspace/project_templates/mcu/stm32_ws/src/libraries/FreeRTOS/Source/portable/GCC/ARM_CM4F/portmacro.h **** #endif
  35:/home/rdu/Workspace/project_templates/mcu/stm32_ws/src/libraries/FreeRTOS/Source/portable/GCC/ARM_CM4F/portmacro.h **** 
  36:/home/rdu/Workspace/project_templates/mcu/stm32_ws/src/libraries/FreeRTOS/Source/portable/GCC/ARM_CM4F/portmacro.h **** /*-----------------------------------------------------------
  37:/home/rdu/Workspace/project_templates/mcu/stm32_ws/src/libraries/FreeRTOS/Source/portable/GCC/ARM_CM4F/portmacro.h ****  * Port specific definitions.
  38:/home/rdu/Workspace/project_templates/mcu/stm32_ws/src/libraries/FreeRTOS/Source/portable/GCC/ARM_CM4F/portmacro.h ****  *
  39:/home/rdu/Workspace/project_templates/mcu/stm32_ws/src/libraries/FreeRTOS/Source/portable/GCC/ARM_CM4F/portmacro.h ****  * The settings in this file configure FreeRTOS correctly for the
  40:/home/rdu/Workspace/project_templates/mcu/stm32_ws/src/libraries/FreeRTOS/Source/portable/GCC/ARM_CM4F/portmacro.h ****  * given hardware and compiler.
  41:/home/rdu/Workspace/project_templates/mcu/stm32_ws/src/libraries/FreeRTOS/Source/portable/GCC/ARM_CM4F/portmacro.h ****  *
  42:/home/rdu/Workspace/project_templates/mcu/stm32_ws/src/libraries/FreeRTOS/Source/portable/GCC/ARM_CM4F/portmacro.h ****  * These settings should not be altered.
  43:/home/rdu/Workspace/project_templates/mcu/stm32_ws/src/libraries/FreeRTOS/Source/portable/GCC/ARM_CM4F/portmacro.h ****  *-----------------------------------------------------------
  44:/home/rdu/Workspace/project_templates/mcu/stm32_ws/src/libraries/FreeRTOS/Source/portable/GCC/ARM_CM4F/portmacro.h ****  */
  45:/home/rdu/Workspace/project_templates/mcu/stm32_ws/src/libraries/FreeRTOS/Source/portable/GCC/ARM_CM4F/portmacro.h **** 
  46:/home/rdu/Workspace/project_templates/mcu/stm32_ws/src/libraries/FreeRTOS/Source/portable/GCC/ARM_CM4F/portmacro.h **** /* Type definitions. */
  47:/home/rdu/Workspace/project_templates/mcu/stm32_ws/src/libraries/FreeRTOS/Source/portable/GCC/ARM_CM4F/portmacro.h **** #define portCHAR		char
  48:/home/rdu/Workspace/project_templates/mcu/stm32_ws/src/libraries/FreeRTOS/Source/portable/GCC/ARM_CM4F/portmacro.h **** #define portFLOAT		float
  49:/home/rdu/Workspace/project_templates/mcu/stm32_ws/src/libraries/FreeRTOS/Source/portable/GCC/ARM_CM4F/portmacro.h **** #define portDOUBLE		double
  50:/home/rdu/Workspace/project_templates/mcu/stm32_ws/src/libraries/FreeRTOS/Source/portable/GCC/ARM_CM4F/portmacro.h **** #define portLONG		long
  51:/home/rdu/Workspace/project_templates/mcu/stm32_ws/src/libraries/FreeRTOS/Source/portable/GCC/ARM_CM4F/portmacro.h **** #define portSHORT		short
  52:/home/rdu/Workspace/project_templates/mcu/stm32_ws/src/libraries/FreeRTOS/Source/portable/GCC/ARM_CM4F/portmacro.h **** #define portSTACK_TYPE	uint32_t
  53:/home/rdu/Workspace/project_templates/mcu/stm32_ws/src/libraries/FreeRTOS/Source/portable/GCC/ARM_CM4F/portmacro.h **** #define portBASE_TYPE	long
  54:/home/rdu/Workspace/project_templates/mcu/stm32_ws/src/libraries/FreeRTOS/Source/portable/GCC/ARM_CM4F/portmacro.h **** 
  55:/home/rdu/Workspace/project_templates/mcu/stm32_ws/src/libraries/FreeRTOS/Source/portable/GCC/ARM_CM4F/portmacro.h **** typedef portSTACK_TYPE StackType_t;
  56:/home/rdu/Workspace/project_templates/mcu/stm32_ws/src/libraries/FreeRTOS/Source/portable/GCC/ARM_CM4F/portmacro.h **** typedef long BaseType_t;
  57:/home/rdu/Workspace/project_templates/mcu/stm32_ws/src/libraries/FreeRTOS/Source/portable/GCC/ARM_CM4F/portmacro.h **** typedef unsigned long UBaseType_t;
  58:/home/rdu/Workspace/project_templates/mcu/stm32_ws/src/libraries/FreeRTOS/Source/portable/GCC/ARM_CM4F/portmacro.h **** 
  59:/home/rdu/Workspace/project_templates/mcu/stm32_ws/src/libraries/FreeRTOS/Source/portable/GCC/ARM_CM4F/portmacro.h **** #if( configUSE_16_BIT_TICKS == 1 )
  60:/home/rdu/Workspace/project_templates/mcu/stm32_ws/src/libraries/FreeRTOS/Source/portable/GCC/ARM_CM4F/portmacro.h **** 	typedef uint16_t TickType_t;
  61:/home/rdu/Workspace/project_templates/mcu/stm32_ws/src/libraries/FreeRTOS/Source/portable/GCC/ARM_CM4F/portmacro.h **** 	#define portMAX_DELAY ( TickType_t ) 0xffff
  62:/home/rdu/Workspace/project_templates/mcu/stm32_ws/src/libraries/FreeRTOS/Source/portable/GCC/ARM_CM4F/portmacro.h **** #else
  63:/home/rdu/Workspace/project_templates/mcu/stm32_ws/src/libraries/FreeRTOS/Source/portable/GCC/ARM_CM4F/portmacro.h **** 	typedef uint32_t TickType_t;
  64:/home/rdu/Workspace/project_templates/mcu/stm32_ws/src/libraries/FreeRTOS/Source/portable/GCC/ARM_CM4F/portmacro.h **** 	#define portMAX_DELAY ( TickType_t ) 0xffffffffUL
  65:/home/rdu/Workspace/project_templates/mcu/stm32_ws/src/libraries/FreeRTOS/Source/portable/GCC/ARM_CM4F/portmacro.h **** 
  66:/home/rdu/Workspace/project_templates/mcu/stm32_ws/src/libraries/FreeRTOS/Source/portable/GCC/ARM_CM4F/portmacro.h **** 	/* 32-bit tick type on a 32-bit architecture, so reads of the tick count do
  67:/home/rdu/Workspace/project_templates/mcu/stm32_ws/src/libraries/FreeRTOS/Source/portable/GCC/ARM_CM4F/portmacro.h **** 	not need to be guarded with a critical section. */
  68:/home/rdu/Workspace/project_templates/mcu/stm32_ws/src/libraries/FreeRTOS/Source/portable/GCC/ARM_CM4F/portmacro.h **** 	#define portTICK_TYPE_IS_ATOMIC 1
  69:/home/rdu/Workspace/project_templates/mcu/stm32_ws/src/libraries/FreeRTOS/Source/portable/GCC/ARM_CM4F/portmacro.h **** #endif
  70:/home/rdu/Workspace/project_templates/mcu/stm32_ws/src/libraries/FreeRTOS/Source/portable/GCC/ARM_CM4F/portmacro.h **** /*-----------------------------------------------------------*/
  71:/home/rdu/Workspace/project_templates/mcu/stm32_ws/src/libraries/FreeRTOS/Source/portable/GCC/ARM_CM4F/portmacro.h **** 
  72:/home/rdu/Workspace/project_templates/mcu/stm32_ws/src/libraries/FreeRTOS/Source/portable/GCC/ARM_CM4F/portmacro.h **** /* Architecture specifics. */
  73:/home/rdu/Workspace/project_templates/mcu/stm32_ws/src/libraries/FreeRTOS/Source/portable/GCC/ARM_CM4F/portmacro.h **** #define portSTACK_GROWTH			( -1 )
  74:/home/rdu/Workspace/project_templates/mcu/stm32_ws/src/libraries/FreeRTOS/Source/portable/GCC/ARM_CM4F/portmacro.h **** #define portTICK_PERIOD_MS			( ( TickType_t ) 1000 / configTICK_RATE_HZ )
  75:/home/rdu/Workspace/project_templates/mcu/stm32_ws/src/libraries/FreeRTOS/Source/portable/GCC/ARM_CM4F/portmacro.h **** #define portBYTE_ALIGNMENT			8
  76:/home/rdu/Workspace/project_templates/mcu/stm32_ws/src/libraries/FreeRTOS/Source/portable/GCC/ARM_CM4F/portmacro.h **** /*-----------------------------------------------------------*/
  77:/home/rdu/Workspace/project_templates/mcu/stm32_ws/src/libraries/FreeRTOS/Source/portable/GCC/ARM_CM4F/portmacro.h **** 
  78:/home/rdu/Workspace/project_templates/mcu/stm32_ws/src/libraries/FreeRTOS/Source/portable/GCC/ARM_CM4F/portmacro.h **** /* Scheduler utilities. */
  79:/home/rdu/Workspace/project_templates/mcu/stm32_ws/src/libraries/FreeRTOS/Source/portable/GCC/ARM_CM4F/portmacro.h **** #define portYIELD() 															\
  80:/home/rdu/Workspace/project_templates/mcu/stm32_ws/src/libraries/FreeRTOS/Source/portable/GCC/ARM_CM4F/portmacro.h **** {																				\
  81:/home/rdu/Workspace/project_templates/mcu/stm32_ws/src/libraries/FreeRTOS/Source/portable/GCC/ARM_CM4F/portmacro.h **** 	/* Set a PendSV to request a context switch. */								\
  82:/home/rdu/Workspace/project_templates/mcu/stm32_ws/src/libraries/FreeRTOS/Source/portable/GCC/ARM_CM4F/portmacro.h **** 	portNVIC_INT_CTRL_REG = portNVIC_PENDSVSET_BIT;								\
  83:/home/rdu/Workspace/project_templates/mcu/stm32_ws/src/libraries/FreeRTOS/Source/portable/GCC/ARM_CM4F/portmacro.h **** 																				\
  84:/home/rdu/Workspace/project_templates/mcu/stm32_ws/src/libraries/FreeRTOS/Source/portable/GCC/ARM_CM4F/portmacro.h **** 	/* Barriers are normally not required but do ensure the code is completely	\
  85:/home/rdu/Workspace/project_templates/mcu/stm32_ws/src/libraries/FreeRTOS/Source/portable/GCC/ARM_CM4F/portmacro.h **** 	within the specified behaviour for the architecture. */						\
  86:/home/rdu/Workspace/project_templates/mcu/stm32_ws/src/libraries/FreeRTOS/Source/portable/GCC/ARM_CM4F/portmacro.h **** 	__asm volatile( "dsb" ::: "memory" );										\
  87:/home/rdu/Workspace/project_templates/mcu/stm32_ws/src/libraries/FreeRTOS/Source/portable/GCC/ARM_CM4F/portmacro.h **** 	__asm volatile( "isb" );													\
  88:/home/rdu/Workspace/project_templates/mcu/stm32_ws/src/libraries/FreeRTOS/Source/portable/GCC/ARM_CM4F/portmacro.h **** }
  89:/home/rdu/Workspace/project_templates/mcu/stm32_ws/src/libraries/FreeRTOS/Source/portable/GCC/ARM_CM4F/portmacro.h **** 
  90:/home/rdu/Workspace/project_templates/mcu/stm32_ws/src/libraries/FreeRTOS/Source/portable/GCC/ARM_CM4F/portmacro.h **** #define portNVIC_INT_CTRL_REG		( * ( ( volatile uint32_t * ) 0xe000ed04 ) )
  91:/home/rdu/Workspace/project_templates/mcu/stm32_ws/src/libraries/FreeRTOS/Source/portable/GCC/ARM_CM4F/portmacro.h **** #define portNVIC_PENDSVSET_BIT		( 1UL << 28UL )
  92:/home/rdu/Workspace/project_templates/mcu/stm32_ws/src/libraries/FreeRTOS/Source/portable/GCC/ARM_CM4F/portmacro.h **** #define portEND_SWITCHING_ISR( xSwitchRequired ) if( xSwitchRequired != pdFALSE ) portYIELD()
  93:/home/rdu/Workspace/project_templates/mcu/stm32_ws/src/libraries/FreeRTOS/Source/portable/GCC/ARM_CM4F/portmacro.h **** #define portYIELD_FROM_ISR( x ) portEND_SWITCHING_ISR( x )
  94:/home/rdu/Workspace/project_templates/mcu/stm32_ws/src/libraries/FreeRTOS/Source/portable/GCC/ARM_CM4F/portmacro.h **** /*-----------------------------------------------------------*/
  95:/home/rdu/Workspace/project_templates/mcu/stm32_ws/src/libraries/FreeRTOS/Source/portable/GCC/ARM_CM4F/portmacro.h **** 
  96:/home/rdu/Workspace/project_templates/mcu/stm32_ws/src/libraries/FreeRTOS/Source/portable/GCC/ARM_CM4F/portmacro.h **** /* Critical section management. */
  97:/home/rdu/Workspace/project_templates/mcu/stm32_ws/src/libraries/FreeRTOS/Source/portable/GCC/ARM_CM4F/portmacro.h **** extern void vPortEnterCritical( void );
  98:/home/rdu/Workspace/project_templates/mcu/stm32_ws/src/libraries/FreeRTOS/Source/portable/GCC/ARM_CM4F/portmacro.h **** extern void vPortExitCritical( void );
  99:/home/rdu/Workspace/project_templates/mcu/stm32_ws/src/libraries/FreeRTOS/Source/portable/GCC/ARM_CM4F/portmacro.h **** #define portSET_INTERRUPT_MASK_FROM_ISR()		ulPortRaiseBASEPRI()
 100:/home/rdu/Workspace/project_templates/mcu/stm32_ws/src/libraries/FreeRTOS/Source/portable/GCC/ARM_CM4F/portmacro.h **** #define portCLEAR_INTERRUPT_MASK_FROM_ISR(x)	vPortSetBASEPRI(x)
 101:/home/rdu/Workspace/project_templates/mcu/stm32_ws/src/libraries/FreeRTOS/Source/portable/GCC/ARM_CM4F/portmacro.h **** #define portDISABLE_INTERRUPTS()				vPortRaiseBASEPRI()
 102:/home/rdu/Workspace/project_templates/mcu/stm32_ws/src/libraries/FreeRTOS/Source/portable/GCC/ARM_CM4F/portmacro.h **** #define portENABLE_INTERRUPTS()					vPortSetBASEPRI(0)
 103:/home/rdu/Workspace/project_templates/mcu/stm32_ws/src/libraries/FreeRTOS/Source/portable/GCC/ARM_CM4F/portmacro.h **** #define portENTER_CRITICAL()					vPortEnterCritical()
 104:/home/rdu/Workspace/project_templates/mcu/stm32_ws/src/libraries/FreeRTOS/Source/portable/GCC/ARM_CM4F/portmacro.h **** #define portEXIT_CRITICAL()						vPortExitCritical()
 105:/home/rdu/Workspace/project_templates/mcu/stm32_ws/src/libraries/FreeRTOS/Source/portable/GCC/ARM_CM4F/portmacro.h **** 
 106:/home/rdu/Workspace/project_templates/mcu/stm32_ws/src/libraries/FreeRTOS/Source/portable/GCC/ARM_CM4F/portmacro.h **** /*-----------------------------------------------------------*/
 107:/home/rdu/Workspace/project_templates/mcu/stm32_ws/src/libraries/FreeRTOS/Source/portable/GCC/ARM_CM4F/portmacro.h **** 
 108:/home/rdu/Workspace/project_templates/mcu/stm32_ws/src/libraries/FreeRTOS/Source/portable/GCC/ARM_CM4F/portmacro.h **** /* Task function macros as described on the FreeRTOS.org WEB site.  These are
 109:/home/rdu/Workspace/project_templates/mcu/stm32_ws/src/libraries/FreeRTOS/Source/portable/GCC/ARM_CM4F/portmacro.h **** not necessary for to use this port.  They are defined so the common demo files
 110:/home/rdu/Workspace/project_templates/mcu/stm32_ws/src/libraries/FreeRTOS/Source/portable/GCC/ARM_CM4F/portmacro.h **** (which build with all the ports) will build. */
 111:/home/rdu/Workspace/project_templates/mcu/stm32_ws/src/libraries/FreeRTOS/Source/portable/GCC/ARM_CM4F/portmacro.h **** #define portTASK_FUNCTION_PROTO( vFunction, pvParameters ) void vFunction( void *pvParameters )
 112:/home/rdu/Workspace/project_templates/mcu/stm32_ws/src/libraries/FreeRTOS/Source/portable/GCC/ARM_CM4F/portmacro.h **** #define portTASK_FUNCTION( vFunction, pvParameters ) void vFunction( void *pvParameters )
 113:/home/rdu/Workspace/project_templates/mcu/stm32_ws/src/libraries/FreeRTOS/Source/portable/GCC/ARM_CM4F/portmacro.h **** /*-----------------------------------------------------------*/
 114:/home/rdu/Workspace/project_templates/mcu/stm32_ws/src/libraries/FreeRTOS/Source/portable/GCC/ARM_CM4F/portmacro.h **** 
 115:/home/rdu/Workspace/project_templates/mcu/stm32_ws/src/libraries/FreeRTOS/Source/portable/GCC/ARM_CM4F/portmacro.h **** /* Tickless idle/low power functionality. */
 116:/home/rdu/Workspace/project_templates/mcu/stm32_ws/src/libraries/FreeRTOS/Source/portable/GCC/ARM_CM4F/portmacro.h **** #ifndef portSUPPRESS_TICKS_AND_SLEEP
 117:/home/rdu/Workspace/project_templates/mcu/stm32_ws/src/libraries/FreeRTOS/Source/portable/GCC/ARM_CM4F/portmacro.h **** 	extern void vPortSuppressTicksAndSleep( TickType_t xExpectedIdleTime );
 118:/home/rdu/Workspace/project_templates/mcu/stm32_ws/src/libraries/FreeRTOS/Source/portable/GCC/ARM_CM4F/portmacro.h **** 	#define portSUPPRESS_TICKS_AND_SLEEP( xExpectedIdleTime ) vPortSuppressTicksAndSleep( xExpectedIdl
 119:/home/rdu/Workspace/project_templates/mcu/stm32_ws/src/libraries/FreeRTOS/Source/portable/GCC/ARM_CM4F/portmacro.h **** #endif
 120:/home/rdu/Workspace/project_templates/mcu/stm32_ws/src/libraries/FreeRTOS/Source/portable/GCC/ARM_CM4F/portmacro.h **** /*-----------------------------------------------------------*/
 121:/home/rdu/Workspace/project_templates/mcu/stm32_ws/src/libraries/FreeRTOS/Source/portable/GCC/ARM_CM4F/portmacro.h **** 
 122:/home/rdu/Workspace/project_templates/mcu/stm32_ws/src/libraries/FreeRTOS/Source/portable/GCC/ARM_CM4F/portmacro.h **** /* Architecture specific optimisations. */
 123:/home/rdu/Workspace/project_templates/mcu/stm32_ws/src/libraries/FreeRTOS/Source/portable/GCC/ARM_CM4F/portmacro.h **** #ifndef configUSE_PORT_OPTIMISED_TASK_SELECTION
 124:/home/rdu/Workspace/project_templates/mcu/stm32_ws/src/libraries/FreeRTOS/Source/portable/GCC/ARM_CM4F/portmacro.h **** 	#define configUSE_PORT_OPTIMISED_TASK_SELECTION 1
 125:/home/rdu/Workspace/project_templates/mcu/stm32_ws/src/libraries/FreeRTOS/Source/portable/GCC/ARM_CM4F/portmacro.h **** #endif
 126:/home/rdu/Workspace/project_templates/mcu/stm32_ws/src/libraries/FreeRTOS/Source/portable/GCC/ARM_CM4F/portmacro.h **** 
 127:/home/rdu/Workspace/project_templates/mcu/stm32_ws/src/libraries/FreeRTOS/Source/portable/GCC/ARM_CM4F/portmacro.h **** #if configUSE_PORT_OPTIMISED_TASK_SELECTION == 1
 128:/home/rdu/Workspace/project_templates/mcu/stm32_ws/src/libraries/FreeRTOS/Source/portable/GCC/ARM_CM4F/portmacro.h **** 
 129:/home/rdu/Workspace/project_templates/mcu/stm32_ws/src/libraries/FreeRTOS/Source/portable/GCC/ARM_CM4F/portmacro.h **** 	/* Generic helper function. */
 130:/home/rdu/Workspace/project_templates/mcu/stm32_ws/src/libraries/FreeRTOS/Source/portable/GCC/ARM_CM4F/portmacro.h **** 	__attribute__( ( always_inline ) ) static inline uint8_t ucPortCountLeadingZeros( uint32_t ulBitma
 131:/home/rdu/Workspace/project_templates/mcu/stm32_ws/src/libraries/FreeRTOS/Source/portable/GCC/ARM_CM4F/portmacro.h **** 	{
 132:/home/rdu/Workspace/project_templates/mcu/stm32_ws/src/libraries/FreeRTOS/Source/portable/GCC/ARM_CM4F/portmacro.h **** 	uint8_t ucReturn;
 133:/home/rdu/Workspace/project_templates/mcu/stm32_ws/src/libraries/FreeRTOS/Source/portable/GCC/ARM_CM4F/portmacro.h **** 
 134:/home/rdu/Workspace/project_templates/mcu/stm32_ws/src/libraries/FreeRTOS/Source/portable/GCC/ARM_CM4F/portmacro.h **** 		__asm volatile ( "clz %0, %1" : "=r" ( ucReturn ) : "r" ( ulBitmap ) : "memory" );
 135:/home/rdu/Workspace/project_templates/mcu/stm32_ws/src/libraries/FreeRTOS/Source/portable/GCC/ARM_CM4F/portmacro.h **** 		return ucReturn;
 136:/home/rdu/Workspace/project_templates/mcu/stm32_ws/src/libraries/FreeRTOS/Source/portable/GCC/ARM_CM4F/portmacro.h **** 	}
 137:/home/rdu/Workspace/project_templates/mcu/stm32_ws/src/libraries/FreeRTOS/Source/portable/GCC/ARM_CM4F/portmacro.h **** 
 138:/home/rdu/Workspace/project_templates/mcu/stm32_ws/src/libraries/FreeRTOS/Source/portable/GCC/ARM_CM4F/portmacro.h **** 	/* Check the configuration. */
 139:/home/rdu/Workspace/project_templates/mcu/stm32_ws/src/libraries/FreeRTOS/Source/portable/GCC/ARM_CM4F/portmacro.h **** 	#if( configMAX_PRIORITIES > 32 )
 140:/home/rdu/Workspace/project_templates/mcu/stm32_ws/src/libraries/FreeRTOS/Source/portable/GCC/ARM_CM4F/portmacro.h **** 		#error configUSE_PORT_OPTIMISED_TASK_SELECTION can only be set to 1 when configMAX_PRIORITIES is 
 141:/home/rdu/Workspace/project_templates/mcu/stm32_ws/src/libraries/FreeRTOS/Source/portable/GCC/ARM_CM4F/portmacro.h **** 	#endif
 142:/home/rdu/Workspace/project_templates/mcu/stm32_ws/src/libraries/FreeRTOS/Source/portable/GCC/ARM_CM4F/portmacro.h **** 
 143:/home/rdu/Workspace/project_templates/mcu/stm32_ws/src/libraries/FreeRTOS/Source/portable/GCC/ARM_CM4F/portmacro.h **** 	/* Store/clear the ready priorities in a bit map. */
 144:/home/rdu/Workspace/project_templates/mcu/stm32_ws/src/libraries/FreeRTOS/Source/portable/GCC/ARM_CM4F/portmacro.h **** 	#define portRECORD_READY_PRIORITY( uxPriority, uxReadyPriorities ) ( uxReadyPriorities ) |= ( 1UL 
 145:/home/rdu/Workspace/project_templates/mcu/stm32_ws/src/libraries/FreeRTOS/Source/portable/GCC/ARM_CM4F/portmacro.h **** 	#define portRESET_READY_PRIORITY( uxPriority, uxReadyPriorities ) ( uxReadyPriorities ) &= ~( 1UL 
 146:/home/rdu/Workspace/project_templates/mcu/stm32_ws/src/libraries/FreeRTOS/Source/portable/GCC/ARM_CM4F/portmacro.h **** 
 147:/home/rdu/Workspace/project_templates/mcu/stm32_ws/src/libraries/FreeRTOS/Source/portable/GCC/ARM_CM4F/portmacro.h **** 	/*-----------------------------------------------------------*/
 148:/home/rdu/Workspace/project_templates/mcu/stm32_ws/src/libraries/FreeRTOS/Source/portable/GCC/ARM_CM4F/portmacro.h **** 
 149:/home/rdu/Workspace/project_templates/mcu/stm32_ws/src/libraries/FreeRTOS/Source/portable/GCC/ARM_CM4F/portmacro.h **** 	#define portGET_HIGHEST_PRIORITY( uxTopPriority, uxReadyPriorities ) uxTopPriority = ( 31UL - ( ui
 150:/home/rdu/Workspace/project_templates/mcu/stm32_ws/src/libraries/FreeRTOS/Source/portable/GCC/ARM_CM4F/portmacro.h **** 
 151:/home/rdu/Workspace/project_templates/mcu/stm32_ws/src/libraries/FreeRTOS/Source/portable/GCC/ARM_CM4F/portmacro.h **** #endif /* configUSE_PORT_OPTIMISED_TASK_SELECTION */
 152:/home/rdu/Workspace/project_templates/mcu/stm32_ws/src/libraries/FreeRTOS/Source/portable/GCC/ARM_CM4F/portmacro.h **** 
 153:/home/rdu/Workspace/project_templates/mcu/stm32_ws/src/libraries/FreeRTOS/Source/portable/GCC/ARM_CM4F/portmacro.h **** /*-----------------------------------------------------------*/
 154:/home/rdu/Workspace/project_templates/mcu/stm32_ws/src/libraries/FreeRTOS/Source/portable/GCC/ARM_CM4F/portmacro.h **** 
 155:/home/rdu/Workspace/project_templates/mcu/stm32_ws/src/libraries/FreeRTOS/Source/portable/GCC/ARM_CM4F/portmacro.h **** #ifdef configASSERT
 156:/home/rdu/Workspace/project_templates/mcu/stm32_ws/src/libraries/FreeRTOS/Source/portable/GCC/ARM_CM4F/portmacro.h **** 	void vPortValidateInterruptPriority( void );
 157:/home/rdu/Workspace/project_templates/mcu/stm32_ws/src/libraries/FreeRTOS/Source/portable/GCC/ARM_CM4F/portmacro.h **** 	#define portASSERT_IF_INTERRUPT_PRIORITY_INVALID() 	vPortValidateInterruptPriority()
 158:/home/rdu/Workspace/project_templates/mcu/stm32_ws/src/libraries/FreeRTOS/Source/portable/GCC/ARM_CM4F/portmacro.h **** #endif
 159:/home/rdu/Workspace/project_templates/mcu/stm32_ws/src/libraries/FreeRTOS/Source/portable/GCC/ARM_CM4F/portmacro.h **** 
 160:/home/rdu/Workspace/project_templates/mcu/stm32_ws/src/libraries/FreeRTOS/Source/portable/GCC/ARM_CM4F/portmacro.h **** /* portNOP() is not required by this port. */
 161:/home/rdu/Workspace/project_templates/mcu/stm32_ws/src/libraries/FreeRTOS/Source/portable/GCC/ARM_CM4F/portmacro.h **** #define portNOP()
 162:/home/rdu/Workspace/project_templates/mcu/stm32_ws/src/libraries/FreeRTOS/Source/portable/GCC/ARM_CM4F/portmacro.h **** 
 163:/home/rdu/Workspace/project_templates/mcu/stm32_ws/src/libraries/FreeRTOS/Source/portable/GCC/ARM_CM4F/portmacro.h **** #define portINLINE	__inline
 164:/home/rdu/Workspace/project_templates/mcu/stm32_ws/src/libraries/FreeRTOS/Source/portable/GCC/ARM_CM4F/portmacro.h **** 
 165:/home/rdu/Workspace/project_templates/mcu/stm32_ws/src/libraries/FreeRTOS/Source/portable/GCC/ARM_CM4F/portmacro.h **** #ifndef portFORCE_INLINE
 166:/home/rdu/Workspace/project_templates/mcu/stm32_ws/src/libraries/FreeRTOS/Source/portable/GCC/ARM_CM4F/portmacro.h **** 	#define portFORCE_INLINE inline __attribute__(( always_inline))
 167:/home/rdu/Workspace/project_templates/mcu/stm32_ws/src/libraries/FreeRTOS/Source/portable/GCC/ARM_CM4F/portmacro.h **** #endif
 168:/home/rdu/Workspace/project_templates/mcu/stm32_ws/src/libraries/FreeRTOS/Source/portable/GCC/ARM_CM4F/portmacro.h **** 
 169:/home/rdu/Workspace/project_templates/mcu/stm32_ws/src/libraries/FreeRTOS/Source/portable/GCC/ARM_CM4F/portmacro.h **** portFORCE_INLINE static BaseType_t xPortIsInsideInterrupt( void )
 170:/home/rdu/Workspace/project_templates/mcu/stm32_ws/src/libraries/FreeRTOS/Source/portable/GCC/ARM_CM4F/portmacro.h **** {
 171:/home/rdu/Workspace/project_templates/mcu/stm32_ws/src/libraries/FreeRTOS/Source/portable/GCC/ARM_CM4F/portmacro.h **** uint32_t ulCurrentInterrupt;
 172:/home/rdu/Workspace/project_templates/mcu/stm32_ws/src/libraries/FreeRTOS/Source/portable/GCC/ARM_CM4F/portmacro.h **** BaseType_t xReturn;
 173:/home/rdu/Workspace/project_templates/mcu/stm32_ws/src/libraries/FreeRTOS/Source/portable/GCC/ARM_CM4F/portmacro.h **** 
 174:/home/rdu/Workspace/project_templates/mcu/stm32_ws/src/libraries/FreeRTOS/Source/portable/GCC/ARM_CM4F/portmacro.h **** 	/* Obtain the number of the currently executing interrupt. */
 175:/home/rdu/Workspace/project_templates/mcu/stm32_ws/src/libraries/FreeRTOS/Source/portable/GCC/ARM_CM4F/portmacro.h **** 	__asm volatile( "mrs %0, ipsr" : "=r"( ulCurrentInterrupt ) :: "memory" );
 176:/home/rdu/Workspace/project_templates/mcu/stm32_ws/src/libraries/FreeRTOS/Source/portable/GCC/ARM_CM4F/portmacro.h **** 
 177:/home/rdu/Workspace/project_templates/mcu/stm32_ws/src/libraries/FreeRTOS/Source/portable/GCC/ARM_CM4F/portmacro.h **** 	if( ulCurrentInterrupt == 0 )
 178:/home/rdu/Workspace/project_templates/mcu/stm32_ws/src/libraries/FreeRTOS/Source/portable/GCC/ARM_CM4F/portmacro.h **** 	{
 179:/home/rdu/Workspace/project_templates/mcu/stm32_ws/src/libraries/FreeRTOS/Source/portable/GCC/ARM_CM4F/portmacro.h **** 		xReturn = pdFALSE;
 180:/home/rdu/Workspace/project_templates/mcu/stm32_ws/src/libraries/FreeRTOS/Source/portable/GCC/ARM_CM4F/portmacro.h **** 	}
 181:/home/rdu/Workspace/project_templates/mcu/stm32_ws/src/libraries/FreeRTOS/Source/portable/GCC/ARM_CM4F/portmacro.h **** 	else
 182:/home/rdu/Workspace/project_templates/mcu/stm32_ws/src/libraries/FreeRTOS/Source/portable/GCC/ARM_CM4F/portmacro.h **** 	{
 183:/home/rdu/Workspace/project_templates/mcu/stm32_ws/src/libraries/FreeRTOS/Source/portable/GCC/ARM_CM4F/portmacro.h **** 		xReturn = pdTRUE;
 184:/home/rdu/Workspace/project_templates/mcu/stm32_ws/src/libraries/FreeRTOS/Source/portable/GCC/ARM_CM4F/portmacro.h **** 	}
 185:/home/rdu/Workspace/project_templates/mcu/stm32_ws/src/libraries/FreeRTOS/Source/portable/GCC/ARM_CM4F/portmacro.h **** 
 186:/home/rdu/Workspace/project_templates/mcu/stm32_ws/src/libraries/FreeRTOS/Source/portable/GCC/ARM_CM4F/portmacro.h **** 	return xReturn;
 187:/home/rdu/Workspace/project_templates/mcu/stm32_ws/src/libraries/FreeRTOS/Source/portable/GCC/ARM_CM4F/portmacro.h **** }
 188:/home/rdu/Workspace/project_templates/mcu/stm32_ws/src/libraries/FreeRTOS/Source/portable/GCC/ARM_CM4F/portmacro.h **** 
 189:/home/rdu/Workspace/project_templates/mcu/stm32_ws/src/libraries/FreeRTOS/Source/portable/GCC/ARM_CM4F/portmacro.h **** /*-----------------------------------------------------------*/
 190:/home/rdu/Workspace/project_templates/mcu/stm32_ws/src/libraries/FreeRTOS/Source/portable/GCC/ARM_CM4F/portmacro.h **** 
 191:/home/rdu/Workspace/project_templates/mcu/stm32_ws/src/libraries/FreeRTOS/Source/portable/GCC/ARM_CM4F/portmacro.h **** portFORCE_INLINE static void vPortRaiseBASEPRI( void )
 192:/home/rdu/Workspace/project_templates/mcu/stm32_ws/src/libraries/FreeRTOS/Source/portable/GCC/ARM_CM4F/portmacro.h **** {
 193:/home/rdu/Workspace/project_templates/mcu/stm32_ws/src/libraries/FreeRTOS/Source/portable/GCC/ARM_CM4F/portmacro.h **** uint32_t ulNewBASEPRI;
 194:/home/rdu/Workspace/project_templates/mcu/stm32_ws/src/libraries/FreeRTOS/Source/portable/GCC/ARM_CM4F/portmacro.h **** 
 195:/home/rdu/Workspace/project_templates/mcu/stm32_ws/src/libraries/FreeRTOS/Source/portable/GCC/ARM_CM4F/portmacro.h **** 	__asm volatile
 106              		.loc 2 195 0 discriminator 1
 107              		.syntax unified
 108              	@ 195 "/home/rdu/Workspace/project_templates/mcu/stm32_ws/src/libraries/FreeRTOS/Source/portable/GC
 109 001e 4FF05003 			mov r3, #80												
 110 0022 83F31188 		msr basepri, r3											
 111 0026 BFF36F8F 		isb														
 112 002a BFF34F8F 		dsb														
 113              	
 114              	@ 0 "" 2
 115              		.thumb
 116              		.syntax unified
 117 002e 0693     		str	r3, [sp, #24]
 118              	.L6:
 119              	.LBE32:
 120              	.LBE31:
 121              		.loc 1 198 0 discriminator 1
 122 0030 FEE7     		b	.L6
 123              	.L5:
 199:/home/rdu/Workspace/project_templates/mcu/stm32_ws/src/libraries/FreeRTOS/Source/event_groups.c **** 	configASSERT( uxBitsToWaitFor != 0 );
 124              		.loc 1 199 0
 125 0032 019B     		ldr	r3, [sp, #4]
 126 0034 002B     		cmp	r3, #0
 127 0036 09D1     		bne	.L7
 128              	.LBB33:
 129              	.LBB34:
 130              		.loc 2 195 0 discriminator 1
 131              		.syntax unified
 132              	@ 195 "/home/rdu/Workspace/project_templates/mcu/stm32_ws/src/libraries/FreeRTOS/Source/portable/GC
 133 0038 4FF05003 			mov r3, #80												
 134 003c 83F31188 		msr basepri, r3											
 135 0040 BFF36F8F 		isb														
 136 0044 BFF34F8F 		dsb														
 137              	
 138              	@ 0 "" 2
 139              		.thumb
 140              		.syntax unified
 141 0048 0593     		str	r3, [sp, #20]
 142              	.L8:
 143              	.LBE34:
 144              	.LBE33:
 145              		.loc 1 199 0 discriminator 2
 146 004a FEE7     		b	.L8
 147              	.L7:
 200:/home/rdu/Workspace/project_templates/mcu/stm32_ws/src/libraries/FreeRTOS/Source/event_groups.c **** 	#if ( ( INCLUDE_xTaskGetSchedulerState == 1 ) || ( configUSE_TIMERS == 1 ) )
 201:/home/rdu/Workspace/project_templates/mcu/stm32_ws/src/libraries/FreeRTOS/Source/event_groups.c **** 	{
 202:/home/rdu/Workspace/project_templates/mcu/stm32_ws/src/libraries/FreeRTOS/Source/event_groups.c **** 		configASSERT( !( ( xTaskGetSchedulerState() == taskSCHEDULER_SUSPENDED ) && ( xTicksToWait != 0 )
 148              		.loc 1 202 0
 149 004c FFF7FEFF 		bl	xTaskGetSchedulerState
 150 0050 0346     		mov	r3, r0
 151 0052 002B     		cmp	r3, #0
 152 0054 02D1     		bne	.L9
 153              		.loc 1 202 0 is_stmt 0 discriminator 2
 154 0056 009B     		ldr	r3, [sp]
 155 0058 002B     		cmp	r3, #0
 156 005a 01D1     		bne	.L10
 157              	.L9:
 158              		.loc 1 202 0 discriminator 3
 159 005c 0123     		movs	r3, #1
 160 005e 00E0     		b	.L11
 161              	.L10:
 162              		.loc 1 202 0 discriminator 4
 163 0060 0023     		movs	r3, #0
 164              	.L11:
 165              		.loc 1 202 0 discriminator 6
 166 0062 002B     		cmp	r3, #0
 167 0064 09D1     		bne	.L12
 168              	.LBB35:
 169              	.LBB36:
 170              		.loc 2 195 0 is_stmt 1 discriminator 7
 171              		.syntax unified
 172              	@ 195 "/home/rdu/Workspace/project_templates/mcu/stm32_ws/src/libraries/FreeRTOS/Source/portable/GC
 173 0066 4FF05003 			mov r3, #80												
 174 006a 83F31188 		msr basepri, r3											
 175 006e BFF36F8F 		isb														
 176 0072 BFF34F8F 		dsb														
 177              	
 178              	@ 0 "" 2
 179              		.thumb
 180              		.syntax unified
 181 0076 0493     		str	r3, [sp, #16]
 182              	.L13:
 183              	.LBE36:
 184              	.LBE35:
 185              		.loc 1 202 0 discriminator 3
 186 0078 FEE7     		b	.L13
 187              	.L12:
 203:/home/rdu/Workspace/project_templates/mcu/stm32_ws/src/libraries/FreeRTOS/Source/event_groups.c **** 	}
 204:/home/rdu/Workspace/project_templates/mcu/stm32_ws/src/libraries/FreeRTOS/Source/event_groups.c **** 	#endif
 205:/home/rdu/Workspace/project_templates/mcu/stm32_ws/src/libraries/FreeRTOS/Source/event_groups.c **** 
 206:/home/rdu/Workspace/project_templates/mcu/stm32_ws/src/libraries/FreeRTOS/Source/event_groups.c **** 	vTaskSuspendAll();
 188              		.loc 1 206 0
 189 007a FFF7FEFF 		bl	vTaskSuspendAll
 207:/home/rdu/Workspace/project_templates/mcu/stm32_ws/src/libraries/FreeRTOS/Source/event_groups.c **** 	{
 208:/home/rdu/Workspace/project_templates/mcu/stm32_ws/src/libraries/FreeRTOS/Source/event_groups.c **** 		uxOriginalBitValue = pxEventBits->uxEventBits;
 190              		.loc 1 208 0
 191 007e 0A9B     		ldr	r3, [sp, #40]
 192 0080 1B68     		ldr	r3, [r3]
 193 0082 0893     		str	r3, [sp, #32]
 209:/home/rdu/Workspace/project_templates/mcu/stm32_ws/src/libraries/FreeRTOS/Source/event_groups.c **** 
 210:/home/rdu/Workspace/project_templates/mcu/stm32_ws/src/libraries/FreeRTOS/Source/event_groups.c **** 		( void ) xEventGroupSetBits( xEventGroup, uxBitsToSet );
 194              		.loc 1 210 0
 195 0084 0299     		ldr	r1, [sp, #8]
 196 0086 0398     		ldr	r0, [sp, #12]
 197 0088 FFF7FEFF 		bl	xEventGroupSetBits
 211:/home/rdu/Workspace/project_templates/mcu/stm32_ws/src/libraries/FreeRTOS/Source/event_groups.c **** 
 212:/home/rdu/Workspace/project_templates/mcu/stm32_ws/src/libraries/FreeRTOS/Source/event_groups.c **** 		if( ( ( uxOriginalBitValue | uxBitsToSet ) & uxBitsToWaitFor ) == uxBitsToWaitFor )
 198              		.loc 1 212 0
 199 008c 089A     		ldr	r2, [sp, #32]
 200 008e 029B     		ldr	r3, [sp, #8]
 201 0090 1A43     		orrs	r2, r2, r3
 202 0092 019B     		ldr	r3, [sp, #4]
 203 0094 1340     		ands	r3, r3, r2
 204 0096 019A     		ldr	r2, [sp, #4]
 205 0098 9A42     		cmp	r2, r3
 206 009a 0DD1     		bne	.L14
 213:/home/rdu/Workspace/project_templates/mcu/stm32_ws/src/libraries/FreeRTOS/Source/event_groups.c **** 		{
 214:/home/rdu/Workspace/project_templates/mcu/stm32_ws/src/libraries/FreeRTOS/Source/event_groups.c **** 			/* All the rendezvous bits are now set - no need to block. */
 215:/home/rdu/Workspace/project_templates/mcu/stm32_ws/src/libraries/FreeRTOS/Source/event_groups.c **** 			uxReturn = ( uxOriginalBitValue | uxBitsToSet );
 207              		.loc 1 215 0
 208 009c 089A     		ldr	r2, [sp, #32]
 209 009e 029B     		ldr	r3, [sp, #8]
 210 00a0 1343     		orrs	r3, r3, r2
 211 00a2 0B93     		str	r3, [sp, #44]
 216:/home/rdu/Workspace/project_templates/mcu/stm32_ws/src/libraries/FreeRTOS/Source/event_groups.c **** 
 217:/home/rdu/Workspace/project_templates/mcu/stm32_ws/src/libraries/FreeRTOS/Source/event_groups.c **** 			/* Rendezvous always clear the bits.  They will have been cleared
 218:/home/rdu/Workspace/project_templates/mcu/stm32_ws/src/libraries/FreeRTOS/Source/event_groups.c **** 			already unless this is the only task in the rendezvous. */
 219:/home/rdu/Workspace/project_templates/mcu/stm32_ws/src/libraries/FreeRTOS/Source/event_groups.c **** 			pxEventBits->uxEventBits &= ~uxBitsToWaitFor;
 212              		.loc 1 219 0
 213 00a4 0A9B     		ldr	r3, [sp, #40]
 214 00a6 1A68     		ldr	r2, [r3]
 215 00a8 019B     		ldr	r3, [sp, #4]
 216 00aa DB43     		mvns	r3, r3
 217 00ac 1A40     		ands	r2, r2, r3
 218 00ae 0A9B     		ldr	r3, [sp, #40]
 219 00b0 1A60     		str	r2, [r3]
 220:/home/rdu/Workspace/project_templates/mcu/stm32_ws/src/libraries/FreeRTOS/Source/event_groups.c **** 
 221:/home/rdu/Workspace/project_templates/mcu/stm32_ws/src/libraries/FreeRTOS/Source/event_groups.c **** 			xTicksToWait = 0;
 220              		.loc 1 221 0
 221 00b2 0023     		movs	r3, #0
 222 00b4 0093     		str	r3, [sp]
 223 00b6 13E0     		b	.L15
 224              	.L14:
 222:/home/rdu/Workspace/project_templates/mcu/stm32_ws/src/libraries/FreeRTOS/Source/event_groups.c **** 		}
 223:/home/rdu/Workspace/project_templates/mcu/stm32_ws/src/libraries/FreeRTOS/Source/event_groups.c **** 		else
 224:/home/rdu/Workspace/project_templates/mcu/stm32_ws/src/libraries/FreeRTOS/Source/event_groups.c **** 		{
 225:/home/rdu/Workspace/project_templates/mcu/stm32_ws/src/libraries/FreeRTOS/Source/event_groups.c **** 			if( xTicksToWait != ( TickType_t ) 0 )
 225              		.loc 1 225 0
 226 00b8 009B     		ldr	r3, [sp]
 227 00ba 002B     		cmp	r3, #0
 228 00bc 0BD0     		beq	.L16
 226:/home/rdu/Workspace/project_templates/mcu/stm32_ws/src/libraries/FreeRTOS/Source/event_groups.c **** 			{
 227:/home/rdu/Workspace/project_templates/mcu/stm32_ws/src/libraries/FreeRTOS/Source/event_groups.c **** 				traceEVENT_GROUP_SYNC_BLOCK( xEventGroup, uxBitsToSet, uxBitsToWaitFor );
 228:/home/rdu/Workspace/project_templates/mcu/stm32_ws/src/libraries/FreeRTOS/Source/event_groups.c **** 
 229:/home/rdu/Workspace/project_templates/mcu/stm32_ws/src/libraries/FreeRTOS/Source/event_groups.c **** 				/* Store the bits that the calling task is waiting for in the
 230:/home/rdu/Workspace/project_templates/mcu/stm32_ws/src/libraries/FreeRTOS/Source/event_groups.c **** 				task's event list item so the kernel knows when a match is
 231:/home/rdu/Workspace/project_templates/mcu/stm32_ws/src/libraries/FreeRTOS/Source/event_groups.c **** 				found.  Then enter the blocked state. */
 232:/home/rdu/Workspace/project_templates/mcu/stm32_ws/src/libraries/FreeRTOS/Source/event_groups.c **** 				vTaskPlaceOnUnorderedEventList( &( pxEventBits->xTasksWaitingForBits ), ( uxBitsToWaitFor | eve
 229              		.loc 1 232 0
 230 00be 0A9B     		ldr	r3, [sp, #40]
 231 00c0 181D     		adds	r0, r3, #4
 232 00c2 019B     		ldr	r3, [sp, #4]
 233 00c4 43F0A063 		orr	r3, r3, #83886080
 234 00c8 009A     		ldr	r2, [sp]
 235 00ca 1946     		mov	r1, r3
 236 00cc FFF7FEFF 		bl	vTaskPlaceOnUnorderedEventList
 233:/home/rdu/Workspace/project_templates/mcu/stm32_ws/src/libraries/FreeRTOS/Source/event_groups.c **** 
 234:/home/rdu/Workspace/project_templates/mcu/stm32_ws/src/libraries/FreeRTOS/Source/event_groups.c **** 				/* This assignment is obsolete as uxReturn will get set after
 235:/home/rdu/Workspace/project_templates/mcu/stm32_ws/src/libraries/FreeRTOS/Source/event_groups.c **** 				the task unblocks, but some compilers mistakenly generate a
 236:/home/rdu/Workspace/project_templates/mcu/stm32_ws/src/libraries/FreeRTOS/Source/event_groups.c **** 				warning about uxReturn being returned without being set if the
 237:/home/rdu/Workspace/project_templates/mcu/stm32_ws/src/libraries/FreeRTOS/Source/event_groups.c **** 				assignment is omitted. */
 238:/home/rdu/Workspace/project_templates/mcu/stm32_ws/src/libraries/FreeRTOS/Source/event_groups.c **** 				uxReturn = 0;
 237              		.loc 1 238 0
 238 00d0 0023     		movs	r3, #0
 239 00d2 0B93     		str	r3, [sp, #44]
 240 00d4 04E0     		b	.L15
 241              	.L16:
 239:/home/rdu/Workspace/project_templates/mcu/stm32_ws/src/libraries/FreeRTOS/Source/event_groups.c **** 			}
 240:/home/rdu/Workspace/project_templates/mcu/stm32_ws/src/libraries/FreeRTOS/Source/event_groups.c **** 			else
 241:/home/rdu/Workspace/project_templates/mcu/stm32_ws/src/libraries/FreeRTOS/Source/event_groups.c **** 			{
 242:/home/rdu/Workspace/project_templates/mcu/stm32_ws/src/libraries/FreeRTOS/Source/event_groups.c **** 				/* The rendezvous bits were not set, but no block time was
 243:/home/rdu/Workspace/project_templates/mcu/stm32_ws/src/libraries/FreeRTOS/Source/event_groups.c **** 				specified - just return the current event bit value. */
 244:/home/rdu/Workspace/project_templates/mcu/stm32_ws/src/libraries/FreeRTOS/Source/event_groups.c **** 				uxReturn = pxEventBits->uxEventBits;
 242              		.loc 1 244 0
 243 00d6 0A9B     		ldr	r3, [sp, #40]
 244 00d8 1B68     		ldr	r3, [r3]
 245 00da 0B93     		str	r3, [sp, #44]
 245:/home/rdu/Workspace/project_templates/mcu/stm32_ws/src/libraries/FreeRTOS/Source/event_groups.c **** 				xTimeoutOccurred = pdTRUE;
 246              		.loc 1 245 0
 247 00dc 0123     		movs	r3, #1
 248 00de 0993     		str	r3, [sp, #36]
 249              	.L15:
 246:/home/rdu/Workspace/project_templates/mcu/stm32_ws/src/libraries/FreeRTOS/Source/event_groups.c **** 			}
 247:/home/rdu/Workspace/project_templates/mcu/stm32_ws/src/libraries/FreeRTOS/Source/event_groups.c **** 		}
 248:/home/rdu/Workspace/project_templates/mcu/stm32_ws/src/libraries/FreeRTOS/Source/event_groups.c **** 	}
 249:/home/rdu/Workspace/project_templates/mcu/stm32_ws/src/libraries/FreeRTOS/Source/event_groups.c **** 	xAlreadyYielded = xTaskResumeAll();
 250              		.loc 1 249 0
 251 00e0 FFF7FEFF 		bl	xTaskResumeAll
 252 00e4 0790     		str	r0, [sp, #28]
 250:/home/rdu/Workspace/project_templates/mcu/stm32_ws/src/libraries/FreeRTOS/Source/event_groups.c **** 
 251:/home/rdu/Workspace/project_templates/mcu/stm32_ws/src/libraries/FreeRTOS/Source/event_groups.c **** 	if( xTicksToWait != ( TickType_t ) 0 )
 253              		.loc 1 251 0
 254 00e6 009B     		ldr	r3, [sp]
 255 00e8 002B     		cmp	r3, #0
 256 00ea 2CD0     		beq	.L17
 252:/home/rdu/Workspace/project_templates/mcu/stm32_ws/src/libraries/FreeRTOS/Source/event_groups.c **** 	{
 253:/home/rdu/Workspace/project_templates/mcu/stm32_ws/src/libraries/FreeRTOS/Source/event_groups.c **** 		if( xAlreadyYielded == pdFALSE )
 257              		.loc 1 253 0
 258 00ec 079B     		ldr	r3, [sp, #28]
 259 00ee 002B     		cmp	r3, #0
 260 00f0 07D1     		bne	.L18
 254:/home/rdu/Workspace/project_templates/mcu/stm32_ws/src/libraries/FreeRTOS/Source/event_groups.c **** 		{
 255:/home/rdu/Workspace/project_templates/mcu/stm32_ws/src/libraries/FreeRTOS/Source/event_groups.c **** 			portYIELD_WITHIN_API();
 261              		.loc 1 255 0
 262 00f2 174B     		ldr	r3, .L22
 263 00f4 4FF08052 		mov	r2, #268435456
 264 00f8 1A60     		str	r2, [r3]
 265              		.syntax unified
 266              	@ 255 "/home/rdu/Workspace/project_templates/mcu/stm32_ws/src/libraries/FreeRTOS/Source/event_group
 267 00fa BFF34F8F 		dsb
 268              	@ 0 "" 2
 269              	@ 255 "/home/rdu/Workspace/project_templates/mcu/stm32_ws/src/libraries/FreeRTOS/Source/event_group
 270 00fe BFF36F8F 		isb
 271              	@ 0 "" 2
 272              		.thumb
 273              		.syntax unified
 274              	.L18:
 256:/home/rdu/Workspace/project_templates/mcu/stm32_ws/src/libraries/FreeRTOS/Source/event_groups.c **** 		}
 257:/home/rdu/Workspace/project_templates/mcu/stm32_ws/src/libraries/FreeRTOS/Source/event_groups.c **** 		else
 258:/home/rdu/Workspace/project_templates/mcu/stm32_ws/src/libraries/FreeRTOS/Source/event_groups.c **** 		{
 259:/home/rdu/Workspace/project_templates/mcu/stm32_ws/src/libraries/FreeRTOS/Source/event_groups.c **** 			mtCOVERAGE_TEST_MARKER();
 260:/home/rdu/Workspace/project_templates/mcu/stm32_ws/src/libraries/FreeRTOS/Source/event_groups.c **** 		}
 261:/home/rdu/Workspace/project_templates/mcu/stm32_ws/src/libraries/FreeRTOS/Source/event_groups.c **** 
 262:/home/rdu/Workspace/project_templates/mcu/stm32_ws/src/libraries/FreeRTOS/Source/event_groups.c **** 		/* The task blocked to wait for its required bits to be set - at this
 263:/home/rdu/Workspace/project_templates/mcu/stm32_ws/src/libraries/FreeRTOS/Source/event_groups.c **** 		point either the required bits were set or the block time expired.  If
 264:/home/rdu/Workspace/project_templates/mcu/stm32_ws/src/libraries/FreeRTOS/Source/event_groups.c **** 		the required bits were set they will have been stored in the task's
 265:/home/rdu/Workspace/project_templates/mcu/stm32_ws/src/libraries/FreeRTOS/Source/event_groups.c **** 		event list item, and they should now be retrieved then cleared. */
 266:/home/rdu/Workspace/project_templates/mcu/stm32_ws/src/libraries/FreeRTOS/Source/event_groups.c **** 		uxReturn = uxTaskResetEventItemValue();
 275              		.loc 1 266 0
 276 0102 FFF7FEFF 		bl	uxTaskResetEventItemValue
 277 0106 0B90     		str	r0, [sp, #44]
 267:/home/rdu/Workspace/project_templates/mcu/stm32_ws/src/libraries/FreeRTOS/Source/event_groups.c **** 
 268:/home/rdu/Workspace/project_templates/mcu/stm32_ws/src/libraries/FreeRTOS/Source/event_groups.c **** 		if( ( uxReturn & eventUNBLOCKED_DUE_TO_BIT_SET ) == ( EventBits_t ) 0 )
 278              		.loc 1 268 0
 279 0108 0B9B     		ldr	r3, [sp, #44]
 280 010a 03F00073 		and	r3, r3, #33554432
 281 010e 002B     		cmp	r3, #0
 282 0110 15D1     		bne	.L19
 269:/home/rdu/Workspace/project_templates/mcu/stm32_ws/src/libraries/FreeRTOS/Source/event_groups.c **** 		{
 270:/home/rdu/Workspace/project_templates/mcu/stm32_ws/src/libraries/FreeRTOS/Source/event_groups.c **** 			/* The task timed out, just return the current event bit value. */
 271:/home/rdu/Workspace/project_templates/mcu/stm32_ws/src/libraries/FreeRTOS/Source/event_groups.c **** 			taskENTER_CRITICAL();
 283              		.loc 1 271 0
 284 0112 FFF7FEFF 		bl	vPortEnterCritical
 272:/home/rdu/Workspace/project_templates/mcu/stm32_ws/src/libraries/FreeRTOS/Source/event_groups.c **** 			{
 273:/home/rdu/Workspace/project_templates/mcu/stm32_ws/src/libraries/FreeRTOS/Source/event_groups.c **** 				uxReturn = pxEventBits->uxEventBits;
 285              		.loc 1 273 0
 286 0116 0A9B     		ldr	r3, [sp, #40]
 287 0118 1B68     		ldr	r3, [r3]
 288 011a 0B93     		str	r3, [sp, #44]
 274:/home/rdu/Workspace/project_templates/mcu/stm32_ws/src/libraries/FreeRTOS/Source/event_groups.c **** 
 275:/home/rdu/Workspace/project_templates/mcu/stm32_ws/src/libraries/FreeRTOS/Source/event_groups.c **** 				/* Although the task got here because it timed out before the
 276:/home/rdu/Workspace/project_templates/mcu/stm32_ws/src/libraries/FreeRTOS/Source/event_groups.c **** 				bits it was waiting for were set, it is possible that since it
 277:/home/rdu/Workspace/project_templates/mcu/stm32_ws/src/libraries/FreeRTOS/Source/event_groups.c **** 				unblocked another task has set the bits.  If this is the case
 278:/home/rdu/Workspace/project_templates/mcu/stm32_ws/src/libraries/FreeRTOS/Source/event_groups.c **** 				then it needs to clear the bits before exiting. */
 279:/home/rdu/Workspace/project_templates/mcu/stm32_ws/src/libraries/FreeRTOS/Source/event_groups.c **** 				if( ( uxReturn & uxBitsToWaitFor ) == uxBitsToWaitFor )
 289              		.loc 1 279 0
 290 011c 0B9A     		ldr	r2, [sp, #44]
 291 011e 019B     		ldr	r3, [sp, #4]
 292 0120 1340     		ands	r3, r3, r2
 293 0122 019A     		ldr	r2, [sp, #4]
 294 0124 9A42     		cmp	r2, r3
 295 0126 06D1     		bne	.L20
 280:/home/rdu/Workspace/project_templates/mcu/stm32_ws/src/libraries/FreeRTOS/Source/event_groups.c **** 				{
 281:/home/rdu/Workspace/project_templates/mcu/stm32_ws/src/libraries/FreeRTOS/Source/event_groups.c **** 					pxEventBits->uxEventBits &= ~uxBitsToWaitFor;
 296              		.loc 1 281 0
 297 0128 0A9B     		ldr	r3, [sp, #40]
 298 012a 1A68     		ldr	r2, [r3]
 299 012c 019B     		ldr	r3, [sp, #4]
 300 012e DB43     		mvns	r3, r3
 301 0130 1A40     		ands	r2, r2, r3
 302 0132 0A9B     		ldr	r3, [sp, #40]
 303 0134 1A60     		str	r2, [r3]
 304              	.L20:
 282:/home/rdu/Workspace/project_templates/mcu/stm32_ws/src/libraries/FreeRTOS/Source/event_groups.c **** 				}
 283:/home/rdu/Workspace/project_templates/mcu/stm32_ws/src/libraries/FreeRTOS/Source/event_groups.c **** 				else
 284:/home/rdu/Workspace/project_templates/mcu/stm32_ws/src/libraries/FreeRTOS/Source/event_groups.c **** 				{
 285:/home/rdu/Workspace/project_templates/mcu/stm32_ws/src/libraries/FreeRTOS/Source/event_groups.c **** 					mtCOVERAGE_TEST_MARKER();
 286:/home/rdu/Workspace/project_templates/mcu/stm32_ws/src/libraries/FreeRTOS/Source/event_groups.c **** 				}
 287:/home/rdu/Workspace/project_templates/mcu/stm32_ws/src/libraries/FreeRTOS/Source/event_groups.c **** 			}
 288:/home/rdu/Workspace/project_templates/mcu/stm32_ws/src/libraries/FreeRTOS/Source/event_groups.c **** 			taskEXIT_CRITICAL();
 305              		.loc 1 288 0
 306 0136 FFF7FEFF 		bl	vPortExitCritical
 289:/home/rdu/Workspace/project_templates/mcu/stm32_ws/src/libraries/FreeRTOS/Source/event_groups.c **** 
 290:/home/rdu/Workspace/project_templates/mcu/stm32_ws/src/libraries/FreeRTOS/Source/event_groups.c **** 			xTimeoutOccurred = pdTRUE;
 307              		.loc 1 290 0
 308 013a 0123     		movs	r3, #1
 309 013c 0993     		str	r3, [sp, #36]
 310              	.L19:
 291:/home/rdu/Workspace/project_templates/mcu/stm32_ws/src/libraries/FreeRTOS/Source/event_groups.c **** 		}
 292:/home/rdu/Workspace/project_templates/mcu/stm32_ws/src/libraries/FreeRTOS/Source/event_groups.c **** 		else
 293:/home/rdu/Workspace/project_templates/mcu/stm32_ws/src/libraries/FreeRTOS/Source/event_groups.c **** 		{
 294:/home/rdu/Workspace/project_templates/mcu/stm32_ws/src/libraries/FreeRTOS/Source/event_groups.c **** 			/* The task unblocked because the bits were set. */
 295:/home/rdu/Workspace/project_templates/mcu/stm32_ws/src/libraries/FreeRTOS/Source/event_groups.c **** 		}
 296:/home/rdu/Workspace/project_templates/mcu/stm32_ws/src/libraries/FreeRTOS/Source/event_groups.c **** 
 297:/home/rdu/Workspace/project_templates/mcu/stm32_ws/src/libraries/FreeRTOS/Source/event_groups.c **** 		/* Control bits might be set as the task had blocked should not be
 298:/home/rdu/Workspace/project_templates/mcu/stm32_ws/src/libraries/FreeRTOS/Source/event_groups.c **** 		returned. */
 299:/home/rdu/Workspace/project_templates/mcu/stm32_ws/src/libraries/FreeRTOS/Source/event_groups.c **** 		uxReturn &= ~eventEVENT_BITS_CONTROL_BYTES;
 311              		.loc 1 299 0
 312 013e 0B9B     		ldr	r3, [sp, #44]
 313 0140 23F07F43 		bic	r3, r3, #-16777216
 314 0144 0B93     		str	r3, [sp, #44]
 315              	.L17:
 300:/home/rdu/Workspace/project_templates/mcu/stm32_ws/src/libraries/FreeRTOS/Source/event_groups.c **** 	}
 301:/home/rdu/Workspace/project_templates/mcu/stm32_ws/src/libraries/FreeRTOS/Source/event_groups.c **** 
 302:/home/rdu/Workspace/project_templates/mcu/stm32_ws/src/libraries/FreeRTOS/Source/event_groups.c **** 	traceEVENT_GROUP_SYNC_END( xEventGroup, uxBitsToSet, uxBitsToWaitFor, xTimeoutOccurred );
 303:/home/rdu/Workspace/project_templates/mcu/stm32_ws/src/libraries/FreeRTOS/Source/event_groups.c **** 
 304:/home/rdu/Workspace/project_templates/mcu/stm32_ws/src/libraries/FreeRTOS/Source/event_groups.c **** 	/* Prevent compiler warnings when trace macros are not used. */
 305:/home/rdu/Workspace/project_templates/mcu/stm32_ws/src/libraries/FreeRTOS/Source/event_groups.c **** 	( void ) xTimeoutOccurred;
 306:/home/rdu/Workspace/project_templates/mcu/stm32_ws/src/libraries/FreeRTOS/Source/event_groups.c **** 
 307:/home/rdu/Workspace/project_templates/mcu/stm32_ws/src/libraries/FreeRTOS/Source/event_groups.c **** 	return uxReturn;
 316              		.loc 1 307 0
 317 0146 0B9B     		ldr	r3, [sp, #44]
 308:/home/rdu/Workspace/project_templates/mcu/stm32_ws/src/libraries/FreeRTOS/Source/event_groups.c **** }
 318              		.loc 1 308 0
 319 0148 1846     		mov	r0, r3
 320 014a 0DB0     		add	sp, sp, #52
 321              	.LCFI5:
 322              		.cfi_def_cfa_offset 4
 323              		@ sp needed
 324 014c 5DF804FB 		ldr	pc, [sp], #4
 325              	.L23:
 326              		.align	2
 327              	.L22:
 328 0150 04ED00E0 		.word	-536810236
 329              		.cfi_endproc
 330              	.LFE6:
 332              		.section	.text.xEventGroupWaitBits,"ax",%progbits
 333              		.align	1
 334              		.global	xEventGroupWaitBits
 335              		.syntax unified
 336              		.thumb
 337              		.thumb_func
 338              		.fpu fpv4-sp-d16
 340              	xEventGroupWaitBits:
 341              	.LFB7:
 309:/home/rdu/Workspace/project_templates/mcu/stm32_ws/src/libraries/FreeRTOS/Source/event_groups.c **** /*-----------------------------------------------------------*/
 310:/home/rdu/Workspace/project_templates/mcu/stm32_ws/src/libraries/FreeRTOS/Source/event_groups.c **** 
 311:/home/rdu/Workspace/project_templates/mcu/stm32_ws/src/libraries/FreeRTOS/Source/event_groups.c **** EventBits_t xEventGroupWaitBits( EventGroupHandle_t xEventGroup, const EventBits_t uxBitsToWaitFor,
 312:/home/rdu/Workspace/project_templates/mcu/stm32_ws/src/libraries/FreeRTOS/Source/event_groups.c **** {
 342              		.loc 1 312 0
 343              		.cfi_startproc
 344              		@ args = 4, pretend = 0, frame = 64
 345              		@ frame_needed = 0, uses_anonymous_args = 0
 346 0000 00B5     		push	{lr}
 347              	.LCFI6:
 348              		.cfi_def_cfa_offset 4
 349              		.cfi_offset 14, -4
 350 0002 91B0     		sub	sp, sp, #68
 351              	.LCFI7:
 352              		.cfi_def_cfa_offset 72
 353 0004 0390     		str	r0, [sp, #12]
 354 0006 0291     		str	r1, [sp, #8]
 355 0008 0192     		str	r2, [sp, #4]
 356 000a 0093     		str	r3, [sp]
 313:/home/rdu/Workspace/project_templates/mcu/stm32_ws/src/libraries/FreeRTOS/Source/event_groups.c **** EventGroup_t *pxEventBits = xEventGroup;
 357              		.loc 1 313 0
 358 000c 039B     		ldr	r3, [sp, #12]
 359 000e 0D93     		str	r3, [sp, #52]
 314:/home/rdu/Workspace/project_templates/mcu/stm32_ws/src/libraries/FreeRTOS/Source/event_groups.c **** EventBits_t uxReturn, uxControlBits = 0;
 360              		.loc 1 314 0
 361 0010 0023     		movs	r3, #0
 362 0012 0E93     		str	r3, [sp, #56]
 315:/home/rdu/Workspace/project_templates/mcu/stm32_ws/src/libraries/FreeRTOS/Source/event_groups.c **** BaseType_t xWaitConditionMet, xAlreadyYielded;
 316:/home/rdu/Workspace/project_templates/mcu/stm32_ws/src/libraries/FreeRTOS/Source/event_groups.c **** BaseType_t xTimeoutOccurred = pdFALSE;
 363              		.loc 1 316 0
 364 0014 0023     		movs	r3, #0
 365 0016 0C93     		str	r3, [sp, #48]
 317:/home/rdu/Workspace/project_templates/mcu/stm32_ws/src/libraries/FreeRTOS/Source/event_groups.c **** 
 318:/home/rdu/Workspace/project_templates/mcu/stm32_ws/src/libraries/FreeRTOS/Source/event_groups.c **** 	/* Check the user is not attempting to wait on the bits used by the kernel
 319:/home/rdu/Workspace/project_templates/mcu/stm32_ws/src/libraries/FreeRTOS/Source/event_groups.c **** 	itself, and that at least one bit is being requested. */
 320:/home/rdu/Workspace/project_templates/mcu/stm32_ws/src/libraries/FreeRTOS/Source/event_groups.c **** 	configASSERT( xEventGroup );
 366              		.loc 1 320 0
 367 0018 039B     		ldr	r3, [sp, #12]
 368 001a 002B     		cmp	r3, #0
 369 001c 09D1     		bne	.L25
 370              	.LBB37:
 371              	.LBB38:
 372              		.loc 2 195 0 discriminator 1
 373              		.syntax unified
 374              	@ 195 "/home/rdu/Workspace/project_templates/mcu/stm32_ws/src/libraries/FreeRTOS/Source/portable/GC
 375 001e 4FF05003 			mov r3, #80												
 376 0022 83F31188 		msr basepri, r3											
 377 0026 BFF36F8F 		isb														
 378 002a BFF34F8F 		dsb														
 379              	
 380              	@ 0 "" 2
 381              		.thumb
 382              		.syntax unified
 383 002e 0893     		str	r3, [sp, #32]
 384              	.L26:
 385              	.LBE38:
 386              	.LBE37:
 387              		.loc 1 320 0 discriminator 1
 388 0030 FEE7     		b	.L26
 389              	.L25:
 321:/home/rdu/Workspace/project_templates/mcu/stm32_ws/src/libraries/FreeRTOS/Source/event_groups.c **** 	configASSERT( ( uxBitsToWaitFor & eventEVENT_BITS_CONTROL_BYTES ) == 0 );
 390              		.loc 1 321 0
 391 0032 029B     		ldr	r3, [sp, #8]
 392 0034 03F07F43 		and	r3, r3, #-16777216
 393 0038 002B     		cmp	r3, #0
 394 003a 09D0     		beq	.L27
 395              	.LBB39:
 396              	.LBB40:
 397              		.loc 2 195 0 discriminator 1
 398              		.syntax unified
 399              	@ 195 "/home/rdu/Workspace/project_templates/mcu/stm32_ws/src/libraries/FreeRTOS/Source/portable/GC
 400 003c 4FF05003 			mov r3, #80												
 401 0040 83F31188 		msr basepri, r3											
 402 0044 BFF36F8F 		isb														
 403 0048 BFF34F8F 		dsb														
 404              	
 405              	@ 0 "" 2
 406              		.thumb
 407              		.syntax unified
 408 004c 0793     		str	r3, [sp, #28]
 409              	.L28:
 410              	.LBE40:
 411              	.LBE39:
 412              		.loc 1 321 0 discriminator 2
 413 004e FEE7     		b	.L28
 414              	.L27:
 322:/home/rdu/Workspace/project_templates/mcu/stm32_ws/src/libraries/FreeRTOS/Source/event_groups.c **** 	configASSERT( uxBitsToWaitFor != 0 );
 415              		.loc 1 322 0
 416 0050 029B     		ldr	r3, [sp, #8]
 417 0052 002B     		cmp	r3, #0
 418 0054 09D1     		bne	.L29
 419              	.LBB41:
 420              	.LBB42:
 421              		.loc 2 195 0 discriminator 1
 422              		.syntax unified
 423              	@ 195 "/home/rdu/Workspace/project_templates/mcu/stm32_ws/src/libraries/FreeRTOS/Source/portable/GC
 424 0056 4FF05003 			mov r3, #80												
 425 005a 83F31188 		msr basepri, r3											
 426 005e BFF36F8F 		isb														
 427 0062 BFF34F8F 		dsb														
 428              	
 429              	@ 0 "" 2
 430              		.thumb
 431              		.syntax unified
 432 0066 0693     		str	r3, [sp, #24]
 433              	.L30:
 434              	.LBE42:
 435              	.LBE41:
 436              		.loc 1 322 0 discriminator 3
 437 0068 FEE7     		b	.L30
 438              	.L29:
 323:/home/rdu/Workspace/project_templates/mcu/stm32_ws/src/libraries/FreeRTOS/Source/event_groups.c **** 	#if ( ( INCLUDE_xTaskGetSchedulerState == 1 ) || ( configUSE_TIMERS == 1 ) )
 324:/home/rdu/Workspace/project_templates/mcu/stm32_ws/src/libraries/FreeRTOS/Source/event_groups.c **** 	{
 325:/home/rdu/Workspace/project_templates/mcu/stm32_ws/src/libraries/FreeRTOS/Source/event_groups.c **** 		configASSERT( !( ( xTaskGetSchedulerState() == taskSCHEDULER_SUSPENDED ) && ( xTicksToWait != 0 )
 439              		.loc 1 325 0
 440 006a FFF7FEFF 		bl	xTaskGetSchedulerState
 441 006e 0346     		mov	r3, r0
 442 0070 002B     		cmp	r3, #0
 443 0072 02D1     		bne	.L31
 444              		.loc 1 325 0 is_stmt 0 discriminator 2
 445 0074 129B     		ldr	r3, [sp, #72]
 446 0076 002B     		cmp	r3, #0
 447 0078 01D1     		bne	.L32
 448              	.L31:
 449              		.loc 1 325 0 discriminator 3
 450 007a 0123     		movs	r3, #1
 451 007c 00E0     		b	.L33
 452              	.L32:
 453              		.loc 1 325 0 discriminator 4
 454 007e 0023     		movs	r3, #0
 455              	.L33:
 456              		.loc 1 325 0 discriminator 6
 457 0080 002B     		cmp	r3, #0
 458 0082 09D1     		bne	.L34
 459              	.LBB43:
 460              	.LBB44:
 461              		.loc 2 195 0 is_stmt 1 discriminator 7
 462              		.syntax unified
 463              	@ 195 "/home/rdu/Workspace/project_templates/mcu/stm32_ws/src/libraries/FreeRTOS/Source/portable/GC
 464 0084 4FF05003 			mov r3, #80												
 465 0088 83F31188 		msr basepri, r3											
 466 008c BFF36F8F 		isb														
 467 0090 BFF34F8F 		dsb														
 468              	
 469              	@ 0 "" 2
 470              		.thumb
 471              		.syntax unified
 472 0094 0593     		str	r3, [sp, #20]
 473              	.L35:
 474              	.LBE44:
 475              	.LBE43:
 476              		.loc 1 325 0 discriminator 4
 477 0096 FEE7     		b	.L35
 478              	.L34:
 326:/home/rdu/Workspace/project_templates/mcu/stm32_ws/src/libraries/FreeRTOS/Source/event_groups.c **** 	}
 327:/home/rdu/Workspace/project_templates/mcu/stm32_ws/src/libraries/FreeRTOS/Source/event_groups.c **** 	#endif
 328:/home/rdu/Workspace/project_templates/mcu/stm32_ws/src/libraries/FreeRTOS/Source/event_groups.c **** 
 329:/home/rdu/Workspace/project_templates/mcu/stm32_ws/src/libraries/FreeRTOS/Source/event_groups.c **** 	vTaskSuspendAll();
 479              		.loc 1 329 0
 480 0098 FFF7FEFF 		bl	vTaskSuspendAll
 481              	.LBB45:
 330:/home/rdu/Workspace/project_templates/mcu/stm32_ws/src/libraries/FreeRTOS/Source/event_groups.c **** 	{
 331:/home/rdu/Workspace/project_templates/mcu/stm32_ws/src/libraries/FreeRTOS/Source/event_groups.c **** 		const EventBits_t uxCurrentEventBits = pxEventBits->uxEventBits;
 482              		.loc 1 331 0
 483 009c 0D9B     		ldr	r3, [sp, #52]
 484 009e 1B68     		ldr	r3, [r3]
 485 00a0 0B93     		str	r3, [sp, #44]
 332:/home/rdu/Workspace/project_templates/mcu/stm32_ws/src/libraries/FreeRTOS/Source/event_groups.c **** 
 333:/home/rdu/Workspace/project_templates/mcu/stm32_ws/src/libraries/FreeRTOS/Source/event_groups.c **** 		/* Check to see if the wait condition is already met or not. */
 334:/home/rdu/Workspace/project_templates/mcu/stm32_ws/src/libraries/FreeRTOS/Source/event_groups.c **** 		xWaitConditionMet = prvTestWaitCondition( uxCurrentEventBits, uxBitsToWaitFor, xWaitForAllBits );
 486              		.loc 1 334 0
 487 00a2 009A     		ldr	r2, [sp]
 488 00a4 0299     		ldr	r1, [sp, #8]
 489 00a6 0B98     		ldr	r0, [sp, #44]
 490 00a8 FFF7FEFF 		bl	prvTestWaitCondition
 491 00ac 0A90     		str	r0, [sp, #40]
 335:/home/rdu/Workspace/project_templates/mcu/stm32_ws/src/libraries/FreeRTOS/Source/event_groups.c **** 
 336:/home/rdu/Workspace/project_templates/mcu/stm32_ws/src/libraries/FreeRTOS/Source/event_groups.c **** 		if( xWaitConditionMet != pdFALSE )
 492              		.loc 1 336 0
 493 00ae 0A9B     		ldr	r3, [sp, #40]
 494 00b0 002B     		cmp	r3, #0
 495 00b2 0ED0     		beq	.L36
 337:/home/rdu/Workspace/project_templates/mcu/stm32_ws/src/libraries/FreeRTOS/Source/event_groups.c **** 		{
 338:/home/rdu/Workspace/project_templates/mcu/stm32_ws/src/libraries/FreeRTOS/Source/event_groups.c **** 			/* The wait condition has already been met so there is no need to
 339:/home/rdu/Workspace/project_templates/mcu/stm32_ws/src/libraries/FreeRTOS/Source/event_groups.c **** 			block. */
 340:/home/rdu/Workspace/project_templates/mcu/stm32_ws/src/libraries/FreeRTOS/Source/event_groups.c **** 			uxReturn = uxCurrentEventBits;
 496              		.loc 1 340 0
 497 00b4 0B9B     		ldr	r3, [sp, #44]
 498 00b6 0F93     		str	r3, [sp, #60]
 341:/home/rdu/Workspace/project_templates/mcu/stm32_ws/src/libraries/FreeRTOS/Source/event_groups.c **** 			xTicksToWait = ( TickType_t ) 0;
 499              		.loc 1 341 0
 500 00b8 0023     		movs	r3, #0
 501 00ba 1293     		str	r3, [sp, #72]
 342:/home/rdu/Workspace/project_templates/mcu/stm32_ws/src/libraries/FreeRTOS/Source/event_groups.c **** 
 343:/home/rdu/Workspace/project_templates/mcu/stm32_ws/src/libraries/FreeRTOS/Source/event_groups.c **** 			/* Clear the wait bits if requested to do so. */
 344:/home/rdu/Workspace/project_templates/mcu/stm32_ws/src/libraries/FreeRTOS/Source/event_groups.c **** 			if( xClearOnExit != pdFALSE )
 502              		.loc 1 344 0
 503 00bc 019B     		ldr	r3, [sp, #4]
 504 00be 002B     		cmp	r3, #0
 505 00c0 28D0     		beq	.L37
 345:/home/rdu/Workspace/project_templates/mcu/stm32_ws/src/libraries/FreeRTOS/Source/event_groups.c **** 			{
 346:/home/rdu/Workspace/project_templates/mcu/stm32_ws/src/libraries/FreeRTOS/Source/event_groups.c **** 				pxEventBits->uxEventBits &= ~uxBitsToWaitFor;
 506              		.loc 1 346 0
 507 00c2 0D9B     		ldr	r3, [sp, #52]
 508 00c4 1A68     		ldr	r2, [r3]
 509 00c6 029B     		ldr	r3, [sp, #8]
 510 00c8 DB43     		mvns	r3, r3
 511 00ca 1A40     		ands	r2, r2, r3
 512 00cc 0D9B     		ldr	r3, [sp, #52]
 513 00ce 1A60     		str	r2, [r3]
 514 00d0 20E0     		b	.L37
 515              	.L36:
 347:/home/rdu/Workspace/project_templates/mcu/stm32_ws/src/libraries/FreeRTOS/Source/event_groups.c **** 			}
 348:/home/rdu/Workspace/project_templates/mcu/stm32_ws/src/libraries/FreeRTOS/Source/event_groups.c **** 			else
 349:/home/rdu/Workspace/project_templates/mcu/stm32_ws/src/libraries/FreeRTOS/Source/event_groups.c **** 			{
 350:/home/rdu/Workspace/project_templates/mcu/stm32_ws/src/libraries/FreeRTOS/Source/event_groups.c **** 				mtCOVERAGE_TEST_MARKER();
 351:/home/rdu/Workspace/project_templates/mcu/stm32_ws/src/libraries/FreeRTOS/Source/event_groups.c **** 			}
 352:/home/rdu/Workspace/project_templates/mcu/stm32_ws/src/libraries/FreeRTOS/Source/event_groups.c **** 		}
 353:/home/rdu/Workspace/project_templates/mcu/stm32_ws/src/libraries/FreeRTOS/Source/event_groups.c **** 		else if( xTicksToWait == ( TickType_t ) 0 )
 516              		.loc 1 353 0
 517 00d2 129B     		ldr	r3, [sp, #72]
 518 00d4 002B     		cmp	r3, #0
 519 00d6 04D1     		bne	.L38
 354:/home/rdu/Workspace/project_templates/mcu/stm32_ws/src/libraries/FreeRTOS/Source/event_groups.c **** 		{
 355:/home/rdu/Workspace/project_templates/mcu/stm32_ws/src/libraries/FreeRTOS/Source/event_groups.c **** 			/* The wait condition has not been met, but no block time was
 356:/home/rdu/Workspace/project_templates/mcu/stm32_ws/src/libraries/FreeRTOS/Source/event_groups.c **** 			specified, so just return the current value. */
 357:/home/rdu/Workspace/project_templates/mcu/stm32_ws/src/libraries/FreeRTOS/Source/event_groups.c **** 			uxReturn = uxCurrentEventBits;
 520              		.loc 1 357 0
 521 00d8 0B9B     		ldr	r3, [sp, #44]
 522 00da 0F93     		str	r3, [sp, #60]
 358:/home/rdu/Workspace/project_templates/mcu/stm32_ws/src/libraries/FreeRTOS/Source/event_groups.c **** 			xTimeoutOccurred = pdTRUE;
 523              		.loc 1 358 0
 524 00dc 0123     		movs	r3, #1
 525 00de 0C93     		str	r3, [sp, #48]
 526 00e0 18E0     		b	.L37
 527              	.L38:
 359:/home/rdu/Workspace/project_templates/mcu/stm32_ws/src/libraries/FreeRTOS/Source/event_groups.c **** 		}
 360:/home/rdu/Workspace/project_templates/mcu/stm32_ws/src/libraries/FreeRTOS/Source/event_groups.c **** 		else
 361:/home/rdu/Workspace/project_templates/mcu/stm32_ws/src/libraries/FreeRTOS/Source/event_groups.c **** 		{
 362:/home/rdu/Workspace/project_templates/mcu/stm32_ws/src/libraries/FreeRTOS/Source/event_groups.c **** 			/* The task is going to block to wait for its required bits to be
 363:/home/rdu/Workspace/project_templates/mcu/stm32_ws/src/libraries/FreeRTOS/Source/event_groups.c **** 			set.  uxControlBits are used to remember the specified behaviour of
 364:/home/rdu/Workspace/project_templates/mcu/stm32_ws/src/libraries/FreeRTOS/Source/event_groups.c **** 			this call to xEventGroupWaitBits() - for use when the event bits
 365:/home/rdu/Workspace/project_templates/mcu/stm32_ws/src/libraries/FreeRTOS/Source/event_groups.c **** 			unblock the task. */
 366:/home/rdu/Workspace/project_templates/mcu/stm32_ws/src/libraries/FreeRTOS/Source/event_groups.c **** 			if( xClearOnExit != pdFALSE )
 528              		.loc 1 366 0
 529 00e2 019B     		ldr	r3, [sp, #4]
 530 00e4 002B     		cmp	r3, #0
 531 00e6 03D0     		beq	.L39
 367:/home/rdu/Workspace/project_templates/mcu/stm32_ws/src/libraries/FreeRTOS/Source/event_groups.c **** 			{
 368:/home/rdu/Workspace/project_templates/mcu/stm32_ws/src/libraries/FreeRTOS/Source/event_groups.c **** 				uxControlBits |= eventCLEAR_EVENTS_ON_EXIT_BIT;
 532              		.loc 1 368 0
 533 00e8 0E9B     		ldr	r3, [sp, #56]
 534 00ea 43F08073 		orr	r3, r3, #16777216
 535 00ee 0E93     		str	r3, [sp, #56]
 536              	.L39:
 369:/home/rdu/Workspace/project_templates/mcu/stm32_ws/src/libraries/FreeRTOS/Source/event_groups.c **** 			}
 370:/home/rdu/Workspace/project_templates/mcu/stm32_ws/src/libraries/FreeRTOS/Source/event_groups.c **** 			else
 371:/home/rdu/Workspace/project_templates/mcu/stm32_ws/src/libraries/FreeRTOS/Source/event_groups.c **** 			{
 372:/home/rdu/Workspace/project_templates/mcu/stm32_ws/src/libraries/FreeRTOS/Source/event_groups.c **** 				mtCOVERAGE_TEST_MARKER();
 373:/home/rdu/Workspace/project_templates/mcu/stm32_ws/src/libraries/FreeRTOS/Source/event_groups.c **** 			}
 374:/home/rdu/Workspace/project_templates/mcu/stm32_ws/src/libraries/FreeRTOS/Source/event_groups.c **** 
 375:/home/rdu/Workspace/project_templates/mcu/stm32_ws/src/libraries/FreeRTOS/Source/event_groups.c **** 			if( xWaitForAllBits != pdFALSE )
 537              		.loc 1 375 0
 538 00f0 009B     		ldr	r3, [sp]
 539 00f2 002B     		cmp	r3, #0
 540 00f4 03D0     		beq	.L40
 376:/home/rdu/Workspace/project_templates/mcu/stm32_ws/src/libraries/FreeRTOS/Source/event_groups.c **** 			{
 377:/home/rdu/Workspace/project_templates/mcu/stm32_ws/src/libraries/FreeRTOS/Source/event_groups.c **** 				uxControlBits |= eventWAIT_FOR_ALL_BITS;
 541              		.loc 1 377 0
 542 00f6 0E9B     		ldr	r3, [sp, #56]
 543 00f8 43F08063 		orr	r3, r3, #67108864
 544 00fc 0E93     		str	r3, [sp, #56]
 545              	.L40:
 378:/home/rdu/Workspace/project_templates/mcu/stm32_ws/src/libraries/FreeRTOS/Source/event_groups.c **** 			}
 379:/home/rdu/Workspace/project_templates/mcu/stm32_ws/src/libraries/FreeRTOS/Source/event_groups.c **** 			else
 380:/home/rdu/Workspace/project_templates/mcu/stm32_ws/src/libraries/FreeRTOS/Source/event_groups.c **** 			{
 381:/home/rdu/Workspace/project_templates/mcu/stm32_ws/src/libraries/FreeRTOS/Source/event_groups.c **** 				mtCOVERAGE_TEST_MARKER();
 382:/home/rdu/Workspace/project_templates/mcu/stm32_ws/src/libraries/FreeRTOS/Source/event_groups.c **** 			}
 383:/home/rdu/Workspace/project_templates/mcu/stm32_ws/src/libraries/FreeRTOS/Source/event_groups.c **** 
 384:/home/rdu/Workspace/project_templates/mcu/stm32_ws/src/libraries/FreeRTOS/Source/event_groups.c **** 			/* Store the bits that the calling task is waiting for in the
 385:/home/rdu/Workspace/project_templates/mcu/stm32_ws/src/libraries/FreeRTOS/Source/event_groups.c **** 			task's event list item so the kernel knows when a match is
 386:/home/rdu/Workspace/project_templates/mcu/stm32_ws/src/libraries/FreeRTOS/Source/event_groups.c **** 			found.  Then enter the blocked state. */
 387:/home/rdu/Workspace/project_templates/mcu/stm32_ws/src/libraries/FreeRTOS/Source/event_groups.c **** 			vTaskPlaceOnUnorderedEventList( &( pxEventBits->xTasksWaitingForBits ), ( uxBitsToWaitFor | uxCo
 546              		.loc 1 387 0
 547 00fe 0D9B     		ldr	r3, [sp, #52]
 548 0100 181D     		adds	r0, r3, #4
 549 0102 029A     		ldr	r2, [sp, #8]
 550 0104 0E9B     		ldr	r3, [sp, #56]
 551 0106 1343     		orrs	r3, r3, r2
 552 0108 129A     		ldr	r2, [sp, #72]
 553 010a 1946     		mov	r1, r3
 554 010c FFF7FEFF 		bl	vTaskPlaceOnUnorderedEventList
 388:/home/rdu/Workspace/project_templates/mcu/stm32_ws/src/libraries/FreeRTOS/Source/event_groups.c **** 
 389:/home/rdu/Workspace/project_templates/mcu/stm32_ws/src/libraries/FreeRTOS/Source/event_groups.c **** 			/* This is obsolete as it will get set after the task unblocks, but
 390:/home/rdu/Workspace/project_templates/mcu/stm32_ws/src/libraries/FreeRTOS/Source/event_groups.c **** 			some compilers mistakenly generate a warning about the variable
 391:/home/rdu/Workspace/project_templates/mcu/stm32_ws/src/libraries/FreeRTOS/Source/event_groups.c **** 			being returned without being set if it is not done. */
 392:/home/rdu/Workspace/project_templates/mcu/stm32_ws/src/libraries/FreeRTOS/Source/event_groups.c **** 			uxReturn = 0;
 555              		.loc 1 392 0
 556 0110 0023     		movs	r3, #0
 557 0112 0F93     		str	r3, [sp, #60]
 558              	.L37:
 559              	.LBE45:
 393:/home/rdu/Workspace/project_templates/mcu/stm32_ws/src/libraries/FreeRTOS/Source/event_groups.c **** 
 394:/home/rdu/Workspace/project_templates/mcu/stm32_ws/src/libraries/FreeRTOS/Source/event_groups.c **** 			traceEVENT_GROUP_WAIT_BITS_BLOCK( xEventGroup, uxBitsToWaitFor );
 395:/home/rdu/Workspace/project_templates/mcu/stm32_ws/src/libraries/FreeRTOS/Source/event_groups.c **** 		}
 396:/home/rdu/Workspace/project_templates/mcu/stm32_ws/src/libraries/FreeRTOS/Source/event_groups.c **** 	}
 397:/home/rdu/Workspace/project_templates/mcu/stm32_ws/src/libraries/FreeRTOS/Source/event_groups.c **** 	xAlreadyYielded = xTaskResumeAll();
 560              		.loc 1 397 0
 561 0114 FFF7FEFF 		bl	xTaskResumeAll
 562 0118 0990     		str	r0, [sp, #36]
 398:/home/rdu/Workspace/project_templates/mcu/stm32_ws/src/libraries/FreeRTOS/Source/event_groups.c **** 
 399:/home/rdu/Workspace/project_templates/mcu/stm32_ws/src/libraries/FreeRTOS/Source/event_groups.c **** 	if( xTicksToWait != ( TickType_t ) 0 )
 563              		.loc 1 399 0
 564 011a 129B     		ldr	r3, [sp, #72]
 565 011c 002B     		cmp	r3, #0
 566 011e 31D0     		beq	.L41
 400:/home/rdu/Workspace/project_templates/mcu/stm32_ws/src/libraries/FreeRTOS/Source/event_groups.c **** 	{
 401:/home/rdu/Workspace/project_templates/mcu/stm32_ws/src/libraries/FreeRTOS/Source/event_groups.c **** 		if( xAlreadyYielded == pdFALSE )
 567              		.loc 1 401 0
 568 0120 099B     		ldr	r3, [sp, #36]
 569 0122 002B     		cmp	r3, #0
 570 0124 07D1     		bne	.L42
 402:/home/rdu/Workspace/project_templates/mcu/stm32_ws/src/libraries/FreeRTOS/Source/event_groups.c **** 		{
 403:/home/rdu/Workspace/project_templates/mcu/stm32_ws/src/libraries/FreeRTOS/Source/event_groups.c **** 			portYIELD_WITHIN_API();
 571              		.loc 1 403 0
 572 0126 1A4B     		ldr	r3, .L46
 573 0128 4FF08052 		mov	r2, #268435456
 574 012c 1A60     		str	r2, [r3]
 575              		.syntax unified
 576              	@ 403 "/home/rdu/Workspace/project_templates/mcu/stm32_ws/src/libraries/FreeRTOS/Source/event_group
 577 012e BFF34F8F 		dsb
 578              	@ 0 "" 2
 579              	@ 403 "/home/rdu/Workspace/project_templates/mcu/stm32_ws/src/libraries/FreeRTOS/Source/event_group
 580 0132 BFF36F8F 		isb
 581              	@ 0 "" 2
 582              		.thumb
 583              		.syntax unified
 584              	.L42:
 404:/home/rdu/Workspace/project_templates/mcu/stm32_ws/src/libraries/FreeRTOS/Source/event_groups.c **** 		}
 405:/home/rdu/Workspace/project_templates/mcu/stm32_ws/src/libraries/FreeRTOS/Source/event_groups.c **** 		else
 406:/home/rdu/Workspace/project_templates/mcu/stm32_ws/src/libraries/FreeRTOS/Source/event_groups.c **** 		{
 407:/home/rdu/Workspace/project_templates/mcu/stm32_ws/src/libraries/FreeRTOS/Source/event_groups.c **** 			mtCOVERAGE_TEST_MARKER();
 408:/home/rdu/Workspace/project_templates/mcu/stm32_ws/src/libraries/FreeRTOS/Source/event_groups.c **** 		}
 409:/home/rdu/Workspace/project_templates/mcu/stm32_ws/src/libraries/FreeRTOS/Source/event_groups.c **** 
 410:/home/rdu/Workspace/project_templates/mcu/stm32_ws/src/libraries/FreeRTOS/Source/event_groups.c **** 		/* The task blocked to wait for its required bits to be set - at this
 411:/home/rdu/Workspace/project_templates/mcu/stm32_ws/src/libraries/FreeRTOS/Source/event_groups.c **** 		point either the required bits were set or the block time expired.  If
 412:/home/rdu/Workspace/project_templates/mcu/stm32_ws/src/libraries/FreeRTOS/Source/event_groups.c **** 		the required bits were set they will have been stored in the task's
 413:/home/rdu/Workspace/project_templates/mcu/stm32_ws/src/libraries/FreeRTOS/Source/event_groups.c **** 		event list item, and they should now be retrieved then cleared. */
 414:/home/rdu/Workspace/project_templates/mcu/stm32_ws/src/libraries/FreeRTOS/Source/event_groups.c **** 		uxReturn = uxTaskResetEventItemValue();
 585              		.loc 1 414 0
 586 0136 FFF7FEFF 		bl	uxTaskResetEventItemValue
 587 013a 0F90     		str	r0, [sp, #60]
 415:/home/rdu/Workspace/project_templates/mcu/stm32_ws/src/libraries/FreeRTOS/Source/event_groups.c **** 
 416:/home/rdu/Workspace/project_templates/mcu/stm32_ws/src/libraries/FreeRTOS/Source/event_groups.c **** 		if( ( uxReturn & eventUNBLOCKED_DUE_TO_BIT_SET ) == ( EventBits_t ) 0 )
 588              		.loc 1 416 0
 589 013c 0F9B     		ldr	r3, [sp, #60]
 590 013e 03F00073 		and	r3, r3, #33554432
 591 0142 002B     		cmp	r3, #0
 592 0144 1AD1     		bne	.L43
 417:/home/rdu/Workspace/project_templates/mcu/stm32_ws/src/libraries/FreeRTOS/Source/event_groups.c **** 		{
 418:/home/rdu/Workspace/project_templates/mcu/stm32_ws/src/libraries/FreeRTOS/Source/event_groups.c **** 			taskENTER_CRITICAL();
 593              		.loc 1 418 0
 594 0146 FFF7FEFF 		bl	vPortEnterCritical
 419:/home/rdu/Workspace/project_templates/mcu/stm32_ws/src/libraries/FreeRTOS/Source/event_groups.c **** 			{
 420:/home/rdu/Workspace/project_templates/mcu/stm32_ws/src/libraries/FreeRTOS/Source/event_groups.c **** 				/* The task timed out, just return the current event bit value. */
 421:/home/rdu/Workspace/project_templates/mcu/stm32_ws/src/libraries/FreeRTOS/Source/event_groups.c **** 				uxReturn = pxEventBits->uxEventBits;
 595              		.loc 1 421 0
 596 014a 0D9B     		ldr	r3, [sp, #52]
 597 014c 1B68     		ldr	r3, [r3]
 598 014e 0F93     		str	r3, [sp, #60]
 422:/home/rdu/Workspace/project_templates/mcu/stm32_ws/src/libraries/FreeRTOS/Source/event_groups.c **** 
 423:/home/rdu/Workspace/project_templates/mcu/stm32_ws/src/libraries/FreeRTOS/Source/event_groups.c **** 				/* It is possible that the event bits were updated between this
 424:/home/rdu/Workspace/project_templates/mcu/stm32_ws/src/libraries/FreeRTOS/Source/event_groups.c **** 				task leaving the Blocked state and running again. */
 425:/home/rdu/Workspace/project_templates/mcu/stm32_ws/src/libraries/FreeRTOS/Source/event_groups.c **** 				if( prvTestWaitCondition( uxReturn, uxBitsToWaitFor, xWaitForAllBits ) != pdFALSE )
 599              		.loc 1 425 0
 600 0150 009A     		ldr	r2, [sp]
 601 0152 0299     		ldr	r1, [sp, #8]
 602 0154 0F98     		ldr	r0, [sp, #60]
 603 0156 FFF7FEFF 		bl	prvTestWaitCondition
 604 015a 0346     		mov	r3, r0
 605 015c 002B     		cmp	r3, #0
 606 015e 09D0     		beq	.L44
 426:/home/rdu/Workspace/project_templates/mcu/stm32_ws/src/libraries/FreeRTOS/Source/event_groups.c **** 				{
 427:/home/rdu/Workspace/project_templates/mcu/stm32_ws/src/libraries/FreeRTOS/Source/event_groups.c **** 					if( xClearOnExit != pdFALSE )
 607              		.loc 1 427 0
 608 0160 019B     		ldr	r3, [sp, #4]
 609 0162 002B     		cmp	r3, #0
 610 0164 06D0     		beq	.L44
 428:/home/rdu/Workspace/project_templates/mcu/stm32_ws/src/libraries/FreeRTOS/Source/event_groups.c **** 					{
 429:/home/rdu/Workspace/project_templates/mcu/stm32_ws/src/libraries/FreeRTOS/Source/event_groups.c **** 						pxEventBits->uxEventBits &= ~uxBitsToWaitFor;
 611              		.loc 1 429 0
 612 0166 0D9B     		ldr	r3, [sp, #52]
 613 0168 1A68     		ldr	r2, [r3]
 614 016a 029B     		ldr	r3, [sp, #8]
 615 016c DB43     		mvns	r3, r3
 616 016e 1A40     		ands	r2, r2, r3
 617 0170 0D9B     		ldr	r3, [sp, #52]
 618 0172 1A60     		str	r2, [r3]
 619              	.L44:
 430:/home/rdu/Workspace/project_templates/mcu/stm32_ws/src/libraries/FreeRTOS/Source/event_groups.c **** 					}
 431:/home/rdu/Workspace/project_templates/mcu/stm32_ws/src/libraries/FreeRTOS/Source/event_groups.c **** 					else
 432:/home/rdu/Workspace/project_templates/mcu/stm32_ws/src/libraries/FreeRTOS/Source/event_groups.c **** 					{
 433:/home/rdu/Workspace/project_templates/mcu/stm32_ws/src/libraries/FreeRTOS/Source/event_groups.c **** 						mtCOVERAGE_TEST_MARKER();
 434:/home/rdu/Workspace/project_templates/mcu/stm32_ws/src/libraries/FreeRTOS/Source/event_groups.c **** 					}
 435:/home/rdu/Workspace/project_templates/mcu/stm32_ws/src/libraries/FreeRTOS/Source/event_groups.c **** 				}
 436:/home/rdu/Workspace/project_templates/mcu/stm32_ws/src/libraries/FreeRTOS/Source/event_groups.c **** 				else
 437:/home/rdu/Workspace/project_templates/mcu/stm32_ws/src/libraries/FreeRTOS/Source/event_groups.c **** 				{
 438:/home/rdu/Workspace/project_templates/mcu/stm32_ws/src/libraries/FreeRTOS/Source/event_groups.c **** 					mtCOVERAGE_TEST_MARKER();
 439:/home/rdu/Workspace/project_templates/mcu/stm32_ws/src/libraries/FreeRTOS/Source/event_groups.c **** 				}
 440:/home/rdu/Workspace/project_templates/mcu/stm32_ws/src/libraries/FreeRTOS/Source/event_groups.c **** 				xTimeoutOccurred = pdTRUE;
 620              		.loc 1 440 0
 621 0174 0123     		movs	r3, #1
 622 0176 0C93     		str	r3, [sp, #48]
 441:/home/rdu/Workspace/project_templates/mcu/stm32_ws/src/libraries/FreeRTOS/Source/event_groups.c **** 			}
 442:/home/rdu/Workspace/project_templates/mcu/stm32_ws/src/libraries/FreeRTOS/Source/event_groups.c **** 			taskEXIT_CRITICAL();
 623              		.loc 1 442 0
 624 0178 FFF7FEFF 		bl	vPortExitCritical
 625              	.L43:
 443:/home/rdu/Workspace/project_templates/mcu/stm32_ws/src/libraries/FreeRTOS/Source/event_groups.c **** 		}
 444:/home/rdu/Workspace/project_templates/mcu/stm32_ws/src/libraries/FreeRTOS/Source/event_groups.c **** 		else
 445:/home/rdu/Workspace/project_templates/mcu/stm32_ws/src/libraries/FreeRTOS/Source/event_groups.c **** 		{
 446:/home/rdu/Workspace/project_templates/mcu/stm32_ws/src/libraries/FreeRTOS/Source/event_groups.c **** 			/* The task unblocked because the bits were set. */
 447:/home/rdu/Workspace/project_templates/mcu/stm32_ws/src/libraries/FreeRTOS/Source/event_groups.c **** 		}
 448:/home/rdu/Workspace/project_templates/mcu/stm32_ws/src/libraries/FreeRTOS/Source/event_groups.c **** 
 449:/home/rdu/Workspace/project_templates/mcu/stm32_ws/src/libraries/FreeRTOS/Source/event_groups.c **** 		/* The task blocked so control bits may have been set. */
 450:/home/rdu/Workspace/project_templates/mcu/stm32_ws/src/libraries/FreeRTOS/Source/event_groups.c **** 		uxReturn &= ~eventEVENT_BITS_CONTROL_BYTES;
 626              		.loc 1 450 0
 627 017c 0F9B     		ldr	r3, [sp, #60]
 628 017e 23F07F43 		bic	r3, r3, #-16777216
 629 0182 0F93     		str	r3, [sp, #60]
 630              	.L41:
 451:/home/rdu/Workspace/project_templates/mcu/stm32_ws/src/libraries/FreeRTOS/Source/event_groups.c **** 	}
 452:/home/rdu/Workspace/project_templates/mcu/stm32_ws/src/libraries/FreeRTOS/Source/event_groups.c **** 	traceEVENT_GROUP_WAIT_BITS_END( xEventGroup, uxBitsToWaitFor, xTimeoutOccurred );
 453:/home/rdu/Workspace/project_templates/mcu/stm32_ws/src/libraries/FreeRTOS/Source/event_groups.c **** 
 454:/home/rdu/Workspace/project_templates/mcu/stm32_ws/src/libraries/FreeRTOS/Source/event_groups.c **** 	/* Prevent compiler warnings when trace macros are not used. */
 455:/home/rdu/Workspace/project_templates/mcu/stm32_ws/src/libraries/FreeRTOS/Source/event_groups.c **** 	( void ) xTimeoutOccurred;
 456:/home/rdu/Workspace/project_templates/mcu/stm32_ws/src/libraries/FreeRTOS/Source/event_groups.c **** 
 457:/home/rdu/Workspace/project_templates/mcu/stm32_ws/src/libraries/FreeRTOS/Source/event_groups.c **** 	return uxReturn;
 631              		.loc 1 457 0
 632 0184 0F9B     		ldr	r3, [sp, #60]
 458:/home/rdu/Workspace/project_templates/mcu/stm32_ws/src/libraries/FreeRTOS/Source/event_groups.c **** }
 633              		.loc 1 458 0
 634 0186 1846     		mov	r0, r3
 635 0188 11B0     		add	sp, sp, #68
 636              	.LCFI8:
 637              		.cfi_def_cfa_offset 4
 638              		@ sp needed
 639 018a 5DF804FB 		ldr	pc, [sp], #4
 640              	.L47:
 641 018e 00BF     		.align	2
 642              	.L46:
 643 0190 04ED00E0 		.word	-536810236
 644              		.cfi_endproc
 645              	.LFE7:
 647              		.section	.text.xEventGroupClearBits,"ax",%progbits
 648              		.align	1
 649              		.global	xEventGroupClearBits
 650              		.syntax unified
 651              		.thumb
 652              		.thumb_func
 653              		.fpu fpv4-sp-d16
 655              	xEventGroupClearBits:
 656              	.LFB8:
 459:/home/rdu/Workspace/project_templates/mcu/stm32_ws/src/libraries/FreeRTOS/Source/event_groups.c **** /*-----------------------------------------------------------*/
 460:/home/rdu/Workspace/project_templates/mcu/stm32_ws/src/libraries/FreeRTOS/Source/event_groups.c **** 
 461:/home/rdu/Workspace/project_templates/mcu/stm32_ws/src/libraries/FreeRTOS/Source/event_groups.c **** EventBits_t xEventGroupClearBits( EventGroupHandle_t xEventGroup, const EventBits_t uxBitsToClear )
 462:/home/rdu/Workspace/project_templates/mcu/stm32_ws/src/libraries/FreeRTOS/Source/event_groups.c **** {
 657              		.loc 1 462 0
 658              		.cfi_startproc
 659              		@ args = 0, pretend = 0, frame = 24
 660              		@ frame_needed = 0, uses_anonymous_args = 0
 661 0000 00B5     		push	{lr}
 662              	.LCFI9:
 663              		.cfi_def_cfa_offset 4
 664              		.cfi_offset 14, -4
 665 0002 87B0     		sub	sp, sp, #28
 666              	.LCFI10:
 667              		.cfi_def_cfa_offset 32
 668 0004 0190     		str	r0, [sp, #4]
 669 0006 0091     		str	r1, [sp]
 463:/home/rdu/Workspace/project_templates/mcu/stm32_ws/src/libraries/FreeRTOS/Source/event_groups.c **** EventGroup_t *pxEventBits = xEventGroup;
 670              		.loc 1 463 0
 671 0008 019B     		ldr	r3, [sp, #4]
 672 000a 0593     		str	r3, [sp, #20]
 464:/home/rdu/Workspace/project_templates/mcu/stm32_ws/src/libraries/FreeRTOS/Source/event_groups.c **** EventBits_t uxReturn;
 465:/home/rdu/Workspace/project_templates/mcu/stm32_ws/src/libraries/FreeRTOS/Source/event_groups.c **** 
 466:/home/rdu/Workspace/project_templates/mcu/stm32_ws/src/libraries/FreeRTOS/Source/event_groups.c **** 	/* Check the user is not attempting to clear the bits used by the kernel
 467:/home/rdu/Workspace/project_templates/mcu/stm32_ws/src/libraries/FreeRTOS/Source/event_groups.c **** 	itself. */
 468:/home/rdu/Workspace/project_templates/mcu/stm32_ws/src/libraries/FreeRTOS/Source/event_groups.c **** 	configASSERT( xEventGroup );
 673              		.loc 1 468 0
 674 000c 019B     		ldr	r3, [sp, #4]
 675 000e 002B     		cmp	r3, #0
 676 0010 09D1     		bne	.L49
 677              	.LBB46:
 678              	.LBB47:
 679              		.loc 2 195 0 discriminator 1
 680              		.syntax unified
 681              	@ 195 "/home/rdu/Workspace/project_templates/mcu/stm32_ws/src/libraries/FreeRTOS/Source/portable/GC
 682 0012 4FF05003 			mov r3, #80												
 683 0016 83F31188 		msr basepri, r3											
 684 001a BFF36F8F 		isb														
 685 001e BFF34F8F 		dsb														
 686              	
 687              	@ 0 "" 2
 688              		.thumb
 689              		.syntax unified
 690 0022 0393     		str	r3, [sp, #12]
 691              	.L50:
 692              	.LBE47:
 693              	.LBE46:
 694              		.loc 1 468 0 discriminator 1
 695 0024 FEE7     		b	.L50
 696              	.L49:
 469:/home/rdu/Workspace/project_templates/mcu/stm32_ws/src/libraries/FreeRTOS/Source/event_groups.c **** 	configASSERT( ( uxBitsToClear & eventEVENT_BITS_CONTROL_BYTES ) == 0 );
 697              		.loc 1 469 0
 698 0026 009B     		ldr	r3, [sp]
 699 0028 03F07F43 		and	r3, r3, #-16777216
 700 002c 002B     		cmp	r3, #0
 701 002e 09D0     		beq	.L51
 702              	.LBB48:
 703              	.LBB49:
 704              		.loc 2 195 0 discriminator 1
 705              		.syntax unified
 706              	@ 195 "/home/rdu/Workspace/project_templates/mcu/stm32_ws/src/libraries/FreeRTOS/Source/portable/GC
 707 0030 4FF05003 			mov r3, #80												
 708 0034 83F31188 		msr basepri, r3											
 709 0038 BFF36F8F 		isb														
 710 003c BFF34F8F 		dsb														
 711              	
 712              	@ 0 "" 2
 713              		.thumb
 714              		.syntax unified
 715 0040 0293     		str	r3, [sp, #8]
 716              	.L52:
 717              	.LBE49:
 718              	.LBE48:
 719              		.loc 1 469 0 discriminator 2
 720 0042 FEE7     		b	.L52
 721              	.L51:
 470:/home/rdu/Workspace/project_templates/mcu/stm32_ws/src/libraries/FreeRTOS/Source/event_groups.c **** 
 471:/home/rdu/Workspace/project_templates/mcu/stm32_ws/src/libraries/FreeRTOS/Source/event_groups.c **** 	taskENTER_CRITICAL();
 722              		.loc 1 471 0
 723 0044 FFF7FEFF 		bl	vPortEnterCritical
 472:/home/rdu/Workspace/project_templates/mcu/stm32_ws/src/libraries/FreeRTOS/Source/event_groups.c **** 	{
 473:/home/rdu/Workspace/project_templates/mcu/stm32_ws/src/libraries/FreeRTOS/Source/event_groups.c **** 		traceEVENT_GROUP_CLEAR_BITS( xEventGroup, uxBitsToClear );
 474:/home/rdu/Workspace/project_templates/mcu/stm32_ws/src/libraries/FreeRTOS/Source/event_groups.c **** 
 475:/home/rdu/Workspace/project_templates/mcu/stm32_ws/src/libraries/FreeRTOS/Source/event_groups.c **** 		/* The value returned is the event group value prior to the bits being
 476:/home/rdu/Workspace/project_templates/mcu/stm32_ws/src/libraries/FreeRTOS/Source/event_groups.c **** 		cleared. */
 477:/home/rdu/Workspace/project_templates/mcu/stm32_ws/src/libraries/FreeRTOS/Source/event_groups.c **** 		uxReturn = pxEventBits->uxEventBits;
 724              		.loc 1 477 0
 725 0048 059B     		ldr	r3, [sp, #20]
 726 004a 1B68     		ldr	r3, [r3]
 727 004c 0493     		str	r3, [sp, #16]
 478:/home/rdu/Workspace/project_templates/mcu/stm32_ws/src/libraries/FreeRTOS/Source/event_groups.c **** 
 479:/home/rdu/Workspace/project_templates/mcu/stm32_ws/src/libraries/FreeRTOS/Source/event_groups.c **** 		/* Clear the bits. */
 480:/home/rdu/Workspace/project_templates/mcu/stm32_ws/src/libraries/FreeRTOS/Source/event_groups.c **** 		pxEventBits->uxEventBits &= ~uxBitsToClear;
 728              		.loc 1 480 0
 729 004e 059B     		ldr	r3, [sp, #20]
 730 0050 1A68     		ldr	r2, [r3]
 731 0052 009B     		ldr	r3, [sp]
 732 0054 DB43     		mvns	r3, r3
 733 0056 1A40     		ands	r2, r2, r3
 734 0058 059B     		ldr	r3, [sp, #20]
 735 005a 1A60     		str	r2, [r3]
 481:/home/rdu/Workspace/project_templates/mcu/stm32_ws/src/libraries/FreeRTOS/Source/event_groups.c **** 	}
 482:/home/rdu/Workspace/project_templates/mcu/stm32_ws/src/libraries/FreeRTOS/Source/event_groups.c **** 	taskEXIT_CRITICAL();
 736              		.loc 1 482 0
 737 005c FFF7FEFF 		bl	vPortExitCritical
 483:/home/rdu/Workspace/project_templates/mcu/stm32_ws/src/libraries/FreeRTOS/Source/event_groups.c **** 
 484:/home/rdu/Workspace/project_templates/mcu/stm32_ws/src/libraries/FreeRTOS/Source/event_groups.c **** 	return uxReturn;
 738              		.loc 1 484 0
 739 0060 049B     		ldr	r3, [sp, #16]
 485:/home/rdu/Workspace/project_templates/mcu/stm32_ws/src/libraries/FreeRTOS/Source/event_groups.c **** }
 740              		.loc 1 485 0
 741 0062 1846     		mov	r0, r3
 742 0064 07B0     		add	sp, sp, #28
 743              	.LCFI11:
 744              		.cfi_def_cfa_offset 4
 745              		@ sp needed
 746 0066 5DF804FB 		ldr	pc, [sp], #4
 747              		.cfi_endproc
 748              	.LFE8:
 750              		.section	.text.xEventGroupGetBitsFromISR,"ax",%progbits
 751              		.align	1
 752              		.global	xEventGroupGetBitsFromISR
 753              		.syntax unified
 754              		.thumb
 755              		.thumb_func
 756              		.fpu fpv4-sp-d16
 758              	xEventGroupGetBitsFromISR:
 759              	.LFB9:
 486:/home/rdu/Workspace/project_templates/mcu/stm32_ws/src/libraries/FreeRTOS/Source/event_groups.c **** /*-----------------------------------------------------------*/
 487:/home/rdu/Workspace/project_templates/mcu/stm32_ws/src/libraries/FreeRTOS/Source/event_groups.c **** 
 488:/home/rdu/Workspace/project_templates/mcu/stm32_ws/src/libraries/FreeRTOS/Source/event_groups.c **** #if ( ( configUSE_TRACE_FACILITY == 1 ) && ( INCLUDE_xTimerPendFunctionCall == 1 ) && ( configUSE_T
 489:/home/rdu/Workspace/project_templates/mcu/stm32_ws/src/libraries/FreeRTOS/Source/event_groups.c **** 
 490:/home/rdu/Workspace/project_templates/mcu/stm32_ws/src/libraries/FreeRTOS/Source/event_groups.c **** 	BaseType_t xEventGroupClearBitsFromISR( EventGroupHandle_t xEventGroup, const EventBits_t uxBitsTo
 491:/home/rdu/Workspace/project_templates/mcu/stm32_ws/src/libraries/FreeRTOS/Source/event_groups.c **** 	{
 492:/home/rdu/Workspace/project_templates/mcu/stm32_ws/src/libraries/FreeRTOS/Source/event_groups.c **** 		BaseType_t xReturn;
 493:/home/rdu/Workspace/project_templates/mcu/stm32_ws/src/libraries/FreeRTOS/Source/event_groups.c **** 
 494:/home/rdu/Workspace/project_templates/mcu/stm32_ws/src/libraries/FreeRTOS/Source/event_groups.c **** 		traceEVENT_GROUP_CLEAR_BITS_FROM_ISR( xEventGroup, uxBitsToClear );
 495:/home/rdu/Workspace/project_templates/mcu/stm32_ws/src/libraries/FreeRTOS/Source/event_groups.c **** 		xReturn = xTimerPendFunctionCallFromISR( vEventGroupClearBitsCallback, ( void * ) xEventGroup, ( 
 496:/home/rdu/Workspace/project_templates/mcu/stm32_ws/src/libraries/FreeRTOS/Source/event_groups.c **** 
 497:/home/rdu/Workspace/project_templates/mcu/stm32_ws/src/libraries/FreeRTOS/Source/event_groups.c **** 		return xReturn;
 498:/home/rdu/Workspace/project_templates/mcu/stm32_ws/src/libraries/FreeRTOS/Source/event_groups.c **** 	}
 499:/home/rdu/Workspace/project_templates/mcu/stm32_ws/src/libraries/FreeRTOS/Source/event_groups.c **** 
 500:/home/rdu/Workspace/project_templates/mcu/stm32_ws/src/libraries/FreeRTOS/Source/event_groups.c **** #endif
 501:/home/rdu/Workspace/project_templates/mcu/stm32_ws/src/libraries/FreeRTOS/Source/event_groups.c **** /*-----------------------------------------------------------*/
 502:/home/rdu/Workspace/project_templates/mcu/stm32_ws/src/libraries/FreeRTOS/Source/event_groups.c **** 
 503:/home/rdu/Workspace/project_templates/mcu/stm32_ws/src/libraries/FreeRTOS/Source/event_groups.c **** EventBits_t xEventGroupGetBitsFromISR( EventGroupHandle_t xEventGroup )
 504:/home/rdu/Workspace/project_templates/mcu/stm32_ws/src/libraries/FreeRTOS/Source/event_groups.c **** {
 760              		.loc 1 504 0
 761              		.cfi_startproc
 762              		@ args = 0, pretend = 0, frame = 32
 763              		@ frame_needed = 0, uses_anonymous_args = 0
 764              		@ link register save eliminated.
 765 0000 88B0     		sub	sp, sp, #32
 766              	.LCFI12:
 767              		.cfi_def_cfa_offset 32
 768 0002 0190     		str	r0, [sp, #4]
 505:/home/rdu/Workspace/project_templates/mcu/stm32_ws/src/libraries/FreeRTOS/Source/event_groups.c **** UBaseType_t uxSavedInterruptStatus;
 506:/home/rdu/Workspace/project_templates/mcu/stm32_ws/src/libraries/FreeRTOS/Source/event_groups.c **** EventGroup_t const * const pxEventBits = xEventGroup;
 769              		.loc 1 506 0
 770 0004 019B     		ldr	r3, [sp, #4]
 771 0006 0793     		str	r3, [sp, #28]
 772              	.LBB50:
 773              	.LBB51:
 196:/home/rdu/Workspace/project_templates/mcu/stm32_ws/src/libraries/FreeRTOS/Source/portable/GCC/ARM_CM4F/portmacro.h **** 	(
 197:/home/rdu/Workspace/project_templates/mcu/stm32_ws/src/libraries/FreeRTOS/Source/portable/GCC/ARM_CM4F/portmacro.h **** 		"	mov %0, %1												\n"	\
 198:/home/rdu/Workspace/project_templates/mcu/stm32_ws/src/libraries/FreeRTOS/Source/portable/GCC/ARM_CM4F/portmacro.h **** 		"	msr basepri, %0											\n" \
 199:/home/rdu/Workspace/project_templates/mcu/stm32_ws/src/libraries/FreeRTOS/Source/portable/GCC/ARM_CM4F/portmacro.h **** 		"	isb														\n" \
 200:/home/rdu/Workspace/project_templates/mcu/stm32_ws/src/libraries/FreeRTOS/Source/portable/GCC/ARM_CM4F/portmacro.h **** 		"	dsb														\n" \
 201:/home/rdu/Workspace/project_templates/mcu/stm32_ws/src/libraries/FreeRTOS/Source/portable/GCC/ARM_CM4F/portmacro.h **** 		:"=r" (ulNewBASEPRI) : "i" ( configMAX_SYSCALL_INTERRUPT_PRIORITY ) : "memory"
 202:/home/rdu/Workspace/project_templates/mcu/stm32_ws/src/libraries/FreeRTOS/Source/portable/GCC/ARM_CM4F/portmacro.h **** 	);
 203:/home/rdu/Workspace/project_templates/mcu/stm32_ws/src/libraries/FreeRTOS/Source/portable/GCC/ARM_CM4F/portmacro.h **** }
 204:/home/rdu/Workspace/project_templates/mcu/stm32_ws/src/libraries/FreeRTOS/Source/portable/GCC/ARM_CM4F/portmacro.h **** 
 205:/home/rdu/Workspace/project_templates/mcu/stm32_ws/src/libraries/FreeRTOS/Source/portable/GCC/ARM_CM4F/portmacro.h **** /*-----------------------------------------------------------*/
 206:/home/rdu/Workspace/project_templates/mcu/stm32_ws/src/libraries/FreeRTOS/Source/portable/GCC/ARM_CM4F/portmacro.h **** 
 207:/home/rdu/Workspace/project_templates/mcu/stm32_ws/src/libraries/FreeRTOS/Source/portable/GCC/ARM_CM4F/portmacro.h **** portFORCE_INLINE static uint32_t ulPortRaiseBASEPRI( void )
 208:/home/rdu/Workspace/project_templates/mcu/stm32_ws/src/libraries/FreeRTOS/Source/portable/GCC/ARM_CM4F/portmacro.h **** {
 209:/home/rdu/Workspace/project_templates/mcu/stm32_ws/src/libraries/FreeRTOS/Source/portable/GCC/ARM_CM4F/portmacro.h **** uint32_t ulOriginalBASEPRI, ulNewBASEPRI;
 210:/home/rdu/Workspace/project_templates/mcu/stm32_ws/src/libraries/FreeRTOS/Source/portable/GCC/ARM_CM4F/portmacro.h **** 
 211:/home/rdu/Workspace/project_templates/mcu/stm32_ws/src/libraries/FreeRTOS/Source/portable/GCC/ARM_CM4F/portmacro.h **** 	__asm volatile
 774              		.loc 2 211 0
 775              		.syntax unified
 776              	@ 211 "/home/rdu/Workspace/project_templates/mcu/stm32_ws/src/libraries/FreeRTOS/Source/portable/GC
 777 0008 EFF31182 			mrs r2, basepri											
 778 000c 4FF05003 		mov r3, #80												
 779 0010 83F31188 		msr basepri, r3											
 780 0014 BFF36F8F 		isb														
 781 0018 BFF34F8F 		dsb														
 782              	
 783              	@ 0 "" 2
 784              		.thumb
 785              		.syntax unified
 786 001c 0392     		str	r2, [sp, #12]
 787 001e 0293     		str	r3, [sp, #8]
 212:/home/rdu/Workspace/project_templates/mcu/stm32_ws/src/libraries/FreeRTOS/Source/portable/GCC/ARM_CM4F/portmacro.h **** 	(
 213:/home/rdu/Workspace/project_templates/mcu/stm32_ws/src/libraries/FreeRTOS/Source/portable/GCC/ARM_CM4F/portmacro.h **** 		"	mrs %0, basepri											\n" \
 214:/home/rdu/Workspace/project_templates/mcu/stm32_ws/src/libraries/FreeRTOS/Source/portable/GCC/ARM_CM4F/portmacro.h **** 		"	mov %1, %2												\n"	\
 215:/home/rdu/Workspace/project_templates/mcu/stm32_ws/src/libraries/FreeRTOS/Source/portable/GCC/ARM_CM4F/portmacro.h **** 		"	msr basepri, %1											\n" \
 216:/home/rdu/Workspace/project_templates/mcu/stm32_ws/src/libraries/FreeRTOS/Source/portable/GCC/ARM_CM4F/portmacro.h **** 		"	isb														\n" \
 217:/home/rdu/Workspace/project_templates/mcu/stm32_ws/src/libraries/FreeRTOS/Source/portable/GCC/ARM_CM4F/portmacro.h **** 		"	dsb														\n" \
 218:/home/rdu/Workspace/project_templates/mcu/stm32_ws/src/libraries/FreeRTOS/Source/portable/GCC/ARM_CM4F/portmacro.h **** 		:"=r" (ulOriginalBASEPRI), "=r" (ulNewBASEPRI) : "i" ( configMAX_SYSCALL_INTERRUPT_PRIORITY ) : "
 219:/home/rdu/Workspace/project_templates/mcu/stm32_ws/src/libraries/FreeRTOS/Source/portable/GCC/ARM_CM4F/portmacro.h **** 	);
 220:/home/rdu/Workspace/project_templates/mcu/stm32_ws/src/libraries/FreeRTOS/Source/portable/GCC/ARM_CM4F/portmacro.h **** 
 221:/home/rdu/Workspace/project_templates/mcu/stm32_ws/src/libraries/FreeRTOS/Source/portable/GCC/ARM_CM4F/portmacro.h **** 	/* This return will not be reached but is necessary to prevent compiler
 222:/home/rdu/Workspace/project_templates/mcu/stm32_ws/src/libraries/FreeRTOS/Source/portable/GCC/ARM_CM4F/portmacro.h **** 	warnings. */
 223:/home/rdu/Workspace/project_templates/mcu/stm32_ws/src/libraries/FreeRTOS/Source/portable/GCC/ARM_CM4F/portmacro.h **** 	return ulOriginalBASEPRI;
 788              		.loc 2 223 0
 789 0020 039B     		ldr	r3, [sp, #12]
 790              	.LBE51:
 791              	.LBE50:
 507:/home/rdu/Workspace/project_templates/mcu/stm32_ws/src/libraries/FreeRTOS/Source/event_groups.c **** EventBits_t uxReturn;
 508:/home/rdu/Workspace/project_templates/mcu/stm32_ws/src/libraries/FreeRTOS/Source/event_groups.c **** 
 509:/home/rdu/Workspace/project_templates/mcu/stm32_ws/src/libraries/FreeRTOS/Source/event_groups.c **** 	uxSavedInterruptStatus = portSET_INTERRUPT_MASK_FROM_ISR();
 792              		.loc 1 509 0
 793 0022 0693     		str	r3, [sp, #24]
 510:/home/rdu/Workspace/project_templates/mcu/stm32_ws/src/libraries/FreeRTOS/Source/event_groups.c **** 	{
 511:/home/rdu/Workspace/project_templates/mcu/stm32_ws/src/libraries/FreeRTOS/Source/event_groups.c **** 		uxReturn = pxEventBits->uxEventBits;
 794              		.loc 1 511 0
 795 0024 079B     		ldr	r3, [sp, #28]
 796 0026 1B68     		ldr	r3, [r3]
 797 0028 0593     		str	r3, [sp, #20]
 798 002a 069B     		ldr	r3, [sp, #24]
 799 002c 0493     		str	r3, [sp, #16]
 800              	.LBB52:
 801              	.LBB53:
 224:/home/rdu/Workspace/project_templates/mcu/stm32_ws/src/libraries/FreeRTOS/Source/portable/GCC/ARM_CM4F/portmacro.h **** }
 225:/home/rdu/Workspace/project_templates/mcu/stm32_ws/src/libraries/FreeRTOS/Source/portable/GCC/ARM_CM4F/portmacro.h **** /*-----------------------------------------------------------*/
 226:/home/rdu/Workspace/project_templates/mcu/stm32_ws/src/libraries/FreeRTOS/Source/portable/GCC/ARM_CM4F/portmacro.h **** 
 227:/home/rdu/Workspace/project_templates/mcu/stm32_ws/src/libraries/FreeRTOS/Source/portable/GCC/ARM_CM4F/portmacro.h **** portFORCE_INLINE static void vPortSetBASEPRI( uint32_t ulNewMaskValue )
 228:/home/rdu/Workspace/project_templates/mcu/stm32_ws/src/libraries/FreeRTOS/Source/portable/GCC/ARM_CM4F/portmacro.h **** {
 229:/home/rdu/Workspace/project_templates/mcu/stm32_ws/src/libraries/FreeRTOS/Source/portable/GCC/ARM_CM4F/portmacro.h **** 	__asm volatile
 802              		.loc 2 229 0
 803 002e 049B     		ldr	r3, [sp, #16]
 804              		.syntax unified
 805              	@ 229 "/home/rdu/Workspace/project_templates/mcu/stm32_ws/src/libraries/FreeRTOS/Source/portable/GC
 806 0030 83F31188 			msr basepri, r3	
 807              	@ 0 "" 2
 808              		.thumb
 809              		.syntax unified
 810              	.LBE53:
 811              	.LBE52:
 512:/home/rdu/Workspace/project_templates/mcu/stm32_ws/src/libraries/FreeRTOS/Source/event_groups.c **** 	}
 513:/home/rdu/Workspace/project_templates/mcu/stm32_ws/src/libraries/FreeRTOS/Source/event_groups.c **** 	portCLEAR_INTERRUPT_MASK_FROM_ISR( uxSavedInterruptStatus );
 514:/home/rdu/Workspace/project_templates/mcu/stm32_ws/src/libraries/FreeRTOS/Source/event_groups.c **** 
 515:/home/rdu/Workspace/project_templates/mcu/stm32_ws/src/libraries/FreeRTOS/Source/event_groups.c **** 	return uxReturn;
 812              		.loc 1 515 0
 813 0034 059B     		ldr	r3, [sp, #20]
 516:/home/rdu/Workspace/project_templates/mcu/stm32_ws/src/libraries/FreeRTOS/Source/event_groups.c **** } /*lint !e818 EventGroupHandle_t is a typedef used in other functions to so can't be pointer to co
 814              		.loc 1 516 0
 815 0036 1846     		mov	r0, r3
 816 0038 08B0     		add	sp, sp, #32
 817              	.LCFI13:
 818              		.cfi_def_cfa_offset 0
 819              		@ sp needed
 820 003a 7047     		bx	lr
 821              		.cfi_endproc
 822              	.LFE9:
 824              		.section	.text.xEventGroupSetBits,"ax",%progbits
 825              		.align	1
 826              		.global	xEventGroupSetBits
 827              		.syntax unified
 828              		.thumb
 829              		.thumb_func
 830              		.fpu fpv4-sp-d16
 832              	xEventGroupSetBits:
 833              	.LFB10:
 517:/home/rdu/Workspace/project_templates/mcu/stm32_ws/src/libraries/FreeRTOS/Source/event_groups.c **** /*-----------------------------------------------------------*/
 518:/home/rdu/Workspace/project_templates/mcu/stm32_ws/src/libraries/FreeRTOS/Source/event_groups.c **** 
 519:/home/rdu/Workspace/project_templates/mcu/stm32_ws/src/libraries/FreeRTOS/Source/event_groups.c **** EventBits_t xEventGroupSetBits( EventGroupHandle_t xEventGroup, const EventBits_t uxBitsToSet )
 520:/home/rdu/Workspace/project_templates/mcu/stm32_ws/src/libraries/FreeRTOS/Source/event_groups.c **** {
 834              		.loc 1 520 0
 835              		.cfi_startproc
 836              		@ args = 0, pretend = 0, frame = 56
 837              		@ frame_needed = 0, uses_anonymous_args = 0
 838 0000 00B5     		push	{lr}
 839              	.LCFI14:
 840              		.cfi_def_cfa_offset 4
 841              		.cfi_offset 14, -4
 842 0002 8FB0     		sub	sp, sp, #60
 843              	.LCFI15:
 844              		.cfi_def_cfa_offset 64
 845 0004 0190     		str	r0, [sp, #4]
 846 0006 0091     		str	r1, [sp]
 521:/home/rdu/Workspace/project_templates/mcu/stm32_ws/src/libraries/FreeRTOS/Source/event_groups.c **** ListItem_t *pxListItem, *pxNext;
 522:/home/rdu/Workspace/project_templates/mcu/stm32_ws/src/libraries/FreeRTOS/Source/event_groups.c **** ListItem_t const *pxListEnd;
 523:/home/rdu/Workspace/project_templates/mcu/stm32_ws/src/libraries/FreeRTOS/Source/event_groups.c **** List_t const * pxList;
 524:/home/rdu/Workspace/project_templates/mcu/stm32_ws/src/libraries/FreeRTOS/Source/event_groups.c **** EventBits_t uxBitsToClear = 0, uxBitsWaitedFor, uxControlBits;
 847              		.loc 1 524 0
 848 0008 0023     		movs	r3, #0
 849 000a 0C93     		str	r3, [sp, #48]
 525:/home/rdu/Workspace/project_templates/mcu/stm32_ws/src/libraries/FreeRTOS/Source/event_groups.c **** EventGroup_t *pxEventBits = xEventGroup;
 850              		.loc 1 525 0
 851 000c 019B     		ldr	r3, [sp, #4]
 852 000e 0A93     		str	r3, [sp, #40]
 526:/home/rdu/Workspace/project_templates/mcu/stm32_ws/src/libraries/FreeRTOS/Source/event_groups.c **** BaseType_t xMatchFound = pdFALSE;
 853              		.loc 1 526 0
 854 0010 0023     		movs	r3, #0
 855 0012 0B93     		str	r3, [sp, #44]
 527:/home/rdu/Workspace/project_templates/mcu/stm32_ws/src/libraries/FreeRTOS/Source/event_groups.c **** 
 528:/home/rdu/Workspace/project_templates/mcu/stm32_ws/src/libraries/FreeRTOS/Source/event_groups.c **** 	/* Check the user is not attempting to set the bits used by the kernel
 529:/home/rdu/Workspace/project_templates/mcu/stm32_ws/src/libraries/FreeRTOS/Source/event_groups.c **** 	itself. */
 530:/home/rdu/Workspace/project_templates/mcu/stm32_ws/src/libraries/FreeRTOS/Source/event_groups.c **** 	configASSERT( xEventGroup );
 856              		.loc 1 530 0
 857 0014 019B     		ldr	r3, [sp, #4]
 858 0016 002B     		cmp	r3, #0
 859 0018 09D1     		bne	.L58
 860              	.LBB54:
 861              	.LBB55:
 195:/home/rdu/Workspace/project_templates/mcu/stm32_ws/src/libraries/FreeRTOS/Source/portable/GCC/ARM_CM4F/portmacro.h **** 	(
 862              		.loc 2 195 0 discriminator 1
 863              		.syntax unified
 864              	@ 195 "/home/rdu/Workspace/project_templates/mcu/stm32_ws/src/libraries/FreeRTOS/Source/portable/GC
 865 001a 4FF05003 			mov r3, #80												
 866 001e 83F31188 		msr basepri, r3											
 867 0022 BFF36F8F 		isb														
 868 0026 BFF34F8F 		dsb														
 869              	
 870              	@ 0 "" 2
 871              		.thumb
 872              		.syntax unified
 873 002a 0493     		str	r3, [sp, #16]
 874              	.L59:
 875              	.LBE55:
 876              	.LBE54:
 877              		.loc 1 530 0 discriminator 1
 878 002c FEE7     		b	.L59
 879              	.L58:
 531:/home/rdu/Workspace/project_templates/mcu/stm32_ws/src/libraries/FreeRTOS/Source/event_groups.c **** 	configASSERT( ( uxBitsToSet & eventEVENT_BITS_CONTROL_BYTES ) == 0 );
 880              		.loc 1 531 0
 881 002e 009B     		ldr	r3, [sp]
 882 0030 03F07F43 		and	r3, r3, #-16777216
 883 0034 002B     		cmp	r3, #0
 884 0036 09D0     		beq	.L60
 885              	.LBB56:
 886              	.LBB57:
 195:/home/rdu/Workspace/project_templates/mcu/stm32_ws/src/libraries/FreeRTOS/Source/portable/GCC/ARM_CM4F/portmacro.h **** 	(
 887              		.loc 2 195 0 discriminator 1
 888              		.syntax unified
 889              	@ 195 "/home/rdu/Workspace/project_templates/mcu/stm32_ws/src/libraries/FreeRTOS/Source/portable/GC
 890 0038 4FF05003 			mov r3, #80												
 891 003c 83F31188 		msr basepri, r3											
 892 0040 BFF36F8F 		isb														
 893 0044 BFF34F8F 		dsb														
 894              	
 895              	@ 0 "" 2
 896              		.thumb
 897              		.syntax unified
 898 0048 0393     		str	r3, [sp, #12]
 899              	.L61:
 900              	.LBE57:
 901              	.LBE56:
 902              		.loc 1 531 0 discriminator 2
 903 004a FEE7     		b	.L61
 904              	.L60:
 532:/home/rdu/Workspace/project_templates/mcu/stm32_ws/src/libraries/FreeRTOS/Source/event_groups.c **** 
 533:/home/rdu/Workspace/project_templates/mcu/stm32_ws/src/libraries/FreeRTOS/Source/event_groups.c **** 	pxList = &( pxEventBits->xTasksWaitingForBits );
 905              		.loc 1 533 0
 906 004c 0A9B     		ldr	r3, [sp, #40]
 907 004e 0433     		adds	r3, r3, #4
 908 0050 0993     		str	r3, [sp, #36]
 534:/home/rdu/Workspace/project_templates/mcu/stm32_ws/src/libraries/FreeRTOS/Source/event_groups.c **** 	pxListEnd = listGET_END_MARKER( pxList ); /*lint !e826 !e740 !e9087 The mini list structure is use
 909              		.loc 1 534 0
 910 0052 099B     		ldr	r3, [sp, #36]
 911 0054 0833     		adds	r3, r3, #8
 912 0056 0893     		str	r3, [sp, #32]
 535:/home/rdu/Workspace/project_templates/mcu/stm32_ws/src/libraries/FreeRTOS/Source/event_groups.c **** 	vTaskSuspendAll();
 913              		.loc 1 535 0
 914 0058 FFF7FEFF 		bl	vTaskSuspendAll
 536:/home/rdu/Workspace/project_templates/mcu/stm32_ws/src/libraries/FreeRTOS/Source/event_groups.c **** 	{
 537:/home/rdu/Workspace/project_templates/mcu/stm32_ws/src/libraries/FreeRTOS/Source/event_groups.c **** 		traceEVENT_GROUP_SET_BITS( xEventGroup, uxBitsToSet );
 538:/home/rdu/Workspace/project_templates/mcu/stm32_ws/src/libraries/FreeRTOS/Source/event_groups.c **** 
 539:/home/rdu/Workspace/project_templates/mcu/stm32_ws/src/libraries/FreeRTOS/Source/event_groups.c **** 		pxListItem = listGET_HEAD_ENTRY( pxList );
 915              		.loc 1 539 0
 916 005c 099B     		ldr	r3, [sp, #36]
 917 005e DB68     		ldr	r3, [r3, #12]
 918 0060 0D93     		str	r3, [sp, #52]
 540:/home/rdu/Workspace/project_templates/mcu/stm32_ws/src/libraries/FreeRTOS/Source/event_groups.c **** 
 541:/home/rdu/Workspace/project_templates/mcu/stm32_ws/src/libraries/FreeRTOS/Source/event_groups.c **** 		/* Set the bits. */
 542:/home/rdu/Workspace/project_templates/mcu/stm32_ws/src/libraries/FreeRTOS/Source/event_groups.c **** 		pxEventBits->uxEventBits |= uxBitsToSet;
 919              		.loc 1 542 0
 920 0062 0A9B     		ldr	r3, [sp, #40]
 921 0064 1A68     		ldr	r2, [r3]
 922 0066 009B     		ldr	r3, [sp]
 923 0068 1A43     		orrs	r2, r2, r3
 924 006a 0A9B     		ldr	r3, [sp, #40]
 925 006c 1A60     		str	r2, [r3]
 543:/home/rdu/Workspace/project_templates/mcu/stm32_ws/src/libraries/FreeRTOS/Source/event_groups.c **** 
 544:/home/rdu/Workspace/project_templates/mcu/stm32_ws/src/libraries/FreeRTOS/Source/event_groups.c **** 		/* See if the new bit value should unblock any tasks. */
 545:/home/rdu/Workspace/project_templates/mcu/stm32_ws/src/libraries/FreeRTOS/Source/event_groups.c **** 		while( pxListItem != pxListEnd )
 926              		.loc 1 545 0
 927 006e 3CE0     		b	.L62
 928              	.L67:
 546:/home/rdu/Workspace/project_templates/mcu/stm32_ws/src/libraries/FreeRTOS/Source/event_groups.c **** 		{
 547:/home/rdu/Workspace/project_templates/mcu/stm32_ws/src/libraries/FreeRTOS/Source/event_groups.c **** 			pxNext = listGET_NEXT( pxListItem );
 929              		.loc 1 547 0
 930 0070 0D9B     		ldr	r3, [sp, #52]
 931 0072 5B68     		ldr	r3, [r3, #4]
 932 0074 0793     		str	r3, [sp, #28]
 548:/home/rdu/Workspace/project_templates/mcu/stm32_ws/src/libraries/FreeRTOS/Source/event_groups.c **** 			uxBitsWaitedFor = listGET_LIST_ITEM_VALUE( pxListItem );
 933              		.loc 1 548 0
 934 0076 0D9B     		ldr	r3, [sp, #52]
 935 0078 1B68     		ldr	r3, [r3]
 936 007a 0693     		str	r3, [sp, #24]
 549:/home/rdu/Workspace/project_templates/mcu/stm32_ws/src/libraries/FreeRTOS/Source/event_groups.c **** 			xMatchFound = pdFALSE;
 937              		.loc 1 549 0
 938 007c 0023     		movs	r3, #0
 939 007e 0B93     		str	r3, [sp, #44]
 550:/home/rdu/Workspace/project_templates/mcu/stm32_ws/src/libraries/FreeRTOS/Source/event_groups.c **** 
 551:/home/rdu/Workspace/project_templates/mcu/stm32_ws/src/libraries/FreeRTOS/Source/event_groups.c **** 			/* Split the bits waited for from the control bits. */
 552:/home/rdu/Workspace/project_templates/mcu/stm32_ws/src/libraries/FreeRTOS/Source/event_groups.c **** 			uxControlBits = uxBitsWaitedFor & eventEVENT_BITS_CONTROL_BYTES;
 940              		.loc 1 552 0
 941 0080 069B     		ldr	r3, [sp, #24]
 942 0082 03F07F43 		and	r3, r3, #-16777216
 943 0086 0593     		str	r3, [sp, #20]
 553:/home/rdu/Workspace/project_templates/mcu/stm32_ws/src/libraries/FreeRTOS/Source/event_groups.c **** 			uxBitsWaitedFor &= ~eventEVENT_BITS_CONTROL_BYTES;
 944              		.loc 1 553 0
 945 0088 069B     		ldr	r3, [sp, #24]
 946 008a 23F07F43 		bic	r3, r3, #-16777216
 947 008e 0693     		str	r3, [sp, #24]
 554:/home/rdu/Workspace/project_templates/mcu/stm32_ws/src/libraries/FreeRTOS/Source/event_groups.c **** 
 555:/home/rdu/Workspace/project_templates/mcu/stm32_ws/src/libraries/FreeRTOS/Source/event_groups.c **** 			if( ( uxControlBits & eventWAIT_FOR_ALL_BITS ) == ( EventBits_t ) 0 )
 948              		.loc 1 555 0
 949 0090 059B     		ldr	r3, [sp, #20]
 950 0092 03F08063 		and	r3, r3, #67108864
 951 0096 002B     		cmp	r3, #0
 952 0098 08D1     		bne	.L63
 556:/home/rdu/Workspace/project_templates/mcu/stm32_ws/src/libraries/FreeRTOS/Source/event_groups.c **** 			{
 557:/home/rdu/Workspace/project_templates/mcu/stm32_ws/src/libraries/FreeRTOS/Source/event_groups.c **** 				/* Just looking for single bit being set. */
 558:/home/rdu/Workspace/project_templates/mcu/stm32_ws/src/libraries/FreeRTOS/Source/event_groups.c **** 				if( ( uxBitsWaitedFor & pxEventBits->uxEventBits ) != ( EventBits_t ) 0 )
 953              		.loc 1 558 0
 954 009a 0A9B     		ldr	r3, [sp, #40]
 955 009c 1A68     		ldr	r2, [r3]
 956 009e 069B     		ldr	r3, [sp, #24]
 957 00a0 1340     		ands	r3, r3, r2
 958 00a2 002B     		cmp	r3, #0
 959 00a4 0BD0     		beq	.L64
 559:/home/rdu/Workspace/project_templates/mcu/stm32_ws/src/libraries/FreeRTOS/Source/event_groups.c **** 				{
 560:/home/rdu/Workspace/project_templates/mcu/stm32_ws/src/libraries/FreeRTOS/Source/event_groups.c **** 					xMatchFound = pdTRUE;
 960              		.loc 1 560 0
 961 00a6 0123     		movs	r3, #1
 962 00a8 0B93     		str	r3, [sp, #44]
 963 00aa 08E0     		b	.L64
 964              	.L63:
 561:/home/rdu/Workspace/project_templates/mcu/stm32_ws/src/libraries/FreeRTOS/Source/event_groups.c **** 				}
 562:/home/rdu/Workspace/project_templates/mcu/stm32_ws/src/libraries/FreeRTOS/Source/event_groups.c **** 				else
 563:/home/rdu/Workspace/project_templates/mcu/stm32_ws/src/libraries/FreeRTOS/Source/event_groups.c **** 				{
 564:/home/rdu/Workspace/project_templates/mcu/stm32_ws/src/libraries/FreeRTOS/Source/event_groups.c **** 					mtCOVERAGE_TEST_MARKER();
 565:/home/rdu/Workspace/project_templates/mcu/stm32_ws/src/libraries/FreeRTOS/Source/event_groups.c **** 				}
 566:/home/rdu/Workspace/project_templates/mcu/stm32_ws/src/libraries/FreeRTOS/Source/event_groups.c **** 			}
 567:/home/rdu/Workspace/project_templates/mcu/stm32_ws/src/libraries/FreeRTOS/Source/event_groups.c **** 			else if( ( uxBitsWaitedFor & pxEventBits->uxEventBits ) == uxBitsWaitedFor )
 965              		.loc 1 567 0
 966 00ac 0A9B     		ldr	r3, [sp, #40]
 967 00ae 1A68     		ldr	r2, [r3]
 968 00b0 069B     		ldr	r3, [sp, #24]
 969 00b2 1340     		ands	r3, r3, r2
 970 00b4 069A     		ldr	r2, [sp, #24]
 971 00b6 9A42     		cmp	r2, r3
 972 00b8 01D1     		bne	.L64
 568:/home/rdu/Workspace/project_templates/mcu/stm32_ws/src/libraries/FreeRTOS/Source/event_groups.c **** 			{
 569:/home/rdu/Workspace/project_templates/mcu/stm32_ws/src/libraries/FreeRTOS/Source/event_groups.c **** 				/* All bits are set. */
 570:/home/rdu/Workspace/project_templates/mcu/stm32_ws/src/libraries/FreeRTOS/Source/event_groups.c **** 				xMatchFound = pdTRUE;
 973              		.loc 1 570 0
 974 00ba 0123     		movs	r3, #1
 975 00bc 0B93     		str	r3, [sp, #44]
 976              	.L64:
 571:/home/rdu/Workspace/project_templates/mcu/stm32_ws/src/libraries/FreeRTOS/Source/event_groups.c **** 			}
 572:/home/rdu/Workspace/project_templates/mcu/stm32_ws/src/libraries/FreeRTOS/Source/event_groups.c **** 			else
 573:/home/rdu/Workspace/project_templates/mcu/stm32_ws/src/libraries/FreeRTOS/Source/event_groups.c **** 			{
 574:/home/rdu/Workspace/project_templates/mcu/stm32_ws/src/libraries/FreeRTOS/Source/event_groups.c **** 				/* Need all bits to be set, but not all the bits were set. */
 575:/home/rdu/Workspace/project_templates/mcu/stm32_ws/src/libraries/FreeRTOS/Source/event_groups.c **** 			}
 576:/home/rdu/Workspace/project_templates/mcu/stm32_ws/src/libraries/FreeRTOS/Source/event_groups.c **** 
 577:/home/rdu/Workspace/project_templates/mcu/stm32_ws/src/libraries/FreeRTOS/Source/event_groups.c **** 			if( xMatchFound != pdFALSE )
 977              		.loc 1 577 0
 978 00be 0B9B     		ldr	r3, [sp, #44]
 979 00c0 002B     		cmp	r3, #0
 980 00c2 10D0     		beq	.L65
 578:/home/rdu/Workspace/project_templates/mcu/stm32_ws/src/libraries/FreeRTOS/Source/event_groups.c **** 			{
 579:/home/rdu/Workspace/project_templates/mcu/stm32_ws/src/libraries/FreeRTOS/Source/event_groups.c **** 				/* The bits match.  Should the bits be cleared on exit? */
 580:/home/rdu/Workspace/project_templates/mcu/stm32_ws/src/libraries/FreeRTOS/Source/event_groups.c **** 				if( ( uxControlBits & eventCLEAR_EVENTS_ON_EXIT_BIT ) != ( EventBits_t ) 0 )
 981              		.loc 1 580 0
 982 00c4 059B     		ldr	r3, [sp, #20]
 983 00c6 03F08073 		and	r3, r3, #16777216
 984 00ca 002B     		cmp	r3, #0
 985 00cc 03D0     		beq	.L66
 581:/home/rdu/Workspace/project_templates/mcu/stm32_ws/src/libraries/FreeRTOS/Source/event_groups.c **** 				{
 582:/home/rdu/Workspace/project_templates/mcu/stm32_ws/src/libraries/FreeRTOS/Source/event_groups.c **** 					uxBitsToClear |= uxBitsWaitedFor;
 986              		.loc 1 582 0
 987 00ce 0C9A     		ldr	r2, [sp, #48]
 988 00d0 069B     		ldr	r3, [sp, #24]
 989 00d2 1343     		orrs	r3, r3, r2
 990 00d4 0C93     		str	r3, [sp, #48]
 991              	.L66:
 583:/home/rdu/Workspace/project_templates/mcu/stm32_ws/src/libraries/FreeRTOS/Source/event_groups.c **** 				}
 584:/home/rdu/Workspace/project_templates/mcu/stm32_ws/src/libraries/FreeRTOS/Source/event_groups.c **** 				else
 585:/home/rdu/Workspace/project_templates/mcu/stm32_ws/src/libraries/FreeRTOS/Source/event_groups.c **** 				{
 586:/home/rdu/Workspace/project_templates/mcu/stm32_ws/src/libraries/FreeRTOS/Source/event_groups.c **** 					mtCOVERAGE_TEST_MARKER();
 587:/home/rdu/Workspace/project_templates/mcu/stm32_ws/src/libraries/FreeRTOS/Source/event_groups.c **** 				}
 588:/home/rdu/Workspace/project_templates/mcu/stm32_ws/src/libraries/FreeRTOS/Source/event_groups.c **** 
 589:/home/rdu/Workspace/project_templates/mcu/stm32_ws/src/libraries/FreeRTOS/Source/event_groups.c **** 				/* Store the actual event flag value in the task's event list
 590:/home/rdu/Workspace/project_templates/mcu/stm32_ws/src/libraries/FreeRTOS/Source/event_groups.c **** 				item before removing the task from the event list.  The
 591:/home/rdu/Workspace/project_templates/mcu/stm32_ws/src/libraries/FreeRTOS/Source/event_groups.c **** 				eventUNBLOCKED_DUE_TO_BIT_SET bit is set so the task knows
 592:/home/rdu/Workspace/project_templates/mcu/stm32_ws/src/libraries/FreeRTOS/Source/event_groups.c **** 				that is was unblocked due to its required bits matching, rather
 593:/home/rdu/Workspace/project_templates/mcu/stm32_ws/src/libraries/FreeRTOS/Source/event_groups.c **** 				than because it timed out. */
 594:/home/rdu/Workspace/project_templates/mcu/stm32_ws/src/libraries/FreeRTOS/Source/event_groups.c **** 				vTaskRemoveFromUnorderedEventList( pxListItem, pxEventBits->uxEventBits | eventUNBLOCKED_DUE_TO
 992              		.loc 1 594 0
 993 00d6 0A9B     		ldr	r3, [sp, #40]
 994 00d8 1B68     		ldr	r3, [r3]
 995 00da 43F00073 		orr	r3, r3, #33554432
 996 00de 1946     		mov	r1, r3
 997 00e0 0D98     		ldr	r0, [sp, #52]
 998 00e2 FFF7FEFF 		bl	vTaskRemoveFromUnorderedEventList
 999              	.L65:
 595:/home/rdu/Workspace/project_templates/mcu/stm32_ws/src/libraries/FreeRTOS/Source/event_groups.c **** 			}
 596:/home/rdu/Workspace/project_templates/mcu/stm32_ws/src/libraries/FreeRTOS/Source/event_groups.c **** 
 597:/home/rdu/Workspace/project_templates/mcu/stm32_ws/src/libraries/FreeRTOS/Source/event_groups.c **** 			/* Move onto the next list item.  Note pxListItem->pxNext is not
 598:/home/rdu/Workspace/project_templates/mcu/stm32_ws/src/libraries/FreeRTOS/Source/event_groups.c **** 			used here as the list item may have been removed from the event list
 599:/home/rdu/Workspace/project_templates/mcu/stm32_ws/src/libraries/FreeRTOS/Source/event_groups.c **** 			and inserted into the ready/pending reading list. */
 600:/home/rdu/Workspace/project_templates/mcu/stm32_ws/src/libraries/FreeRTOS/Source/event_groups.c **** 			pxListItem = pxNext;
 1000              		.loc 1 600 0
 1001 00e6 079B     		ldr	r3, [sp, #28]
 1002 00e8 0D93     		str	r3, [sp, #52]
 1003              	.L62:
 545:/home/rdu/Workspace/project_templates/mcu/stm32_ws/src/libraries/FreeRTOS/Source/event_groups.c **** 		{
 1004              		.loc 1 545 0
 1005 00ea 0D9A     		ldr	r2, [sp, #52]
 1006 00ec 089B     		ldr	r3, [sp, #32]
 1007 00ee 9A42     		cmp	r2, r3
 1008 00f0 BED1     		bne	.L67
 601:/home/rdu/Workspace/project_templates/mcu/stm32_ws/src/libraries/FreeRTOS/Source/event_groups.c **** 		}
 602:/home/rdu/Workspace/project_templates/mcu/stm32_ws/src/libraries/FreeRTOS/Source/event_groups.c **** 
 603:/home/rdu/Workspace/project_templates/mcu/stm32_ws/src/libraries/FreeRTOS/Source/event_groups.c **** 		/* Clear any bits that matched when the eventCLEAR_EVENTS_ON_EXIT_BIT
 604:/home/rdu/Workspace/project_templates/mcu/stm32_ws/src/libraries/FreeRTOS/Source/event_groups.c **** 		bit was set in the control word. */
 605:/home/rdu/Workspace/project_templates/mcu/stm32_ws/src/libraries/FreeRTOS/Source/event_groups.c **** 		pxEventBits->uxEventBits &= ~uxBitsToClear;
 1009              		.loc 1 605 0
 1010 00f2 0A9B     		ldr	r3, [sp, #40]
 1011 00f4 1A68     		ldr	r2, [r3]
 1012 00f6 0C9B     		ldr	r3, [sp, #48]
 1013 00f8 DB43     		mvns	r3, r3
 1014 00fa 1A40     		ands	r2, r2, r3
 1015 00fc 0A9B     		ldr	r3, [sp, #40]
 1016 00fe 1A60     		str	r2, [r3]
 606:/home/rdu/Workspace/project_templates/mcu/stm32_ws/src/libraries/FreeRTOS/Source/event_groups.c **** 	}
 607:/home/rdu/Workspace/project_templates/mcu/stm32_ws/src/libraries/FreeRTOS/Source/event_groups.c **** 	( void ) xTaskResumeAll();
 1017              		.loc 1 607 0
 1018 0100 FFF7FEFF 		bl	xTaskResumeAll
 608:/home/rdu/Workspace/project_templates/mcu/stm32_ws/src/libraries/FreeRTOS/Source/event_groups.c **** 
 609:/home/rdu/Workspace/project_templates/mcu/stm32_ws/src/libraries/FreeRTOS/Source/event_groups.c **** 	return pxEventBits->uxEventBits;
 1019              		.loc 1 609 0
 1020 0104 0A9B     		ldr	r3, [sp, #40]
 1021 0106 1B68     		ldr	r3, [r3]
 610:/home/rdu/Workspace/project_templates/mcu/stm32_ws/src/libraries/FreeRTOS/Source/event_groups.c **** }
 1022              		.loc 1 610 0
 1023 0108 1846     		mov	r0, r3
 1024 010a 0FB0     		add	sp, sp, #60
 1025              	.LCFI16:
 1026              		.cfi_def_cfa_offset 4
 1027              		@ sp needed
 1028 010c 5DF804FB 		ldr	pc, [sp], #4
 1029              		.cfi_endproc
 1030              	.LFE10:
 1032              		.section	.text.vEventGroupDelete,"ax",%progbits
 1033              		.align	1
 1034              		.global	vEventGroupDelete
 1035              		.syntax unified
 1036              		.thumb
 1037              		.thumb_func
 1038              		.fpu fpv4-sp-d16
 1040              	vEventGroupDelete:
 1041              	.LFB11:
 611:/home/rdu/Workspace/project_templates/mcu/stm32_ws/src/libraries/FreeRTOS/Source/event_groups.c **** /*-----------------------------------------------------------*/
 612:/home/rdu/Workspace/project_templates/mcu/stm32_ws/src/libraries/FreeRTOS/Source/event_groups.c **** 
 613:/home/rdu/Workspace/project_templates/mcu/stm32_ws/src/libraries/FreeRTOS/Source/event_groups.c **** void vEventGroupDelete( EventGroupHandle_t xEventGroup )
 614:/home/rdu/Workspace/project_templates/mcu/stm32_ws/src/libraries/FreeRTOS/Source/event_groups.c **** {
 1042              		.loc 1 614 0
 1043              		.cfi_startproc
 1044              		@ args = 0, pretend = 0, frame = 24
 1045              		@ frame_needed = 0, uses_anonymous_args = 0
 1046 0000 00B5     		push	{lr}
 1047              	.LCFI17:
 1048              		.cfi_def_cfa_offset 4
 1049              		.cfi_offset 14, -4
 1050 0002 87B0     		sub	sp, sp, #28
 1051              	.LCFI18:
 1052              		.cfi_def_cfa_offset 32
 1053 0004 0190     		str	r0, [sp, #4]
 615:/home/rdu/Workspace/project_templates/mcu/stm32_ws/src/libraries/FreeRTOS/Source/event_groups.c **** EventGroup_t *pxEventBits = xEventGroup;
 1054              		.loc 1 615 0
 1055 0006 019B     		ldr	r3, [sp, #4]
 1056 0008 0593     		str	r3, [sp, #20]
 616:/home/rdu/Workspace/project_templates/mcu/stm32_ws/src/libraries/FreeRTOS/Source/event_groups.c **** const List_t *pxTasksWaitingForBits = &( pxEventBits->xTasksWaitingForBits );
 1057              		.loc 1 616 0
 1058 000a 059B     		ldr	r3, [sp, #20]
 1059 000c 0433     		adds	r3, r3, #4
 1060 000e 0493     		str	r3, [sp, #16]
 617:/home/rdu/Workspace/project_templates/mcu/stm32_ws/src/libraries/FreeRTOS/Source/event_groups.c **** 
 618:/home/rdu/Workspace/project_templates/mcu/stm32_ws/src/libraries/FreeRTOS/Source/event_groups.c **** 	vTaskSuspendAll();
 1061              		.loc 1 618 0
 1062 0010 FFF7FEFF 		bl	vTaskSuspendAll
 619:/home/rdu/Workspace/project_templates/mcu/stm32_ws/src/libraries/FreeRTOS/Source/event_groups.c **** 	{
 620:/home/rdu/Workspace/project_templates/mcu/stm32_ws/src/libraries/FreeRTOS/Source/event_groups.c **** 		traceEVENT_GROUP_DELETE( xEventGroup );
 621:/home/rdu/Workspace/project_templates/mcu/stm32_ws/src/libraries/FreeRTOS/Source/event_groups.c **** 
 622:/home/rdu/Workspace/project_templates/mcu/stm32_ws/src/libraries/FreeRTOS/Source/event_groups.c **** 		while( listCURRENT_LIST_LENGTH( pxTasksWaitingForBits ) > ( UBaseType_t ) 0 )
 1063              		.loc 1 622 0
 1064 0014 16E0     		b	.L70
 1065              	.L73:
 623:/home/rdu/Workspace/project_templates/mcu/stm32_ws/src/libraries/FreeRTOS/Source/event_groups.c **** 		{
 624:/home/rdu/Workspace/project_templates/mcu/stm32_ws/src/libraries/FreeRTOS/Source/event_groups.c **** 			/* Unblock the task, returning 0 as the event list is being deleted
 625:/home/rdu/Workspace/project_templates/mcu/stm32_ws/src/libraries/FreeRTOS/Source/event_groups.c **** 			and cannot therefore have any bits set. */
 626:/home/rdu/Workspace/project_templates/mcu/stm32_ws/src/libraries/FreeRTOS/Source/event_groups.c **** 			configASSERT( pxTasksWaitingForBits->xListEnd.pxNext != ( const ListItem_t * ) &( pxTasksWaiting
 1066              		.loc 1 626 0
 1067 0016 049B     		ldr	r3, [sp, #16]
 1068 0018 DA68     		ldr	r2, [r3, #12]
 1069 001a 049B     		ldr	r3, [sp, #16]
 1070 001c 0833     		adds	r3, r3, #8
 1071 001e 9A42     		cmp	r2, r3
 1072 0020 09D1     		bne	.L71
 1073              	.LBB58:
 1074              	.LBB59:
 195:/home/rdu/Workspace/project_templates/mcu/stm32_ws/src/libraries/FreeRTOS/Source/portable/GCC/ARM_CM4F/portmacro.h **** 	(
 1075              		.loc 2 195 0 discriminator 1
 1076              		.syntax unified
 1077              	@ 195 "/home/rdu/Workspace/project_templates/mcu/stm32_ws/src/libraries/FreeRTOS/Source/portable/GC
 1078 0022 4FF05003 			mov r3, #80												
 1079 0026 83F31188 		msr basepri, r3											
 1080 002a BFF36F8F 		isb														
 1081 002e BFF34F8F 		dsb														
 1082              	
 1083              	@ 0 "" 2
 1084              		.thumb
 1085              		.syntax unified
 1086 0032 0393     		str	r3, [sp, #12]
 1087              	.L72:
 1088              	.LBE59:
 1089              	.LBE58:
 1090              		.loc 1 626 0 discriminator 1
 1091 0034 FEE7     		b	.L72
 1092              	.L71:
 627:/home/rdu/Workspace/project_templates/mcu/stm32_ws/src/libraries/FreeRTOS/Source/event_groups.c **** 			vTaskRemoveFromUnorderedEventList( pxTasksWaitingForBits->xListEnd.pxNext, eventUNBLOCKED_DUE_TO
 1093              		.loc 1 627 0
 1094 0036 049B     		ldr	r3, [sp, #16]
 1095 0038 DB68     		ldr	r3, [r3, #12]
 1096 003a 4FF00071 		mov	r1, #33554432
 1097 003e 1846     		mov	r0, r3
 1098 0040 FFF7FEFF 		bl	vTaskRemoveFromUnorderedEventList
 1099              	.L70:
 622:/home/rdu/Workspace/project_templates/mcu/stm32_ws/src/libraries/FreeRTOS/Source/event_groups.c **** 		{
 1100              		.loc 1 622 0
 1101 0044 049B     		ldr	r3, [sp, #16]
 1102 0046 1B68     		ldr	r3, [r3]
 1103 0048 002B     		cmp	r3, #0
 1104 004a E4D1     		bne	.L73
 628:/home/rdu/Workspace/project_templates/mcu/stm32_ws/src/libraries/FreeRTOS/Source/event_groups.c **** 		}
 629:/home/rdu/Workspace/project_templates/mcu/stm32_ws/src/libraries/FreeRTOS/Source/event_groups.c **** 
 630:/home/rdu/Workspace/project_templates/mcu/stm32_ws/src/libraries/FreeRTOS/Source/event_groups.c **** 		#if( ( configSUPPORT_DYNAMIC_ALLOCATION == 1 ) && ( configSUPPORT_STATIC_ALLOCATION == 0 ) )
 631:/home/rdu/Workspace/project_templates/mcu/stm32_ws/src/libraries/FreeRTOS/Source/event_groups.c **** 		{
 632:/home/rdu/Workspace/project_templates/mcu/stm32_ws/src/libraries/FreeRTOS/Source/event_groups.c **** 			/* The event group can only have been allocated dynamically - free
 633:/home/rdu/Workspace/project_templates/mcu/stm32_ws/src/libraries/FreeRTOS/Source/event_groups.c **** 			it again. */
 634:/home/rdu/Workspace/project_templates/mcu/stm32_ws/src/libraries/FreeRTOS/Source/event_groups.c **** 			vPortFree( pxEventBits );
 1105              		.loc 1 634 0
 1106 004c 0598     		ldr	r0, [sp, #20]
 1107 004e FFF7FEFF 		bl	vPortFree
 635:/home/rdu/Workspace/project_templates/mcu/stm32_ws/src/libraries/FreeRTOS/Source/event_groups.c **** 		}
 636:/home/rdu/Workspace/project_templates/mcu/stm32_ws/src/libraries/FreeRTOS/Source/event_groups.c **** 		#elif( ( configSUPPORT_DYNAMIC_ALLOCATION == 1 ) && ( configSUPPORT_STATIC_ALLOCATION == 1 ) )
 637:/home/rdu/Workspace/project_templates/mcu/stm32_ws/src/libraries/FreeRTOS/Source/event_groups.c **** 		{
 638:/home/rdu/Workspace/project_templates/mcu/stm32_ws/src/libraries/FreeRTOS/Source/event_groups.c **** 			/* The event group could have been allocated statically or
 639:/home/rdu/Workspace/project_templates/mcu/stm32_ws/src/libraries/FreeRTOS/Source/event_groups.c **** 			dynamically, so check before attempting to free the memory. */
 640:/home/rdu/Workspace/project_templates/mcu/stm32_ws/src/libraries/FreeRTOS/Source/event_groups.c **** 			if( pxEventBits->ucStaticallyAllocated == ( uint8_t ) pdFALSE )
 641:/home/rdu/Workspace/project_templates/mcu/stm32_ws/src/libraries/FreeRTOS/Source/event_groups.c **** 			{
 642:/home/rdu/Workspace/project_templates/mcu/stm32_ws/src/libraries/FreeRTOS/Source/event_groups.c **** 				vPortFree( pxEventBits );
 643:/home/rdu/Workspace/project_templates/mcu/stm32_ws/src/libraries/FreeRTOS/Source/event_groups.c **** 			}
 644:/home/rdu/Workspace/project_templates/mcu/stm32_ws/src/libraries/FreeRTOS/Source/event_groups.c **** 			else
 645:/home/rdu/Workspace/project_templates/mcu/stm32_ws/src/libraries/FreeRTOS/Source/event_groups.c **** 			{
 646:/home/rdu/Workspace/project_templates/mcu/stm32_ws/src/libraries/FreeRTOS/Source/event_groups.c **** 				mtCOVERAGE_TEST_MARKER();
 647:/home/rdu/Workspace/project_templates/mcu/stm32_ws/src/libraries/FreeRTOS/Source/event_groups.c **** 			}
 648:/home/rdu/Workspace/project_templates/mcu/stm32_ws/src/libraries/FreeRTOS/Source/event_groups.c **** 		}
 649:/home/rdu/Workspace/project_templates/mcu/stm32_ws/src/libraries/FreeRTOS/Source/event_groups.c **** 		#endif /* configSUPPORT_DYNAMIC_ALLOCATION */
 650:/home/rdu/Workspace/project_templates/mcu/stm32_ws/src/libraries/FreeRTOS/Source/event_groups.c **** 	}
 651:/home/rdu/Workspace/project_templates/mcu/stm32_ws/src/libraries/FreeRTOS/Source/event_groups.c **** 	( void ) xTaskResumeAll();
 1108              		.loc 1 651 0
 1109 0052 FFF7FEFF 		bl	xTaskResumeAll
 652:/home/rdu/Workspace/project_templates/mcu/stm32_ws/src/libraries/FreeRTOS/Source/event_groups.c **** }
 1110              		.loc 1 652 0
 1111 0056 00BF     		nop
 1112 0058 07B0     		add	sp, sp, #28
 1113              	.LCFI19:
 1114              		.cfi_def_cfa_offset 4
 1115              		@ sp needed
 1116 005a 5DF804FB 		ldr	pc, [sp], #4
 1117              		.cfi_endproc
 1118              	.LFE11:
 1120              		.section	.text.vEventGroupSetBitsCallback,"ax",%progbits
 1121              		.align	1
 1122              		.global	vEventGroupSetBitsCallback
 1123              		.syntax unified
 1124              		.thumb
 1125              		.thumb_func
 1126              		.fpu fpv4-sp-d16
 1128              	vEventGroupSetBitsCallback:
 1129              	.LFB12:
 653:/home/rdu/Workspace/project_templates/mcu/stm32_ws/src/libraries/FreeRTOS/Source/event_groups.c **** /*-----------------------------------------------------------*/
 654:/home/rdu/Workspace/project_templates/mcu/stm32_ws/src/libraries/FreeRTOS/Source/event_groups.c **** 
 655:/home/rdu/Workspace/project_templates/mcu/stm32_ws/src/libraries/FreeRTOS/Source/event_groups.c **** /* For internal use only - execute a 'set bits' command that was pended from
 656:/home/rdu/Workspace/project_templates/mcu/stm32_ws/src/libraries/FreeRTOS/Source/event_groups.c **** an interrupt. */
 657:/home/rdu/Workspace/project_templates/mcu/stm32_ws/src/libraries/FreeRTOS/Source/event_groups.c **** void vEventGroupSetBitsCallback( void *pvEventGroup, const uint32_t ulBitsToSet )
 658:/home/rdu/Workspace/project_templates/mcu/stm32_ws/src/libraries/FreeRTOS/Source/event_groups.c **** {
 1130              		.loc 1 658 0
 1131              		.cfi_startproc
 1132              		@ args = 0, pretend = 0, frame = 8
 1133              		@ frame_needed = 0, uses_anonymous_args = 0
 1134 0000 00B5     		push	{lr}
 1135              	.LCFI20:
 1136              		.cfi_def_cfa_offset 4
 1137              		.cfi_offset 14, -4
 1138 0002 83B0     		sub	sp, sp, #12
 1139              	.LCFI21:
 1140              		.cfi_def_cfa_offset 16
 1141 0004 0190     		str	r0, [sp, #4]
 1142 0006 0091     		str	r1, [sp]
 659:/home/rdu/Workspace/project_templates/mcu/stm32_ws/src/libraries/FreeRTOS/Source/event_groups.c **** 	( void ) xEventGroupSetBits( pvEventGroup, ( EventBits_t ) ulBitsToSet ); /*lint !e9079 Can't avoi
 1143              		.loc 1 659 0
 1144 0008 0099     		ldr	r1, [sp]
 1145 000a 0198     		ldr	r0, [sp, #4]
 1146 000c FFF7FEFF 		bl	xEventGroupSetBits
 660:/home/rdu/Workspace/project_templates/mcu/stm32_ws/src/libraries/FreeRTOS/Source/event_groups.c **** }
 1147              		.loc 1 660 0
 1148 0010 00BF     		nop
 1149 0012 03B0     		add	sp, sp, #12
 1150              	.LCFI22:
 1151              		.cfi_def_cfa_offset 4
 1152              		@ sp needed
 1153 0014 5DF804FB 		ldr	pc, [sp], #4
 1154              		.cfi_endproc
 1155              	.LFE12:
 1157              		.section	.text.vEventGroupClearBitsCallback,"ax",%progbits
 1158              		.align	1
 1159              		.global	vEventGroupClearBitsCallback
 1160              		.syntax unified
 1161              		.thumb
 1162              		.thumb_func
 1163              		.fpu fpv4-sp-d16
 1165              	vEventGroupClearBitsCallback:
 1166              	.LFB13:
 661:/home/rdu/Workspace/project_templates/mcu/stm32_ws/src/libraries/FreeRTOS/Source/event_groups.c **** /*-----------------------------------------------------------*/
 662:/home/rdu/Workspace/project_templates/mcu/stm32_ws/src/libraries/FreeRTOS/Source/event_groups.c **** 
 663:/home/rdu/Workspace/project_templates/mcu/stm32_ws/src/libraries/FreeRTOS/Source/event_groups.c **** /* For internal use only - execute a 'clear bits' command that was pended from
 664:/home/rdu/Workspace/project_templates/mcu/stm32_ws/src/libraries/FreeRTOS/Source/event_groups.c **** an interrupt. */
 665:/home/rdu/Workspace/project_templates/mcu/stm32_ws/src/libraries/FreeRTOS/Source/event_groups.c **** void vEventGroupClearBitsCallback( void *pvEventGroup, const uint32_t ulBitsToClear )
 666:/home/rdu/Workspace/project_templates/mcu/stm32_ws/src/libraries/FreeRTOS/Source/event_groups.c **** {
 1167              		.loc 1 666 0
 1168              		.cfi_startproc
 1169              		@ args = 0, pretend = 0, frame = 8
 1170              		@ frame_needed = 0, uses_anonymous_args = 0
 1171 0000 00B5     		push	{lr}
 1172              	.LCFI23:
 1173              		.cfi_def_cfa_offset 4
 1174              		.cfi_offset 14, -4
 1175 0002 83B0     		sub	sp, sp, #12
 1176              	.LCFI24:
 1177              		.cfi_def_cfa_offset 16
 1178 0004 0190     		str	r0, [sp, #4]
 1179 0006 0091     		str	r1, [sp]
 667:/home/rdu/Workspace/project_templates/mcu/stm32_ws/src/libraries/FreeRTOS/Source/event_groups.c **** 	( void ) xEventGroupClearBits( pvEventGroup, ( EventBits_t ) ulBitsToClear ); /*lint !e9079 Can't 
 1180              		.loc 1 667 0
 1181 0008 0099     		ldr	r1, [sp]
 1182 000a 0198     		ldr	r0, [sp, #4]
 1183 000c FFF7FEFF 		bl	xEventGroupClearBits
 668:/home/rdu/Workspace/project_templates/mcu/stm32_ws/src/libraries/FreeRTOS/Source/event_groups.c **** }
 1184              		.loc 1 668 0
 1185 0010 00BF     		nop
 1186 0012 03B0     		add	sp, sp, #12
 1187              	.LCFI25:
 1188              		.cfi_def_cfa_offset 4
 1189              		@ sp needed
 1190 0014 5DF804FB 		ldr	pc, [sp], #4
 1191              		.cfi_endproc
 1192              	.LFE13:
 1194              		.section	.text.prvTestWaitCondition,"ax",%progbits
 1195              		.align	1
 1196              		.syntax unified
 1197              		.thumb
 1198              		.thumb_func
 1199              		.fpu fpv4-sp-d16
 1201              	prvTestWaitCondition:
 1202              	.LFB14:
 669:/home/rdu/Workspace/project_templates/mcu/stm32_ws/src/libraries/FreeRTOS/Source/event_groups.c **** /*-----------------------------------------------------------*/
 670:/home/rdu/Workspace/project_templates/mcu/stm32_ws/src/libraries/FreeRTOS/Source/event_groups.c **** 
 671:/home/rdu/Workspace/project_templates/mcu/stm32_ws/src/libraries/FreeRTOS/Source/event_groups.c **** static BaseType_t prvTestWaitCondition( const EventBits_t uxCurrentEventBits, const EventBits_t uxB
 672:/home/rdu/Workspace/project_templates/mcu/stm32_ws/src/libraries/FreeRTOS/Source/event_groups.c **** {
 1203              		.loc 1 672 0
 1204              		.cfi_startproc
 1205              		@ args = 0, pretend = 0, frame = 24
 1206              		@ frame_needed = 0, uses_anonymous_args = 0
 1207              		@ link register save eliminated.
 1208 0000 86B0     		sub	sp, sp, #24
 1209              	.LCFI26:
 1210              		.cfi_def_cfa_offset 24
 1211 0002 0390     		str	r0, [sp, #12]
 1212 0004 0291     		str	r1, [sp, #8]
 1213 0006 0192     		str	r2, [sp, #4]
 673:/home/rdu/Workspace/project_templates/mcu/stm32_ws/src/libraries/FreeRTOS/Source/event_groups.c **** BaseType_t xWaitConditionMet = pdFALSE;
 1214              		.loc 1 673 0
 1215 0008 0023     		movs	r3, #0
 1216 000a 0593     		str	r3, [sp, #20]
 674:/home/rdu/Workspace/project_templates/mcu/stm32_ws/src/libraries/FreeRTOS/Source/event_groups.c **** 
 675:/home/rdu/Workspace/project_templates/mcu/stm32_ws/src/libraries/FreeRTOS/Source/event_groups.c **** 	if( xWaitForAllBits == pdFALSE )
 1217              		.loc 1 675 0
 1218 000c 019B     		ldr	r3, [sp, #4]
 1219 000e 002B     		cmp	r3, #0
 1220 0010 07D1     		bne	.L77
 676:/home/rdu/Workspace/project_templates/mcu/stm32_ws/src/libraries/FreeRTOS/Source/event_groups.c **** 	{
 677:/home/rdu/Workspace/project_templates/mcu/stm32_ws/src/libraries/FreeRTOS/Source/event_groups.c **** 		/* Task only has to wait for one bit within uxBitsToWaitFor to be
 678:/home/rdu/Workspace/project_templates/mcu/stm32_ws/src/libraries/FreeRTOS/Source/event_groups.c **** 		set.  Is one already set? */
 679:/home/rdu/Workspace/project_templates/mcu/stm32_ws/src/libraries/FreeRTOS/Source/event_groups.c **** 		if( ( uxCurrentEventBits & uxBitsToWaitFor ) != ( EventBits_t ) 0 )
 1221              		.loc 1 679 0
 1222 0012 039A     		ldr	r2, [sp, #12]
 1223 0014 029B     		ldr	r3, [sp, #8]
 1224 0016 1340     		ands	r3, r3, r2
 1225 0018 002B     		cmp	r3, #0
 1226 001a 0AD0     		beq	.L78
 680:/home/rdu/Workspace/project_templates/mcu/stm32_ws/src/libraries/FreeRTOS/Source/event_groups.c **** 		{
 681:/home/rdu/Workspace/project_templates/mcu/stm32_ws/src/libraries/FreeRTOS/Source/event_groups.c **** 			xWaitConditionMet = pdTRUE;
 1227              		.loc 1 681 0
 1228 001c 0123     		movs	r3, #1
 1229 001e 0593     		str	r3, [sp, #20]
 1230 0020 07E0     		b	.L78
 1231              	.L77:
 682:/home/rdu/Workspace/project_templates/mcu/stm32_ws/src/libraries/FreeRTOS/Source/event_groups.c **** 		}
 683:/home/rdu/Workspace/project_templates/mcu/stm32_ws/src/libraries/FreeRTOS/Source/event_groups.c **** 		else
 684:/home/rdu/Workspace/project_templates/mcu/stm32_ws/src/libraries/FreeRTOS/Source/event_groups.c **** 		{
 685:/home/rdu/Workspace/project_templates/mcu/stm32_ws/src/libraries/FreeRTOS/Source/event_groups.c **** 			mtCOVERAGE_TEST_MARKER();
 686:/home/rdu/Workspace/project_templates/mcu/stm32_ws/src/libraries/FreeRTOS/Source/event_groups.c **** 		}
 687:/home/rdu/Workspace/project_templates/mcu/stm32_ws/src/libraries/FreeRTOS/Source/event_groups.c **** 	}
 688:/home/rdu/Workspace/project_templates/mcu/stm32_ws/src/libraries/FreeRTOS/Source/event_groups.c **** 	else
 689:/home/rdu/Workspace/project_templates/mcu/stm32_ws/src/libraries/FreeRTOS/Source/event_groups.c **** 	{
 690:/home/rdu/Workspace/project_templates/mcu/stm32_ws/src/libraries/FreeRTOS/Source/event_groups.c **** 		/* Task has to wait for all the bits in uxBitsToWaitFor to be set.
 691:/home/rdu/Workspace/project_templates/mcu/stm32_ws/src/libraries/FreeRTOS/Source/event_groups.c **** 		Are they set already? */
 692:/home/rdu/Workspace/project_templates/mcu/stm32_ws/src/libraries/FreeRTOS/Source/event_groups.c **** 		if( ( uxCurrentEventBits & uxBitsToWaitFor ) == uxBitsToWaitFor )
 1232              		.loc 1 692 0
 1233 0022 039A     		ldr	r2, [sp, #12]
 1234 0024 029B     		ldr	r3, [sp, #8]
 1235 0026 1340     		ands	r3, r3, r2
 1236 0028 029A     		ldr	r2, [sp, #8]
 1237 002a 9A42     		cmp	r2, r3
 1238 002c 01D1     		bne	.L78
 693:/home/rdu/Workspace/project_templates/mcu/stm32_ws/src/libraries/FreeRTOS/Source/event_groups.c **** 		{
 694:/home/rdu/Workspace/project_templates/mcu/stm32_ws/src/libraries/FreeRTOS/Source/event_groups.c **** 			xWaitConditionMet = pdTRUE;
 1239              		.loc 1 694 0
 1240 002e 0123     		movs	r3, #1
 1241 0030 0593     		str	r3, [sp, #20]
 1242              	.L78:
 695:/home/rdu/Workspace/project_templates/mcu/stm32_ws/src/libraries/FreeRTOS/Source/event_groups.c **** 		}
 696:/home/rdu/Workspace/project_templates/mcu/stm32_ws/src/libraries/FreeRTOS/Source/event_groups.c **** 		else
 697:/home/rdu/Workspace/project_templates/mcu/stm32_ws/src/libraries/FreeRTOS/Source/event_groups.c **** 		{
 698:/home/rdu/Workspace/project_templates/mcu/stm32_ws/src/libraries/FreeRTOS/Source/event_groups.c **** 			mtCOVERAGE_TEST_MARKER();
 699:/home/rdu/Workspace/project_templates/mcu/stm32_ws/src/libraries/FreeRTOS/Source/event_groups.c **** 		}
 700:/home/rdu/Workspace/project_templates/mcu/stm32_ws/src/libraries/FreeRTOS/Source/event_groups.c **** 	}
 701:/home/rdu/Workspace/project_templates/mcu/stm32_ws/src/libraries/FreeRTOS/Source/event_groups.c **** 
 702:/home/rdu/Workspace/project_templates/mcu/stm32_ws/src/libraries/FreeRTOS/Source/event_groups.c **** 	return xWaitConditionMet;
 1243              		.loc 1 702 0
 1244 0032 059B     		ldr	r3, [sp, #20]
 703:/home/rdu/Workspace/project_templates/mcu/stm32_ws/src/libraries/FreeRTOS/Source/event_groups.c **** }
 1245              		.loc 1 703 0
 1246 0034 1846     		mov	r0, r3
 1247 0036 06B0     		add	sp, sp, #24
 1248              	.LCFI27:
 1249              		.cfi_def_cfa_offset 0
 1250              		@ sp needed
 1251 0038 7047     		bx	lr
 1252              		.cfi_endproc
 1253              	.LFE14:
 1255              		.section	.text.uxEventGroupGetNumber,"ax",%progbits
 1256              		.align	1
 1257              		.global	uxEventGroupGetNumber
 1258              		.syntax unified
 1259              		.thumb
 1260              		.thumb_func
 1261              		.fpu fpv4-sp-d16
 1263              	uxEventGroupGetNumber:
 1264              	.LFB15:
 704:/home/rdu/Workspace/project_templates/mcu/stm32_ws/src/libraries/FreeRTOS/Source/event_groups.c **** /*-----------------------------------------------------------*/
 705:/home/rdu/Workspace/project_templates/mcu/stm32_ws/src/libraries/FreeRTOS/Source/event_groups.c **** 
 706:/home/rdu/Workspace/project_templates/mcu/stm32_ws/src/libraries/FreeRTOS/Source/event_groups.c **** #if ( ( configUSE_TRACE_FACILITY == 1 ) && ( INCLUDE_xTimerPendFunctionCall == 1 ) && ( configUSE_T
 707:/home/rdu/Workspace/project_templates/mcu/stm32_ws/src/libraries/FreeRTOS/Source/event_groups.c **** 
 708:/home/rdu/Workspace/project_templates/mcu/stm32_ws/src/libraries/FreeRTOS/Source/event_groups.c **** 	BaseType_t xEventGroupSetBitsFromISR( EventGroupHandle_t xEventGroup, const EventBits_t uxBitsToSe
 709:/home/rdu/Workspace/project_templates/mcu/stm32_ws/src/libraries/FreeRTOS/Source/event_groups.c **** 	{
 710:/home/rdu/Workspace/project_templates/mcu/stm32_ws/src/libraries/FreeRTOS/Source/event_groups.c **** 	BaseType_t xReturn;
 711:/home/rdu/Workspace/project_templates/mcu/stm32_ws/src/libraries/FreeRTOS/Source/event_groups.c **** 
 712:/home/rdu/Workspace/project_templates/mcu/stm32_ws/src/libraries/FreeRTOS/Source/event_groups.c **** 		traceEVENT_GROUP_SET_BITS_FROM_ISR( xEventGroup, uxBitsToSet );
 713:/home/rdu/Workspace/project_templates/mcu/stm32_ws/src/libraries/FreeRTOS/Source/event_groups.c **** 		xReturn = xTimerPendFunctionCallFromISR( vEventGroupSetBitsCallback, ( void * ) xEventGroup, ( ui
 714:/home/rdu/Workspace/project_templates/mcu/stm32_ws/src/libraries/FreeRTOS/Source/event_groups.c **** 
 715:/home/rdu/Workspace/project_templates/mcu/stm32_ws/src/libraries/FreeRTOS/Source/event_groups.c **** 		return xReturn;
 716:/home/rdu/Workspace/project_templates/mcu/stm32_ws/src/libraries/FreeRTOS/Source/event_groups.c **** 	}
 717:/home/rdu/Workspace/project_templates/mcu/stm32_ws/src/libraries/FreeRTOS/Source/event_groups.c **** 
 718:/home/rdu/Workspace/project_templates/mcu/stm32_ws/src/libraries/FreeRTOS/Source/event_groups.c **** #endif
 719:/home/rdu/Workspace/project_templates/mcu/stm32_ws/src/libraries/FreeRTOS/Source/event_groups.c **** /*-----------------------------------------------------------*/
 720:/home/rdu/Workspace/project_templates/mcu/stm32_ws/src/libraries/FreeRTOS/Source/event_groups.c **** 
 721:/home/rdu/Workspace/project_templates/mcu/stm32_ws/src/libraries/FreeRTOS/Source/event_groups.c **** #if (configUSE_TRACE_FACILITY == 1)
 722:/home/rdu/Workspace/project_templates/mcu/stm32_ws/src/libraries/FreeRTOS/Source/event_groups.c **** 
 723:/home/rdu/Workspace/project_templates/mcu/stm32_ws/src/libraries/FreeRTOS/Source/event_groups.c **** 	UBaseType_t uxEventGroupGetNumber( void* xEventGroup )
 724:/home/rdu/Workspace/project_templates/mcu/stm32_ws/src/libraries/FreeRTOS/Source/event_groups.c **** 	{
 1265              		.loc 1 724 0
 1266              		.cfi_startproc
 1267              		@ args = 0, pretend = 0, frame = 16
 1268              		@ frame_needed = 0, uses_anonymous_args = 0
 1269              		@ link register save eliminated.
 1270 0000 84B0     		sub	sp, sp, #16
 1271              	.LCFI28:
 1272              		.cfi_def_cfa_offset 16
 1273 0002 0190     		str	r0, [sp, #4]
 725:/home/rdu/Workspace/project_templates/mcu/stm32_ws/src/libraries/FreeRTOS/Source/event_groups.c **** 	UBaseType_t xReturn;
 726:/home/rdu/Workspace/project_templates/mcu/stm32_ws/src/libraries/FreeRTOS/Source/event_groups.c **** 	EventGroup_t const *pxEventBits = ( EventGroup_t * ) xEventGroup; /*lint !e9087 !e9079 EventGroupH
 1274              		.loc 1 726 0
 1275 0004 019B     		ldr	r3, [sp, #4]
 1276 0006 0293     		str	r3, [sp, #8]
 727:/home/rdu/Workspace/project_templates/mcu/stm32_ws/src/libraries/FreeRTOS/Source/event_groups.c **** 
 728:/home/rdu/Workspace/project_templates/mcu/stm32_ws/src/libraries/FreeRTOS/Source/event_groups.c **** 		if( xEventGroup == NULL )
 1277              		.loc 1 728 0
 1278 0008 019B     		ldr	r3, [sp, #4]
 1279 000a 002B     		cmp	r3, #0
 1280 000c 02D1     		bne	.L81
 729:/home/rdu/Workspace/project_templates/mcu/stm32_ws/src/libraries/FreeRTOS/Source/event_groups.c **** 		{
 730:/home/rdu/Workspace/project_templates/mcu/stm32_ws/src/libraries/FreeRTOS/Source/event_groups.c **** 			xReturn = 0;
 1281              		.loc 1 730 0
 1282 000e 0023     		movs	r3, #0
 1283 0010 0393     		str	r3, [sp, #12]
 1284 0012 02E0     		b	.L82
 1285              	.L81:
 731:/home/rdu/Workspace/project_templates/mcu/stm32_ws/src/libraries/FreeRTOS/Source/event_groups.c **** 		}
 732:/home/rdu/Workspace/project_templates/mcu/stm32_ws/src/libraries/FreeRTOS/Source/event_groups.c **** 		else
 733:/home/rdu/Workspace/project_templates/mcu/stm32_ws/src/libraries/FreeRTOS/Source/event_groups.c **** 		{
 734:/home/rdu/Workspace/project_templates/mcu/stm32_ws/src/libraries/FreeRTOS/Source/event_groups.c **** 			xReturn = pxEventBits->uxEventGroupNumber;
 1286              		.loc 1 734 0
 1287 0014 029B     		ldr	r3, [sp, #8]
 1288 0016 9B69     		ldr	r3, [r3, #24]
 1289 0018 0393     		str	r3, [sp, #12]
 1290              	.L82:
 735:/home/rdu/Workspace/project_templates/mcu/stm32_ws/src/libraries/FreeRTOS/Source/event_groups.c **** 		}
 736:/home/rdu/Workspace/project_templates/mcu/stm32_ws/src/libraries/FreeRTOS/Source/event_groups.c **** 
 737:/home/rdu/Workspace/project_templates/mcu/stm32_ws/src/libraries/FreeRTOS/Source/event_groups.c **** 		return xReturn;
 1291              		.loc 1 737 0
 1292 001a 039B     		ldr	r3, [sp, #12]
 738:/home/rdu/Workspace/project_templates/mcu/stm32_ws/src/libraries/FreeRTOS/Source/event_groups.c **** 	}
 1293              		.loc 1 738 0
 1294 001c 1846     		mov	r0, r3
 1295 001e 04B0     		add	sp, sp, #16
 1296              	.LCFI29:
 1297              		.cfi_def_cfa_offset 0
 1298              		@ sp needed
 1299 0020 7047     		bx	lr
 1300              		.cfi_endproc
 1301              	.LFE15:
 1303              		.section	.text.vEventGroupSetNumber,"ax",%progbits
 1304              		.align	1
 1305              		.global	vEventGroupSetNumber
 1306              		.syntax unified
 1307              		.thumb
 1308              		.thumb_func
 1309              		.fpu fpv4-sp-d16
 1311              	vEventGroupSetNumber:
 1312              	.LFB16:
 739:/home/rdu/Workspace/project_templates/mcu/stm32_ws/src/libraries/FreeRTOS/Source/event_groups.c **** 
 740:/home/rdu/Workspace/project_templates/mcu/stm32_ws/src/libraries/FreeRTOS/Source/event_groups.c **** #endif /* configUSE_TRACE_FACILITY */
 741:/home/rdu/Workspace/project_templates/mcu/stm32_ws/src/libraries/FreeRTOS/Source/event_groups.c **** /*-----------------------------------------------------------*/
 742:/home/rdu/Workspace/project_templates/mcu/stm32_ws/src/libraries/FreeRTOS/Source/event_groups.c **** 
 743:/home/rdu/Workspace/project_templates/mcu/stm32_ws/src/libraries/FreeRTOS/Source/event_groups.c **** #if ( configUSE_TRACE_FACILITY == 1 )
 744:/home/rdu/Workspace/project_templates/mcu/stm32_ws/src/libraries/FreeRTOS/Source/event_groups.c **** 
 745:/home/rdu/Workspace/project_templates/mcu/stm32_ws/src/libraries/FreeRTOS/Source/event_groups.c **** 	void vEventGroupSetNumber( void * xEventGroup, UBaseType_t uxEventGroupNumber )
 746:/home/rdu/Workspace/project_templates/mcu/stm32_ws/src/libraries/FreeRTOS/Source/event_groups.c **** 	{
 1313              		.loc 1 746 0
 1314              		.cfi_startproc
 1315              		@ args = 0, pretend = 0, frame = 8
 1316              		@ frame_needed = 0, uses_anonymous_args = 0
 1317              		@ link register save eliminated.
 1318 0000 82B0     		sub	sp, sp, #8
 1319              	.LCFI30:
 1320              		.cfi_def_cfa_offset 8
 1321 0002 0190     		str	r0, [sp, #4]
 1322 0004 0091     		str	r1, [sp]
 747:/home/rdu/Workspace/project_templates/mcu/stm32_ws/src/libraries/FreeRTOS/Source/event_groups.c **** 		( ( EventGroup_t * ) xEventGroup )->uxEventGroupNumber = uxEventGroupNumber; /*lint !e9087 !e9079
 1323              		.loc 1 747 0
 1324 0006 019B     		ldr	r3, [sp, #4]
 1325 0008 009A     		ldr	r2, [sp]
 1326 000a 9A61     		str	r2, [r3, #24]
 748:/home/rdu/Workspace/project_templates/mcu/stm32_ws/src/libraries/FreeRTOS/Source/event_groups.c **** 	}
 1327              		.loc 1 748 0
 1328 000c 00BF     		nop
 1329 000e 02B0     		add	sp, sp, #8
 1330              	.LCFI31:
 1331              		.cfi_def_cfa_offset 0
 1332              		@ sp needed
 1333 0010 7047     		bx	lr
 1334              		.cfi_endproc
 1335              	.LFE16:
 1337              		.text
 1338              	.Letext0:
 1339              		.file 3 "/home/rdu/Software/gcc-arm-none-eabi-7-2017-q4-major/arm-none-eabi/include/machine/_defau
 1340              		.file 4 "/home/rdu/Software/gcc-arm-none-eabi-7-2017-q4-major/arm-none-eabi/include/sys/lock.h"
 1341              		.file 5 "/home/rdu/Software/gcc-arm-none-eabi-7-2017-q4-major/arm-none-eabi/include/sys/_types.h"
 1342              		.file 6 "/home/rdu/Software/gcc-arm-none-eabi-7-2017-q4-major/lib/gcc/arm-none-eabi/7.2.1/include/
 1343              		.file 7 "/home/rdu/Software/gcc-arm-none-eabi-7-2017-q4-major/arm-none-eabi/include/sys/reent.h"
 1344              		.file 8 "/home/rdu/Software/gcc-arm-none-eabi-7-2017-q4-major/arm-none-eabi/include/stdlib.h"
 1345              		.file 9 "/home/rdu/Software/gcc-arm-none-eabi-7-2017-q4-major/arm-none-eabi/include/sys/_stdint.h"
 1346              		.file 10 "/home/rdu/Workspace/project_templates/mcu/stm32_ws/src/targets/racer_core/firmware/confi
 1347              		.file 11 "/home/rdu/Workspace/project_templates/mcu/stm32_ws/src/libraries/FreeRTOS/Source/include
 1348              		.file 12 "/home/rdu/Workspace/project_templates/mcu/stm32_ws/src/libraries/FreeRTOS/Source/include