   1              		.cpu cortex-m4
   2              		.eabi_attribute 27, 1
   3              		.eabi_attribute 28, 1
   4              		.eabi_attribute 23, 1
   5              		.eabi_attribute 24, 1
   6              		.eabi_attribute 25, 1
   7              		.eabi_attribute 26, 1
   8              		.eabi_attribute 30, 6
   9              		.eabi_attribute 34, 1
  10              		.eabi_attribute 18, 4
  11              		.file	"port.c"
  12              		.text
  13              	.Ltext0:
  14              		.cfi_sections	.debug_frame
  15              		.section	.data.uxCriticalNesting,"aw",%progbits
  16              		.align	2
  19              	uxCriticalNesting:
  20 0000 AAAAAAAA 		.word	-1431655766
  21              		.section	.bss.ucMaxSysCallPriority,"aw",%nobits
  24              	ucMaxSysCallPriority:
  25 0000 00       		.space	1
  26              		.section	.bss.ulMaxPRIGROUPValue,"aw",%nobits
  27              		.align	2
  30              	ulMaxPRIGROUPValue:
  31 0000 00000000 		.space	4
  32              		.section	.rodata.pcInterruptPriorityRegisters,"a",%progbits
  33              		.align	2
  36              	pcInterruptPriorityRegisters:
  37 0000 F0E300E0 		.word	-536812560
  38              		.section	.text.pxPortInitialiseStack,"ax",%progbits
  39              		.align	1
  40              		.global	pxPortInitialiseStack
  41              		.syntax unified
  42              		.thumb
  43              		.thumb_func
  44              		.fpu fpv4-sp-d16
  46              	pxPortInitialiseStack:
  47              	.LFB5:
  48              		.file 1 "/home/rdu/Workspace/project_templates/mcu/stm32_ws/src/libraries/FreeRTOS/Source/portable
   1:/home/rdu/Workspace/project_templates/mcu/stm32_ws/src/libraries/FreeRTOS/Source/portable/GCC/ARM_CM4F/port.c **** /*
   2:/home/rdu/Workspace/project_templates/mcu/stm32_ws/src/libraries/FreeRTOS/Source/portable/GCC/ARM_CM4F/port.c ****  * FreeRTOS Kernel V10.1.1
   3:/home/rdu/Workspace/project_templates/mcu/stm32_ws/src/libraries/FreeRTOS/Source/portable/GCC/ARM_CM4F/port.c ****  * Copyright (C) 2018 Amazon.com, Inc. or its affiliates.  All Rights Reserved.
   4:/home/rdu/Workspace/project_templates/mcu/stm32_ws/src/libraries/FreeRTOS/Source/portable/GCC/ARM_CM4F/port.c ****  *
   5:/home/rdu/Workspace/project_templates/mcu/stm32_ws/src/libraries/FreeRTOS/Source/portable/GCC/ARM_CM4F/port.c ****  * Permission is hereby granted, free of charge, to any person obtaining a copy of
   6:/home/rdu/Workspace/project_templates/mcu/stm32_ws/src/libraries/FreeRTOS/Source/portable/GCC/ARM_CM4F/port.c ****  * this software and associated documentation files (the "Software"), to deal in
   7:/home/rdu/Workspace/project_templates/mcu/stm32_ws/src/libraries/FreeRTOS/Source/portable/GCC/ARM_CM4F/port.c ****  * the Software without restriction, including without limitation the rights to
   8:/home/rdu/Workspace/project_templates/mcu/stm32_ws/src/libraries/FreeRTOS/Source/portable/GCC/ARM_CM4F/port.c ****  * use, copy, modify, merge, publish, distribute, sublicense, and/or sell copies of
   9:/home/rdu/Workspace/project_templates/mcu/stm32_ws/src/libraries/FreeRTOS/Source/portable/GCC/ARM_CM4F/port.c ****  * the Software, and to permit persons to whom the Software is furnished to do so,
  10:/home/rdu/Workspace/project_templates/mcu/stm32_ws/src/libraries/FreeRTOS/Source/portable/GCC/ARM_CM4F/port.c ****  * subject to the following conditions:
  11:/home/rdu/Workspace/project_templates/mcu/stm32_ws/src/libraries/FreeRTOS/Source/portable/GCC/ARM_CM4F/port.c ****  *
  12:/home/rdu/Workspace/project_templates/mcu/stm32_ws/src/libraries/FreeRTOS/Source/portable/GCC/ARM_CM4F/port.c ****  * The above copyright notice and this permission notice shall be included in all
  13:/home/rdu/Workspace/project_templates/mcu/stm32_ws/src/libraries/FreeRTOS/Source/portable/GCC/ARM_CM4F/port.c ****  * copies or substantial portions of the Software.
  14:/home/rdu/Workspace/project_templates/mcu/stm32_ws/src/libraries/FreeRTOS/Source/portable/GCC/ARM_CM4F/port.c ****  *
  15:/home/rdu/Workspace/project_templates/mcu/stm32_ws/src/libraries/FreeRTOS/Source/portable/GCC/ARM_CM4F/port.c ****  * THE SOFTWARE IS PROVIDED "AS IS", WITHOUT WARRANTY OF ANY KIND, EXPRESS OR
  16:/home/rdu/Workspace/project_templates/mcu/stm32_ws/src/libraries/FreeRTOS/Source/portable/GCC/ARM_CM4F/port.c ****  * IMPLIED, INCLUDING BUT NOT LIMITED TO THE WARRANTIES OF MERCHANTABILITY, FITNESS
  17:/home/rdu/Workspace/project_templates/mcu/stm32_ws/src/libraries/FreeRTOS/Source/portable/GCC/ARM_CM4F/port.c ****  * FOR A PARTICULAR PURPOSE AND NONINFRINGEMENT. IN NO EVENT SHALL THE AUTHORS OR
  18:/home/rdu/Workspace/project_templates/mcu/stm32_ws/src/libraries/FreeRTOS/Source/portable/GCC/ARM_CM4F/port.c ****  * COPYRIGHT HOLDERS BE LIABLE FOR ANY CLAIM, DAMAGES OR OTHER LIABILITY, WHETHER
  19:/home/rdu/Workspace/project_templates/mcu/stm32_ws/src/libraries/FreeRTOS/Source/portable/GCC/ARM_CM4F/port.c ****  * IN AN ACTION OF CONTRACT, TORT OR OTHERWISE, ARISING FROM, OUT OF OR IN
  20:/home/rdu/Workspace/project_templates/mcu/stm32_ws/src/libraries/FreeRTOS/Source/portable/GCC/ARM_CM4F/port.c ****  * CONNECTION WITH THE SOFTWARE OR THE USE OR OTHER DEALINGS IN THE SOFTWARE.
  21:/home/rdu/Workspace/project_templates/mcu/stm32_ws/src/libraries/FreeRTOS/Source/portable/GCC/ARM_CM4F/port.c ****  *
  22:/home/rdu/Workspace/project_templates/mcu/stm32_ws/src/libraries/FreeRTOS/Source/portable/GCC/ARM_CM4F/port.c ****  * http://www.FreeRTOS.org
  23:/home/rdu/Workspace/project_templates/mcu/stm32_ws/src/libraries/FreeRTOS/Source/portable/GCC/ARM_CM4F/port.c ****  * http://aws.amazon.com/freertos
  24:/home/rdu/Workspace/project_templates/mcu/stm32_ws/src/libraries/FreeRTOS/Source/portable/GCC/ARM_CM4F/port.c ****  *
  25:/home/rdu/Workspace/project_templates/mcu/stm32_ws/src/libraries/FreeRTOS/Source/portable/GCC/ARM_CM4F/port.c ****  * 1 tab == 4 spaces!
  26:/home/rdu/Workspace/project_templates/mcu/stm32_ws/src/libraries/FreeRTOS/Source/portable/GCC/ARM_CM4F/port.c ****  */
  27:/home/rdu/Workspace/project_templates/mcu/stm32_ws/src/libraries/FreeRTOS/Source/portable/GCC/ARM_CM4F/port.c **** 
  28:/home/rdu/Workspace/project_templates/mcu/stm32_ws/src/libraries/FreeRTOS/Source/portable/GCC/ARM_CM4F/port.c **** /*-----------------------------------------------------------
  29:/home/rdu/Workspace/project_templates/mcu/stm32_ws/src/libraries/FreeRTOS/Source/portable/GCC/ARM_CM4F/port.c ****  * Implementation of functions defined in portable.h for the ARM CM4F port.
  30:/home/rdu/Workspace/project_templates/mcu/stm32_ws/src/libraries/FreeRTOS/Source/portable/GCC/ARM_CM4F/port.c ****  *----------------------------------------------------------*/
  31:/home/rdu/Workspace/project_templates/mcu/stm32_ws/src/libraries/FreeRTOS/Source/portable/GCC/ARM_CM4F/port.c **** 
  32:/home/rdu/Workspace/project_templates/mcu/stm32_ws/src/libraries/FreeRTOS/Source/portable/GCC/ARM_CM4F/port.c **** /* Scheduler includes. */
  33:/home/rdu/Workspace/project_templates/mcu/stm32_ws/src/libraries/FreeRTOS/Source/portable/GCC/ARM_CM4F/port.c **** #include "FreeRTOS.h"
  34:/home/rdu/Workspace/project_templates/mcu/stm32_ws/src/libraries/FreeRTOS/Source/portable/GCC/ARM_CM4F/port.c **** #include "task.h"
  35:/home/rdu/Workspace/project_templates/mcu/stm32_ws/src/libraries/FreeRTOS/Source/portable/GCC/ARM_CM4F/port.c **** 
  36:/home/rdu/Workspace/project_templates/mcu/stm32_ws/src/libraries/FreeRTOS/Source/portable/GCC/ARM_CM4F/port.c **** #ifndef __VFP_FP__
  37:/home/rdu/Workspace/project_templates/mcu/stm32_ws/src/libraries/FreeRTOS/Source/portable/GCC/ARM_CM4F/port.c **** 	#error This port can only be used when the project options are configured to enable hardware float
  38:/home/rdu/Workspace/project_templates/mcu/stm32_ws/src/libraries/FreeRTOS/Source/portable/GCC/ARM_CM4F/port.c **** #endif
  39:/home/rdu/Workspace/project_templates/mcu/stm32_ws/src/libraries/FreeRTOS/Source/portable/GCC/ARM_CM4F/port.c **** 
  40:/home/rdu/Workspace/project_templates/mcu/stm32_ws/src/libraries/FreeRTOS/Source/portable/GCC/ARM_CM4F/port.c **** #ifndef configSYSTICK_CLOCK_HZ
  41:/home/rdu/Workspace/project_templates/mcu/stm32_ws/src/libraries/FreeRTOS/Source/portable/GCC/ARM_CM4F/port.c **** 	#define configSYSTICK_CLOCK_HZ configCPU_CLOCK_HZ
  42:/home/rdu/Workspace/project_templates/mcu/stm32_ws/src/libraries/FreeRTOS/Source/portable/GCC/ARM_CM4F/port.c **** 	/* Ensure the SysTick is clocked at the same frequency as the core. */
  43:/home/rdu/Workspace/project_templates/mcu/stm32_ws/src/libraries/FreeRTOS/Source/portable/GCC/ARM_CM4F/port.c **** 	#define portNVIC_SYSTICK_CLK_BIT	( 1UL << 2UL )
  44:/home/rdu/Workspace/project_templates/mcu/stm32_ws/src/libraries/FreeRTOS/Source/portable/GCC/ARM_CM4F/port.c **** #else
  45:/home/rdu/Workspace/project_templates/mcu/stm32_ws/src/libraries/FreeRTOS/Source/portable/GCC/ARM_CM4F/port.c **** 	/* The way the SysTick is clocked is not modified in case it is not the same
  46:/home/rdu/Workspace/project_templates/mcu/stm32_ws/src/libraries/FreeRTOS/Source/portable/GCC/ARM_CM4F/port.c **** 	as the core. */
  47:/home/rdu/Workspace/project_templates/mcu/stm32_ws/src/libraries/FreeRTOS/Source/portable/GCC/ARM_CM4F/port.c **** 	#define portNVIC_SYSTICK_CLK_BIT	( 0 )
  48:/home/rdu/Workspace/project_templates/mcu/stm32_ws/src/libraries/FreeRTOS/Source/portable/GCC/ARM_CM4F/port.c **** #endif
  49:/home/rdu/Workspace/project_templates/mcu/stm32_ws/src/libraries/FreeRTOS/Source/portable/GCC/ARM_CM4F/port.c **** 
  50:/home/rdu/Workspace/project_templates/mcu/stm32_ws/src/libraries/FreeRTOS/Source/portable/GCC/ARM_CM4F/port.c **** /* Constants required to manipulate the core.  Registers first... */
  51:/home/rdu/Workspace/project_templates/mcu/stm32_ws/src/libraries/FreeRTOS/Source/portable/GCC/ARM_CM4F/port.c **** #define portNVIC_SYSTICK_CTRL_REG			( * ( ( volatile uint32_t * ) 0xe000e010 ) )
  52:/home/rdu/Workspace/project_templates/mcu/stm32_ws/src/libraries/FreeRTOS/Source/portable/GCC/ARM_CM4F/port.c **** #define portNVIC_SYSTICK_LOAD_REG			( * ( ( volatile uint32_t * ) 0xe000e014 ) )
  53:/home/rdu/Workspace/project_templates/mcu/stm32_ws/src/libraries/FreeRTOS/Source/portable/GCC/ARM_CM4F/port.c **** #define portNVIC_SYSTICK_CURRENT_VALUE_REG	( * ( ( volatile uint32_t * ) 0xe000e018 ) )
  54:/home/rdu/Workspace/project_templates/mcu/stm32_ws/src/libraries/FreeRTOS/Source/portable/GCC/ARM_CM4F/port.c **** #define portNVIC_SYSPRI2_REG				( * ( ( volatile uint32_t * ) 0xe000ed20 ) )
  55:/home/rdu/Workspace/project_templates/mcu/stm32_ws/src/libraries/FreeRTOS/Source/portable/GCC/ARM_CM4F/port.c **** /* ...then bits in the registers. */
  56:/home/rdu/Workspace/project_templates/mcu/stm32_ws/src/libraries/FreeRTOS/Source/portable/GCC/ARM_CM4F/port.c **** #define portNVIC_SYSTICK_INT_BIT			( 1UL << 1UL )
  57:/home/rdu/Workspace/project_templates/mcu/stm32_ws/src/libraries/FreeRTOS/Source/portable/GCC/ARM_CM4F/port.c **** #define portNVIC_SYSTICK_ENABLE_BIT			( 1UL << 0UL )
  58:/home/rdu/Workspace/project_templates/mcu/stm32_ws/src/libraries/FreeRTOS/Source/portable/GCC/ARM_CM4F/port.c **** #define portNVIC_SYSTICK_COUNT_FLAG_BIT		( 1UL << 16UL )
  59:/home/rdu/Workspace/project_templates/mcu/stm32_ws/src/libraries/FreeRTOS/Source/portable/GCC/ARM_CM4F/port.c **** #define portNVIC_PENDSVCLEAR_BIT 			( 1UL << 27UL )
  60:/home/rdu/Workspace/project_templates/mcu/stm32_ws/src/libraries/FreeRTOS/Source/portable/GCC/ARM_CM4F/port.c **** #define portNVIC_PEND_SYSTICK_CLEAR_BIT		( 1UL << 25UL )
  61:/home/rdu/Workspace/project_templates/mcu/stm32_ws/src/libraries/FreeRTOS/Source/portable/GCC/ARM_CM4F/port.c **** 
  62:/home/rdu/Workspace/project_templates/mcu/stm32_ws/src/libraries/FreeRTOS/Source/portable/GCC/ARM_CM4F/port.c **** /* Constants used to detect a Cortex-M7 r0p1 core, which should use the ARM_CM7
  63:/home/rdu/Workspace/project_templates/mcu/stm32_ws/src/libraries/FreeRTOS/Source/portable/GCC/ARM_CM4F/port.c **** r0p1 port. */
  64:/home/rdu/Workspace/project_templates/mcu/stm32_ws/src/libraries/FreeRTOS/Source/portable/GCC/ARM_CM4F/port.c **** #define portCPUID							( * ( ( volatile uint32_t * ) 0xE000ed00 ) )
  65:/home/rdu/Workspace/project_templates/mcu/stm32_ws/src/libraries/FreeRTOS/Source/portable/GCC/ARM_CM4F/port.c **** #define portCORTEX_M7_r0p1_ID				( 0x410FC271UL )
  66:/home/rdu/Workspace/project_templates/mcu/stm32_ws/src/libraries/FreeRTOS/Source/portable/GCC/ARM_CM4F/port.c **** #define portCORTEX_M7_r0p0_ID				( 0x410FC270UL )
  67:/home/rdu/Workspace/project_templates/mcu/stm32_ws/src/libraries/FreeRTOS/Source/portable/GCC/ARM_CM4F/port.c **** 
  68:/home/rdu/Workspace/project_templates/mcu/stm32_ws/src/libraries/FreeRTOS/Source/portable/GCC/ARM_CM4F/port.c **** #define portNVIC_PENDSV_PRI					( ( ( uint32_t ) configKERNEL_INTERRUPT_PRIORITY ) << 16UL )
  69:/home/rdu/Workspace/project_templates/mcu/stm32_ws/src/libraries/FreeRTOS/Source/portable/GCC/ARM_CM4F/port.c **** #define portNVIC_SYSTICK_PRI				( ( ( uint32_t ) configKERNEL_INTERRUPT_PRIORITY ) << 24UL )
  70:/home/rdu/Workspace/project_templates/mcu/stm32_ws/src/libraries/FreeRTOS/Source/portable/GCC/ARM_CM4F/port.c **** 
  71:/home/rdu/Workspace/project_templates/mcu/stm32_ws/src/libraries/FreeRTOS/Source/portable/GCC/ARM_CM4F/port.c **** /* Constants required to check the validity of an interrupt priority. */
  72:/home/rdu/Workspace/project_templates/mcu/stm32_ws/src/libraries/FreeRTOS/Source/portable/GCC/ARM_CM4F/port.c **** #define portFIRST_USER_INTERRUPT_NUMBER		( 16 )
  73:/home/rdu/Workspace/project_templates/mcu/stm32_ws/src/libraries/FreeRTOS/Source/portable/GCC/ARM_CM4F/port.c **** #define portNVIC_IP_REGISTERS_OFFSET_16 	( 0xE000E3F0 )
  74:/home/rdu/Workspace/project_templates/mcu/stm32_ws/src/libraries/FreeRTOS/Source/portable/GCC/ARM_CM4F/port.c **** #define portAIRCR_REG						( * ( ( volatile uint32_t * ) 0xE000ED0C ) )
  75:/home/rdu/Workspace/project_templates/mcu/stm32_ws/src/libraries/FreeRTOS/Source/portable/GCC/ARM_CM4F/port.c **** #define portMAX_8_BIT_VALUE					( ( uint8_t ) 0xff )
  76:/home/rdu/Workspace/project_templates/mcu/stm32_ws/src/libraries/FreeRTOS/Source/portable/GCC/ARM_CM4F/port.c **** #define portTOP_BIT_OF_BYTE					( ( uint8_t ) 0x80 )
  77:/home/rdu/Workspace/project_templates/mcu/stm32_ws/src/libraries/FreeRTOS/Source/portable/GCC/ARM_CM4F/port.c **** #define portMAX_PRIGROUP_BITS				( ( uint8_t ) 7 )
  78:/home/rdu/Workspace/project_templates/mcu/stm32_ws/src/libraries/FreeRTOS/Source/portable/GCC/ARM_CM4F/port.c **** #define portPRIORITY_GROUP_MASK				( 0x07UL << 8UL )
  79:/home/rdu/Workspace/project_templates/mcu/stm32_ws/src/libraries/FreeRTOS/Source/portable/GCC/ARM_CM4F/port.c **** #define portPRIGROUP_SHIFT					( 8UL )
  80:/home/rdu/Workspace/project_templates/mcu/stm32_ws/src/libraries/FreeRTOS/Source/portable/GCC/ARM_CM4F/port.c **** 
  81:/home/rdu/Workspace/project_templates/mcu/stm32_ws/src/libraries/FreeRTOS/Source/portable/GCC/ARM_CM4F/port.c **** /* Masks off all bits but the VECTACTIVE bits in the ICSR register. */
  82:/home/rdu/Workspace/project_templates/mcu/stm32_ws/src/libraries/FreeRTOS/Source/portable/GCC/ARM_CM4F/port.c **** #define portVECTACTIVE_MASK					( 0xFFUL )
  83:/home/rdu/Workspace/project_templates/mcu/stm32_ws/src/libraries/FreeRTOS/Source/portable/GCC/ARM_CM4F/port.c **** 
  84:/home/rdu/Workspace/project_templates/mcu/stm32_ws/src/libraries/FreeRTOS/Source/portable/GCC/ARM_CM4F/port.c **** /* Constants required to manipulate the VFP. */
  85:/home/rdu/Workspace/project_templates/mcu/stm32_ws/src/libraries/FreeRTOS/Source/portable/GCC/ARM_CM4F/port.c **** #define portFPCCR							( ( volatile uint32_t * ) 0xe000ef34 ) /* Floating point context control re
  86:/home/rdu/Workspace/project_templates/mcu/stm32_ws/src/libraries/FreeRTOS/Source/portable/GCC/ARM_CM4F/port.c **** #define portASPEN_AND_LSPEN_BITS			( 0x3UL << 30UL )
  87:/home/rdu/Workspace/project_templates/mcu/stm32_ws/src/libraries/FreeRTOS/Source/portable/GCC/ARM_CM4F/port.c **** 
  88:/home/rdu/Workspace/project_templates/mcu/stm32_ws/src/libraries/FreeRTOS/Source/portable/GCC/ARM_CM4F/port.c **** /* Constants required to set up the initial stack. */
  89:/home/rdu/Workspace/project_templates/mcu/stm32_ws/src/libraries/FreeRTOS/Source/portable/GCC/ARM_CM4F/port.c **** #define portINITIAL_XPSR					( 0x01000000 )
  90:/home/rdu/Workspace/project_templates/mcu/stm32_ws/src/libraries/FreeRTOS/Source/portable/GCC/ARM_CM4F/port.c **** #define portINITIAL_EXC_RETURN				( 0xfffffffd )
  91:/home/rdu/Workspace/project_templates/mcu/stm32_ws/src/libraries/FreeRTOS/Source/portable/GCC/ARM_CM4F/port.c **** 
  92:/home/rdu/Workspace/project_templates/mcu/stm32_ws/src/libraries/FreeRTOS/Source/portable/GCC/ARM_CM4F/port.c **** /* The systick is a 24-bit counter. */
  93:/home/rdu/Workspace/project_templates/mcu/stm32_ws/src/libraries/FreeRTOS/Source/portable/GCC/ARM_CM4F/port.c **** #define portMAX_24_BIT_NUMBER				( 0xffffffUL )
  94:/home/rdu/Workspace/project_templates/mcu/stm32_ws/src/libraries/FreeRTOS/Source/portable/GCC/ARM_CM4F/port.c **** 
  95:/home/rdu/Workspace/project_templates/mcu/stm32_ws/src/libraries/FreeRTOS/Source/portable/GCC/ARM_CM4F/port.c **** /* For strict compliance with the Cortex-M spec the task start address should
  96:/home/rdu/Workspace/project_templates/mcu/stm32_ws/src/libraries/FreeRTOS/Source/portable/GCC/ARM_CM4F/port.c **** have bit-0 clear, as it is loaded into the PC on exit from an ISR. */
  97:/home/rdu/Workspace/project_templates/mcu/stm32_ws/src/libraries/FreeRTOS/Source/portable/GCC/ARM_CM4F/port.c **** #define portSTART_ADDRESS_MASK		( ( StackType_t ) 0xfffffffeUL )
  98:/home/rdu/Workspace/project_templates/mcu/stm32_ws/src/libraries/FreeRTOS/Source/portable/GCC/ARM_CM4F/port.c **** 
  99:/home/rdu/Workspace/project_templates/mcu/stm32_ws/src/libraries/FreeRTOS/Source/portable/GCC/ARM_CM4F/port.c **** /* A fiddle factor to estimate the number of SysTick counts that would have
 100:/home/rdu/Workspace/project_templates/mcu/stm32_ws/src/libraries/FreeRTOS/Source/portable/GCC/ARM_CM4F/port.c **** occurred while the SysTick counter is stopped during tickless idle
 101:/home/rdu/Workspace/project_templates/mcu/stm32_ws/src/libraries/FreeRTOS/Source/portable/GCC/ARM_CM4F/port.c **** calculations. */
 102:/home/rdu/Workspace/project_templates/mcu/stm32_ws/src/libraries/FreeRTOS/Source/portable/GCC/ARM_CM4F/port.c **** #define portMISSED_COUNTS_FACTOR			( 45UL )
 103:/home/rdu/Workspace/project_templates/mcu/stm32_ws/src/libraries/FreeRTOS/Source/portable/GCC/ARM_CM4F/port.c **** 
 104:/home/rdu/Workspace/project_templates/mcu/stm32_ws/src/libraries/FreeRTOS/Source/portable/GCC/ARM_CM4F/port.c **** /* Let the user override the pre-loading of the initial LR with the address of
 105:/home/rdu/Workspace/project_templates/mcu/stm32_ws/src/libraries/FreeRTOS/Source/portable/GCC/ARM_CM4F/port.c **** prvTaskExitError() in case it messes up unwinding of the stack in the
 106:/home/rdu/Workspace/project_templates/mcu/stm32_ws/src/libraries/FreeRTOS/Source/portable/GCC/ARM_CM4F/port.c **** debugger. */
 107:/home/rdu/Workspace/project_templates/mcu/stm32_ws/src/libraries/FreeRTOS/Source/portable/GCC/ARM_CM4F/port.c **** #ifdef configTASK_RETURN_ADDRESS
 108:/home/rdu/Workspace/project_templates/mcu/stm32_ws/src/libraries/FreeRTOS/Source/portable/GCC/ARM_CM4F/port.c **** 	#define portTASK_RETURN_ADDRESS	configTASK_RETURN_ADDRESS
 109:/home/rdu/Workspace/project_templates/mcu/stm32_ws/src/libraries/FreeRTOS/Source/portable/GCC/ARM_CM4F/port.c **** #else
 110:/home/rdu/Workspace/project_templates/mcu/stm32_ws/src/libraries/FreeRTOS/Source/portable/GCC/ARM_CM4F/port.c **** 	#define portTASK_RETURN_ADDRESS	prvTaskExitError
 111:/home/rdu/Workspace/project_templates/mcu/stm32_ws/src/libraries/FreeRTOS/Source/portable/GCC/ARM_CM4F/port.c **** #endif
 112:/home/rdu/Workspace/project_templates/mcu/stm32_ws/src/libraries/FreeRTOS/Source/portable/GCC/ARM_CM4F/port.c **** 
 113:/home/rdu/Workspace/project_templates/mcu/stm32_ws/src/libraries/FreeRTOS/Source/portable/GCC/ARM_CM4F/port.c **** /*
 114:/home/rdu/Workspace/project_templates/mcu/stm32_ws/src/libraries/FreeRTOS/Source/portable/GCC/ARM_CM4F/port.c ****  * Setup the timer to generate the tick interrupts.  The implementation in this
 115:/home/rdu/Workspace/project_templates/mcu/stm32_ws/src/libraries/FreeRTOS/Source/portable/GCC/ARM_CM4F/port.c ****  * file is weak to allow application writers to change the timer used to
 116:/home/rdu/Workspace/project_templates/mcu/stm32_ws/src/libraries/FreeRTOS/Source/portable/GCC/ARM_CM4F/port.c ****  * generate the tick interrupt.
 117:/home/rdu/Workspace/project_templates/mcu/stm32_ws/src/libraries/FreeRTOS/Source/portable/GCC/ARM_CM4F/port.c ****  */
 118:/home/rdu/Workspace/project_templates/mcu/stm32_ws/src/libraries/FreeRTOS/Source/portable/GCC/ARM_CM4F/port.c **** void vPortSetupTimerInterrupt( void );
 119:/home/rdu/Workspace/project_templates/mcu/stm32_ws/src/libraries/FreeRTOS/Source/portable/GCC/ARM_CM4F/port.c **** 
 120:/home/rdu/Workspace/project_templates/mcu/stm32_ws/src/libraries/FreeRTOS/Source/portable/GCC/ARM_CM4F/port.c **** /*
 121:/home/rdu/Workspace/project_templates/mcu/stm32_ws/src/libraries/FreeRTOS/Source/portable/GCC/ARM_CM4F/port.c ****  * Exception handlers.
 122:/home/rdu/Workspace/project_templates/mcu/stm32_ws/src/libraries/FreeRTOS/Source/portable/GCC/ARM_CM4F/port.c ****  */
 123:/home/rdu/Workspace/project_templates/mcu/stm32_ws/src/libraries/FreeRTOS/Source/portable/GCC/ARM_CM4F/port.c **** void xPortPendSVHandler( void ) __attribute__ (( naked ));
 124:/home/rdu/Workspace/project_templates/mcu/stm32_ws/src/libraries/FreeRTOS/Source/portable/GCC/ARM_CM4F/port.c **** void xPortSysTickHandler( void );
 125:/home/rdu/Workspace/project_templates/mcu/stm32_ws/src/libraries/FreeRTOS/Source/portable/GCC/ARM_CM4F/port.c **** void vPortSVCHandler( void ) __attribute__ (( naked ));
 126:/home/rdu/Workspace/project_templates/mcu/stm32_ws/src/libraries/FreeRTOS/Source/portable/GCC/ARM_CM4F/port.c **** 
 127:/home/rdu/Workspace/project_templates/mcu/stm32_ws/src/libraries/FreeRTOS/Source/portable/GCC/ARM_CM4F/port.c **** /*
 128:/home/rdu/Workspace/project_templates/mcu/stm32_ws/src/libraries/FreeRTOS/Source/portable/GCC/ARM_CM4F/port.c ****  * Start first task is a separate function so it can be tested in isolation.
 129:/home/rdu/Workspace/project_templates/mcu/stm32_ws/src/libraries/FreeRTOS/Source/portable/GCC/ARM_CM4F/port.c ****  */
 130:/home/rdu/Workspace/project_templates/mcu/stm32_ws/src/libraries/FreeRTOS/Source/portable/GCC/ARM_CM4F/port.c **** static void prvPortStartFirstTask( void ) __attribute__ (( naked ));
 131:/home/rdu/Workspace/project_templates/mcu/stm32_ws/src/libraries/FreeRTOS/Source/portable/GCC/ARM_CM4F/port.c **** 
 132:/home/rdu/Workspace/project_templates/mcu/stm32_ws/src/libraries/FreeRTOS/Source/portable/GCC/ARM_CM4F/port.c **** /*
 133:/home/rdu/Workspace/project_templates/mcu/stm32_ws/src/libraries/FreeRTOS/Source/portable/GCC/ARM_CM4F/port.c ****  * Function to enable the VFP.
 134:/home/rdu/Workspace/project_templates/mcu/stm32_ws/src/libraries/FreeRTOS/Source/portable/GCC/ARM_CM4F/port.c ****  */
 135:/home/rdu/Workspace/project_templates/mcu/stm32_ws/src/libraries/FreeRTOS/Source/portable/GCC/ARM_CM4F/port.c **** static void vPortEnableVFP( void ) __attribute__ (( naked ));
 136:/home/rdu/Workspace/project_templates/mcu/stm32_ws/src/libraries/FreeRTOS/Source/portable/GCC/ARM_CM4F/port.c **** 
 137:/home/rdu/Workspace/project_templates/mcu/stm32_ws/src/libraries/FreeRTOS/Source/portable/GCC/ARM_CM4F/port.c **** /*
 138:/home/rdu/Workspace/project_templates/mcu/stm32_ws/src/libraries/FreeRTOS/Source/portable/GCC/ARM_CM4F/port.c ****  * Used to catch tasks that attempt to return from their implementing function.
 139:/home/rdu/Workspace/project_templates/mcu/stm32_ws/src/libraries/FreeRTOS/Source/portable/GCC/ARM_CM4F/port.c ****  */
 140:/home/rdu/Workspace/project_templates/mcu/stm32_ws/src/libraries/FreeRTOS/Source/portable/GCC/ARM_CM4F/port.c **** static void prvTaskExitError( void );
 141:/home/rdu/Workspace/project_templates/mcu/stm32_ws/src/libraries/FreeRTOS/Source/portable/GCC/ARM_CM4F/port.c **** 
 142:/home/rdu/Workspace/project_templates/mcu/stm32_ws/src/libraries/FreeRTOS/Source/portable/GCC/ARM_CM4F/port.c **** /*-----------------------------------------------------------*/
 143:/home/rdu/Workspace/project_templates/mcu/stm32_ws/src/libraries/FreeRTOS/Source/portable/GCC/ARM_CM4F/port.c **** 
 144:/home/rdu/Workspace/project_templates/mcu/stm32_ws/src/libraries/FreeRTOS/Source/portable/GCC/ARM_CM4F/port.c **** /* Each task maintains its own interrupt status in the critical nesting
 145:/home/rdu/Workspace/project_templates/mcu/stm32_ws/src/libraries/FreeRTOS/Source/portable/GCC/ARM_CM4F/port.c **** variable. */
 146:/home/rdu/Workspace/project_templates/mcu/stm32_ws/src/libraries/FreeRTOS/Source/portable/GCC/ARM_CM4F/port.c **** static UBaseType_t uxCriticalNesting = 0xaaaaaaaa;
 147:/home/rdu/Workspace/project_templates/mcu/stm32_ws/src/libraries/FreeRTOS/Source/portable/GCC/ARM_CM4F/port.c **** 
 148:/home/rdu/Workspace/project_templates/mcu/stm32_ws/src/libraries/FreeRTOS/Source/portable/GCC/ARM_CM4F/port.c **** /*
 149:/home/rdu/Workspace/project_templates/mcu/stm32_ws/src/libraries/FreeRTOS/Source/portable/GCC/ARM_CM4F/port.c ****  * The number of SysTick increments that make up one tick period.
 150:/home/rdu/Workspace/project_templates/mcu/stm32_ws/src/libraries/FreeRTOS/Source/portable/GCC/ARM_CM4F/port.c ****  */
 151:/home/rdu/Workspace/project_templates/mcu/stm32_ws/src/libraries/FreeRTOS/Source/portable/GCC/ARM_CM4F/port.c **** #if( configUSE_TICKLESS_IDLE == 1 )
 152:/home/rdu/Workspace/project_templates/mcu/stm32_ws/src/libraries/FreeRTOS/Source/portable/GCC/ARM_CM4F/port.c **** 	static uint32_t ulTimerCountsForOneTick = 0;
 153:/home/rdu/Workspace/project_templates/mcu/stm32_ws/src/libraries/FreeRTOS/Source/portable/GCC/ARM_CM4F/port.c **** #endif /* configUSE_TICKLESS_IDLE */
 154:/home/rdu/Workspace/project_templates/mcu/stm32_ws/src/libraries/FreeRTOS/Source/portable/GCC/ARM_CM4F/port.c **** 
 155:/home/rdu/Workspace/project_templates/mcu/stm32_ws/src/libraries/FreeRTOS/Source/portable/GCC/ARM_CM4F/port.c **** /*
 156:/home/rdu/Workspace/project_templates/mcu/stm32_ws/src/libraries/FreeRTOS/Source/portable/GCC/ARM_CM4F/port.c ****  * The maximum number of tick periods that can be suppressed is limited by the
 157:/home/rdu/Workspace/project_templates/mcu/stm32_ws/src/libraries/FreeRTOS/Source/portable/GCC/ARM_CM4F/port.c ****  * 24 bit resolution of the SysTick timer.
 158:/home/rdu/Workspace/project_templates/mcu/stm32_ws/src/libraries/FreeRTOS/Source/portable/GCC/ARM_CM4F/port.c ****  */
 159:/home/rdu/Workspace/project_templates/mcu/stm32_ws/src/libraries/FreeRTOS/Source/portable/GCC/ARM_CM4F/port.c **** #if( configUSE_TICKLESS_IDLE == 1 )
 160:/home/rdu/Workspace/project_templates/mcu/stm32_ws/src/libraries/FreeRTOS/Source/portable/GCC/ARM_CM4F/port.c **** 	static uint32_t xMaximumPossibleSuppressedTicks = 0;
 161:/home/rdu/Workspace/project_templates/mcu/stm32_ws/src/libraries/FreeRTOS/Source/portable/GCC/ARM_CM4F/port.c **** #endif /* configUSE_TICKLESS_IDLE */
 162:/home/rdu/Workspace/project_templates/mcu/stm32_ws/src/libraries/FreeRTOS/Source/portable/GCC/ARM_CM4F/port.c **** 
 163:/home/rdu/Workspace/project_templates/mcu/stm32_ws/src/libraries/FreeRTOS/Source/portable/GCC/ARM_CM4F/port.c **** /*
 164:/home/rdu/Workspace/project_templates/mcu/stm32_ws/src/libraries/FreeRTOS/Source/portable/GCC/ARM_CM4F/port.c ****  * Compensate for the CPU cycles that pass while the SysTick is stopped (low
 165:/home/rdu/Workspace/project_templates/mcu/stm32_ws/src/libraries/FreeRTOS/Source/portable/GCC/ARM_CM4F/port.c ****  * power functionality only.
 166:/home/rdu/Workspace/project_templates/mcu/stm32_ws/src/libraries/FreeRTOS/Source/portable/GCC/ARM_CM4F/port.c ****  */
 167:/home/rdu/Workspace/project_templates/mcu/stm32_ws/src/libraries/FreeRTOS/Source/portable/GCC/ARM_CM4F/port.c **** #if( configUSE_TICKLESS_IDLE == 1 )
 168:/home/rdu/Workspace/project_templates/mcu/stm32_ws/src/libraries/FreeRTOS/Source/portable/GCC/ARM_CM4F/port.c **** 	static uint32_t ulStoppedTimerCompensation = 0;
 169:/home/rdu/Workspace/project_templates/mcu/stm32_ws/src/libraries/FreeRTOS/Source/portable/GCC/ARM_CM4F/port.c **** #endif /* configUSE_TICKLESS_IDLE */
 170:/home/rdu/Workspace/project_templates/mcu/stm32_ws/src/libraries/FreeRTOS/Source/portable/GCC/ARM_CM4F/port.c **** 
 171:/home/rdu/Workspace/project_templates/mcu/stm32_ws/src/libraries/FreeRTOS/Source/portable/GCC/ARM_CM4F/port.c **** /*
 172:/home/rdu/Workspace/project_templates/mcu/stm32_ws/src/libraries/FreeRTOS/Source/portable/GCC/ARM_CM4F/port.c ****  * Used by the portASSERT_IF_INTERRUPT_PRIORITY_INVALID() macro to ensure
 173:/home/rdu/Workspace/project_templates/mcu/stm32_ws/src/libraries/FreeRTOS/Source/portable/GCC/ARM_CM4F/port.c ****  * FreeRTOS API functions are not called from interrupts that have been assigned
 174:/home/rdu/Workspace/project_templates/mcu/stm32_ws/src/libraries/FreeRTOS/Source/portable/GCC/ARM_CM4F/port.c ****  * a priority above configMAX_SYSCALL_INTERRUPT_PRIORITY.
 175:/home/rdu/Workspace/project_templates/mcu/stm32_ws/src/libraries/FreeRTOS/Source/portable/GCC/ARM_CM4F/port.c ****  */
 176:/home/rdu/Workspace/project_templates/mcu/stm32_ws/src/libraries/FreeRTOS/Source/portable/GCC/ARM_CM4F/port.c **** #if( configASSERT_DEFINED == 1 )
 177:/home/rdu/Workspace/project_templates/mcu/stm32_ws/src/libraries/FreeRTOS/Source/portable/GCC/ARM_CM4F/port.c **** 	 static uint8_t ucMaxSysCallPriority = 0;
 178:/home/rdu/Workspace/project_templates/mcu/stm32_ws/src/libraries/FreeRTOS/Source/portable/GCC/ARM_CM4F/port.c **** 	 static uint32_t ulMaxPRIGROUPValue = 0;
 179:/home/rdu/Workspace/project_templates/mcu/stm32_ws/src/libraries/FreeRTOS/Source/portable/GCC/ARM_CM4F/port.c **** 	 static const volatile uint8_t * const pcInterruptPriorityRegisters = ( const volatile uint8_t * c
 180:/home/rdu/Workspace/project_templates/mcu/stm32_ws/src/libraries/FreeRTOS/Source/portable/GCC/ARM_CM4F/port.c **** #endif /* configASSERT_DEFINED */
 181:/home/rdu/Workspace/project_templates/mcu/stm32_ws/src/libraries/FreeRTOS/Source/portable/GCC/ARM_CM4F/port.c **** 
 182:/home/rdu/Workspace/project_templates/mcu/stm32_ws/src/libraries/FreeRTOS/Source/portable/GCC/ARM_CM4F/port.c **** /*-----------------------------------------------------------*/
 183:/home/rdu/Workspace/project_templates/mcu/stm32_ws/src/libraries/FreeRTOS/Source/portable/GCC/ARM_CM4F/port.c **** 
 184:/home/rdu/Workspace/project_templates/mcu/stm32_ws/src/libraries/FreeRTOS/Source/portable/GCC/ARM_CM4F/port.c **** /*
 185:/home/rdu/Workspace/project_templates/mcu/stm32_ws/src/libraries/FreeRTOS/Source/portable/GCC/ARM_CM4F/port.c ****  * See header file for description.
 186:/home/rdu/Workspace/project_templates/mcu/stm32_ws/src/libraries/FreeRTOS/Source/portable/GCC/ARM_CM4F/port.c ****  */
 187:/home/rdu/Workspace/project_templates/mcu/stm32_ws/src/libraries/FreeRTOS/Source/portable/GCC/ARM_CM4F/port.c **** StackType_t *pxPortInitialiseStack( StackType_t *pxTopOfStack, TaskFunction_t pxCode, void *pvParam
 188:/home/rdu/Workspace/project_templates/mcu/stm32_ws/src/libraries/FreeRTOS/Source/portable/GCC/ARM_CM4F/port.c **** {
  49              		.loc 1 188 0
  50              		.cfi_startproc
  51              		@ args = 0, pretend = 0, frame = 16
  52              		@ frame_needed = 0, uses_anonymous_args = 0
  53              		@ link register save eliminated.
  54 0000 84B0     		sub	sp, sp, #16
  55              	.LCFI0:
  56              		.cfi_def_cfa_offset 16
  57 0002 0390     		str	r0, [sp, #12]
  58 0004 0291     		str	r1, [sp, #8]
  59 0006 0192     		str	r2, [sp, #4]
 189:/home/rdu/Workspace/project_templates/mcu/stm32_ws/src/libraries/FreeRTOS/Source/portable/GCC/ARM_CM4F/port.c **** 	/* Simulate the stack frame as it would be created by a context switch
 190:/home/rdu/Workspace/project_templates/mcu/stm32_ws/src/libraries/FreeRTOS/Source/portable/GCC/ARM_CM4F/port.c **** 	interrupt. */
 191:/home/rdu/Workspace/project_templates/mcu/stm32_ws/src/libraries/FreeRTOS/Source/portable/GCC/ARM_CM4F/port.c **** 
 192:/home/rdu/Workspace/project_templates/mcu/stm32_ws/src/libraries/FreeRTOS/Source/portable/GCC/ARM_CM4F/port.c **** 	/* Offset added to account for the way the MCU uses the stack on entry/exit
 193:/home/rdu/Workspace/project_templates/mcu/stm32_ws/src/libraries/FreeRTOS/Source/portable/GCC/ARM_CM4F/port.c **** 	of interrupts, and to ensure alignment. */
 194:/home/rdu/Workspace/project_templates/mcu/stm32_ws/src/libraries/FreeRTOS/Source/portable/GCC/ARM_CM4F/port.c **** 	pxTopOfStack--;
  60              		.loc 1 194 0
  61 0008 039B     		ldr	r3, [sp, #12]
  62 000a 043B     		subs	r3, r3, #4
  63 000c 0393     		str	r3, [sp, #12]
 195:/home/rdu/Workspace/project_templates/mcu/stm32_ws/src/libraries/FreeRTOS/Source/portable/GCC/ARM_CM4F/port.c **** 
 196:/home/rdu/Workspace/project_templates/mcu/stm32_ws/src/libraries/FreeRTOS/Source/portable/GCC/ARM_CM4F/port.c **** 	*pxTopOfStack = portINITIAL_XPSR;	/* xPSR */
  64              		.loc 1 196 0
  65 000e 039B     		ldr	r3, [sp, #12]
  66 0010 4FF08072 		mov	r2, #16777216
  67 0014 1A60     		str	r2, [r3]
 197:/home/rdu/Workspace/project_templates/mcu/stm32_ws/src/libraries/FreeRTOS/Source/portable/GCC/ARM_CM4F/port.c **** 	pxTopOfStack--;
  68              		.loc 1 197 0
  69 0016 039B     		ldr	r3, [sp, #12]
  70 0018 043B     		subs	r3, r3, #4
  71 001a 0393     		str	r3, [sp, #12]
 198:/home/rdu/Workspace/project_templates/mcu/stm32_ws/src/libraries/FreeRTOS/Source/portable/GCC/ARM_CM4F/port.c **** 	*pxTopOfStack = ( ( StackType_t ) pxCode ) & portSTART_ADDRESS_MASK;	/* PC */
  72              		.loc 1 198 0
  73 001c 029B     		ldr	r3, [sp, #8]
  74 001e 23F00102 		bic	r2, r3, #1
  75 0022 039B     		ldr	r3, [sp, #12]
  76 0024 1A60     		str	r2, [r3]
 199:/home/rdu/Workspace/project_templates/mcu/stm32_ws/src/libraries/FreeRTOS/Source/portable/GCC/ARM_CM4F/port.c **** 	pxTopOfStack--;
  77              		.loc 1 199 0
  78 0026 039B     		ldr	r3, [sp, #12]
  79 0028 043B     		subs	r3, r3, #4
  80 002a 0393     		str	r3, [sp, #12]
 200:/home/rdu/Workspace/project_templates/mcu/stm32_ws/src/libraries/FreeRTOS/Source/portable/GCC/ARM_CM4F/port.c **** 	*pxTopOfStack = ( StackType_t ) portTASK_RETURN_ADDRESS;	/* LR */
  81              		.loc 1 200 0
  82 002c 0B4A     		ldr	r2, .L3
  83 002e 039B     		ldr	r3, [sp, #12]
  84 0030 1A60     		str	r2, [r3]
 201:/home/rdu/Workspace/project_templates/mcu/stm32_ws/src/libraries/FreeRTOS/Source/portable/GCC/ARM_CM4F/port.c **** 
 202:/home/rdu/Workspace/project_templates/mcu/stm32_ws/src/libraries/FreeRTOS/Source/portable/GCC/ARM_CM4F/port.c **** 	/* Save code space by skipping register initialisation. */
 203:/home/rdu/Workspace/project_templates/mcu/stm32_ws/src/libraries/FreeRTOS/Source/portable/GCC/ARM_CM4F/port.c **** 	pxTopOfStack -= 5;	/* R12, R3, R2 and R1. */
  85              		.loc 1 203 0
  86 0032 039B     		ldr	r3, [sp, #12]
  87 0034 143B     		subs	r3, r3, #20
  88 0036 0393     		str	r3, [sp, #12]
 204:/home/rdu/Workspace/project_templates/mcu/stm32_ws/src/libraries/FreeRTOS/Source/portable/GCC/ARM_CM4F/port.c **** 	*pxTopOfStack = ( StackType_t ) pvParameters;	/* R0 */
  89              		.loc 1 204 0
  90 0038 019A     		ldr	r2, [sp, #4]
  91 003a 039B     		ldr	r3, [sp, #12]
  92 003c 1A60     		str	r2, [r3]
 205:/home/rdu/Workspace/project_templates/mcu/stm32_ws/src/libraries/FreeRTOS/Source/portable/GCC/ARM_CM4F/port.c **** 
 206:/home/rdu/Workspace/project_templates/mcu/stm32_ws/src/libraries/FreeRTOS/Source/portable/GCC/ARM_CM4F/port.c **** 	/* A save method is being used that requires each task to maintain its
 207:/home/rdu/Workspace/project_templates/mcu/stm32_ws/src/libraries/FreeRTOS/Source/portable/GCC/ARM_CM4F/port.c **** 	own exec return value. */
 208:/home/rdu/Workspace/project_templates/mcu/stm32_ws/src/libraries/FreeRTOS/Source/portable/GCC/ARM_CM4F/port.c **** 	pxTopOfStack--;
  93              		.loc 1 208 0
  94 003e 039B     		ldr	r3, [sp, #12]
  95 0040 043B     		subs	r3, r3, #4
  96 0042 0393     		str	r3, [sp, #12]
 209:/home/rdu/Workspace/project_templates/mcu/stm32_ws/src/libraries/FreeRTOS/Source/portable/GCC/ARM_CM4F/port.c **** 	*pxTopOfStack = portINITIAL_EXC_RETURN;
  97              		.loc 1 209 0
  98 0044 039B     		ldr	r3, [sp, #12]
  99 0046 6FF00202 		mvn	r2, #2
 100 004a 1A60     		str	r2, [r3]
 210:/home/rdu/Workspace/project_templates/mcu/stm32_ws/src/libraries/FreeRTOS/Source/portable/GCC/ARM_CM4F/port.c **** 
 211:/home/rdu/Workspace/project_templates/mcu/stm32_ws/src/libraries/FreeRTOS/Source/portable/GCC/ARM_CM4F/port.c **** 	pxTopOfStack -= 8;	/* R11, R10, R9, R8, R7, R6, R5 and R4. */
 101              		.loc 1 211 0
 102 004c 039B     		ldr	r3, [sp, #12]
 103 004e 203B     		subs	r3, r3, #32
 104 0050 0393     		str	r3, [sp, #12]
 212:/home/rdu/Workspace/project_templates/mcu/stm32_ws/src/libraries/FreeRTOS/Source/portable/GCC/ARM_CM4F/port.c **** 
 213:/home/rdu/Workspace/project_templates/mcu/stm32_ws/src/libraries/FreeRTOS/Source/portable/GCC/ARM_CM4F/port.c **** 	return pxTopOfStack;
 105              		.loc 1 213 0
 106 0052 039B     		ldr	r3, [sp, #12]
 214:/home/rdu/Workspace/project_templates/mcu/stm32_ws/src/libraries/FreeRTOS/Source/portable/GCC/ARM_CM4F/port.c **** }
 107              		.loc 1 214 0
 108 0054 1846     		mov	r0, r3
 109 0056 04B0     		add	sp, sp, #16
 110              	.LCFI1:
 111              		.cfi_def_cfa_offset 0
 112              		@ sp needed
 113 0058 7047     		bx	lr
 114              	.L4:
 115 005a 00BF     		.align	2
 116              	.L3:
 117 005c 00000000 		.word	prvTaskExitError
 118              		.cfi_endproc
 119              	.LFE5:
 121              		.section	.text.prvTaskExitError,"ax",%progbits
 122              		.align	1
 123              		.syntax unified
 124              		.thumb
 125              		.thumb_func
 126              		.fpu fpv4-sp-d16
 128              	prvTaskExitError:
 129              	.LFB6:
 215:/home/rdu/Workspace/project_templates/mcu/stm32_ws/src/libraries/FreeRTOS/Source/portable/GCC/ARM_CM4F/port.c **** /*-----------------------------------------------------------*/
 216:/home/rdu/Workspace/project_templates/mcu/stm32_ws/src/libraries/FreeRTOS/Source/portable/GCC/ARM_CM4F/port.c **** 
 217:/home/rdu/Workspace/project_templates/mcu/stm32_ws/src/libraries/FreeRTOS/Source/portable/GCC/ARM_CM4F/port.c **** static void prvTaskExitError( void )
 218:/home/rdu/Workspace/project_templates/mcu/stm32_ws/src/libraries/FreeRTOS/Source/portable/GCC/ARM_CM4F/port.c **** {
 130              		.loc 1 218 0
 131              		.cfi_startproc
 132              		@ args = 0, pretend = 0, frame = 16
 133              		@ frame_needed = 0, uses_anonymous_args = 0
 134              		@ link register save eliminated.
 135 0000 84B0     		sub	sp, sp, #16
 136              	.LCFI2:
 137              		.cfi_def_cfa_offset 16
 219:/home/rdu/Workspace/project_templates/mcu/stm32_ws/src/libraries/FreeRTOS/Source/portable/GCC/ARM_CM4F/port.c **** volatile uint32_t ulDummy = 0;
 138              		.loc 1 219 0
 139 0002 0023     		movs	r3, #0
 140 0004 0193     		str	r3, [sp, #4]
 220:/home/rdu/Workspace/project_templates/mcu/stm32_ws/src/libraries/FreeRTOS/Source/portable/GCC/ARM_CM4F/port.c **** 
 221:/home/rdu/Workspace/project_templates/mcu/stm32_ws/src/libraries/FreeRTOS/Source/portable/GCC/ARM_CM4F/port.c **** 	/* A function that implements a task must not exit or attempt to return to
 222:/home/rdu/Workspace/project_templates/mcu/stm32_ws/src/libraries/FreeRTOS/Source/portable/GCC/ARM_CM4F/port.c **** 	its caller as there is nothing to return to.  If a task wants to exit it
 223:/home/rdu/Workspace/project_templates/mcu/stm32_ws/src/libraries/FreeRTOS/Source/portable/GCC/ARM_CM4F/port.c **** 	should instead call vTaskDelete( NULL ).
 224:/home/rdu/Workspace/project_templates/mcu/stm32_ws/src/libraries/FreeRTOS/Source/portable/GCC/ARM_CM4F/port.c **** 
 225:/home/rdu/Workspace/project_templates/mcu/stm32_ws/src/libraries/FreeRTOS/Source/portable/GCC/ARM_CM4F/port.c **** 	Artificially force an assert() to be triggered if configASSERT() is
 226:/home/rdu/Workspace/project_templates/mcu/stm32_ws/src/libraries/FreeRTOS/Source/portable/GCC/ARM_CM4F/port.c **** 	defined, then stop here so application writers can catch the error. */
 227:/home/rdu/Workspace/project_templates/mcu/stm32_ws/src/libraries/FreeRTOS/Source/portable/GCC/ARM_CM4F/port.c **** 	configASSERT( uxCriticalNesting == ~0UL );
 141              		.loc 1 227 0
 142 0006 0F4B     		ldr	r3, .L9
 143 0008 1B68     		ldr	r3, [r3]
 144 000a B3F1FF3F 		cmp	r3, #-1
 145 000e 09D0     		beq	.L6
 146              	.LBB31:
 147              	.LBB32:
 148              		.file 2 "/home/rdu/Workspace/project_templates/mcu/stm32_ws/src/libraries/FreeRTOS/Source/portable
   1:/home/rdu/Workspace/project_templates/mcu/stm32_ws/src/libraries/FreeRTOS/Source/portable/GCC/ARM_CM4F/portmacro.h **** /*
   2:/home/rdu/Workspace/project_templates/mcu/stm32_ws/src/libraries/FreeRTOS/Source/portable/GCC/ARM_CM4F/portmacro.h ****  * FreeRTOS Kernel V10.1.1
   3:/home/rdu/Workspace/project_templates/mcu/stm32_ws/src/libraries/FreeRTOS/Source/portable/GCC/ARM_CM4F/portmacro.h ****  * Copyright (C) 2018 Amazon.com, Inc. or its affiliates.  All Rights Reserved.
   4:/home/rdu/Workspace/project_templates/mcu/stm32_ws/src/libraries/FreeRTOS/Source/portable/GCC/ARM_CM4F/portmacro.h ****  *
   5:/home/rdu/Workspace/project_templates/mcu/stm32_ws/src/libraries/FreeRTOS/Source/portable/GCC/ARM_CM4F/portmacro.h ****  * Permission is hereby granted, free of charge, to any person obtaining a copy of
   6:/home/rdu/Workspace/project_templates/mcu/stm32_ws/src/libraries/FreeRTOS/Source/portable/GCC/ARM_CM4F/portmacro.h ****  * this software and associated documentation files (the "Software"), to deal in
   7:/home/rdu/Workspace/project_templates/mcu/stm32_ws/src/libraries/FreeRTOS/Source/portable/GCC/ARM_CM4F/portmacro.h ****  * the Software without restriction, including without limitation the rights to
   8:/home/rdu/Workspace/project_templates/mcu/stm32_ws/src/libraries/FreeRTOS/Source/portable/GCC/ARM_CM4F/portmacro.h ****  * use, copy, modify, merge, publish, distribute, sublicense, and/or sell copies of
   9:/home/rdu/Workspace/project_templates/mcu/stm32_ws/src/libraries/FreeRTOS/Source/portable/GCC/ARM_CM4F/portmacro.h ****  * the Software, and to permit persons to whom the Software is furnished to do so,
  10:/home/rdu/Workspace/project_templates/mcu/stm32_ws/src/libraries/FreeRTOS/Source/portable/GCC/ARM_CM4F/portmacro.h ****  * subject to the following conditions:
  11:/home/rdu/Workspace/project_templates/mcu/stm32_ws/src/libraries/FreeRTOS/Source/portable/GCC/ARM_CM4F/portmacro.h ****  *
  12:/home/rdu/Workspace/project_templates/mcu/stm32_ws/src/libraries/FreeRTOS/Source/portable/GCC/ARM_CM4F/portmacro.h ****  * The above copyright notice and this permission notice shall be included in all
  13:/home/rdu/Workspace/project_templates/mcu/stm32_ws/src/libraries/FreeRTOS/Source/portable/GCC/ARM_CM4F/portmacro.h ****  * copies or substantial portions of the Software.
  14:/home/rdu/Workspace/project_templates/mcu/stm32_ws/src/libraries/FreeRTOS/Source/portable/GCC/ARM_CM4F/portmacro.h ****  *
  15:/home/rdu/Workspace/project_templates/mcu/stm32_ws/src/libraries/FreeRTOS/Source/portable/GCC/ARM_CM4F/portmacro.h ****  * THE SOFTWARE IS PROVIDED "AS IS", WITHOUT WARRANTY OF ANY KIND, EXPRESS OR
  16:/home/rdu/Workspace/project_templates/mcu/stm32_ws/src/libraries/FreeRTOS/Source/portable/GCC/ARM_CM4F/portmacro.h ****  * IMPLIED, INCLUDING BUT NOT LIMITED TO THE WARRANTIES OF MERCHANTABILITY, FITNESS
  17:/home/rdu/Workspace/project_templates/mcu/stm32_ws/src/libraries/FreeRTOS/Source/portable/GCC/ARM_CM4F/portmacro.h ****  * FOR A PARTICULAR PURPOSE AND NONINFRINGEMENT. IN NO EVENT SHALL THE AUTHORS OR
  18:/home/rdu/Workspace/project_templates/mcu/stm32_ws/src/libraries/FreeRTOS/Source/portable/GCC/ARM_CM4F/portmacro.h ****  * COPYRIGHT HOLDERS BE LIABLE FOR ANY CLAIM, DAMAGES OR OTHER LIABILITY, WHETHER
  19:/home/rdu/Workspace/project_templates/mcu/stm32_ws/src/libraries/FreeRTOS/Source/portable/GCC/ARM_CM4F/portmacro.h ****  * IN AN ACTION OF CONTRACT, TORT OR OTHERWISE, ARISING FROM, OUT OF OR IN
  20:/home/rdu/Workspace/project_templates/mcu/stm32_ws/src/libraries/FreeRTOS/Source/portable/GCC/ARM_CM4F/portmacro.h ****  * CONNECTION WITH THE SOFTWARE OR THE USE OR OTHER DEALINGS IN THE SOFTWARE.
  21:/home/rdu/Workspace/project_templates/mcu/stm32_ws/src/libraries/FreeRTOS/Source/portable/GCC/ARM_CM4F/portmacro.h ****  *
  22:/home/rdu/Workspace/project_templates/mcu/stm32_ws/src/libraries/FreeRTOS/Source/portable/GCC/ARM_CM4F/portmacro.h ****  * http://www.FreeRTOS.org
  23:/home/rdu/Workspace/project_templates/mcu/stm32_ws/src/libraries/FreeRTOS/Source/portable/GCC/ARM_CM4F/portmacro.h ****  * http://aws.amazon.com/freertos
  24:/home/rdu/Workspace/project_templates/mcu/stm32_ws/src/libraries/FreeRTOS/Source/portable/GCC/ARM_CM4F/portmacro.h ****  *
  25:/home/rdu/Workspace/project_templates/mcu/stm32_ws/src/libraries/FreeRTOS/Source/portable/GCC/ARM_CM4F/portmacro.h ****  * 1 tab == 4 spaces!
  26:/home/rdu/Workspace/project_templates/mcu/stm32_ws/src/libraries/FreeRTOS/Source/portable/GCC/ARM_CM4F/portmacro.h ****  */
  27:/home/rdu/Workspace/project_templates/mcu/stm32_ws/src/libraries/FreeRTOS/Source/portable/GCC/ARM_CM4F/portmacro.h **** 
  28:/home/rdu/Workspace/project_templates/mcu/stm32_ws/src/libraries/FreeRTOS/Source/portable/GCC/ARM_CM4F/portmacro.h **** 
  29:/home/rdu/Workspace/project_templates/mcu/stm32_ws/src/libraries/FreeRTOS/Source/portable/GCC/ARM_CM4F/portmacro.h **** #ifndef PORTMACRO_H
  30:/home/rdu/Workspace/project_templates/mcu/stm32_ws/src/libraries/FreeRTOS/Source/portable/GCC/ARM_CM4F/portmacro.h **** #define PORTMACRO_H
  31:/home/rdu/Workspace/project_templates/mcu/stm32_ws/src/libraries/FreeRTOS/Source/portable/GCC/ARM_CM4F/portmacro.h **** 
  32:/home/rdu/Workspace/project_templates/mcu/stm32_ws/src/libraries/FreeRTOS/Source/portable/GCC/ARM_CM4F/portmacro.h **** #ifdef __cplusplus
  33:/home/rdu/Workspace/project_templates/mcu/stm32_ws/src/libraries/FreeRTOS/Source/portable/GCC/ARM_CM4F/portmacro.h **** extern "C" {
  34:/home/rdu/Workspace/project_templates/mcu/stm32_ws/src/libraries/FreeRTOS/Source/portable/GCC/ARM_CM4F/portmacro.h **** #endif
  35:/home/rdu/Workspace/project_templates/mcu/stm32_ws/src/libraries/FreeRTOS/Source/portable/GCC/ARM_CM4F/portmacro.h **** 
  36:/home/rdu/Workspace/project_templates/mcu/stm32_ws/src/libraries/FreeRTOS/Source/portable/GCC/ARM_CM4F/portmacro.h **** /*-----------------------------------------------------------
  37:/home/rdu/Workspace/project_templates/mcu/stm32_ws/src/libraries/FreeRTOS/Source/portable/GCC/ARM_CM4F/portmacro.h ****  * Port specific definitions.
  38:/home/rdu/Workspace/project_templates/mcu/stm32_ws/src/libraries/FreeRTOS/Source/portable/GCC/ARM_CM4F/portmacro.h ****  *
  39:/home/rdu/Workspace/project_templates/mcu/stm32_ws/src/libraries/FreeRTOS/Source/portable/GCC/ARM_CM4F/portmacro.h ****  * The settings in this file configure FreeRTOS correctly for the
  40:/home/rdu/Workspace/project_templates/mcu/stm32_ws/src/libraries/FreeRTOS/Source/portable/GCC/ARM_CM4F/portmacro.h ****  * given hardware and compiler.
  41:/home/rdu/Workspace/project_templates/mcu/stm32_ws/src/libraries/FreeRTOS/Source/portable/GCC/ARM_CM4F/portmacro.h ****  *
  42:/home/rdu/Workspace/project_templates/mcu/stm32_ws/src/libraries/FreeRTOS/Source/portable/GCC/ARM_CM4F/portmacro.h ****  * These settings should not be altered.
  43:/home/rdu/Workspace/project_templates/mcu/stm32_ws/src/libraries/FreeRTOS/Source/portable/GCC/ARM_CM4F/portmacro.h ****  *-----------------------------------------------------------
  44:/home/rdu/Workspace/project_templates/mcu/stm32_ws/src/libraries/FreeRTOS/Source/portable/GCC/ARM_CM4F/portmacro.h ****  */
  45:/home/rdu/Workspace/project_templates/mcu/stm32_ws/src/libraries/FreeRTOS/Source/portable/GCC/ARM_CM4F/portmacro.h **** 
  46:/home/rdu/Workspace/project_templates/mcu/stm32_ws/src/libraries/FreeRTOS/Source/portable/GCC/ARM_CM4F/portmacro.h **** /* Type definitions. */
  47:/home/rdu/Workspace/project_templates/mcu/stm32_ws/src/libraries/FreeRTOS/Source/portable/GCC/ARM_CM4F/portmacro.h **** #define portCHAR		char
  48:/home/rdu/Workspace/project_templates/mcu/stm32_ws/src/libraries/FreeRTOS/Source/portable/GCC/ARM_CM4F/portmacro.h **** #define portFLOAT		float
  49:/home/rdu/Workspace/project_templates/mcu/stm32_ws/src/libraries/FreeRTOS/Source/portable/GCC/ARM_CM4F/portmacro.h **** #define portDOUBLE		double
  50:/home/rdu/Workspace/project_templates/mcu/stm32_ws/src/libraries/FreeRTOS/Source/portable/GCC/ARM_CM4F/portmacro.h **** #define portLONG		long
  51:/home/rdu/Workspace/project_templates/mcu/stm32_ws/src/libraries/FreeRTOS/Source/portable/GCC/ARM_CM4F/portmacro.h **** #define portSHORT		short
  52:/home/rdu/Workspace/project_templates/mcu/stm32_ws/src/libraries/FreeRTOS/Source/portable/GCC/ARM_CM4F/portmacro.h **** #define portSTACK_TYPE	uint32_t
  53:/home/rdu/Workspace/project_templates/mcu/stm32_ws/src/libraries/FreeRTOS/Source/portable/GCC/ARM_CM4F/portmacro.h **** #define portBASE_TYPE	long
  54:/home/rdu/Workspace/project_templates/mcu/stm32_ws/src/libraries/FreeRTOS/Source/portable/GCC/ARM_CM4F/portmacro.h **** 
  55:/home/rdu/Workspace/project_templates/mcu/stm32_ws/src/libraries/FreeRTOS/Source/portable/GCC/ARM_CM4F/portmacro.h **** typedef portSTACK_TYPE StackType_t;
  56:/home/rdu/Workspace/project_templates/mcu/stm32_ws/src/libraries/FreeRTOS/Source/portable/GCC/ARM_CM4F/portmacro.h **** typedef long BaseType_t;
  57:/home/rdu/Workspace/project_templates/mcu/stm32_ws/src/libraries/FreeRTOS/Source/portable/GCC/ARM_CM4F/portmacro.h **** typedef unsigned long UBaseType_t;
  58:/home/rdu/Workspace/project_templates/mcu/stm32_ws/src/libraries/FreeRTOS/Source/portable/GCC/ARM_CM4F/portmacro.h **** 
  59:/home/rdu/Workspace/project_templates/mcu/stm32_ws/src/libraries/FreeRTOS/Source/portable/GCC/ARM_CM4F/portmacro.h **** #if( configUSE_16_BIT_TICKS == 1 )
  60:/home/rdu/Workspace/project_templates/mcu/stm32_ws/src/libraries/FreeRTOS/Source/portable/GCC/ARM_CM4F/portmacro.h **** 	typedef uint16_t TickType_t;
  61:/home/rdu/Workspace/project_templates/mcu/stm32_ws/src/libraries/FreeRTOS/Source/portable/GCC/ARM_CM4F/portmacro.h **** 	#define portMAX_DELAY ( TickType_t ) 0xffff
  62:/home/rdu/Workspace/project_templates/mcu/stm32_ws/src/libraries/FreeRTOS/Source/portable/GCC/ARM_CM4F/portmacro.h **** #else
  63:/home/rdu/Workspace/project_templates/mcu/stm32_ws/src/libraries/FreeRTOS/Source/portable/GCC/ARM_CM4F/portmacro.h **** 	typedef uint32_t TickType_t;
  64:/home/rdu/Workspace/project_templates/mcu/stm32_ws/src/libraries/FreeRTOS/Source/portable/GCC/ARM_CM4F/portmacro.h **** 	#define portMAX_DELAY ( TickType_t ) 0xffffffffUL
  65:/home/rdu/Workspace/project_templates/mcu/stm32_ws/src/libraries/FreeRTOS/Source/portable/GCC/ARM_CM4F/portmacro.h **** 
  66:/home/rdu/Workspace/project_templates/mcu/stm32_ws/src/libraries/FreeRTOS/Source/portable/GCC/ARM_CM4F/portmacro.h **** 	/* 32-bit tick type on a 32-bit architecture, so reads of the tick count do
  67:/home/rdu/Workspace/project_templates/mcu/stm32_ws/src/libraries/FreeRTOS/Source/portable/GCC/ARM_CM4F/portmacro.h **** 	not need to be guarded with a critical section. */
  68:/home/rdu/Workspace/project_templates/mcu/stm32_ws/src/libraries/FreeRTOS/Source/portable/GCC/ARM_CM4F/portmacro.h **** 	#define portTICK_TYPE_IS_ATOMIC 1
  69:/home/rdu/Workspace/project_templates/mcu/stm32_ws/src/libraries/FreeRTOS/Source/portable/GCC/ARM_CM4F/portmacro.h **** #endif
  70:/home/rdu/Workspace/project_templates/mcu/stm32_ws/src/libraries/FreeRTOS/Source/portable/GCC/ARM_CM4F/portmacro.h **** /*-----------------------------------------------------------*/
  71:/home/rdu/Workspace/project_templates/mcu/stm32_ws/src/libraries/FreeRTOS/Source/portable/GCC/ARM_CM4F/portmacro.h **** 
  72:/home/rdu/Workspace/project_templates/mcu/stm32_ws/src/libraries/FreeRTOS/Source/portable/GCC/ARM_CM4F/portmacro.h **** /* Architecture specifics. */
  73:/home/rdu/Workspace/project_templates/mcu/stm32_ws/src/libraries/FreeRTOS/Source/portable/GCC/ARM_CM4F/portmacro.h **** #define portSTACK_GROWTH			( -1 )
  74:/home/rdu/Workspace/project_templates/mcu/stm32_ws/src/libraries/FreeRTOS/Source/portable/GCC/ARM_CM4F/portmacro.h **** #define portTICK_PERIOD_MS			( ( TickType_t ) 1000 / configTICK_RATE_HZ )
  75:/home/rdu/Workspace/project_templates/mcu/stm32_ws/src/libraries/FreeRTOS/Source/portable/GCC/ARM_CM4F/portmacro.h **** #define portBYTE_ALIGNMENT			8
  76:/home/rdu/Workspace/project_templates/mcu/stm32_ws/src/libraries/FreeRTOS/Source/portable/GCC/ARM_CM4F/portmacro.h **** /*-----------------------------------------------------------*/
  77:/home/rdu/Workspace/project_templates/mcu/stm32_ws/src/libraries/FreeRTOS/Source/portable/GCC/ARM_CM4F/portmacro.h **** 
  78:/home/rdu/Workspace/project_templates/mcu/stm32_ws/src/libraries/FreeRTOS/Source/portable/GCC/ARM_CM4F/portmacro.h **** /* Scheduler utilities. */
  79:/home/rdu/Workspace/project_templates/mcu/stm32_ws/src/libraries/FreeRTOS/Source/portable/GCC/ARM_CM4F/portmacro.h **** #define portYIELD() 															\
  80:/home/rdu/Workspace/project_templates/mcu/stm32_ws/src/libraries/FreeRTOS/Source/portable/GCC/ARM_CM4F/portmacro.h **** {																				\
  81:/home/rdu/Workspace/project_templates/mcu/stm32_ws/src/libraries/FreeRTOS/Source/portable/GCC/ARM_CM4F/portmacro.h **** 	/* Set a PendSV to request a context switch. */								\
  82:/home/rdu/Workspace/project_templates/mcu/stm32_ws/src/libraries/FreeRTOS/Source/portable/GCC/ARM_CM4F/portmacro.h **** 	portNVIC_INT_CTRL_REG = portNVIC_PENDSVSET_BIT;								\
  83:/home/rdu/Workspace/project_templates/mcu/stm32_ws/src/libraries/FreeRTOS/Source/portable/GCC/ARM_CM4F/portmacro.h **** 																				\
  84:/home/rdu/Workspace/project_templates/mcu/stm32_ws/src/libraries/FreeRTOS/Source/portable/GCC/ARM_CM4F/portmacro.h **** 	/* Barriers are normally not required but do ensure the code is completely	\
  85:/home/rdu/Workspace/project_templates/mcu/stm32_ws/src/libraries/FreeRTOS/Source/portable/GCC/ARM_CM4F/portmacro.h **** 	within the specified behaviour for the architecture. */						\
  86:/home/rdu/Workspace/project_templates/mcu/stm32_ws/src/libraries/FreeRTOS/Source/portable/GCC/ARM_CM4F/portmacro.h **** 	__asm volatile( "dsb" ::: "memory" );										\
  87:/home/rdu/Workspace/project_templates/mcu/stm32_ws/src/libraries/FreeRTOS/Source/portable/GCC/ARM_CM4F/portmacro.h **** 	__asm volatile( "isb" );													\
  88:/home/rdu/Workspace/project_templates/mcu/stm32_ws/src/libraries/FreeRTOS/Source/portable/GCC/ARM_CM4F/portmacro.h **** }
  89:/home/rdu/Workspace/project_templates/mcu/stm32_ws/src/libraries/FreeRTOS/Source/portable/GCC/ARM_CM4F/portmacro.h **** 
  90:/home/rdu/Workspace/project_templates/mcu/stm32_ws/src/libraries/FreeRTOS/Source/portable/GCC/ARM_CM4F/portmacro.h **** #define portNVIC_INT_CTRL_REG		( * ( ( volatile uint32_t * ) 0xe000ed04 ) )
  91:/home/rdu/Workspace/project_templates/mcu/stm32_ws/src/libraries/FreeRTOS/Source/portable/GCC/ARM_CM4F/portmacro.h **** #define portNVIC_PENDSVSET_BIT		( 1UL << 28UL )
  92:/home/rdu/Workspace/project_templates/mcu/stm32_ws/src/libraries/FreeRTOS/Source/portable/GCC/ARM_CM4F/portmacro.h **** #define portEND_SWITCHING_ISR( xSwitchRequired ) if( xSwitchRequired != pdFALSE ) portYIELD()
  93:/home/rdu/Workspace/project_templates/mcu/stm32_ws/src/libraries/FreeRTOS/Source/portable/GCC/ARM_CM4F/portmacro.h **** #define portYIELD_FROM_ISR( x ) portEND_SWITCHING_ISR( x )
  94:/home/rdu/Workspace/project_templates/mcu/stm32_ws/src/libraries/FreeRTOS/Source/portable/GCC/ARM_CM4F/portmacro.h **** /*-----------------------------------------------------------*/
  95:/home/rdu/Workspace/project_templates/mcu/stm32_ws/src/libraries/FreeRTOS/Source/portable/GCC/ARM_CM4F/portmacro.h **** 
  96:/home/rdu/Workspace/project_templates/mcu/stm32_ws/src/libraries/FreeRTOS/Source/portable/GCC/ARM_CM4F/portmacro.h **** /* Critical section management. */
  97:/home/rdu/Workspace/project_templates/mcu/stm32_ws/src/libraries/FreeRTOS/Source/portable/GCC/ARM_CM4F/portmacro.h **** extern void vPortEnterCritical( void );
  98:/home/rdu/Workspace/project_templates/mcu/stm32_ws/src/libraries/FreeRTOS/Source/portable/GCC/ARM_CM4F/portmacro.h **** extern void vPortExitCritical( void );
  99:/home/rdu/Workspace/project_templates/mcu/stm32_ws/src/libraries/FreeRTOS/Source/portable/GCC/ARM_CM4F/portmacro.h **** #define portSET_INTERRUPT_MASK_FROM_ISR()		ulPortRaiseBASEPRI()
 100:/home/rdu/Workspace/project_templates/mcu/stm32_ws/src/libraries/FreeRTOS/Source/portable/GCC/ARM_CM4F/portmacro.h **** #define portCLEAR_INTERRUPT_MASK_FROM_ISR(x)	vPortSetBASEPRI(x)
 101:/home/rdu/Workspace/project_templates/mcu/stm32_ws/src/libraries/FreeRTOS/Source/portable/GCC/ARM_CM4F/portmacro.h **** #define portDISABLE_INTERRUPTS()				vPortRaiseBASEPRI()
 102:/home/rdu/Workspace/project_templates/mcu/stm32_ws/src/libraries/FreeRTOS/Source/portable/GCC/ARM_CM4F/portmacro.h **** #define portENABLE_INTERRUPTS()					vPortSetBASEPRI(0)
 103:/home/rdu/Workspace/project_templates/mcu/stm32_ws/src/libraries/FreeRTOS/Source/portable/GCC/ARM_CM4F/portmacro.h **** #define portENTER_CRITICAL()					vPortEnterCritical()
 104:/home/rdu/Workspace/project_templates/mcu/stm32_ws/src/libraries/FreeRTOS/Source/portable/GCC/ARM_CM4F/portmacro.h **** #define portEXIT_CRITICAL()						vPortExitCritical()
 105:/home/rdu/Workspace/project_templates/mcu/stm32_ws/src/libraries/FreeRTOS/Source/portable/GCC/ARM_CM4F/portmacro.h **** 
 106:/home/rdu/Workspace/project_templates/mcu/stm32_ws/src/libraries/FreeRTOS/Source/portable/GCC/ARM_CM4F/portmacro.h **** /*-----------------------------------------------------------*/
 107:/home/rdu/Workspace/project_templates/mcu/stm32_ws/src/libraries/FreeRTOS/Source/portable/GCC/ARM_CM4F/portmacro.h **** 
 108:/home/rdu/Workspace/project_templates/mcu/stm32_ws/src/libraries/FreeRTOS/Source/portable/GCC/ARM_CM4F/portmacro.h **** /* Task function macros as described on the FreeRTOS.org WEB site.  These are
 109:/home/rdu/Workspace/project_templates/mcu/stm32_ws/src/libraries/FreeRTOS/Source/portable/GCC/ARM_CM4F/portmacro.h **** not necessary for to use this port.  They are defined so the common demo files
 110:/home/rdu/Workspace/project_templates/mcu/stm32_ws/src/libraries/FreeRTOS/Source/portable/GCC/ARM_CM4F/portmacro.h **** (which build with all the ports) will build. */
 111:/home/rdu/Workspace/project_templates/mcu/stm32_ws/src/libraries/FreeRTOS/Source/portable/GCC/ARM_CM4F/portmacro.h **** #define portTASK_FUNCTION_PROTO( vFunction, pvParameters ) void vFunction( void *pvParameters )
 112:/home/rdu/Workspace/project_templates/mcu/stm32_ws/src/libraries/FreeRTOS/Source/portable/GCC/ARM_CM4F/portmacro.h **** #define portTASK_FUNCTION( vFunction, pvParameters ) void vFunction( void *pvParameters )
 113:/home/rdu/Workspace/project_templates/mcu/stm32_ws/src/libraries/FreeRTOS/Source/portable/GCC/ARM_CM4F/portmacro.h **** /*-----------------------------------------------------------*/
 114:/home/rdu/Workspace/project_templates/mcu/stm32_ws/src/libraries/FreeRTOS/Source/portable/GCC/ARM_CM4F/portmacro.h **** 
 115:/home/rdu/Workspace/project_templates/mcu/stm32_ws/src/libraries/FreeRTOS/Source/portable/GCC/ARM_CM4F/portmacro.h **** /* Tickless idle/low power functionality. */
 116:/home/rdu/Workspace/project_templates/mcu/stm32_ws/src/libraries/FreeRTOS/Source/portable/GCC/ARM_CM4F/portmacro.h **** #ifndef portSUPPRESS_TICKS_AND_SLEEP
 117:/home/rdu/Workspace/project_templates/mcu/stm32_ws/src/libraries/FreeRTOS/Source/portable/GCC/ARM_CM4F/portmacro.h **** 	extern void vPortSuppressTicksAndSleep( TickType_t xExpectedIdleTime );
 118:/home/rdu/Workspace/project_templates/mcu/stm32_ws/src/libraries/FreeRTOS/Source/portable/GCC/ARM_CM4F/portmacro.h **** 	#define portSUPPRESS_TICKS_AND_SLEEP( xExpectedIdleTime ) vPortSuppressTicksAndSleep( xExpectedIdl
 119:/home/rdu/Workspace/project_templates/mcu/stm32_ws/src/libraries/FreeRTOS/Source/portable/GCC/ARM_CM4F/portmacro.h **** #endif
 120:/home/rdu/Workspace/project_templates/mcu/stm32_ws/src/libraries/FreeRTOS/Source/portable/GCC/ARM_CM4F/portmacro.h **** /*-----------------------------------------------------------*/
 121:/home/rdu/Workspace/project_templates/mcu/stm32_ws/src/libraries/FreeRTOS/Source/portable/GCC/ARM_CM4F/portmacro.h **** 
 122:/home/rdu/Workspace/project_templates/mcu/stm32_ws/src/libraries/FreeRTOS/Source/portable/GCC/ARM_CM4F/portmacro.h **** /* Architecture specific optimisations. */
 123:/home/rdu/Workspace/project_templates/mcu/stm32_ws/src/libraries/FreeRTOS/Source/portable/GCC/ARM_CM4F/portmacro.h **** #ifndef configUSE_PORT_OPTIMISED_TASK_SELECTION
 124:/home/rdu/Workspace/project_templates/mcu/stm32_ws/src/libraries/FreeRTOS/Source/portable/GCC/ARM_CM4F/portmacro.h **** 	#define configUSE_PORT_OPTIMISED_TASK_SELECTION 1
 125:/home/rdu/Workspace/project_templates/mcu/stm32_ws/src/libraries/FreeRTOS/Source/portable/GCC/ARM_CM4F/portmacro.h **** #endif
 126:/home/rdu/Workspace/project_templates/mcu/stm32_ws/src/libraries/FreeRTOS/Source/portable/GCC/ARM_CM4F/portmacro.h **** 
 127:/home/rdu/Workspace/project_templates/mcu/stm32_ws/src/libraries/FreeRTOS/Source/portable/GCC/ARM_CM4F/portmacro.h **** #if configUSE_PORT_OPTIMISED_TASK_SELECTION == 1
 128:/home/rdu/Workspace/project_templates/mcu/stm32_ws/src/libraries/FreeRTOS/Source/portable/GCC/ARM_CM4F/portmacro.h **** 
 129:/home/rdu/Workspace/project_templates/mcu/stm32_ws/src/libraries/FreeRTOS/Source/portable/GCC/ARM_CM4F/portmacro.h **** 	/* Generic helper function. */
 130:/home/rdu/Workspace/project_templates/mcu/stm32_ws/src/libraries/FreeRTOS/Source/portable/GCC/ARM_CM4F/portmacro.h **** 	__attribute__( ( always_inline ) ) static inline uint8_t ucPortCountLeadingZeros( uint32_t ulBitma
 131:/home/rdu/Workspace/project_templates/mcu/stm32_ws/src/libraries/FreeRTOS/Source/portable/GCC/ARM_CM4F/portmacro.h **** 	{
 132:/home/rdu/Workspace/project_templates/mcu/stm32_ws/src/libraries/FreeRTOS/Source/portable/GCC/ARM_CM4F/portmacro.h **** 	uint8_t ucReturn;
 133:/home/rdu/Workspace/project_templates/mcu/stm32_ws/src/libraries/FreeRTOS/Source/portable/GCC/ARM_CM4F/portmacro.h **** 
 134:/home/rdu/Workspace/project_templates/mcu/stm32_ws/src/libraries/FreeRTOS/Source/portable/GCC/ARM_CM4F/portmacro.h **** 		__asm volatile ( "clz %0, %1" : "=r" ( ucReturn ) : "r" ( ulBitmap ) : "memory" );
 135:/home/rdu/Workspace/project_templates/mcu/stm32_ws/src/libraries/FreeRTOS/Source/portable/GCC/ARM_CM4F/portmacro.h **** 		return ucReturn;
 136:/home/rdu/Workspace/project_templates/mcu/stm32_ws/src/libraries/FreeRTOS/Source/portable/GCC/ARM_CM4F/portmacro.h **** 	}
 137:/home/rdu/Workspace/project_templates/mcu/stm32_ws/src/libraries/FreeRTOS/Source/portable/GCC/ARM_CM4F/portmacro.h **** 
 138:/home/rdu/Workspace/project_templates/mcu/stm32_ws/src/libraries/FreeRTOS/Source/portable/GCC/ARM_CM4F/portmacro.h **** 	/* Check the configuration. */
 139:/home/rdu/Workspace/project_templates/mcu/stm32_ws/src/libraries/FreeRTOS/Source/portable/GCC/ARM_CM4F/portmacro.h **** 	#if( configMAX_PRIORITIES > 32 )
 140:/home/rdu/Workspace/project_templates/mcu/stm32_ws/src/libraries/FreeRTOS/Source/portable/GCC/ARM_CM4F/portmacro.h **** 		#error configUSE_PORT_OPTIMISED_TASK_SELECTION can only be set to 1 when configMAX_PRIORITIES is 
 141:/home/rdu/Workspace/project_templates/mcu/stm32_ws/src/libraries/FreeRTOS/Source/portable/GCC/ARM_CM4F/portmacro.h **** 	#endif
 142:/home/rdu/Workspace/project_templates/mcu/stm32_ws/src/libraries/FreeRTOS/Source/portable/GCC/ARM_CM4F/portmacro.h **** 
 143:/home/rdu/Workspace/project_templates/mcu/stm32_ws/src/libraries/FreeRTOS/Source/portable/GCC/ARM_CM4F/portmacro.h **** 	/* Store/clear the ready priorities in a bit map. */
 144:/home/rdu/Workspace/project_templates/mcu/stm32_ws/src/libraries/FreeRTOS/Source/portable/GCC/ARM_CM4F/portmacro.h **** 	#define portRECORD_READY_PRIORITY( uxPriority, uxReadyPriorities ) ( uxReadyPriorities ) |= ( 1UL 
 145:/home/rdu/Workspace/project_templates/mcu/stm32_ws/src/libraries/FreeRTOS/Source/portable/GCC/ARM_CM4F/portmacro.h **** 	#define portRESET_READY_PRIORITY( uxPriority, uxReadyPriorities ) ( uxReadyPriorities ) &= ~( 1UL 
 146:/home/rdu/Workspace/project_templates/mcu/stm32_ws/src/libraries/FreeRTOS/Source/portable/GCC/ARM_CM4F/portmacro.h **** 
 147:/home/rdu/Workspace/project_templates/mcu/stm32_ws/src/libraries/FreeRTOS/Source/portable/GCC/ARM_CM4F/portmacro.h **** 	/*-----------------------------------------------------------*/
 148:/home/rdu/Workspace/project_templates/mcu/stm32_ws/src/libraries/FreeRTOS/Source/portable/GCC/ARM_CM4F/portmacro.h **** 
 149:/home/rdu/Workspace/project_templates/mcu/stm32_ws/src/libraries/FreeRTOS/Source/portable/GCC/ARM_CM4F/portmacro.h **** 	#define portGET_HIGHEST_PRIORITY( uxTopPriority, uxReadyPriorities ) uxTopPriority = ( 31UL - ( ui
 150:/home/rdu/Workspace/project_templates/mcu/stm32_ws/src/libraries/FreeRTOS/Source/portable/GCC/ARM_CM4F/portmacro.h **** 
 151:/home/rdu/Workspace/project_templates/mcu/stm32_ws/src/libraries/FreeRTOS/Source/portable/GCC/ARM_CM4F/portmacro.h **** #endif /* configUSE_PORT_OPTIMISED_TASK_SELECTION */
 152:/home/rdu/Workspace/project_templates/mcu/stm32_ws/src/libraries/FreeRTOS/Source/portable/GCC/ARM_CM4F/portmacro.h **** 
 153:/home/rdu/Workspace/project_templates/mcu/stm32_ws/src/libraries/FreeRTOS/Source/portable/GCC/ARM_CM4F/portmacro.h **** /*-----------------------------------------------------------*/
 154:/home/rdu/Workspace/project_templates/mcu/stm32_ws/src/libraries/FreeRTOS/Source/portable/GCC/ARM_CM4F/portmacro.h **** 
 155:/home/rdu/Workspace/project_templates/mcu/stm32_ws/src/libraries/FreeRTOS/Source/portable/GCC/ARM_CM4F/portmacro.h **** #ifdef configASSERT
 156:/home/rdu/Workspace/project_templates/mcu/stm32_ws/src/libraries/FreeRTOS/Source/portable/GCC/ARM_CM4F/portmacro.h **** 	void vPortValidateInterruptPriority( void );
 157:/home/rdu/Workspace/project_templates/mcu/stm32_ws/src/libraries/FreeRTOS/Source/portable/GCC/ARM_CM4F/portmacro.h **** 	#define portASSERT_IF_INTERRUPT_PRIORITY_INVALID() 	vPortValidateInterruptPriority()
 158:/home/rdu/Workspace/project_templates/mcu/stm32_ws/src/libraries/FreeRTOS/Source/portable/GCC/ARM_CM4F/portmacro.h **** #endif
 159:/home/rdu/Workspace/project_templates/mcu/stm32_ws/src/libraries/FreeRTOS/Source/portable/GCC/ARM_CM4F/portmacro.h **** 
 160:/home/rdu/Workspace/project_templates/mcu/stm32_ws/src/libraries/FreeRTOS/Source/portable/GCC/ARM_CM4F/portmacro.h **** /* portNOP() is not required by this port. */
 161:/home/rdu/Workspace/project_templates/mcu/stm32_ws/src/libraries/FreeRTOS/Source/portable/GCC/ARM_CM4F/portmacro.h **** #define portNOP()
 162:/home/rdu/Workspace/project_templates/mcu/stm32_ws/src/libraries/FreeRTOS/Source/portable/GCC/ARM_CM4F/portmacro.h **** 
 163:/home/rdu/Workspace/project_templates/mcu/stm32_ws/src/libraries/FreeRTOS/Source/portable/GCC/ARM_CM4F/portmacro.h **** #define portINLINE	__inline
 164:/home/rdu/Workspace/project_templates/mcu/stm32_ws/src/libraries/FreeRTOS/Source/portable/GCC/ARM_CM4F/portmacro.h **** 
 165:/home/rdu/Workspace/project_templates/mcu/stm32_ws/src/libraries/FreeRTOS/Source/portable/GCC/ARM_CM4F/portmacro.h **** #ifndef portFORCE_INLINE
 166:/home/rdu/Workspace/project_templates/mcu/stm32_ws/src/libraries/FreeRTOS/Source/portable/GCC/ARM_CM4F/portmacro.h **** 	#define portFORCE_INLINE inline __attribute__(( always_inline))
 167:/home/rdu/Workspace/project_templates/mcu/stm32_ws/src/libraries/FreeRTOS/Source/portable/GCC/ARM_CM4F/portmacro.h **** #endif
 168:/home/rdu/Workspace/project_templates/mcu/stm32_ws/src/libraries/FreeRTOS/Source/portable/GCC/ARM_CM4F/portmacro.h **** 
 169:/home/rdu/Workspace/project_templates/mcu/stm32_ws/src/libraries/FreeRTOS/Source/portable/GCC/ARM_CM4F/portmacro.h **** portFORCE_INLINE static BaseType_t xPortIsInsideInterrupt( void )
 170:/home/rdu/Workspace/project_templates/mcu/stm32_ws/src/libraries/FreeRTOS/Source/portable/GCC/ARM_CM4F/portmacro.h **** {
 171:/home/rdu/Workspace/project_templates/mcu/stm32_ws/src/libraries/FreeRTOS/Source/portable/GCC/ARM_CM4F/portmacro.h **** uint32_t ulCurrentInterrupt;
 172:/home/rdu/Workspace/project_templates/mcu/stm32_ws/src/libraries/FreeRTOS/Source/portable/GCC/ARM_CM4F/portmacro.h **** BaseType_t xReturn;
 173:/home/rdu/Workspace/project_templates/mcu/stm32_ws/src/libraries/FreeRTOS/Source/portable/GCC/ARM_CM4F/portmacro.h **** 
 174:/home/rdu/Workspace/project_templates/mcu/stm32_ws/src/libraries/FreeRTOS/Source/portable/GCC/ARM_CM4F/portmacro.h **** 	/* Obtain the number of the currently executing interrupt. */
 175:/home/rdu/Workspace/project_templates/mcu/stm32_ws/src/libraries/FreeRTOS/Source/portable/GCC/ARM_CM4F/portmacro.h **** 	__asm volatile( "mrs %0, ipsr" : "=r"( ulCurrentInterrupt ) :: "memory" );
 176:/home/rdu/Workspace/project_templates/mcu/stm32_ws/src/libraries/FreeRTOS/Source/portable/GCC/ARM_CM4F/portmacro.h **** 
 177:/home/rdu/Workspace/project_templates/mcu/stm32_ws/src/libraries/FreeRTOS/Source/portable/GCC/ARM_CM4F/portmacro.h **** 	if( ulCurrentInterrupt == 0 )
 178:/home/rdu/Workspace/project_templates/mcu/stm32_ws/src/libraries/FreeRTOS/Source/portable/GCC/ARM_CM4F/portmacro.h **** 	{
 179:/home/rdu/Workspace/project_templates/mcu/stm32_ws/src/libraries/FreeRTOS/Source/portable/GCC/ARM_CM4F/portmacro.h **** 		xReturn = pdFALSE;
 180:/home/rdu/Workspace/project_templates/mcu/stm32_ws/src/libraries/FreeRTOS/Source/portable/GCC/ARM_CM4F/portmacro.h **** 	}
 181:/home/rdu/Workspace/project_templates/mcu/stm32_ws/src/libraries/FreeRTOS/Source/portable/GCC/ARM_CM4F/portmacro.h **** 	else
 182:/home/rdu/Workspace/project_templates/mcu/stm32_ws/src/libraries/FreeRTOS/Source/portable/GCC/ARM_CM4F/portmacro.h **** 	{
 183:/home/rdu/Workspace/project_templates/mcu/stm32_ws/src/libraries/FreeRTOS/Source/portable/GCC/ARM_CM4F/portmacro.h **** 		xReturn = pdTRUE;
 184:/home/rdu/Workspace/project_templates/mcu/stm32_ws/src/libraries/FreeRTOS/Source/portable/GCC/ARM_CM4F/portmacro.h **** 	}
 185:/home/rdu/Workspace/project_templates/mcu/stm32_ws/src/libraries/FreeRTOS/Source/portable/GCC/ARM_CM4F/portmacro.h **** 
 186:/home/rdu/Workspace/project_templates/mcu/stm32_ws/src/libraries/FreeRTOS/Source/portable/GCC/ARM_CM4F/portmacro.h **** 	return xReturn;
 187:/home/rdu/Workspace/project_templates/mcu/stm32_ws/src/libraries/FreeRTOS/Source/portable/GCC/ARM_CM4F/portmacro.h **** }
 188:/home/rdu/Workspace/project_templates/mcu/stm32_ws/src/libraries/FreeRTOS/Source/portable/GCC/ARM_CM4F/portmacro.h **** 
 189:/home/rdu/Workspace/project_templates/mcu/stm32_ws/src/libraries/FreeRTOS/Source/portable/GCC/ARM_CM4F/portmacro.h **** /*-----------------------------------------------------------*/
 190:/home/rdu/Workspace/project_templates/mcu/stm32_ws/src/libraries/FreeRTOS/Source/portable/GCC/ARM_CM4F/portmacro.h **** 
 191:/home/rdu/Workspace/project_templates/mcu/stm32_ws/src/libraries/FreeRTOS/Source/portable/GCC/ARM_CM4F/portmacro.h **** portFORCE_INLINE static void vPortRaiseBASEPRI( void )
 192:/home/rdu/Workspace/project_templates/mcu/stm32_ws/src/libraries/FreeRTOS/Source/portable/GCC/ARM_CM4F/portmacro.h **** {
 193:/home/rdu/Workspace/project_templates/mcu/stm32_ws/src/libraries/FreeRTOS/Source/portable/GCC/ARM_CM4F/portmacro.h **** uint32_t ulNewBASEPRI;
 194:/home/rdu/Workspace/project_templates/mcu/stm32_ws/src/libraries/FreeRTOS/Source/portable/GCC/ARM_CM4F/portmacro.h **** 
 195:/home/rdu/Workspace/project_templates/mcu/stm32_ws/src/libraries/FreeRTOS/Source/portable/GCC/ARM_CM4F/portmacro.h **** 	__asm volatile
 149              		.loc 2 195 0 discriminator 1
 150              		.syntax unified
 151              	@ 195 "/home/rdu/Workspace/project_templates/mcu/stm32_ws/src/libraries/FreeRTOS/Source/portable/GC
 152 0010 4FF05003 			mov r3, #80												
 153 0014 83F31188 		msr basepri, r3											
 154 0018 BFF36F8F 		isb														
 155 001c BFF34F8F 		dsb														
 156              	
 157              	@ 0 "" 2
 158              		.thumb
 159              		.syntax unified
 160 0020 0393     		str	r3, [sp, #12]
 161              	.L7:
 162              	.LBE32:
 163              	.LBE31:
 164              		.loc 1 227 0 discriminator 1
 165 0022 FEE7     		b	.L7
 166              	.L6:
 167              	.LBB33:
 168              	.LBB34:
 169              		.loc 2 195 0
 170              		.syntax unified
 171              	@ 195 "/home/rdu/Workspace/project_templates/mcu/stm32_ws/src/libraries/FreeRTOS/Source/portable/GC
 172 0024 4FF05003 			mov r3, #80												
 173 0028 83F31188 		msr basepri, r3											
 174 002c BFF36F8F 		isb														
 175 0030 BFF34F8F 		dsb														
 176              	
 177              	@ 0 "" 2
 178              		.thumb
 179              		.syntax unified
 180 0034 0293     		str	r3, [sp, #8]
 181              	.LBE34:
 182              	.LBE33:
 228:/home/rdu/Workspace/project_templates/mcu/stm32_ws/src/libraries/FreeRTOS/Source/portable/GCC/ARM_CM4F/port.c **** 	portDISABLE_INTERRUPTS();
 229:/home/rdu/Workspace/project_templates/mcu/stm32_ws/src/libraries/FreeRTOS/Source/portable/GCC/ARM_CM4F/port.c **** 	while( ulDummy == 0 )
 183              		.loc 1 229 0
 184 0036 00BF     		nop
 185              	.L8:
 186              		.loc 1 229 0 is_stmt 0 discriminator 1
 187 0038 019B     		ldr	r3, [sp, #4]
 188 003a 002B     		cmp	r3, #0
 189 003c FCD0     		beq	.L8
 230:/home/rdu/Workspace/project_templates/mcu/stm32_ws/src/libraries/FreeRTOS/Source/portable/GCC/ARM_CM4F/port.c **** 	{
 231:/home/rdu/Workspace/project_templates/mcu/stm32_ws/src/libraries/FreeRTOS/Source/portable/GCC/ARM_CM4F/port.c **** 		/* This file calls prvTaskExitError() after the scheduler has been
 232:/home/rdu/Workspace/project_templates/mcu/stm32_ws/src/libraries/FreeRTOS/Source/portable/GCC/ARM_CM4F/port.c **** 		started to remove a compiler warning about the function being defined
 233:/home/rdu/Workspace/project_templates/mcu/stm32_ws/src/libraries/FreeRTOS/Source/portable/GCC/ARM_CM4F/port.c **** 		but never called.  ulDummy is used purely to quieten other warnings
 234:/home/rdu/Workspace/project_templates/mcu/stm32_ws/src/libraries/FreeRTOS/Source/portable/GCC/ARM_CM4F/port.c **** 		about code appearing after this function is called - making ulDummy
 235:/home/rdu/Workspace/project_templates/mcu/stm32_ws/src/libraries/FreeRTOS/Source/portable/GCC/ARM_CM4F/port.c **** 		volatile makes the compiler think the function could return and
 236:/home/rdu/Workspace/project_templates/mcu/stm32_ws/src/libraries/FreeRTOS/Source/portable/GCC/ARM_CM4F/port.c **** 		therefore not output an 'unreachable code' warning for code that appears
 237:/home/rdu/Workspace/project_templates/mcu/stm32_ws/src/libraries/FreeRTOS/Source/portable/GCC/ARM_CM4F/port.c **** 		after it. */
 238:/home/rdu/Workspace/project_templates/mcu/stm32_ws/src/libraries/FreeRTOS/Source/portable/GCC/ARM_CM4F/port.c **** 	}
 239:/home/rdu/Workspace/project_templates/mcu/stm32_ws/src/libraries/FreeRTOS/Source/portable/GCC/ARM_CM4F/port.c **** }
 190              		.loc 1 239 0 is_stmt 1
 191 003e 00BF     		nop
 192 0040 04B0     		add	sp, sp, #16
 193              	.LCFI3:
 194              		.cfi_def_cfa_offset 0
 195              		@ sp needed
 196 0042 7047     		bx	lr
 197              	.L10:
 198              		.align	2
 199              	.L9:
 200 0044 00000000 		.word	uxCriticalNesting
 201              		.cfi_endproc
 202              	.LFE6:
 204              		.section	.text.SVC_Handler,"ax",%progbits
 205              		.align	1
 206              		.global	SVC_Handler
 207              		.syntax unified
 208              		.thumb
 209              		.thumb_func
 210              		.fpu fpv4-sp-d16
 212              	SVC_Handler:
 213              	.LFB7:
 240:/home/rdu/Workspace/project_templates/mcu/stm32_ws/src/libraries/FreeRTOS/Source/portable/GCC/ARM_CM4F/port.c **** /*-----------------------------------------------------------*/
 241:/home/rdu/Workspace/project_templates/mcu/stm32_ws/src/libraries/FreeRTOS/Source/portable/GCC/ARM_CM4F/port.c **** 
 242:/home/rdu/Workspace/project_templates/mcu/stm32_ws/src/libraries/FreeRTOS/Source/portable/GCC/ARM_CM4F/port.c **** void vPortSVCHandler( void )
 243:/home/rdu/Workspace/project_templates/mcu/stm32_ws/src/libraries/FreeRTOS/Source/portable/GCC/ARM_CM4F/port.c **** {
 214              		.loc 1 243 0
 215              		.cfi_startproc
 216              		@ Naked Function: prologue and epilogue provided by programmer.
 217              		@ args = 0, pretend = 0, frame = 0
 218              		@ frame_needed = 0, uses_anonymous_args = 0
 244:/home/rdu/Workspace/project_templates/mcu/stm32_ws/src/libraries/FreeRTOS/Source/portable/GCC/ARM_CM4F/port.c **** 	__asm volatile (
 219              		.loc 1 244 0
 220              		.syntax unified
 221              	@ 244 "/home/rdu/Workspace/project_templates/mcu/stm32_ws/src/libraries/FreeRTOS/Source/portable/GC
 222 0000 074B     			ldr	r3, pxCurrentTCBConst2		
 223 0002 1968     		ldr r1, [r3]					
 224 0004 0868     		ldr r0, [r1]					
 225 0006 B0E8F04F 		ldmia r0!, {r4-r11, r14}		
 226 000a 80F30988 		msr psp, r0						
 227 000e BFF36F8F 		isb								
 228 0012 4FF00000 		mov r0, #0 						
 229 0016 80F31188 		msr	basepri, r0					
 230 001a 7047     		bx r14							
 231              										
 232 001c AFF30080 		.align 4						
 233 0020 00000000 	pxCurrentTCBConst2: .word pxCurrentTCB				
 234              	
 235              	@ 0 "" 2
 245:/home/rdu/Workspace/project_templates/mcu/stm32_ws/src/libraries/FreeRTOS/Source/portable/GCC/ARM_CM4F/port.c **** 					"	ldr	r3, pxCurrentTCBConst2		\n" /* Restore the context. */
 246:/home/rdu/Workspace/project_templates/mcu/stm32_ws/src/libraries/FreeRTOS/Source/portable/GCC/ARM_CM4F/port.c **** 					"	ldr r1, [r3]					\n" /* Use pxCurrentTCBConst to get the pxCurrentTCB address. */
 247:/home/rdu/Workspace/project_templates/mcu/stm32_ws/src/libraries/FreeRTOS/Source/portable/GCC/ARM_CM4F/port.c **** 					"	ldr r0, [r1]					\n" /* The first item in pxCurrentTCB is the task top of stack. */
 248:/home/rdu/Workspace/project_templates/mcu/stm32_ws/src/libraries/FreeRTOS/Source/portable/GCC/ARM_CM4F/port.c **** 					"	ldmia r0!, {r4-r11, r14}		\n" /* Pop the registers that are not automatically saved on excep
 249:/home/rdu/Workspace/project_templates/mcu/stm32_ws/src/libraries/FreeRTOS/Source/portable/GCC/ARM_CM4F/port.c **** 					"	msr psp, r0						\n" /* Restore the task stack pointer. */
 250:/home/rdu/Workspace/project_templates/mcu/stm32_ws/src/libraries/FreeRTOS/Source/portable/GCC/ARM_CM4F/port.c **** 					"	isb								\n"
 251:/home/rdu/Workspace/project_templates/mcu/stm32_ws/src/libraries/FreeRTOS/Source/portable/GCC/ARM_CM4F/port.c **** 					"	mov r0, #0 						\n"
 252:/home/rdu/Workspace/project_templates/mcu/stm32_ws/src/libraries/FreeRTOS/Source/portable/GCC/ARM_CM4F/port.c **** 					"	msr	basepri, r0					\n"
 253:/home/rdu/Workspace/project_templates/mcu/stm32_ws/src/libraries/FreeRTOS/Source/portable/GCC/ARM_CM4F/port.c **** 					"	bx r14							\n"
 254:/home/rdu/Workspace/project_templates/mcu/stm32_ws/src/libraries/FreeRTOS/Source/portable/GCC/ARM_CM4F/port.c **** 					"									\n"
 255:/home/rdu/Workspace/project_templates/mcu/stm32_ws/src/libraries/FreeRTOS/Source/portable/GCC/ARM_CM4F/port.c **** 					"	.align 4						\n"
 256:/home/rdu/Workspace/project_templates/mcu/stm32_ws/src/libraries/FreeRTOS/Source/portable/GCC/ARM_CM4F/port.c **** 					"pxCurrentTCBConst2: .word pxCurrentTCB				\n"
 257:/home/rdu/Workspace/project_templates/mcu/stm32_ws/src/libraries/FreeRTOS/Source/portable/GCC/ARM_CM4F/port.c **** 				);
 258:/home/rdu/Workspace/project_templates/mcu/stm32_ws/src/libraries/FreeRTOS/Source/portable/GCC/ARM_CM4F/port.c **** }
 236              		.loc 1 258 0
 237              		.thumb
 238              		.syntax unified
 239 0024 00BF     		nop
 240              		.cfi_endproc
 241              	.LFE7:
 243 0026 00BF     		.section	.text.prvPortStartFirstTask,"ax",%progbits
 244              		.align	1
 245              		.syntax unified
 246              		.thumb
 247              		.thumb_func
 248              		.fpu fpv4-sp-d16
 250              	prvPortStartFirstTask:
 251              	.LFB8:
 259:/home/rdu/Workspace/project_templates/mcu/stm32_ws/src/libraries/FreeRTOS/Source/portable/GCC/ARM_CM4F/port.c **** /*-----------------------------------------------------------*/
 260:/home/rdu/Workspace/project_templates/mcu/stm32_ws/src/libraries/FreeRTOS/Source/portable/GCC/ARM_CM4F/port.c **** 
 261:/home/rdu/Workspace/project_templates/mcu/stm32_ws/src/libraries/FreeRTOS/Source/portable/GCC/ARM_CM4F/port.c **** static void prvPortStartFirstTask( void )
 262:/home/rdu/Workspace/project_templates/mcu/stm32_ws/src/libraries/FreeRTOS/Source/portable/GCC/ARM_CM4F/port.c **** {
 252              		.loc 1 262 0
 253              		.cfi_startproc
 254              		@ Naked Function: prologue and epilogue provided by programmer.
 255              		@ args = 0, pretend = 0, frame = 0
 256              		@ frame_needed = 0, uses_anonymous_args = 0
 263:/home/rdu/Workspace/project_templates/mcu/stm32_ws/src/libraries/FreeRTOS/Source/portable/GCC/ARM_CM4F/port.c **** 	/* Start the first task.  This also clears the bit that indicates the FPU is
 264:/home/rdu/Workspace/project_templates/mcu/stm32_ws/src/libraries/FreeRTOS/Source/portable/GCC/ARM_CM4F/port.c **** 	in use in case the FPU was used before the scheduler was started - which
 265:/home/rdu/Workspace/project_templates/mcu/stm32_ws/src/libraries/FreeRTOS/Source/portable/GCC/ARM_CM4F/port.c **** 	would otherwise result in the unnecessary leaving of space in the SVC stack
 266:/home/rdu/Workspace/project_templates/mcu/stm32_ws/src/libraries/FreeRTOS/Source/portable/GCC/ARM_CM4F/port.c **** 	for lazy saving of FPU registers. */
 267:/home/rdu/Workspace/project_templates/mcu/stm32_ws/src/libraries/FreeRTOS/Source/portable/GCC/ARM_CM4F/port.c **** 	__asm volatile(
 257              		.loc 1 267 0
 258              		.syntax unified
 259              	@ 267 "/home/rdu/Workspace/project_templates/mcu/stm32_ws/src/libraries/FreeRTOS/Source/portable/GC
 260 0000 0848     		 ldr r0, =0xE000ED08 	
 261 0002 0068     	 ldr r0, [r0] 			
 262 0004 0068     	 ldr r0, [r0] 			
 263 0006 80F30888 	 msr msp, r0			
 264 000a 4FF00000 	 mov r0, #0			
 265 000e 80F31488 	 msr control, r0		
 266 0012 62B6     	 cpsie i				
 267 0014 61B6     	 cpsie f				
 268 0016 BFF34F8F 	 dsb					
 269 001a BFF36F8F 	 isb					
 270 001e 00DF     	 svc 0					
 271 0020 00BF     	 nop					
 272              	
 273              	@ 0 "" 2
 268:/home/rdu/Workspace/project_templates/mcu/stm32_ws/src/libraries/FreeRTOS/Source/portable/GCC/ARM_CM4F/port.c **** 					" ldr r0, =0xE000ED08 	\n" /* Use the NVIC offset register to locate the stack. */
 269:/home/rdu/Workspace/project_templates/mcu/stm32_ws/src/libraries/FreeRTOS/Source/portable/GCC/ARM_CM4F/port.c **** 					" ldr r0, [r0] 			\n"
 270:/home/rdu/Workspace/project_templates/mcu/stm32_ws/src/libraries/FreeRTOS/Source/portable/GCC/ARM_CM4F/port.c **** 					" ldr r0, [r0] 			\n"
 271:/home/rdu/Workspace/project_templates/mcu/stm32_ws/src/libraries/FreeRTOS/Source/portable/GCC/ARM_CM4F/port.c **** 					" msr msp, r0			\n" /* Set the msp back to the start of the stack. */
 272:/home/rdu/Workspace/project_templates/mcu/stm32_ws/src/libraries/FreeRTOS/Source/portable/GCC/ARM_CM4F/port.c **** 					" mov r0, #0			\n" /* Clear the bit that indicates the FPU is in use, see comment above. */
 273:/home/rdu/Workspace/project_templates/mcu/stm32_ws/src/libraries/FreeRTOS/Source/portable/GCC/ARM_CM4F/port.c **** 					" msr control, r0		\n"
 274:/home/rdu/Workspace/project_templates/mcu/stm32_ws/src/libraries/FreeRTOS/Source/portable/GCC/ARM_CM4F/port.c **** 					" cpsie i				\n" /* Globally enable interrupts. */
 275:/home/rdu/Workspace/project_templates/mcu/stm32_ws/src/libraries/FreeRTOS/Source/portable/GCC/ARM_CM4F/port.c **** 					" cpsie f				\n"
 276:/home/rdu/Workspace/project_templates/mcu/stm32_ws/src/libraries/FreeRTOS/Source/portable/GCC/ARM_CM4F/port.c **** 					" dsb					\n"
 277:/home/rdu/Workspace/project_templates/mcu/stm32_ws/src/libraries/FreeRTOS/Source/portable/GCC/ARM_CM4F/port.c **** 					" isb					\n"
 278:/home/rdu/Workspace/project_templates/mcu/stm32_ws/src/libraries/FreeRTOS/Source/portable/GCC/ARM_CM4F/port.c **** 					" svc 0					\n" /* System call to start first task. */
 279:/home/rdu/Workspace/project_templates/mcu/stm32_ws/src/libraries/FreeRTOS/Source/portable/GCC/ARM_CM4F/port.c **** 					" nop					\n"
 280:/home/rdu/Workspace/project_templates/mcu/stm32_ws/src/libraries/FreeRTOS/Source/portable/GCC/ARM_CM4F/port.c **** 				);
 281:/home/rdu/Workspace/project_templates/mcu/stm32_ws/src/libraries/FreeRTOS/Source/portable/GCC/ARM_CM4F/port.c **** }
 274              		.loc 1 281 0
 275              		.thumb
 276              		.syntax unified
 277 0022 00BF     		nop
 278              		.cfi_endproc
 279              	.LFE8:
 281              		.section	.text.xPortStartScheduler,"ax",%progbits
 282              		.align	1
 283              		.global	xPortStartScheduler
 284              		.syntax unified
 285              		.thumb
 286              		.thumb_func
 287              		.fpu fpv4-sp-d16
 289              	xPortStartScheduler:
 290              	.LFB9:
 282:/home/rdu/Workspace/project_templates/mcu/stm32_ws/src/libraries/FreeRTOS/Source/portable/GCC/ARM_CM4F/port.c **** /*-----------------------------------------------------------*/
 283:/home/rdu/Workspace/project_templates/mcu/stm32_ws/src/libraries/FreeRTOS/Source/portable/GCC/ARM_CM4F/port.c **** 
 284:/home/rdu/Workspace/project_templates/mcu/stm32_ws/src/libraries/FreeRTOS/Source/portable/GCC/ARM_CM4F/port.c **** /*
 285:/home/rdu/Workspace/project_templates/mcu/stm32_ws/src/libraries/FreeRTOS/Source/portable/GCC/ARM_CM4F/port.c ****  * See header file for description.
 286:/home/rdu/Workspace/project_templates/mcu/stm32_ws/src/libraries/FreeRTOS/Source/portable/GCC/ARM_CM4F/port.c ****  */
 287:/home/rdu/Workspace/project_templates/mcu/stm32_ws/src/libraries/FreeRTOS/Source/portable/GCC/ARM_CM4F/port.c **** BaseType_t xPortStartScheduler( void )
 288:/home/rdu/Workspace/project_templates/mcu/stm32_ws/src/libraries/FreeRTOS/Source/portable/GCC/ARM_CM4F/port.c **** {
 291              		.loc 1 288 0
 292              		.cfi_startproc
 293              		@ args = 0, pretend = 0, frame = 24
 294              		@ frame_needed = 0, uses_anonymous_args = 0
 295 0000 00B5     		push	{lr}
 296              	.LCFI4:
 297              		.cfi_def_cfa_offset 4
 298              		.cfi_offset 14, -4
 299 0002 87B0     		sub	sp, sp, #28
 300              	.LCFI5:
 301              		.cfi_def_cfa_offset 32
 289:/home/rdu/Workspace/project_templates/mcu/stm32_ws/src/libraries/FreeRTOS/Source/portable/GCC/ARM_CM4F/port.c **** 	/* configMAX_SYSCALL_INTERRUPT_PRIORITY must not be set to 0.
 290:/home/rdu/Workspace/project_templates/mcu/stm32_ws/src/libraries/FreeRTOS/Source/portable/GCC/ARM_CM4F/port.c **** 	See http://www.FreeRTOS.org/RTOS-Cortex-M3-M4.html */
 291:/home/rdu/Workspace/project_templates/mcu/stm32_ws/src/libraries/FreeRTOS/Source/portable/GCC/ARM_CM4F/port.c **** 	configASSERT( configMAX_SYSCALL_INTERRUPT_PRIORITY );
 292:/home/rdu/Workspace/project_templates/mcu/stm32_ws/src/libraries/FreeRTOS/Source/portable/GCC/ARM_CM4F/port.c **** 
 293:/home/rdu/Workspace/project_templates/mcu/stm32_ws/src/libraries/FreeRTOS/Source/portable/GCC/ARM_CM4F/port.c **** 	/* This port can be used on all revisions of the Cortex-M7 core other than
 294:/home/rdu/Workspace/project_templates/mcu/stm32_ws/src/libraries/FreeRTOS/Source/portable/GCC/ARM_CM4F/port.c **** 	the r0p1 parts.  r0p1 parts should use the port from the
 295:/home/rdu/Workspace/project_templates/mcu/stm32_ws/src/libraries/FreeRTOS/Source/portable/GCC/ARM_CM4F/port.c **** 	/source/portable/GCC/ARM_CM7/r0p1 directory. */
 296:/home/rdu/Workspace/project_templates/mcu/stm32_ws/src/libraries/FreeRTOS/Source/portable/GCC/ARM_CM4F/port.c **** 	configASSERT( portCPUID != portCORTEX_M7_r0p1_ID );
 302              		.loc 1 296 0
 303 0004 464B     		ldr	r3, .L23
 304 0006 1B68     		ldr	r3, [r3]
 305 0008 464A     		ldr	r2, .L23+4
 306 000a 9342     		cmp	r3, r2
 307 000c 09D1     		bne	.L14
 308              	.LBB35:
 309              	.LBB36:
 310              		.loc 2 195 0 discriminator 1
 311              		.syntax unified
 312              	@ 195 "/home/rdu/Workspace/project_templates/mcu/stm32_ws/src/libraries/FreeRTOS/Source/portable/GC
 313 000e 4FF05003 			mov r3, #80												
 314 0012 83F31188 		msr basepri, r3											
 315 0016 BFF36F8F 		isb														
 316 001a BFF34F8F 		dsb														
 317              	
 318              	@ 0 "" 2
 319              		.thumb
 320              		.syntax unified
 321 001e 0493     		str	r3, [sp, #16]
 322              	.L15:
 323              	.LBE36:
 324              	.LBE35:
 325              		.loc 1 296 0 discriminator 2
 326 0020 FEE7     		b	.L15
 327              	.L14:
 297:/home/rdu/Workspace/project_templates/mcu/stm32_ws/src/libraries/FreeRTOS/Source/portable/GCC/ARM_CM4F/port.c **** 	configASSERT( portCPUID != portCORTEX_M7_r0p0_ID );
 328              		.loc 1 297 0
 329 0022 3F4B     		ldr	r3, .L23
 330 0024 1B68     		ldr	r3, [r3]
 331 0026 404A     		ldr	r2, .L23+8
 332 0028 9342     		cmp	r3, r2
 333 002a 09D1     		bne	.L16
 334              	.LBB37:
 335              	.LBB38:
 336              		.loc 2 195 0 discriminator 1
 337              		.syntax unified
 338              	@ 195 "/home/rdu/Workspace/project_templates/mcu/stm32_ws/src/libraries/FreeRTOS/Source/portable/GC
 339 002c 4FF05003 			mov r3, #80												
 340 0030 83F31188 		msr basepri, r3											
 341 0034 BFF36F8F 		isb														
 342 0038 BFF34F8F 		dsb														
 343              	
 344              	@ 0 "" 2
 345              		.thumb
 346              		.syntax unified
 347 003c 0393     		str	r3, [sp, #12]
 348              	.L17:
 349              	.LBE38:
 350              	.LBE37:
 351              		.loc 1 297 0 discriminator 3
 352 003e FEE7     		b	.L17
 353              	.L16:
 354              	.LBB39:
 298:/home/rdu/Workspace/project_templates/mcu/stm32_ws/src/libraries/FreeRTOS/Source/portable/GCC/ARM_CM4F/port.c **** 
 299:/home/rdu/Workspace/project_templates/mcu/stm32_ws/src/libraries/FreeRTOS/Source/portable/GCC/ARM_CM4F/port.c **** 	#if( configASSERT_DEFINED == 1 )
 300:/home/rdu/Workspace/project_templates/mcu/stm32_ws/src/libraries/FreeRTOS/Source/portable/GCC/ARM_CM4F/port.c **** 	{
 301:/home/rdu/Workspace/project_templates/mcu/stm32_ws/src/libraries/FreeRTOS/Source/portable/GCC/ARM_CM4F/port.c **** 		volatile uint32_t ulOriginalPriority;
 302:/home/rdu/Workspace/project_templates/mcu/stm32_ws/src/libraries/FreeRTOS/Source/portable/GCC/ARM_CM4F/port.c **** 		volatile uint8_t * const pucFirstUserPriorityRegister = ( volatile uint8_t * const ) ( portNVIC_I
 355              		.loc 1 302 0
 356 0040 3A4B     		ldr	r3, .L23+12
 357 0042 0593     		str	r3, [sp, #20]
 303:/home/rdu/Workspace/project_templates/mcu/stm32_ws/src/libraries/FreeRTOS/Source/portable/GCC/ARM_CM4F/port.c **** 		volatile uint8_t ucMaxPriorityValue;
 304:/home/rdu/Workspace/project_templates/mcu/stm32_ws/src/libraries/FreeRTOS/Source/portable/GCC/ARM_CM4F/port.c **** 
 305:/home/rdu/Workspace/project_templates/mcu/stm32_ws/src/libraries/FreeRTOS/Source/portable/GCC/ARM_CM4F/port.c **** 		/* Determine the maximum priority from which ISR safe FreeRTOS API
 306:/home/rdu/Workspace/project_templates/mcu/stm32_ws/src/libraries/FreeRTOS/Source/portable/GCC/ARM_CM4F/port.c **** 		functions can be called.  ISR safe functions are those that end in
 307:/home/rdu/Workspace/project_templates/mcu/stm32_ws/src/libraries/FreeRTOS/Source/portable/GCC/ARM_CM4F/port.c **** 		"FromISR".  FreeRTOS maintains separate thread and ISR API functions to
 308:/home/rdu/Workspace/project_templates/mcu/stm32_ws/src/libraries/FreeRTOS/Source/portable/GCC/ARM_CM4F/port.c **** 		ensure interrupt entry is as fast and simple as possible.
 309:/home/rdu/Workspace/project_templates/mcu/stm32_ws/src/libraries/FreeRTOS/Source/portable/GCC/ARM_CM4F/port.c **** 
 310:/home/rdu/Workspace/project_templates/mcu/stm32_ws/src/libraries/FreeRTOS/Source/portable/GCC/ARM_CM4F/port.c **** 		Save the interrupt priority value that is about to be clobbered. */
 311:/home/rdu/Workspace/project_templates/mcu/stm32_ws/src/libraries/FreeRTOS/Source/portable/GCC/ARM_CM4F/port.c **** 		ulOriginalPriority = *pucFirstUserPriorityRegister;
 358              		.loc 1 311 0
 359 0044 059B     		ldr	r3, [sp, #20]
 360 0046 1B78     		ldrb	r3, [r3]
 361 0048 DBB2     		uxtb	r3, r3
 362 004a 0193     		str	r3, [sp, #4]
 312:/home/rdu/Workspace/project_templates/mcu/stm32_ws/src/libraries/FreeRTOS/Source/portable/GCC/ARM_CM4F/port.c **** 
 313:/home/rdu/Workspace/project_templates/mcu/stm32_ws/src/libraries/FreeRTOS/Source/portable/GCC/ARM_CM4F/port.c **** 		/* Determine the number of priority bits available.  First write to all
 314:/home/rdu/Workspace/project_templates/mcu/stm32_ws/src/libraries/FreeRTOS/Source/portable/GCC/ARM_CM4F/port.c **** 		possible bits. */
 315:/home/rdu/Workspace/project_templates/mcu/stm32_ws/src/libraries/FreeRTOS/Source/portable/GCC/ARM_CM4F/port.c **** 		*pucFirstUserPriorityRegister = portMAX_8_BIT_VALUE;
 363              		.loc 1 315 0
 364 004c 059B     		ldr	r3, [sp, #20]
 365 004e FF22     		movs	r2, #255
 366 0050 1A70     		strb	r2, [r3]
 316:/home/rdu/Workspace/project_templates/mcu/stm32_ws/src/libraries/FreeRTOS/Source/portable/GCC/ARM_CM4F/port.c **** 
 317:/home/rdu/Workspace/project_templates/mcu/stm32_ws/src/libraries/FreeRTOS/Source/portable/GCC/ARM_CM4F/port.c **** 		/* Read the value back to see how many bits stuck. */
 318:/home/rdu/Workspace/project_templates/mcu/stm32_ws/src/libraries/FreeRTOS/Source/portable/GCC/ARM_CM4F/port.c **** 		ucMaxPriorityValue = *pucFirstUserPriorityRegister;
 367              		.loc 1 318 0
 368 0052 059B     		ldr	r3, [sp, #20]
 369 0054 1B78     		ldrb	r3, [r3]
 370 0056 DBB2     		uxtb	r3, r3
 371 0058 8DF80330 		strb	r3, [sp, #3]
 319:/home/rdu/Workspace/project_templates/mcu/stm32_ws/src/libraries/FreeRTOS/Source/portable/GCC/ARM_CM4F/port.c **** 
 320:/home/rdu/Workspace/project_templates/mcu/stm32_ws/src/libraries/FreeRTOS/Source/portable/GCC/ARM_CM4F/port.c **** 		/* Use the same mask on the maximum system call priority. */
 321:/home/rdu/Workspace/project_templates/mcu/stm32_ws/src/libraries/FreeRTOS/Source/portable/GCC/ARM_CM4F/port.c **** 		ucMaxSysCallPriority = configMAX_SYSCALL_INTERRUPT_PRIORITY & ucMaxPriorityValue;
 372              		.loc 1 321 0
 373 005c 9DF80330 		ldrb	r3, [sp, #3]
 374 0060 DBB2     		uxtb	r3, r3
 375 0062 03F05003 		and	r3, r3, #80
 376 0066 DAB2     		uxtb	r2, r3
 377 0068 314B     		ldr	r3, .L23+16
 378 006a 1A70     		strb	r2, [r3]
 322:/home/rdu/Workspace/project_templates/mcu/stm32_ws/src/libraries/FreeRTOS/Source/portable/GCC/ARM_CM4F/port.c **** 
 323:/home/rdu/Workspace/project_templates/mcu/stm32_ws/src/libraries/FreeRTOS/Source/portable/GCC/ARM_CM4F/port.c **** 		/* Calculate the maximum acceptable priority group value for the number
 324:/home/rdu/Workspace/project_templates/mcu/stm32_ws/src/libraries/FreeRTOS/Source/portable/GCC/ARM_CM4F/port.c **** 		of bits read back. */
 325:/home/rdu/Workspace/project_templates/mcu/stm32_ws/src/libraries/FreeRTOS/Source/portable/GCC/ARM_CM4F/port.c **** 		ulMaxPRIGROUPValue = portMAX_PRIGROUP_BITS;
 379              		.loc 1 325 0
 380 006c 314B     		ldr	r3, .L23+20
 381 006e 0722     		movs	r2, #7
 382 0070 1A60     		str	r2, [r3]
 326:/home/rdu/Workspace/project_templates/mcu/stm32_ws/src/libraries/FreeRTOS/Source/portable/GCC/ARM_CM4F/port.c **** 		while( ( ucMaxPriorityValue & portTOP_BIT_OF_BYTE ) == portTOP_BIT_OF_BYTE )
 383              		.loc 1 326 0
 384 0072 0BE0     		b	.L18
 385              	.L19:
 327:/home/rdu/Workspace/project_templates/mcu/stm32_ws/src/libraries/FreeRTOS/Source/portable/GCC/ARM_CM4F/port.c **** 		{
 328:/home/rdu/Workspace/project_templates/mcu/stm32_ws/src/libraries/FreeRTOS/Source/portable/GCC/ARM_CM4F/port.c **** 			ulMaxPRIGROUPValue--;
 386              		.loc 1 328 0
 387 0074 2F4B     		ldr	r3, .L23+20
 388 0076 1B68     		ldr	r3, [r3]
 389 0078 013B     		subs	r3, r3, #1
 390 007a 2E4A     		ldr	r2, .L23+20
 391 007c 1360     		str	r3, [r2]
 329:/home/rdu/Workspace/project_templates/mcu/stm32_ws/src/libraries/FreeRTOS/Source/portable/GCC/ARM_CM4F/port.c **** 			ucMaxPriorityValue <<= ( uint8_t ) 0x01;
 392              		.loc 1 329 0
 393 007e 9DF80330 		ldrb	r3, [sp, #3]
 394 0082 DBB2     		uxtb	r3, r3
 395 0084 5B00     		lsls	r3, r3, #1
 396 0086 DBB2     		uxtb	r3, r3
 397 0088 8DF80330 		strb	r3, [sp, #3]
 398              	.L18:
 326:/home/rdu/Workspace/project_templates/mcu/stm32_ws/src/libraries/FreeRTOS/Source/portable/GCC/ARM_CM4F/port.c **** 		while( ( ucMaxPriorityValue & portTOP_BIT_OF_BYTE ) == portTOP_BIT_OF_BYTE )
 399              		.loc 1 326 0
 400 008c 9DF80330 		ldrb	r3, [sp, #3]
 401 0090 DBB2     		uxtb	r3, r3
 402 0092 03F08003 		and	r3, r3, #128
 403 0096 802B     		cmp	r3, #128
 404 0098 ECD0     		beq	.L19
 330:/home/rdu/Workspace/project_templates/mcu/stm32_ws/src/libraries/FreeRTOS/Source/portable/GCC/ARM_CM4F/port.c **** 		}
 331:/home/rdu/Workspace/project_templates/mcu/stm32_ws/src/libraries/FreeRTOS/Source/portable/GCC/ARM_CM4F/port.c **** 
 332:/home/rdu/Workspace/project_templates/mcu/stm32_ws/src/libraries/FreeRTOS/Source/portable/GCC/ARM_CM4F/port.c **** 		#ifdef __NVIC_PRIO_BITS
 333:/home/rdu/Workspace/project_templates/mcu/stm32_ws/src/libraries/FreeRTOS/Source/portable/GCC/ARM_CM4F/port.c **** 		{
 334:/home/rdu/Workspace/project_templates/mcu/stm32_ws/src/libraries/FreeRTOS/Source/portable/GCC/ARM_CM4F/port.c **** 			/* Check the CMSIS configuration that defines the number of
 335:/home/rdu/Workspace/project_templates/mcu/stm32_ws/src/libraries/FreeRTOS/Source/portable/GCC/ARM_CM4F/port.c **** 			priority bits matches the number of priority bits actually queried
 336:/home/rdu/Workspace/project_templates/mcu/stm32_ws/src/libraries/FreeRTOS/Source/portable/GCC/ARM_CM4F/port.c **** 			from the hardware. */
 337:/home/rdu/Workspace/project_templates/mcu/stm32_ws/src/libraries/FreeRTOS/Source/portable/GCC/ARM_CM4F/port.c **** 			configASSERT( ( portMAX_PRIGROUP_BITS - ulMaxPRIGROUPValue ) == __NVIC_PRIO_BITS );
 338:/home/rdu/Workspace/project_templates/mcu/stm32_ws/src/libraries/FreeRTOS/Source/portable/GCC/ARM_CM4F/port.c **** 		}
 339:/home/rdu/Workspace/project_templates/mcu/stm32_ws/src/libraries/FreeRTOS/Source/portable/GCC/ARM_CM4F/port.c **** 		#endif
 340:/home/rdu/Workspace/project_templates/mcu/stm32_ws/src/libraries/FreeRTOS/Source/portable/GCC/ARM_CM4F/port.c **** 
 341:/home/rdu/Workspace/project_templates/mcu/stm32_ws/src/libraries/FreeRTOS/Source/portable/GCC/ARM_CM4F/port.c **** 		#ifdef configPRIO_BITS
 342:/home/rdu/Workspace/project_templates/mcu/stm32_ws/src/libraries/FreeRTOS/Source/portable/GCC/ARM_CM4F/port.c **** 		{
 343:/home/rdu/Workspace/project_templates/mcu/stm32_ws/src/libraries/FreeRTOS/Source/portable/GCC/ARM_CM4F/port.c **** 			/* Check the FreeRTOS configuration that defines the number of
 344:/home/rdu/Workspace/project_templates/mcu/stm32_ws/src/libraries/FreeRTOS/Source/portable/GCC/ARM_CM4F/port.c **** 			priority bits matches the number of priority bits actually queried
 345:/home/rdu/Workspace/project_templates/mcu/stm32_ws/src/libraries/FreeRTOS/Source/portable/GCC/ARM_CM4F/port.c **** 			from the hardware. */
 346:/home/rdu/Workspace/project_templates/mcu/stm32_ws/src/libraries/FreeRTOS/Source/portable/GCC/ARM_CM4F/port.c **** 			configASSERT( ( portMAX_PRIGROUP_BITS - ulMaxPRIGROUPValue ) == configPRIO_BITS );
 405              		.loc 1 346 0
 406 009a 264B     		ldr	r3, .L23+20
 407 009c 1B68     		ldr	r3, [r3]
 408 009e C3F10703 		rsb	r3, r3, #7
 409 00a2 042B     		cmp	r3, #4
 410 00a4 09D0     		beq	.L20
 411              	.LBB40:
 412              	.LBB41:
 413              		.loc 2 195 0 discriminator 1
 414              		.syntax unified
 415              	@ 195 "/home/rdu/Workspace/project_templates/mcu/stm32_ws/src/libraries/FreeRTOS/Source/portable/GC
 416 00a6 4FF05003 			mov r3, #80												
 417 00aa 83F31188 		msr basepri, r3											
 418 00ae BFF36F8F 		isb														
 419 00b2 BFF34F8F 		dsb														
 420              	
 421              	@ 0 "" 2
 422              		.thumb
 423              		.syntax unified
 424 00b6 0293     		str	r3, [sp, #8]
 425              	.L21:
 426              	.LBE41:
 427              	.LBE40:
 428              		.loc 1 346 0 discriminator 4
 429 00b8 FEE7     		b	.L21
 430              	.L20:
 347:/home/rdu/Workspace/project_templates/mcu/stm32_ws/src/libraries/FreeRTOS/Source/portable/GCC/ARM_CM4F/port.c **** 		}
 348:/home/rdu/Workspace/project_templates/mcu/stm32_ws/src/libraries/FreeRTOS/Source/portable/GCC/ARM_CM4F/port.c **** 		#endif
 349:/home/rdu/Workspace/project_templates/mcu/stm32_ws/src/libraries/FreeRTOS/Source/portable/GCC/ARM_CM4F/port.c **** 
 350:/home/rdu/Workspace/project_templates/mcu/stm32_ws/src/libraries/FreeRTOS/Source/portable/GCC/ARM_CM4F/port.c **** 		/* Shift the priority group value back to its position within the AIRCR
 351:/home/rdu/Workspace/project_templates/mcu/stm32_ws/src/libraries/FreeRTOS/Source/portable/GCC/ARM_CM4F/port.c **** 		register. */
 352:/home/rdu/Workspace/project_templates/mcu/stm32_ws/src/libraries/FreeRTOS/Source/portable/GCC/ARM_CM4F/port.c **** 		ulMaxPRIGROUPValue <<= portPRIGROUP_SHIFT;
 431              		.loc 1 352 0
 432 00ba 1E4B     		ldr	r3, .L23+20
 433 00bc 1B68     		ldr	r3, [r3]
 434 00be 1B02     		lsls	r3, r3, #8
 435 00c0 1C4A     		ldr	r2, .L23+20
 436 00c2 1360     		str	r3, [r2]
 353:/home/rdu/Workspace/project_templates/mcu/stm32_ws/src/libraries/FreeRTOS/Source/portable/GCC/ARM_CM4F/port.c **** 		ulMaxPRIGROUPValue &= portPRIORITY_GROUP_MASK;
 437              		.loc 1 353 0
 438 00c4 1B4B     		ldr	r3, .L23+20
 439 00c6 1B68     		ldr	r3, [r3]
 440 00c8 03F4E063 		and	r3, r3, #1792
 441 00cc 194A     		ldr	r2, .L23+20
 442 00ce 1360     		str	r3, [r2]
 354:/home/rdu/Workspace/project_templates/mcu/stm32_ws/src/libraries/FreeRTOS/Source/portable/GCC/ARM_CM4F/port.c **** 
 355:/home/rdu/Workspace/project_templates/mcu/stm32_ws/src/libraries/FreeRTOS/Source/portable/GCC/ARM_CM4F/port.c **** 		/* Restore the clobbered interrupt priority register to its original
 356:/home/rdu/Workspace/project_templates/mcu/stm32_ws/src/libraries/FreeRTOS/Source/portable/GCC/ARM_CM4F/port.c **** 		value. */
 357:/home/rdu/Workspace/project_templates/mcu/stm32_ws/src/libraries/FreeRTOS/Source/portable/GCC/ARM_CM4F/port.c **** 		*pucFirstUserPriorityRegister = ulOriginalPriority;
 443              		.loc 1 357 0
 444 00d0 019B     		ldr	r3, [sp, #4]
 445 00d2 DAB2     		uxtb	r2, r3
 446 00d4 059B     		ldr	r3, [sp, #20]
 447 00d6 1A70     		strb	r2, [r3]
 448              	.LBE39:
 358:/home/rdu/Workspace/project_templates/mcu/stm32_ws/src/libraries/FreeRTOS/Source/portable/GCC/ARM_CM4F/port.c **** 	}
 359:/home/rdu/Workspace/project_templates/mcu/stm32_ws/src/libraries/FreeRTOS/Source/portable/GCC/ARM_CM4F/port.c **** 	#endif /* conifgASSERT_DEFINED */
 360:/home/rdu/Workspace/project_templates/mcu/stm32_ws/src/libraries/FreeRTOS/Source/portable/GCC/ARM_CM4F/port.c **** 
 361:/home/rdu/Workspace/project_templates/mcu/stm32_ws/src/libraries/FreeRTOS/Source/portable/GCC/ARM_CM4F/port.c **** 	/* Make PendSV and SysTick the lowest priority interrupts. */
 362:/home/rdu/Workspace/project_templates/mcu/stm32_ws/src/libraries/FreeRTOS/Source/portable/GCC/ARM_CM4F/port.c **** 	portNVIC_SYSPRI2_REG |= portNVIC_PENDSV_PRI;
 449              		.loc 1 362 0
 450 00d8 174B     		ldr	r3, .L23+24
 451 00da 1B68     		ldr	r3, [r3]
 452 00dc 164A     		ldr	r2, .L23+24
 453 00de 43F47003 		orr	r3, r3, #15728640
 454 00e2 1360     		str	r3, [r2]
 363:/home/rdu/Workspace/project_templates/mcu/stm32_ws/src/libraries/FreeRTOS/Source/portable/GCC/ARM_CM4F/port.c **** 	portNVIC_SYSPRI2_REG |= portNVIC_SYSTICK_PRI;
 455              		.loc 1 363 0
 456 00e4 144B     		ldr	r3, .L23+24
 457 00e6 1B68     		ldr	r3, [r3]
 458 00e8 134A     		ldr	r2, .L23+24
 459 00ea 43F07043 		orr	r3, r3, #-268435456
 460 00ee 1360     		str	r3, [r2]
 364:/home/rdu/Workspace/project_templates/mcu/stm32_ws/src/libraries/FreeRTOS/Source/portable/GCC/ARM_CM4F/port.c **** 
 365:/home/rdu/Workspace/project_templates/mcu/stm32_ws/src/libraries/FreeRTOS/Source/portable/GCC/ARM_CM4F/port.c **** 	/* Start the timer that generates the tick ISR.  Interrupts are disabled
 366:/home/rdu/Workspace/project_templates/mcu/stm32_ws/src/libraries/FreeRTOS/Source/portable/GCC/ARM_CM4F/port.c **** 	here already. */
 367:/home/rdu/Workspace/project_templates/mcu/stm32_ws/src/libraries/FreeRTOS/Source/portable/GCC/ARM_CM4F/port.c **** 	vPortSetupTimerInterrupt();
 461              		.loc 1 367 0
 462 00f0 FFF7FEFF 		bl	vPortSetupTimerInterrupt
 368:/home/rdu/Workspace/project_templates/mcu/stm32_ws/src/libraries/FreeRTOS/Source/portable/GCC/ARM_CM4F/port.c **** 
 369:/home/rdu/Workspace/project_templates/mcu/stm32_ws/src/libraries/FreeRTOS/Source/portable/GCC/ARM_CM4F/port.c **** 	/* Initialise the critical nesting count ready for the first task. */
 370:/home/rdu/Workspace/project_templates/mcu/stm32_ws/src/libraries/FreeRTOS/Source/portable/GCC/ARM_CM4F/port.c **** 	uxCriticalNesting = 0;
 463              		.loc 1 370 0
 464 00f4 114B     		ldr	r3, .L23+28
 465 00f6 0022     		movs	r2, #0
 466 00f8 1A60     		str	r2, [r3]
 371:/home/rdu/Workspace/project_templates/mcu/stm32_ws/src/libraries/FreeRTOS/Source/portable/GCC/ARM_CM4F/port.c **** 
 372:/home/rdu/Workspace/project_templates/mcu/stm32_ws/src/libraries/FreeRTOS/Source/portable/GCC/ARM_CM4F/port.c **** 	/* Ensure the VFP is enabled - it should be anyway. */
 373:/home/rdu/Workspace/project_templates/mcu/stm32_ws/src/libraries/FreeRTOS/Source/portable/GCC/ARM_CM4F/port.c **** 	vPortEnableVFP();
 467              		.loc 1 373 0
 468 00fa FFF7FEFF 		bl	vPortEnableVFP
 374:/home/rdu/Workspace/project_templates/mcu/stm32_ws/src/libraries/FreeRTOS/Source/portable/GCC/ARM_CM4F/port.c **** 
 375:/home/rdu/Workspace/project_templates/mcu/stm32_ws/src/libraries/FreeRTOS/Source/portable/GCC/ARM_CM4F/port.c **** 	/* Lazy save always. */
 376:/home/rdu/Workspace/project_templates/mcu/stm32_ws/src/libraries/FreeRTOS/Source/portable/GCC/ARM_CM4F/port.c **** 	*( portFPCCR ) |= portASPEN_AND_LSPEN_BITS;
 469              		.loc 1 376 0
 470 00fe 104B     		ldr	r3, .L23+32
 471 0100 1B68     		ldr	r3, [r3]
 472 0102 0F4A     		ldr	r2, .L23+32
 473 0104 43F04043 		orr	r3, r3, #-1073741824
 474 0108 1360     		str	r3, [r2]
 377:/home/rdu/Workspace/project_templates/mcu/stm32_ws/src/libraries/FreeRTOS/Source/portable/GCC/ARM_CM4F/port.c **** 
 378:/home/rdu/Workspace/project_templates/mcu/stm32_ws/src/libraries/FreeRTOS/Source/portable/GCC/ARM_CM4F/port.c **** 	/* Start the first task. */
 379:/home/rdu/Workspace/project_templates/mcu/stm32_ws/src/libraries/FreeRTOS/Source/portable/GCC/ARM_CM4F/port.c **** 	prvPortStartFirstTask();
 475              		.loc 1 379 0
 476 010a FFF7FEFF 		bl	prvPortStartFirstTask
 380:/home/rdu/Workspace/project_templates/mcu/stm32_ws/src/libraries/FreeRTOS/Source/portable/GCC/ARM_CM4F/port.c **** 
 381:/home/rdu/Workspace/project_templates/mcu/stm32_ws/src/libraries/FreeRTOS/Source/portable/GCC/ARM_CM4F/port.c **** 	/* Should never get here as the tasks will now be executing!  Call the task
 382:/home/rdu/Workspace/project_templates/mcu/stm32_ws/src/libraries/FreeRTOS/Source/portable/GCC/ARM_CM4F/port.c **** 	exit error function to prevent compiler warnings about a static function
 383:/home/rdu/Workspace/project_templates/mcu/stm32_ws/src/libraries/FreeRTOS/Source/portable/GCC/ARM_CM4F/port.c **** 	not being called in the case that the application writer overrides this
 384:/home/rdu/Workspace/project_templates/mcu/stm32_ws/src/libraries/FreeRTOS/Source/portable/GCC/ARM_CM4F/port.c **** 	functionality by defining configTASK_RETURN_ADDRESS.  Call
 385:/home/rdu/Workspace/project_templates/mcu/stm32_ws/src/libraries/FreeRTOS/Source/portable/GCC/ARM_CM4F/port.c **** 	vTaskSwitchContext() so link time optimisation does not remove the
 386:/home/rdu/Workspace/project_templates/mcu/stm32_ws/src/libraries/FreeRTOS/Source/portable/GCC/ARM_CM4F/port.c **** 	symbol. */
 387:/home/rdu/Workspace/project_templates/mcu/stm32_ws/src/libraries/FreeRTOS/Source/portable/GCC/ARM_CM4F/port.c **** 	vTaskSwitchContext();
 477              		.loc 1 387 0
 478 010e FFF7FEFF 		bl	vTaskSwitchContext
 388:/home/rdu/Workspace/project_templates/mcu/stm32_ws/src/libraries/FreeRTOS/Source/portable/GCC/ARM_CM4F/port.c **** 	prvTaskExitError();
 479              		.loc 1 388 0
 480 0112 FFF7FEFF 		bl	prvTaskExitError
 389:/home/rdu/Workspace/project_templates/mcu/stm32_ws/src/libraries/FreeRTOS/Source/portable/GCC/ARM_CM4F/port.c **** 
 390:/home/rdu/Workspace/project_templates/mcu/stm32_ws/src/libraries/FreeRTOS/Source/portable/GCC/ARM_CM4F/port.c **** 	/* Should not get here! */
 391:/home/rdu/Workspace/project_templates/mcu/stm32_ws/src/libraries/FreeRTOS/Source/portable/GCC/ARM_CM4F/port.c **** 	return 0;
 481              		.loc 1 391 0
 482 0116 0023     		movs	r3, #0
 392:/home/rdu/Workspace/project_templates/mcu/stm32_ws/src/libraries/FreeRTOS/Source/portable/GCC/ARM_CM4F/port.c **** }
 483              		.loc 1 392 0
 484 0118 1846     		mov	r0, r3
 485 011a 07B0     		add	sp, sp, #28
 486              	.LCFI6:
 487              		.cfi_def_cfa_offset 4
 488              		@ sp needed
 489 011c 5DF804FB 		ldr	pc, [sp], #4
 490              	.L24:
 491              		.align	2
 492              	.L23:
 493 0120 00ED00E0 		.word	-536810240
 494 0124 71C20F41 		.word	1091551857
 495 0128 70C20F41 		.word	1091551856
 496 012c 00E400E0 		.word	-536812544
 497 0130 00000000 		.word	ucMaxSysCallPriority
 498 0134 00000000 		.word	ulMaxPRIGROUPValue
 499 0138 20ED00E0 		.word	-536810208
 500 013c 00000000 		.word	uxCriticalNesting
 501 0140 34EF00E0 		.word	-536809676
 502              		.cfi_endproc
 503              	.LFE9:
 505              		.section	.text.vPortEndScheduler,"ax",%progbits
 506              		.align	1
 507              		.global	vPortEndScheduler
 508              		.syntax unified
 509              		.thumb
 510              		.thumb_func
 511              		.fpu fpv4-sp-d16
 513              	vPortEndScheduler:
 514              	.LFB10:
 393:/home/rdu/Workspace/project_templates/mcu/stm32_ws/src/libraries/FreeRTOS/Source/portable/GCC/ARM_CM4F/port.c **** /*-----------------------------------------------------------*/
 394:/home/rdu/Workspace/project_templates/mcu/stm32_ws/src/libraries/FreeRTOS/Source/portable/GCC/ARM_CM4F/port.c **** 
 395:/home/rdu/Workspace/project_templates/mcu/stm32_ws/src/libraries/FreeRTOS/Source/portable/GCC/ARM_CM4F/port.c **** void vPortEndScheduler( void )
 396:/home/rdu/Workspace/project_templates/mcu/stm32_ws/src/libraries/FreeRTOS/Source/portable/GCC/ARM_CM4F/port.c **** {
 515              		.loc 1 396 0
 516              		.cfi_startproc
 517              		@ args = 0, pretend = 0, frame = 8
 518              		@ frame_needed = 0, uses_anonymous_args = 0
 519              		@ link register save eliminated.
 520 0000 82B0     		sub	sp, sp, #8
 521              	.LCFI7:
 522              		.cfi_def_cfa_offset 8
 397:/home/rdu/Workspace/project_templates/mcu/stm32_ws/src/libraries/FreeRTOS/Source/portable/GCC/ARM_CM4F/port.c **** 	/* Not implemented in ports where there is nothing to return to.
 398:/home/rdu/Workspace/project_templates/mcu/stm32_ws/src/libraries/FreeRTOS/Source/portable/GCC/ARM_CM4F/port.c **** 	Artificially force an assert. */
 399:/home/rdu/Workspace/project_templates/mcu/stm32_ws/src/libraries/FreeRTOS/Source/portable/GCC/ARM_CM4F/port.c **** 	configASSERT( uxCriticalNesting == 1000UL );
 523              		.loc 1 399 0
 524 0002 094B     		ldr	r3, .L29
 525 0004 1B68     		ldr	r3, [r3]
 526 0006 B3F57A7F 		cmp	r3, #1000
 527 000a 09D0     		beq	.L28
 528              	.LBB42:
 529              	.LBB43:
 530              		.loc 2 195 0 discriminator 1
 531              		.syntax unified
 532              	@ 195 "/home/rdu/Workspace/project_templates/mcu/stm32_ws/src/libraries/FreeRTOS/Source/portable/GC
 533 000c 4FF05003 			mov r3, #80												
 534 0010 83F31188 		msr basepri, r3											
 535 0014 BFF36F8F 		isb														
 536 0018 BFF34F8F 		dsb														
 537              	
 538              	@ 0 "" 2
 539              		.thumb
 540              		.syntax unified
 541 001c 0193     		str	r3, [sp, #4]
 542              	.L27:
 543              	.LBE43:
 544              	.LBE42:
 545              		.loc 1 399 0 discriminator 1
 546 001e FEE7     		b	.L27
 547              	.L28:
 400:/home/rdu/Workspace/project_templates/mcu/stm32_ws/src/libraries/FreeRTOS/Source/portable/GCC/ARM_CM4F/port.c **** }
 548              		.loc 1 400 0
 549 0020 00BF     		nop
 550 0022 02B0     		add	sp, sp, #8
 551              	.LCFI8:
 552              		.cfi_def_cfa_offset 0
 553              		@ sp needed
 554 0024 7047     		bx	lr
 555              	.L30:
 556 0026 00BF     		.align	2
 557              	.L29:
 558 0028 00000000 		.word	uxCriticalNesting
 559              		.cfi_endproc
 560              	.LFE10:
 562              		.section	.text.vPortEnterCritical,"ax",%progbits
 563              		.align	1
 564              		.global	vPortEnterCritical
 565              		.syntax unified
 566              		.thumb
 567              		.thumb_func
 568              		.fpu fpv4-sp-d16
 570              	vPortEnterCritical:
 571              	.LFB11:
 401:/home/rdu/Workspace/project_templates/mcu/stm32_ws/src/libraries/FreeRTOS/Source/portable/GCC/ARM_CM4F/port.c **** /*-----------------------------------------------------------*/
 402:/home/rdu/Workspace/project_templates/mcu/stm32_ws/src/libraries/FreeRTOS/Source/portable/GCC/ARM_CM4F/port.c **** 
 403:/home/rdu/Workspace/project_templates/mcu/stm32_ws/src/libraries/FreeRTOS/Source/portable/GCC/ARM_CM4F/port.c **** void vPortEnterCritical( void )
 404:/home/rdu/Workspace/project_templates/mcu/stm32_ws/src/libraries/FreeRTOS/Source/portable/GCC/ARM_CM4F/port.c **** {
 572              		.loc 1 404 0
 573              		.cfi_startproc
 574              		@ args = 0, pretend = 0, frame = 8
 575              		@ frame_needed = 0, uses_anonymous_args = 0
 576              		@ link register save eliminated.
 577 0000 82B0     		sub	sp, sp, #8
 578              	.LCFI9:
 579              		.cfi_def_cfa_offset 8
 580              	.LBB44:
 581              	.LBB45:
 582              		.loc 2 195 0
 583              		.syntax unified
 584              	@ 195 "/home/rdu/Workspace/project_templates/mcu/stm32_ws/src/libraries/FreeRTOS/Source/portable/GC
 585 0002 4FF05003 			mov r3, #80												
 586 0006 83F31188 		msr basepri, r3											
 587 000a BFF36F8F 		isb														
 588 000e BFF34F8F 		dsb														
 589              	
 590              	@ 0 "" 2
 591              		.thumb
 592              		.syntax unified
 593 0012 0193     		str	r3, [sp, #4]
 594              	.LBE45:
 595              	.LBE44:
 405:/home/rdu/Workspace/project_templates/mcu/stm32_ws/src/libraries/FreeRTOS/Source/portable/GCC/ARM_CM4F/port.c **** 	portDISABLE_INTERRUPTS();
 406:/home/rdu/Workspace/project_templates/mcu/stm32_ws/src/libraries/FreeRTOS/Source/portable/GCC/ARM_CM4F/port.c **** 	uxCriticalNesting++;
 596              		.loc 1 406 0
 597 0014 0D4B     		ldr	r3, .L35
 598 0016 1B68     		ldr	r3, [r3]
 599 0018 0133     		adds	r3, r3, #1
 600 001a 0C4A     		ldr	r2, .L35
 601 001c 1360     		str	r3, [r2]
 407:/home/rdu/Workspace/project_templates/mcu/stm32_ws/src/libraries/FreeRTOS/Source/portable/GCC/ARM_CM4F/port.c **** 
 408:/home/rdu/Workspace/project_templates/mcu/stm32_ws/src/libraries/FreeRTOS/Source/portable/GCC/ARM_CM4F/port.c **** 	/* This is not the interrupt safe version of the enter critical function so
 409:/home/rdu/Workspace/project_templates/mcu/stm32_ws/src/libraries/FreeRTOS/Source/portable/GCC/ARM_CM4F/port.c **** 	assert() if it is being called from an interrupt context.  Only API
 410:/home/rdu/Workspace/project_templates/mcu/stm32_ws/src/libraries/FreeRTOS/Source/portable/GCC/ARM_CM4F/port.c **** 	functions that end in "FromISR" can be used in an interrupt.  Only assert if
 411:/home/rdu/Workspace/project_templates/mcu/stm32_ws/src/libraries/FreeRTOS/Source/portable/GCC/ARM_CM4F/port.c **** 	the critical nesting count is 1 to protect against recursive calls if the
 412:/home/rdu/Workspace/project_templates/mcu/stm32_ws/src/libraries/FreeRTOS/Source/portable/GCC/ARM_CM4F/port.c **** 	assert function also uses a critical section. */
 413:/home/rdu/Workspace/project_templates/mcu/stm32_ws/src/libraries/FreeRTOS/Source/portable/GCC/ARM_CM4F/port.c **** 	if( uxCriticalNesting == 1 )
 602              		.loc 1 413 0
 603 001e 0B4B     		ldr	r3, .L35
 604 0020 1B68     		ldr	r3, [r3]
 605 0022 012B     		cmp	r3, #1
 606 0024 0ED1     		bne	.L34
 414:/home/rdu/Workspace/project_templates/mcu/stm32_ws/src/libraries/FreeRTOS/Source/portable/GCC/ARM_CM4F/port.c **** 	{
 415:/home/rdu/Workspace/project_templates/mcu/stm32_ws/src/libraries/FreeRTOS/Source/portable/GCC/ARM_CM4F/port.c **** 		configASSERT( ( portNVIC_INT_CTRL_REG & portVECTACTIVE_MASK ) == 0 );
 607              		.loc 1 415 0
 608 0026 0A4B     		ldr	r3, .L35+4
 609 0028 1B68     		ldr	r3, [r3]
 610 002a DBB2     		uxtb	r3, r3
 611 002c 002B     		cmp	r3, #0
 612 002e 09D0     		beq	.L34
 613              	.LBB46:
 614              	.LBB47:
 615              		.loc 2 195 0 discriminator 1
 616              		.syntax unified
 617              	@ 195 "/home/rdu/Workspace/project_templates/mcu/stm32_ws/src/libraries/FreeRTOS/Source/portable/GC
 618 0030 4FF05003 			mov r3, #80												
 619 0034 83F31188 		msr basepri, r3											
 620 0038 BFF36F8F 		isb														
 621 003c BFF34F8F 		dsb														
 622              	
 623              	@ 0 "" 2
 624              		.thumb
 625              		.syntax unified
 626 0040 0093     		str	r3, [sp]
 627              	.L33:
 628              	.LBE47:
 629              	.LBE46:
 630              		.loc 1 415 0 discriminator 1
 631 0042 FEE7     		b	.L33
 632              	.L34:
 416:/home/rdu/Workspace/project_templates/mcu/stm32_ws/src/libraries/FreeRTOS/Source/portable/GCC/ARM_CM4F/port.c **** 	}
 417:/home/rdu/Workspace/project_templates/mcu/stm32_ws/src/libraries/FreeRTOS/Source/portable/GCC/ARM_CM4F/port.c **** }
 633              		.loc 1 417 0
 634 0044 00BF     		nop
 635 0046 02B0     		add	sp, sp, #8
 636              	.LCFI10:
 637              		.cfi_def_cfa_offset 0
 638              		@ sp needed
 639 0048 7047     		bx	lr
 640              	.L36:
 641 004a 00BF     		.align	2
 642              	.L35:
 643 004c 00000000 		.word	uxCriticalNesting
 644 0050 04ED00E0 		.word	-536810236
 645              		.cfi_endproc
 646              	.LFE11:
 648              		.section	.text.vPortExitCritical,"ax",%progbits
 649              		.align	1
 650              		.global	vPortExitCritical
 651              		.syntax unified
 652              		.thumb
 653              		.thumb_func
 654              		.fpu fpv4-sp-d16
 656              	vPortExitCritical:
 657              	.LFB12:
 418:/home/rdu/Workspace/project_templates/mcu/stm32_ws/src/libraries/FreeRTOS/Source/portable/GCC/ARM_CM4F/port.c **** /*-----------------------------------------------------------*/
 419:/home/rdu/Workspace/project_templates/mcu/stm32_ws/src/libraries/FreeRTOS/Source/portable/GCC/ARM_CM4F/port.c **** 
 420:/home/rdu/Workspace/project_templates/mcu/stm32_ws/src/libraries/FreeRTOS/Source/portable/GCC/ARM_CM4F/port.c **** void vPortExitCritical( void )
 421:/home/rdu/Workspace/project_templates/mcu/stm32_ws/src/libraries/FreeRTOS/Source/portable/GCC/ARM_CM4F/port.c **** {
 658              		.loc 1 421 0
 659              		.cfi_startproc
 660              		@ args = 0, pretend = 0, frame = 8
 661              		@ frame_needed = 0, uses_anonymous_args = 0
 662              		@ link register save eliminated.
 663 0000 82B0     		sub	sp, sp, #8
 664              	.LCFI11:
 665              		.cfi_def_cfa_offset 8
 422:/home/rdu/Workspace/project_templates/mcu/stm32_ws/src/libraries/FreeRTOS/Source/portable/GCC/ARM_CM4F/port.c **** 	configASSERT( uxCriticalNesting );
 666              		.loc 1 422 0
 667 0002 0F4B     		ldr	r3, .L42
 668 0004 1B68     		ldr	r3, [r3]
 669 0006 002B     		cmp	r3, #0
 670 0008 09D1     		bne	.L38
 671              	.LBB48:
 672              	.LBB49:
 673              		.loc 2 195 0 discriminator 1
 674              		.syntax unified
 675              	@ 195 "/home/rdu/Workspace/project_templates/mcu/stm32_ws/src/libraries/FreeRTOS/Source/portable/GC
 676 000a 4FF05003 			mov r3, #80												
 677 000e 83F31188 		msr basepri, r3											
 678 0012 BFF36F8F 		isb														
 679 0016 BFF34F8F 		dsb														
 680              	
 681              	@ 0 "" 2
 682              		.thumb
 683              		.syntax unified
 684 001a 0193     		str	r3, [sp, #4]
 685              	.L39:
 686              	.LBE49:
 687              	.LBE48:
 688              		.loc 1 422 0 discriminator 1
 689 001c FEE7     		b	.L39
 690              	.L38:
 423:/home/rdu/Workspace/project_templates/mcu/stm32_ws/src/libraries/FreeRTOS/Source/portable/GCC/ARM_CM4F/port.c **** 	uxCriticalNesting--;
 691              		.loc 1 423 0
 692 001e 084B     		ldr	r3, .L42
 693 0020 1B68     		ldr	r3, [r3]
 694 0022 013B     		subs	r3, r3, #1
 695 0024 064A     		ldr	r2, .L42
 696 0026 1360     		str	r3, [r2]
 424:/home/rdu/Workspace/project_templates/mcu/stm32_ws/src/libraries/FreeRTOS/Source/portable/GCC/ARM_CM4F/port.c **** 	if( uxCriticalNesting == 0 )
 697              		.loc 1 424 0
 698 0028 054B     		ldr	r3, .L42
 699 002a 1B68     		ldr	r3, [r3]
 700 002c 002B     		cmp	r3, #0
 701 002e 04D1     		bne	.L41
 702 0030 0023     		movs	r3, #0
 703 0032 0093     		str	r3, [sp]
 704              	.LBB50:
 705              	.LBB51:
 196:/home/rdu/Workspace/project_templates/mcu/stm32_ws/src/libraries/FreeRTOS/Source/portable/GCC/ARM_CM4F/portmacro.h **** 	(
 197:/home/rdu/Workspace/project_templates/mcu/stm32_ws/src/libraries/FreeRTOS/Source/portable/GCC/ARM_CM4F/portmacro.h **** 		"	mov %0, %1												\n"	\
 198:/home/rdu/Workspace/project_templates/mcu/stm32_ws/src/libraries/FreeRTOS/Source/portable/GCC/ARM_CM4F/portmacro.h **** 		"	msr basepri, %0											\n" \
 199:/home/rdu/Workspace/project_templates/mcu/stm32_ws/src/libraries/FreeRTOS/Source/portable/GCC/ARM_CM4F/portmacro.h **** 		"	isb														\n" \
 200:/home/rdu/Workspace/project_templates/mcu/stm32_ws/src/libraries/FreeRTOS/Source/portable/GCC/ARM_CM4F/portmacro.h **** 		"	dsb														\n" \
 201:/home/rdu/Workspace/project_templates/mcu/stm32_ws/src/libraries/FreeRTOS/Source/portable/GCC/ARM_CM4F/portmacro.h **** 		:"=r" (ulNewBASEPRI) : "i" ( configMAX_SYSCALL_INTERRUPT_PRIORITY ) : "memory"
 202:/home/rdu/Workspace/project_templates/mcu/stm32_ws/src/libraries/FreeRTOS/Source/portable/GCC/ARM_CM4F/portmacro.h **** 	);
 203:/home/rdu/Workspace/project_templates/mcu/stm32_ws/src/libraries/FreeRTOS/Source/portable/GCC/ARM_CM4F/portmacro.h **** }
 204:/home/rdu/Workspace/project_templates/mcu/stm32_ws/src/libraries/FreeRTOS/Source/portable/GCC/ARM_CM4F/portmacro.h **** 
 205:/home/rdu/Workspace/project_templates/mcu/stm32_ws/src/libraries/FreeRTOS/Source/portable/GCC/ARM_CM4F/portmacro.h **** /*-----------------------------------------------------------*/
 206:/home/rdu/Workspace/project_templates/mcu/stm32_ws/src/libraries/FreeRTOS/Source/portable/GCC/ARM_CM4F/portmacro.h **** 
 207:/home/rdu/Workspace/project_templates/mcu/stm32_ws/src/libraries/FreeRTOS/Source/portable/GCC/ARM_CM4F/portmacro.h **** portFORCE_INLINE static uint32_t ulPortRaiseBASEPRI( void )
 208:/home/rdu/Workspace/project_templates/mcu/stm32_ws/src/libraries/FreeRTOS/Source/portable/GCC/ARM_CM4F/portmacro.h **** {
 209:/home/rdu/Workspace/project_templates/mcu/stm32_ws/src/libraries/FreeRTOS/Source/portable/GCC/ARM_CM4F/portmacro.h **** uint32_t ulOriginalBASEPRI, ulNewBASEPRI;
 210:/home/rdu/Workspace/project_templates/mcu/stm32_ws/src/libraries/FreeRTOS/Source/portable/GCC/ARM_CM4F/portmacro.h **** 
 211:/home/rdu/Workspace/project_templates/mcu/stm32_ws/src/libraries/FreeRTOS/Source/portable/GCC/ARM_CM4F/portmacro.h **** 	__asm volatile
 212:/home/rdu/Workspace/project_templates/mcu/stm32_ws/src/libraries/FreeRTOS/Source/portable/GCC/ARM_CM4F/portmacro.h **** 	(
 213:/home/rdu/Workspace/project_templates/mcu/stm32_ws/src/libraries/FreeRTOS/Source/portable/GCC/ARM_CM4F/portmacro.h **** 		"	mrs %0, basepri											\n" \
 214:/home/rdu/Workspace/project_templates/mcu/stm32_ws/src/libraries/FreeRTOS/Source/portable/GCC/ARM_CM4F/portmacro.h **** 		"	mov %1, %2												\n"	\
 215:/home/rdu/Workspace/project_templates/mcu/stm32_ws/src/libraries/FreeRTOS/Source/portable/GCC/ARM_CM4F/portmacro.h **** 		"	msr basepri, %1											\n" \
 216:/home/rdu/Workspace/project_templates/mcu/stm32_ws/src/libraries/FreeRTOS/Source/portable/GCC/ARM_CM4F/portmacro.h **** 		"	isb														\n" \
 217:/home/rdu/Workspace/project_templates/mcu/stm32_ws/src/libraries/FreeRTOS/Source/portable/GCC/ARM_CM4F/portmacro.h **** 		"	dsb														\n" \
 218:/home/rdu/Workspace/project_templates/mcu/stm32_ws/src/libraries/FreeRTOS/Source/portable/GCC/ARM_CM4F/portmacro.h **** 		:"=r" (ulOriginalBASEPRI), "=r" (ulNewBASEPRI) : "i" ( configMAX_SYSCALL_INTERRUPT_PRIORITY ) : "
 219:/home/rdu/Workspace/project_templates/mcu/stm32_ws/src/libraries/FreeRTOS/Source/portable/GCC/ARM_CM4F/portmacro.h **** 	);
 220:/home/rdu/Workspace/project_templates/mcu/stm32_ws/src/libraries/FreeRTOS/Source/portable/GCC/ARM_CM4F/portmacro.h **** 
 221:/home/rdu/Workspace/project_templates/mcu/stm32_ws/src/libraries/FreeRTOS/Source/portable/GCC/ARM_CM4F/portmacro.h **** 	/* This return will not be reached but is necessary to prevent compiler
 222:/home/rdu/Workspace/project_templates/mcu/stm32_ws/src/libraries/FreeRTOS/Source/portable/GCC/ARM_CM4F/portmacro.h **** 	warnings. */
 223:/home/rdu/Workspace/project_templates/mcu/stm32_ws/src/libraries/FreeRTOS/Source/portable/GCC/ARM_CM4F/portmacro.h **** 	return ulOriginalBASEPRI;
 224:/home/rdu/Workspace/project_templates/mcu/stm32_ws/src/libraries/FreeRTOS/Source/portable/GCC/ARM_CM4F/portmacro.h **** }
 225:/home/rdu/Workspace/project_templates/mcu/stm32_ws/src/libraries/FreeRTOS/Source/portable/GCC/ARM_CM4F/portmacro.h **** /*-----------------------------------------------------------*/
 226:/home/rdu/Workspace/project_templates/mcu/stm32_ws/src/libraries/FreeRTOS/Source/portable/GCC/ARM_CM4F/portmacro.h **** 
 227:/home/rdu/Workspace/project_templates/mcu/stm32_ws/src/libraries/FreeRTOS/Source/portable/GCC/ARM_CM4F/portmacro.h **** portFORCE_INLINE static void vPortSetBASEPRI( uint32_t ulNewMaskValue )
 228:/home/rdu/Workspace/project_templates/mcu/stm32_ws/src/libraries/FreeRTOS/Source/portable/GCC/ARM_CM4F/portmacro.h **** {
 229:/home/rdu/Workspace/project_templates/mcu/stm32_ws/src/libraries/FreeRTOS/Source/portable/GCC/ARM_CM4F/portmacro.h **** 	__asm volatile
 706              		.loc 2 229 0
 707 0034 009B     		ldr	r3, [sp]
 708              		.syntax unified
 709              	@ 229 "/home/rdu/Workspace/project_templates/mcu/stm32_ws/src/libraries/FreeRTOS/Source/portable/GC
 710 0036 83F31188 			msr basepri, r3	
 711              	@ 0 "" 2
 712              		.thumb
 713              		.syntax unified
 714              	.L41:
 715              	.LBE51:
 716              	.LBE50:
 425:/home/rdu/Workspace/project_templates/mcu/stm32_ws/src/libraries/FreeRTOS/Source/portable/GCC/ARM_CM4F/port.c **** 	{
 426:/home/rdu/Workspace/project_templates/mcu/stm32_ws/src/libraries/FreeRTOS/Source/portable/GCC/ARM_CM4F/port.c **** 		portENABLE_INTERRUPTS();
 427:/home/rdu/Workspace/project_templates/mcu/stm32_ws/src/libraries/FreeRTOS/Source/portable/GCC/ARM_CM4F/port.c **** 	}
 428:/home/rdu/Workspace/project_templates/mcu/stm32_ws/src/libraries/FreeRTOS/Source/portable/GCC/ARM_CM4F/port.c **** }
 717              		.loc 1 428 0
 718 003a 00BF     		nop
 719 003c 02B0     		add	sp, sp, #8
 720              	.LCFI12:
 721              		.cfi_def_cfa_offset 0
 722              		@ sp needed
 723 003e 7047     		bx	lr
 724              	.L43:
 725              		.align	2
 726              	.L42:
 727 0040 00000000 		.word	uxCriticalNesting
 728              		.cfi_endproc
 729              	.LFE12:
 731              		.section	.text.PendSV_Handler,"ax",%progbits
 732              		.align	1
 733              		.global	PendSV_Handler
 734              		.syntax unified
 735              		.thumb
 736              		.thumb_func
 737              		.fpu fpv4-sp-d16
 739              	PendSV_Handler:
 740              	.LFB13:
 429:/home/rdu/Workspace/project_templates/mcu/stm32_ws/src/libraries/FreeRTOS/Source/portable/GCC/ARM_CM4F/port.c **** /*-----------------------------------------------------------*/
 430:/home/rdu/Workspace/project_templates/mcu/stm32_ws/src/libraries/FreeRTOS/Source/portable/GCC/ARM_CM4F/port.c **** 
 431:/home/rdu/Workspace/project_templates/mcu/stm32_ws/src/libraries/FreeRTOS/Source/portable/GCC/ARM_CM4F/port.c **** void xPortPendSVHandler( void )
 432:/home/rdu/Workspace/project_templates/mcu/stm32_ws/src/libraries/FreeRTOS/Source/portable/GCC/ARM_CM4F/port.c **** {
 741              		.loc 1 432 0
 742              		.cfi_startproc
 743              		@ Naked Function: prologue and epilogue provided by programmer.
 744              		@ args = 0, pretend = 0, frame = 0
 745              		@ frame_needed = 0, uses_anonymous_args = 0
 433:/home/rdu/Workspace/project_templates/mcu/stm32_ws/src/libraries/FreeRTOS/Source/portable/GCC/ARM_CM4F/port.c **** 	/* This is a naked function. */
 434:/home/rdu/Workspace/project_templates/mcu/stm32_ws/src/libraries/FreeRTOS/Source/portable/GCC/ARM_CM4F/port.c **** 
 435:/home/rdu/Workspace/project_templates/mcu/stm32_ws/src/libraries/FreeRTOS/Source/portable/GCC/ARM_CM4F/port.c **** 	__asm volatile
 746              		.loc 1 435 0
 747              		.syntax unified
 748              	@ 435 "/home/rdu/Workspace/project_templates/mcu/stm32_ws/src/libraries/FreeRTOS/Source/portable/GC
 749 0000 EFF30980 			mrs r0, psp							
 750 0004 BFF36F8F 		isb									
 751              											
 752 0008 154B     		ldr	r3, pxCurrentTCBConst			
 753 000a 1A68     		ldr	r2, [r3]						
 754              											
 755 000c 1EF0100F 		tst r14, #0x10						
 756 0010 08BF     		it eq								
 757 0012 20ED108A 		vstmdbeq r0!, {s16-s31}				
 758              											
 759 0016 20E9F04F 		stmdb r0!, {r4-r11, r14}			
 760 001a 1060     		str r0, [r2]						
 761              											
 762 001c 2DE90900 		stmdb sp!, {r0, r3}					
 763 0020 4FF05000 		mov r0, #80 							
 764 0024 80F31188 		msr basepri, r0						
 765 0028 BFF34F8F 		dsb									
 766 002c BFF36F8F 		isb									
 767 0030 FFF7FEFF 		bl vTaskSwitchContext				
 768 0034 4FF00000 		mov r0, #0							
 769 0038 80F31188 		msr basepri, r0						
 770 003c 09BC     		ldmia sp!, {r0, r3}					
 771              											
 772 003e 1968     		ldr r1, [r3]						
 773 0040 0868     		ldr r0, [r1]						
 774              											
 775 0042 B0E8F04F 		ldmia r0!, {r4-r11, r14}			
 776              											
 777 0046 1EF0100F 		tst r14, #0x10						
 778 004a 08BF     		it eq								
 779 004c B0EC108A 		vldmiaeq r0!, {s16-s31}				
 780              											
 781 0050 80F30988 		msr psp, r0							
 782 0054 BFF36F8F 		isb									
 783              											
 784              											
 785 0058 7047     		bx r14								
 786              											
 787 005a 00BFAFF3 		.align 4							
 787      0080
 788 0060 00000000 	pxCurrentTCBConst: .word pxCurrentTCB	
 789              	
 790              	@ 0 "" 2
 436:/home/rdu/Workspace/project_templates/mcu/stm32_ws/src/libraries/FreeRTOS/Source/portable/GCC/ARM_CM4F/port.c **** 	(
 437:/home/rdu/Workspace/project_templates/mcu/stm32_ws/src/libraries/FreeRTOS/Source/portable/GCC/ARM_CM4F/port.c **** 	"	mrs r0, psp							\n"
 438:/home/rdu/Workspace/project_templates/mcu/stm32_ws/src/libraries/FreeRTOS/Source/portable/GCC/ARM_CM4F/port.c **** 	"	isb									\n"
 439:/home/rdu/Workspace/project_templates/mcu/stm32_ws/src/libraries/FreeRTOS/Source/portable/GCC/ARM_CM4F/port.c **** 	"										\n"
 440:/home/rdu/Workspace/project_templates/mcu/stm32_ws/src/libraries/FreeRTOS/Source/portable/GCC/ARM_CM4F/port.c **** 	"	ldr	r3, pxCurrentTCBConst			\n" /* Get the location of the current TCB. */
 441:/home/rdu/Workspace/project_templates/mcu/stm32_ws/src/libraries/FreeRTOS/Source/portable/GCC/ARM_CM4F/port.c **** 	"	ldr	r2, [r3]						\n"
 442:/home/rdu/Workspace/project_templates/mcu/stm32_ws/src/libraries/FreeRTOS/Source/portable/GCC/ARM_CM4F/port.c **** 	"										\n"
 443:/home/rdu/Workspace/project_templates/mcu/stm32_ws/src/libraries/FreeRTOS/Source/portable/GCC/ARM_CM4F/port.c **** 	"	tst r14, #0x10						\n" /* Is the task using the FPU context?  If so, push high vfp registers. *
 444:/home/rdu/Workspace/project_templates/mcu/stm32_ws/src/libraries/FreeRTOS/Source/portable/GCC/ARM_CM4F/port.c **** 	"	it eq								\n"
 445:/home/rdu/Workspace/project_templates/mcu/stm32_ws/src/libraries/FreeRTOS/Source/portable/GCC/ARM_CM4F/port.c **** 	"	vstmdbeq r0!, {s16-s31}				\n"
 446:/home/rdu/Workspace/project_templates/mcu/stm32_ws/src/libraries/FreeRTOS/Source/portable/GCC/ARM_CM4F/port.c **** 	"										\n"
 447:/home/rdu/Workspace/project_templates/mcu/stm32_ws/src/libraries/FreeRTOS/Source/portable/GCC/ARM_CM4F/port.c **** 	"	stmdb r0!, {r4-r11, r14}			\n" /* Save the core registers. */
 448:/home/rdu/Workspace/project_templates/mcu/stm32_ws/src/libraries/FreeRTOS/Source/portable/GCC/ARM_CM4F/port.c **** 	"	str r0, [r2]						\n" /* Save the new top of stack into the first member of the TCB. */
 449:/home/rdu/Workspace/project_templates/mcu/stm32_ws/src/libraries/FreeRTOS/Source/portable/GCC/ARM_CM4F/port.c **** 	"										\n"
 450:/home/rdu/Workspace/project_templates/mcu/stm32_ws/src/libraries/FreeRTOS/Source/portable/GCC/ARM_CM4F/port.c **** 	"	stmdb sp!, {r0, r3}					\n"
 451:/home/rdu/Workspace/project_templates/mcu/stm32_ws/src/libraries/FreeRTOS/Source/portable/GCC/ARM_CM4F/port.c **** 	"	mov r0, %0 							\n"
 452:/home/rdu/Workspace/project_templates/mcu/stm32_ws/src/libraries/FreeRTOS/Source/portable/GCC/ARM_CM4F/port.c **** 	"	msr basepri, r0						\n"
 453:/home/rdu/Workspace/project_templates/mcu/stm32_ws/src/libraries/FreeRTOS/Source/portable/GCC/ARM_CM4F/port.c **** 	"	dsb									\n"
 454:/home/rdu/Workspace/project_templates/mcu/stm32_ws/src/libraries/FreeRTOS/Source/portable/GCC/ARM_CM4F/port.c **** 	"	isb									\n"
 455:/home/rdu/Workspace/project_templates/mcu/stm32_ws/src/libraries/FreeRTOS/Source/portable/GCC/ARM_CM4F/port.c **** 	"	bl vTaskSwitchContext				\n"
 456:/home/rdu/Workspace/project_templates/mcu/stm32_ws/src/libraries/FreeRTOS/Source/portable/GCC/ARM_CM4F/port.c **** 	"	mov r0, #0							\n"
 457:/home/rdu/Workspace/project_templates/mcu/stm32_ws/src/libraries/FreeRTOS/Source/portable/GCC/ARM_CM4F/port.c **** 	"	msr basepri, r0						\n"
 458:/home/rdu/Workspace/project_templates/mcu/stm32_ws/src/libraries/FreeRTOS/Source/portable/GCC/ARM_CM4F/port.c **** 	"	ldmia sp!, {r0, r3}					\n"
 459:/home/rdu/Workspace/project_templates/mcu/stm32_ws/src/libraries/FreeRTOS/Source/portable/GCC/ARM_CM4F/port.c **** 	"										\n"
 460:/home/rdu/Workspace/project_templates/mcu/stm32_ws/src/libraries/FreeRTOS/Source/portable/GCC/ARM_CM4F/port.c **** 	"	ldr r1, [r3]						\n" /* The first item in pxCurrentTCB is the task top of stack. */
 461:/home/rdu/Workspace/project_templates/mcu/stm32_ws/src/libraries/FreeRTOS/Source/portable/GCC/ARM_CM4F/port.c **** 	"	ldr r0, [r1]						\n"
 462:/home/rdu/Workspace/project_templates/mcu/stm32_ws/src/libraries/FreeRTOS/Source/portable/GCC/ARM_CM4F/port.c **** 	"										\n"
 463:/home/rdu/Workspace/project_templates/mcu/stm32_ws/src/libraries/FreeRTOS/Source/portable/GCC/ARM_CM4F/port.c **** 	"	ldmia r0!, {r4-r11, r14}			\n" /* Pop the core registers. */
 464:/home/rdu/Workspace/project_templates/mcu/stm32_ws/src/libraries/FreeRTOS/Source/portable/GCC/ARM_CM4F/port.c **** 	"										\n"
 465:/home/rdu/Workspace/project_templates/mcu/stm32_ws/src/libraries/FreeRTOS/Source/portable/GCC/ARM_CM4F/port.c **** 	"	tst r14, #0x10						\n" /* Is the task using the FPU context?  If so, pop the high vfp registers
 466:/home/rdu/Workspace/project_templates/mcu/stm32_ws/src/libraries/FreeRTOS/Source/portable/GCC/ARM_CM4F/port.c **** 	"	it eq								\n"
 467:/home/rdu/Workspace/project_templates/mcu/stm32_ws/src/libraries/FreeRTOS/Source/portable/GCC/ARM_CM4F/port.c **** 	"	vldmiaeq r0!, {s16-s31}				\n"
 468:/home/rdu/Workspace/project_templates/mcu/stm32_ws/src/libraries/FreeRTOS/Source/portable/GCC/ARM_CM4F/port.c **** 	"										\n"
 469:/home/rdu/Workspace/project_templates/mcu/stm32_ws/src/libraries/FreeRTOS/Source/portable/GCC/ARM_CM4F/port.c **** 	"	msr psp, r0							\n"
 470:/home/rdu/Workspace/project_templates/mcu/stm32_ws/src/libraries/FreeRTOS/Source/portable/GCC/ARM_CM4F/port.c **** 	"	isb									\n"
 471:/home/rdu/Workspace/project_templates/mcu/stm32_ws/src/libraries/FreeRTOS/Source/portable/GCC/ARM_CM4F/port.c **** 	"										\n"
 472:/home/rdu/Workspace/project_templates/mcu/stm32_ws/src/libraries/FreeRTOS/Source/portable/GCC/ARM_CM4F/port.c **** 	#ifdef WORKAROUND_PMU_CM001 /* XMC4000 specific errata workaround. */
 473:/home/rdu/Workspace/project_templates/mcu/stm32_ws/src/libraries/FreeRTOS/Source/portable/GCC/ARM_CM4F/port.c **** 		#if WORKAROUND_PMU_CM001 == 1
 474:/home/rdu/Workspace/project_templates/mcu/stm32_ws/src/libraries/FreeRTOS/Source/portable/GCC/ARM_CM4F/port.c **** 	"			push { r14 }				\n"
 475:/home/rdu/Workspace/project_templates/mcu/stm32_ws/src/libraries/FreeRTOS/Source/portable/GCC/ARM_CM4F/port.c **** 	"			pop { pc }					\n"
 476:/home/rdu/Workspace/project_templates/mcu/stm32_ws/src/libraries/FreeRTOS/Source/portable/GCC/ARM_CM4F/port.c **** 		#endif
 477:/home/rdu/Workspace/project_templates/mcu/stm32_ws/src/libraries/FreeRTOS/Source/portable/GCC/ARM_CM4F/port.c **** 	#endif
 478:/home/rdu/Workspace/project_templates/mcu/stm32_ws/src/libraries/FreeRTOS/Source/portable/GCC/ARM_CM4F/port.c **** 	"										\n"
 479:/home/rdu/Workspace/project_templates/mcu/stm32_ws/src/libraries/FreeRTOS/Source/portable/GCC/ARM_CM4F/port.c **** 	"	bx r14								\n"
 480:/home/rdu/Workspace/project_templates/mcu/stm32_ws/src/libraries/FreeRTOS/Source/portable/GCC/ARM_CM4F/port.c **** 	"										\n"
 481:/home/rdu/Workspace/project_templates/mcu/stm32_ws/src/libraries/FreeRTOS/Source/portable/GCC/ARM_CM4F/port.c **** 	"	.align 4							\n"
 482:/home/rdu/Workspace/project_templates/mcu/stm32_ws/src/libraries/FreeRTOS/Source/portable/GCC/ARM_CM4F/port.c **** 	"pxCurrentTCBConst: .word pxCurrentTCB	\n"
 483:/home/rdu/Workspace/project_templates/mcu/stm32_ws/src/libraries/FreeRTOS/Source/portable/GCC/ARM_CM4F/port.c **** 	::"i"(configMAX_SYSCALL_INTERRUPT_PRIORITY)
 484:/home/rdu/Workspace/project_templates/mcu/stm32_ws/src/libraries/FreeRTOS/Source/portable/GCC/ARM_CM4F/port.c **** 	);
 485:/home/rdu/Workspace/project_templates/mcu/stm32_ws/src/libraries/FreeRTOS/Source/portable/GCC/ARM_CM4F/port.c **** }
 791              		.loc 1 485 0
 792              		.thumb
 793              		.syntax unified
 794 0064 00BF     		nop
 795              		.cfi_endproc
 796              	.LFE13:
 798 0066 00BF     		.section	.text.SysTick_Handler,"ax",%progbits
 799              		.align	1
 800              		.global	SysTick_Handler
 801              		.syntax unified
 802              		.thumb
 803              		.thumb_func
 804              		.fpu fpv4-sp-d16
 806              	SysTick_Handler:
 807              	.LFB14:
 486:/home/rdu/Workspace/project_templates/mcu/stm32_ws/src/libraries/FreeRTOS/Source/portable/GCC/ARM_CM4F/port.c **** /*-----------------------------------------------------------*/
 487:/home/rdu/Workspace/project_templates/mcu/stm32_ws/src/libraries/FreeRTOS/Source/portable/GCC/ARM_CM4F/port.c **** 
 488:/home/rdu/Workspace/project_templates/mcu/stm32_ws/src/libraries/FreeRTOS/Source/portable/GCC/ARM_CM4F/port.c **** void xPortSysTickHandler( void )
 489:/home/rdu/Workspace/project_templates/mcu/stm32_ws/src/libraries/FreeRTOS/Source/portable/GCC/ARM_CM4F/port.c **** {
 808              		.loc 1 489 0
 809              		.cfi_startproc
 810              		@ args = 0, pretend = 0, frame = 8
 811              		@ frame_needed = 0, uses_anonymous_args = 0
 812 0000 00B5     		push	{lr}
 813              	.LCFI13:
 814              		.cfi_def_cfa_offset 4
 815              		.cfi_offset 14, -4
 816 0002 83B0     		sub	sp, sp, #12
 817              	.LCFI14:
 818              		.cfi_def_cfa_offset 16
 819              	.LBB52:
 820              	.LBB53:
 195:/home/rdu/Workspace/project_templates/mcu/stm32_ws/src/libraries/FreeRTOS/Source/portable/GCC/ARM_CM4F/portmacro.h **** 	(
 821              		.loc 2 195 0
 822              		.syntax unified
 823              	@ 195 "/home/rdu/Workspace/project_templates/mcu/stm32_ws/src/libraries/FreeRTOS/Source/portable/GC
 824 0004 4FF05003 			mov r3, #80												
 825 0008 83F31188 		msr basepri, r3											
 826 000c BFF36F8F 		isb														
 827 0010 BFF34F8F 		dsb														
 828              	
 829              	@ 0 "" 2
 830              		.thumb
 831              		.syntax unified
 832 0014 0193     		str	r3, [sp, #4]
 833              	.LBE53:
 834              	.LBE52:
 490:/home/rdu/Workspace/project_templates/mcu/stm32_ws/src/libraries/FreeRTOS/Source/portable/GCC/ARM_CM4F/port.c **** 	/* The SysTick runs at the lowest interrupt priority, so when this interrupt
 491:/home/rdu/Workspace/project_templates/mcu/stm32_ws/src/libraries/FreeRTOS/Source/portable/GCC/ARM_CM4F/port.c **** 	executes all interrupts must be unmasked.  There is therefore no need to
 492:/home/rdu/Workspace/project_templates/mcu/stm32_ws/src/libraries/FreeRTOS/Source/portable/GCC/ARM_CM4F/port.c **** 	save and then restore the interrupt mask value as its value is already
 493:/home/rdu/Workspace/project_templates/mcu/stm32_ws/src/libraries/FreeRTOS/Source/portable/GCC/ARM_CM4F/port.c **** 	known. */
 494:/home/rdu/Workspace/project_templates/mcu/stm32_ws/src/libraries/FreeRTOS/Source/portable/GCC/ARM_CM4F/port.c **** 	portDISABLE_INTERRUPTS();
 495:/home/rdu/Workspace/project_templates/mcu/stm32_ws/src/libraries/FreeRTOS/Source/portable/GCC/ARM_CM4F/port.c **** 	{
 496:/home/rdu/Workspace/project_templates/mcu/stm32_ws/src/libraries/FreeRTOS/Source/portable/GCC/ARM_CM4F/port.c **** 		/* Increment the RTOS tick. */
 497:/home/rdu/Workspace/project_templates/mcu/stm32_ws/src/libraries/FreeRTOS/Source/portable/GCC/ARM_CM4F/port.c **** 		if( xTaskIncrementTick() != pdFALSE )
 835              		.loc 1 497 0
 836 0016 FFF7FEFF 		bl	xTaskIncrementTick
 837 001a 0346     		mov	r3, r0
 838 001c 002B     		cmp	r3, #0
 839 001e 03D0     		beq	.L46
 498:/home/rdu/Workspace/project_templates/mcu/stm32_ws/src/libraries/FreeRTOS/Source/portable/GCC/ARM_CM4F/port.c **** 		{
 499:/home/rdu/Workspace/project_templates/mcu/stm32_ws/src/libraries/FreeRTOS/Source/portable/GCC/ARM_CM4F/port.c **** 			/* A context switch is required.  Context switching is performed in
 500:/home/rdu/Workspace/project_templates/mcu/stm32_ws/src/libraries/FreeRTOS/Source/portable/GCC/ARM_CM4F/port.c **** 			the PendSV interrupt.  Pend the PendSV interrupt. */
 501:/home/rdu/Workspace/project_templates/mcu/stm32_ws/src/libraries/FreeRTOS/Source/portable/GCC/ARM_CM4F/port.c **** 			portNVIC_INT_CTRL_REG = portNVIC_PENDSVSET_BIT;
 840              		.loc 1 501 0
 841 0020 064B     		ldr	r3, .L47
 842 0022 4FF08052 		mov	r2, #268435456
 843 0026 1A60     		str	r2, [r3]
 844              	.L46:
 845 0028 0023     		movs	r3, #0
 846 002a 0093     		str	r3, [sp]
 847              	.LBB54:
 848              	.LBB55:
 849              		.loc 2 229 0
 850 002c 009B     		ldr	r3, [sp]
 851              		.syntax unified
 852              	@ 229 "/home/rdu/Workspace/project_templates/mcu/stm32_ws/src/libraries/FreeRTOS/Source/portable/GC
 853 002e 83F31188 			msr basepri, r3	
 854              	@ 0 "" 2
 855              		.thumb
 856              		.syntax unified
 857              	.LBE55:
 858              	.LBE54:
 502:/home/rdu/Workspace/project_templates/mcu/stm32_ws/src/libraries/FreeRTOS/Source/portable/GCC/ARM_CM4F/port.c **** 		}
 503:/home/rdu/Workspace/project_templates/mcu/stm32_ws/src/libraries/FreeRTOS/Source/portable/GCC/ARM_CM4F/port.c **** 	}
 504:/home/rdu/Workspace/project_templates/mcu/stm32_ws/src/libraries/FreeRTOS/Source/portable/GCC/ARM_CM4F/port.c **** 	portENABLE_INTERRUPTS();
 505:/home/rdu/Workspace/project_templates/mcu/stm32_ws/src/libraries/FreeRTOS/Source/portable/GCC/ARM_CM4F/port.c **** }
 859              		.loc 1 505 0
 860 0032 00BF     		nop
 861 0034 03B0     		add	sp, sp, #12
 862              	.LCFI15:
 863              		.cfi_def_cfa_offset 4
 864              		@ sp needed
 865 0036 5DF804FB 		ldr	pc, [sp], #4
 866              	.L48:
 867 003a 00BF     		.align	2
 868              	.L47:
 869 003c 04ED00E0 		.word	-536810236
 870              		.cfi_endproc
 871              	.LFE14:
 873              		.section	.text.vPortSetupTimerInterrupt,"ax",%progbits
 874              		.align	1
 875              		.weak	vPortSetupTimerInterrupt
 876              		.syntax unified
 877              		.thumb
 878              		.thumb_func
 879              		.fpu fpv4-sp-d16
 881              	vPortSetupTimerInterrupt:
 882              	.LFB15:
 506:/home/rdu/Workspace/project_templates/mcu/stm32_ws/src/libraries/FreeRTOS/Source/portable/GCC/ARM_CM4F/port.c **** /*-----------------------------------------------------------*/
 507:/home/rdu/Workspace/project_templates/mcu/stm32_ws/src/libraries/FreeRTOS/Source/portable/GCC/ARM_CM4F/port.c **** 
 508:/home/rdu/Workspace/project_templates/mcu/stm32_ws/src/libraries/FreeRTOS/Source/portable/GCC/ARM_CM4F/port.c **** #if( configUSE_TICKLESS_IDLE == 1 )
 509:/home/rdu/Workspace/project_templates/mcu/stm32_ws/src/libraries/FreeRTOS/Source/portable/GCC/ARM_CM4F/port.c **** 
 510:/home/rdu/Workspace/project_templates/mcu/stm32_ws/src/libraries/FreeRTOS/Source/portable/GCC/ARM_CM4F/port.c **** 	__attribute__((weak)) void vPortSuppressTicksAndSleep( TickType_t xExpectedIdleTime )
 511:/home/rdu/Workspace/project_templates/mcu/stm32_ws/src/libraries/FreeRTOS/Source/portable/GCC/ARM_CM4F/port.c **** 	{
 512:/home/rdu/Workspace/project_templates/mcu/stm32_ws/src/libraries/FreeRTOS/Source/portable/GCC/ARM_CM4F/port.c **** 	uint32_t ulReloadValue, ulCompleteTickPeriods, ulCompletedSysTickDecrements;
 513:/home/rdu/Workspace/project_templates/mcu/stm32_ws/src/libraries/FreeRTOS/Source/portable/GCC/ARM_CM4F/port.c **** 	TickType_t xModifiableIdleTime;
 514:/home/rdu/Workspace/project_templates/mcu/stm32_ws/src/libraries/FreeRTOS/Source/portable/GCC/ARM_CM4F/port.c **** 
 515:/home/rdu/Workspace/project_templates/mcu/stm32_ws/src/libraries/FreeRTOS/Source/portable/GCC/ARM_CM4F/port.c **** 		/* Make sure the SysTick reload value does not overflow the counter. */
 516:/home/rdu/Workspace/project_templates/mcu/stm32_ws/src/libraries/FreeRTOS/Source/portable/GCC/ARM_CM4F/port.c **** 		if( xExpectedIdleTime > xMaximumPossibleSuppressedTicks )
 517:/home/rdu/Workspace/project_templates/mcu/stm32_ws/src/libraries/FreeRTOS/Source/portable/GCC/ARM_CM4F/port.c **** 		{
 518:/home/rdu/Workspace/project_templates/mcu/stm32_ws/src/libraries/FreeRTOS/Source/portable/GCC/ARM_CM4F/port.c **** 			xExpectedIdleTime = xMaximumPossibleSuppressedTicks;
 519:/home/rdu/Workspace/project_templates/mcu/stm32_ws/src/libraries/FreeRTOS/Source/portable/GCC/ARM_CM4F/port.c **** 		}
 520:/home/rdu/Workspace/project_templates/mcu/stm32_ws/src/libraries/FreeRTOS/Source/portable/GCC/ARM_CM4F/port.c **** 
 521:/home/rdu/Workspace/project_templates/mcu/stm32_ws/src/libraries/FreeRTOS/Source/portable/GCC/ARM_CM4F/port.c **** 		/* Stop the SysTick momentarily.  The time the SysTick is stopped for
 522:/home/rdu/Workspace/project_templates/mcu/stm32_ws/src/libraries/FreeRTOS/Source/portable/GCC/ARM_CM4F/port.c **** 		is accounted for as best it can be, but using the tickless mode will
 523:/home/rdu/Workspace/project_templates/mcu/stm32_ws/src/libraries/FreeRTOS/Source/portable/GCC/ARM_CM4F/port.c **** 		inevitably result in some tiny drift of the time maintained by the
 524:/home/rdu/Workspace/project_templates/mcu/stm32_ws/src/libraries/FreeRTOS/Source/portable/GCC/ARM_CM4F/port.c **** 		kernel with respect to calendar time. */
 525:/home/rdu/Workspace/project_templates/mcu/stm32_ws/src/libraries/FreeRTOS/Source/portable/GCC/ARM_CM4F/port.c **** 		portNVIC_SYSTICK_CTRL_REG &= ~portNVIC_SYSTICK_ENABLE_BIT;
 526:/home/rdu/Workspace/project_templates/mcu/stm32_ws/src/libraries/FreeRTOS/Source/portable/GCC/ARM_CM4F/port.c **** 
 527:/home/rdu/Workspace/project_templates/mcu/stm32_ws/src/libraries/FreeRTOS/Source/portable/GCC/ARM_CM4F/port.c **** 		/* Calculate the reload value required to wait xExpectedIdleTime
 528:/home/rdu/Workspace/project_templates/mcu/stm32_ws/src/libraries/FreeRTOS/Source/portable/GCC/ARM_CM4F/port.c **** 		tick periods.  -1 is used because this code will execute part way
 529:/home/rdu/Workspace/project_templates/mcu/stm32_ws/src/libraries/FreeRTOS/Source/portable/GCC/ARM_CM4F/port.c **** 		through one of the tick periods. */
 530:/home/rdu/Workspace/project_templates/mcu/stm32_ws/src/libraries/FreeRTOS/Source/portable/GCC/ARM_CM4F/port.c **** 		ulReloadValue = portNVIC_SYSTICK_CURRENT_VALUE_REG + ( ulTimerCountsForOneTick * ( xExpectedIdleT
 531:/home/rdu/Workspace/project_templates/mcu/stm32_ws/src/libraries/FreeRTOS/Source/portable/GCC/ARM_CM4F/port.c **** 		if( ulReloadValue > ulStoppedTimerCompensation )
 532:/home/rdu/Workspace/project_templates/mcu/stm32_ws/src/libraries/FreeRTOS/Source/portable/GCC/ARM_CM4F/port.c **** 		{
 533:/home/rdu/Workspace/project_templates/mcu/stm32_ws/src/libraries/FreeRTOS/Source/portable/GCC/ARM_CM4F/port.c **** 			ulReloadValue -= ulStoppedTimerCompensation;
 534:/home/rdu/Workspace/project_templates/mcu/stm32_ws/src/libraries/FreeRTOS/Source/portable/GCC/ARM_CM4F/port.c **** 		}
 535:/home/rdu/Workspace/project_templates/mcu/stm32_ws/src/libraries/FreeRTOS/Source/portable/GCC/ARM_CM4F/port.c **** 
 536:/home/rdu/Workspace/project_templates/mcu/stm32_ws/src/libraries/FreeRTOS/Source/portable/GCC/ARM_CM4F/port.c **** 		/* Enter a critical section but don't use the taskENTER_CRITICAL()
 537:/home/rdu/Workspace/project_templates/mcu/stm32_ws/src/libraries/FreeRTOS/Source/portable/GCC/ARM_CM4F/port.c **** 		method as that will mask interrupts that should exit sleep mode. */
 538:/home/rdu/Workspace/project_templates/mcu/stm32_ws/src/libraries/FreeRTOS/Source/portable/GCC/ARM_CM4F/port.c **** 		__asm volatile( "cpsid i" ::: "memory" );
 539:/home/rdu/Workspace/project_templates/mcu/stm32_ws/src/libraries/FreeRTOS/Source/portable/GCC/ARM_CM4F/port.c **** 		__asm volatile( "dsb" );
 540:/home/rdu/Workspace/project_templates/mcu/stm32_ws/src/libraries/FreeRTOS/Source/portable/GCC/ARM_CM4F/port.c **** 		__asm volatile( "isb" );
 541:/home/rdu/Workspace/project_templates/mcu/stm32_ws/src/libraries/FreeRTOS/Source/portable/GCC/ARM_CM4F/port.c **** 
 542:/home/rdu/Workspace/project_templates/mcu/stm32_ws/src/libraries/FreeRTOS/Source/portable/GCC/ARM_CM4F/port.c **** 		/* If a context switch is pending or a task is waiting for the scheduler
 543:/home/rdu/Workspace/project_templates/mcu/stm32_ws/src/libraries/FreeRTOS/Source/portable/GCC/ARM_CM4F/port.c **** 		to be unsuspended then abandon the low power entry. */
 544:/home/rdu/Workspace/project_templates/mcu/stm32_ws/src/libraries/FreeRTOS/Source/portable/GCC/ARM_CM4F/port.c **** 		if( eTaskConfirmSleepModeStatus() == eAbortSleep )
 545:/home/rdu/Workspace/project_templates/mcu/stm32_ws/src/libraries/FreeRTOS/Source/portable/GCC/ARM_CM4F/port.c **** 		{
 546:/home/rdu/Workspace/project_templates/mcu/stm32_ws/src/libraries/FreeRTOS/Source/portable/GCC/ARM_CM4F/port.c **** 			/* Restart from whatever is left in the count register to complete
 547:/home/rdu/Workspace/project_templates/mcu/stm32_ws/src/libraries/FreeRTOS/Source/portable/GCC/ARM_CM4F/port.c **** 			this tick period. */
 548:/home/rdu/Workspace/project_templates/mcu/stm32_ws/src/libraries/FreeRTOS/Source/portable/GCC/ARM_CM4F/port.c **** 			portNVIC_SYSTICK_LOAD_REG = portNVIC_SYSTICK_CURRENT_VALUE_REG;
 549:/home/rdu/Workspace/project_templates/mcu/stm32_ws/src/libraries/FreeRTOS/Source/portable/GCC/ARM_CM4F/port.c **** 
 550:/home/rdu/Workspace/project_templates/mcu/stm32_ws/src/libraries/FreeRTOS/Source/portable/GCC/ARM_CM4F/port.c **** 			/* Restart SysTick. */
 551:/home/rdu/Workspace/project_templates/mcu/stm32_ws/src/libraries/FreeRTOS/Source/portable/GCC/ARM_CM4F/port.c **** 			portNVIC_SYSTICK_CTRL_REG |= portNVIC_SYSTICK_ENABLE_BIT;
 552:/home/rdu/Workspace/project_templates/mcu/stm32_ws/src/libraries/FreeRTOS/Source/portable/GCC/ARM_CM4F/port.c **** 
 553:/home/rdu/Workspace/project_templates/mcu/stm32_ws/src/libraries/FreeRTOS/Source/portable/GCC/ARM_CM4F/port.c **** 			/* Reset the reload register to the value required for normal tick
 554:/home/rdu/Workspace/project_templates/mcu/stm32_ws/src/libraries/FreeRTOS/Source/portable/GCC/ARM_CM4F/port.c **** 			periods. */
 555:/home/rdu/Workspace/project_templates/mcu/stm32_ws/src/libraries/FreeRTOS/Source/portable/GCC/ARM_CM4F/port.c **** 			portNVIC_SYSTICK_LOAD_REG = ulTimerCountsForOneTick - 1UL;
 556:/home/rdu/Workspace/project_templates/mcu/stm32_ws/src/libraries/FreeRTOS/Source/portable/GCC/ARM_CM4F/port.c **** 
 557:/home/rdu/Workspace/project_templates/mcu/stm32_ws/src/libraries/FreeRTOS/Source/portable/GCC/ARM_CM4F/port.c **** 			/* Re-enable interrupts - see comments above the cpsid instruction()
 558:/home/rdu/Workspace/project_templates/mcu/stm32_ws/src/libraries/FreeRTOS/Source/portable/GCC/ARM_CM4F/port.c **** 			above. */
 559:/home/rdu/Workspace/project_templates/mcu/stm32_ws/src/libraries/FreeRTOS/Source/portable/GCC/ARM_CM4F/port.c **** 			__asm volatile( "cpsie i" ::: "memory" );
 560:/home/rdu/Workspace/project_templates/mcu/stm32_ws/src/libraries/FreeRTOS/Source/portable/GCC/ARM_CM4F/port.c **** 		}
 561:/home/rdu/Workspace/project_templates/mcu/stm32_ws/src/libraries/FreeRTOS/Source/portable/GCC/ARM_CM4F/port.c **** 		else
 562:/home/rdu/Workspace/project_templates/mcu/stm32_ws/src/libraries/FreeRTOS/Source/portable/GCC/ARM_CM4F/port.c **** 		{
 563:/home/rdu/Workspace/project_templates/mcu/stm32_ws/src/libraries/FreeRTOS/Source/portable/GCC/ARM_CM4F/port.c **** 			/* Set the new reload value. */
 564:/home/rdu/Workspace/project_templates/mcu/stm32_ws/src/libraries/FreeRTOS/Source/portable/GCC/ARM_CM4F/port.c **** 			portNVIC_SYSTICK_LOAD_REG = ulReloadValue;
 565:/home/rdu/Workspace/project_templates/mcu/stm32_ws/src/libraries/FreeRTOS/Source/portable/GCC/ARM_CM4F/port.c **** 
 566:/home/rdu/Workspace/project_templates/mcu/stm32_ws/src/libraries/FreeRTOS/Source/portable/GCC/ARM_CM4F/port.c **** 			/* Clear the SysTick count flag and set the count value back to
 567:/home/rdu/Workspace/project_templates/mcu/stm32_ws/src/libraries/FreeRTOS/Source/portable/GCC/ARM_CM4F/port.c **** 			zero. */
 568:/home/rdu/Workspace/project_templates/mcu/stm32_ws/src/libraries/FreeRTOS/Source/portable/GCC/ARM_CM4F/port.c **** 			portNVIC_SYSTICK_CURRENT_VALUE_REG = 0UL;
 569:/home/rdu/Workspace/project_templates/mcu/stm32_ws/src/libraries/FreeRTOS/Source/portable/GCC/ARM_CM4F/port.c **** 
 570:/home/rdu/Workspace/project_templates/mcu/stm32_ws/src/libraries/FreeRTOS/Source/portable/GCC/ARM_CM4F/port.c **** 			/* Restart SysTick. */
 571:/home/rdu/Workspace/project_templates/mcu/stm32_ws/src/libraries/FreeRTOS/Source/portable/GCC/ARM_CM4F/port.c **** 			portNVIC_SYSTICK_CTRL_REG |= portNVIC_SYSTICK_ENABLE_BIT;
 572:/home/rdu/Workspace/project_templates/mcu/stm32_ws/src/libraries/FreeRTOS/Source/portable/GCC/ARM_CM4F/port.c **** 
 573:/home/rdu/Workspace/project_templates/mcu/stm32_ws/src/libraries/FreeRTOS/Source/portable/GCC/ARM_CM4F/port.c **** 			/* Sleep until something happens.  configPRE_SLEEP_PROCESSING() can
 574:/home/rdu/Workspace/project_templates/mcu/stm32_ws/src/libraries/FreeRTOS/Source/portable/GCC/ARM_CM4F/port.c **** 			set its parameter to 0 to indicate that its implementation contains
 575:/home/rdu/Workspace/project_templates/mcu/stm32_ws/src/libraries/FreeRTOS/Source/portable/GCC/ARM_CM4F/port.c **** 			its own wait for interrupt or wait for event instruction, and so wfi
 576:/home/rdu/Workspace/project_templates/mcu/stm32_ws/src/libraries/FreeRTOS/Source/portable/GCC/ARM_CM4F/port.c **** 			should not be executed again.  However, the original expected idle
 577:/home/rdu/Workspace/project_templates/mcu/stm32_ws/src/libraries/FreeRTOS/Source/portable/GCC/ARM_CM4F/port.c **** 			time variable must remain unmodified, so a copy is taken. */
 578:/home/rdu/Workspace/project_templates/mcu/stm32_ws/src/libraries/FreeRTOS/Source/portable/GCC/ARM_CM4F/port.c **** 			xModifiableIdleTime = xExpectedIdleTime;
 579:/home/rdu/Workspace/project_templates/mcu/stm32_ws/src/libraries/FreeRTOS/Source/portable/GCC/ARM_CM4F/port.c **** 			configPRE_SLEEP_PROCESSING( xModifiableIdleTime );
 580:/home/rdu/Workspace/project_templates/mcu/stm32_ws/src/libraries/FreeRTOS/Source/portable/GCC/ARM_CM4F/port.c **** 			if( xModifiableIdleTime > 0 )
 581:/home/rdu/Workspace/project_templates/mcu/stm32_ws/src/libraries/FreeRTOS/Source/portable/GCC/ARM_CM4F/port.c **** 			{
 582:/home/rdu/Workspace/project_templates/mcu/stm32_ws/src/libraries/FreeRTOS/Source/portable/GCC/ARM_CM4F/port.c **** 				__asm volatile( "dsb" ::: "memory" );
 583:/home/rdu/Workspace/project_templates/mcu/stm32_ws/src/libraries/FreeRTOS/Source/portable/GCC/ARM_CM4F/port.c **** 				__asm volatile( "wfi" );
 584:/home/rdu/Workspace/project_templates/mcu/stm32_ws/src/libraries/FreeRTOS/Source/portable/GCC/ARM_CM4F/port.c **** 				__asm volatile( "isb" );
 585:/home/rdu/Workspace/project_templates/mcu/stm32_ws/src/libraries/FreeRTOS/Source/portable/GCC/ARM_CM4F/port.c **** 			}
 586:/home/rdu/Workspace/project_templates/mcu/stm32_ws/src/libraries/FreeRTOS/Source/portable/GCC/ARM_CM4F/port.c **** 			configPOST_SLEEP_PROCESSING( xExpectedIdleTime );
 587:/home/rdu/Workspace/project_templates/mcu/stm32_ws/src/libraries/FreeRTOS/Source/portable/GCC/ARM_CM4F/port.c **** 
 588:/home/rdu/Workspace/project_templates/mcu/stm32_ws/src/libraries/FreeRTOS/Source/portable/GCC/ARM_CM4F/port.c **** 			/* Re-enable interrupts to allow the interrupt that brought the MCU
 589:/home/rdu/Workspace/project_templates/mcu/stm32_ws/src/libraries/FreeRTOS/Source/portable/GCC/ARM_CM4F/port.c **** 			out of sleep mode to execute immediately.  see comments above
 590:/home/rdu/Workspace/project_templates/mcu/stm32_ws/src/libraries/FreeRTOS/Source/portable/GCC/ARM_CM4F/port.c **** 			__disable_interrupt() call above. */
 591:/home/rdu/Workspace/project_templates/mcu/stm32_ws/src/libraries/FreeRTOS/Source/portable/GCC/ARM_CM4F/port.c **** 			__asm volatile( "cpsie i" ::: "memory" );
 592:/home/rdu/Workspace/project_templates/mcu/stm32_ws/src/libraries/FreeRTOS/Source/portable/GCC/ARM_CM4F/port.c **** 			__asm volatile( "dsb" );
 593:/home/rdu/Workspace/project_templates/mcu/stm32_ws/src/libraries/FreeRTOS/Source/portable/GCC/ARM_CM4F/port.c **** 			__asm volatile( "isb" );
 594:/home/rdu/Workspace/project_templates/mcu/stm32_ws/src/libraries/FreeRTOS/Source/portable/GCC/ARM_CM4F/port.c **** 
 595:/home/rdu/Workspace/project_templates/mcu/stm32_ws/src/libraries/FreeRTOS/Source/portable/GCC/ARM_CM4F/port.c **** 			/* Disable interrupts again because the clock is about to be stopped
 596:/home/rdu/Workspace/project_templates/mcu/stm32_ws/src/libraries/FreeRTOS/Source/portable/GCC/ARM_CM4F/port.c **** 			and interrupts that execute while the clock is stopped will increase
 597:/home/rdu/Workspace/project_templates/mcu/stm32_ws/src/libraries/FreeRTOS/Source/portable/GCC/ARM_CM4F/port.c **** 			any slippage between the time maintained by the RTOS and calendar
 598:/home/rdu/Workspace/project_templates/mcu/stm32_ws/src/libraries/FreeRTOS/Source/portable/GCC/ARM_CM4F/port.c **** 			time. */
 599:/home/rdu/Workspace/project_templates/mcu/stm32_ws/src/libraries/FreeRTOS/Source/portable/GCC/ARM_CM4F/port.c **** 			__asm volatile( "cpsid i" ::: "memory" );
 600:/home/rdu/Workspace/project_templates/mcu/stm32_ws/src/libraries/FreeRTOS/Source/portable/GCC/ARM_CM4F/port.c **** 			__asm volatile( "dsb" );
 601:/home/rdu/Workspace/project_templates/mcu/stm32_ws/src/libraries/FreeRTOS/Source/portable/GCC/ARM_CM4F/port.c **** 			__asm volatile( "isb" );
 602:/home/rdu/Workspace/project_templates/mcu/stm32_ws/src/libraries/FreeRTOS/Source/portable/GCC/ARM_CM4F/port.c **** 
 603:/home/rdu/Workspace/project_templates/mcu/stm32_ws/src/libraries/FreeRTOS/Source/portable/GCC/ARM_CM4F/port.c **** 			/* Disable the SysTick clock without reading the
 604:/home/rdu/Workspace/project_templates/mcu/stm32_ws/src/libraries/FreeRTOS/Source/portable/GCC/ARM_CM4F/port.c **** 			portNVIC_SYSTICK_CTRL_REG register to ensure the
 605:/home/rdu/Workspace/project_templates/mcu/stm32_ws/src/libraries/FreeRTOS/Source/portable/GCC/ARM_CM4F/port.c **** 			portNVIC_SYSTICK_COUNT_FLAG_BIT is not cleared if it is set.  Again,
 606:/home/rdu/Workspace/project_templates/mcu/stm32_ws/src/libraries/FreeRTOS/Source/portable/GCC/ARM_CM4F/port.c **** 			the time the SysTick is stopped for is accounted for as best it can
 607:/home/rdu/Workspace/project_templates/mcu/stm32_ws/src/libraries/FreeRTOS/Source/portable/GCC/ARM_CM4F/port.c **** 			be, but using the tickless mode will inevitably result in some tiny
 608:/home/rdu/Workspace/project_templates/mcu/stm32_ws/src/libraries/FreeRTOS/Source/portable/GCC/ARM_CM4F/port.c **** 			drift of the time maintained by the kernel with respect to calendar
 609:/home/rdu/Workspace/project_templates/mcu/stm32_ws/src/libraries/FreeRTOS/Source/portable/GCC/ARM_CM4F/port.c **** 			time*/
 610:/home/rdu/Workspace/project_templates/mcu/stm32_ws/src/libraries/FreeRTOS/Source/portable/GCC/ARM_CM4F/port.c **** 			portNVIC_SYSTICK_CTRL_REG = ( portNVIC_SYSTICK_CLK_BIT | portNVIC_SYSTICK_INT_BIT );
 611:/home/rdu/Workspace/project_templates/mcu/stm32_ws/src/libraries/FreeRTOS/Source/portable/GCC/ARM_CM4F/port.c **** 
 612:/home/rdu/Workspace/project_templates/mcu/stm32_ws/src/libraries/FreeRTOS/Source/portable/GCC/ARM_CM4F/port.c **** 			/* Determine if the SysTick clock has already counted to zero and
 613:/home/rdu/Workspace/project_templates/mcu/stm32_ws/src/libraries/FreeRTOS/Source/portable/GCC/ARM_CM4F/port.c **** 			been set back to the current reload value (the reload back being
 614:/home/rdu/Workspace/project_templates/mcu/stm32_ws/src/libraries/FreeRTOS/Source/portable/GCC/ARM_CM4F/port.c **** 			correct for the entire expected idle time) or if the SysTick is yet
 615:/home/rdu/Workspace/project_templates/mcu/stm32_ws/src/libraries/FreeRTOS/Source/portable/GCC/ARM_CM4F/port.c **** 			to count to zero (in which case an interrupt other than the SysTick
 616:/home/rdu/Workspace/project_templates/mcu/stm32_ws/src/libraries/FreeRTOS/Source/portable/GCC/ARM_CM4F/port.c **** 			must have brought the system out of sleep mode). */
 617:/home/rdu/Workspace/project_templates/mcu/stm32_ws/src/libraries/FreeRTOS/Source/portable/GCC/ARM_CM4F/port.c **** 			if( ( portNVIC_SYSTICK_CTRL_REG & portNVIC_SYSTICK_COUNT_FLAG_BIT ) != 0 )
 618:/home/rdu/Workspace/project_templates/mcu/stm32_ws/src/libraries/FreeRTOS/Source/portable/GCC/ARM_CM4F/port.c **** 			{
 619:/home/rdu/Workspace/project_templates/mcu/stm32_ws/src/libraries/FreeRTOS/Source/portable/GCC/ARM_CM4F/port.c **** 				uint32_t ulCalculatedLoadValue;
 620:/home/rdu/Workspace/project_templates/mcu/stm32_ws/src/libraries/FreeRTOS/Source/portable/GCC/ARM_CM4F/port.c **** 
 621:/home/rdu/Workspace/project_templates/mcu/stm32_ws/src/libraries/FreeRTOS/Source/portable/GCC/ARM_CM4F/port.c **** 				/* The tick interrupt is already pending, and the SysTick count
 622:/home/rdu/Workspace/project_templates/mcu/stm32_ws/src/libraries/FreeRTOS/Source/portable/GCC/ARM_CM4F/port.c **** 				reloaded with ulReloadValue.  Reset the
 623:/home/rdu/Workspace/project_templates/mcu/stm32_ws/src/libraries/FreeRTOS/Source/portable/GCC/ARM_CM4F/port.c **** 				portNVIC_SYSTICK_LOAD_REG with whatever remains of this tick
 624:/home/rdu/Workspace/project_templates/mcu/stm32_ws/src/libraries/FreeRTOS/Source/portable/GCC/ARM_CM4F/port.c **** 				period. */
 625:/home/rdu/Workspace/project_templates/mcu/stm32_ws/src/libraries/FreeRTOS/Source/portable/GCC/ARM_CM4F/port.c **** 				ulCalculatedLoadValue = ( ulTimerCountsForOneTick - 1UL ) - ( ulReloadValue - portNVIC_SYSTICK_
 626:/home/rdu/Workspace/project_templates/mcu/stm32_ws/src/libraries/FreeRTOS/Source/portable/GCC/ARM_CM4F/port.c **** 
 627:/home/rdu/Workspace/project_templates/mcu/stm32_ws/src/libraries/FreeRTOS/Source/portable/GCC/ARM_CM4F/port.c **** 				/* Don't allow a tiny value, or values that have somehow
 628:/home/rdu/Workspace/project_templates/mcu/stm32_ws/src/libraries/FreeRTOS/Source/portable/GCC/ARM_CM4F/port.c **** 				underflowed because the post sleep hook did something
 629:/home/rdu/Workspace/project_templates/mcu/stm32_ws/src/libraries/FreeRTOS/Source/portable/GCC/ARM_CM4F/port.c **** 				that took too long. */
 630:/home/rdu/Workspace/project_templates/mcu/stm32_ws/src/libraries/FreeRTOS/Source/portable/GCC/ARM_CM4F/port.c **** 				if( ( ulCalculatedLoadValue < ulStoppedTimerCompensation ) || ( ulCalculatedLoadValue > ulTimer
 631:/home/rdu/Workspace/project_templates/mcu/stm32_ws/src/libraries/FreeRTOS/Source/portable/GCC/ARM_CM4F/port.c **** 				{
 632:/home/rdu/Workspace/project_templates/mcu/stm32_ws/src/libraries/FreeRTOS/Source/portable/GCC/ARM_CM4F/port.c **** 					ulCalculatedLoadValue = ( ulTimerCountsForOneTick - 1UL );
 633:/home/rdu/Workspace/project_templates/mcu/stm32_ws/src/libraries/FreeRTOS/Source/portable/GCC/ARM_CM4F/port.c **** 				}
 634:/home/rdu/Workspace/project_templates/mcu/stm32_ws/src/libraries/FreeRTOS/Source/portable/GCC/ARM_CM4F/port.c **** 
 635:/home/rdu/Workspace/project_templates/mcu/stm32_ws/src/libraries/FreeRTOS/Source/portable/GCC/ARM_CM4F/port.c **** 				portNVIC_SYSTICK_LOAD_REG = ulCalculatedLoadValue;
 636:/home/rdu/Workspace/project_templates/mcu/stm32_ws/src/libraries/FreeRTOS/Source/portable/GCC/ARM_CM4F/port.c **** 
 637:/home/rdu/Workspace/project_templates/mcu/stm32_ws/src/libraries/FreeRTOS/Source/portable/GCC/ARM_CM4F/port.c **** 				/* As the pending tick will be processed as soon as this
 638:/home/rdu/Workspace/project_templates/mcu/stm32_ws/src/libraries/FreeRTOS/Source/portable/GCC/ARM_CM4F/port.c **** 				function exits, the tick value maintained by the tick is stepped
 639:/home/rdu/Workspace/project_templates/mcu/stm32_ws/src/libraries/FreeRTOS/Source/portable/GCC/ARM_CM4F/port.c **** 				forward by one less than the time spent waiting. */
 640:/home/rdu/Workspace/project_templates/mcu/stm32_ws/src/libraries/FreeRTOS/Source/portable/GCC/ARM_CM4F/port.c **** 				ulCompleteTickPeriods = xExpectedIdleTime - 1UL;
 641:/home/rdu/Workspace/project_templates/mcu/stm32_ws/src/libraries/FreeRTOS/Source/portable/GCC/ARM_CM4F/port.c **** 			}
 642:/home/rdu/Workspace/project_templates/mcu/stm32_ws/src/libraries/FreeRTOS/Source/portable/GCC/ARM_CM4F/port.c **** 			else
 643:/home/rdu/Workspace/project_templates/mcu/stm32_ws/src/libraries/FreeRTOS/Source/portable/GCC/ARM_CM4F/port.c **** 			{
 644:/home/rdu/Workspace/project_templates/mcu/stm32_ws/src/libraries/FreeRTOS/Source/portable/GCC/ARM_CM4F/port.c **** 				/* Something other than the tick interrupt ended the sleep.
 645:/home/rdu/Workspace/project_templates/mcu/stm32_ws/src/libraries/FreeRTOS/Source/portable/GCC/ARM_CM4F/port.c **** 				Work out how long the sleep lasted rounded to complete tick
 646:/home/rdu/Workspace/project_templates/mcu/stm32_ws/src/libraries/FreeRTOS/Source/portable/GCC/ARM_CM4F/port.c **** 				periods (not the ulReload value which accounted for part
 647:/home/rdu/Workspace/project_templates/mcu/stm32_ws/src/libraries/FreeRTOS/Source/portable/GCC/ARM_CM4F/port.c **** 				ticks). */
 648:/home/rdu/Workspace/project_templates/mcu/stm32_ws/src/libraries/FreeRTOS/Source/portable/GCC/ARM_CM4F/port.c **** 				ulCompletedSysTickDecrements = ( xExpectedIdleTime * ulTimerCountsForOneTick ) - portNVIC_SYSTI
 649:/home/rdu/Workspace/project_templates/mcu/stm32_ws/src/libraries/FreeRTOS/Source/portable/GCC/ARM_CM4F/port.c **** 
 650:/home/rdu/Workspace/project_templates/mcu/stm32_ws/src/libraries/FreeRTOS/Source/portable/GCC/ARM_CM4F/port.c **** 				/* How many complete tick periods passed while the processor
 651:/home/rdu/Workspace/project_templates/mcu/stm32_ws/src/libraries/FreeRTOS/Source/portable/GCC/ARM_CM4F/port.c **** 				was waiting? */
 652:/home/rdu/Workspace/project_templates/mcu/stm32_ws/src/libraries/FreeRTOS/Source/portable/GCC/ARM_CM4F/port.c **** 				ulCompleteTickPeriods = ulCompletedSysTickDecrements / ulTimerCountsForOneTick;
 653:/home/rdu/Workspace/project_templates/mcu/stm32_ws/src/libraries/FreeRTOS/Source/portable/GCC/ARM_CM4F/port.c **** 
 654:/home/rdu/Workspace/project_templates/mcu/stm32_ws/src/libraries/FreeRTOS/Source/portable/GCC/ARM_CM4F/port.c **** 				/* The reload value is set to whatever fraction of a single tick
 655:/home/rdu/Workspace/project_templates/mcu/stm32_ws/src/libraries/FreeRTOS/Source/portable/GCC/ARM_CM4F/port.c **** 				period remains. */
 656:/home/rdu/Workspace/project_templates/mcu/stm32_ws/src/libraries/FreeRTOS/Source/portable/GCC/ARM_CM4F/port.c **** 				portNVIC_SYSTICK_LOAD_REG = ( ( ulCompleteTickPeriods + 1UL ) * ulTimerCountsForOneTick ) - ulC
 657:/home/rdu/Workspace/project_templates/mcu/stm32_ws/src/libraries/FreeRTOS/Source/portable/GCC/ARM_CM4F/port.c **** 			}
 658:/home/rdu/Workspace/project_templates/mcu/stm32_ws/src/libraries/FreeRTOS/Source/portable/GCC/ARM_CM4F/port.c **** 
 659:/home/rdu/Workspace/project_templates/mcu/stm32_ws/src/libraries/FreeRTOS/Source/portable/GCC/ARM_CM4F/port.c **** 			/* Restart SysTick so it runs from portNVIC_SYSTICK_LOAD_REG
 660:/home/rdu/Workspace/project_templates/mcu/stm32_ws/src/libraries/FreeRTOS/Source/portable/GCC/ARM_CM4F/port.c **** 			again, then set portNVIC_SYSTICK_LOAD_REG back to its standard
 661:/home/rdu/Workspace/project_templates/mcu/stm32_ws/src/libraries/FreeRTOS/Source/portable/GCC/ARM_CM4F/port.c **** 			value. */
 662:/home/rdu/Workspace/project_templates/mcu/stm32_ws/src/libraries/FreeRTOS/Source/portable/GCC/ARM_CM4F/port.c **** 			portNVIC_SYSTICK_CURRENT_VALUE_REG = 0UL;
 663:/home/rdu/Workspace/project_templates/mcu/stm32_ws/src/libraries/FreeRTOS/Source/portable/GCC/ARM_CM4F/port.c **** 			portNVIC_SYSTICK_CTRL_REG |= portNVIC_SYSTICK_ENABLE_BIT;
 664:/home/rdu/Workspace/project_templates/mcu/stm32_ws/src/libraries/FreeRTOS/Source/portable/GCC/ARM_CM4F/port.c **** 			vTaskStepTick( ulCompleteTickPeriods );
 665:/home/rdu/Workspace/project_templates/mcu/stm32_ws/src/libraries/FreeRTOS/Source/portable/GCC/ARM_CM4F/port.c **** 			portNVIC_SYSTICK_LOAD_REG = ulTimerCountsForOneTick - 1UL;
 666:/home/rdu/Workspace/project_templates/mcu/stm32_ws/src/libraries/FreeRTOS/Source/portable/GCC/ARM_CM4F/port.c **** 
 667:/home/rdu/Workspace/project_templates/mcu/stm32_ws/src/libraries/FreeRTOS/Source/portable/GCC/ARM_CM4F/port.c **** 			/* Exit with interrpts enabled. */
 668:/home/rdu/Workspace/project_templates/mcu/stm32_ws/src/libraries/FreeRTOS/Source/portable/GCC/ARM_CM4F/port.c **** 			__asm volatile( "cpsie i" ::: "memory" );
 669:/home/rdu/Workspace/project_templates/mcu/stm32_ws/src/libraries/FreeRTOS/Source/portable/GCC/ARM_CM4F/port.c **** 		}
 670:/home/rdu/Workspace/project_templates/mcu/stm32_ws/src/libraries/FreeRTOS/Source/portable/GCC/ARM_CM4F/port.c **** 	}
 671:/home/rdu/Workspace/project_templates/mcu/stm32_ws/src/libraries/FreeRTOS/Source/portable/GCC/ARM_CM4F/port.c **** 
 672:/home/rdu/Workspace/project_templates/mcu/stm32_ws/src/libraries/FreeRTOS/Source/portable/GCC/ARM_CM4F/port.c **** #endif /* #if configUSE_TICKLESS_IDLE */
 673:/home/rdu/Workspace/project_templates/mcu/stm32_ws/src/libraries/FreeRTOS/Source/portable/GCC/ARM_CM4F/port.c **** /*-----------------------------------------------------------*/
 674:/home/rdu/Workspace/project_templates/mcu/stm32_ws/src/libraries/FreeRTOS/Source/portable/GCC/ARM_CM4F/port.c **** 
 675:/home/rdu/Workspace/project_templates/mcu/stm32_ws/src/libraries/FreeRTOS/Source/portable/GCC/ARM_CM4F/port.c **** /*
 676:/home/rdu/Workspace/project_templates/mcu/stm32_ws/src/libraries/FreeRTOS/Source/portable/GCC/ARM_CM4F/port.c ****  * Setup the systick timer to generate the tick interrupts at the required
 677:/home/rdu/Workspace/project_templates/mcu/stm32_ws/src/libraries/FreeRTOS/Source/portable/GCC/ARM_CM4F/port.c ****  * frequency.
 678:/home/rdu/Workspace/project_templates/mcu/stm32_ws/src/libraries/FreeRTOS/Source/portable/GCC/ARM_CM4F/port.c ****  */
 679:/home/rdu/Workspace/project_templates/mcu/stm32_ws/src/libraries/FreeRTOS/Source/portable/GCC/ARM_CM4F/port.c **** __attribute__(( weak )) void vPortSetupTimerInterrupt( void )
 680:/home/rdu/Workspace/project_templates/mcu/stm32_ws/src/libraries/FreeRTOS/Source/portable/GCC/ARM_CM4F/port.c **** {
 883              		.loc 1 680 0
 884              		.cfi_startproc
 885              		@ args = 0, pretend = 0, frame = 0
 886              		@ frame_needed = 0, uses_anonymous_args = 0
 887              		@ link register save eliminated.
 681:/home/rdu/Workspace/project_templates/mcu/stm32_ws/src/libraries/FreeRTOS/Source/portable/GCC/ARM_CM4F/port.c **** 	/* Calculate the constants required to configure the tick interrupt. */
 682:/home/rdu/Workspace/project_templates/mcu/stm32_ws/src/libraries/FreeRTOS/Source/portable/GCC/ARM_CM4F/port.c **** 	#if( configUSE_TICKLESS_IDLE == 1 )
 683:/home/rdu/Workspace/project_templates/mcu/stm32_ws/src/libraries/FreeRTOS/Source/portable/GCC/ARM_CM4F/port.c **** 	{
 684:/home/rdu/Workspace/project_templates/mcu/stm32_ws/src/libraries/FreeRTOS/Source/portable/GCC/ARM_CM4F/port.c **** 		ulTimerCountsForOneTick = ( configSYSTICK_CLOCK_HZ / configTICK_RATE_HZ );
 685:/home/rdu/Workspace/project_templates/mcu/stm32_ws/src/libraries/FreeRTOS/Source/portable/GCC/ARM_CM4F/port.c **** 		xMaximumPossibleSuppressedTicks = portMAX_24_BIT_NUMBER / ulTimerCountsForOneTick;
 686:/home/rdu/Workspace/project_templates/mcu/stm32_ws/src/libraries/FreeRTOS/Source/portable/GCC/ARM_CM4F/port.c **** 		ulStoppedTimerCompensation = portMISSED_COUNTS_FACTOR / ( configCPU_CLOCK_HZ / configSYSTICK_CLOC
 687:/home/rdu/Workspace/project_templates/mcu/stm32_ws/src/libraries/FreeRTOS/Source/portable/GCC/ARM_CM4F/port.c **** 	}
 688:/home/rdu/Workspace/project_templates/mcu/stm32_ws/src/libraries/FreeRTOS/Source/portable/GCC/ARM_CM4F/port.c **** 	#endif /* configUSE_TICKLESS_IDLE */
 689:/home/rdu/Workspace/project_templates/mcu/stm32_ws/src/libraries/FreeRTOS/Source/portable/GCC/ARM_CM4F/port.c **** 
 690:/home/rdu/Workspace/project_templates/mcu/stm32_ws/src/libraries/FreeRTOS/Source/portable/GCC/ARM_CM4F/port.c **** 	/* Stop and clear the SysTick. */
 691:/home/rdu/Workspace/project_templates/mcu/stm32_ws/src/libraries/FreeRTOS/Source/portable/GCC/ARM_CM4F/port.c **** 	portNVIC_SYSTICK_CTRL_REG = 0UL;
 888              		.loc 1 691 0
 889 0000 094B     		ldr	r3, .L50
 890 0002 0022     		movs	r2, #0
 891 0004 1A60     		str	r2, [r3]
 692:/home/rdu/Workspace/project_templates/mcu/stm32_ws/src/libraries/FreeRTOS/Source/portable/GCC/ARM_CM4F/port.c **** 	portNVIC_SYSTICK_CURRENT_VALUE_REG = 0UL;
 892              		.loc 1 692 0
 893 0006 094B     		ldr	r3, .L50+4
 894 0008 0022     		movs	r2, #0
 895 000a 1A60     		str	r2, [r3]
 693:/home/rdu/Workspace/project_templates/mcu/stm32_ws/src/libraries/FreeRTOS/Source/portable/GCC/ARM_CM4F/port.c **** 
 694:/home/rdu/Workspace/project_templates/mcu/stm32_ws/src/libraries/FreeRTOS/Source/portable/GCC/ARM_CM4F/port.c **** 	/* Configure SysTick to interrupt at the requested rate. */
 695:/home/rdu/Workspace/project_templates/mcu/stm32_ws/src/libraries/FreeRTOS/Source/portable/GCC/ARM_CM4F/port.c **** 	portNVIC_SYSTICK_LOAD_REG = ( configSYSTICK_CLOCK_HZ / configTICK_RATE_HZ ) - 1UL;
 896              		.loc 1 695 0
 897 000c 084B     		ldr	r3, .L50+8
 898 000e 1B68     		ldr	r3, [r3]
 899 0010 084A     		ldr	r2, .L50+12
 900 0012 A2FB0323 		umull	r2, r3, r2, r3
 901 0016 9B09     		lsrs	r3, r3, #6
 902 0018 074A     		ldr	r2, .L50+16
 903 001a 013B     		subs	r3, r3, #1
 904 001c 1360     		str	r3, [r2]
 696:/home/rdu/Workspace/project_templates/mcu/stm32_ws/src/libraries/FreeRTOS/Source/portable/GCC/ARM_CM4F/port.c **** 	portNVIC_SYSTICK_CTRL_REG = ( portNVIC_SYSTICK_CLK_BIT | portNVIC_SYSTICK_INT_BIT | portNVIC_SYSTI
 905              		.loc 1 696 0
 906 001e 024B     		ldr	r3, .L50
 907 0020 0722     		movs	r2, #7
 908 0022 1A60     		str	r2, [r3]
 697:/home/rdu/Workspace/project_templates/mcu/stm32_ws/src/libraries/FreeRTOS/Source/portable/GCC/ARM_CM4F/port.c **** }
 909              		.loc 1 697 0
 910 0024 00BF     		nop
 911 0026 7047     		bx	lr
 912              	.L51:
 913              		.align	2
 914              	.L50:
 915 0028 10E000E0 		.word	-536813552
 916 002c 18E000E0 		.word	-536813544
 917 0030 00000000 		.word	SystemCoreClock
 918 0034 D34D6210 		.word	274877907
 919 0038 14E000E0 		.word	-536813548
 920              		.cfi_endproc
 921              	.LFE15:
 923              		.section	.text.vPortEnableVFP,"ax",%progbits
 924              		.align	1
 925              		.syntax unified
 926              		.thumb
 927              		.thumb_func
 928              		.fpu fpv4-sp-d16
 930              	vPortEnableVFP:
 931              	.LFB16:
 698:/home/rdu/Workspace/project_templates/mcu/stm32_ws/src/libraries/FreeRTOS/Source/portable/GCC/ARM_CM4F/port.c **** /*-----------------------------------------------------------*/
 699:/home/rdu/Workspace/project_templates/mcu/stm32_ws/src/libraries/FreeRTOS/Source/portable/GCC/ARM_CM4F/port.c **** 
 700:/home/rdu/Workspace/project_templates/mcu/stm32_ws/src/libraries/FreeRTOS/Source/portable/GCC/ARM_CM4F/port.c **** /* This is a naked function. */
 701:/home/rdu/Workspace/project_templates/mcu/stm32_ws/src/libraries/FreeRTOS/Source/portable/GCC/ARM_CM4F/port.c **** static void vPortEnableVFP( void )
 702:/home/rdu/Workspace/project_templates/mcu/stm32_ws/src/libraries/FreeRTOS/Source/portable/GCC/ARM_CM4F/port.c **** {
 932              		.loc 1 702 0
 933              		.cfi_startproc
 934              		@ Naked Function: prologue and epilogue provided by programmer.
 935              		@ args = 0, pretend = 0, frame = 0
 936              		@ frame_needed = 0, uses_anonymous_args = 0
 703:/home/rdu/Workspace/project_templates/mcu/stm32_ws/src/libraries/FreeRTOS/Source/portable/GCC/ARM_CM4F/port.c **** 	__asm volatile
 937              		.loc 1 703 0
 938              		.syntax unified
 939              	@ 703 "/home/rdu/Workspace/project_templates/mcu/stm32_ws/src/libraries/FreeRTOS/Source/portable/GC
 940 0000 DFF80C00 			ldr.w r0, =0xE000ED88		
 941 0004 0168     		ldr r1, [r0]				
 942              									
 943 0006 41F47001 		orr r1, r1, #( 0xf << 20 )	
 944 000a 0160     		str r1, [r0]				
 945 000c 7047     		bx r14						
 946              	@ 0 "" 2
 704:/home/rdu/Workspace/project_templates/mcu/stm32_ws/src/libraries/FreeRTOS/Source/portable/GCC/ARM_CM4F/port.c **** 	(
 705:/home/rdu/Workspace/project_templates/mcu/stm32_ws/src/libraries/FreeRTOS/Source/portable/GCC/ARM_CM4F/port.c **** 		"	ldr.w r0, =0xE000ED88		\n" /* The FPU enable bits are in the CPACR. */
 706:/home/rdu/Workspace/project_templates/mcu/stm32_ws/src/libraries/FreeRTOS/Source/portable/GCC/ARM_CM4F/port.c **** 		"	ldr r1, [r0]				\n"
 707:/home/rdu/Workspace/project_templates/mcu/stm32_ws/src/libraries/FreeRTOS/Source/portable/GCC/ARM_CM4F/port.c **** 		"								\n"
 708:/home/rdu/Workspace/project_templates/mcu/stm32_ws/src/libraries/FreeRTOS/Source/portable/GCC/ARM_CM4F/port.c **** 		"	orr r1, r1, #( 0xf << 20 )	\n" /* Enable CP10 and CP11 coprocessors, then save back. */
 709:/home/rdu/Workspace/project_templates/mcu/stm32_ws/src/libraries/FreeRTOS/Source/portable/GCC/ARM_CM4F/port.c **** 		"	str r1, [r0]				\n"
 710:/home/rdu/Workspace/project_templates/mcu/stm32_ws/src/libraries/FreeRTOS/Source/portable/GCC/ARM_CM4F/port.c **** 		"	bx r14						"
 711:/home/rdu/Workspace/project_templates/mcu/stm32_ws/src/libraries/FreeRTOS/Source/portable/GCC/ARM_CM4F/port.c **** 	);
 712:/home/rdu/Workspace/project_templates/mcu/stm32_ws/src/libraries/FreeRTOS/Source/portable/GCC/ARM_CM4F/port.c **** }
 947              		.loc 1 712 0
 948              		.thumb
 949              		.syntax unified
 950 000e 00BF     		nop
 951              		.cfi_endproc
 952              	.LFE16:
 954              		.section	.text.vPortValidateInterruptPriority,"ax",%progbits
 955              		.align	1
 956              		.global	vPortValidateInterruptPriority
 957              		.syntax unified
 958              		.thumb
 959              		.thumb_func
 960              		.fpu fpv4-sp-d16
 962              	vPortValidateInterruptPriority:
 963              	.LFB17:
 713:/home/rdu/Workspace/project_templates/mcu/stm32_ws/src/libraries/FreeRTOS/Source/portable/GCC/ARM_CM4F/port.c **** /*-----------------------------------------------------------*/
 714:/home/rdu/Workspace/project_templates/mcu/stm32_ws/src/libraries/FreeRTOS/Source/portable/GCC/ARM_CM4F/port.c **** 
 715:/home/rdu/Workspace/project_templates/mcu/stm32_ws/src/libraries/FreeRTOS/Source/portable/GCC/ARM_CM4F/port.c **** #if( configASSERT_DEFINED == 1 )
 716:/home/rdu/Workspace/project_templates/mcu/stm32_ws/src/libraries/FreeRTOS/Source/portable/GCC/ARM_CM4F/port.c **** 
 717:/home/rdu/Workspace/project_templates/mcu/stm32_ws/src/libraries/FreeRTOS/Source/portable/GCC/ARM_CM4F/port.c **** 	void vPortValidateInterruptPriority( void )
 718:/home/rdu/Workspace/project_templates/mcu/stm32_ws/src/libraries/FreeRTOS/Source/portable/GCC/ARM_CM4F/port.c **** 	{
 964              		.loc 1 718 0
 965              		.cfi_startproc
 966              		@ args = 0, pretend = 0, frame = 16
 967              		@ frame_needed = 0, uses_anonymous_args = 0
 968              		@ link register save eliminated.
 969 0000 84B0     		sub	sp, sp, #16
 970              	.LCFI16:
 971              		.cfi_def_cfa_offset 16
 719:/home/rdu/Workspace/project_templates/mcu/stm32_ws/src/libraries/FreeRTOS/Source/portable/GCC/ARM_CM4F/port.c **** 	uint32_t ulCurrentInterrupt;
 720:/home/rdu/Workspace/project_templates/mcu/stm32_ws/src/libraries/FreeRTOS/Source/portable/GCC/ARM_CM4F/port.c **** 	uint8_t ucCurrentPriority;
 721:/home/rdu/Workspace/project_templates/mcu/stm32_ws/src/libraries/FreeRTOS/Source/portable/GCC/ARM_CM4F/port.c **** 
 722:/home/rdu/Workspace/project_templates/mcu/stm32_ws/src/libraries/FreeRTOS/Source/portable/GCC/ARM_CM4F/port.c **** 		/* Obtain the number of the currently executing interrupt. */
 723:/home/rdu/Workspace/project_templates/mcu/stm32_ws/src/libraries/FreeRTOS/Source/portable/GCC/ARM_CM4F/port.c **** 		__asm volatile( "mrs %0, ipsr" : "=r"( ulCurrentInterrupt ) :: "memory" );
 972              		.loc 1 723 0
 973              		.syntax unified
 974              	@ 723 "/home/rdu/Workspace/project_templates/mcu/stm32_ws/src/libraries/FreeRTOS/Source/portable/GC
 975 0002 EFF30583 		mrs r3, ipsr
 976              	@ 0 "" 2
 977              		.thumb
 978              		.syntax unified
 979 0006 0393     		str	r3, [sp, #12]
 724:/home/rdu/Workspace/project_templates/mcu/stm32_ws/src/libraries/FreeRTOS/Source/portable/GCC/ARM_CM4F/port.c **** 
 725:/home/rdu/Workspace/project_templates/mcu/stm32_ws/src/libraries/FreeRTOS/Source/portable/GCC/ARM_CM4F/port.c **** 		/* Is the interrupt number a user defined interrupt? */
 726:/home/rdu/Workspace/project_templates/mcu/stm32_ws/src/libraries/FreeRTOS/Source/portable/GCC/ARM_CM4F/port.c **** 		if( ulCurrentInterrupt >= portFIRST_USER_INTERRUPT_NUMBER )
 980              		.loc 1 726 0
 981 0008 039B     		ldr	r3, [sp, #12]
 982 000a 0F2B     		cmp	r3, #15
 983 000c 15D9     		bls	.L54
 727:/home/rdu/Workspace/project_templates/mcu/stm32_ws/src/libraries/FreeRTOS/Source/portable/GCC/ARM_CM4F/port.c **** 		{
 728:/home/rdu/Workspace/project_templates/mcu/stm32_ws/src/libraries/FreeRTOS/Source/portable/GCC/ARM_CM4F/port.c **** 			/* Look up the interrupt's priority. */
 729:/home/rdu/Workspace/project_templates/mcu/stm32_ws/src/libraries/FreeRTOS/Source/portable/GCC/ARM_CM4F/port.c **** 			ucCurrentPriority = pcInterruptPriorityRegisters[ ulCurrentInterrupt ];
 984              		.loc 1 729 0
 985 000e 154A     		ldr	r2, .L59
 986 0010 039B     		ldr	r3, [sp, #12]
 987 0012 1344     		add	r3, r3, r2
 988 0014 1B78     		ldrb	r3, [r3]
 989 0016 8DF80B30 		strb	r3, [sp, #11]
 730:/home/rdu/Workspace/project_templates/mcu/stm32_ws/src/libraries/FreeRTOS/Source/portable/GCC/ARM_CM4F/port.c **** 
 731:/home/rdu/Workspace/project_templates/mcu/stm32_ws/src/libraries/FreeRTOS/Source/portable/GCC/ARM_CM4F/port.c **** 			/* The following assertion will fail if a service routine (ISR) for
 732:/home/rdu/Workspace/project_templates/mcu/stm32_ws/src/libraries/FreeRTOS/Source/portable/GCC/ARM_CM4F/port.c **** 			an interrupt that has been assigned a priority above
 733:/home/rdu/Workspace/project_templates/mcu/stm32_ws/src/libraries/FreeRTOS/Source/portable/GCC/ARM_CM4F/port.c **** 			configMAX_SYSCALL_INTERRUPT_PRIORITY calls an ISR safe FreeRTOS API
 734:/home/rdu/Workspace/project_templates/mcu/stm32_ws/src/libraries/FreeRTOS/Source/portable/GCC/ARM_CM4F/port.c **** 			function.  ISR safe FreeRTOS API functions must *only* be called
 735:/home/rdu/Workspace/project_templates/mcu/stm32_ws/src/libraries/FreeRTOS/Source/portable/GCC/ARM_CM4F/port.c **** 			from interrupts that have been assigned a priority at or below
 736:/home/rdu/Workspace/project_templates/mcu/stm32_ws/src/libraries/FreeRTOS/Source/portable/GCC/ARM_CM4F/port.c **** 			configMAX_SYSCALL_INTERRUPT_PRIORITY.
 737:/home/rdu/Workspace/project_templates/mcu/stm32_ws/src/libraries/FreeRTOS/Source/portable/GCC/ARM_CM4F/port.c **** 
 738:/home/rdu/Workspace/project_templates/mcu/stm32_ws/src/libraries/FreeRTOS/Source/portable/GCC/ARM_CM4F/port.c **** 			Numerically low interrupt priority numbers represent logically high
 739:/home/rdu/Workspace/project_templates/mcu/stm32_ws/src/libraries/FreeRTOS/Source/portable/GCC/ARM_CM4F/port.c **** 			interrupt priorities, therefore the priority of the interrupt must
 740:/home/rdu/Workspace/project_templates/mcu/stm32_ws/src/libraries/FreeRTOS/Source/portable/GCC/ARM_CM4F/port.c **** 			be set to a value equal to or numerically *higher* than
 741:/home/rdu/Workspace/project_templates/mcu/stm32_ws/src/libraries/FreeRTOS/Source/portable/GCC/ARM_CM4F/port.c **** 			configMAX_SYSCALL_INTERRUPT_PRIORITY.
 742:/home/rdu/Workspace/project_templates/mcu/stm32_ws/src/libraries/FreeRTOS/Source/portable/GCC/ARM_CM4F/port.c **** 
 743:/home/rdu/Workspace/project_templates/mcu/stm32_ws/src/libraries/FreeRTOS/Source/portable/GCC/ARM_CM4F/port.c **** 			Interrupts that	use the FreeRTOS API must not be left at their
 744:/home/rdu/Workspace/project_templates/mcu/stm32_ws/src/libraries/FreeRTOS/Source/portable/GCC/ARM_CM4F/port.c **** 			default priority of	zero as that is the highest possible priority,
 745:/home/rdu/Workspace/project_templates/mcu/stm32_ws/src/libraries/FreeRTOS/Source/portable/GCC/ARM_CM4F/port.c **** 			which is guaranteed to be above configMAX_SYSCALL_INTERRUPT_PRIORITY,
 746:/home/rdu/Workspace/project_templates/mcu/stm32_ws/src/libraries/FreeRTOS/Source/portable/GCC/ARM_CM4F/port.c **** 			and	therefore also guaranteed to be invalid.
 747:/home/rdu/Workspace/project_templates/mcu/stm32_ws/src/libraries/FreeRTOS/Source/portable/GCC/ARM_CM4F/port.c **** 
 748:/home/rdu/Workspace/project_templates/mcu/stm32_ws/src/libraries/FreeRTOS/Source/portable/GCC/ARM_CM4F/port.c **** 			FreeRTOS maintains separate thread and ISR API functions to ensure
 749:/home/rdu/Workspace/project_templates/mcu/stm32_ws/src/libraries/FreeRTOS/Source/portable/GCC/ARM_CM4F/port.c **** 			interrupt entry is as fast and simple as possible.
 750:/home/rdu/Workspace/project_templates/mcu/stm32_ws/src/libraries/FreeRTOS/Source/portable/GCC/ARM_CM4F/port.c **** 
 751:/home/rdu/Workspace/project_templates/mcu/stm32_ws/src/libraries/FreeRTOS/Source/portable/GCC/ARM_CM4F/port.c **** 			The following links provide detailed information:
 752:/home/rdu/Workspace/project_templates/mcu/stm32_ws/src/libraries/FreeRTOS/Source/portable/GCC/ARM_CM4F/port.c **** 			http://www.freertos.org/RTOS-Cortex-M3-M4.html
 753:/home/rdu/Workspace/project_templates/mcu/stm32_ws/src/libraries/FreeRTOS/Source/portable/GCC/ARM_CM4F/port.c **** 			http://www.freertos.org/FAQHelp.html */
 754:/home/rdu/Workspace/project_templates/mcu/stm32_ws/src/libraries/FreeRTOS/Source/portable/GCC/ARM_CM4F/port.c **** 			configASSERT( ucCurrentPriority >= ucMaxSysCallPriority );
 990              		.loc 1 754 0
 991 001a 134B     		ldr	r3, .L59+4
 992 001c 1B78     		ldrb	r3, [r3]	@ zero_extendqisi2
 993 001e 9DF80B20 		ldrb	r2, [sp, #11]	@ zero_extendqisi2
 994 0022 9A42     		cmp	r2, r3
 995 0024 09D2     		bcs	.L54
 996              	.LBB56:
 997              	.LBB57:
 195:/home/rdu/Workspace/project_templates/mcu/stm32_ws/src/libraries/FreeRTOS/Source/portable/GCC/ARM_CM4F/portmacro.h **** 	(
 998              		.loc 2 195 0 discriminator 1
 999              		.syntax unified
 1000              	@ 195 "/home/rdu/Workspace/project_templates/mcu/stm32_ws/src/libraries/FreeRTOS/Source/portable/GC
 1001 0026 4FF05003 			mov r3, #80												
 1002 002a 83F31188 		msr basepri, r3											
 1003 002e BFF36F8F 		isb														
 1004 0032 BFF34F8F 		dsb														
 1005              	
 1006              	@ 0 "" 2
 1007              		.thumb
 1008              		.syntax unified
 1009 0036 0193     		str	r3, [sp, #4]
 1010              	.L55:
 1011              	.LBE57:
 1012              	.LBE56:
 1013              		.loc 1 754 0 discriminator 1
 1014 0038 FEE7     		b	.L55
 1015              	.L54:
 755:/home/rdu/Workspace/project_templates/mcu/stm32_ws/src/libraries/FreeRTOS/Source/portable/GCC/ARM_CM4F/port.c **** 		}
 756:/home/rdu/Workspace/project_templates/mcu/stm32_ws/src/libraries/FreeRTOS/Source/portable/GCC/ARM_CM4F/port.c **** 
 757:/home/rdu/Workspace/project_templates/mcu/stm32_ws/src/libraries/FreeRTOS/Source/portable/GCC/ARM_CM4F/port.c **** 		/* Priority grouping:  The interrupt controller (NVIC) allows the bits
 758:/home/rdu/Workspace/project_templates/mcu/stm32_ws/src/libraries/FreeRTOS/Source/portable/GCC/ARM_CM4F/port.c **** 		that define each interrupt's priority to be split between bits that
 759:/home/rdu/Workspace/project_templates/mcu/stm32_ws/src/libraries/FreeRTOS/Source/portable/GCC/ARM_CM4F/port.c **** 		define the interrupt's pre-emption priority bits and bits that define
 760:/home/rdu/Workspace/project_templates/mcu/stm32_ws/src/libraries/FreeRTOS/Source/portable/GCC/ARM_CM4F/port.c **** 		the interrupt's sub-priority.  For simplicity all bits must be defined
 761:/home/rdu/Workspace/project_templates/mcu/stm32_ws/src/libraries/FreeRTOS/Source/portable/GCC/ARM_CM4F/port.c **** 		to be pre-emption priority bits.  The following assertion will fail if
 762:/home/rdu/Workspace/project_templates/mcu/stm32_ws/src/libraries/FreeRTOS/Source/portable/GCC/ARM_CM4F/port.c **** 		this is not the case (if some bits represent a sub-priority).
 763:/home/rdu/Workspace/project_templates/mcu/stm32_ws/src/libraries/FreeRTOS/Source/portable/GCC/ARM_CM4F/port.c **** 
 764:/home/rdu/Workspace/project_templates/mcu/stm32_ws/src/libraries/FreeRTOS/Source/portable/GCC/ARM_CM4F/port.c **** 		If the application only uses CMSIS libraries for interrupt
 765:/home/rdu/Workspace/project_templates/mcu/stm32_ws/src/libraries/FreeRTOS/Source/portable/GCC/ARM_CM4F/port.c **** 		configuration then the correct setting can be achieved on all Cortex-M
 766:/home/rdu/Workspace/project_templates/mcu/stm32_ws/src/libraries/FreeRTOS/Source/portable/GCC/ARM_CM4F/port.c **** 		devices by calling NVIC_SetPriorityGrouping( 0 ); before starting the
 767:/home/rdu/Workspace/project_templates/mcu/stm32_ws/src/libraries/FreeRTOS/Source/portable/GCC/ARM_CM4F/port.c **** 		scheduler.  Note however that some vendor specific peripheral libraries
 768:/home/rdu/Workspace/project_templates/mcu/stm32_ws/src/libraries/FreeRTOS/Source/portable/GCC/ARM_CM4F/port.c **** 		assume a non-zero priority group setting, in which cases using a value
 769:/home/rdu/Workspace/project_templates/mcu/stm32_ws/src/libraries/FreeRTOS/Source/portable/GCC/ARM_CM4F/port.c **** 		of zero will result in unpredictable behaviour. */
 770:/home/rdu/Workspace/project_templates/mcu/stm32_ws/src/libraries/FreeRTOS/Source/portable/GCC/ARM_CM4F/port.c **** 		configASSERT( ( portAIRCR_REG & portPRIORITY_GROUP_MASK ) <= ulMaxPRIGROUPValue );
 1016              		.loc 1 770 0
 1017 003a 0C4B     		ldr	r3, .L59+8
 1018 003c 1B68     		ldr	r3, [r3]
 1019 003e 03F4E062 		and	r2, r3, #1792
 1020 0042 0B4B     		ldr	r3, .L59+12
 1021 0044 1B68     		ldr	r3, [r3]
 1022 0046 9A42     		cmp	r2, r3
 1023 0048 09D9     		bls	.L58
 1024              	.LBB58:
 1025              	.LBB59:
 195:/home/rdu/Workspace/project_templates/mcu/stm32_ws/src/libraries/FreeRTOS/Source/portable/GCC/ARM_CM4F/portmacro.h **** 	(
 1026              		.loc 2 195 0 discriminator 1
 1027              		.syntax unified
 1028              	@ 195 "/home/rdu/Workspace/project_templates/mcu/stm32_ws/src/libraries/FreeRTOS/Source/portable/GC
 1029 004a 4FF05003 			mov r3, #80												
 1030 004e 83F31188 		msr basepri, r3											
 1031 0052 BFF36F8F 		isb														
 1032 0056 BFF34F8F 		dsb														
 1033              	
 1034              	@ 0 "" 2
 1035              		.thumb
 1036              		.syntax unified
 1037 005a 0093     		str	r3, [sp]
 1038              	.L57:
 1039              	.LBE59:
 1040              	.LBE58:
 1041              		.loc 1 770 0 discriminator 2
 1042 005c FEE7     		b	.L57
 1043              	.L58:
 771:/home/rdu/Workspace/project_templates/mcu/stm32_ws/src/libraries/FreeRTOS/Source/portable/GCC/ARM_CM4F/port.c **** 	}
 1044              		.loc 1 771 0
 1045 005e 00BF     		nop
 1046 0060 04B0     		add	sp, sp, #16
 1047              	.LCFI17:
 1048              		.cfi_def_cfa_offset 0
 1049              		@ sp needed
 1050 0062 7047     		bx	lr
 1051              	.L60:
 1052              		.align	2
 1053              	.L59:
 1054 0064 F0E300E0 		.word	-536812560
 1055 0068 00000000 		.word	ucMaxSysCallPriority
 1056 006c 0CED00E0 		.word	-536810228
 1057 0070 00000000 		.word	ulMaxPRIGROUPValue
 1058              		.cfi_endproc
 1059              	.LFE17:
 1061              		.text
 1062              	.Letext0:
 1063              		.file 3 "/home/rdu/Software/gcc-arm-none-eabi-7-2017-q4-major/arm-none-eabi/include/machine/_defau
 1064              		.file 4 "/home/rdu/Software/gcc-arm-none-eabi-7-2017-q4-major/arm-none-eabi/include/sys/_stdint.h"
 1065              		.file 5 "/home/rdu/Workspace/project_templates/mcu/stm32_ws/src/libraries/FreeRTOS/Source/include/
 1066              		.file 6 "/home/rdu/Workspace/project_templates/mcu/stm32_ws/src/targets/racer_core/firmware/config