   1              		.cpu cortex-m4
   2              		.eabi_attribute 27, 1
   3              		.eabi_attribute 28, 1
   4              		.eabi_attribute 23, 1
   5              		.eabi_attribute 24, 1
   6              		.eabi_attribute 25, 1
   7              		.eabi_attribute 26, 1
   8              		.eabi_attribute 30, 6
   9              		.eabi_attribute 34, 1
  10              		.eabi_attribute 18, 4
  11              		.file	"queue.c"
  12              		.text
  13              	.Ltext0:
  14              		.cfi_sections	.debug_frame
  15              		.comm	xQueueRegistry,64,4
  16              		.section	.text.xQueueGenericReset,"ax",%progbits
  17              		.align	1
  18              		.global	xQueueGenericReset
  19              		.syntax unified
  20              		.thumb
  21              		.thumb_func
  22              		.fpu fpv4-sp-d16
  24              	xQueueGenericReset:
  25              	.LFB5:
  26              		.file 1 "/home/rdu/Workspace/project_templates/mcu/stm32_ws/src/libraries/FreeRTOS/Source/queue.c"
   1:/home/rdu/Workspace/project_templates/mcu/stm32_ws/src/libraries/FreeRTOS/Source/queue.c **** /*
   2:/home/rdu/Workspace/project_templates/mcu/stm32_ws/src/libraries/FreeRTOS/Source/queue.c ****  * FreeRTOS Kernel V10.1.1
   3:/home/rdu/Workspace/project_templates/mcu/stm32_ws/src/libraries/FreeRTOS/Source/queue.c ****  * Copyright (C) 2018 Amazon.com, Inc. or its affiliates.  All Rights Reserved.
   4:/home/rdu/Workspace/project_templates/mcu/stm32_ws/src/libraries/FreeRTOS/Source/queue.c ****  *
   5:/home/rdu/Workspace/project_templates/mcu/stm32_ws/src/libraries/FreeRTOS/Source/queue.c ****  * Permission is hereby granted, free of charge, to any person obtaining a copy of
   6:/home/rdu/Workspace/project_templates/mcu/stm32_ws/src/libraries/FreeRTOS/Source/queue.c ****  * this software and associated documentation files (the "Software"), to deal in
   7:/home/rdu/Workspace/project_templates/mcu/stm32_ws/src/libraries/FreeRTOS/Source/queue.c ****  * the Software without restriction, including without limitation the rights to
   8:/home/rdu/Workspace/project_templates/mcu/stm32_ws/src/libraries/FreeRTOS/Source/queue.c ****  * use, copy, modify, merge, publish, distribute, sublicense, and/or sell copies of
   9:/home/rdu/Workspace/project_templates/mcu/stm32_ws/src/libraries/FreeRTOS/Source/queue.c ****  * the Software, and to permit persons to whom the Software is furnished to do so,
  10:/home/rdu/Workspace/project_templates/mcu/stm32_ws/src/libraries/FreeRTOS/Source/queue.c ****  * subject to the following conditions:
  11:/home/rdu/Workspace/project_templates/mcu/stm32_ws/src/libraries/FreeRTOS/Source/queue.c ****  *
  12:/home/rdu/Workspace/project_templates/mcu/stm32_ws/src/libraries/FreeRTOS/Source/queue.c ****  * The above copyright notice and this permission notice shall be included in all
  13:/home/rdu/Workspace/project_templates/mcu/stm32_ws/src/libraries/FreeRTOS/Source/queue.c ****  * copies or substantial portions of the Software.
  14:/home/rdu/Workspace/project_templates/mcu/stm32_ws/src/libraries/FreeRTOS/Source/queue.c ****  *
  15:/home/rdu/Workspace/project_templates/mcu/stm32_ws/src/libraries/FreeRTOS/Source/queue.c ****  * THE SOFTWARE IS PROVIDED "AS IS", WITHOUT WARRANTY OF ANY KIND, EXPRESS OR
  16:/home/rdu/Workspace/project_templates/mcu/stm32_ws/src/libraries/FreeRTOS/Source/queue.c ****  * IMPLIED, INCLUDING BUT NOT LIMITED TO THE WARRANTIES OF MERCHANTABILITY, FITNESS
  17:/home/rdu/Workspace/project_templates/mcu/stm32_ws/src/libraries/FreeRTOS/Source/queue.c ****  * FOR A PARTICULAR PURPOSE AND NONINFRINGEMENT. IN NO EVENT SHALL THE AUTHORS OR
  18:/home/rdu/Workspace/project_templates/mcu/stm32_ws/src/libraries/FreeRTOS/Source/queue.c ****  * COPYRIGHT HOLDERS BE LIABLE FOR ANY CLAIM, DAMAGES OR OTHER LIABILITY, WHETHER
  19:/home/rdu/Workspace/project_templates/mcu/stm32_ws/src/libraries/FreeRTOS/Source/queue.c ****  * IN AN ACTION OF CONTRACT, TORT OR OTHERWISE, ARISING FROM, OUT OF OR IN
  20:/home/rdu/Workspace/project_templates/mcu/stm32_ws/src/libraries/FreeRTOS/Source/queue.c ****  * CONNECTION WITH THE SOFTWARE OR THE USE OR OTHER DEALINGS IN THE SOFTWARE.
  21:/home/rdu/Workspace/project_templates/mcu/stm32_ws/src/libraries/FreeRTOS/Source/queue.c ****  *
  22:/home/rdu/Workspace/project_templates/mcu/stm32_ws/src/libraries/FreeRTOS/Source/queue.c ****  * http://www.FreeRTOS.org
  23:/home/rdu/Workspace/project_templates/mcu/stm32_ws/src/libraries/FreeRTOS/Source/queue.c ****  * http://aws.amazon.com/freertos
  24:/home/rdu/Workspace/project_templates/mcu/stm32_ws/src/libraries/FreeRTOS/Source/queue.c ****  *
  25:/home/rdu/Workspace/project_templates/mcu/stm32_ws/src/libraries/FreeRTOS/Source/queue.c ****  * 1 tab == 4 spaces!
  26:/home/rdu/Workspace/project_templates/mcu/stm32_ws/src/libraries/FreeRTOS/Source/queue.c ****  */
  27:/home/rdu/Workspace/project_templates/mcu/stm32_ws/src/libraries/FreeRTOS/Source/queue.c **** 
  28:/home/rdu/Workspace/project_templates/mcu/stm32_ws/src/libraries/FreeRTOS/Source/queue.c **** #include <stdlib.h>
  29:/home/rdu/Workspace/project_templates/mcu/stm32_ws/src/libraries/FreeRTOS/Source/queue.c **** #include <string.h>
  30:/home/rdu/Workspace/project_templates/mcu/stm32_ws/src/libraries/FreeRTOS/Source/queue.c **** 
  31:/home/rdu/Workspace/project_templates/mcu/stm32_ws/src/libraries/FreeRTOS/Source/queue.c **** /* Defining MPU_WRAPPERS_INCLUDED_FROM_API_FILE prevents task.h from redefining
  32:/home/rdu/Workspace/project_templates/mcu/stm32_ws/src/libraries/FreeRTOS/Source/queue.c **** all the API functions to use the MPU wrappers.  That should only be done when
  33:/home/rdu/Workspace/project_templates/mcu/stm32_ws/src/libraries/FreeRTOS/Source/queue.c **** task.h is included from an application file. */
  34:/home/rdu/Workspace/project_templates/mcu/stm32_ws/src/libraries/FreeRTOS/Source/queue.c **** #define MPU_WRAPPERS_INCLUDED_FROM_API_FILE
  35:/home/rdu/Workspace/project_templates/mcu/stm32_ws/src/libraries/FreeRTOS/Source/queue.c **** 
  36:/home/rdu/Workspace/project_templates/mcu/stm32_ws/src/libraries/FreeRTOS/Source/queue.c **** #include "FreeRTOS.h"
  37:/home/rdu/Workspace/project_templates/mcu/stm32_ws/src/libraries/FreeRTOS/Source/queue.c **** #include "task.h"
  38:/home/rdu/Workspace/project_templates/mcu/stm32_ws/src/libraries/FreeRTOS/Source/queue.c **** #include "queue.h"
  39:/home/rdu/Workspace/project_templates/mcu/stm32_ws/src/libraries/FreeRTOS/Source/queue.c **** 
  40:/home/rdu/Workspace/project_templates/mcu/stm32_ws/src/libraries/FreeRTOS/Source/queue.c **** #if ( configUSE_CO_ROUTINES == 1 )
  41:/home/rdu/Workspace/project_templates/mcu/stm32_ws/src/libraries/FreeRTOS/Source/queue.c **** 	#include "croutine.h"
  42:/home/rdu/Workspace/project_templates/mcu/stm32_ws/src/libraries/FreeRTOS/Source/queue.c **** #endif
  43:/home/rdu/Workspace/project_templates/mcu/stm32_ws/src/libraries/FreeRTOS/Source/queue.c **** 
  44:/home/rdu/Workspace/project_templates/mcu/stm32_ws/src/libraries/FreeRTOS/Source/queue.c **** /* Lint e9021, e961 and e750 are suppressed as a MISRA exception justified
  45:/home/rdu/Workspace/project_templates/mcu/stm32_ws/src/libraries/FreeRTOS/Source/queue.c **** because the MPU ports require MPU_WRAPPERS_INCLUDED_FROM_API_FILE to be defined
  46:/home/rdu/Workspace/project_templates/mcu/stm32_ws/src/libraries/FreeRTOS/Source/queue.c **** for the header files above, but not in this file, in order to generate the
  47:/home/rdu/Workspace/project_templates/mcu/stm32_ws/src/libraries/FreeRTOS/Source/queue.c **** correct privileged Vs unprivileged linkage and placement. */
  48:/home/rdu/Workspace/project_templates/mcu/stm32_ws/src/libraries/FreeRTOS/Source/queue.c **** #undef MPU_WRAPPERS_INCLUDED_FROM_API_FILE /*lint !e961 !e750 !e9021. */
  49:/home/rdu/Workspace/project_templates/mcu/stm32_ws/src/libraries/FreeRTOS/Source/queue.c **** 
  50:/home/rdu/Workspace/project_templates/mcu/stm32_ws/src/libraries/FreeRTOS/Source/queue.c **** 
  51:/home/rdu/Workspace/project_templates/mcu/stm32_ws/src/libraries/FreeRTOS/Source/queue.c **** /* Constants used with the cRxLock and cTxLock structure members. */
  52:/home/rdu/Workspace/project_templates/mcu/stm32_ws/src/libraries/FreeRTOS/Source/queue.c **** #define queueUNLOCKED					( ( int8_t ) -1 )
  53:/home/rdu/Workspace/project_templates/mcu/stm32_ws/src/libraries/FreeRTOS/Source/queue.c **** #define queueLOCKED_UNMODIFIED			( ( int8_t ) 0 )
  54:/home/rdu/Workspace/project_templates/mcu/stm32_ws/src/libraries/FreeRTOS/Source/queue.c **** 
  55:/home/rdu/Workspace/project_templates/mcu/stm32_ws/src/libraries/FreeRTOS/Source/queue.c **** /* When the Queue_t structure is used to represent a base queue its pcHead and
  56:/home/rdu/Workspace/project_templates/mcu/stm32_ws/src/libraries/FreeRTOS/Source/queue.c **** pcTail members are used as pointers into the queue storage area.  When the
  57:/home/rdu/Workspace/project_templates/mcu/stm32_ws/src/libraries/FreeRTOS/Source/queue.c **** Queue_t structure is used to represent a mutex pcHead and pcTail pointers are
  58:/home/rdu/Workspace/project_templates/mcu/stm32_ws/src/libraries/FreeRTOS/Source/queue.c **** not necessary, and the pcHead pointer is set to NULL to indicate that the
  59:/home/rdu/Workspace/project_templates/mcu/stm32_ws/src/libraries/FreeRTOS/Source/queue.c **** structure instead holds a pointer to the mutex holder (if any).  Map alternative
  60:/home/rdu/Workspace/project_templates/mcu/stm32_ws/src/libraries/FreeRTOS/Source/queue.c **** names to the pcHead and structure member to ensure the readability of the code
  61:/home/rdu/Workspace/project_templates/mcu/stm32_ws/src/libraries/FreeRTOS/Source/queue.c **** is maintained.  The QueuePointers_t and SemaphoreData_t types are used to form
  62:/home/rdu/Workspace/project_templates/mcu/stm32_ws/src/libraries/FreeRTOS/Source/queue.c **** a union as their usage is mutually exclusive dependent on what the queue is
  63:/home/rdu/Workspace/project_templates/mcu/stm32_ws/src/libraries/FreeRTOS/Source/queue.c **** being used for. */
  64:/home/rdu/Workspace/project_templates/mcu/stm32_ws/src/libraries/FreeRTOS/Source/queue.c **** #define uxQueueType						pcHead
  65:/home/rdu/Workspace/project_templates/mcu/stm32_ws/src/libraries/FreeRTOS/Source/queue.c **** #define queueQUEUE_IS_MUTEX				NULL
  66:/home/rdu/Workspace/project_templates/mcu/stm32_ws/src/libraries/FreeRTOS/Source/queue.c **** 
  67:/home/rdu/Workspace/project_templates/mcu/stm32_ws/src/libraries/FreeRTOS/Source/queue.c **** typedef struct QueuePointers
  68:/home/rdu/Workspace/project_templates/mcu/stm32_ws/src/libraries/FreeRTOS/Source/queue.c **** {
  69:/home/rdu/Workspace/project_templates/mcu/stm32_ws/src/libraries/FreeRTOS/Source/queue.c **** 	int8_t *pcTail;					/*< Points to the byte at the end of the queue storage area.  Once more byte i
  70:/home/rdu/Workspace/project_templates/mcu/stm32_ws/src/libraries/FreeRTOS/Source/queue.c **** 	int8_t *pcReadFrom;				/*< Points to the last place that a queued item was read from when the stru
  71:/home/rdu/Workspace/project_templates/mcu/stm32_ws/src/libraries/FreeRTOS/Source/queue.c **** } QueuePointers_t;
  72:/home/rdu/Workspace/project_templates/mcu/stm32_ws/src/libraries/FreeRTOS/Source/queue.c **** 
  73:/home/rdu/Workspace/project_templates/mcu/stm32_ws/src/libraries/FreeRTOS/Source/queue.c **** typedef struct SemaphoreData
  74:/home/rdu/Workspace/project_templates/mcu/stm32_ws/src/libraries/FreeRTOS/Source/queue.c **** {
  75:/home/rdu/Workspace/project_templates/mcu/stm32_ws/src/libraries/FreeRTOS/Source/queue.c **** 	TaskHandle_t xMutexHolder;		 /*< The handle of the task that holds the mutex. */
  76:/home/rdu/Workspace/project_templates/mcu/stm32_ws/src/libraries/FreeRTOS/Source/queue.c **** 	UBaseType_t uxRecursiveCallCount;/*< Maintains a count of the number of times a recursive mutex ha
  77:/home/rdu/Workspace/project_templates/mcu/stm32_ws/src/libraries/FreeRTOS/Source/queue.c **** } SemaphoreData_t;
  78:/home/rdu/Workspace/project_templates/mcu/stm32_ws/src/libraries/FreeRTOS/Source/queue.c **** 
  79:/home/rdu/Workspace/project_templates/mcu/stm32_ws/src/libraries/FreeRTOS/Source/queue.c **** /* Semaphores do not actually store or copy data, so have an item size of
  80:/home/rdu/Workspace/project_templates/mcu/stm32_ws/src/libraries/FreeRTOS/Source/queue.c **** zero. */
  81:/home/rdu/Workspace/project_templates/mcu/stm32_ws/src/libraries/FreeRTOS/Source/queue.c **** #define queueSEMAPHORE_QUEUE_ITEM_LENGTH ( ( UBaseType_t ) 0 )
  82:/home/rdu/Workspace/project_templates/mcu/stm32_ws/src/libraries/FreeRTOS/Source/queue.c **** #define queueMUTEX_GIVE_BLOCK_TIME		 ( ( TickType_t ) 0U )
  83:/home/rdu/Workspace/project_templates/mcu/stm32_ws/src/libraries/FreeRTOS/Source/queue.c **** 
  84:/home/rdu/Workspace/project_templates/mcu/stm32_ws/src/libraries/FreeRTOS/Source/queue.c **** #if( configUSE_PREEMPTION == 0 )
  85:/home/rdu/Workspace/project_templates/mcu/stm32_ws/src/libraries/FreeRTOS/Source/queue.c **** 	/* If the cooperative scheduler is being used then a yield should not be
  86:/home/rdu/Workspace/project_templates/mcu/stm32_ws/src/libraries/FreeRTOS/Source/queue.c **** 	performed just because a higher priority task has been woken. */
  87:/home/rdu/Workspace/project_templates/mcu/stm32_ws/src/libraries/FreeRTOS/Source/queue.c **** 	#define queueYIELD_IF_USING_PREEMPTION()
  88:/home/rdu/Workspace/project_templates/mcu/stm32_ws/src/libraries/FreeRTOS/Source/queue.c **** #else
  89:/home/rdu/Workspace/project_templates/mcu/stm32_ws/src/libraries/FreeRTOS/Source/queue.c **** 	#define queueYIELD_IF_USING_PREEMPTION() portYIELD_WITHIN_API()
  90:/home/rdu/Workspace/project_templates/mcu/stm32_ws/src/libraries/FreeRTOS/Source/queue.c **** #endif
  91:/home/rdu/Workspace/project_templates/mcu/stm32_ws/src/libraries/FreeRTOS/Source/queue.c **** 
  92:/home/rdu/Workspace/project_templates/mcu/stm32_ws/src/libraries/FreeRTOS/Source/queue.c **** /*
  93:/home/rdu/Workspace/project_templates/mcu/stm32_ws/src/libraries/FreeRTOS/Source/queue.c ****  * Definition of the queue used by the scheduler.
  94:/home/rdu/Workspace/project_templates/mcu/stm32_ws/src/libraries/FreeRTOS/Source/queue.c ****  * Items are queued by copy, not reference.  See the following link for the
  95:/home/rdu/Workspace/project_templates/mcu/stm32_ws/src/libraries/FreeRTOS/Source/queue.c ****  * rationale: https://www.freertos.org/Embedded-RTOS-Queues.html
  96:/home/rdu/Workspace/project_templates/mcu/stm32_ws/src/libraries/FreeRTOS/Source/queue.c ****  */
  97:/home/rdu/Workspace/project_templates/mcu/stm32_ws/src/libraries/FreeRTOS/Source/queue.c **** typedef struct QueueDefinition /* The old naming convention is used to prevent breaking kernel awar
  98:/home/rdu/Workspace/project_templates/mcu/stm32_ws/src/libraries/FreeRTOS/Source/queue.c **** {
  99:/home/rdu/Workspace/project_templates/mcu/stm32_ws/src/libraries/FreeRTOS/Source/queue.c **** 	int8_t *pcHead;					/*< Points to the beginning of the queue storage area. */
 100:/home/rdu/Workspace/project_templates/mcu/stm32_ws/src/libraries/FreeRTOS/Source/queue.c **** 	int8_t *pcWriteTo;				/*< Points to the free next place in the storage area. */
 101:/home/rdu/Workspace/project_templates/mcu/stm32_ws/src/libraries/FreeRTOS/Source/queue.c **** 
 102:/home/rdu/Workspace/project_templates/mcu/stm32_ws/src/libraries/FreeRTOS/Source/queue.c **** 	union
 103:/home/rdu/Workspace/project_templates/mcu/stm32_ws/src/libraries/FreeRTOS/Source/queue.c **** 	{
 104:/home/rdu/Workspace/project_templates/mcu/stm32_ws/src/libraries/FreeRTOS/Source/queue.c **** 		QueuePointers_t xQueue;		/*< Data required exclusively when this structure is used as a queue. */
 105:/home/rdu/Workspace/project_templates/mcu/stm32_ws/src/libraries/FreeRTOS/Source/queue.c **** 		SemaphoreData_t xSemaphore; /*< Data required exclusively when this structure is used as a semaph
 106:/home/rdu/Workspace/project_templates/mcu/stm32_ws/src/libraries/FreeRTOS/Source/queue.c **** 	} u;
 107:/home/rdu/Workspace/project_templates/mcu/stm32_ws/src/libraries/FreeRTOS/Source/queue.c **** 
 108:/home/rdu/Workspace/project_templates/mcu/stm32_ws/src/libraries/FreeRTOS/Source/queue.c **** 	List_t xTasksWaitingToSend;		/*< List of tasks that are blocked waiting to post onto this queue.  
 109:/home/rdu/Workspace/project_templates/mcu/stm32_ws/src/libraries/FreeRTOS/Source/queue.c **** 	List_t xTasksWaitingToReceive;	/*< List of tasks that are blocked waiting to read from this queue.
 110:/home/rdu/Workspace/project_templates/mcu/stm32_ws/src/libraries/FreeRTOS/Source/queue.c **** 
 111:/home/rdu/Workspace/project_templates/mcu/stm32_ws/src/libraries/FreeRTOS/Source/queue.c **** 	volatile UBaseType_t uxMessagesWaiting;/*< The number of items currently in the queue. */
 112:/home/rdu/Workspace/project_templates/mcu/stm32_ws/src/libraries/FreeRTOS/Source/queue.c **** 	UBaseType_t uxLength;			/*< The length of the queue defined as the number of items it will hold, n
 113:/home/rdu/Workspace/project_templates/mcu/stm32_ws/src/libraries/FreeRTOS/Source/queue.c **** 	UBaseType_t uxItemSize;			/*< The size of each items that the queue will hold. */
 114:/home/rdu/Workspace/project_templates/mcu/stm32_ws/src/libraries/FreeRTOS/Source/queue.c **** 
 115:/home/rdu/Workspace/project_templates/mcu/stm32_ws/src/libraries/FreeRTOS/Source/queue.c **** 	volatile int8_t cRxLock;		/*< Stores the number of items received from the queue (removed from the
 116:/home/rdu/Workspace/project_templates/mcu/stm32_ws/src/libraries/FreeRTOS/Source/queue.c **** 	volatile int8_t cTxLock;		/*< Stores the number of items transmitted to the queue (added to the qu
 117:/home/rdu/Workspace/project_templates/mcu/stm32_ws/src/libraries/FreeRTOS/Source/queue.c **** 
 118:/home/rdu/Workspace/project_templates/mcu/stm32_ws/src/libraries/FreeRTOS/Source/queue.c **** 	#if( ( configSUPPORT_STATIC_ALLOCATION == 1 ) && ( configSUPPORT_DYNAMIC_ALLOCATION == 1 ) )
 119:/home/rdu/Workspace/project_templates/mcu/stm32_ws/src/libraries/FreeRTOS/Source/queue.c **** 		uint8_t ucStaticallyAllocated;	/*< Set to pdTRUE if the memory used by the queue was statically a
 120:/home/rdu/Workspace/project_templates/mcu/stm32_ws/src/libraries/FreeRTOS/Source/queue.c **** 	#endif
 121:/home/rdu/Workspace/project_templates/mcu/stm32_ws/src/libraries/FreeRTOS/Source/queue.c **** 
 122:/home/rdu/Workspace/project_templates/mcu/stm32_ws/src/libraries/FreeRTOS/Source/queue.c **** 	#if ( configUSE_QUEUE_SETS == 1 )
 123:/home/rdu/Workspace/project_templates/mcu/stm32_ws/src/libraries/FreeRTOS/Source/queue.c **** 		struct QueueDefinition *pxQueueSetContainer;
 124:/home/rdu/Workspace/project_templates/mcu/stm32_ws/src/libraries/FreeRTOS/Source/queue.c **** 	#endif
 125:/home/rdu/Workspace/project_templates/mcu/stm32_ws/src/libraries/FreeRTOS/Source/queue.c **** 
 126:/home/rdu/Workspace/project_templates/mcu/stm32_ws/src/libraries/FreeRTOS/Source/queue.c **** 	#if ( configUSE_TRACE_FACILITY == 1 )
 127:/home/rdu/Workspace/project_templates/mcu/stm32_ws/src/libraries/FreeRTOS/Source/queue.c **** 		UBaseType_t uxQueueNumber;
 128:/home/rdu/Workspace/project_templates/mcu/stm32_ws/src/libraries/FreeRTOS/Source/queue.c **** 		uint8_t ucQueueType;
 129:/home/rdu/Workspace/project_templates/mcu/stm32_ws/src/libraries/FreeRTOS/Source/queue.c **** 	#endif
 130:/home/rdu/Workspace/project_templates/mcu/stm32_ws/src/libraries/FreeRTOS/Source/queue.c **** 
 131:/home/rdu/Workspace/project_templates/mcu/stm32_ws/src/libraries/FreeRTOS/Source/queue.c **** } xQUEUE;
 132:/home/rdu/Workspace/project_templates/mcu/stm32_ws/src/libraries/FreeRTOS/Source/queue.c **** 
 133:/home/rdu/Workspace/project_templates/mcu/stm32_ws/src/libraries/FreeRTOS/Source/queue.c **** /* The old xQUEUE name is maintained above then typedefed to the new Queue_t
 134:/home/rdu/Workspace/project_templates/mcu/stm32_ws/src/libraries/FreeRTOS/Source/queue.c **** name below to enable the use of older kernel aware debuggers. */
 135:/home/rdu/Workspace/project_templates/mcu/stm32_ws/src/libraries/FreeRTOS/Source/queue.c **** typedef xQUEUE Queue_t;
 136:/home/rdu/Workspace/project_templates/mcu/stm32_ws/src/libraries/FreeRTOS/Source/queue.c **** 
 137:/home/rdu/Workspace/project_templates/mcu/stm32_ws/src/libraries/FreeRTOS/Source/queue.c **** /*-----------------------------------------------------------*/
 138:/home/rdu/Workspace/project_templates/mcu/stm32_ws/src/libraries/FreeRTOS/Source/queue.c **** 
 139:/home/rdu/Workspace/project_templates/mcu/stm32_ws/src/libraries/FreeRTOS/Source/queue.c **** /*
 140:/home/rdu/Workspace/project_templates/mcu/stm32_ws/src/libraries/FreeRTOS/Source/queue.c ****  * The queue registry is just a means for kernel aware debuggers to locate
 141:/home/rdu/Workspace/project_templates/mcu/stm32_ws/src/libraries/FreeRTOS/Source/queue.c ****  * queue structures.  It has no other purpose so is an optional component.
 142:/home/rdu/Workspace/project_templates/mcu/stm32_ws/src/libraries/FreeRTOS/Source/queue.c ****  */
 143:/home/rdu/Workspace/project_templates/mcu/stm32_ws/src/libraries/FreeRTOS/Source/queue.c **** #if ( configQUEUE_REGISTRY_SIZE > 0 )
 144:/home/rdu/Workspace/project_templates/mcu/stm32_ws/src/libraries/FreeRTOS/Source/queue.c **** 
 145:/home/rdu/Workspace/project_templates/mcu/stm32_ws/src/libraries/FreeRTOS/Source/queue.c **** 	/* The type stored within the queue registry array.  This allows a name
 146:/home/rdu/Workspace/project_templates/mcu/stm32_ws/src/libraries/FreeRTOS/Source/queue.c **** 	to be assigned to each queue making kernel aware debugging a little
 147:/home/rdu/Workspace/project_templates/mcu/stm32_ws/src/libraries/FreeRTOS/Source/queue.c **** 	more user friendly. */
 148:/home/rdu/Workspace/project_templates/mcu/stm32_ws/src/libraries/FreeRTOS/Source/queue.c **** 	typedef struct QUEUE_REGISTRY_ITEM
 149:/home/rdu/Workspace/project_templates/mcu/stm32_ws/src/libraries/FreeRTOS/Source/queue.c **** 	{
 150:/home/rdu/Workspace/project_templates/mcu/stm32_ws/src/libraries/FreeRTOS/Source/queue.c **** 		const char *pcQueueName; /*lint !e971 Unqualified char types are allowed for strings and single c
 151:/home/rdu/Workspace/project_templates/mcu/stm32_ws/src/libraries/FreeRTOS/Source/queue.c **** 		QueueHandle_t xHandle;
 152:/home/rdu/Workspace/project_templates/mcu/stm32_ws/src/libraries/FreeRTOS/Source/queue.c **** 	} xQueueRegistryItem;
 153:/home/rdu/Workspace/project_templates/mcu/stm32_ws/src/libraries/FreeRTOS/Source/queue.c **** 
 154:/home/rdu/Workspace/project_templates/mcu/stm32_ws/src/libraries/FreeRTOS/Source/queue.c **** 	/* The old xQueueRegistryItem name is maintained above then typedefed to the
 155:/home/rdu/Workspace/project_templates/mcu/stm32_ws/src/libraries/FreeRTOS/Source/queue.c **** 	new xQueueRegistryItem name below to enable the use of older kernel aware
 156:/home/rdu/Workspace/project_templates/mcu/stm32_ws/src/libraries/FreeRTOS/Source/queue.c **** 	debuggers. */
 157:/home/rdu/Workspace/project_templates/mcu/stm32_ws/src/libraries/FreeRTOS/Source/queue.c **** 	typedef xQueueRegistryItem QueueRegistryItem_t;
 158:/home/rdu/Workspace/project_templates/mcu/stm32_ws/src/libraries/FreeRTOS/Source/queue.c **** 
 159:/home/rdu/Workspace/project_templates/mcu/stm32_ws/src/libraries/FreeRTOS/Source/queue.c **** 	/* The queue registry is simply an array of QueueRegistryItem_t structures.
 160:/home/rdu/Workspace/project_templates/mcu/stm32_ws/src/libraries/FreeRTOS/Source/queue.c **** 	The pcQueueName member of a structure being NULL is indicative of the
 161:/home/rdu/Workspace/project_templates/mcu/stm32_ws/src/libraries/FreeRTOS/Source/queue.c **** 	array position being vacant. */
 162:/home/rdu/Workspace/project_templates/mcu/stm32_ws/src/libraries/FreeRTOS/Source/queue.c **** 	PRIVILEGED_DATA QueueRegistryItem_t xQueueRegistry[ configQUEUE_REGISTRY_SIZE ];
 163:/home/rdu/Workspace/project_templates/mcu/stm32_ws/src/libraries/FreeRTOS/Source/queue.c **** 
 164:/home/rdu/Workspace/project_templates/mcu/stm32_ws/src/libraries/FreeRTOS/Source/queue.c **** #endif /* configQUEUE_REGISTRY_SIZE */
 165:/home/rdu/Workspace/project_templates/mcu/stm32_ws/src/libraries/FreeRTOS/Source/queue.c **** 
 166:/home/rdu/Workspace/project_templates/mcu/stm32_ws/src/libraries/FreeRTOS/Source/queue.c **** /*
 167:/home/rdu/Workspace/project_templates/mcu/stm32_ws/src/libraries/FreeRTOS/Source/queue.c ****  * Unlocks a queue locked by a call to prvLockQueue.  Locking a queue does not
 168:/home/rdu/Workspace/project_templates/mcu/stm32_ws/src/libraries/FreeRTOS/Source/queue.c ****  * prevent an ISR from adding or removing items to the queue, but does prevent
 169:/home/rdu/Workspace/project_templates/mcu/stm32_ws/src/libraries/FreeRTOS/Source/queue.c ****  * an ISR from removing tasks from the queue event lists.  If an ISR finds a
 170:/home/rdu/Workspace/project_templates/mcu/stm32_ws/src/libraries/FreeRTOS/Source/queue.c ****  * queue is locked it will instead increment the appropriate queue lock count
 171:/home/rdu/Workspace/project_templates/mcu/stm32_ws/src/libraries/FreeRTOS/Source/queue.c ****  * to indicate that a task may require unblocking.  When the queue in unlocked
 172:/home/rdu/Workspace/project_templates/mcu/stm32_ws/src/libraries/FreeRTOS/Source/queue.c ****  * these lock counts are inspected, and the appropriate action taken.
 173:/home/rdu/Workspace/project_templates/mcu/stm32_ws/src/libraries/FreeRTOS/Source/queue.c ****  */
 174:/home/rdu/Workspace/project_templates/mcu/stm32_ws/src/libraries/FreeRTOS/Source/queue.c **** static void prvUnlockQueue( Queue_t * const pxQueue ) PRIVILEGED_FUNCTION;
 175:/home/rdu/Workspace/project_templates/mcu/stm32_ws/src/libraries/FreeRTOS/Source/queue.c **** 
 176:/home/rdu/Workspace/project_templates/mcu/stm32_ws/src/libraries/FreeRTOS/Source/queue.c **** /*
 177:/home/rdu/Workspace/project_templates/mcu/stm32_ws/src/libraries/FreeRTOS/Source/queue.c ****  * Uses a critical section to determine if there is any data in a queue.
 178:/home/rdu/Workspace/project_templates/mcu/stm32_ws/src/libraries/FreeRTOS/Source/queue.c ****  *
 179:/home/rdu/Workspace/project_templates/mcu/stm32_ws/src/libraries/FreeRTOS/Source/queue.c ****  * @return pdTRUE if the queue contains no items, otherwise pdFALSE.
 180:/home/rdu/Workspace/project_templates/mcu/stm32_ws/src/libraries/FreeRTOS/Source/queue.c ****  */
 181:/home/rdu/Workspace/project_templates/mcu/stm32_ws/src/libraries/FreeRTOS/Source/queue.c **** static BaseType_t prvIsQueueEmpty( const Queue_t *pxQueue ) PRIVILEGED_FUNCTION;
 182:/home/rdu/Workspace/project_templates/mcu/stm32_ws/src/libraries/FreeRTOS/Source/queue.c **** 
 183:/home/rdu/Workspace/project_templates/mcu/stm32_ws/src/libraries/FreeRTOS/Source/queue.c **** /*
 184:/home/rdu/Workspace/project_templates/mcu/stm32_ws/src/libraries/FreeRTOS/Source/queue.c ****  * Uses a critical section to determine if there is any space in a queue.
 185:/home/rdu/Workspace/project_templates/mcu/stm32_ws/src/libraries/FreeRTOS/Source/queue.c ****  *
 186:/home/rdu/Workspace/project_templates/mcu/stm32_ws/src/libraries/FreeRTOS/Source/queue.c ****  * @return pdTRUE if there is no space, otherwise pdFALSE;
 187:/home/rdu/Workspace/project_templates/mcu/stm32_ws/src/libraries/FreeRTOS/Source/queue.c ****  */
 188:/home/rdu/Workspace/project_templates/mcu/stm32_ws/src/libraries/FreeRTOS/Source/queue.c **** static BaseType_t prvIsQueueFull( const Queue_t *pxQueue ) PRIVILEGED_FUNCTION;
 189:/home/rdu/Workspace/project_templates/mcu/stm32_ws/src/libraries/FreeRTOS/Source/queue.c **** 
 190:/home/rdu/Workspace/project_templates/mcu/stm32_ws/src/libraries/FreeRTOS/Source/queue.c **** /*
 191:/home/rdu/Workspace/project_templates/mcu/stm32_ws/src/libraries/FreeRTOS/Source/queue.c ****  * Copies an item into the queue, either at the front of the queue or the
 192:/home/rdu/Workspace/project_templates/mcu/stm32_ws/src/libraries/FreeRTOS/Source/queue.c ****  * back of the queue.
 193:/home/rdu/Workspace/project_templates/mcu/stm32_ws/src/libraries/FreeRTOS/Source/queue.c ****  */
 194:/home/rdu/Workspace/project_templates/mcu/stm32_ws/src/libraries/FreeRTOS/Source/queue.c **** static BaseType_t prvCopyDataToQueue( Queue_t * const pxQueue, const void *pvItemToQueue, const Bas
 195:/home/rdu/Workspace/project_templates/mcu/stm32_ws/src/libraries/FreeRTOS/Source/queue.c **** 
 196:/home/rdu/Workspace/project_templates/mcu/stm32_ws/src/libraries/FreeRTOS/Source/queue.c **** /*
 197:/home/rdu/Workspace/project_templates/mcu/stm32_ws/src/libraries/FreeRTOS/Source/queue.c ****  * Copies an item out of a queue.
 198:/home/rdu/Workspace/project_templates/mcu/stm32_ws/src/libraries/FreeRTOS/Source/queue.c ****  */
 199:/home/rdu/Workspace/project_templates/mcu/stm32_ws/src/libraries/FreeRTOS/Source/queue.c **** static void prvCopyDataFromQueue( Queue_t * const pxQueue, void * const pvBuffer ) PRIVILEGED_FUNCT
 200:/home/rdu/Workspace/project_templates/mcu/stm32_ws/src/libraries/FreeRTOS/Source/queue.c **** 
 201:/home/rdu/Workspace/project_templates/mcu/stm32_ws/src/libraries/FreeRTOS/Source/queue.c **** #if ( configUSE_QUEUE_SETS == 1 )
 202:/home/rdu/Workspace/project_templates/mcu/stm32_ws/src/libraries/FreeRTOS/Source/queue.c **** 	/*
 203:/home/rdu/Workspace/project_templates/mcu/stm32_ws/src/libraries/FreeRTOS/Source/queue.c **** 	 * Checks to see if a queue is a member of a queue set, and if so, notifies
 204:/home/rdu/Workspace/project_templates/mcu/stm32_ws/src/libraries/FreeRTOS/Source/queue.c **** 	 * the queue set that the queue contains data.
 205:/home/rdu/Workspace/project_templates/mcu/stm32_ws/src/libraries/FreeRTOS/Source/queue.c **** 	 */
 206:/home/rdu/Workspace/project_templates/mcu/stm32_ws/src/libraries/FreeRTOS/Source/queue.c **** 	static BaseType_t prvNotifyQueueSetContainer( const Queue_t * const pxQueue, const BaseType_t xCop
 207:/home/rdu/Workspace/project_templates/mcu/stm32_ws/src/libraries/FreeRTOS/Source/queue.c **** #endif
 208:/home/rdu/Workspace/project_templates/mcu/stm32_ws/src/libraries/FreeRTOS/Source/queue.c **** 
 209:/home/rdu/Workspace/project_templates/mcu/stm32_ws/src/libraries/FreeRTOS/Source/queue.c **** /*
 210:/home/rdu/Workspace/project_templates/mcu/stm32_ws/src/libraries/FreeRTOS/Source/queue.c ****  * Called after a Queue_t structure has been allocated either statically or
 211:/home/rdu/Workspace/project_templates/mcu/stm32_ws/src/libraries/FreeRTOS/Source/queue.c ****  * dynamically to fill in the structure's members.
 212:/home/rdu/Workspace/project_templates/mcu/stm32_ws/src/libraries/FreeRTOS/Source/queue.c ****  */
 213:/home/rdu/Workspace/project_templates/mcu/stm32_ws/src/libraries/FreeRTOS/Source/queue.c **** static void prvInitialiseNewQueue( const UBaseType_t uxQueueLength, const UBaseType_t uxItemSize, u
 214:/home/rdu/Workspace/project_templates/mcu/stm32_ws/src/libraries/FreeRTOS/Source/queue.c **** 
 215:/home/rdu/Workspace/project_templates/mcu/stm32_ws/src/libraries/FreeRTOS/Source/queue.c **** /*
 216:/home/rdu/Workspace/project_templates/mcu/stm32_ws/src/libraries/FreeRTOS/Source/queue.c ****  * Mutexes are a special type of queue.  When a mutex is created, first the
 217:/home/rdu/Workspace/project_templates/mcu/stm32_ws/src/libraries/FreeRTOS/Source/queue.c ****  * queue is created, then prvInitialiseMutex() is called to configure the queue
 218:/home/rdu/Workspace/project_templates/mcu/stm32_ws/src/libraries/FreeRTOS/Source/queue.c ****  * as a mutex.
 219:/home/rdu/Workspace/project_templates/mcu/stm32_ws/src/libraries/FreeRTOS/Source/queue.c ****  */
 220:/home/rdu/Workspace/project_templates/mcu/stm32_ws/src/libraries/FreeRTOS/Source/queue.c **** #if( configUSE_MUTEXES == 1 )
 221:/home/rdu/Workspace/project_templates/mcu/stm32_ws/src/libraries/FreeRTOS/Source/queue.c **** 	static void prvInitialiseMutex( Queue_t *pxNewQueue ) PRIVILEGED_FUNCTION;
 222:/home/rdu/Workspace/project_templates/mcu/stm32_ws/src/libraries/FreeRTOS/Source/queue.c **** #endif
 223:/home/rdu/Workspace/project_templates/mcu/stm32_ws/src/libraries/FreeRTOS/Source/queue.c **** 
 224:/home/rdu/Workspace/project_templates/mcu/stm32_ws/src/libraries/FreeRTOS/Source/queue.c **** #if( configUSE_MUTEXES == 1 )
 225:/home/rdu/Workspace/project_templates/mcu/stm32_ws/src/libraries/FreeRTOS/Source/queue.c **** 	/*
 226:/home/rdu/Workspace/project_templates/mcu/stm32_ws/src/libraries/FreeRTOS/Source/queue.c **** 	 * If a task waiting for a mutex causes the mutex holder to inherit a
 227:/home/rdu/Workspace/project_templates/mcu/stm32_ws/src/libraries/FreeRTOS/Source/queue.c **** 	 * priority, but the waiting task times out, then the holder should
 228:/home/rdu/Workspace/project_templates/mcu/stm32_ws/src/libraries/FreeRTOS/Source/queue.c **** 	 * disinherit the priority - but only down to the highest priority of any
 229:/home/rdu/Workspace/project_templates/mcu/stm32_ws/src/libraries/FreeRTOS/Source/queue.c **** 	 * other tasks that are waiting for the same mutex.  This function returns
 230:/home/rdu/Workspace/project_templates/mcu/stm32_ws/src/libraries/FreeRTOS/Source/queue.c **** 	 * that priority.
 231:/home/rdu/Workspace/project_templates/mcu/stm32_ws/src/libraries/FreeRTOS/Source/queue.c **** 	 */
 232:/home/rdu/Workspace/project_templates/mcu/stm32_ws/src/libraries/FreeRTOS/Source/queue.c **** 	static UBaseType_t prvGetDisinheritPriorityAfterTimeout( const Queue_t * const pxQueue ) PRIVILEGE
 233:/home/rdu/Workspace/project_templates/mcu/stm32_ws/src/libraries/FreeRTOS/Source/queue.c **** #endif
 234:/home/rdu/Workspace/project_templates/mcu/stm32_ws/src/libraries/FreeRTOS/Source/queue.c **** /*-----------------------------------------------------------*/
 235:/home/rdu/Workspace/project_templates/mcu/stm32_ws/src/libraries/FreeRTOS/Source/queue.c **** 
 236:/home/rdu/Workspace/project_templates/mcu/stm32_ws/src/libraries/FreeRTOS/Source/queue.c **** /*
 237:/home/rdu/Workspace/project_templates/mcu/stm32_ws/src/libraries/FreeRTOS/Source/queue.c ****  * Macro to mark a queue as locked.  Locking a queue prevents an ISR from
 238:/home/rdu/Workspace/project_templates/mcu/stm32_ws/src/libraries/FreeRTOS/Source/queue.c ****  * accessing the queue event lists.
 239:/home/rdu/Workspace/project_templates/mcu/stm32_ws/src/libraries/FreeRTOS/Source/queue.c ****  */
 240:/home/rdu/Workspace/project_templates/mcu/stm32_ws/src/libraries/FreeRTOS/Source/queue.c **** #define prvLockQueue( pxQueue )								\
 241:/home/rdu/Workspace/project_templates/mcu/stm32_ws/src/libraries/FreeRTOS/Source/queue.c **** 	taskENTER_CRITICAL();									\
 242:/home/rdu/Workspace/project_templates/mcu/stm32_ws/src/libraries/FreeRTOS/Source/queue.c **** 	{														\
 243:/home/rdu/Workspace/project_templates/mcu/stm32_ws/src/libraries/FreeRTOS/Source/queue.c **** 		if( ( pxQueue )->cRxLock == queueUNLOCKED )			\
 244:/home/rdu/Workspace/project_templates/mcu/stm32_ws/src/libraries/FreeRTOS/Source/queue.c **** 		{													\
 245:/home/rdu/Workspace/project_templates/mcu/stm32_ws/src/libraries/FreeRTOS/Source/queue.c **** 			( pxQueue )->cRxLock = queueLOCKED_UNMODIFIED;	\
 246:/home/rdu/Workspace/project_templates/mcu/stm32_ws/src/libraries/FreeRTOS/Source/queue.c **** 		}													\
 247:/home/rdu/Workspace/project_templates/mcu/stm32_ws/src/libraries/FreeRTOS/Source/queue.c **** 		if( ( pxQueue )->cTxLock == queueUNLOCKED )			\
 248:/home/rdu/Workspace/project_templates/mcu/stm32_ws/src/libraries/FreeRTOS/Source/queue.c **** 		{													\
 249:/home/rdu/Workspace/project_templates/mcu/stm32_ws/src/libraries/FreeRTOS/Source/queue.c **** 			( pxQueue )->cTxLock = queueLOCKED_UNMODIFIED;	\
 250:/home/rdu/Workspace/project_templates/mcu/stm32_ws/src/libraries/FreeRTOS/Source/queue.c **** 		}													\
 251:/home/rdu/Workspace/project_templates/mcu/stm32_ws/src/libraries/FreeRTOS/Source/queue.c **** 	}														\
 252:/home/rdu/Workspace/project_templates/mcu/stm32_ws/src/libraries/FreeRTOS/Source/queue.c **** 	taskEXIT_CRITICAL()
 253:/home/rdu/Workspace/project_templates/mcu/stm32_ws/src/libraries/FreeRTOS/Source/queue.c **** /*-----------------------------------------------------------*/
 254:/home/rdu/Workspace/project_templates/mcu/stm32_ws/src/libraries/FreeRTOS/Source/queue.c **** 
 255:/home/rdu/Workspace/project_templates/mcu/stm32_ws/src/libraries/FreeRTOS/Source/queue.c **** BaseType_t xQueueGenericReset( QueueHandle_t xQueue, BaseType_t xNewQueue )
 256:/home/rdu/Workspace/project_templates/mcu/stm32_ws/src/libraries/FreeRTOS/Source/queue.c **** {
  27              		.loc 1 256 0
  28              		.cfi_startproc
  29              		@ args = 0, pretend = 0, frame = 16
  30              		@ frame_needed = 0, uses_anonymous_args = 0
  31 0000 00B5     		push	{lr}
  32              	.LCFI0:
  33              		.cfi_def_cfa_offset 4
  34              		.cfi_offset 14, -4
  35 0002 85B0     		sub	sp, sp, #20
  36              	.LCFI1:
  37              		.cfi_def_cfa_offset 24
  38 0004 0190     		str	r0, [sp, #4]
  39 0006 0091     		str	r1, [sp]
 257:/home/rdu/Workspace/project_templates/mcu/stm32_ws/src/libraries/FreeRTOS/Source/queue.c **** Queue_t * const pxQueue = xQueue;
  40              		.loc 1 257 0
  41 0008 019B     		ldr	r3, [sp, #4]
  42 000a 0393     		str	r3, [sp, #12]
 258:/home/rdu/Workspace/project_templates/mcu/stm32_ws/src/libraries/FreeRTOS/Source/queue.c **** 
 259:/home/rdu/Workspace/project_templates/mcu/stm32_ws/src/libraries/FreeRTOS/Source/queue.c **** 	configASSERT( pxQueue );
  43              		.loc 1 259 0
  44 000c 039B     		ldr	r3, [sp, #12]
  45 000e 002B     		cmp	r3, #0
  46 0010 09D1     		bne	.L2
  47              	.LBB101:
  48              	.LBB102:
  49              		.file 2 "/home/rdu/Workspace/project_templates/mcu/stm32_ws/src/libraries/FreeRTOS/Source/portable
   1:/home/rdu/Workspace/project_templates/mcu/stm32_ws/src/libraries/FreeRTOS/Source/portable/GCC/ARM_CM4F/portmacro.h **** /*
   2:/home/rdu/Workspace/project_templates/mcu/stm32_ws/src/libraries/FreeRTOS/Source/portable/GCC/ARM_CM4F/portmacro.h ****  * FreeRTOS Kernel V10.1.1
   3:/home/rdu/Workspace/project_templates/mcu/stm32_ws/src/libraries/FreeRTOS/Source/portable/GCC/ARM_CM4F/portmacro.h ****  * Copyright (C) 2018 Amazon.com, Inc. or its affiliates.  All Rights Reserved.
   4:/home/rdu/Workspace/project_templates/mcu/stm32_ws/src/libraries/FreeRTOS/Source/portable/GCC/ARM_CM4F/portmacro.h ****  *
   5:/home/rdu/Workspace/project_templates/mcu/stm32_ws/src/libraries/FreeRTOS/Source/portable/GCC/ARM_CM4F/portmacro.h ****  * Permission is hereby granted, free of charge, to any person obtaining a copy of
   6:/home/rdu/Workspace/project_templates/mcu/stm32_ws/src/libraries/FreeRTOS/Source/portable/GCC/ARM_CM4F/portmacro.h ****  * this software and associated documentation files (the "Software"), to deal in
   7:/home/rdu/Workspace/project_templates/mcu/stm32_ws/src/libraries/FreeRTOS/Source/portable/GCC/ARM_CM4F/portmacro.h ****  * the Software without restriction, including without limitation the rights to
   8:/home/rdu/Workspace/project_templates/mcu/stm32_ws/src/libraries/FreeRTOS/Source/portable/GCC/ARM_CM4F/portmacro.h ****  * use, copy, modify, merge, publish, distribute, sublicense, and/or sell copies of
   9:/home/rdu/Workspace/project_templates/mcu/stm32_ws/src/libraries/FreeRTOS/Source/portable/GCC/ARM_CM4F/portmacro.h ****  * the Software, and to permit persons to whom the Software is furnished to do so,
  10:/home/rdu/Workspace/project_templates/mcu/stm32_ws/src/libraries/FreeRTOS/Source/portable/GCC/ARM_CM4F/portmacro.h ****  * subject to the following conditions:
  11:/home/rdu/Workspace/project_templates/mcu/stm32_ws/src/libraries/FreeRTOS/Source/portable/GCC/ARM_CM4F/portmacro.h ****  *
  12:/home/rdu/Workspace/project_templates/mcu/stm32_ws/src/libraries/FreeRTOS/Source/portable/GCC/ARM_CM4F/portmacro.h ****  * The above copyright notice and this permission notice shall be included in all
  13:/home/rdu/Workspace/project_templates/mcu/stm32_ws/src/libraries/FreeRTOS/Source/portable/GCC/ARM_CM4F/portmacro.h ****  * copies or substantial portions of the Software.
  14:/home/rdu/Workspace/project_templates/mcu/stm32_ws/src/libraries/FreeRTOS/Source/portable/GCC/ARM_CM4F/portmacro.h ****  *
  15:/home/rdu/Workspace/project_templates/mcu/stm32_ws/src/libraries/FreeRTOS/Source/portable/GCC/ARM_CM4F/portmacro.h ****  * THE SOFTWARE IS PROVIDED "AS IS", WITHOUT WARRANTY OF ANY KIND, EXPRESS OR
  16:/home/rdu/Workspace/project_templates/mcu/stm32_ws/src/libraries/FreeRTOS/Source/portable/GCC/ARM_CM4F/portmacro.h ****  * IMPLIED, INCLUDING BUT NOT LIMITED TO THE WARRANTIES OF MERCHANTABILITY, FITNESS
  17:/home/rdu/Workspace/project_templates/mcu/stm32_ws/src/libraries/FreeRTOS/Source/portable/GCC/ARM_CM4F/portmacro.h ****  * FOR A PARTICULAR PURPOSE AND NONINFRINGEMENT. IN NO EVENT SHALL THE AUTHORS OR
  18:/home/rdu/Workspace/project_templates/mcu/stm32_ws/src/libraries/FreeRTOS/Source/portable/GCC/ARM_CM4F/portmacro.h ****  * COPYRIGHT HOLDERS BE LIABLE FOR ANY CLAIM, DAMAGES OR OTHER LIABILITY, WHETHER
  19:/home/rdu/Workspace/project_templates/mcu/stm32_ws/src/libraries/FreeRTOS/Source/portable/GCC/ARM_CM4F/portmacro.h ****  * IN AN ACTION OF CONTRACT, TORT OR OTHERWISE, ARISING FROM, OUT OF OR IN
  20:/home/rdu/Workspace/project_templates/mcu/stm32_ws/src/libraries/FreeRTOS/Source/portable/GCC/ARM_CM4F/portmacro.h ****  * CONNECTION WITH THE SOFTWARE OR THE USE OR OTHER DEALINGS IN THE SOFTWARE.
  21:/home/rdu/Workspace/project_templates/mcu/stm32_ws/src/libraries/FreeRTOS/Source/portable/GCC/ARM_CM4F/portmacro.h ****  *
  22:/home/rdu/Workspace/project_templates/mcu/stm32_ws/src/libraries/FreeRTOS/Source/portable/GCC/ARM_CM4F/portmacro.h ****  * http://www.FreeRTOS.org
  23:/home/rdu/Workspace/project_templates/mcu/stm32_ws/src/libraries/FreeRTOS/Source/portable/GCC/ARM_CM4F/portmacro.h ****  * http://aws.amazon.com/freertos
  24:/home/rdu/Workspace/project_templates/mcu/stm32_ws/src/libraries/FreeRTOS/Source/portable/GCC/ARM_CM4F/portmacro.h ****  *
  25:/home/rdu/Workspace/project_templates/mcu/stm32_ws/src/libraries/FreeRTOS/Source/portable/GCC/ARM_CM4F/portmacro.h ****  * 1 tab == 4 spaces!
  26:/home/rdu/Workspace/project_templates/mcu/stm32_ws/src/libraries/FreeRTOS/Source/portable/GCC/ARM_CM4F/portmacro.h ****  */
  27:/home/rdu/Workspace/project_templates/mcu/stm32_ws/src/libraries/FreeRTOS/Source/portable/GCC/ARM_CM4F/portmacro.h **** 
  28:/home/rdu/Workspace/project_templates/mcu/stm32_ws/src/libraries/FreeRTOS/Source/portable/GCC/ARM_CM4F/portmacro.h **** 
  29:/home/rdu/Workspace/project_templates/mcu/stm32_ws/src/libraries/FreeRTOS/Source/portable/GCC/ARM_CM4F/portmacro.h **** #ifndef PORTMACRO_H
  30:/home/rdu/Workspace/project_templates/mcu/stm32_ws/src/libraries/FreeRTOS/Source/portable/GCC/ARM_CM4F/portmacro.h **** #define PORTMACRO_H
  31:/home/rdu/Workspace/project_templates/mcu/stm32_ws/src/libraries/FreeRTOS/Source/portable/GCC/ARM_CM4F/portmacro.h **** 
  32:/home/rdu/Workspace/project_templates/mcu/stm32_ws/src/libraries/FreeRTOS/Source/portable/GCC/ARM_CM4F/portmacro.h **** #ifdef __cplusplus
  33:/home/rdu/Workspace/project_templates/mcu/stm32_ws/src/libraries/FreeRTOS/Source/portable/GCC/ARM_CM4F/portmacro.h **** extern "C" {
  34:/home/rdu/Workspace/project_templates/mcu/stm32_ws/src/libraries/FreeRTOS/Source/portable/GCC/ARM_CM4F/portmacro.h **** #endif
  35:/home/rdu/Workspace/project_templates/mcu/stm32_ws/src/libraries/FreeRTOS/Source/portable/GCC/ARM_CM4F/portmacro.h **** 
  36:/home/rdu/Workspace/project_templates/mcu/stm32_ws/src/libraries/FreeRTOS/Source/portable/GCC/ARM_CM4F/portmacro.h **** /*-----------------------------------------------------------
  37:/home/rdu/Workspace/project_templates/mcu/stm32_ws/src/libraries/FreeRTOS/Source/portable/GCC/ARM_CM4F/portmacro.h ****  * Port specific definitions.
  38:/home/rdu/Workspace/project_templates/mcu/stm32_ws/src/libraries/FreeRTOS/Source/portable/GCC/ARM_CM4F/portmacro.h ****  *
  39:/home/rdu/Workspace/project_templates/mcu/stm32_ws/src/libraries/FreeRTOS/Source/portable/GCC/ARM_CM4F/portmacro.h ****  * The settings in this file configure FreeRTOS correctly for the
  40:/home/rdu/Workspace/project_templates/mcu/stm32_ws/src/libraries/FreeRTOS/Source/portable/GCC/ARM_CM4F/portmacro.h ****  * given hardware and compiler.
  41:/home/rdu/Workspace/project_templates/mcu/stm32_ws/src/libraries/FreeRTOS/Source/portable/GCC/ARM_CM4F/portmacro.h ****  *
  42:/home/rdu/Workspace/project_templates/mcu/stm32_ws/src/libraries/FreeRTOS/Source/portable/GCC/ARM_CM4F/portmacro.h ****  * These settings should not be altered.
  43:/home/rdu/Workspace/project_templates/mcu/stm32_ws/src/libraries/FreeRTOS/Source/portable/GCC/ARM_CM4F/portmacro.h ****  *-----------------------------------------------------------
  44:/home/rdu/Workspace/project_templates/mcu/stm32_ws/src/libraries/FreeRTOS/Source/portable/GCC/ARM_CM4F/portmacro.h ****  */
  45:/home/rdu/Workspace/project_templates/mcu/stm32_ws/src/libraries/FreeRTOS/Source/portable/GCC/ARM_CM4F/portmacro.h **** 
  46:/home/rdu/Workspace/project_templates/mcu/stm32_ws/src/libraries/FreeRTOS/Source/portable/GCC/ARM_CM4F/portmacro.h **** /* Type definitions. */
  47:/home/rdu/Workspace/project_templates/mcu/stm32_ws/src/libraries/FreeRTOS/Source/portable/GCC/ARM_CM4F/portmacro.h **** #define portCHAR		char
  48:/home/rdu/Workspace/project_templates/mcu/stm32_ws/src/libraries/FreeRTOS/Source/portable/GCC/ARM_CM4F/portmacro.h **** #define portFLOAT		float
  49:/home/rdu/Workspace/project_templates/mcu/stm32_ws/src/libraries/FreeRTOS/Source/portable/GCC/ARM_CM4F/portmacro.h **** #define portDOUBLE		double
  50:/home/rdu/Workspace/project_templates/mcu/stm32_ws/src/libraries/FreeRTOS/Source/portable/GCC/ARM_CM4F/portmacro.h **** #define portLONG		long
  51:/home/rdu/Workspace/project_templates/mcu/stm32_ws/src/libraries/FreeRTOS/Source/portable/GCC/ARM_CM4F/portmacro.h **** #define portSHORT		short
  52:/home/rdu/Workspace/project_templates/mcu/stm32_ws/src/libraries/FreeRTOS/Source/portable/GCC/ARM_CM4F/portmacro.h **** #define portSTACK_TYPE	uint32_t
  53:/home/rdu/Workspace/project_templates/mcu/stm32_ws/src/libraries/FreeRTOS/Source/portable/GCC/ARM_CM4F/portmacro.h **** #define portBASE_TYPE	long
  54:/home/rdu/Workspace/project_templates/mcu/stm32_ws/src/libraries/FreeRTOS/Source/portable/GCC/ARM_CM4F/portmacro.h **** 
  55:/home/rdu/Workspace/project_templates/mcu/stm32_ws/src/libraries/FreeRTOS/Source/portable/GCC/ARM_CM4F/portmacro.h **** typedef portSTACK_TYPE StackType_t;
  56:/home/rdu/Workspace/project_templates/mcu/stm32_ws/src/libraries/FreeRTOS/Source/portable/GCC/ARM_CM4F/portmacro.h **** typedef long BaseType_t;
  57:/home/rdu/Workspace/project_templates/mcu/stm32_ws/src/libraries/FreeRTOS/Source/portable/GCC/ARM_CM4F/portmacro.h **** typedef unsigned long UBaseType_t;
  58:/home/rdu/Workspace/project_templates/mcu/stm32_ws/src/libraries/FreeRTOS/Source/portable/GCC/ARM_CM4F/portmacro.h **** 
  59:/home/rdu/Workspace/project_templates/mcu/stm32_ws/src/libraries/FreeRTOS/Source/portable/GCC/ARM_CM4F/portmacro.h **** #if( configUSE_16_BIT_TICKS == 1 )
  60:/home/rdu/Workspace/project_templates/mcu/stm32_ws/src/libraries/FreeRTOS/Source/portable/GCC/ARM_CM4F/portmacro.h **** 	typedef uint16_t TickType_t;
  61:/home/rdu/Workspace/project_templates/mcu/stm32_ws/src/libraries/FreeRTOS/Source/portable/GCC/ARM_CM4F/portmacro.h **** 	#define portMAX_DELAY ( TickType_t ) 0xffff
  62:/home/rdu/Workspace/project_templates/mcu/stm32_ws/src/libraries/FreeRTOS/Source/portable/GCC/ARM_CM4F/portmacro.h **** #else
  63:/home/rdu/Workspace/project_templates/mcu/stm32_ws/src/libraries/FreeRTOS/Source/portable/GCC/ARM_CM4F/portmacro.h **** 	typedef uint32_t TickType_t;
  64:/home/rdu/Workspace/project_templates/mcu/stm32_ws/src/libraries/FreeRTOS/Source/portable/GCC/ARM_CM4F/portmacro.h **** 	#define portMAX_DELAY ( TickType_t ) 0xffffffffUL
  65:/home/rdu/Workspace/project_templates/mcu/stm32_ws/src/libraries/FreeRTOS/Source/portable/GCC/ARM_CM4F/portmacro.h **** 
  66:/home/rdu/Workspace/project_templates/mcu/stm32_ws/src/libraries/FreeRTOS/Source/portable/GCC/ARM_CM4F/portmacro.h **** 	/* 32-bit tick type on a 32-bit architecture, so reads of the tick count do
  67:/home/rdu/Workspace/project_templates/mcu/stm32_ws/src/libraries/FreeRTOS/Source/portable/GCC/ARM_CM4F/portmacro.h **** 	not need to be guarded with a critical section. */
  68:/home/rdu/Workspace/project_templates/mcu/stm32_ws/src/libraries/FreeRTOS/Source/portable/GCC/ARM_CM4F/portmacro.h **** 	#define portTICK_TYPE_IS_ATOMIC 1
  69:/home/rdu/Workspace/project_templates/mcu/stm32_ws/src/libraries/FreeRTOS/Source/portable/GCC/ARM_CM4F/portmacro.h **** #endif
  70:/home/rdu/Workspace/project_templates/mcu/stm32_ws/src/libraries/FreeRTOS/Source/portable/GCC/ARM_CM4F/portmacro.h **** /*-----------------------------------------------------------*/
  71:/home/rdu/Workspace/project_templates/mcu/stm32_ws/src/libraries/FreeRTOS/Source/portable/GCC/ARM_CM4F/portmacro.h **** 
  72:/home/rdu/Workspace/project_templates/mcu/stm32_ws/src/libraries/FreeRTOS/Source/portable/GCC/ARM_CM4F/portmacro.h **** /* Architecture specifics. */
  73:/home/rdu/Workspace/project_templates/mcu/stm32_ws/src/libraries/FreeRTOS/Source/portable/GCC/ARM_CM4F/portmacro.h **** #define portSTACK_GROWTH			( -1 )
  74:/home/rdu/Workspace/project_templates/mcu/stm32_ws/src/libraries/FreeRTOS/Source/portable/GCC/ARM_CM4F/portmacro.h **** #define portTICK_PERIOD_MS			( ( TickType_t ) 1000 / configTICK_RATE_HZ )
  75:/home/rdu/Workspace/project_templates/mcu/stm32_ws/src/libraries/FreeRTOS/Source/portable/GCC/ARM_CM4F/portmacro.h **** #define portBYTE_ALIGNMENT			8
  76:/home/rdu/Workspace/project_templates/mcu/stm32_ws/src/libraries/FreeRTOS/Source/portable/GCC/ARM_CM4F/portmacro.h **** /*-----------------------------------------------------------*/
  77:/home/rdu/Workspace/project_templates/mcu/stm32_ws/src/libraries/FreeRTOS/Source/portable/GCC/ARM_CM4F/portmacro.h **** 
  78:/home/rdu/Workspace/project_templates/mcu/stm32_ws/src/libraries/FreeRTOS/Source/portable/GCC/ARM_CM4F/portmacro.h **** /* Scheduler utilities. */
  79:/home/rdu/Workspace/project_templates/mcu/stm32_ws/src/libraries/FreeRTOS/Source/portable/GCC/ARM_CM4F/portmacro.h **** #define portYIELD() 															\
  80:/home/rdu/Workspace/project_templates/mcu/stm32_ws/src/libraries/FreeRTOS/Source/portable/GCC/ARM_CM4F/portmacro.h **** {																				\
  81:/home/rdu/Workspace/project_templates/mcu/stm32_ws/src/libraries/FreeRTOS/Source/portable/GCC/ARM_CM4F/portmacro.h **** 	/* Set a PendSV to request a context switch. */								\
  82:/home/rdu/Workspace/project_templates/mcu/stm32_ws/src/libraries/FreeRTOS/Source/portable/GCC/ARM_CM4F/portmacro.h **** 	portNVIC_INT_CTRL_REG = portNVIC_PENDSVSET_BIT;								\
  83:/home/rdu/Workspace/project_templates/mcu/stm32_ws/src/libraries/FreeRTOS/Source/portable/GCC/ARM_CM4F/portmacro.h **** 																				\
  84:/home/rdu/Workspace/project_templates/mcu/stm32_ws/src/libraries/FreeRTOS/Source/portable/GCC/ARM_CM4F/portmacro.h **** 	/* Barriers are normally not required but do ensure the code is completely	\
  85:/home/rdu/Workspace/project_templates/mcu/stm32_ws/src/libraries/FreeRTOS/Source/portable/GCC/ARM_CM4F/portmacro.h **** 	within the specified behaviour for the architecture. */						\
  86:/home/rdu/Workspace/project_templates/mcu/stm32_ws/src/libraries/FreeRTOS/Source/portable/GCC/ARM_CM4F/portmacro.h **** 	__asm volatile( "dsb" ::: "memory" );										\
  87:/home/rdu/Workspace/project_templates/mcu/stm32_ws/src/libraries/FreeRTOS/Source/portable/GCC/ARM_CM4F/portmacro.h **** 	__asm volatile( "isb" );													\
  88:/home/rdu/Workspace/project_templates/mcu/stm32_ws/src/libraries/FreeRTOS/Source/portable/GCC/ARM_CM4F/portmacro.h **** }
  89:/home/rdu/Workspace/project_templates/mcu/stm32_ws/src/libraries/FreeRTOS/Source/portable/GCC/ARM_CM4F/portmacro.h **** 
  90:/home/rdu/Workspace/project_templates/mcu/stm32_ws/src/libraries/FreeRTOS/Source/portable/GCC/ARM_CM4F/portmacro.h **** #define portNVIC_INT_CTRL_REG		( * ( ( volatile uint32_t * ) 0xe000ed04 ) )
  91:/home/rdu/Workspace/project_templates/mcu/stm32_ws/src/libraries/FreeRTOS/Source/portable/GCC/ARM_CM4F/portmacro.h **** #define portNVIC_PENDSVSET_BIT		( 1UL << 28UL )
  92:/home/rdu/Workspace/project_templates/mcu/stm32_ws/src/libraries/FreeRTOS/Source/portable/GCC/ARM_CM4F/portmacro.h **** #define portEND_SWITCHING_ISR( xSwitchRequired ) if( xSwitchRequired != pdFALSE ) portYIELD()
  93:/home/rdu/Workspace/project_templates/mcu/stm32_ws/src/libraries/FreeRTOS/Source/portable/GCC/ARM_CM4F/portmacro.h **** #define portYIELD_FROM_ISR( x ) portEND_SWITCHING_ISR( x )
  94:/home/rdu/Workspace/project_templates/mcu/stm32_ws/src/libraries/FreeRTOS/Source/portable/GCC/ARM_CM4F/portmacro.h **** /*-----------------------------------------------------------*/
  95:/home/rdu/Workspace/project_templates/mcu/stm32_ws/src/libraries/FreeRTOS/Source/portable/GCC/ARM_CM4F/portmacro.h **** 
  96:/home/rdu/Workspace/project_templates/mcu/stm32_ws/src/libraries/FreeRTOS/Source/portable/GCC/ARM_CM4F/portmacro.h **** /* Critical section management. */
  97:/home/rdu/Workspace/project_templates/mcu/stm32_ws/src/libraries/FreeRTOS/Source/portable/GCC/ARM_CM4F/portmacro.h **** extern void vPortEnterCritical( void );
  98:/home/rdu/Workspace/project_templates/mcu/stm32_ws/src/libraries/FreeRTOS/Source/portable/GCC/ARM_CM4F/portmacro.h **** extern void vPortExitCritical( void );
  99:/home/rdu/Workspace/project_templates/mcu/stm32_ws/src/libraries/FreeRTOS/Source/portable/GCC/ARM_CM4F/portmacro.h **** #define portSET_INTERRUPT_MASK_FROM_ISR()		ulPortRaiseBASEPRI()
 100:/home/rdu/Workspace/project_templates/mcu/stm32_ws/src/libraries/FreeRTOS/Source/portable/GCC/ARM_CM4F/portmacro.h **** #define portCLEAR_INTERRUPT_MASK_FROM_ISR(x)	vPortSetBASEPRI(x)
 101:/home/rdu/Workspace/project_templates/mcu/stm32_ws/src/libraries/FreeRTOS/Source/portable/GCC/ARM_CM4F/portmacro.h **** #define portDISABLE_INTERRUPTS()				vPortRaiseBASEPRI()
 102:/home/rdu/Workspace/project_templates/mcu/stm32_ws/src/libraries/FreeRTOS/Source/portable/GCC/ARM_CM4F/portmacro.h **** #define portENABLE_INTERRUPTS()					vPortSetBASEPRI(0)
 103:/home/rdu/Workspace/project_templates/mcu/stm32_ws/src/libraries/FreeRTOS/Source/portable/GCC/ARM_CM4F/portmacro.h **** #define portENTER_CRITICAL()					vPortEnterCritical()
 104:/home/rdu/Workspace/project_templates/mcu/stm32_ws/src/libraries/FreeRTOS/Source/portable/GCC/ARM_CM4F/portmacro.h **** #define portEXIT_CRITICAL()						vPortExitCritical()
 105:/home/rdu/Workspace/project_templates/mcu/stm32_ws/src/libraries/FreeRTOS/Source/portable/GCC/ARM_CM4F/portmacro.h **** 
 106:/home/rdu/Workspace/project_templates/mcu/stm32_ws/src/libraries/FreeRTOS/Source/portable/GCC/ARM_CM4F/portmacro.h **** /*-----------------------------------------------------------*/
 107:/home/rdu/Workspace/project_templates/mcu/stm32_ws/src/libraries/FreeRTOS/Source/portable/GCC/ARM_CM4F/portmacro.h **** 
 108:/home/rdu/Workspace/project_templates/mcu/stm32_ws/src/libraries/FreeRTOS/Source/portable/GCC/ARM_CM4F/portmacro.h **** /* Task function macros as described on the FreeRTOS.org WEB site.  These are
 109:/home/rdu/Workspace/project_templates/mcu/stm32_ws/src/libraries/FreeRTOS/Source/portable/GCC/ARM_CM4F/portmacro.h **** not necessary for to use this port.  They are defined so the common demo files
 110:/home/rdu/Workspace/project_templates/mcu/stm32_ws/src/libraries/FreeRTOS/Source/portable/GCC/ARM_CM4F/portmacro.h **** (which build with all the ports) will build. */
 111:/home/rdu/Workspace/project_templates/mcu/stm32_ws/src/libraries/FreeRTOS/Source/portable/GCC/ARM_CM4F/portmacro.h **** #define portTASK_FUNCTION_PROTO( vFunction, pvParameters ) void vFunction( void *pvParameters )
 112:/home/rdu/Workspace/project_templates/mcu/stm32_ws/src/libraries/FreeRTOS/Source/portable/GCC/ARM_CM4F/portmacro.h **** #define portTASK_FUNCTION( vFunction, pvParameters ) void vFunction( void *pvParameters )
 113:/home/rdu/Workspace/project_templates/mcu/stm32_ws/src/libraries/FreeRTOS/Source/portable/GCC/ARM_CM4F/portmacro.h **** /*-----------------------------------------------------------*/
 114:/home/rdu/Workspace/project_templates/mcu/stm32_ws/src/libraries/FreeRTOS/Source/portable/GCC/ARM_CM4F/portmacro.h **** 
 115:/home/rdu/Workspace/project_templates/mcu/stm32_ws/src/libraries/FreeRTOS/Source/portable/GCC/ARM_CM4F/portmacro.h **** /* Tickless idle/low power functionality. */
 116:/home/rdu/Workspace/project_templates/mcu/stm32_ws/src/libraries/FreeRTOS/Source/portable/GCC/ARM_CM4F/portmacro.h **** #ifndef portSUPPRESS_TICKS_AND_SLEEP
 117:/home/rdu/Workspace/project_templates/mcu/stm32_ws/src/libraries/FreeRTOS/Source/portable/GCC/ARM_CM4F/portmacro.h **** 	extern void vPortSuppressTicksAndSleep( TickType_t xExpectedIdleTime );
 118:/home/rdu/Workspace/project_templates/mcu/stm32_ws/src/libraries/FreeRTOS/Source/portable/GCC/ARM_CM4F/portmacro.h **** 	#define portSUPPRESS_TICKS_AND_SLEEP( xExpectedIdleTime ) vPortSuppressTicksAndSleep( xExpectedIdl
 119:/home/rdu/Workspace/project_templates/mcu/stm32_ws/src/libraries/FreeRTOS/Source/portable/GCC/ARM_CM4F/portmacro.h **** #endif
 120:/home/rdu/Workspace/project_templates/mcu/stm32_ws/src/libraries/FreeRTOS/Source/portable/GCC/ARM_CM4F/portmacro.h **** /*-----------------------------------------------------------*/
 121:/home/rdu/Workspace/project_templates/mcu/stm32_ws/src/libraries/FreeRTOS/Source/portable/GCC/ARM_CM4F/portmacro.h **** 
 122:/home/rdu/Workspace/project_templates/mcu/stm32_ws/src/libraries/FreeRTOS/Source/portable/GCC/ARM_CM4F/portmacro.h **** /* Architecture specific optimisations. */
 123:/home/rdu/Workspace/project_templates/mcu/stm32_ws/src/libraries/FreeRTOS/Source/portable/GCC/ARM_CM4F/portmacro.h **** #ifndef configUSE_PORT_OPTIMISED_TASK_SELECTION
 124:/home/rdu/Workspace/project_templates/mcu/stm32_ws/src/libraries/FreeRTOS/Source/portable/GCC/ARM_CM4F/portmacro.h **** 	#define configUSE_PORT_OPTIMISED_TASK_SELECTION 1
 125:/home/rdu/Workspace/project_templates/mcu/stm32_ws/src/libraries/FreeRTOS/Source/portable/GCC/ARM_CM4F/portmacro.h **** #endif
 126:/home/rdu/Workspace/project_templates/mcu/stm32_ws/src/libraries/FreeRTOS/Source/portable/GCC/ARM_CM4F/portmacro.h **** 
 127:/home/rdu/Workspace/project_templates/mcu/stm32_ws/src/libraries/FreeRTOS/Source/portable/GCC/ARM_CM4F/portmacro.h **** #if configUSE_PORT_OPTIMISED_TASK_SELECTION == 1
 128:/home/rdu/Workspace/project_templates/mcu/stm32_ws/src/libraries/FreeRTOS/Source/portable/GCC/ARM_CM4F/portmacro.h **** 
 129:/home/rdu/Workspace/project_templates/mcu/stm32_ws/src/libraries/FreeRTOS/Source/portable/GCC/ARM_CM4F/portmacro.h **** 	/* Generic helper function. */
 130:/home/rdu/Workspace/project_templates/mcu/stm32_ws/src/libraries/FreeRTOS/Source/portable/GCC/ARM_CM4F/portmacro.h **** 	__attribute__( ( always_inline ) ) static inline uint8_t ucPortCountLeadingZeros( uint32_t ulBitma
 131:/home/rdu/Workspace/project_templates/mcu/stm32_ws/src/libraries/FreeRTOS/Source/portable/GCC/ARM_CM4F/portmacro.h **** 	{
 132:/home/rdu/Workspace/project_templates/mcu/stm32_ws/src/libraries/FreeRTOS/Source/portable/GCC/ARM_CM4F/portmacro.h **** 	uint8_t ucReturn;
 133:/home/rdu/Workspace/project_templates/mcu/stm32_ws/src/libraries/FreeRTOS/Source/portable/GCC/ARM_CM4F/portmacro.h **** 
 134:/home/rdu/Workspace/project_templates/mcu/stm32_ws/src/libraries/FreeRTOS/Source/portable/GCC/ARM_CM4F/portmacro.h **** 		__asm volatile ( "clz %0, %1" : "=r" ( ucReturn ) : "r" ( ulBitmap ) : "memory" );
 135:/home/rdu/Workspace/project_templates/mcu/stm32_ws/src/libraries/FreeRTOS/Source/portable/GCC/ARM_CM4F/portmacro.h **** 		return ucReturn;
 136:/home/rdu/Workspace/project_templates/mcu/stm32_ws/src/libraries/FreeRTOS/Source/portable/GCC/ARM_CM4F/portmacro.h **** 	}
 137:/home/rdu/Workspace/project_templates/mcu/stm32_ws/src/libraries/FreeRTOS/Source/portable/GCC/ARM_CM4F/portmacro.h **** 
 138:/home/rdu/Workspace/project_templates/mcu/stm32_ws/src/libraries/FreeRTOS/Source/portable/GCC/ARM_CM4F/portmacro.h **** 	/* Check the configuration. */
 139:/home/rdu/Workspace/project_templates/mcu/stm32_ws/src/libraries/FreeRTOS/Source/portable/GCC/ARM_CM4F/portmacro.h **** 	#if( configMAX_PRIORITIES > 32 )
 140:/home/rdu/Workspace/project_templates/mcu/stm32_ws/src/libraries/FreeRTOS/Source/portable/GCC/ARM_CM4F/portmacro.h **** 		#error configUSE_PORT_OPTIMISED_TASK_SELECTION can only be set to 1 when configMAX_PRIORITIES is 
 141:/home/rdu/Workspace/project_templates/mcu/stm32_ws/src/libraries/FreeRTOS/Source/portable/GCC/ARM_CM4F/portmacro.h **** 	#endif
 142:/home/rdu/Workspace/project_templates/mcu/stm32_ws/src/libraries/FreeRTOS/Source/portable/GCC/ARM_CM4F/portmacro.h **** 
 143:/home/rdu/Workspace/project_templates/mcu/stm32_ws/src/libraries/FreeRTOS/Source/portable/GCC/ARM_CM4F/portmacro.h **** 	/* Store/clear the ready priorities in a bit map. */
 144:/home/rdu/Workspace/project_templates/mcu/stm32_ws/src/libraries/FreeRTOS/Source/portable/GCC/ARM_CM4F/portmacro.h **** 	#define portRECORD_READY_PRIORITY( uxPriority, uxReadyPriorities ) ( uxReadyPriorities ) |= ( 1UL 
 145:/home/rdu/Workspace/project_templates/mcu/stm32_ws/src/libraries/FreeRTOS/Source/portable/GCC/ARM_CM4F/portmacro.h **** 	#define portRESET_READY_PRIORITY( uxPriority, uxReadyPriorities ) ( uxReadyPriorities ) &= ~( 1UL 
 146:/home/rdu/Workspace/project_templates/mcu/stm32_ws/src/libraries/FreeRTOS/Source/portable/GCC/ARM_CM4F/portmacro.h **** 
 147:/home/rdu/Workspace/project_templates/mcu/stm32_ws/src/libraries/FreeRTOS/Source/portable/GCC/ARM_CM4F/portmacro.h **** 	/*-----------------------------------------------------------*/
 148:/home/rdu/Workspace/project_templates/mcu/stm32_ws/src/libraries/FreeRTOS/Source/portable/GCC/ARM_CM4F/portmacro.h **** 
 149:/home/rdu/Workspace/project_templates/mcu/stm32_ws/src/libraries/FreeRTOS/Source/portable/GCC/ARM_CM4F/portmacro.h **** 	#define portGET_HIGHEST_PRIORITY( uxTopPriority, uxReadyPriorities ) uxTopPriority = ( 31UL - ( ui
 150:/home/rdu/Workspace/project_templates/mcu/stm32_ws/src/libraries/FreeRTOS/Source/portable/GCC/ARM_CM4F/portmacro.h **** 
 151:/home/rdu/Workspace/project_templates/mcu/stm32_ws/src/libraries/FreeRTOS/Source/portable/GCC/ARM_CM4F/portmacro.h **** #endif /* configUSE_PORT_OPTIMISED_TASK_SELECTION */
 152:/home/rdu/Workspace/project_templates/mcu/stm32_ws/src/libraries/FreeRTOS/Source/portable/GCC/ARM_CM4F/portmacro.h **** 
 153:/home/rdu/Workspace/project_templates/mcu/stm32_ws/src/libraries/FreeRTOS/Source/portable/GCC/ARM_CM4F/portmacro.h **** /*-----------------------------------------------------------*/
 154:/home/rdu/Workspace/project_templates/mcu/stm32_ws/src/libraries/FreeRTOS/Source/portable/GCC/ARM_CM4F/portmacro.h **** 
 155:/home/rdu/Workspace/project_templates/mcu/stm32_ws/src/libraries/FreeRTOS/Source/portable/GCC/ARM_CM4F/portmacro.h **** #ifdef configASSERT
 156:/home/rdu/Workspace/project_templates/mcu/stm32_ws/src/libraries/FreeRTOS/Source/portable/GCC/ARM_CM4F/portmacro.h **** 	void vPortValidateInterruptPriority( void );
 157:/home/rdu/Workspace/project_templates/mcu/stm32_ws/src/libraries/FreeRTOS/Source/portable/GCC/ARM_CM4F/portmacro.h **** 	#define portASSERT_IF_INTERRUPT_PRIORITY_INVALID() 	vPortValidateInterruptPriority()
 158:/home/rdu/Workspace/project_templates/mcu/stm32_ws/src/libraries/FreeRTOS/Source/portable/GCC/ARM_CM4F/portmacro.h **** #endif
 159:/home/rdu/Workspace/project_templates/mcu/stm32_ws/src/libraries/FreeRTOS/Source/portable/GCC/ARM_CM4F/portmacro.h **** 
 160:/home/rdu/Workspace/project_templates/mcu/stm32_ws/src/libraries/FreeRTOS/Source/portable/GCC/ARM_CM4F/portmacro.h **** /* portNOP() is not required by this port. */
 161:/home/rdu/Workspace/project_templates/mcu/stm32_ws/src/libraries/FreeRTOS/Source/portable/GCC/ARM_CM4F/portmacro.h **** #define portNOP()
 162:/home/rdu/Workspace/project_templates/mcu/stm32_ws/src/libraries/FreeRTOS/Source/portable/GCC/ARM_CM4F/portmacro.h **** 
 163:/home/rdu/Workspace/project_templates/mcu/stm32_ws/src/libraries/FreeRTOS/Source/portable/GCC/ARM_CM4F/portmacro.h **** #define portINLINE	__inline
 164:/home/rdu/Workspace/project_templates/mcu/stm32_ws/src/libraries/FreeRTOS/Source/portable/GCC/ARM_CM4F/portmacro.h **** 
 165:/home/rdu/Workspace/project_templates/mcu/stm32_ws/src/libraries/FreeRTOS/Source/portable/GCC/ARM_CM4F/portmacro.h **** #ifndef portFORCE_INLINE
 166:/home/rdu/Workspace/project_templates/mcu/stm32_ws/src/libraries/FreeRTOS/Source/portable/GCC/ARM_CM4F/portmacro.h **** 	#define portFORCE_INLINE inline __attribute__(( always_inline))
 167:/home/rdu/Workspace/project_templates/mcu/stm32_ws/src/libraries/FreeRTOS/Source/portable/GCC/ARM_CM4F/portmacro.h **** #endif
 168:/home/rdu/Workspace/project_templates/mcu/stm32_ws/src/libraries/FreeRTOS/Source/portable/GCC/ARM_CM4F/portmacro.h **** 
 169:/home/rdu/Workspace/project_templates/mcu/stm32_ws/src/libraries/FreeRTOS/Source/portable/GCC/ARM_CM4F/portmacro.h **** portFORCE_INLINE static BaseType_t xPortIsInsideInterrupt( void )
 170:/home/rdu/Workspace/project_templates/mcu/stm32_ws/src/libraries/FreeRTOS/Source/portable/GCC/ARM_CM4F/portmacro.h **** {
 171:/home/rdu/Workspace/project_templates/mcu/stm32_ws/src/libraries/FreeRTOS/Source/portable/GCC/ARM_CM4F/portmacro.h **** uint32_t ulCurrentInterrupt;
 172:/home/rdu/Workspace/project_templates/mcu/stm32_ws/src/libraries/FreeRTOS/Source/portable/GCC/ARM_CM4F/portmacro.h **** BaseType_t xReturn;
 173:/home/rdu/Workspace/project_templates/mcu/stm32_ws/src/libraries/FreeRTOS/Source/portable/GCC/ARM_CM4F/portmacro.h **** 
 174:/home/rdu/Workspace/project_templates/mcu/stm32_ws/src/libraries/FreeRTOS/Source/portable/GCC/ARM_CM4F/portmacro.h **** 	/* Obtain the number of the currently executing interrupt. */
 175:/home/rdu/Workspace/project_templates/mcu/stm32_ws/src/libraries/FreeRTOS/Source/portable/GCC/ARM_CM4F/portmacro.h **** 	__asm volatile( "mrs %0, ipsr" : "=r"( ulCurrentInterrupt ) :: "memory" );
 176:/home/rdu/Workspace/project_templates/mcu/stm32_ws/src/libraries/FreeRTOS/Source/portable/GCC/ARM_CM4F/portmacro.h **** 
 177:/home/rdu/Workspace/project_templates/mcu/stm32_ws/src/libraries/FreeRTOS/Source/portable/GCC/ARM_CM4F/portmacro.h **** 	if( ulCurrentInterrupt == 0 )
 178:/home/rdu/Workspace/project_templates/mcu/stm32_ws/src/libraries/FreeRTOS/Source/portable/GCC/ARM_CM4F/portmacro.h **** 	{
 179:/home/rdu/Workspace/project_templates/mcu/stm32_ws/src/libraries/FreeRTOS/Source/portable/GCC/ARM_CM4F/portmacro.h **** 		xReturn = pdFALSE;
 180:/home/rdu/Workspace/project_templates/mcu/stm32_ws/src/libraries/FreeRTOS/Source/portable/GCC/ARM_CM4F/portmacro.h **** 	}
 181:/home/rdu/Workspace/project_templates/mcu/stm32_ws/src/libraries/FreeRTOS/Source/portable/GCC/ARM_CM4F/portmacro.h **** 	else
 182:/home/rdu/Workspace/project_templates/mcu/stm32_ws/src/libraries/FreeRTOS/Source/portable/GCC/ARM_CM4F/portmacro.h **** 	{
 183:/home/rdu/Workspace/project_templates/mcu/stm32_ws/src/libraries/FreeRTOS/Source/portable/GCC/ARM_CM4F/portmacro.h **** 		xReturn = pdTRUE;
 184:/home/rdu/Workspace/project_templates/mcu/stm32_ws/src/libraries/FreeRTOS/Source/portable/GCC/ARM_CM4F/portmacro.h **** 	}
 185:/home/rdu/Workspace/project_templates/mcu/stm32_ws/src/libraries/FreeRTOS/Source/portable/GCC/ARM_CM4F/portmacro.h **** 
 186:/home/rdu/Workspace/project_templates/mcu/stm32_ws/src/libraries/FreeRTOS/Source/portable/GCC/ARM_CM4F/portmacro.h **** 	return xReturn;
 187:/home/rdu/Workspace/project_templates/mcu/stm32_ws/src/libraries/FreeRTOS/Source/portable/GCC/ARM_CM4F/portmacro.h **** }
 188:/home/rdu/Workspace/project_templates/mcu/stm32_ws/src/libraries/FreeRTOS/Source/portable/GCC/ARM_CM4F/portmacro.h **** 
 189:/home/rdu/Workspace/project_templates/mcu/stm32_ws/src/libraries/FreeRTOS/Source/portable/GCC/ARM_CM4F/portmacro.h **** /*-----------------------------------------------------------*/
 190:/home/rdu/Workspace/project_templates/mcu/stm32_ws/src/libraries/FreeRTOS/Source/portable/GCC/ARM_CM4F/portmacro.h **** 
 191:/home/rdu/Workspace/project_templates/mcu/stm32_ws/src/libraries/FreeRTOS/Source/portable/GCC/ARM_CM4F/portmacro.h **** portFORCE_INLINE static void vPortRaiseBASEPRI( void )
 192:/home/rdu/Workspace/project_templates/mcu/stm32_ws/src/libraries/FreeRTOS/Source/portable/GCC/ARM_CM4F/portmacro.h **** {
 193:/home/rdu/Workspace/project_templates/mcu/stm32_ws/src/libraries/FreeRTOS/Source/portable/GCC/ARM_CM4F/portmacro.h **** uint32_t ulNewBASEPRI;
 194:/home/rdu/Workspace/project_templates/mcu/stm32_ws/src/libraries/FreeRTOS/Source/portable/GCC/ARM_CM4F/portmacro.h **** 
 195:/home/rdu/Workspace/project_templates/mcu/stm32_ws/src/libraries/FreeRTOS/Source/portable/GCC/ARM_CM4F/portmacro.h **** 	__asm volatile
  50              		.loc 2 195 0 discriminator 1
  51              		.syntax unified
  52              	@ 195 "/home/rdu/Workspace/project_templates/mcu/stm32_ws/src/libraries/FreeRTOS/Source/portable/GC
  53 0012 4FF05003 			mov r3, #80												
  54 0016 83F31188 		msr basepri, r3											
  55 001a BFF36F8F 		isb														
  56 001e BFF34F8F 		dsb														
  57              	
  58              	@ 0 "" 2
  59              		.thumb
  60              		.syntax unified
  61 0022 0293     		str	r3, [sp, #8]
  62              	.L3:
  63              	.LBE102:
  64              	.LBE101:
  65              		.loc 1 259 0 discriminator 1
  66 0024 FEE7     		b	.L3
  67              	.L2:
 260:/home/rdu/Workspace/project_templates/mcu/stm32_ws/src/libraries/FreeRTOS/Source/queue.c **** 
 261:/home/rdu/Workspace/project_templates/mcu/stm32_ws/src/libraries/FreeRTOS/Source/queue.c **** 	taskENTER_CRITICAL();
  68              		.loc 1 261 0
  69 0026 FFF7FEFF 		bl	vPortEnterCritical
 262:/home/rdu/Workspace/project_templates/mcu/stm32_ws/src/libraries/FreeRTOS/Source/queue.c **** 	{
 263:/home/rdu/Workspace/project_templates/mcu/stm32_ws/src/libraries/FreeRTOS/Source/queue.c **** 		pxQueue->u.xQueue.pcTail = pxQueue->pcHead + ( pxQueue->uxLength * pxQueue->uxItemSize ); /*lint 
  70              		.loc 1 263 0
  71 002a 039B     		ldr	r3, [sp, #12]
  72 002c 1A68     		ldr	r2, [r3]
  73 002e 039B     		ldr	r3, [sp, #12]
  74 0030 DB6B     		ldr	r3, [r3, #60]
  75 0032 0399     		ldr	r1, [sp, #12]
  76 0034 096C     		ldr	r1, [r1, #64]
  77 0036 01FB03F3 		mul	r3, r1, r3
  78 003a 1A44     		add	r2, r2, r3
  79 003c 039B     		ldr	r3, [sp, #12]
  80 003e 9A60     		str	r2, [r3, #8]
 264:/home/rdu/Workspace/project_templates/mcu/stm32_ws/src/libraries/FreeRTOS/Source/queue.c **** 		pxQueue->uxMessagesWaiting = ( UBaseType_t ) 0U;
  81              		.loc 1 264 0
  82 0040 039B     		ldr	r3, [sp, #12]
  83 0042 0022     		movs	r2, #0
  84 0044 9A63     		str	r2, [r3, #56]
 265:/home/rdu/Workspace/project_templates/mcu/stm32_ws/src/libraries/FreeRTOS/Source/queue.c **** 		pxQueue->pcWriteTo = pxQueue->pcHead;
  85              		.loc 1 265 0
  86 0046 039B     		ldr	r3, [sp, #12]
  87 0048 1A68     		ldr	r2, [r3]
  88 004a 039B     		ldr	r3, [sp, #12]
  89 004c 5A60     		str	r2, [r3, #4]
 266:/home/rdu/Workspace/project_templates/mcu/stm32_ws/src/libraries/FreeRTOS/Source/queue.c **** 		pxQueue->u.xQueue.pcReadFrom = pxQueue->pcHead + ( ( pxQueue->uxLength - 1U ) * pxQueue->uxItemSi
  90              		.loc 1 266 0
  91 004e 039B     		ldr	r3, [sp, #12]
  92 0050 1A68     		ldr	r2, [r3]
  93 0052 039B     		ldr	r3, [sp, #12]
  94 0054 DB6B     		ldr	r3, [r3, #60]
  95 0056 013B     		subs	r3, r3, #1
  96 0058 0399     		ldr	r1, [sp, #12]
  97 005a 096C     		ldr	r1, [r1, #64]
  98 005c 01FB03F3 		mul	r3, r1, r3
  99 0060 1A44     		add	r2, r2, r3
 100 0062 039B     		ldr	r3, [sp, #12]
 101 0064 DA60     		str	r2, [r3, #12]
 267:/home/rdu/Workspace/project_templates/mcu/stm32_ws/src/libraries/FreeRTOS/Source/queue.c **** 		pxQueue->cRxLock = queueUNLOCKED;
 102              		.loc 1 267 0
 103 0066 039B     		ldr	r3, [sp, #12]
 104 0068 FF22     		movs	r2, #255
 105 006a 83F84420 		strb	r2, [r3, #68]
 268:/home/rdu/Workspace/project_templates/mcu/stm32_ws/src/libraries/FreeRTOS/Source/queue.c **** 		pxQueue->cTxLock = queueUNLOCKED;
 106              		.loc 1 268 0
 107 006e 039B     		ldr	r3, [sp, #12]
 108 0070 FF22     		movs	r2, #255
 109 0072 83F84520 		strb	r2, [r3, #69]
 269:/home/rdu/Workspace/project_templates/mcu/stm32_ws/src/libraries/FreeRTOS/Source/queue.c **** 
 270:/home/rdu/Workspace/project_templates/mcu/stm32_ws/src/libraries/FreeRTOS/Source/queue.c **** 		if( xNewQueue == pdFALSE )
 110              		.loc 1 270 0
 111 0076 009B     		ldr	r3, [sp]
 112 0078 002B     		cmp	r3, #0
 113 007a 14D1     		bne	.L4
 271:/home/rdu/Workspace/project_templates/mcu/stm32_ws/src/libraries/FreeRTOS/Source/queue.c **** 		{
 272:/home/rdu/Workspace/project_templates/mcu/stm32_ws/src/libraries/FreeRTOS/Source/queue.c **** 			/* If there are tasks blocked waiting to read from the queue, then
 273:/home/rdu/Workspace/project_templates/mcu/stm32_ws/src/libraries/FreeRTOS/Source/queue.c **** 			the tasks will remain blocked as after this function exits the queue
 274:/home/rdu/Workspace/project_templates/mcu/stm32_ws/src/libraries/FreeRTOS/Source/queue.c **** 			will still be empty.  If there are tasks blocked waiting to write to
 275:/home/rdu/Workspace/project_templates/mcu/stm32_ws/src/libraries/FreeRTOS/Source/queue.c **** 			the queue, then one should be unblocked as after this function exits
 276:/home/rdu/Workspace/project_templates/mcu/stm32_ws/src/libraries/FreeRTOS/Source/queue.c **** 			it will be possible to write to it. */
 277:/home/rdu/Workspace/project_templates/mcu/stm32_ws/src/libraries/FreeRTOS/Source/queue.c **** 			if( listLIST_IS_EMPTY( &( pxQueue->xTasksWaitingToSend ) ) == pdFALSE )
 114              		.loc 1 277 0
 115 007c 039B     		ldr	r3, [sp, #12]
 116 007e 1B69     		ldr	r3, [r3, #16]
 117 0080 002B     		cmp	r3, #0
 118 0082 1AD0     		beq	.L5
 278:/home/rdu/Workspace/project_templates/mcu/stm32_ws/src/libraries/FreeRTOS/Source/queue.c **** 			{
 279:/home/rdu/Workspace/project_templates/mcu/stm32_ws/src/libraries/FreeRTOS/Source/queue.c **** 				if( xTaskRemoveFromEventList( &( pxQueue->xTasksWaitingToSend ) ) != pdFALSE )
 119              		.loc 1 279 0
 120 0084 039B     		ldr	r3, [sp, #12]
 121 0086 1033     		adds	r3, r3, #16
 122 0088 1846     		mov	r0, r3
 123 008a FFF7FEFF 		bl	xTaskRemoveFromEventList
 124 008e 0346     		mov	r3, r0
 125 0090 002B     		cmp	r3, #0
 126 0092 12D0     		beq	.L5
 280:/home/rdu/Workspace/project_templates/mcu/stm32_ws/src/libraries/FreeRTOS/Source/queue.c **** 				{
 281:/home/rdu/Workspace/project_templates/mcu/stm32_ws/src/libraries/FreeRTOS/Source/queue.c **** 					queueYIELD_IF_USING_PREEMPTION();
 127              		.loc 1 281 0
 128 0094 0C4B     		ldr	r3, .L7
 129 0096 4FF08052 		mov	r2, #268435456
 130 009a 1A60     		str	r2, [r3]
 131              		.syntax unified
 132              	@ 281 "/home/rdu/Workspace/project_templates/mcu/stm32_ws/src/libraries/FreeRTOS/Source/queue.c" 1
 133 009c BFF34F8F 		dsb
 134              	@ 0 "" 2
 135              	@ 281 "/home/rdu/Workspace/project_templates/mcu/stm32_ws/src/libraries/FreeRTOS/Source/queue.c" 1
 136 00a0 BFF36F8F 		isb
 137              	@ 0 "" 2
 138              		.thumb
 139              		.syntax unified
 140 00a4 09E0     		b	.L5
 141              	.L4:
 282:/home/rdu/Workspace/project_templates/mcu/stm32_ws/src/libraries/FreeRTOS/Source/queue.c **** 				}
 283:/home/rdu/Workspace/project_templates/mcu/stm32_ws/src/libraries/FreeRTOS/Source/queue.c **** 				else
 284:/home/rdu/Workspace/project_templates/mcu/stm32_ws/src/libraries/FreeRTOS/Source/queue.c **** 				{
 285:/home/rdu/Workspace/project_templates/mcu/stm32_ws/src/libraries/FreeRTOS/Source/queue.c **** 					mtCOVERAGE_TEST_MARKER();
 286:/home/rdu/Workspace/project_templates/mcu/stm32_ws/src/libraries/FreeRTOS/Source/queue.c **** 				}
 287:/home/rdu/Workspace/project_templates/mcu/stm32_ws/src/libraries/FreeRTOS/Source/queue.c **** 			}
 288:/home/rdu/Workspace/project_templates/mcu/stm32_ws/src/libraries/FreeRTOS/Source/queue.c **** 			else
 289:/home/rdu/Workspace/project_templates/mcu/stm32_ws/src/libraries/FreeRTOS/Source/queue.c **** 			{
 290:/home/rdu/Workspace/project_templates/mcu/stm32_ws/src/libraries/FreeRTOS/Source/queue.c **** 				mtCOVERAGE_TEST_MARKER();
 291:/home/rdu/Workspace/project_templates/mcu/stm32_ws/src/libraries/FreeRTOS/Source/queue.c **** 			}
 292:/home/rdu/Workspace/project_templates/mcu/stm32_ws/src/libraries/FreeRTOS/Source/queue.c **** 		}
 293:/home/rdu/Workspace/project_templates/mcu/stm32_ws/src/libraries/FreeRTOS/Source/queue.c **** 		else
 294:/home/rdu/Workspace/project_templates/mcu/stm32_ws/src/libraries/FreeRTOS/Source/queue.c **** 		{
 295:/home/rdu/Workspace/project_templates/mcu/stm32_ws/src/libraries/FreeRTOS/Source/queue.c **** 			/* Ensure the event queues start in the correct state. */
 296:/home/rdu/Workspace/project_templates/mcu/stm32_ws/src/libraries/FreeRTOS/Source/queue.c **** 			vListInitialise( &( pxQueue->xTasksWaitingToSend ) );
 142              		.loc 1 296 0
 143 00a6 039B     		ldr	r3, [sp, #12]
 144 00a8 1033     		adds	r3, r3, #16
 145 00aa 1846     		mov	r0, r3
 146 00ac FFF7FEFF 		bl	vListInitialise
 297:/home/rdu/Workspace/project_templates/mcu/stm32_ws/src/libraries/FreeRTOS/Source/queue.c **** 			vListInitialise( &( pxQueue->xTasksWaitingToReceive ) );
 147              		.loc 1 297 0
 148 00b0 039B     		ldr	r3, [sp, #12]
 149 00b2 2433     		adds	r3, r3, #36
 150 00b4 1846     		mov	r0, r3
 151 00b6 FFF7FEFF 		bl	vListInitialise
 152              	.L5:
 298:/home/rdu/Workspace/project_templates/mcu/stm32_ws/src/libraries/FreeRTOS/Source/queue.c **** 		}
 299:/home/rdu/Workspace/project_templates/mcu/stm32_ws/src/libraries/FreeRTOS/Source/queue.c **** 	}
 300:/home/rdu/Workspace/project_templates/mcu/stm32_ws/src/libraries/FreeRTOS/Source/queue.c **** 	taskEXIT_CRITICAL();
 153              		.loc 1 300 0
 154 00ba FFF7FEFF 		bl	vPortExitCritical
 301:/home/rdu/Workspace/project_templates/mcu/stm32_ws/src/libraries/FreeRTOS/Source/queue.c **** 
 302:/home/rdu/Workspace/project_templates/mcu/stm32_ws/src/libraries/FreeRTOS/Source/queue.c **** 	/* A value is returned for calling semantic consistency with previous
 303:/home/rdu/Workspace/project_templates/mcu/stm32_ws/src/libraries/FreeRTOS/Source/queue.c **** 	versions. */
 304:/home/rdu/Workspace/project_templates/mcu/stm32_ws/src/libraries/FreeRTOS/Source/queue.c **** 	return pdPASS;
 155              		.loc 1 304 0
 156 00be 0123     		movs	r3, #1
 305:/home/rdu/Workspace/project_templates/mcu/stm32_ws/src/libraries/FreeRTOS/Source/queue.c **** }
 157              		.loc 1 305 0
 158 00c0 1846     		mov	r0, r3
 159 00c2 05B0     		add	sp, sp, #20
 160              	.LCFI2:
 161              		.cfi_def_cfa_offset 4
 162              		@ sp needed
 163 00c4 5DF804FB 		ldr	pc, [sp], #4
 164              	.L8:
 165              		.align	2
 166              	.L7:
 167 00c8 04ED00E0 		.word	-536810236
 168              		.cfi_endproc
 169              	.LFE5:
 171              		.section	.text.xQueueGenericCreate,"ax",%progbits
 172              		.align	1
 173              		.global	xQueueGenericCreate
 174              		.syntax unified
 175              		.thumb
 176              		.thumb_func
 177              		.fpu fpv4-sp-d16
 179              	xQueueGenericCreate:
 180              	.LFB6:
 306:/home/rdu/Workspace/project_templates/mcu/stm32_ws/src/libraries/FreeRTOS/Source/queue.c **** /*-----------------------------------------------------------*/
 307:/home/rdu/Workspace/project_templates/mcu/stm32_ws/src/libraries/FreeRTOS/Source/queue.c **** 
 308:/home/rdu/Workspace/project_templates/mcu/stm32_ws/src/libraries/FreeRTOS/Source/queue.c **** #if( configSUPPORT_STATIC_ALLOCATION == 1 )
 309:/home/rdu/Workspace/project_templates/mcu/stm32_ws/src/libraries/FreeRTOS/Source/queue.c **** 
 310:/home/rdu/Workspace/project_templates/mcu/stm32_ws/src/libraries/FreeRTOS/Source/queue.c **** 	QueueHandle_t xQueueGenericCreateStatic( const UBaseType_t uxQueueLength, const UBaseType_t uxItem
 311:/home/rdu/Workspace/project_templates/mcu/stm32_ws/src/libraries/FreeRTOS/Source/queue.c **** 	{
 312:/home/rdu/Workspace/project_templates/mcu/stm32_ws/src/libraries/FreeRTOS/Source/queue.c **** 	Queue_t *pxNewQueue;
 313:/home/rdu/Workspace/project_templates/mcu/stm32_ws/src/libraries/FreeRTOS/Source/queue.c **** 
 314:/home/rdu/Workspace/project_templates/mcu/stm32_ws/src/libraries/FreeRTOS/Source/queue.c **** 		configASSERT( uxQueueLength > ( UBaseType_t ) 0 );
 315:/home/rdu/Workspace/project_templates/mcu/stm32_ws/src/libraries/FreeRTOS/Source/queue.c **** 
 316:/home/rdu/Workspace/project_templates/mcu/stm32_ws/src/libraries/FreeRTOS/Source/queue.c **** 		/* The StaticQueue_t structure and the queue storage area must be
 317:/home/rdu/Workspace/project_templates/mcu/stm32_ws/src/libraries/FreeRTOS/Source/queue.c **** 		supplied. */
 318:/home/rdu/Workspace/project_templates/mcu/stm32_ws/src/libraries/FreeRTOS/Source/queue.c **** 		configASSERT( pxStaticQueue != NULL );
 319:/home/rdu/Workspace/project_templates/mcu/stm32_ws/src/libraries/FreeRTOS/Source/queue.c **** 
 320:/home/rdu/Workspace/project_templates/mcu/stm32_ws/src/libraries/FreeRTOS/Source/queue.c **** 		/* A queue storage area should be provided if the item size is not 0, and
 321:/home/rdu/Workspace/project_templates/mcu/stm32_ws/src/libraries/FreeRTOS/Source/queue.c **** 		should not be provided if the item size is 0. */
 322:/home/rdu/Workspace/project_templates/mcu/stm32_ws/src/libraries/FreeRTOS/Source/queue.c **** 		configASSERT( !( ( pucQueueStorage != NULL ) && ( uxItemSize == 0 ) ) );
 323:/home/rdu/Workspace/project_templates/mcu/stm32_ws/src/libraries/FreeRTOS/Source/queue.c **** 		configASSERT( !( ( pucQueueStorage == NULL ) && ( uxItemSize != 0 ) ) );
 324:/home/rdu/Workspace/project_templates/mcu/stm32_ws/src/libraries/FreeRTOS/Source/queue.c **** 
 325:/home/rdu/Workspace/project_templates/mcu/stm32_ws/src/libraries/FreeRTOS/Source/queue.c **** 		#if( configASSERT_DEFINED == 1 )
 326:/home/rdu/Workspace/project_templates/mcu/stm32_ws/src/libraries/FreeRTOS/Source/queue.c **** 		{
 327:/home/rdu/Workspace/project_templates/mcu/stm32_ws/src/libraries/FreeRTOS/Source/queue.c **** 			/* Sanity check that the size of the structure used to declare a
 328:/home/rdu/Workspace/project_templates/mcu/stm32_ws/src/libraries/FreeRTOS/Source/queue.c **** 			variable of type StaticQueue_t or StaticSemaphore_t equals the size of
 329:/home/rdu/Workspace/project_templates/mcu/stm32_ws/src/libraries/FreeRTOS/Source/queue.c **** 			the real queue and semaphore structures. */
 330:/home/rdu/Workspace/project_templates/mcu/stm32_ws/src/libraries/FreeRTOS/Source/queue.c **** 			volatile size_t xSize = sizeof( StaticQueue_t );
 331:/home/rdu/Workspace/project_templates/mcu/stm32_ws/src/libraries/FreeRTOS/Source/queue.c **** 			configASSERT( xSize == sizeof( Queue_t ) );
 332:/home/rdu/Workspace/project_templates/mcu/stm32_ws/src/libraries/FreeRTOS/Source/queue.c **** 			( void ) xSize; /* Keeps lint quiet when configASSERT() is not defined. */
 333:/home/rdu/Workspace/project_templates/mcu/stm32_ws/src/libraries/FreeRTOS/Source/queue.c **** 		}
 334:/home/rdu/Workspace/project_templates/mcu/stm32_ws/src/libraries/FreeRTOS/Source/queue.c **** 		#endif /* configASSERT_DEFINED */
 335:/home/rdu/Workspace/project_templates/mcu/stm32_ws/src/libraries/FreeRTOS/Source/queue.c **** 
 336:/home/rdu/Workspace/project_templates/mcu/stm32_ws/src/libraries/FreeRTOS/Source/queue.c **** 		/* The address of a statically allocated queue was passed in, use it.
 337:/home/rdu/Workspace/project_templates/mcu/stm32_ws/src/libraries/FreeRTOS/Source/queue.c **** 		The address of a statically allocated storage area was also passed in
 338:/home/rdu/Workspace/project_templates/mcu/stm32_ws/src/libraries/FreeRTOS/Source/queue.c **** 		but is already set. */
 339:/home/rdu/Workspace/project_templates/mcu/stm32_ws/src/libraries/FreeRTOS/Source/queue.c **** 		pxNewQueue = ( Queue_t * ) pxStaticQueue; /*lint !e740 !e9087 Unusual cast is ok as the structure
 340:/home/rdu/Workspace/project_templates/mcu/stm32_ws/src/libraries/FreeRTOS/Source/queue.c **** 
 341:/home/rdu/Workspace/project_templates/mcu/stm32_ws/src/libraries/FreeRTOS/Source/queue.c **** 		if( pxNewQueue != NULL )
 342:/home/rdu/Workspace/project_templates/mcu/stm32_ws/src/libraries/FreeRTOS/Source/queue.c **** 		{
 343:/home/rdu/Workspace/project_templates/mcu/stm32_ws/src/libraries/FreeRTOS/Source/queue.c **** 			#if( configSUPPORT_DYNAMIC_ALLOCATION == 1 )
 344:/home/rdu/Workspace/project_templates/mcu/stm32_ws/src/libraries/FreeRTOS/Source/queue.c **** 			{
 345:/home/rdu/Workspace/project_templates/mcu/stm32_ws/src/libraries/FreeRTOS/Source/queue.c **** 				/* Queues can be allocated wither statically or dynamically, so
 346:/home/rdu/Workspace/project_templates/mcu/stm32_ws/src/libraries/FreeRTOS/Source/queue.c **** 				note this queue was allocated statically in case the queue is
 347:/home/rdu/Workspace/project_templates/mcu/stm32_ws/src/libraries/FreeRTOS/Source/queue.c **** 				later deleted. */
 348:/home/rdu/Workspace/project_templates/mcu/stm32_ws/src/libraries/FreeRTOS/Source/queue.c **** 				pxNewQueue->ucStaticallyAllocated = pdTRUE;
 349:/home/rdu/Workspace/project_templates/mcu/stm32_ws/src/libraries/FreeRTOS/Source/queue.c **** 			}
 350:/home/rdu/Workspace/project_templates/mcu/stm32_ws/src/libraries/FreeRTOS/Source/queue.c **** 			#endif /* configSUPPORT_DYNAMIC_ALLOCATION */
 351:/home/rdu/Workspace/project_templates/mcu/stm32_ws/src/libraries/FreeRTOS/Source/queue.c **** 
 352:/home/rdu/Workspace/project_templates/mcu/stm32_ws/src/libraries/FreeRTOS/Source/queue.c **** 			prvInitialiseNewQueue( uxQueueLength, uxItemSize, pucQueueStorage, ucQueueType, pxNewQueue );
 353:/home/rdu/Workspace/project_templates/mcu/stm32_ws/src/libraries/FreeRTOS/Source/queue.c **** 		}
 354:/home/rdu/Workspace/project_templates/mcu/stm32_ws/src/libraries/FreeRTOS/Source/queue.c **** 		else
 355:/home/rdu/Workspace/project_templates/mcu/stm32_ws/src/libraries/FreeRTOS/Source/queue.c **** 		{
 356:/home/rdu/Workspace/project_templates/mcu/stm32_ws/src/libraries/FreeRTOS/Source/queue.c **** 			traceQUEUE_CREATE_FAILED( ucQueueType );
 357:/home/rdu/Workspace/project_templates/mcu/stm32_ws/src/libraries/FreeRTOS/Source/queue.c **** 			mtCOVERAGE_TEST_MARKER();
 358:/home/rdu/Workspace/project_templates/mcu/stm32_ws/src/libraries/FreeRTOS/Source/queue.c **** 		}
 359:/home/rdu/Workspace/project_templates/mcu/stm32_ws/src/libraries/FreeRTOS/Source/queue.c **** 
 360:/home/rdu/Workspace/project_templates/mcu/stm32_ws/src/libraries/FreeRTOS/Source/queue.c **** 		return pxNewQueue;
 361:/home/rdu/Workspace/project_templates/mcu/stm32_ws/src/libraries/FreeRTOS/Source/queue.c **** 	}
 362:/home/rdu/Workspace/project_templates/mcu/stm32_ws/src/libraries/FreeRTOS/Source/queue.c **** 
 363:/home/rdu/Workspace/project_templates/mcu/stm32_ws/src/libraries/FreeRTOS/Source/queue.c **** #endif /* configSUPPORT_STATIC_ALLOCATION */
 364:/home/rdu/Workspace/project_templates/mcu/stm32_ws/src/libraries/FreeRTOS/Source/queue.c **** /*-----------------------------------------------------------*/
 365:/home/rdu/Workspace/project_templates/mcu/stm32_ws/src/libraries/FreeRTOS/Source/queue.c **** 
 366:/home/rdu/Workspace/project_templates/mcu/stm32_ws/src/libraries/FreeRTOS/Source/queue.c **** #if( configSUPPORT_DYNAMIC_ALLOCATION == 1 )
 367:/home/rdu/Workspace/project_templates/mcu/stm32_ws/src/libraries/FreeRTOS/Source/queue.c **** 
 368:/home/rdu/Workspace/project_templates/mcu/stm32_ws/src/libraries/FreeRTOS/Source/queue.c **** 	QueueHandle_t xQueueGenericCreate( const UBaseType_t uxQueueLength, const UBaseType_t uxItemSize, 
 369:/home/rdu/Workspace/project_templates/mcu/stm32_ws/src/libraries/FreeRTOS/Source/queue.c **** 	{
 181              		.loc 1 369 0
 182              		.cfi_startproc
 183              		@ args = 0, pretend = 0, frame = 32
 184              		@ frame_needed = 0, uses_anonymous_args = 0
 185 0000 00B5     		push	{lr}
 186              	.LCFI3:
 187              		.cfi_def_cfa_offset 4
 188              		.cfi_offset 14, -4
 189 0002 8BB0     		sub	sp, sp, #44
 190              	.LCFI4:
 191              		.cfi_def_cfa_offset 48
 192 0004 0590     		str	r0, [sp, #20]
 193 0006 0491     		str	r1, [sp, #16]
 194 0008 1346     		mov	r3, r2
 195 000a 8DF80F30 		strb	r3, [sp, #15]
 370:/home/rdu/Workspace/project_templates/mcu/stm32_ws/src/libraries/FreeRTOS/Source/queue.c **** 	Queue_t *pxNewQueue;
 371:/home/rdu/Workspace/project_templates/mcu/stm32_ws/src/libraries/FreeRTOS/Source/queue.c **** 	size_t xQueueSizeInBytes;
 372:/home/rdu/Workspace/project_templates/mcu/stm32_ws/src/libraries/FreeRTOS/Source/queue.c **** 	uint8_t *pucQueueStorage;
 373:/home/rdu/Workspace/project_templates/mcu/stm32_ws/src/libraries/FreeRTOS/Source/queue.c **** 
 374:/home/rdu/Workspace/project_templates/mcu/stm32_ws/src/libraries/FreeRTOS/Source/queue.c **** 		configASSERT( uxQueueLength > ( UBaseType_t ) 0 );
 196              		.loc 1 374 0
 197 000e 059B     		ldr	r3, [sp, #20]
 198 0010 002B     		cmp	r3, #0
 199 0012 09D1     		bne	.L10
 200              	.LBB103:
 201              	.LBB104:
 202              		.loc 2 195 0 discriminator 1
 203              		.syntax unified
 204              	@ 195 "/home/rdu/Workspace/project_templates/mcu/stm32_ws/src/libraries/FreeRTOS/Source/portable/GC
 205 0014 4FF05003 			mov r3, #80												
 206 0018 83F31188 		msr basepri, r3											
 207 001c BFF36F8F 		isb														
 208 0020 BFF34F8F 		dsb														
 209              	
 210              	@ 0 "" 2
 211              		.thumb
 212              		.syntax unified
 213 0024 0693     		str	r3, [sp, #24]
 214              	.L11:
 215              	.LBE104:
 216              	.LBE103:
 217              		.loc 1 374 0 discriminator 1
 218 0026 FEE7     		b	.L11
 219              	.L10:
 375:/home/rdu/Workspace/project_templates/mcu/stm32_ws/src/libraries/FreeRTOS/Source/queue.c **** 
 376:/home/rdu/Workspace/project_templates/mcu/stm32_ws/src/libraries/FreeRTOS/Source/queue.c **** 		if( uxItemSize == ( UBaseType_t ) 0 )
 220              		.loc 1 376 0
 221 0028 049B     		ldr	r3, [sp, #16]
 222 002a 002B     		cmp	r3, #0
 223 002c 02D1     		bne	.L12
 377:/home/rdu/Workspace/project_templates/mcu/stm32_ws/src/libraries/FreeRTOS/Source/queue.c **** 		{
 378:/home/rdu/Workspace/project_templates/mcu/stm32_ws/src/libraries/FreeRTOS/Source/queue.c **** 			/* There is not going to be a queue storage area. */
 379:/home/rdu/Workspace/project_templates/mcu/stm32_ws/src/libraries/FreeRTOS/Source/queue.c **** 			xQueueSizeInBytes = ( size_t ) 0;
 224              		.loc 1 379 0
 225 002e 0023     		movs	r3, #0
 226 0030 0993     		str	r3, [sp, #36]
 227 0032 04E0     		b	.L13
 228              	.L12:
 380:/home/rdu/Workspace/project_templates/mcu/stm32_ws/src/libraries/FreeRTOS/Source/queue.c **** 		}
 381:/home/rdu/Workspace/project_templates/mcu/stm32_ws/src/libraries/FreeRTOS/Source/queue.c **** 		else
 382:/home/rdu/Workspace/project_templates/mcu/stm32_ws/src/libraries/FreeRTOS/Source/queue.c **** 		{
 383:/home/rdu/Workspace/project_templates/mcu/stm32_ws/src/libraries/FreeRTOS/Source/queue.c **** 			/* Allocate enough space to hold the maximum number of items that
 384:/home/rdu/Workspace/project_templates/mcu/stm32_ws/src/libraries/FreeRTOS/Source/queue.c **** 			can be in the queue at any time. */
 385:/home/rdu/Workspace/project_templates/mcu/stm32_ws/src/libraries/FreeRTOS/Source/queue.c **** 			xQueueSizeInBytes = ( size_t ) ( uxQueueLength * uxItemSize ); /*lint !e961 MISRA exception as t
 229              		.loc 1 385 0
 230 0034 059B     		ldr	r3, [sp, #20]
 231 0036 049A     		ldr	r2, [sp, #16]
 232 0038 02FB03F3 		mul	r3, r2, r3
 233 003c 0993     		str	r3, [sp, #36]
 234              	.L13:
 386:/home/rdu/Workspace/project_templates/mcu/stm32_ws/src/libraries/FreeRTOS/Source/queue.c **** 		}
 387:/home/rdu/Workspace/project_templates/mcu/stm32_ws/src/libraries/FreeRTOS/Source/queue.c **** 
 388:/home/rdu/Workspace/project_templates/mcu/stm32_ws/src/libraries/FreeRTOS/Source/queue.c **** 		/* Allocate the queue and storage area.  Justification for MISRA
 389:/home/rdu/Workspace/project_templates/mcu/stm32_ws/src/libraries/FreeRTOS/Source/queue.c **** 		deviation as follows:  pvPortMalloc() always ensures returned memory
 390:/home/rdu/Workspace/project_templates/mcu/stm32_ws/src/libraries/FreeRTOS/Source/queue.c **** 		blocks are aligned per the requirements of the MCU stack.  In this case
 391:/home/rdu/Workspace/project_templates/mcu/stm32_ws/src/libraries/FreeRTOS/Source/queue.c **** 		pvPortMalloc() must return a pointer that is guaranteed to meet the
 392:/home/rdu/Workspace/project_templates/mcu/stm32_ws/src/libraries/FreeRTOS/Source/queue.c **** 		alignment requirements of the Queue_t structure - which in this case
 393:/home/rdu/Workspace/project_templates/mcu/stm32_ws/src/libraries/FreeRTOS/Source/queue.c **** 		is an int8_t *.  Therefore, whenever the stack alignment requirements
 394:/home/rdu/Workspace/project_templates/mcu/stm32_ws/src/libraries/FreeRTOS/Source/queue.c **** 		are greater than or equal to the pointer to char requirements the cast
 395:/home/rdu/Workspace/project_templates/mcu/stm32_ws/src/libraries/FreeRTOS/Source/queue.c **** 		is safe.  In other cases alignment requirements are not strict (one or
 396:/home/rdu/Workspace/project_templates/mcu/stm32_ws/src/libraries/FreeRTOS/Source/queue.c **** 		two bytes). */
 397:/home/rdu/Workspace/project_templates/mcu/stm32_ws/src/libraries/FreeRTOS/Source/queue.c **** 		pxNewQueue = ( Queue_t * ) pvPortMalloc( sizeof( Queue_t ) + xQueueSizeInBytes ); /*lint !e9087 !
 235              		.loc 1 397 0
 236 003e 099B     		ldr	r3, [sp, #36]
 237 0040 5033     		adds	r3, r3, #80
 238 0042 1846     		mov	r0, r3
 239 0044 FFF7FEFF 		bl	pvPortMalloc
 240 0048 0890     		str	r0, [sp, #32]
 398:/home/rdu/Workspace/project_templates/mcu/stm32_ws/src/libraries/FreeRTOS/Source/queue.c **** 
 399:/home/rdu/Workspace/project_templates/mcu/stm32_ws/src/libraries/FreeRTOS/Source/queue.c **** 		if( pxNewQueue != NULL )
 241              		.loc 1 399 0
 242 004a 089B     		ldr	r3, [sp, #32]
 243 004c 002B     		cmp	r3, #0
 244 004e 0ED0     		beq	.L14
 400:/home/rdu/Workspace/project_templates/mcu/stm32_ws/src/libraries/FreeRTOS/Source/queue.c **** 		{
 401:/home/rdu/Workspace/project_templates/mcu/stm32_ws/src/libraries/FreeRTOS/Source/queue.c **** 			/* Jump past the queue structure to find the location of the queue
 402:/home/rdu/Workspace/project_templates/mcu/stm32_ws/src/libraries/FreeRTOS/Source/queue.c **** 			storage area. */
 403:/home/rdu/Workspace/project_templates/mcu/stm32_ws/src/libraries/FreeRTOS/Source/queue.c **** 			pucQueueStorage = ( uint8_t * ) pxNewQueue;
 245              		.loc 1 403 0
 246 0050 089B     		ldr	r3, [sp, #32]
 247 0052 0793     		str	r3, [sp, #28]
 404:/home/rdu/Workspace/project_templates/mcu/stm32_ws/src/libraries/FreeRTOS/Source/queue.c **** 			pucQueueStorage += sizeof( Queue_t ); /*lint !e9016 Pointer arithmetic allowed on char types, es
 248              		.loc 1 404 0
 249 0054 079B     		ldr	r3, [sp, #28]
 250 0056 5033     		adds	r3, r3, #80
 251 0058 0793     		str	r3, [sp, #28]
 405:/home/rdu/Workspace/project_templates/mcu/stm32_ws/src/libraries/FreeRTOS/Source/queue.c **** 
 406:/home/rdu/Workspace/project_templates/mcu/stm32_ws/src/libraries/FreeRTOS/Source/queue.c **** 			#if( configSUPPORT_STATIC_ALLOCATION == 1 )
 407:/home/rdu/Workspace/project_templates/mcu/stm32_ws/src/libraries/FreeRTOS/Source/queue.c **** 			{
 408:/home/rdu/Workspace/project_templates/mcu/stm32_ws/src/libraries/FreeRTOS/Source/queue.c **** 				/* Queues can be created either statically or dynamically, so
 409:/home/rdu/Workspace/project_templates/mcu/stm32_ws/src/libraries/FreeRTOS/Source/queue.c **** 				note this task was created dynamically in case it is later
 410:/home/rdu/Workspace/project_templates/mcu/stm32_ws/src/libraries/FreeRTOS/Source/queue.c **** 				deleted. */
 411:/home/rdu/Workspace/project_templates/mcu/stm32_ws/src/libraries/FreeRTOS/Source/queue.c **** 				pxNewQueue->ucStaticallyAllocated = pdFALSE;
 412:/home/rdu/Workspace/project_templates/mcu/stm32_ws/src/libraries/FreeRTOS/Source/queue.c **** 			}
 413:/home/rdu/Workspace/project_templates/mcu/stm32_ws/src/libraries/FreeRTOS/Source/queue.c **** 			#endif /* configSUPPORT_STATIC_ALLOCATION */
 414:/home/rdu/Workspace/project_templates/mcu/stm32_ws/src/libraries/FreeRTOS/Source/queue.c **** 
 415:/home/rdu/Workspace/project_templates/mcu/stm32_ws/src/libraries/FreeRTOS/Source/queue.c **** 			prvInitialiseNewQueue( uxQueueLength, uxItemSize, pucQueueStorage, ucQueueType, pxNewQueue );
 252              		.loc 1 415 0
 253 005a 9DF80F20 		ldrb	r2, [sp, #15]	@ zero_extendqisi2
 254 005e 089B     		ldr	r3, [sp, #32]
 255 0060 0093     		str	r3, [sp]
 256 0062 1346     		mov	r3, r2
 257 0064 079A     		ldr	r2, [sp, #28]
 258 0066 0499     		ldr	r1, [sp, #16]
 259 0068 0598     		ldr	r0, [sp, #20]
 260 006a FFF7FEFF 		bl	prvInitialiseNewQueue
 261              	.L14:
 416:/home/rdu/Workspace/project_templates/mcu/stm32_ws/src/libraries/FreeRTOS/Source/queue.c **** 		}
 417:/home/rdu/Workspace/project_templates/mcu/stm32_ws/src/libraries/FreeRTOS/Source/queue.c **** 		else
 418:/home/rdu/Workspace/project_templates/mcu/stm32_ws/src/libraries/FreeRTOS/Source/queue.c **** 		{
 419:/home/rdu/Workspace/project_templates/mcu/stm32_ws/src/libraries/FreeRTOS/Source/queue.c **** 			traceQUEUE_CREATE_FAILED( ucQueueType );
 420:/home/rdu/Workspace/project_templates/mcu/stm32_ws/src/libraries/FreeRTOS/Source/queue.c **** 			mtCOVERAGE_TEST_MARKER();
 421:/home/rdu/Workspace/project_templates/mcu/stm32_ws/src/libraries/FreeRTOS/Source/queue.c **** 		}
 422:/home/rdu/Workspace/project_templates/mcu/stm32_ws/src/libraries/FreeRTOS/Source/queue.c **** 
 423:/home/rdu/Workspace/project_templates/mcu/stm32_ws/src/libraries/FreeRTOS/Source/queue.c **** 		return pxNewQueue;
 262              		.loc 1 423 0
 263 006e 089B     		ldr	r3, [sp, #32]
 424:/home/rdu/Workspace/project_templates/mcu/stm32_ws/src/libraries/FreeRTOS/Source/queue.c **** 	}
 264              		.loc 1 424 0
 265 0070 1846     		mov	r0, r3
 266 0072 0BB0     		add	sp, sp, #44
 267              	.LCFI5:
 268              		.cfi_def_cfa_offset 4
 269              		@ sp needed
 270 0074 5DF804FB 		ldr	pc, [sp], #4
 271              		.cfi_endproc
 272              	.LFE6:
 274              		.section	.text.prvInitialiseNewQueue,"ax",%progbits
 275              		.align	1
 276              		.syntax unified
 277              		.thumb
 278              		.thumb_func
 279              		.fpu fpv4-sp-d16
 281              	prvInitialiseNewQueue:
 282              	.LFB7:
 425:/home/rdu/Workspace/project_templates/mcu/stm32_ws/src/libraries/FreeRTOS/Source/queue.c **** 
 426:/home/rdu/Workspace/project_templates/mcu/stm32_ws/src/libraries/FreeRTOS/Source/queue.c **** #endif /* configSUPPORT_STATIC_ALLOCATION */
 427:/home/rdu/Workspace/project_templates/mcu/stm32_ws/src/libraries/FreeRTOS/Source/queue.c **** /*-----------------------------------------------------------*/
 428:/home/rdu/Workspace/project_templates/mcu/stm32_ws/src/libraries/FreeRTOS/Source/queue.c **** 
 429:/home/rdu/Workspace/project_templates/mcu/stm32_ws/src/libraries/FreeRTOS/Source/queue.c **** static void prvInitialiseNewQueue( const UBaseType_t uxQueueLength, const UBaseType_t uxItemSize, u
 430:/home/rdu/Workspace/project_templates/mcu/stm32_ws/src/libraries/FreeRTOS/Source/queue.c **** {
 283              		.loc 1 430 0
 284              		.cfi_startproc
 285              		@ args = 4, pretend = 0, frame = 16
 286              		@ frame_needed = 0, uses_anonymous_args = 0
 287 0000 00B5     		push	{lr}
 288              	.LCFI6:
 289              		.cfi_def_cfa_offset 4
 290              		.cfi_offset 14, -4
 291 0002 85B0     		sub	sp, sp, #20
 292              	.LCFI7:
 293              		.cfi_def_cfa_offset 24
 294 0004 0390     		str	r0, [sp, #12]
 295 0006 0291     		str	r1, [sp, #8]
 296 0008 0192     		str	r2, [sp, #4]
 297 000a 8DF80330 		strb	r3, [sp, #3]
 431:/home/rdu/Workspace/project_templates/mcu/stm32_ws/src/libraries/FreeRTOS/Source/queue.c **** 	/* Remove compiler warnings about unused parameters should
 432:/home/rdu/Workspace/project_templates/mcu/stm32_ws/src/libraries/FreeRTOS/Source/queue.c **** 	configUSE_TRACE_FACILITY not be set to 1. */
 433:/home/rdu/Workspace/project_templates/mcu/stm32_ws/src/libraries/FreeRTOS/Source/queue.c **** 	( void ) ucQueueType;
 434:/home/rdu/Workspace/project_templates/mcu/stm32_ws/src/libraries/FreeRTOS/Source/queue.c **** 
 435:/home/rdu/Workspace/project_templates/mcu/stm32_ws/src/libraries/FreeRTOS/Source/queue.c **** 	if( uxItemSize == ( UBaseType_t ) 0 )
 298              		.loc 1 435 0
 299 000e 029B     		ldr	r3, [sp, #8]
 300 0010 002B     		cmp	r3, #0
 301 0012 03D1     		bne	.L17
 436:/home/rdu/Workspace/project_templates/mcu/stm32_ws/src/libraries/FreeRTOS/Source/queue.c **** 	{
 437:/home/rdu/Workspace/project_templates/mcu/stm32_ws/src/libraries/FreeRTOS/Source/queue.c **** 		/* No RAM was allocated for the queue storage area, but PC head cannot
 438:/home/rdu/Workspace/project_templates/mcu/stm32_ws/src/libraries/FreeRTOS/Source/queue.c **** 		be set to NULL because NULL is used as a key to say the queue is used as
 439:/home/rdu/Workspace/project_templates/mcu/stm32_ws/src/libraries/FreeRTOS/Source/queue.c **** 		a mutex.  Therefore just set pcHead to point to the queue as a benign
 440:/home/rdu/Workspace/project_templates/mcu/stm32_ws/src/libraries/FreeRTOS/Source/queue.c **** 		value that is known to be within the memory map. */
 441:/home/rdu/Workspace/project_templates/mcu/stm32_ws/src/libraries/FreeRTOS/Source/queue.c **** 		pxNewQueue->pcHead = ( int8_t * ) pxNewQueue;
 302              		.loc 1 441 0
 303 0014 069B     		ldr	r3, [sp, #24]
 304 0016 069A     		ldr	r2, [sp, #24]
 305 0018 1A60     		str	r2, [r3]
 306 001a 02E0     		b	.L18
 307              	.L17:
 442:/home/rdu/Workspace/project_templates/mcu/stm32_ws/src/libraries/FreeRTOS/Source/queue.c **** 	}
 443:/home/rdu/Workspace/project_templates/mcu/stm32_ws/src/libraries/FreeRTOS/Source/queue.c **** 	else
 444:/home/rdu/Workspace/project_templates/mcu/stm32_ws/src/libraries/FreeRTOS/Source/queue.c **** 	{
 445:/home/rdu/Workspace/project_templates/mcu/stm32_ws/src/libraries/FreeRTOS/Source/queue.c **** 		/* Set the head to the start of the queue storage area. */
 446:/home/rdu/Workspace/project_templates/mcu/stm32_ws/src/libraries/FreeRTOS/Source/queue.c **** 		pxNewQueue->pcHead = ( int8_t * ) pucQueueStorage;
 308              		.loc 1 446 0
 309 001c 069B     		ldr	r3, [sp, #24]
 310 001e 019A     		ldr	r2, [sp, #4]
 311 0020 1A60     		str	r2, [r3]
 312              	.L18:
 447:/home/rdu/Workspace/project_templates/mcu/stm32_ws/src/libraries/FreeRTOS/Source/queue.c **** 	}
 448:/home/rdu/Workspace/project_templates/mcu/stm32_ws/src/libraries/FreeRTOS/Source/queue.c **** 
 449:/home/rdu/Workspace/project_templates/mcu/stm32_ws/src/libraries/FreeRTOS/Source/queue.c **** 	/* Initialise the queue members as described where the queue type is
 450:/home/rdu/Workspace/project_templates/mcu/stm32_ws/src/libraries/FreeRTOS/Source/queue.c **** 	defined. */
 451:/home/rdu/Workspace/project_templates/mcu/stm32_ws/src/libraries/FreeRTOS/Source/queue.c **** 	pxNewQueue->uxLength = uxQueueLength;
 313              		.loc 1 451 0
 314 0022 069B     		ldr	r3, [sp, #24]
 315 0024 039A     		ldr	r2, [sp, #12]
 316 0026 DA63     		str	r2, [r3, #60]
 452:/home/rdu/Workspace/project_templates/mcu/stm32_ws/src/libraries/FreeRTOS/Source/queue.c **** 	pxNewQueue->uxItemSize = uxItemSize;
 317              		.loc 1 452 0
 318 0028 069B     		ldr	r3, [sp, #24]
 319 002a 029A     		ldr	r2, [sp, #8]
 320 002c 1A64     		str	r2, [r3, #64]
 453:/home/rdu/Workspace/project_templates/mcu/stm32_ws/src/libraries/FreeRTOS/Source/queue.c **** 	( void ) xQueueGenericReset( pxNewQueue, pdTRUE );
 321              		.loc 1 453 0
 322 002e 0121     		movs	r1, #1
 323 0030 0698     		ldr	r0, [sp, #24]
 324 0032 FFF7FEFF 		bl	xQueueGenericReset
 454:/home/rdu/Workspace/project_templates/mcu/stm32_ws/src/libraries/FreeRTOS/Source/queue.c **** 
 455:/home/rdu/Workspace/project_templates/mcu/stm32_ws/src/libraries/FreeRTOS/Source/queue.c **** 	#if ( configUSE_TRACE_FACILITY == 1 )
 456:/home/rdu/Workspace/project_templates/mcu/stm32_ws/src/libraries/FreeRTOS/Source/queue.c **** 	{
 457:/home/rdu/Workspace/project_templates/mcu/stm32_ws/src/libraries/FreeRTOS/Source/queue.c **** 		pxNewQueue->ucQueueType = ucQueueType;
 325              		.loc 1 457 0
 326 0036 069B     		ldr	r3, [sp, #24]
 327 0038 9DF80320 		ldrb	r2, [sp, #3]
 328 003c 83F84C20 		strb	r2, [r3, #76]
 458:/home/rdu/Workspace/project_templates/mcu/stm32_ws/src/libraries/FreeRTOS/Source/queue.c **** 	}
 459:/home/rdu/Workspace/project_templates/mcu/stm32_ws/src/libraries/FreeRTOS/Source/queue.c **** 	#endif /* configUSE_TRACE_FACILITY */
 460:/home/rdu/Workspace/project_templates/mcu/stm32_ws/src/libraries/FreeRTOS/Source/queue.c **** 
 461:/home/rdu/Workspace/project_templates/mcu/stm32_ws/src/libraries/FreeRTOS/Source/queue.c **** 	#if( configUSE_QUEUE_SETS == 1 )
 462:/home/rdu/Workspace/project_templates/mcu/stm32_ws/src/libraries/FreeRTOS/Source/queue.c **** 	{
 463:/home/rdu/Workspace/project_templates/mcu/stm32_ws/src/libraries/FreeRTOS/Source/queue.c **** 		pxNewQueue->pxQueueSetContainer = NULL;
 464:/home/rdu/Workspace/project_templates/mcu/stm32_ws/src/libraries/FreeRTOS/Source/queue.c **** 	}
 465:/home/rdu/Workspace/project_templates/mcu/stm32_ws/src/libraries/FreeRTOS/Source/queue.c **** 	#endif /* configUSE_QUEUE_SETS */
 466:/home/rdu/Workspace/project_templates/mcu/stm32_ws/src/libraries/FreeRTOS/Source/queue.c **** 
 467:/home/rdu/Workspace/project_templates/mcu/stm32_ws/src/libraries/FreeRTOS/Source/queue.c **** 	traceQUEUE_CREATE( pxNewQueue );
 468:/home/rdu/Workspace/project_templates/mcu/stm32_ws/src/libraries/FreeRTOS/Source/queue.c **** }
 329              		.loc 1 468 0
 330 0040 00BF     		nop
 331 0042 05B0     		add	sp, sp, #20
 332              	.LCFI8:
 333              		.cfi_def_cfa_offset 4
 334              		@ sp needed
 335 0044 5DF804FB 		ldr	pc, [sp], #4
 336              		.cfi_endproc
 337              	.LFE7:
 339              		.section	.text.prvInitialiseMutex,"ax",%progbits
 340              		.align	1
 341              		.syntax unified
 342              		.thumb
 343              		.thumb_func
 344              		.fpu fpv4-sp-d16
 346              	prvInitialiseMutex:
 347              	.LFB8:
 469:/home/rdu/Workspace/project_templates/mcu/stm32_ws/src/libraries/FreeRTOS/Source/queue.c **** /*-----------------------------------------------------------*/
 470:/home/rdu/Workspace/project_templates/mcu/stm32_ws/src/libraries/FreeRTOS/Source/queue.c **** 
 471:/home/rdu/Workspace/project_templates/mcu/stm32_ws/src/libraries/FreeRTOS/Source/queue.c **** #if( configUSE_MUTEXES == 1 )
 472:/home/rdu/Workspace/project_templates/mcu/stm32_ws/src/libraries/FreeRTOS/Source/queue.c **** 
 473:/home/rdu/Workspace/project_templates/mcu/stm32_ws/src/libraries/FreeRTOS/Source/queue.c **** 	static void prvInitialiseMutex( Queue_t *pxNewQueue )
 474:/home/rdu/Workspace/project_templates/mcu/stm32_ws/src/libraries/FreeRTOS/Source/queue.c **** 	{
 348              		.loc 1 474 0
 349              		.cfi_startproc
 350              		@ args = 0, pretend = 0, frame = 8
 351              		@ frame_needed = 0, uses_anonymous_args = 0
 352 0000 00B5     		push	{lr}
 353              	.LCFI9:
 354              		.cfi_def_cfa_offset 4
 355              		.cfi_offset 14, -4
 356 0002 83B0     		sub	sp, sp, #12
 357              	.LCFI10:
 358              		.cfi_def_cfa_offset 16
 359 0004 0190     		str	r0, [sp, #4]
 475:/home/rdu/Workspace/project_templates/mcu/stm32_ws/src/libraries/FreeRTOS/Source/queue.c **** 		if( pxNewQueue != NULL )
 360              		.loc 1 475 0
 361 0006 019B     		ldr	r3, [sp, #4]
 362 0008 002B     		cmp	r3, #0
 363 000a 0ED0     		beq	.L21
 476:/home/rdu/Workspace/project_templates/mcu/stm32_ws/src/libraries/FreeRTOS/Source/queue.c **** 		{
 477:/home/rdu/Workspace/project_templates/mcu/stm32_ws/src/libraries/FreeRTOS/Source/queue.c **** 			/* The queue create function will set all the queue structure members
 478:/home/rdu/Workspace/project_templates/mcu/stm32_ws/src/libraries/FreeRTOS/Source/queue.c **** 			correctly for a generic queue, but this function is creating a
 479:/home/rdu/Workspace/project_templates/mcu/stm32_ws/src/libraries/FreeRTOS/Source/queue.c **** 			mutex.  Overwrite those members that need to be set differently -
 480:/home/rdu/Workspace/project_templates/mcu/stm32_ws/src/libraries/FreeRTOS/Source/queue.c **** 			in particular the information required for priority inheritance. */
 481:/home/rdu/Workspace/project_templates/mcu/stm32_ws/src/libraries/FreeRTOS/Source/queue.c **** 			pxNewQueue->u.xSemaphore.xMutexHolder = NULL;
 364              		.loc 1 481 0
 365 000c 019B     		ldr	r3, [sp, #4]
 366 000e 0022     		movs	r2, #0
 367 0010 9A60     		str	r2, [r3, #8]
 482:/home/rdu/Workspace/project_templates/mcu/stm32_ws/src/libraries/FreeRTOS/Source/queue.c **** 			pxNewQueue->uxQueueType = queueQUEUE_IS_MUTEX;
 368              		.loc 1 482 0
 369 0012 019B     		ldr	r3, [sp, #4]
 370 0014 0022     		movs	r2, #0
 371 0016 1A60     		str	r2, [r3]
 483:/home/rdu/Workspace/project_templates/mcu/stm32_ws/src/libraries/FreeRTOS/Source/queue.c **** 
 484:/home/rdu/Workspace/project_templates/mcu/stm32_ws/src/libraries/FreeRTOS/Source/queue.c **** 			/* In case this is a recursive mutex. */
 485:/home/rdu/Workspace/project_templates/mcu/stm32_ws/src/libraries/FreeRTOS/Source/queue.c **** 			pxNewQueue->u.xSemaphore.uxRecursiveCallCount = 0;
 372              		.loc 1 485 0
 373 0018 019B     		ldr	r3, [sp, #4]
 374 001a 0022     		movs	r2, #0
 375 001c DA60     		str	r2, [r3, #12]
 486:/home/rdu/Workspace/project_templates/mcu/stm32_ws/src/libraries/FreeRTOS/Source/queue.c **** 
 487:/home/rdu/Workspace/project_templates/mcu/stm32_ws/src/libraries/FreeRTOS/Source/queue.c **** 			traceCREATE_MUTEX( pxNewQueue );
 488:/home/rdu/Workspace/project_templates/mcu/stm32_ws/src/libraries/FreeRTOS/Source/queue.c **** 
 489:/home/rdu/Workspace/project_templates/mcu/stm32_ws/src/libraries/FreeRTOS/Source/queue.c **** 			/* Start with the semaphore in the expected state. */
 490:/home/rdu/Workspace/project_templates/mcu/stm32_ws/src/libraries/FreeRTOS/Source/queue.c **** 			( void ) xQueueGenericSend( pxNewQueue, NULL, ( TickType_t ) 0U, queueSEND_TO_BACK );
 376              		.loc 1 490 0
 377 001e 0023     		movs	r3, #0
 378 0020 0022     		movs	r2, #0
 379 0022 0021     		movs	r1, #0
 380 0024 0198     		ldr	r0, [sp, #4]
 381 0026 FFF7FEFF 		bl	xQueueGenericSend
 382              	.L21:
 491:/home/rdu/Workspace/project_templates/mcu/stm32_ws/src/libraries/FreeRTOS/Source/queue.c **** 		}
 492:/home/rdu/Workspace/project_templates/mcu/stm32_ws/src/libraries/FreeRTOS/Source/queue.c **** 		else
 493:/home/rdu/Workspace/project_templates/mcu/stm32_ws/src/libraries/FreeRTOS/Source/queue.c **** 		{
 494:/home/rdu/Workspace/project_templates/mcu/stm32_ws/src/libraries/FreeRTOS/Source/queue.c **** 			traceCREATE_MUTEX_FAILED();
 495:/home/rdu/Workspace/project_templates/mcu/stm32_ws/src/libraries/FreeRTOS/Source/queue.c **** 		}
 496:/home/rdu/Workspace/project_templates/mcu/stm32_ws/src/libraries/FreeRTOS/Source/queue.c **** 	}
 383              		.loc 1 496 0
 384 002a 00BF     		nop
 385 002c 03B0     		add	sp, sp, #12
 386              	.LCFI11:
 387              		.cfi_def_cfa_offset 4
 388              		@ sp needed
 389 002e 5DF804FB 		ldr	pc, [sp], #4
 390              		.cfi_endproc
 391              	.LFE8:
 393              		.section	.text.xQueueCreateMutex,"ax",%progbits
 394              		.align	1
 395              		.global	xQueueCreateMutex
 396              		.syntax unified
 397              		.thumb
 398              		.thumb_func
 399              		.fpu fpv4-sp-d16
 401              	xQueueCreateMutex:
 402              	.LFB9:
 497:/home/rdu/Workspace/project_templates/mcu/stm32_ws/src/libraries/FreeRTOS/Source/queue.c **** 
 498:/home/rdu/Workspace/project_templates/mcu/stm32_ws/src/libraries/FreeRTOS/Source/queue.c **** #endif /* configUSE_MUTEXES */
 499:/home/rdu/Workspace/project_templates/mcu/stm32_ws/src/libraries/FreeRTOS/Source/queue.c **** /*-----------------------------------------------------------*/
 500:/home/rdu/Workspace/project_templates/mcu/stm32_ws/src/libraries/FreeRTOS/Source/queue.c **** 
 501:/home/rdu/Workspace/project_templates/mcu/stm32_ws/src/libraries/FreeRTOS/Source/queue.c **** #if( ( configUSE_MUTEXES == 1 ) && ( configSUPPORT_DYNAMIC_ALLOCATION == 1 ) )
 502:/home/rdu/Workspace/project_templates/mcu/stm32_ws/src/libraries/FreeRTOS/Source/queue.c **** 
 503:/home/rdu/Workspace/project_templates/mcu/stm32_ws/src/libraries/FreeRTOS/Source/queue.c **** 	QueueHandle_t xQueueCreateMutex( const uint8_t ucQueueType )
 504:/home/rdu/Workspace/project_templates/mcu/stm32_ws/src/libraries/FreeRTOS/Source/queue.c **** 	{
 403              		.loc 1 504 0
 404              		.cfi_startproc
 405              		@ args = 0, pretend = 0, frame = 24
 406              		@ frame_needed = 0, uses_anonymous_args = 0
 407 0000 00B5     		push	{lr}
 408              	.LCFI12:
 409              		.cfi_def_cfa_offset 4
 410              		.cfi_offset 14, -4
 411 0002 87B0     		sub	sp, sp, #28
 412              	.LCFI13:
 413              		.cfi_def_cfa_offset 32
 414 0004 0346     		mov	r3, r0
 415 0006 8DF80730 		strb	r3, [sp, #7]
 505:/home/rdu/Workspace/project_templates/mcu/stm32_ws/src/libraries/FreeRTOS/Source/queue.c **** 	QueueHandle_t xNewQueue;
 506:/home/rdu/Workspace/project_templates/mcu/stm32_ws/src/libraries/FreeRTOS/Source/queue.c **** 	const UBaseType_t uxMutexLength = ( UBaseType_t ) 1, uxMutexSize = ( UBaseType_t ) 0;
 416              		.loc 1 506 0
 417 000a 0123     		movs	r3, #1
 418 000c 0593     		str	r3, [sp, #20]
 419 000e 0023     		movs	r3, #0
 420 0010 0493     		str	r3, [sp, #16]
 507:/home/rdu/Workspace/project_templates/mcu/stm32_ws/src/libraries/FreeRTOS/Source/queue.c **** 
 508:/home/rdu/Workspace/project_templates/mcu/stm32_ws/src/libraries/FreeRTOS/Source/queue.c **** 		xNewQueue = xQueueGenericCreate( uxMutexLength, uxMutexSize, ucQueueType );
 421              		.loc 1 508 0
 422 0012 9DF80730 		ldrb	r3, [sp, #7]	@ zero_extendqisi2
 423 0016 1A46     		mov	r2, r3
 424 0018 0499     		ldr	r1, [sp, #16]
 425 001a 0598     		ldr	r0, [sp, #20]
 426 001c FFF7FEFF 		bl	xQueueGenericCreate
 427 0020 0390     		str	r0, [sp, #12]
 509:/home/rdu/Workspace/project_templates/mcu/stm32_ws/src/libraries/FreeRTOS/Source/queue.c **** 		prvInitialiseMutex( ( Queue_t * ) xNewQueue );
 428              		.loc 1 509 0
 429 0022 0398     		ldr	r0, [sp, #12]
 430 0024 FFF7FEFF 		bl	prvInitialiseMutex
 510:/home/rdu/Workspace/project_templates/mcu/stm32_ws/src/libraries/FreeRTOS/Source/queue.c **** 
 511:/home/rdu/Workspace/project_templates/mcu/stm32_ws/src/libraries/FreeRTOS/Source/queue.c **** 		return xNewQueue;
 431              		.loc 1 511 0
 432 0028 039B     		ldr	r3, [sp, #12]
 512:/home/rdu/Workspace/project_templates/mcu/stm32_ws/src/libraries/FreeRTOS/Source/queue.c **** 	}
 433              		.loc 1 512 0
 434 002a 1846     		mov	r0, r3
 435 002c 07B0     		add	sp, sp, #28
 436              	.LCFI14:
 437              		.cfi_def_cfa_offset 4
 438              		@ sp needed
 439 002e 5DF804FB 		ldr	pc, [sp], #4
 440              		.cfi_endproc
 441              	.LFE9:
 443              		.section	.text.xQueueGiveMutexRecursive,"ax",%progbits
 444              		.align	1
 445              		.global	xQueueGiveMutexRecursive
 446              		.syntax unified
 447              		.thumb
 448              		.thumb_func
 449              		.fpu fpv4-sp-d16
 451              	xQueueGiveMutexRecursive:
 452              	.LFB10:
 513:/home/rdu/Workspace/project_templates/mcu/stm32_ws/src/libraries/FreeRTOS/Source/queue.c **** 
 514:/home/rdu/Workspace/project_templates/mcu/stm32_ws/src/libraries/FreeRTOS/Source/queue.c **** #endif /* configUSE_MUTEXES */
 515:/home/rdu/Workspace/project_templates/mcu/stm32_ws/src/libraries/FreeRTOS/Source/queue.c **** /*-----------------------------------------------------------*/
 516:/home/rdu/Workspace/project_templates/mcu/stm32_ws/src/libraries/FreeRTOS/Source/queue.c **** 
 517:/home/rdu/Workspace/project_templates/mcu/stm32_ws/src/libraries/FreeRTOS/Source/queue.c **** #if( ( configUSE_MUTEXES == 1 ) && ( configSUPPORT_STATIC_ALLOCATION == 1 ) )
 518:/home/rdu/Workspace/project_templates/mcu/stm32_ws/src/libraries/FreeRTOS/Source/queue.c **** 
 519:/home/rdu/Workspace/project_templates/mcu/stm32_ws/src/libraries/FreeRTOS/Source/queue.c **** 	QueueHandle_t xQueueCreateMutexStatic( const uint8_t ucQueueType, StaticQueue_t *pxStaticQueue )
 520:/home/rdu/Workspace/project_templates/mcu/stm32_ws/src/libraries/FreeRTOS/Source/queue.c **** 	{
 521:/home/rdu/Workspace/project_templates/mcu/stm32_ws/src/libraries/FreeRTOS/Source/queue.c **** 	QueueHandle_t xNewQueue;
 522:/home/rdu/Workspace/project_templates/mcu/stm32_ws/src/libraries/FreeRTOS/Source/queue.c **** 	const UBaseType_t uxMutexLength = ( UBaseType_t ) 1, uxMutexSize = ( UBaseType_t ) 0;
 523:/home/rdu/Workspace/project_templates/mcu/stm32_ws/src/libraries/FreeRTOS/Source/queue.c **** 
 524:/home/rdu/Workspace/project_templates/mcu/stm32_ws/src/libraries/FreeRTOS/Source/queue.c **** 		/* Prevent compiler warnings about unused parameters if
 525:/home/rdu/Workspace/project_templates/mcu/stm32_ws/src/libraries/FreeRTOS/Source/queue.c **** 		configUSE_TRACE_FACILITY does not equal 1. */
 526:/home/rdu/Workspace/project_templates/mcu/stm32_ws/src/libraries/FreeRTOS/Source/queue.c **** 		( void ) ucQueueType;
 527:/home/rdu/Workspace/project_templates/mcu/stm32_ws/src/libraries/FreeRTOS/Source/queue.c **** 
 528:/home/rdu/Workspace/project_templates/mcu/stm32_ws/src/libraries/FreeRTOS/Source/queue.c **** 		xNewQueue = xQueueGenericCreateStatic( uxMutexLength, uxMutexSize, NULL, pxStaticQueue, ucQueueTy
 529:/home/rdu/Workspace/project_templates/mcu/stm32_ws/src/libraries/FreeRTOS/Source/queue.c **** 		prvInitialiseMutex( ( Queue_t * ) xNewQueue );
 530:/home/rdu/Workspace/project_templates/mcu/stm32_ws/src/libraries/FreeRTOS/Source/queue.c **** 
 531:/home/rdu/Workspace/project_templates/mcu/stm32_ws/src/libraries/FreeRTOS/Source/queue.c **** 		return xNewQueue;
 532:/home/rdu/Workspace/project_templates/mcu/stm32_ws/src/libraries/FreeRTOS/Source/queue.c **** 	}
 533:/home/rdu/Workspace/project_templates/mcu/stm32_ws/src/libraries/FreeRTOS/Source/queue.c **** 
 534:/home/rdu/Workspace/project_templates/mcu/stm32_ws/src/libraries/FreeRTOS/Source/queue.c **** #endif /* configUSE_MUTEXES */
 535:/home/rdu/Workspace/project_templates/mcu/stm32_ws/src/libraries/FreeRTOS/Source/queue.c **** /*-----------------------------------------------------------*/
 536:/home/rdu/Workspace/project_templates/mcu/stm32_ws/src/libraries/FreeRTOS/Source/queue.c **** 
 537:/home/rdu/Workspace/project_templates/mcu/stm32_ws/src/libraries/FreeRTOS/Source/queue.c **** #if ( ( configUSE_MUTEXES == 1 ) && ( INCLUDE_xSemaphoreGetMutexHolder == 1 ) )
 538:/home/rdu/Workspace/project_templates/mcu/stm32_ws/src/libraries/FreeRTOS/Source/queue.c **** 
 539:/home/rdu/Workspace/project_templates/mcu/stm32_ws/src/libraries/FreeRTOS/Source/queue.c **** 	TaskHandle_t xQueueGetMutexHolder( QueueHandle_t xSemaphore )
 540:/home/rdu/Workspace/project_templates/mcu/stm32_ws/src/libraries/FreeRTOS/Source/queue.c **** 	{
 541:/home/rdu/Workspace/project_templates/mcu/stm32_ws/src/libraries/FreeRTOS/Source/queue.c **** 	TaskHandle_t pxReturn;
 542:/home/rdu/Workspace/project_templates/mcu/stm32_ws/src/libraries/FreeRTOS/Source/queue.c **** 	Queue_t * const pxSemaphore = ( Queue_t * ) xSemaphore;
 543:/home/rdu/Workspace/project_templates/mcu/stm32_ws/src/libraries/FreeRTOS/Source/queue.c **** 
 544:/home/rdu/Workspace/project_templates/mcu/stm32_ws/src/libraries/FreeRTOS/Source/queue.c **** 		/* This function is called by xSemaphoreGetMutexHolder(), and should not
 545:/home/rdu/Workspace/project_templates/mcu/stm32_ws/src/libraries/FreeRTOS/Source/queue.c **** 		be called directly.  Note:  This is a good way of determining if the
 546:/home/rdu/Workspace/project_templates/mcu/stm32_ws/src/libraries/FreeRTOS/Source/queue.c **** 		calling task is the mutex holder, but not a good way of determining the
 547:/home/rdu/Workspace/project_templates/mcu/stm32_ws/src/libraries/FreeRTOS/Source/queue.c **** 		identity of the mutex holder, as the holder may change between the
 548:/home/rdu/Workspace/project_templates/mcu/stm32_ws/src/libraries/FreeRTOS/Source/queue.c **** 		following critical section exiting and the function returning. */
 549:/home/rdu/Workspace/project_templates/mcu/stm32_ws/src/libraries/FreeRTOS/Source/queue.c **** 		taskENTER_CRITICAL();
 550:/home/rdu/Workspace/project_templates/mcu/stm32_ws/src/libraries/FreeRTOS/Source/queue.c **** 		{
 551:/home/rdu/Workspace/project_templates/mcu/stm32_ws/src/libraries/FreeRTOS/Source/queue.c **** 			if( pxSemaphore->uxQueueType == queueQUEUE_IS_MUTEX )
 552:/home/rdu/Workspace/project_templates/mcu/stm32_ws/src/libraries/FreeRTOS/Source/queue.c **** 			{
 553:/home/rdu/Workspace/project_templates/mcu/stm32_ws/src/libraries/FreeRTOS/Source/queue.c **** 				pxReturn = pxSemaphore->u.xSemaphore.xMutexHolder;
 554:/home/rdu/Workspace/project_templates/mcu/stm32_ws/src/libraries/FreeRTOS/Source/queue.c **** 			}
 555:/home/rdu/Workspace/project_templates/mcu/stm32_ws/src/libraries/FreeRTOS/Source/queue.c **** 			else
 556:/home/rdu/Workspace/project_templates/mcu/stm32_ws/src/libraries/FreeRTOS/Source/queue.c **** 			{
 557:/home/rdu/Workspace/project_templates/mcu/stm32_ws/src/libraries/FreeRTOS/Source/queue.c **** 				pxReturn = NULL;
 558:/home/rdu/Workspace/project_templates/mcu/stm32_ws/src/libraries/FreeRTOS/Source/queue.c **** 			}
 559:/home/rdu/Workspace/project_templates/mcu/stm32_ws/src/libraries/FreeRTOS/Source/queue.c **** 		}
 560:/home/rdu/Workspace/project_templates/mcu/stm32_ws/src/libraries/FreeRTOS/Source/queue.c **** 		taskEXIT_CRITICAL();
 561:/home/rdu/Workspace/project_templates/mcu/stm32_ws/src/libraries/FreeRTOS/Source/queue.c **** 
 562:/home/rdu/Workspace/project_templates/mcu/stm32_ws/src/libraries/FreeRTOS/Source/queue.c **** 		return pxReturn;
 563:/home/rdu/Workspace/project_templates/mcu/stm32_ws/src/libraries/FreeRTOS/Source/queue.c **** 	} /*lint !e818 xSemaphore cannot be a pointer to const because it is a typedef. */
 564:/home/rdu/Workspace/project_templates/mcu/stm32_ws/src/libraries/FreeRTOS/Source/queue.c **** 
 565:/home/rdu/Workspace/project_templates/mcu/stm32_ws/src/libraries/FreeRTOS/Source/queue.c **** #endif
 566:/home/rdu/Workspace/project_templates/mcu/stm32_ws/src/libraries/FreeRTOS/Source/queue.c **** /*-----------------------------------------------------------*/
 567:/home/rdu/Workspace/project_templates/mcu/stm32_ws/src/libraries/FreeRTOS/Source/queue.c **** 
 568:/home/rdu/Workspace/project_templates/mcu/stm32_ws/src/libraries/FreeRTOS/Source/queue.c **** #if ( ( configUSE_MUTEXES == 1 ) && ( INCLUDE_xSemaphoreGetMutexHolder == 1 ) )
 569:/home/rdu/Workspace/project_templates/mcu/stm32_ws/src/libraries/FreeRTOS/Source/queue.c **** 
 570:/home/rdu/Workspace/project_templates/mcu/stm32_ws/src/libraries/FreeRTOS/Source/queue.c **** 	TaskHandle_t xQueueGetMutexHolderFromISR( QueueHandle_t xSemaphore )
 571:/home/rdu/Workspace/project_templates/mcu/stm32_ws/src/libraries/FreeRTOS/Source/queue.c **** 	{
 572:/home/rdu/Workspace/project_templates/mcu/stm32_ws/src/libraries/FreeRTOS/Source/queue.c **** 	TaskHandle_t pxReturn;
 573:/home/rdu/Workspace/project_templates/mcu/stm32_ws/src/libraries/FreeRTOS/Source/queue.c **** 
 574:/home/rdu/Workspace/project_templates/mcu/stm32_ws/src/libraries/FreeRTOS/Source/queue.c **** 		configASSERT( xSemaphore );
 575:/home/rdu/Workspace/project_templates/mcu/stm32_ws/src/libraries/FreeRTOS/Source/queue.c **** 
 576:/home/rdu/Workspace/project_templates/mcu/stm32_ws/src/libraries/FreeRTOS/Source/queue.c **** 		/* Mutexes cannot be used in interrupt service routines, so the mutex
 577:/home/rdu/Workspace/project_templates/mcu/stm32_ws/src/libraries/FreeRTOS/Source/queue.c **** 		holder should not change in an ISR, and therefore a critical section is
 578:/home/rdu/Workspace/project_templates/mcu/stm32_ws/src/libraries/FreeRTOS/Source/queue.c **** 		not required here. */
 579:/home/rdu/Workspace/project_templates/mcu/stm32_ws/src/libraries/FreeRTOS/Source/queue.c **** 		if( ( ( Queue_t * ) xSemaphore )->uxQueueType == queueQUEUE_IS_MUTEX )
 580:/home/rdu/Workspace/project_templates/mcu/stm32_ws/src/libraries/FreeRTOS/Source/queue.c **** 		{
 581:/home/rdu/Workspace/project_templates/mcu/stm32_ws/src/libraries/FreeRTOS/Source/queue.c **** 			pxReturn = ( ( Queue_t * ) xSemaphore )->u.xSemaphore.xMutexHolder;
 582:/home/rdu/Workspace/project_templates/mcu/stm32_ws/src/libraries/FreeRTOS/Source/queue.c **** 		}
 583:/home/rdu/Workspace/project_templates/mcu/stm32_ws/src/libraries/FreeRTOS/Source/queue.c **** 		else
 584:/home/rdu/Workspace/project_templates/mcu/stm32_ws/src/libraries/FreeRTOS/Source/queue.c **** 		{
 585:/home/rdu/Workspace/project_templates/mcu/stm32_ws/src/libraries/FreeRTOS/Source/queue.c **** 			pxReturn = NULL;
 586:/home/rdu/Workspace/project_templates/mcu/stm32_ws/src/libraries/FreeRTOS/Source/queue.c **** 		}
 587:/home/rdu/Workspace/project_templates/mcu/stm32_ws/src/libraries/FreeRTOS/Source/queue.c **** 
 588:/home/rdu/Workspace/project_templates/mcu/stm32_ws/src/libraries/FreeRTOS/Source/queue.c **** 		return pxReturn;
 589:/home/rdu/Workspace/project_templates/mcu/stm32_ws/src/libraries/FreeRTOS/Source/queue.c **** 	} /*lint !e818 xSemaphore cannot be a pointer to const because it is a typedef. */
 590:/home/rdu/Workspace/project_templates/mcu/stm32_ws/src/libraries/FreeRTOS/Source/queue.c **** 
 591:/home/rdu/Workspace/project_templates/mcu/stm32_ws/src/libraries/FreeRTOS/Source/queue.c **** #endif
 592:/home/rdu/Workspace/project_templates/mcu/stm32_ws/src/libraries/FreeRTOS/Source/queue.c **** /*-----------------------------------------------------------*/
 593:/home/rdu/Workspace/project_templates/mcu/stm32_ws/src/libraries/FreeRTOS/Source/queue.c **** 
 594:/home/rdu/Workspace/project_templates/mcu/stm32_ws/src/libraries/FreeRTOS/Source/queue.c **** #if ( configUSE_RECURSIVE_MUTEXES == 1 )
 595:/home/rdu/Workspace/project_templates/mcu/stm32_ws/src/libraries/FreeRTOS/Source/queue.c **** 
 596:/home/rdu/Workspace/project_templates/mcu/stm32_ws/src/libraries/FreeRTOS/Source/queue.c **** 	BaseType_t xQueueGiveMutexRecursive( QueueHandle_t xMutex )
 597:/home/rdu/Workspace/project_templates/mcu/stm32_ws/src/libraries/FreeRTOS/Source/queue.c **** 	{
 453              		.loc 1 597 0
 454              		.cfi_startproc
 455              		@ args = 0, pretend = 0, frame = 24
 456              		@ frame_needed = 0, uses_anonymous_args = 0
 457 0000 10B5     		push	{r4, lr}
 458              	.LCFI15:
 459              		.cfi_def_cfa_offset 8
 460              		.cfi_offset 4, -8
 461              		.cfi_offset 14, -4
 462 0002 86B0     		sub	sp, sp, #24
 463              	.LCFI16:
 464              		.cfi_def_cfa_offset 32
 465 0004 0190     		str	r0, [sp, #4]
 598:/home/rdu/Workspace/project_templates/mcu/stm32_ws/src/libraries/FreeRTOS/Source/queue.c **** 	BaseType_t xReturn;
 599:/home/rdu/Workspace/project_templates/mcu/stm32_ws/src/libraries/FreeRTOS/Source/queue.c **** 	Queue_t * const pxMutex = ( Queue_t * ) xMutex;
 466              		.loc 1 599 0
 467 0006 019B     		ldr	r3, [sp, #4]
 468 0008 0493     		str	r3, [sp, #16]
 600:/home/rdu/Workspace/project_templates/mcu/stm32_ws/src/libraries/FreeRTOS/Source/queue.c **** 
 601:/home/rdu/Workspace/project_templates/mcu/stm32_ws/src/libraries/FreeRTOS/Source/queue.c **** 		configASSERT( pxMutex );
 469              		.loc 1 601 0
 470 000a 049B     		ldr	r3, [sp, #16]
 471 000c 002B     		cmp	r3, #0
 472 000e 09D1     		bne	.L25
 473              	.LBB105:
 474              	.LBB106:
 475              		.loc 2 195 0 discriminator 1
 476              		.syntax unified
 477              	@ 195 "/home/rdu/Workspace/project_templates/mcu/stm32_ws/src/libraries/FreeRTOS/Source/portable/GC
 478 0010 4FF05003 			mov r3, #80												
 479 0014 83F31188 		msr basepri, r3											
 480 0018 BFF36F8F 		isb														
 481 001c BFF34F8F 		dsb														
 482              	
 483              	@ 0 "" 2
 484              		.thumb
 485              		.syntax unified
 486 0020 0393     		str	r3, [sp, #12]
 487              	.L26:
 488              	.LBE106:
 489              	.LBE105:
 490              		.loc 1 601 0 discriminator 1
 491 0022 FEE7     		b	.L26
 492              	.L25:
 602:/home/rdu/Workspace/project_templates/mcu/stm32_ws/src/libraries/FreeRTOS/Source/queue.c **** 
 603:/home/rdu/Workspace/project_templates/mcu/stm32_ws/src/libraries/FreeRTOS/Source/queue.c **** 		/* If this is the task that holds the mutex then xMutexHolder will not
 604:/home/rdu/Workspace/project_templates/mcu/stm32_ws/src/libraries/FreeRTOS/Source/queue.c **** 		change outside of this task.  If this task does not hold the mutex then
 605:/home/rdu/Workspace/project_templates/mcu/stm32_ws/src/libraries/FreeRTOS/Source/queue.c **** 		pxMutexHolder can never coincidentally equal the tasks handle, and as
 606:/home/rdu/Workspace/project_templates/mcu/stm32_ws/src/libraries/FreeRTOS/Source/queue.c **** 		this is the only condition we are interested in it does not matter if
 607:/home/rdu/Workspace/project_templates/mcu/stm32_ws/src/libraries/FreeRTOS/Source/queue.c **** 		pxMutexHolder is accessed simultaneously by another task.  Therefore no
 608:/home/rdu/Workspace/project_templates/mcu/stm32_ws/src/libraries/FreeRTOS/Source/queue.c **** 		mutual exclusion is required to test the pxMutexHolder variable. */
 609:/home/rdu/Workspace/project_templates/mcu/stm32_ws/src/libraries/FreeRTOS/Source/queue.c **** 		if( pxMutex->u.xSemaphore.xMutexHolder == xTaskGetCurrentTaskHandle() )
 493              		.loc 1 609 0
 494 0024 049B     		ldr	r3, [sp, #16]
 495 0026 9C68     		ldr	r4, [r3, #8]
 496 0028 FFF7FEFF 		bl	xTaskGetCurrentTaskHandle
 497 002c 0346     		mov	r3, r0
 498 002e 9C42     		cmp	r4, r3
 499 0030 11D1     		bne	.L27
 610:/home/rdu/Workspace/project_templates/mcu/stm32_ws/src/libraries/FreeRTOS/Source/queue.c **** 		{
 611:/home/rdu/Workspace/project_templates/mcu/stm32_ws/src/libraries/FreeRTOS/Source/queue.c **** 			traceGIVE_MUTEX_RECURSIVE( pxMutex );
 612:/home/rdu/Workspace/project_templates/mcu/stm32_ws/src/libraries/FreeRTOS/Source/queue.c **** 
 613:/home/rdu/Workspace/project_templates/mcu/stm32_ws/src/libraries/FreeRTOS/Source/queue.c **** 			/* uxRecursiveCallCount cannot be zero if xMutexHolder is equal to
 614:/home/rdu/Workspace/project_templates/mcu/stm32_ws/src/libraries/FreeRTOS/Source/queue.c **** 			the task handle, therefore no underflow check is required.  Also,
 615:/home/rdu/Workspace/project_templates/mcu/stm32_ws/src/libraries/FreeRTOS/Source/queue.c **** 			uxRecursiveCallCount is only modified by the mutex holder, and as
 616:/home/rdu/Workspace/project_templates/mcu/stm32_ws/src/libraries/FreeRTOS/Source/queue.c **** 			there can only be one, no mutual exclusion is required to modify the
 617:/home/rdu/Workspace/project_templates/mcu/stm32_ws/src/libraries/FreeRTOS/Source/queue.c **** 			uxRecursiveCallCount member. */
 618:/home/rdu/Workspace/project_templates/mcu/stm32_ws/src/libraries/FreeRTOS/Source/queue.c **** 			( pxMutex->u.xSemaphore.uxRecursiveCallCount )--;
 500              		.loc 1 618 0
 501 0032 049B     		ldr	r3, [sp, #16]
 502 0034 DB68     		ldr	r3, [r3, #12]
 503 0036 5A1E     		subs	r2, r3, #1
 504 0038 049B     		ldr	r3, [sp, #16]
 505 003a DA60     		str	r2, [r3, #12]
 619:/home/rdu/Workspace/project_templates/mcu/stm32_ws/src/libraries/FreeRTOS/Source/queue.c **** 
 620:/home/rdu/Workspace/project_templates/mcu/stm32_ws/src/libraries/FreeRTOS/Source/queue.c **** 			/* Has the recursive call count unwound to 0? */
 621:/home/rdu/Workspace/project_templates/mcu/stm32_ws/src/libraries/FreeRTOS/Source/queue.c **** 			if( pxMutex->u.xSemaphore.uxRecursiveCallCount == ( UBaseType_t ) 0 )
 506              		.loc 1 621 0
 507 003c 049B     		ldr	r3, [sp, #16]
 508 003e DB68     		ldr	r3, [r3, #12]
 509 0040 002B     		cmp	r3, #0
 510 0042 05D1     		bne	.L28
 622:/home/rdu/Workspace/project_templates/mcu/stm32_ws/src/libraries/FreeRTOS/Source/queue.c **** 			{
 623:/home/rdu/Workspace/project_templates/mcu/stm32_ws/src/libraries/FreeRTOS/Source/queue.c **** 				/* Return the mutex.  This will automatically unblock any other
 624:/home/rdu/Workspace/project_templates/mcu/stm32_ws/src/libraries/FreeRTOS/Source/queue.c **** 				task that might be waiting to access the mutex. */
 625:/home/rdu/Workspace/project_templates/mcu/stm32_ws/src/libraries/FreeRTOS/Source/queue.c **** 				( void ) xQueueGenericSend( pxMutex, NULL, queueMUTEX_GIVE_BLOCK_TIME, queueSEND_TO_BACK );
 511              		.loc 1 625 0
 512 0044 0023     		movs	r3, #0
 513 0046 0022     		movs	r2, #0
 514 0048 0021     		movs	r1, #0
 515 004a 0498     		ldr	r0, [sp, #16]
 516 004c FFF7FEFF 		bl	xQueueGenericSend
 517              	.L28:
 626:/home/rdu/Workspace/project_templates/mcu/stm32_ws/src/libraries/FreeRTOS/Source/queue.c **** 			}
 627:/home/rdu/Workspace/project_templates/mcu/stm32_ws/src/libraries/FreeRTOS/Source/queue.c **** 			else
 628:/home/rdu/Workspace/project_templates/mcu/stm32_ws/src/libraries/FreeRTOS/Source/queue.c **** 			{
 629:/home/rdu/Workspace/project_templates/mcu/stm32_ws/src/libraries/FreeRTOS/Source/queue.c **** 				mtCOVERAGE_TEST_MARKER();
 630:/home/rdu/Workspace/project_templates/mcu/stm32_ws/src/libraries/FreeRTOS/Source/queue.c **** 			}
 631:/home/rdu/Workspace/project_templates/mcu/stm32_ws/src/libraries/FreeRTOS/Source/queue.c **** 
 632:/home/rdu/Workspace/project_templates/mcu/stm32_ws/src/libraries/FreeRTOS/Source/queue.c **** 			xReturn = pdPASS;
 518              		.loc 1 632 0
 519 0050 0123     		movs	r3, #1
 520 0052 0593     		str	r3, [sp, #20]
 521 0054 01E0     		b	.L29
 522              	.L27:
 633:/home/rdu/Workspace/project_templates/mcu/stm32_ws/src/libraries/FreeRTOS/Source/queue.c **** 		}
 634:/home/rdu/Workspace/project_templates/mcu/stm32_ws/src/libraries/FreeRTOS/Source/queue.c **** 		else
 635:/home/rdu/Workspace/project_templates/mcu/stm32_ws/src/libraries/FreeRTOS/Source/queue.c **** 		{
 636:/home/rdu/Workspace/project_templates/mcu/stm32_ws/src/libraries/FreeRTOS/Source/queue.c **** 			/* The mutex cannot be given because the calling task is not the
 637:/home/rdu/Workspace/project_templates/mcu/stm32_ws/src/libraries/FreeRTOS/Source/queue.c **** 			holder. */
 638:/home/rdu/Workspace/project_templates/mcu/stm32_ws/src/libraries/FreeRTOS/Source/queue.c **** 			xReturn = pdFAIL;
 523              		.loc 1 638 0
 524 0056 0023     		movs	r3, #0
 525 0058 0593     		str	r3, [sp, #20]
 526              	.L29:
 639:/home/rdu/Workspace/project_templates/mcu/stm32_ws/src/libraries/FreeRTOS/Source/queue.c **** 
 640:/home/rdu/Workspace/project_templates/mcu/stm32_ws/src/libraries/FreeRTOS/Source/queue.c **** 			traceGIVE_MUTEX_RECURSIVE_FAILED( pxMutex );
 641:/home/rdu/Workspace/project_templates/mcu/stm32_ws/src/libraries/FreeRTOS/Source/queue.c **** 		}
 642:/home/rdu/Workspace/project_templates/mcu/stm32_ws/src/libraries/FreeRTOS/Source/queue.c **** 
 643:/home/rdu/Workspace/project_templates/mcu/stm32_ws/src/libraries/FreeRTOS/Source/queue.c **** 		return xReturn;
 527              		.loc 1 643 0
 528 005a 059B     		ldr	r3, [sp, #20]
 644:/home/rdu/Workspace/project_templates/mcu/stm32_ws/src/libraries/FreeRTOS/Source/queue.c **** 	}
 529              		.loc 1 644 0
 530 005c 1846     		mov	r0, r3
 531 005e 06B0     		add	sp, sp, #24
 532              	.LCFI17:
 533              		.cfi_def_cfa_offset 8
 534              		@ sp needed
 535 0060 10BD     		pop	{r4, pc}
 536              		.cfi_endproc
 537              	.LFE10:
 539              		.section	.text.xQueueTakeMutexRecursive,"ax",%progbits
 540              		.align	1
 541              		.global	xQueueTakeMutexRecursive
 542              		.syntax unified
 543              		.thumb
 544              		.thumb_func
 545              		.fpu fpv4-sp-d16
 547              	xQueueTakeMutexRecursive:
 548              	.LFB11:
 645:/home/rdu/Workspace/project_templates/mcu/stm32_ws/src/libraries/FreeRTOS/Source/queue.c **** 
 646:/home/rdu/Workspace/project_templates/mcu/stm32_ws/src/libraries/FreeRTOS/Source/queue.c **** #endif /* configUSE_RECURSIVE_MUTEXES */
 647:/home/rdu/Workspace/project_templates/mcu/stm32_ws/src/libraries/FreeRTOS/Source/queue.c **** /*-----------------------------------------------------------*/
 648:/home/rdu/Workspace/project_templates/mcu/stm32_ws/src/libraries/FreeRTOS/Source/queue.c **** 
 649:/home/rdu/Workspace/project_templates/mcu/stm32_ws/src/libraries/FreeRTOS/Source/queue.c **** #if ( configUSE_RECURSIVE_MUTEXES == 1 )
 650:/home/rdu/Workspace/project_templates/mcu/stm32_ws/src/libraries/FreeRTOS/Source/queue.c **** 
 651:/home/rdu/Workspace/project_templates/mcu/stm32_ws/src/libraries/FreeRTOS/Source/queue.c **** 	BaseType_t xQueueTakeMutexRecursive( QueueHandle_t xMutex, TickType_t xTicksToWait )
 652:/home/rdu/Workspace/project_templates/mcu/stm32_ws/src/libraries/FreeRTOS/Source/queue.c **** 	{
 549              		.loc 1 652 0
 550              		.cfi_startproc
 551              		@ args = 0, pretend = 0, frame = 24
 552              		@ frame_needed = 0, uses_anonymous_args = 0
 553 0000 10B5     		push	{r4, lr}
 554              	.LCFI18:
 555              		.cfi_def_cfa_offset 8
 556              		.cfi_offset 4, -8
 557              		.cfi_offset 14, -4
 558 0002 86B0     		sub	sp, sp, #24
 559              	.LCFI19:
 560              		.cfi_def_cfa_offset 32
 561 0004 0190     		str	r0, [sp, #4]
 562 0006 0091     		str	r1, [sp]
 653:/home/rdu/Workspace/project_templates/mcu/stm32_ws/src/libraries/FreeRTOS/Source/queue.c **** 	BaseType_t xReturn;
 654:/home/rdu/Workspace/project_templates/mcu/stm32_ws/src/libraries/FreeRTOS/Source/queue.c **** 	Queue_t * const pxMutex = ( Queue_t * ) xMutex;
 563              		.loc 1 654 0
 564 0008 019B     		ldr	r3, [sp, #4]
 565 000a 0493     		str	r3, [sp, #16]
 655:/home/rdu/Workspace/project_templates/mcu/stm32_ws/src/libraries/FreeRTOS/Source/queue.c **** 
 656:/home/rdu/Workspace/project_templates/mcu/stm32_ws/src/libraries/FreeRTOS/Source/queue.c **** 		configASSERT( pxMutex );
 566              		.loc 1 656 0
 567 000c 049B     		ldr	r3, [sp, #16]
 568 000e 002B     		cmp	r3, #0
 569 0010 09D1     		bne	.L32
 570              	.LBB107:
 571              	.LBB108:
 572              		.loc 2 195 0 discriminator 1
 573              		.syntax unified
 574              	@ 195 "/home/rdu/Workspace/project_templates/mcu/stm32_ws/src/libraries/FreeRTOS/Source/portable/GC
 575 0012 4FF05003 			mov r3, #80												
 576 0016 83F31188 		msr basepri, r3											
 577 001a BFF36F8F 		isb														
 578 001e BFF34F8F 		dsb														
 579              	
 580              	@ 0 "" 2
 581              		.thumb
 582              		.syntax unified
 583 0022 0393     		str	r3, [sp, #12]
 584              	.L33:
 585              	.LBE108:
 586              	.LBE107:
 587              		.loc 1 656 0 discriminator 1
 588 0024 FEE7     		b	.L33
 589              	.L32:
 657:/home/rdu/Workspace/project_templates/mcu/stm32_ws/src/libraries/FreeRTOS/Source/queue.c **** 
 658:/home/rdu/Workspace/project_templates/mcu/stm32_ws/src/libraries/FreeRTOS/Source/queue.c **** 		/* Comments regarding mutual exclusion as per those within
 659:/home/rdu/Workspace/project_templates/mcu/stm32_ws/src/libraries/FreeRTOS/Source/queue.c **** 		xQueueGiveMutexRecursive(). */
 660:/home/rdu/Workspace/project_templates/mcu/stm32_ws/src/libraries/FreeRTOS/Source/queue.c **** 
 661:/home/rdu/Workspace/project_templates/mcu/stm32_ws/src/libraries/FreeRTOS/Source/queue.c **** 		traceTAKE_MUTEX_RECURSIVE( pxMutex );
 662:/home/rdu/Workspace/project_templates/mcu/stm32_ws/src/libraries/FreeRTOS/Source/queue.c **** 
 663:/home/rdu/Workspace/project_templates/mcu/stm32_ws/src/libraries/FreeRTOS/Source/queue.c **** 		if( pxMutex->u.xSemaphore.xMutexHolder == xTaskGetCurrentTaskHandle() )
 590              		.loc 1 663 0
 591 0026 049B     		ldr	r3, [sp, #16]
 592 0028 9C68     		ldr	r4, [r3, #8]
 593 002a FFF7FEFF 		bl	xTaskGetCurrentTaskHandle
 594 002e 0346     		mov	r3, r0
 595 0030 9C42     		cmp	r4, r3
 596 0032 07D1     		bne	.L34
 664:/home/rdu/Workspace/project_templates/mcu/stm32_ws/src/libraries/FreeRTOS/Source/queue.c **** 		{
 665:/home/rdu/Workspace/project_templates/mcu/stm32_ws/src/libraries/FreeRTOS/Source/queue.c **** 			( pxMutex->u.xSemaphore.uxRecursiveCallCount )++;
 597              		.loc 1 665 0
 598 0034 049B     		ldr	r3, [sp, #16]
 599 0036 DB68     		ldr	r3, [r3, #12]
 600 0038 5A1C     		adds	r2, r3, #1
 601 003a 049B     		ldr	r3, [sp, #16]
 602 003c DA60     		str	r2, [r3, #12]
 666:/home/rdu/Workspace/project_templates/mcu/stm32_ws/src/libraries/FreeRTOS/Source/queue.c **** 			xReturn = pdPASS;
 603              		.loc 1 666 0
 604 003e 0123     		movs	r3, #1
 605 0040 0593     		str	r3, [sp, #20]
 606 0042 0CE0     		b	.L35
 607              	.L34:
 667:/home/rdu/Workspace/project_templates/mcu/stm32_ws/src/libraries/FreeRTOS/Source/queue.c **** 		}
 668:/home/rdu/Workspace/project_templates/mcu/stm32_ws/src/libraries/FreeRTOS/Source/queue.c **** 		else
 669:/home/rdu/Workspace/project_templates/mcu/stm32_ws/src/libraries/FreeRTOS/Source/queue.c **** 		{
 670:/home/rdu/Workspace/project_templates/mcu/stm32_ws/src/libraries/FreeRTOS/Source/queue.c **** 			xReturn = xQueueSemaphoreTake( pxMutex, xTicksToWait );
 608              		.loc 1 670 0
 609 0044 0099     		ldr	r1, [sp]
 610 0046 0498     		ldr	r0, [sp, #16]
 611 0048 FFF7FEFF 		bl	xQueueSemaphoreTake
 612 004c 0590     		str	r0, [sp, #20]
 671:/home/rdu/Workspace/project_templates/mcu/stm32_ws/src/libraries/FreeRTOS/Source/queue.c **** 
 672:/home/rdu/Workspace/project_templates/mcu/stm32_ws/src/libraries/FreeRTOS/Source/queue.c **** 			/* pdPASS will only be returned if the mutex was successfully
 673:/home/rdu/Workspace/project_templates/mcu/stm32_ws/src/libraries/FreeRTOS/Source/queue.c **** 			obtained.  The calling task may have entered the Blocked state
 674:/home/rdu/Workspace/project_templates/mcu/stm32_ws/src/libraries/FreeRTOS/Source/queue.c **** 			before reaching here. */
 675:/home/rdu/Workspace/project_templates/mcu/stm32_ws/src/libraries/FreeRTOS/Source/queue.c **** 			if( xReturn != pdFAIL )
 613              		.loc 1 675 0
 614 004e 059B     		ldr	r3, [sp, #20]
 615 0050 002B     		cmp	r3, #0
 616 0052 04D0     		beq	.L35
 676:/home/rdu/Workspace/project_templates/mcu/stm32_ws/src/libraries/FreeRTOS/Source/queue.c **** 			{
 677:/home/rdu/Workspace/project_templates/mcu/stm32_ws/src/libraries/FreeRTOS/Source/queue.c **** 				( pxMutex->u.xSemaphore.uxRecursiveCallCount )++;
 617              		.loc 1 677 0
 618 0054 049B     		ldr	r3, [sp, #16]
 619 0056 DB68     		ldr	r3, [r3, #12]
 620 0058 5A1C     		adds	r2, r3, #1
 621 005a 049B     		ldr	r3, [sp, #16]
 622 005c DA60     		str	r2, [r3, #12]
 623              	.L35:
 678:/home/rdu/Workspace/project_templates/mcu/stm32_ws/src/libraries/FreeRTOS/Source/queue.c **** 			}
 679:/home/rdu/Workspace/project_templates/mcu/stm32_ws/src/libraries/FreeRTOS/Source/queue.c **** 			else
 680:/home/rdu/Workspace/project_templates/mcu/stm32_ws/src/libraries/FreeRTOS/Source/queue.c **** 			{
 681:/home/rdu/Workspace/project_templates/mcu/stm32_ws/src/libraries/FreeRTOS/Source/queue.c **** 				traceTAKE_MUTEX_RECURSIVE_FAILED( pxMutex );
 682:/home/rdu/Workspace/project_templates/mcu/stm32_ws/src/libraries/FreeRTOS/Source/queue.c **** 			}
 683:/home/rdu/Workspace/project_templates/mcu/stm32_ws/src/libraries/FreeRTOS/Source/queue.c **** 		}
 684:/home/rdu/Workspace/project_templates/mcu/stm32_ws/src/libraries/FreeRTOS/Source/queue.c **** 
 685:/home/rdu/Workspace/project_templates/mcu/stm32_ws/src/libraries/FreeRTOS/Source/queue.c **** 		return xReturn;
 624              		.loc 1 685 0
 625 005e 059B     		ldr	r3, [sp, #20]
 686:/home/rdu/Workspace/project_templates/mcu/stm32_ws/src/libraries/FreeRTOS/Source/queue.c **** 	}
 626              		.loc 1 686 0
 627 0060 1846     		mov	r0, r3
 628 0062 06B0     		add	sp, sp, #24
 629              	.LCFI20:
 630              		.cfi_def_cfa_offset 8
 631              		@ sp needed
 632 0064 10BD     		pop	{r4, pc}
 633              		.cfi_endproc
 634              	.LFE11:
 636              		.section	.text.xQueueCreateCountingSemaphore,"ax",%progbits
 637              		.align	1
 638              		.global	xQueueCreateCountingSemaphore
 639              		.syntax unified
 640              		.thumb
 641              		.thumb_func
 642              		.fpu fpv4-sp-d16
 644              	xQueueCreateCountingSemaphore:
 645              	.LFB12:
 687:/home/rdu/Workspace/project_templates/mcu/stm32_ws/src/libraries/FreeRTOS/Source/queue.c **** 
 688:/home/rdu/Workspace/project_templates/mcu/stm32_ws/src/libraries/FreeRTOS/Source/queue.c **** #endif /* configUSE_RECURSIVE_MUTEXES */
 689:/home/rdu/Workspace/project_templates/mcu/stm32_ws/src/libraries/FreeRTOS/Source/queue.c **** /*-----------------------------------------------------------*/
 690:/home/rdu/Workspace/project_templates/mcu/stm32_ws/src/libraries/FreeRTOS/Source/queue.c **** 
 691:/home/rdu/Workspace/project_templates/mcu/stm32_ws/src/libraries/FreeRTOS/Source/queue.c **** #if( ( configUSE_COUNTING_SEMAPHORES == 1 ) && ( configSUPPORT_STATIC_ALLOCATION == 1 ) )
 692:/home/rdu/Workspace/project_templates/mcu/stm32_ws/src/libraries/FreeRTOS/Source/queue.c **** 
 693:/home/rdu/Workspace/project_templates/mcu/stm32_ws/src/libraries/FreeRTOS/Source/queue.c **** 	QueueHandle_t xQueueCreateCountingSemaphoreStatic( const UBaseType_t uxMaxCount, const UBaseType_t
 694:/home/rdu/Workspace/project_templates/mcu/stm32_ws/src/libraries/FreeRTOS/Source/queue.c **** 	{
 695:/home/rdu/Workspace/project_templates/mcu/stm32_ws/src/libraries/FreeRTOS/Source/queue.c **** 	QueueHandle_t xHandle;
 696:/home/rdu/Workspace/project_templates/mcu/stm32_ws/src/libraries/FreeRTOS/Source/queue.c **** 
 697:/home/rdu/Workspace/project_templates/mcu/stm32_ws/src/libraries/FreeRTOS/Source/queue.c **** 		configASSERT( uxMaxCount != 0 );
 698:/home/rdu/Workspace/project_templates/mcu/stm32_ws/src/libraries/FreeRTOS/Source/queue.c **** 		configASSERT( uxInitialCount <= uxMaxCount );
 699:/home/rdu/Workspace/project_templates/mcu/stm32_ws/src/libraries/FreeRTOS/Source/queue.c **** 
 700:/home/rdu/Workspace/project_templates/mcu/stm32_ws/src/libraries/FreeRTOS/Source/queue.c **** 		xHandle = xQueueGenericCreateStatic( uxMaxCount, queueSEMAPHORE_QUEUE_ITEM_LENGTH, NULL, pxStatic
 701:/home/rdu/Workspace/project_templates/mcu/stm32_ws/src/libraries/FreeRTOS/Source/queue.c **** 
 702:/home/rdu/Workspace/project_templates/mcu/stm32_ws/src/libraries/FreeRTOS/Source/queue.c **** 		if( xHandle != NULL )
 703:/home/rdu/Workspace/project_templates/mcu/stm32_ws/src/libraries/FreeRTOS/Source/queue.c **** 		{
 704:/home/rdu/Workspace/project_templates/mcu/stm32_ws/src/libraries/FreeRTOS/Source/queue.c **** 			( ( Queue_t * ) xHandle )->uxMessagesWaiting = uxInitialCount;
 705:/home/rdu/Workspace/project_templates/mcu/stm32_ws/src/libraries/FreeRTOS/Source/queue.c **** 
 706:/home/rdu/Workspace/project_templates/mcu/stm32_ws/src/libraries/FreeRTOS/Source/queue.c **** 			traceCREATE_COUNTING_SEMAPHORE();
 707:/home/rdu/Workspace/project_templates/mcu/stm32_ws/src/libraries/FreeRTOS/Source/queue.c **** 		}
 708:/home/rdu/Workspace/project_templates/mcu/stm32_ws/src/libraries/FreeRTOS/Source/queue.c **** 		else
 709:/home/rdu/Workspace/project_templates/mcu/stm32_ws/src/libraries/FreeRTOS/Source/queue.c **** 		{
 710:/home/rdu/Workspace/project_templates/mcu/stm32_ws/src/libraries/FreeRTOS/Source/queue.c **** 			traceCREATE_COUNTING_SEMAPHORE_FAILED();
 711:/home/rdu/Workspace/project_templates/mcu/stm32_ws/src/libraries/FreeRTOS/Source/queue.c **** 		}
 712:/home/rdu/Workspace/project_templates/mcu/stm32_ws/src/libraries/FreeRTOS/Source/queue.c **** 
 713:/home/rdu/Workspace/project_templates/mcu/stm32_ws/src/libraries/FreeRTOS/Source/queue.c **** 		return xHandle;
 714:/home/rdu/Workspace/project_templates/mcu/stm32_ws/src/libraries/FreeRTOS/Source/queue.c **** 	}
 715:/home/rdu/Workspace/project_templates/mcu/stm32_ws/src/libraries/FreeRTOS/Source/queue.c **** 
 716:/home/rdu/Workspace/project_templates/mcu/stm32_ws/src/libraries/FreeRTOS/Source/queue.c **** #endif /* ( ( configUSE_COUNTING_SEMAPHORES == 1 ) && ( configSUPPORT_DYNAMIC_ALLOCATION == 1 ) ) *
 717:/home/rdu/Workspace/project_templates/mcu/stm32_ws/src/libraries/FreeRTOS/Source/queue.c **** /*-----------------------------------------------------------*/
 718:/home/rdu/Workspace/project_templates/mcu/stm32_ws/src/libraries/FreeRTOS/Source/queue.c **** 
 719:/home/rdu/Workspace/project_templates/mcu/stm32_ws/src/libraries/FreeRTOS/Source/queue.c **** #if( ( configUSE_COUNTING_SEMAPHORES == 1 ) && ( configSUPPORT_DYNAMIC_ALLOCATION == 1 ) )
 720:/home/rdu/Workspace/project_templates/mcu/stm32_ws/src/libraries/FreeRTOS/Source/queue.c **** 
 721:/home/rdu/Workspace/project_templates/mcu/stm32_ws/src/libraries/FreeRTOS/Source/queue.c **** 	QueueHandle_t xQueueCreateCountingSemaphore( const UBaseType_t uxMaxCount, const UBaseType_t uxIni
 722:/home/rdu/Workspace/project_templates/mcu/stm32_ws/src/libraries/FreeRTOS/Source/queue.c **** 	{
 646              		.loc 1 722 0
 647              		.cfi_startproc
 648              		@ args = 0, pretend = 0, frame = 24
 649              		@ frame_needed = 0, uses_anonymous_args = 0
 650 0000 00B5     		push	{lr}
 651              	.LCFI21:
 652              		.cfi_def_cfa_offset 4
 653              		.cfi_offset 14, -4
 654 0002 87B0     		sub	sp, sp, #28
 655              	.LCFI22:
 656              		.cfi_def_cfa_offset 32
 657 0004 0190     		str	r0, [sp, #4]
 658 0006 0091     		str	r1, [sp]
 723:/home/rdu/Workspace/project_templates/mcu/stm32_ws/src/libraries/FreeRTOS/Source/queue.c **** 	QueueHandle_t xHandle;
 724:/home/rdu/Workspace/project_templates/mcu/stm32_ws/src/libraries/FreeRTOS/Source/queue.c **** 
 725:/home/rdu/Workspace/project_templates/mcu/stm32_ws/src/libraries/FreeRTOS/Source/queue.c **** 		configASSERT( uxMaxCount != 0 );
 659              		.loc 1 725 0
 660 0008 019B     		ldr	r3, [sp, #4]
 661 000a 002B     		cmp	r3, #0
 662 000c 09D1     		bne	.L38
 663              	.LBB109:
 664              	.LBB110:
 665              		.loc 2 195 0 discriminator 1
 666              		.syntax unified
 667              	@ 195 "/home/rdu/Workspace/project_templates/mcu/stm32_ws/src/libraries/FreeRTOS/Source/portable/GC
 668 000e 4FF05003 			mov r3, #80												
 669 0012 83F31188 		msr basepri, r3											
 670 0016 BFF36F8F 		isb														
 671 001a BFF34F8F 		dsb														
 672              	
 673              	@ 0 "" 2
 674              		.thumb
 675              		.syntax unified
 676 001e 0493     		str	r3, [sp, #16]
 677              	.L39:
 678              	.LBE110:
 679              	.LBE109:
 680              		.loc 1 725 0 discriminator 1
 681 0020 FEE7     		b	.L39
 682              	.L38:
 726:/home/rdu/Workspace/project_templates/mcu/stm32_ws/src/libraries/FreeRTOS/Source/queue.c **** 		configASSERT( uxInitialCount <= uxMaxCount );
 683              		.loc 1 726 0
 684 0022 009A     		ldr	r2, [sp]
 685 0024 019B     		ldr	r3, [sp, #4]
 686 0026 9A42     		cmp	r2, r3
 687 0028 09D9     		bls	.L40
 688              	.LBB111:
 689              	.LBB112:
 690              		.loc 2 195 0 discriminator 1
 691              		.syntax unified
 692              	@ 195 "/home/rdu/Workspace/project_templates/mcu/stm32_ws/src/libraries/FreeRTOS/Source/portable/GC
 693 002a 4FF05003 			mov r3, #80												
 694 002e 83F31188 		msr basepri, r3											
 695 0032 BFF36F8F 		isb														
 696 0036 BFF34F8F 		dsb														
 697              	
 698              	@ 0 "" 2
 699              		.thumb
 700              		.syntax unified
 701 003a 0393     		str	r3, [sp, #12]
 702              	.L41:
 703              	.LBE112:
 704              	.LBE111:
 705              		.loc 1 726 0 discriminator 2
 706 003c FEE7     		b	.L41
 707              	.L40:
 727:/home/rdu/Workspace/project_templates/mcu/stm32_ws/src/libraries/FreeRTOS/Source/queue.c **** 
 728:/home/rdu/Workspace/project_templates/mcu/stm32_ws/src/libraries/FreeRTOS/Source/queue.c **** 		xHandle = xQueueGenericCreate( uxMaxCount, queueSEMAPHORE_QUEUE_ITEM_LENGTH, queueQUEUE_TYPE_COUN
 708              		.loc 1 728 0
 709 003e 0222     		movs	r2, #2
 710 0040 0021     		movs	r1, #0
 711 0042 0198     		ldr	r0, [sp, #4]
 712 0044 FFF7FEFF 		bl	xQueueGenericCreate
 713 0048 0590     		str	r0, [sp, #20]
 729:/home/rdu/Workspace/project_templates/mcu/stm32_ws/src/libraries/FreeRTOS/Source/queue.c **** 
 730:/home/rdu/Workspace/project_templates/mcu/stm32_ws/src/libraries/FreeRTOS/Source/queue.c **** 		if( xHandle != NULL )
 714              		.loc 1 730 0
 715 004a 059B     		ldr	r3, [sp, #20]
 716 004c 002B     		cmp	r3, #0
 717 004e 02D0     		beq	.L42
 731:/home/rdu/Workspace/project_templates/mcu/stm32_ws/src/libraries/FreeRTOS/Source/queue.c **** 		{
 732:/home/rdu/Workspace/project_templates/mcu/stm32_ws/src/libraries/FreeRTOS/Source/queue.c **** 			( ( Queue_t * ) xHandle )->uxMessagesWaiting = uxInitialCount;
 718              		.loc 1 732 0
 719 0050 059B     		ldr	r3, [sp, #20]
 720 0052 009A     		ldr	r2, [sp]
 721 0054 9A63     		str	r2, [r3, #56]
 722              	.L42:
 733:/home/rdu/Workspace/project_templates/mcu/stm32_ws/src/libraries/FreeRTOS/Source/queue.c **** 
 734:/home/rdu/Workspace/project_templates/mcu/stm32_ws/src/libraries/FreeRTOS/Source/queue.c **** 			traceCREATE_COUNTING_SEMAPHORE();
 735:/home/rdu/Workspace/project_templates/mcu/stm32_ws/src/libraries/FreeRTOS/Source/queue.c **** 		}
 736:/home/rdu/Workspace/project_templates/mcu/stm32_ws/src/libraries/FreeRTOS/Source/queue.c **** 		else
 737:/home/rdu/Workspace/project_templates/mcu/stm32_ws/src/libraries/FreeRTOS/Source/queue.c **** 		{
 738:/home/rdu/Workspace/project_templates/mcu/stm32_ws/src/libraries/FreeRTOS/Source/queue.c **** 			traceCREATE_COUNTING_SEMAPHORE_FAILED();
 739:/home/rdu/Workspace/project_templates/mcu/stm32_ws/src/libraries/FreeRTOS/Source/queue.c **** 		}
 740:/home/rdu/Workspace/project_templates/mcu/stm32_ws/src/libraries/FreeRTOS/Source/queue.c **** 
 741:/home/rdu/Workspace/project_templates/mcu/stm32_ws/src/libraries/FreeRTOS/Source/queue.c **** 		return xHandle;
 723              		.loc 1 741 0
 724 0056 059B     		ldr	r3, [sp, #20]
 742:/home/rdu/Workspace/project_templates/mcu/stm32_ws/src/libraries/FreeRTOS/Source/queue.c **** 	}
 725              		.loc 1 742 0
 726 0058 1846     		mov	r0, r3
 727 005a 07B0     		add	sp, sp, #28
 728              	.LCFI23:
 729              		.cfi_def_cfa_offset 4
 730              		@ sp needed
 731 005c 5DF804FB 		ldr	pc, [sp], #4
 732              		.cfi_endproc
 733              	.LFE12:
 735              		.section	.text.xQueueGenericSend,"ax",%progbits
 736              		.align	1
 737              		.global	xQueueGenericSend
 738              		.syntax unified
 739              		.thumb
 740              		.thumb_func
 741              		.fpu fpv4-sp-d16
 743              	xQueueGenericSend:
 744              	.LFB13:
 743:/home/rdu/Workspace/project_templates/mcu/stm32_ws/src/libraries/FreeRTOS/Source/queue.c **** 
 744:/home/rdu/Workspace/project_templates/mcu/stm32_ws/src/libraries/FreeRTOS/Source/queue.c **** #endif /* ( ( configUSE_COUNTING_SEMAPHORES == 1 ) && ( configSUPPORT_DYNAMIC_ALLOCATION == 1 ) ) *
 745:/home/rdu/Workspace/project_templates/mcu/stm32_ws/src/libraries/FreeRTOS/Source/queue.c **** /*-----------------------------------------------------------*/
 746:/home/rdu/Workspace/project_templates/mcu/stm32_ws/src/libraries/FreeRTOS/Source/queue.c **** 
 747:/home/rdu/Workspace/project_templates/mcu/stm32_ws/src/libraries/FreeRTOS/Source/queue.c **** BaseType_t xQueueGenericSend( QueueHandle_t xQueue, const void * const pvItemToQueue, TickType_t xT
 748:/home/rdu/Workspace/project_templates/mcu/stm32_ws/src/libraries/FreeRTOS/Source/queue.c **** {
 745              		.loc 1 748 0
 746              		.cfi_startproc
 747              		@ args = 0, pretend = 0, frame = 56
 748              		@ frame_needed = 0, uses_anonymous_args = 0
 749 0000 00B5     		push	{lr}
 750              	.LCFI24:
 751              		.cfi_def_cfa_offset 4
 752              		.cfi_offset 14, -4
 753 0002 8FB0     		sub	sp, sp, #60
 754              	.LCFI25:
 755              		.cfi_def_cfa_offset 64
 756 0004 0390     		str	r0, [sp, #12]
 757 0006 0291     		str	r1, [sp, #8]
 758 0008 0192     		str	r2, [sp, #4]
 759 000a 0093     		str	r3, [sp]
 749:/home/rdu/Workspace/project_templates/mcu/stm32_ws/src/libraries/FreeRTOS/Source/queue.c **** BaseType_t xEntryTimeSet = pdFALSE, xYieldRequired;
 760              		.loc 1 749 0
 761 000c 0023     		movs	r3, #0
 762 000e 0D93     		str	r3, [sp, #52]
 750:/home/rdu/Workspace/project_templates/mcu/stm32_ws/src/libraries/FreeRTOS/Source/queue.c **** TimeOut_t xTimeOut;
 751:/home/rdu/Workspace/project_templates/mcu/stm32_ws/src/libraries/FreeRTOS/Source/queue.c **** Queue_t * const pxQueue = xQueue;
 763              		.loc 1 751 0
 764 0010 039B     		ldr	r3, [sp, #12]
 765 0012 0C93     		str	r3, [sp, #48]
 752:/home/rdu/Workspace/project_templates/mcu/stm32_ws/src/libraries/FreeRTOS/Source/queue.c **** 
 753:/home/rdu/Workspace/project_templates/mcu/stm32_ws/src/libraries/FreeRTOS/Source/queue.c **** 	configASSERT( pxQueue );
 766              		.loc 1 753 0
 767 0014 0C9B     		ldr	r3, [sp, #48]
 768 0016 002B     		cmp	r3, #0
 769 0018 09D1     		bne	.L45
 770              	.LBB113:
 771              	.LBB114:
 772              		.loc 2 195 0 discriminator 1
 773              		.syntax unified
 774              	@ 195 "/home/rdu/Workspace/project_templates/mcu/stm32_ws/src/libraries/FreeRTOS/Source/portable/GC
 775 001a 4FF05003 			mov r3, #80												
 776 001e 83F31188 		msr basepri, r3											
 777 0022 BFF36F8F 		isb														
 778 0026 BFF34F8F 		dsb														
 779              	
 780              	@ 0 "" 2
 781              		.thumb
 782              		.syntax unified
 783 002a 0A93     		str	r3, [sp, #40]
 784              	.L46:
 785              	.LBE114:
 786              	.LBE113:
 787              		.loc 1 753 0 discriminator 1
 788 002c FEE7     		b	.L46
 789              	.L45:
 754:/home/rdu/Workspace/project_templates/mcu/stm32_ws/src/libraries/FreeRTOS/Source/queue.c **** 	configASSERT( !( ( pvItemToQueue == NULL ) && ( pxQueue->uxItemSize != ( UBaseType_t ) 0U ) ) );
 790              		.loc 1 754 0
 791 002e 029B     		ldr	r3, [sp, #8]
 792 0030 002B     		cmp	r3, #0
 793 0032 03D1     		bne	.L47
 794              		.loc 1 754 0 is_stmt 0 discriminator 2
 795 0034 0C9B     		ldr	r3, [sp, #48]
 796 0036 1B6C     		ldr	r3, [r3, #64]
 797 0038 002B     		cmp	r3, #0
 798 003a 01D1     		bne	.L48
 799              	.L47:
 800              		.loc 1 754 0 discriminator 3
 801 003c 0123     		movs	r3, #1
 802 003e 00E0     		b	.L49
 803              	.L48:
 804              		.loc 1 754 0 discriminator 4
 805 0040 0023     		movs	r3, #0
 806              	.L49:
 807              		.loc 1 754 0 discriminator 6
 808 0042 002B     		cmp	r3, #0
 809 0044 09D1     		bne	.L50
 810              	.LBB115:
 811              	.LBB116:
 812              		.loc 2 195 0 is_stmt 1 discriminator 7
 813              		.syntax unified
 814              	@ 195 "/home/rdu/Workspace/project_templates/mcu/stm32_ws/src/libraries/FreeRTOS/Source/portable/GC
 815 0046 4FF05003 			mov r3, #80												
 816 004a 83F31188 		msr basepri, r3											
 817 004e BFF36F8F 		isb														
 818 0052 BFF34F8F 		dsb														
 819              	
 820              	@ 0 "" 2
 821              		.thumb
 822              		.syntax unified
 823 0056 0993     		str	r3, [sp, #36]
 824              	.L51:
 825              	.LBE116:
 826              	.LBE115:
 827              		.loc 1 754 0 discriminator 2
 828 0058 FEE7     		b	.L51
 829              	.L50:
 755:/home/rdu/Workspace/project_templates/mcu/stm32_ws/src/libraries/FreeRTOS/Source/queue.c **** 	configASSERT( !( ( xCopyPosition == queueOVERWRITE ) && ( pxQueue->uxLength != 1 ) ) );
 830              		.loc 1 755 0
 831 005a 009B     		ldr	r3, [sp]
 832 005c 022B     		cmp	r3, #2
 833 005e 03D1     		bne	.L52
 834              		.loc 1 755 0 is_stmt 0 discriminator 2
 835 0060 0C9B     		ldr	r3, [sp, #48]
 836 0062 DB6B     		ldr	r3, [r3, #60]
 837 0064 012B     		cmp	r3, #1
 838 0066 01D1     		bne	.L53
 839              	.L52:
 840              		.loc 1 755 0 discriminator 3
 841 0068 0123     		movs	r3, #1
 842 006a 00E0     		b	.L54
 843              	.L53:
 844              		.loc 1 755 0 discriminator 4
 845 006c 0023     		movs	r3, #0
 846              	.L54:
 847              		.loc 1 755 0 discriminator 6
 848 006e 002B     		cmp	r3, #0
 849 0070 09D1     		bne	.L55
 850              	.LBB117:
 851              	.LBB118:
 852              		.loc 2 195 0 is_stmt 1 discriminator 7
 853              		.syntax unified
 854              	@ 195 "/home/rdu/Workspace/project_templates/mcu/stm32_ws/src/libraries/FreeRTOS/Source/portable/GC
 855 0072 4FF05003 			mov r3, #80												
 856 0076 83F31188 		msr basepri, r3											
 857 007a BFF36F8F 		isb														
 858 007e BFF34F8F 		dsb														
 859              	
 860              	@ 0 "" 2
 861              		.thumb
 862              		.syntax unified
 863 0082 0893     		str	r3, [sp, #32]
 864              	.L56:
 865              	.LBE118:
 866              	.LBE117:
 867              		.loc 1 755 0 discriminator 3
 868 0084 FEE7     		b	.L56
 869              	.L55:
 756:/home/rdu/Workspace/project_templates/mcu/stm32_ws/src/libraries/FreeRTOS/Source/queue.c **** 	#if ( ( INCLUDE_xTaskGetSchedulerState == 1 ) || ( configUSE_TIMERS == 1 ) )
 757:/home/rdu/Workspace/project_templates/mcu/stm32_ws/src/libraries/FreeRTOS/Source/queue.c **** 	{
 758:/home/rdu/Workspace/project_templates/mcu/stm32_ws/src/libraries/FreeRTOS/Source/queue.c **** 		configASSERT( !( ( xTaskGetSchedulerState() == taskSCHEDULER_SUSPENDED ) && ( xTicksToWait != 0 )
 870              		.loc 1 758 0
 871 0086 FFF7FEFF 		bl	xTaskGetSchedulerState
 872 008a 0346     		mov	r3, r0
 873 008c 002B     		cmp	r3, #0
 874 008e 02D1     		bne	.L57
 875              		.loc 1 758 0 is_stmt 0 discriminator 2
 876 0090 019B     		ldr	r3, [sp, #4]
 877 0092 002B     		cmp	r3, #0
 878 0094 01D1     		bne	.L58
 879              	.L57:
 880              		.loc 1 758 0 discriminator 3
 881 0096 0123     		movs	r3, #1
 882 0098 00E0     		b	.L59
 883              	.L58:
 884              		.loc 1 758 0 discriminator 4
 885 009a 0023     		movs	r3, #0
 886              	.L59:
 887              		.loc 1 758 0 discriminator 6
 888 009c 002B     		cmp	r3, #0
 889 009e 09D1     		bne	.L60
 890              	.LBB119:
 891              	.LBB120:
 892              		.loc 2 195 0 is_stmt 1 discriminator 7
 893              		.syntax unified
 894              	@ 195 "/home/rdu/Workspace/project_templates/mcu/stm32_ws/src/libraries/FreeRTOS/Source/portable/GC
 895 00a0 4FF05003 			mov r3, #80												
 896 00a4 83F31188 		msr basepri, r3											
 897 00a8 BFF36F8F 		isb														
 898 00ac BFF34F8F 		dsb														
 899              	
 900              	@ 0 "" 2
 901              		.thumb
 902              		.syntax unified
 903 00b0 0793     		str	r3, [sp, #28]
 904              	.L61:
 905              	.LBE120:
 906              	.LBE119:
 907              		.loc 1 758 0 discriminator 4
 908 00b2 FEE7     		b	.L61
 909              	.L60:
 759:/home/rdu/Workspace/project_templates/mcu/stm32_ws/src/libraries/FreeRTOS/Source/queue.c **** 	}
 760:/home/rdu/Workspace/project_templates/mcu/stm32_ws/src/libraries/FreeRTOS/Source/queue.c **** 	#endif
 761:/home/rdu/Workspace/project_templates/mcu/stm32_ws/src/libraries/FreeRTOS/Source/queue.c **** 
 762:/home/rdu/Workspace/project_templates/mcu/stm32_ws/src/libraries/FreeRTOS/Source/queue.c **** 
 763:/home/rdu/Workspace/project_templates/mcu/stm32_ws/src/libraries/FreeRTOS/Source/queue.c **** 	/*lint -save -e904 This function relaxes the coding standard somewhat to
 764:/home/rdu/Workspace/project_templates/mcu/stm32_ws/src/libraries/FreeRTOS/Source/queue.c **** 	allow return statements within the function itself.  This is done in the
 765:/home/rdu/Workspace/project_templates/mcu/stm32_ws/src/libraries/FreeRTOS/Source/queue.c **** 	interest of execution time efficiency. */
 766:/home/rdu/Workspace/project_templates/mcu/stm32_ws/src/libraries/FreeRTOS/Source/queue.c **** 	for( ;; )
 767:/home/rdu/Workspace/project_templates/mcu/stm32_ws/src/libraries/FreeRTOS/Source/queue.c **** 	{
 768:/home/rdu/Workspace/project_templates/mcu/stm32_ws/src/libraries/FreeRTOS/Source/queue.c **** 		taskENTER_CRITICAL();
 910              		.loc 1 768 0
 911 00b4 FFF7FEFF 		bl	vPortEnterCritical
 769:/home/rdu/Workspace/project_templates/mcu/stm32_ws/src/libraries/FreeRTOS/Source/queue.c **** 		{
 770:/home/rdu/Workspace/project_templates/mcu/stm32_ws/src/libraries/FreeRTOS/Source/queue.c **** 			/* Is there room on the queue now?  The running task must be the
 771:/home/rdu/Workspace/project_templates/mcu/stm32_ws/src/libraries/FreeRTOS/Source/queue.c **** 			highest priority task wanting to access the queue.  If the head item
 772:/home/rdu/Workspace/project_templates/mcu/stm32_ws/src/libraries/FreeRTOS/Source/queue.c **** 			in the queue is to be overwritten then it does not matter if the
 773:/home/rdu/Workspace/project_templates/mcu/stm32_ws/src/libraries/FreeRTOS/Source/queue.c **** 			queue is full. */
 774:/home/rdu/Workspace/project_templates/mcu/stm32_ws/src/libraries/FreeRTOS/Source/queue.c **** 			if( ( pxQueue->uxMessagesWaiting < pxQueue->uxLength ) || ( xCopyPosition == queueOVERWRITE ) )
 912              		.loc 1 774 0
 913 00b8 0C9B     		ldr	r3, [sp, #48]
 914 00ba 9A6B     		ldr	r2, [r3, #56]
 915 00bc 0C9B     		ldr	r3, [sp, #48]
 916 00be DB6B     		ldr	r3, [r3, #60]
 917 00c0 9A42     		cmp	r2, r3
 918 00c2 02D3     		bcc	.L62
 919              		.loc 1 774 0 is_stmt 0 discriminator 1
 920 00c4 009B     		ldr	r3, [sp]
 921 00c6 022B     		cmp	r3, #2
 922 00c8 29D1     		bne	.L63
 923              	.L62:
 775:/home/rdu/Workspace/project_templates/mcu/stm32_ws/src/libraries/FreeRTOS/Source/queue.c **** 			{
 776:/home/rdu/Workspace/project_templates/mcu/stm32_ws/src/libraries/FreeRTOS/Source/queue.c **** 				traceQUEUE_SEND( pxQueue );
 777:/home/rdu/Workspace/project_templates/mcu/stm32_ws/src/libraries/FreeRTOS/Source/queue.c **** 
 778:/home/rdu/Workspace/project_templates/mcu/stm32_ws/src/libraries/FreeRTOS/Source/queue.c **** 				#if ( configUSE_QUEUE_SETS == 1 )
 779:/home/rdu/Workspace/project_templates/mcu/stm32_ws/src/libraries/FreeRTOS/Source/queue.c **** 				{
 780:/home/rdu/Workspace/project_templates/mcu/stm32_ws/src/libraries/FreeRTOS/Source/queue.c **** 				UBaseType_t uxPreviousMessagesWaiting = pxQueue->uxMessagesWaiting;
 781:/home/rdu/Workspace/project_templates/mcu/stm32_ws/src/libraries/FreeRTOS/Source/queue.c **** 
 782:/home/rdu/Workspace/project_templates/mcu/stm32_ws/src/libraries/FreeRTOS/Source/queue.c **** 					xYieldRequired = prvCopyDataToQueue( pxQueue, pvItemToQueue, xCopyPosition );
 783:/home/rdu/Workspace/project_templates/mcu/stm32_ws/src/libraries/FreeRTOS/Source/queue.c **** 
 784:/home/rdu/Workspace/project_templates/mcu/stm32_ws/src/libraries/FreeRTOS/Source/queue.c **** 					if( pxQueue->pxQueueSetContainer != NULL )
 785:/home/rdu/Workspace/project_templates/mcu/stm32_ws/src/libraries/FreeRTOS/Source/queue.c **** 					{
 786:/home/rdu/Workspace/project_templates/mcu/stm32_ws/src/libraries/FreeRTOS/Source/queue.c **** 						if( ( xCopyPosition == queueOVERWRITE ) && ( uxPreviousMessagesWaiting != ( UBaseType_t ) 0 )
 787:/home/rdu/Workspace/project_templates/mcu/stm32_ws/src/libraries/FreeRTOS/Source/queue.c **** 						{
 788:/home/rdu/Workspace/project_templates/mcu/stm32_ws/src/libraries/FreeRTOS/Source/queue.c **** 							/* Do not notify the queue set as an existing item
 789:/home/rdu/Workspace/project_templates/mcu/stm32_ws/src/libraries/FreeRTOS/Source/queue.c **** 							was overwritten in the queue so the number of items
 790:/home/rdu/Workspace/project_templates/mcu/stm32_ws/src/libraries/FreeRTOS/Source/queue.c **** 							in the queue has not changed. */
 791:/home/rdu/Workspace/project_templates/mcu/stm32_ws/src/libraries/FreeRTOS/Source/queue.c **** 							mtCOVERAGE_TEST_MARKER();
 792:/home/rdu/Workspace/project_templates/mcu/stm32_ws/src/libraries/FreeRTOS/Source/queue.c **** 						}
 793:/home/rdu/Workspace/project_templates/mcu/stm32_ws/src/libraries/FreeRTOS/Source/queue.c **** 						else if( prvNotifyQueueSetContainer( pxQueue, xCopyPosition ) != pdFALSE )
 794:/home/rdu/Workspace/project_templates/mcu/stm32_ws/src/libraries/FreeRTOS/Source/queue.c **** 						{
 795:/home/rdu/Workspace/project_templates/mcu/stm32_ws/src/libraries/FreeRTOS/Source/queue.c **** 							/* The queue is a member of a queue set, and posting
 796:/home/rdu/Workspace/project_templates/mcu/stm32_ws/src/libraries/FreeRTOS/Source/queue.c **** 							to the queue set caused a higher priority task to
 797:/home/rdu/Workspace/project_templates/mcu/stm32_ws/src/libraries/FreeRTOS/Source/queue.c **** 							unblock. A context switch is required. */
 798:/home/rdu/Workspace/project_templates/mcu/stm32_ws/src/libraries/FreeRTOS/Source/queue.c **** 							queueYIELD_IF_USING_PREEMPTION();
 799:/home/rdu/Workspace/project_templates/mcu/stm32_ws/src/libraries/FreeRTOS/Source/queue.c **** 						}
 800:/home/rdu/Workspace/project_templates/mcu/stm32_ws/src/libraries/FreeRTOS/Source/queue.c **** 						else
 801:/home/rdu/Workspace/project_templates/mcu/stm32_ws/src/libraries/FreeRTOS/Source/queue.c **** 						{
 802:/home/rdu/Workspace/project_templates/mcu/stm32_ws/src/libraries/FreeRTOS/Source/queue.c **** 							mtCOVERAGE_TEST_MARKER();
 803:/home/rdu/Workspace/project_templates/mcu/stm32_ws/src/libraries/FreeRTOS/Source/queue.c **** 						}
 804:/home/rdu/Workspace/project_templates/mcu/stm32_ws/src/libraries/FreeRTOS/Source/queue.c **** 					}
 805:/home/rdu/Workspace/project_templates/mcu/stm32_ws/src/libraries/FreeRTOS/Source/queue.c **** 					else
 806:/home/rdu/Workspace/project_templates/mcu/stm32_ws/src/libraries/FreeRTOS/Source/queue.c **** 					{
 807:/home/rdu/Workspace/project_templates/mcu/stm32_ws/src/libraries/FreeRTOS/Source/queue.c **** 						/* If there was a task waiting for data to arrive on the
 808:/home/rdu/Workspace/project_templates/mcu/stm32_ws/src/libraries/FreeRTOS/Source/queue.c **** 						queue then unblock it now. */
 809:/home/rdu/Workspace/project_templates/mcu/stm32_ws/src/libraries/FreeRTOS/Source/queue.c **** 						if( listLIST_IS_EMPTY( &( pxQueue->xTasksWaitingToReceive ) ) == pdFALSE )
 810:/home/rdu/Workspace/project_templates/mcu/stm32_ws/src/libraries/FreeRTOS/Source/queue.c **** 						{
 811:/home/rdu/Workspace/project_templates/mcu/stm32_ws/src/libraries/FreeRTOS/Source/queue.c **** 							if( xTaskRemoveFromEventList( &( pxQueue->xTasksWaitingToReceive ) ) != pdFALSE )
 812:/home/rdu/Workspace/project_templates/mcu/stm32_ws/src/libraries/FreeRTOS/Source/queue.c **** 							{
 813:/home/rdu/Workspace/project_templates/mcu/stm32_ws/src/libraries/FreeRTOS/Source/queue.c **** 								/* The unblocked task has a priority higher than
 814:/home/rdu/Workspace/project_templates/mcu/stm32_ws/src/libraries/FreeRTOS/Source/queue.c **** 								our own so yield immediately.  Yes it is ok to
 815:/home/rdu/Workspace/project_templates/mcu/stm32_ws/src/libraries/FreeRTOS/Source/queue.c **** 								do this from within the critical section - the
 816:/home/rdu/Workspace/project_templates/mcu/stm32_ws/src/libraries/FreeRTOS/Source/queue.c **** 								kernel takes care of that. */
 817:/home/rdu/Workspace/project_templates/mcu/stm32_ws/src/libraries/FreeRTOS/Source/queue.c **** 								queueYIELD_IF_USING_PREEMPTION();
 818:/home/rdu/Workspace/project_templates/mcu/stm32_ws/src/libraries/FreeRTOS/Source/queue.c **** 							}
 819:/home/rdu/Workspace/project_templates/mcu/stm32_ws/src/libraries/FreeRTOS/Source/queue.c **** 							else
 820:/home/rdu/Workspace/project_templates/mcu/stm32_ws/src/libraries/FreeRTOS/Source/queue.c **** 							{
 821:/home/rdu/Workspace/project_templates/mcu/stm32_ws/src/libraries/FreeRTOS/Source/queue.c **** 								mtCOVERAGE_TEST_MARKER();
 822:/home/rdu/Workspace/project_templates/mcu/stm32_ws/src/libraries/FreeRTOS/Source/queue.c **** 							}
 823:/home/rdu/Workspace/project_templates/mcu/stm32_ws/src/libraries/FreeRTOS/Source/queue.c **** 						}
 824:/home/rdu/Workspace/project_templates/mcu/stm32_ws/src/libraries/FreeRTOS/Source/queue.c **** 						else if( xYieldRequired != pdFALSE )
 825:/home/rdu/Workspace/project_templates/mcu/stm32_ws/src/libraries/FreeRTOS/Source/queue.c **** 						{
 826:/home/rdu/Workspace/project_templates/mcu/stm32_ws/src/libraries/FreeRTOS/Source/queue.c **** 							/* This path is a special case that will only get
 827:/home/rdu/Workspace/project_templates/mcu/stm32_ws/src/libraries/FreeRTOS/Source/queue.c **** 							executed if the task was holding multiple mutexes
 828:/home/rdu/Workspace/project_templates/mcu/stm32_ws/src/libraries/FreeRTOS/Source/queue.c **** 							and the mutexes were given back in an order that is
 829:/home/rdu/Workspace/project_templates/mcu/stm32_ws/src/libraries/FreeRTOS/Source/queue.c **** 							different to that in which they were taken. */
 830:/home/rdu/Workspace/project_templates/mcu/stm32_ws/src/libraries/FreeRTOS/Source/queue.c **** 							queueYIELD_IF_USING_PREEMPTION();
 831:/home/rdu/Workspace/project_templates/mcu/stm32_ws/src/libraries/FreeRTOS/Source/queue.c **** 						}
 832:/home/rdu/Workspace/project_templates/mcu/stm32_ws/src/libraries/FreeRTOS/Source/queue.c **** 						else
 833:/home/rdu/Workspace/project_templates/mcu/stm32_ws/src/libraries/FreeRTOS/Source/queue.c **** 						{
 834:/home/rdu/Workspace/project_templates/mcu/stm32_ws/src/libraries/FreeRTOS/Source/queue.c **** 							mtCOVERAGE_TEST_MARKER();
 835:/home/rdu/Workspace/project_templates/mcu/stm32_ws/src/libraries/FreeRTOS/Source/queue.c **** 						}
 836:/home/rdu/Workspace/project_templates/mcu/stm32_ws/src/libraries/FreeRTOS/Source/queue.c **** 					}
 837:/home/rdu/Workspace/project_templates/mcu/stm32_ws/src/libraries/FreeRTOS/Source/queue.c **** 				}
 838:/home/rdu/Workspace/project_templates/mcu/stm32_ws/src/libraries/FreeRTOS/Source/queue.c **** 				#else /* configUSE_QUEUE_SETS */
 839:/home/rdu/Workspace/project_templates/mcu/stm32_ws/src/libraries/FreeRTOS/Source/queue.c **** 				{
 840:/home/rdu/Workspace/project_templates/mcu/stm32_ws/src/libraries/FreeRTOS/Source/queue.c **** 					xYieldRequired = prvCopyDataToQueue( pxQueue, pvItemToQueue, xCopyPosition );
 924              		.loc 1 840 0 is_stmt 1
 925 00ca 009A     		ldr	r2, [sp]
 926 00cc 0299     		ldr	r1, [sp, #8]
 927 00ce 0C98     		ldr	r0, [sp, #48]
 928 00d0 FFF7FEFF 		bl	prvCopyDataToQueue
 929 00d4 0B90     		str	r0, [sp, #44]
 841:/home/rdu/Workspace/project_templates/mcu/stm32_ws/src/libraries/FreeRTOS/Source/queue.c **** 
 842:/home/rdu/Workspace/project_templates/mcu/stm32_ws/src/libraries/FreeRTOS/Source/queue.c **** 					/* If there was a task waiting for data to arrive on the
 843:/home/rdu/Workspace/project_templates/mcu/stm32_ws/src/libraries/FreeRTOS/Source/queue.c **** 					queue then unblock it now. */
 844:/home/rdu/Workspace/project_templates/mcu/stm32_ws/src/libraries/FreeRTOS/Source/queue.c **** 					if( listLIST_IS_EMPTY( &( pxQueue->xTasksWaitingToReceive ) ) == pdFALSE )
 930              		.loc 1 844 0
 931 00d6 0C9B     		ldr	r3, [sp, #48]
 932 00d8 5B6A     		ldr	r3, [r3, #36]
 933 00da 002B     		cmp	r3, #0
 934 00dc 10D0     		beq	.L64
 845:/home/rdu/Workspace/project_templates/mcu/stm32_ws/src/libraries/FreeRTOS/Source/queue.c **** 					{
 846:/home/rdu/Workspace/project_templates/mcu/stm32_ws/src/libraries/FreeRTOS/Source/queue.c **** 						if( xTaskRemoveFromEventList( &( pxQueue->xTasksWaitingToReceive ) ) != pdFALSE )
 935              		.loc 1 846 0
 936 00de 0C9B     		ldr	r3, [sp, #48]
 937 00e0 2433     		adds	r3, r3, #36
 938 00e2 1846     		mov	r0, r3
 939 00e4 FFF7FEFF 		bl	xTaskRemoveFromEventList
 940 00e8 0346     		mov	r3, r0
 941 00ea 002B     		cmp	r3, #0
 942 00ec 13D0     		beq	.L65
 847:/home/rdu/Workspace/project_templates/mcu/stm32_ws/src/libraries/FreeRTOS/Source/queue.c **** 						{
 848:/home/rdu/Workspace/project_templates/mcu/stm32_ws/src/libraries/FreeRTOS/Source/queue.c **** 							/* The unblocked task has a priority higher than
 849:/home/rdu/Workspace/project_templates/mcu/stm32_ws/src/libraries/FreeRTOS/Source/queue.c **** 							our own so yield immediately.  Yes it is ok to do
 850:/home/rdu/Workspace/project_templates/mcu/stm32_ws/src/libraries/FreeRTOS/Source/queue.c **** 							this from within the critical section - the kernel
 851:/home/rdu/Workspace/project_templates/mcu/stm32_ws/src/libraries/FreeRTOS/Source/queue.c **** 							takes care of that. */
 852:/home/rdu/Workspace/project_templates/mcu/stm32_ws/src/libraries/FreeRTOS/Source/queue.c **** 							queueYIELD_IF_USING_PREEMPTION();
 943              		.loc 1 852 0
 944 00ee 3F4B     		ldr	r3, .L77
 945 00f0 4FF08052 		mov	r2, #268435456
 946 00f4 1A60     		str	r2, [r3]
 947              		.syntax unified
 948              	@ 852 "/home/rdu/Workspace/project_templates/mcu/stm32_ws/src/libraries/FreeRTOS/Source/queue.c" 1
 949 00f6 BFF34F8F 		dsb
 950              	@ 0 "" 2
 951              	@ 852 "/home/rdu/Workspace/project_templates/mcu/stm32_ws/src/libraries/FreeRTOS/Source/queue.c" 1
 952 00fa BFF36F8F 		isb
 953              	@ 0 "" 2
 954              		.thumb
 955              		.syntax unified
 956 00fe 0AE0     		b	.L65
 957              	.L64:
 853:/home/rdu/Workspace/project_templates/mcu/stm32_ws/src/libraries/FreeRTOS/Source/queue.c **** 						}
 854:/home/rdu/Workspace/project_templates/mcu/stm32_ws/src/libraries/FreeRTOS/Source/queue.c **** 						else
 855:/home/rdu/Workspace/project_templates/mcu/stm32_ws/src/libraries/FreeRTOS/Source/queue.c **** 						{
 856:/home/rdu/Workspace/project_templates/mcu/stm32_ws/src/libraries/FreeRTOS/Source/queue.c **** 							mtCOVERAGE_TEST_MARKER();
 857:/home/rdu/Workspace/project_templates/mcu/stm32_ws/src/libraries/FreeRTOS/Source/queue.c **** 						}
 858:/home/rdu/Workspace/project_templates/mcu/stm32_ws/src/libraries/FreeRTOS/Source/queue.c **** 					}
 859:/home/rdu/Workspace/project_templates/mcu/stm32_ws/src/libraries/FreeRTOS/Source/queue.c **** 					else if( xYieldRequired != pdFALSE )
 958              		.loc 1 859 0
 959 0100 0B9B     		ldr	r3, [sp, #44]
 960 0102 002B     		cmp	r3, #0
 961 0104 07D0     		beq	.L65
 860:/home/rdu/Workspace/project_templates/mcu/stm32_ws/src/libraries/FreeRTOS/Source/queue.c **** 					{
 861:/home/rdu/Workspace/project_templates/mcu/stm32_ws/src/libraries/FreeRTOS/Source/queue.c **** 						/* This path is a special case that will only get
 862:/home/rdu/Workspace/project_templates/mcu/stm32_ws/src/libraries/FreeRTOS/Source/queue.c **** 						executed if the task was holding multiple mutexes and
 863:/home/rdu/Workspace/project_templates/mcu/stm32_ws/src/libraries/FreeRTOS/Source/queue.c **** 						the mutexes were given back in an order that is
 864:/home/rdu/Workspace/project_templates/mcu/stm32_ws/src/libraries/FreeRTOS/Source/queue.c **** 						different to that in which they were taken. */
 865:/home/rdu/Workspace/project_templates/mcu/stm32_ws/src/libraries/FreeRTOS/Source/queue.c **** 						queueYIELD_IF_USING_PREEMPTION();
 962              		.loc 1 865 0
 963 0106 394B     		ldr	r3, .L77
 964 0108 4FF08052 		mov	r2, #268435456
 965 010c 1A60     		str	r2, [r3]
 966              		.syntax unified
 967              	@ 865 "/home/rdu/Workspace/project_templates/mcu/stm32_ws/src/libraries/FreeRTOS/Source/queue.c" 1
 968 010e BFF34F8F 		dsb
 969              	@ 0 "" 2
 970              	@ 865 "/home/rdu/Workspace/project_templates/mcu/stm32_ws/src/libraries/FreeRTOS/Source/queue.c" 1
 971 0112 BFF36F8F 		isb
 972              	@ 0 "" 2
 973              		.thumb
 974              		.syntax unified
 975              	.L65:
 866:/home/rdu/Workspace/project_templates/mcu/stm32_ws/src/libraries/FreeRTOS/Source/queue.c **** 					}
 867:/home/rdu/Workspace/project_templates/mcu/stm32_ws/src/libraries/FreeRTOS/Source/queue.c **** 					else
 868:/home/rdu/Workspace/project_templates/mcu/stm32_ws/src/libraries/FreeRTOS/Source/queue.c **** 					{
 869:/home/rdu/Workspace/project_templates/mcu/stm32_ws/src/libraries/FreeRTOS/Source/queue.c **** 						mtCOVERAGE_TEST_MARKER();
 870:/home/rdu/Workspace/project_templates/mcu/stm32_ws/src/libraries/FreeRTOS/Source/queue.c **** 					}
 871:/home/rdu/Workspace/project_templates/mcu/stm32_ws/src/libraries/FreeRTOS/Source/queue.c **** 				}
 872:/home/rdu/Workspace/project_templates/mcu/stm32_ws/src/libraries/FreeRTOS/Source/queue.c **** 				#endif /* configUSE_QUEUE_SETS */
 873:/home/rdu/Workspace/project_templates/mcu/stm32_ws/src/libraries/FreeRTOS/Source/queue.c **** 
 874:/home/rdu/Workspace/project_templates/mcu/stm32_ws/src/libraries/FreeRTOS/Source/queue.c **** 				taskEXIT_CRITICAL();
 976              		.loc 1 874 0
 977 0116 FFF7FEFF 		bl	vPortExitCritical
 875:/home/rdu/Workspace/project_templates/mcu/stm32_ws/src/libraries/FreeRTOS/Source/queue.c **** 				return pdPASS;
 978              		.loc 1 875 0
 979 011a 0123     		movs	r3, #1
 980 011c 61E0     		b	.L76
 981              	.L63:
 876:/home/rdu/Workspace/project_templates/mcu/stm32_ws/src/libraries/FreeRTOS/Source/queue.c **** 			}
 877:/home/rdu/Workspace/project_templates/mcu/stm32_ws/src/libraries/FreeRTOS/Source/queue.c **** 			else
 878:/home/rdu/Workspace/project_templates/mcu/stm32_ws/src/libraries/FreeRTOS/Source/queue.c **** 			{
 879:/home/rdu/Workspace/project_templates/mcu/stm32_ws/src/libraries/FreeRTOS/Source/queue.c **** 				if( xTicksToWait == ( TickType_t ) 0 )
 982              		.loc 1 879 0
 983 011e 019B     		ldr	r3, [sp, #4]
 984 0120 002B     		cmp	r3, #0
 985 0122 03D1     		bne	.L67
 880:/home/rdu/Workspace/project_templates/mcu/stm32_ws/src/libraries/FreeRTOS/Source/queue.c **** 				{
 881:/home/rdu/Workspace/project_templates/mcu/stm32_ws/src/libraries/FreeRTOS/Source/queue.c **** 					/* The queue was full and no block time is specified (or
 882:/home/rdu/Workspace/project_templates/mcu/stm32_ws/src/libraries/FreeRTOS/Source/queue.c **** 					the block time has expired) so leave now. */
 883:/home/rdu/Workspace/project_templates/mcu/stm32_ws/src/libraries/FreeRTOS/Source/queue.c **** 					taskEXIT_CRITICAL();
 986              		.loc 1 883 0
 987 0124 FFF7FEFF 		bl	vPortExitCritical
 884:/home/rdu/Workspace/project_templates/mcu/stm32_ws/src/libraries/FreeRTOS/Source/queue.c **** 
 885:/home/rdu/Workspace/project_templates/mcu/stm32_ws/src/libraries/FreeRTOS/Source/queue.c **** 					/* Return to the original privilege level before exiting
 886:/home/rdu/Workspace/project_templates/mcu/stm32_ws/src/libraries/FreeRTOS/Source/queue.c **** 					the function. */
 887:/home/rdu/Workspace/project_templates/mcu/stm32_ws/src/libraries/FreeRTOS/Source/queue.c **** 					traceQUEUE_SEND_FAILED( pxQueue );
 888:/home/rdu/Workspace/project_templates/mcu/stm32_ws/src/libraries/FreeRTOS/Source/queue.c **** 					return errQUEUE_FULL;
 988              		.loc 1 888 0
 989 0128 0023     		movs	r3, #0
 990 012a 5AE0     		b	.L76
 991              	.L67:
 889:/home/rdu/Workspace/project_templates/mcu/stm32_ws/src/libraries/FreeRTOS/Source/queue.c **** 				}
 890:/home/rdu/Workspace/project_templates/mcu/stm32_ws/src/libraries/FreeRTOS/Source/queue.c **** 				else if( xEntryTimeSet == pdFALSE )
 992              		.loc 1 890 0
 993 012c 0D9B     		ldr	r3, [sp, #52]
 994 012e 002B     		cmp	r3, #0
 995 0130 05D1     		bne	.L68
 891:/home/rdu/Workspace/project_templates/mcu/stm32_ws/src/libraries/FreeRTOS/Source/queue.c **** 				{
 892:/home/rdu/Workspace/project_templates/mcu/stm32_ws/src/libraries/FreeRTOS/Source/queue.c **** 					/* The queue was full and a block time was specified so
 893:/home/rdu/Workspace/project_templates/mcu/stm32_ws/src/libraries/FreeRTOS/Source/queue.c **** 					configure the timeout structure. */
 894:/home/rdu/Workspace/project_templates/mcu/stm32_ws/src/libraries/FreeRTOS/Source/queue.c **** 					vTaskInternalSetTimeOutState( &xTimeOut );
 996              		.loc 1 894 0
 997 0132 05AB     		add	r3, sp, #20
 998 0134 1846     		mov	r0, r3
 999 0136 FFF7FEFF 		bl	vTaskInternalSetTimeOutState
 895:/home/rdu/Workspace/project_templates/mcu/stm32_ws/src/libraries/FreeRTOS/Source/queue.c **** 					xEntryTimeSet = pdTRUE;
 1000              		.loc 1 895 0
 1001 013a 0123     		movs	r3, #1
 1002 013c 0D93     		str	r3, [sp, #52]
 1003              	.L68:
 896:/home/rdu/Workspace/project_templates/mcu/stm32_ws/src/libraries/FreeRTOS/Source/queue.c **** 				}
 897:/home/rdu/Workspace/project_templates/mcu/stm32_ws/src/libraries/FreeRTOS/Source/queue.c **** 				else
 898:/home/rdu/Workspace/project_templates/mcu/stm32_ws/src/libraries/FreeRTOS/Source/queue.c **** 				{
 899:/home/rdu/Workspace/project_templates/mcu/stm32_ws/src/libraries/FreeRTOS/Source/queue.c **** 					/* Entry time was already set. */
 900:/home/rdu/Workspace/project_templates/mcu/stm32_ws/src/libraries/FreeRTOS/Source/queue.c **** 					mtCOVERAGE_TEST_MARKER();
 901:/home/rdu/Workspace/project_templates/mcu/stm32_ws/src/libraries/FreeRTOS/Source/queue.c **** 				}
 902:/home/rdu/Workspace/project_templates/mcu/stm32_ws/src/libraries/FreeRTOS/Source/queue.c **** 			}
 903:/home/rdu/Workspace/project_templates/mcu/stm32_ws/src/libraries/FreeRTOS/Source/queue.c **** 		}
 904:/home/rdu/Workspace/project_templates/mcu/stm32_ws/src/libraries/FreeRTOS/Source/queue.c **** 		taskEXIT_CRITICAL();
 1004              		.loc 1 904 0
 1005 013e FFF7FEFF 		bl	vPortExitCritical
 905:/home/rdu/Workspace/project_templates/mcu/stm32_ws/src/libraries/FreeRTOS/Source/queue.c **** 
 906:/home/rdu/Workspace/project_templates/mcu/stm32_ws/src/libraries/FreeRTOS/Source/queue.c **** 		/* Interrupts and other tasks can send to and receive from the queue
 907:/home/rdu/Workspace/project_templates/mcu/stm32_ws/src/libraries/FreeRTOS/Source/queue.c **** 		now the critical section has been exited. */
 908:/home/rdu/Workspace/project_templates/mcu/stm32_ws/src/libraries/FreeRTOS/Source/queue.c **** 
 909:/home/rdu/Workspace/project_templates/mcu/stm32_ws/src/libraries/FreeRTOS/Source/queue.c **** 		vTaskSuspendAll();
 1006              		.loc 1 909 0
 1007 0142 FFF7FEFF 		bl	vTaskSuspendAll
 910:/home/rdu/Workspace/project_templates/mcu/stm32_ws/src/libraries/FreeRTOS/Source/queue.c **** 		prvLockQueue( pxQueue );
 1008              		.loc 1 910 0
 1009 0146 FFF7FEFF 		bl	vPortEnterCritical
 1010 014a 0C9B     		ldr	r3, [sp, #48]
 1011 014c 93F84430 		ldrb	r3, [r3, #68]
 1012 0150 5BB2     		sxtb	r3, r3
 1013 0152 B3F1FF3F 		cmp	r3, #-1
 1014 0156 03D1     		bne	.L69
 1015              		.loc 1 910 0 is_stmt 0 discriminator 1
 1016 0158 0C9B     		ldr	r3, [sp, #48]
 1017 015a 0022     		movs	r2, #0
 1018 015c 83F84420 		strb	r2, [r3, #68]
 1019              	.L69:
 1020              		.loc 1 910 0 discriminator 3
 1021 0160 0C9B     		ldr	r3, [sp, #48]
 1022 0162 93F84530 		ldrb	r3, [r3, #69]
 1023 0166 5BB2     		sxtb	r3, r3
 1024 0168 B3F1FF3F 		cmp	r3, #-1
 1025 016c 03D1     		bne	.L70
 1026              		.loc 1 910 0 discriminator 4
 1027 016e 0C9B     		ldr	r3, [sp, #48]
 1028 0170 0022     		movs	r2, #0
 1029 0172 83F84520 		strb	r2, [r3, #69]
 1030              	.L70:
 1031              		.loc 1 910 0 discriminator 6
 1032 0176 FFF7FEFF 		bl	vPortExitCritical
 911:/home/rdu/Workspace/project_templates/mcu/stm32_ws/src/libraries/FreeRTOS/Source/queue.c **** 
 912:/home/rdu/Workspace/project_templates/mcu/stm32_ws/src/libraries/FreeRTOS/Source/queue.c **** 		/* Update the timeout state to see if it has expired yet. */
 913:/home/rdu/Workspace/project_templates/mcu/stm32_ws/src/libraries/FreeRTOS/Source/queue.c **** 		if( xTaskCheckForTimeOut( &xTimeOut, &xTicksToWait ) == pdFALSE )
 1033              		.loc 1 913 0 is_stmt 1 discriminator 6
 1034 017a 01AA     		add	r2, sp, #4
 1035 017c 05AB     		add	r3, sp, #20
 1036 017e 1146     		mov	r1, r2
 1037 0180 1846     		mov	r0, r3
 1038 0182 FFF7FEFF 		bl	xTaskCheckForTimeOut
 1039 0186 0346     		mov	r3, r0
 1040 0188 002B     		cmp	r3, #0
 1041 018a 24D1     		bne	.L71
 914:/home/rdu/Workspace/project_templates/mcu/stm32_ws/src/libraries/FreeRTOS/Source/queue.c **** 		{
 915:/home/rdu/Workspace/project_templates/mcu/stm32_ws/src/libraries/FreeRTOS/Source/queue.c **** 			if( prvIsQueueFull( pxQueue ) != pdFALSE )
 1042              		.loc 1 915 0
 1043 018c 0C98     		ldr	r0, [sp, #48]
 1044 018e FFF7FEFF 		bl	prvIsQueueFull
 1045 0192 0346     		mov	r3, r0
 1046 0194 002B     		cmp	r3, #0
 1047 0196 18D0     		beq	.L72
 916:/home/rdu/Workspace/project_templates/mcu/stm32_ws/src/libraries/FreeRTOS/Source/queue.c **** 			{
 917:/home/rdu/Workspace/project_templates/mcu/stm32_ws/src/libraries/FreeRTOS/Source/queue.c **** 				traceBLOCKING_ON_QUEUE_SEND( pxQueue );
 918:/home/rdu/Workspace/project_templates/mcu/stm32_ws/src/libraries/FreeRTOS/Source/queue.c **** 				vTaskPlaceOnEventList( &( pxQueue->xTasksWaitingToSend ), xTicksToWait );
 1048              		.loc 1 918 0
 1049 0198 0C9B     		ldr	r3, [sp, #48]
 1050 019a 1033     		adds	r3, r3, #16
 1051 019c 019A     		ldr	r2, [sp, #4]
 1052 019e 1146     		mov	r1, r2
 1053 01a0 1846     		mov	r0, r3
 1054 01a2 FFF7FEFF 		bl	vTaskPlaceOnEventList
 919:/home/rdu/Workspace/project_templates/mcu/stm32_ws/src/libraries/FreeRTOS/Source/queue.c **** 
 920:/home/rdu/Workspace/project_templates/mcu/stm32_ws/src/libraries/FreeRTOS/Source/queue.c **** 				/* Unlocking the queue means queue events can effect the
 921:/home/rdu/Workspace/project_templates/mcu/stm32_ws/src/libraries/FreeRTOS/Source/queue.c **** 				event list.  It is possible that interrupts occurring now
 922:/home/rdu/Workspace/project_templates/mcu/stm32_ws/src/libraries/FreeRTOS/Source/queue.c **** 				remove this task from the event list again - but as the
 923:/home/rdu/Workspace/project_templates/mcu/stm32_ws/src/libraries/FreeRTOS/Source/queue.c **** 				scheduler is suspended the task will go onto the pending
 924:/home/rdu/Workspace/project_templates/mcu/stm32_ws/src/libraries/FreeRTOS/Source/queue.c **** 				ready last instead of the actual ready list. */
 925:/home/rdu/Workspace/project_templates/mcu/stm32_ws/src/libraries/FreeRTOS/Source/queue.c **** 				prvUnlockQueue( pxQueue );
 1055              		.loc 1 925 0
 1056 01a6 0C98     		ldr	r0, [sp, #48]
 1057 01a8 FFF7FEFF 		bl	prvUnlockQueue
 926:/home/rdu/Workspace/project_templates/mcu/stm32_ws/src/libraries/FreeRTOS/Source/queue.c **** 
 927:/home/rdu/Workspace/project_templates/mcu/stm32_ws/src/libraries/FreeRTOS/Source/queue.c **** 				/* Resuming the scheduler will move tasks from the pending
 928:/home/rdu/Workspace/project_templates/mcu/stm32_ws/src/libraries/FreeRTOS/Source/queue.c **** 				ready list into the ready list - so it is feasible that this
 929:/home/rdu/Workspace/project_templates/mcu/stm32_ws/src/libraries/FreeRTOS/Source/queue.c **** 				task is already in a ready list before it yields - in which
 930:/home/rdu/Workspace/project_templates/mcu/stm32_ws/src/libraries/FreeRTOS/Source/queue.c **** 				case the yield will not cause a context switch unless there
 931:/home/rdu/Workspace/project_templates/mcu/stm32_ws/src/libraries/FreeRTOS/Source/queue.c **** 				is also a higher priority task in the pending ready list. */
 932:/home/rdu/Workspace/project_templates/mcu/stm32_ws/src/libraries/FreeRTOS/Source/queue.c **** 				if( xTaskResumeAll() == pdFALSE )
 1058              		.loc 1 932 0
 1059 01ac FFF7FEFF 		bl	xTaskResumeAll
 1060 01b0 0346     		mov	r3, r0
 1061 01b2 002B     		cmp	r3, #0
 1062 01b4 7FF47EAF 		bne	.L60
 933:/home/rdu/Workspace/project_templates/mcu/stm32_ws/src/libraries/FreeRTOS/Source/queue.c **** 				{
 934:/home/rdu/Workspace/project_templates/mcu/stm32_ws/src/libraries/FreeRTOS/Source/queue.c **** 					portYIELD_WITHIN_API();
 1063              		.loc 1 934 0
 1064 01b8 0C4B     		ldr	r3, .L77
 1065 01ba 4FF08052 		mov	r2, #268435456
 1066 01be 1A60     		str	r2, [r3]
 1067              		.syntax unified
 1068              	@ 934 "/home/rdu/Workspace/project_templates/mcu/stm32_ws/src/libraries/FreeRTOS/Source/queue.c" 1
 1069 01c0 BFF34F8F 		dsb
 1070              	@ 0 "" 2
 1071              	@ 934 "/home/rdu/Workspace/project_templates/mcu/stm32_ws/src/libraries/FreeRTOS/Source/queue.c" 1
 1072 01c4 BFF36F8F 		isb
 1073              	@ 0 "" 2
 1074              		.thumb
 1075              		.syntax unified
 1076 01c8 74E7     		b	.L60
 1077              	.L72:
 935:/home/rdu/Workspace/project_templates/mcu/stm32_ws/src/libraries/FreeRTOS/Source/queue.c **** 				}
 936:/home/rdu/Workspace/project_templates/mcu/stm32_ws/src/libraries/FreeRTOS/Source/queue.c **** 			}
 937:/home/rdu/Workspace/project_templates/mcu/stm32_ws/src/libraries/FreeRTOS/Source/queue.c **** 			else
 938:/home/rdu/Workspace/project_templates/mcu/stm32_ws/src/libraries/FreeRTOS/Source/queue.c **** 			{
 939:/home/rdu/Workspace/project_templates/mcu/stm32_ws/src/libraries/FreeRTOS/Source/queue.c **** 				/* Try again. */
 940:/home/rdu/Workspace/project_templates/mcu/stm32_ws/src/libraries/FreeRTOS/Source/queue.c **** 				prvUnlockQueue( pxQueue );
 1078              		.loc 1 940 0
 1079 01ca 0C98     		ldr	r0, [sp, #48]
 1080 01cc FFF7FEFF 		bl	prvUnlockQueue
 941:/home/rdu/Workspace/project_templates/mcu/stm32_ws/src/libraries/FreeRTOS/Source/queue.c **** 				( void ) xTaskResumeAll();
 1081              		.loc 1 941 0
 1082 01d0 FFF7FEFF 		bl	xTaskResumeAll
 1083 01d4 6EE7     		b	.L60
 1084              	.L71:
 942:/home/rdu/Workspace/project_templates/mcu/stm32_ws/src/libraries/FreeRTOS/Source/queue.c **** 			}
 943:/home/rdu/Workspace/project_templates/mcu/stm32_ws/src/libraries/FreeRTOS/Source/queue.c **** 		}
 944:/home/rdu/Workspace/project_templates/mcu/stm32_ws/src/libraries/FreeRTOS/Source/queue.c **** 		else
 945:/home/rdu/Workspace/project_templates/mcu/stm32_ws/src/libraries/FreeRTOS/Source/queue.c **** 		{
 946:/home/rdu/Workspace/project_templates/mcu/stm32_ws/src/libraries/FreeRTOS/Source/queue.c **** 			/* The timeout has expired. */
 947:/home/rdu/Workspace/project_templates/mcu/stm32_ws/src/libraries/FreeRTOS/Source/queue.c **** 			prvUnlockQueue( pxQueue );
 1085              		.loc 1 947 0
 1086 01d6 0C98     		ldr	r0, [sp, #48]
 1087 01d8 FFF7FEFF 		bl	prvUnlockQueue
 948:/home/rdu/Workspace/project_templates/mcu/stm32_ws/src/libraries/FreeRTOS/Source/queue.c **** 			( void ) xTaskResumeAll();
 1088              		.loc 1 948 0
 1089 01dc FFF7FEFF 		bl	xTaskResumeAll
 949:/home/rdu/Workspace/project_templates/mcu/stm32_ws/src/libraries/FreeRTOS/Source/queue.c **** 
 950:/home/rdu/Workspace/project_templates/mcu/stm32_ws/src/libraries/FreeRTOS/Source/queue.c **** 			traceQUEUE_SEND_FAILED( pxQueue );
 951:/home/rdu/Workspace/project_templates/mcu/stm32_ws/src/libraries/FreeRTOS/Source/queue.c **** 			return errQUEUE_FULL;
 1090              		.loc 1 951 0
 1091 01e0 0023     		movs	r3, #0
 1092              	.L76:
 952:/home/rdu/Workspace/project_templates/mcu/stm32_ws/src/libraries/FreeRTOS/Source/queue.c **** 		}
 953:/home/rdu/Workspace/project_templates/mcu/stm32_ws/src/libraries/FreeRTOS/Source/queue.c **** 	} /*lint -restore */
 954:/home/rdu/Workspace/project_templates/mcu/stm32_ws/src/libraries/FreeRTOS/Source/queue.c **** }
 1093              		.loc 1 954 0 discriminator 7
 1094 01e2 1846     		mov	r0, r3
 1095 01e4 0FB0     		add	sp, sp, #60
 1096              	.LCFI26:
 1097              		.cfi_def_cfa_offset 4
 1098              		@ sp needed
 1099 01e6 5DF804FB 		ldr	pc, [sp], #4
 1100              	.L78:
 1101 01ea 00BF     		.align	2
 1102              	.L77:
 1103 01ec 04ED00E0 		.word	-536810236
 1104              		.cfi_endproc
 1105              	.LFE13:
 1107              		.section	.text.xQueueGenericSendFromISR,"ax",%progbits
 1108              		.align	1
 1109              		.global	xQueueGenericSendFromISR
 1110              		.syntax unified
 1111              		.thumb
 1112              		.thumb_func
 1113              		.fpu fpv4-sp-d16
 1115              	xQueueGenericSendFromISR:
 1116              	.LFB14:
 955:/home/rdu/Workspace/project_templates/mcu/stm32_ws/src/libraries/FreeRTOS/Source/queue.c **** /*-----------------------------------------------------------*/
 956:/home/rdu/Workspace/project_templates/mcu/stm32_ws/src/libraries/FreeRTOS/Source/queue.c **** 
 957:/home/rdu/Workspace/project_templates/mcu/stm32_ws/src/libraries/FreeRTOS/Source/queue.c **** BaseType_t xQueueGenericSendFromISR( QueueHandle_t xQueue, const void * const pvItemToQueue, BaseTy
 958:/home/rdu/Workspace/project_templates/mcu/stm32_ws/src/libraries/FreeRTOS/Source/queue.c **** {
 1117              		.loc 1 958 0
 1118              		.cfi_startproc
 1119              		@ args = 0, pretend = 0, frame = 56
 1120              		@ frame_needed = 0, uses_anonymous_args = 0
 1121 0000 00B5     		push	{lr}
 1122              	.LCFI27:
 1123              		.cfi_def_cfa_offset 4
 1124              		.cfi_offset 14, -4
 1125 0002 8FB0     		sub	sp, sp, #60
 1126              	.LCFI28:
 1127              		.cfi_def_cfa_offset 64
 1128 0004 0390     		str	r0, [sp, #12]
 1129 0006 0291     		str	r1, [sp, #8]
 1130 0008 0192     		str	r2, [sp, #4]
 1131 000a 0093     		str	r3, [sp]
 959:/home/rdu/Workspace/project_templates/mcu/stm32_ws/src/libraries/FreeRTOS/Source/queue.c **** BaseType_t xReturn;
 960:/home/rdu/Workspace/project_templates/mcu/stm32_ws/src/libraries/FreeRTOS/Source/queue.c **** UBaseType_t uxSavedInterruptStatus;
 961:/home/rdu/Workspace/project_templates/mcu/stm32_ws/src/libraries/FreeRTOS/Source/queue.c **** Queue_t * const pxQueue = xQueue;
 1132              		.loc 1 961 0
 1133 000c 039B     		ldr	r3, [sp, #12]
 1134 000e 0C93     		str	r3, [sp, #48]
 962:/home/rdu/Workspace/project_templates/mcu/stm32_ws/src/libraries/FreeRTOS/Source/queue.c **** 
 963:/home/rdu/Workspace/project_templates/mcu/stm32_ws/src/libraries/FreeRTOS/Source/queue.c **** 	configASSERT( pxQueue );
 1135              		.loc 1 963 0
 1136 0010 0C9B     		ldr	r3, [sp, #48]
 1137 0012 002B     		cmp	r3, #0
 1138 0014 09D1     		bne	.L80
 1139              	.LBB121:
 1140              	.LBB122:
 1141              		.loc 2 195 0 discriminator 1
 1142              		.syntax unified
 1143              	@ 195 "/home/rdu/Workspace/project_templates/mcu/stm32_ws/src/libraries/FreeRTOS/Source/portable/GC
 1144 0016 4FF05003 			mov r3, #80												
 1145 001a 83F31188 		msr basepri, r3											
 1146 001e BFF36F8F 		isb														
 1147 0022 BFF34F8F 		dsb														
 1148              	
 1149              	@ 0 "" 2
 1150              		.thumb
 1151              		.syntax unified
 1152 0026 0993     		str	r3, [sp, #36]
 1153              	.L81:
 1154              	.LBE122:
 1155              	.LBE121:
 1156              		.loc 1 963 0 discriminator 1
 1157 0028 FEE7     		b	.L81
 1158              	.L80:
 964:/home/rdu/Workspace/project_templates/mcu/stm32_ws/src/libraries/FreeRTOS/Source/queue.c **** 	configASSERT( !( ( pvItemToQueue == NULL ) && ( pxQueue->uxItemSize != ( UBaseType_t ) 0U ) ) );
 1159              		.loc 1 964 0
 1160 002a 029B     		ldr	r3, [sp, #8]
 1161 002c 002B     		cmp	r3, #0
 1162 002e 03D1     		bne	.L82
 1163              		.loc 1 964 0 is_stmt 0 discriminator 2
 1164 0030 0C9B     		ldr	r3, [sp, #48]
 1165 0032 1B6C     		ldr	r3, [r3, #64]
 1166 0034 002B     		cmp	r3, #0
 1167 0036 01D1     		bne	.L83
 1168              	.L82:
 1169              		.loc 1 964 0 discriminator 3
 1170 0038 0123     		movs	r3, #1
 1171 003a 00E0     		b	.L84
 1172              	.L83:
 1173              		.loc 1 964 0 discriminator 4
 1174 003c 0023     		movs	r3, #0
 1175              	.L84:
 1176              		.loc 1 964 0 discriminator 6
 1177 003e 002B     		cmp	r3, #0
 1178 0040 09D1     		bne	.L85
 1179              	.LBB123:
 1180              	.LBB124:
 1181              		.loc 2 195 0 is_stmt 1 discriminator 7
 1182              		.syntax unified
 1183              	@ 195 "/home/rdu/Workspace/project_templates/mcu/stm32_ws/src/libraries/FreeRTOS/Source/portable/GC
 1184 0042 4FF05003 			mov r3, #80												
 1185 0046 83F31188 		msr basepri, r3											
 1186 004a BFF36F8F 		isb														
 1187 004e BFF34F8F 		dsb														
 1188              	
 1189              	@ 0 "" 2
 1190              		.thumb
 1191              		.syntax unified
 1192 0052 0893     		str	r3, [sp, #32]
 1193              	.L86:
 1194              	.LBE124:
 1195              	.LBE123:
 1196              		.loc 1 964 0 discriminator 2
 1197 0054 FEE7     		b	.L86
 1198              	.L85:
 965:/home/rdu/Workspace/project_templates/mcu/stm32_ws/src/libraries/FreeRTOS/Source/queue.c **** 	configASSERT( !( ( xCopyPosition == queueOVERWRITE ) && ( pxQueue->uxLength != 1 ) ) );
 1199              		.loc 1 965 0
 1200 0056 009B     		ldr	r3, [sp]
 1201 0058 022B     		cmp	r3, #2
 1202 005a 03D1     		bne	.L87
 1203              		.loc 1 965 0 is_stmt 0 discriminator 2
 1204 005c 0C9B     		ldr	r3, [sp, #48]
 1205 005e DB6B     		ldr	r3, [r3, #60]
 1206 0060 012B     		cmp	r3, #1
 1207 0062 01D1     		bne	.L88
 1208              	.L87:
 1209              		.loc 1 965 0 discriminator 3
 1210 0064 0123     		movs	r3, #1
 1211 0066 00E0     		b	.L89
 1212              	.L88:
 1213              		.loc 1 965 0 discriminator 4
 1214 0068 0023     		movs	r3, #0
 1215              	.L89:
 1216              		.loc 1 965 0 discriminator 6
 1217 006a 002B     		cmp	r3, #0
 1218 006c 09D1     		bne	.L90
 1219              	.LBB125:
 1220              	.LBB126:
 1221              		.loc 2 195 0 is_stmt 1 discriminator 7
 1222              		.syntax unified
 1223              	@ 195 "/home/rdu/Workspace/project_templates/mcu/stm32_ws/src/libraries/FreeRTOS/Source/portable/GC
 1224 006e 4FF05003 			mov r3, #80												
 1225 0072 83F31188 		msr basepri, r3											
 1226 0076 BFF36F8F 		isb														
 1227 007a BFF34F8F 		dsb														
 1228              	
 1229              	@ 0 "" 2
 1230              		.thumb
 1231              		.syntax unified
 1232 007e 0793     		str	r3, [sp, #28]
 1233              	.L91:
 1234              	.LBE126:
 1235              	.LBE125:
 1236              		.loc 1 965 0 discriminator 3
 1237 0080 FEE7     		b	.L91
 1238              	.L90:
 966:/home/rdu/Workspace/project_templates/mcu/stm32_ws/src/libraries/FreeRTOS/Source/queue.c **** 
 967:/home/rdu/Workspace/project_templates/mcu/stm32_ws/src/libraries/FreeRTOS/Source/queue.c **** 	/* RTOS ports that support interrupt nesting have the concept of a maximum
 968:/home/rdu/Workspace/project_templates/mcu/stm32_ws/src/libraries/FreeRTOS/Source/queue.c **** 	system call (or maximum API call) interrupt priority.  Interrupts that are
 969:/home/rdu/Workspace/project_templates/mcu/stm32_ws/src/libraries/FreeRTOS/Source/queue.c **** 	above the maximum system call priority are kept permanently enabled, even
 970:/home/rdu/Workspace/project_templates/mcu/stm32_ws/src/libraries/FreeRTOS/Source/queue.c **** 	when the RTOS kernel is in a critical section, but cannot make any calls to
 971:/home/rdu/Workspace/project_templates/mcu/stm32_ws/src/libraries/FreeRTOS/Source/queue.c **** 	FreeRTOS API functions.  If configASSERT() is defined in FreeRTOSConfig.h
 972:/home/rdu/Workspace/project_templates/mcu/stm32_ws/src/libraries/FreeRTOS/Source/queue.c **** 	then portASSERT_IF_INTERRUPT_PRIORITY_INVALID() will result in an assertion
 973:/home/rdu/Workspace/project_templates/mcu/stm32_ws/src/libraries/FreeRTOS/Source/queue.c **** 	failure if a FreeRTOS API function is called from an interrupt that has been
 974:/home/rdu/Workspace/project_templates/mcu/stm32_ws/src/libraries/FreeRTOS/Source/queue.c **** 	assigned a priority above the configured maximum system call priority.
 975:/home/rdu/Workspace/project_templates/mcu/stm32_ws/src/libraries/FreeRTOS/Source/queue.c **** 	Only FreeRTOS functions that end in FromISR can be called from interrupts
 976:/home/rdu/Workspace/project_templates/mcu/stm32_ws/src/libraries/FreeRTOS/Source/queue.c **** 	that have been assigned a priority at or (logically) below the maximum
 977:/home/rdu/Workspace/project_templates/mcu/stm32_ws/src/libraries/FreeRTOS/Source/queue.c **** 	system call	interrupt priority.  FreeRTOS maintains a separate interrupt
 978:/home/rdu/Workspace/project_templates/mcu/stm32_ws/src/libraries/FreeRTOS/Source/queue.c **** 	safe API to ensure interrupt entry is as fast and as simple as possible.
 979:/home/rdu/Workspace/project_templates/mcu/stm32_ws/src/libraries/FreeRTOS/Source/queue.c **** 	More information (albeit Cortex-M specific) is provided on the following
 980:/home/rdu/Workspace/project_templates/mcu/stm32_ws/src/libraries/FreeRTOS/Source/queue.c **** 	link: http://www.freertos.org/RTOS-Cortex-M3-M4.html */
 981:/home/rdu/Workspace/project_templates/mcu/stm32_ws/src/libraries/FreeRTOS/Source/queue.c **** 	portASSERT_IF_INTERRUPT_PRIORITY_INVALID();
 1239              		.loc 1 981 0
 1240 0082 FFF7FEFF 		bl	vPortValidateInterruptPriority
 1241              	.LBB127:
 1242              	.LBB128:
 196:/home/rdu/Workspace/project_templates/mcu/stm32_ws/src/libraries/FreeRTOS/Source/portable/GCC/ARM_CM4F/portmacro.h **** 	(
 197:/home/rdu/Workspace/project_templates/mcu/stm32_ws/src/libraries/FreeRTOS/Source/portable/GCC/ARM_CM4F/portmacro.h **** 		"	mov %0, %1												\n"	\
 198:/home/rdu/Workspace/project_templates/mcu/stm32_ws/src/libraries/FreeRTOS/Source/portable/GCC/ARM_CM4F/portmacro.h **** 		"	msr basepri, %0											\n" \
 199:/home/rdu/Workspace/project_templates/mcu/stm32_ws/src/libraries/FreeRTOS/Source/portable/GCC/ARM_CM4F/portmacro.h **** 		"	isb														\n" \
 200:/home/rdu/Workspace/project_templates/mcu/stm32_ws/src/libraries/FreeRTOS/Source/portable/GCC/ARM_CM4F/portmacro.h **** 		"	dsb														\n" \
 201:/home/rdu/Workspace/project_templates/mcu/stm32_ws/src/libraries/FreeRTOS/Source/portable/GCC/ARM_CM4F/portmacro.h **** 		:"=r" (ulNewBASEPRI) : "i" ( configMAX_SYSCALL_INTERRUPT_PRIORITY ) : "memory"
 202:/home/rdu/Workspace/project_templates/mcu/stm32_ws/src/libraries/FreeRTOS/Source/portable/GCC/ARM_CM4F/portmacro.h **** 	);
 203:/home/rdu/Workspace/project_templates/mcu/stm32_ws/src/libraries/FreeRTOS/Source/portable/GCC/ARM_CM4F/portmacro.h **** }
 204:/home/rdu/Workspace/project_templates/mcu/stm32_ws/src/libraries/FreeRTOS/Source/portable/GCC/ARM_CM4F/portmacro.h **** 
 205:/home/rdu/Workspace/project_templates/mcu/stm32_ws/src/libraries/FreeRTOS/Source/portable/GCC/ARM_CM4F/portmacro.h **** /*-----------------------------------------------------------*/
 206:/home/rdu/Workspace/project_templates/mcu/stm32_ws/src/libraries/FreeRTOS/Source/portable/GCC/ARM_CM4F/portmacro.h **** 
 207:/home/rdu/Workspace/project_templates/mcu/stm32_ws/src/libraries/FreeRTOS/Source/portable/GCC/ARM_CM4F/portmacro.h **** portFORCE_INLINE static uint32_t ulPortRaiseBASEPRI( void )
 208:/home/rdu/Workspace/project_templates/mcu/stm32_ws/src/libraries/FreeRTOS/Source/portable/GCC/ARM_CM4F/portmacro.h **** {
 209:/home/rdu/Workspace/project_templates/mcu/stm32_ws/src/libraries/FreeRTOS/Source/portable/GCC/ARM_CM4F/portmacro.h **** uint32_t ulOriginalBASEPRI, ulNewBASEPRI;
 210:/home/rdu/Workspace/project_templates/mcu/stm32_ws/src/libraries/FreeRTOS/Source/portable/GCC/ARM_CM4F/portmacro.h **** 
 211:/home/rdu/Workspace/project_templates/mcu/stm32_ws/src/libraries/FreeRTOS/Source/portable/GCC/ARM_CM4F/portmacro.h **** 	__asm volatile
 1243              		.loc 2 211 0
 1244              		.syntax unified
 1245              	@ 211 "/home/rdu/Workspace/project_templates/mcu/stm32_ws/src/libraries/FreeRTOS/Source/portable/GC
 1246 0086 EFF31182 			mrs r2, basepri											
 1247 008a 4FF05003 		mov r3, #80												
 1248 008e 83F31188 		msr basepri, r3											
 1249 0092 BFF36F8F 		isb														
 1250 0096 BFF34F8F 		dsb														
 1251              	
 1252              	@ 0 "" 2
 1253              		.thumb
 1254              		.syntax unified
 1255 009a 0692     		str	r2, [sp, #24]
 1256 009c 0593     		str	r3, [sp, #20]
 212:/home/rdu/Workspace/project_templates/mcu/stm32_ws/src/libraries/FreeRTOS/Source/portable/GCC/ARM_CM4F/portmacro.h **** 	(
 213:/home/rdu/Workspace/project_templates/mcu/stm32_ws/src/libraries/FreeRTOS/Source/portable/GCC/ARM_CM4F/portmacro.h **** 		"	mrs %0, basepri											\n" \
 214:/home/rdu/Workspace/project_templates/mcu/stm32_ws/src/libraries/FreeRTOS/Source/portable/GCC/ARM_CM4F/portmacro.h **** 		"	mov %1, %2												\n"	\
 215:/home/rdu/Workspace/project_templates/mcu/stm32_ws/src/libraries/FreeRTOS/Source/portable/GCC/ARM_CM4F/portmacro.h **** 		"	msr basepri, %1											\n" \
 216:/home/rdu/Workspace/project_templates/mcu/stm32_ws/src/libraries/FreeRTOS/Source/portable/GCC/ARM_CM4F/portmacro.h **** 		"	isb														\n" \
 217:/home/rdu/Workspace/project_templates/mcu/stm32_ws/src/libraries/FreeRTOS/Source/portable/GCC/ARM_CM4F/portmacro.h **** 		"	dsb														\n" \
 218:/home/rdu/Workspace/project_templates/mcu/stm32_ws/src/libraries/FreeRTOS/Source/portable/GCC/ARM_CM4F/portmacro.h **** 		:"=r" (ulOriginalBASEPRI), "=r" (ulNewBASEPRI) : "i" ( configMAX_SYSCALL_INTERRUPT_PRIORITY ) : "
 219:/home/rdu/Workspace/project_templates/mcu/stm32_ws/src/libraries/FreeRTOS/Source/portable/GCC/ARM_CM4F/portmacro.h **** 	);
 220:/home/rdu/Workspace/project_templates/mcu/stm32_ws/src/libraries/FreeRTOS/Source/portable/GCC/ARM_CM4F/portmacro.h **** 
 221:/home/rdu/Workspace/project_templates/mcu/stm32_ws/src/libraries/FreeRTOS/Source/portable/GCC/ARM_CM4F/portmacro.h **** 	/* This return will not be reached but is necessary to prevent compiler
 222:/home/rdu/Workspace/project_templates/mcu/stm32_ws/src/libraries/FreeRTOS/Source/portable/GCC/ARM_CM4F/portmacro.h **** 	warnings. */
 223:/home/rdu/Workspace/project_templates/mcu/stm32_ws/src/libraries/FreeRTOS/Source/portable/GCC/ARM_CM4F/portmacro.h **** 	return ulOriginalBASEPRI;
 1257              		.loc 2 223 0
 1258 009e 069B     		ldr	r3, [sp, #24]
 1259              	.LBE128:
 1260              	.LBE127:
 982:/home/rdu/Workspace/project_templates/mcu/stm32_ws/src/libraries/FreeRTOS/Source/queue.c **** 
 983:/home/rdu/Workspace/project_templates/mcu/stm32_ws/src/libraries/FreeRTOS/Source/queue.c **** 	/* Similar to xQueueGenericSend, except without blocking if there is no room
 984:/home/rdu/Workspace/project_templates/mcu/stm32_ws/src/libraries/FreeRTOS/Source/queue.c **** 	in the queue.  Also don't directly wake a task that was blocked on a queue
 985:/home/rdu/Workspace/project_templates/mcu/stm32_ws/src/libraries/FreeRTOS/Source/queue.c **** 	read, instead return a flag to say whether a context switch is required or
 986:/home/rdu/Workspace/project_templates/mcu/stm32_ws/src/libraries/FreeRTOS/Source/queue.c **** 	not (i.e. has a task with a higher priority than us been woken by this
 987:/home/rdu/Workspace/project_templates/mcu/stm32_ws/src/libraries/FreeRTOS/Source/queue.c **** 	post). */
 988:/home/rdu/Workspace/project_templates/mcu/stm32_ws/src/libraries/FreeRTOS/Source/queue.c **** 	uxSavedInterruptStatus = portSET_INTERRUPT_MASK_FROM_ISR();
 1261              		.loc 1 988 0
 1262 00a0 0B93     		str	r3, [sp, #44]
 989:/home/rdu/Workspace/project_templates/mcu/stm32_ws/src/libraries/FreeRTOS/Source/queue.c **** 	{
 990:/home/rdu/Workspace/project_templates/mcu/stm32_ws/src/libraries/FreeRTOS/Source/queue.c **** 		if( ( pxQueue->uxMessagesWaiting < pxQueue->uxLength ) || ( xCopyPosition == queueOVERWRITE ) )
 1263              		.loc 1 990 0
 1264 00a2 0C9B     		ldr	r3, [sp, #48]
 1265 00a4 9A6B     		ldr	r2, [r3, #56]
 1266 00a6 0C9B     		ldr	r3, [sp, #48]
 1267 00a8 DB6B     		ldr	r3, [r3, #60]
 1268 00aa 9A42     		cmp	r2, r3
 1269 00ac 02D3     		bcc	.L93
 1270              		.loc 1 990 0 is_stmt 0 discriminator 1
 1271 00ae 009B     		ldr	r3, [sp]
 1272 00b0 022B     		cmp	r3, #2
 1273 00b2 2CD1     		bne	.L94
 1274              	.L93:
 1275              	.LBB129:
 991:/home/rdu/Workspace/project_templates/mcu/stm32_ws/src/libraries/FreeRTOS/Source/queue.c **** 		{
 992:/home/rdu/Workspace/project_templates/mcu/stm32_ws/src/libraries/FreeRTOS/Source/queue.c **** 			const int8_t cTxLock = pxQueue->cTxLock;
 1276              		.loc 1 992 0 is_stmt 1
 1277 00b4 0C9B     		ldr	r3, [sp, #48]
 1278 00b6 93F84530 		ldrb	r3, [r3, #69]
 1279 00ba 8DF82B30 		strb	r3, [sp, #43]
 993:/home/rdu/Workspace/project_templates/mcu/stm32_ws/src/libraries/FreeRTOS/Source/queue.c **** 
 994:/home/rdu/Workspace/project_templates/mcu/stm32_ws/src/libraries/FreeRTOS/Source/queue.c **** 			traceQUEUE_SEND_FROM_ISR( pxQueue );
 995:/home/rdu/Workspace/project_templates/mcu/stm32_ws/src/libraries/FreeRTOS/Source/queue.c **** 
 996:/home/rdu/Workspace/project_templates/mcu/stm32_ws/src/libraries/FreeRTOS/Source/queue.c **** 			/* Semaphores use xQueueGiveFromISR(), so pxQueue will not be a
 997:/home/rdu/Workspace/project_templates/mcu/stm32_ws/src/libraries/FreeRTOS/Source/queue.c **** 			semaphore or mutex.  That means prvCopyDataToQueue() cannot result
 998:/home/rdu/Workspace/project_templates/mcu/stm32_ws/src/libraries/FreeRTOS/Source/queue.c **** 			in a task disinheriting a priority and prvCopyDataToQueue() can be
 999:/home/rdu/Workspace/project_templates/mcu/stm32_ws/src/libraries/FreeRTOS/Source/queue.c **** 			called here even though the disinherit function does not check if
1000:/home/rdu/Workspace/project_templates/mcu/stm32_ws/src/libraries/FreeRTOS/Source/queue.c **** 			the scheduler is suspended before accessing the ready lists. */
1001:/home/rdu/Workspace/project_templates/mcu/stm32_ws/src/libraries/FreeRTOS/Source/queue.c **** 			( void ) prvCopyDataToQueue( pxQueue, pvItemToQueue, xCopyPosition );
 1280              		.loc 1 1001 0
 1281 00be 009A     		ldr	r2, [sp]
 1282 00c0 0299     		ldr	r1, [sp, #8]
 1283 00c2 0C98     		ldr	r0, [sp, #48]
 1284 00c4 FFF7FEFF 		bl	prvCopyDataToQueue
1002:/home/rdu/Workspace/project_templates/mcu/stm32_ws/src/libraries/FreeRTOS/Source/queue.c **** 
1003:/home/rdu/Workspace/project_templates/mcu/stm32_ws/src/libraries/FreeRTOS/Source/queue.c **** 			/* The event list is not altered if the queue is locked.  This will
1004:/home/rdu/Workspace/project_templates/mcu/stm32_ws/src/libraries/FreeRTOS/Source/queue.c **** 			be done when the queue is unlocked later. */
1005:/home/rdu/Workspace/project_templates/mcu/stm32_ws/src/libraries/FreeRTOS/Source/queue.c **** 			if( cTxLock == queueUNLOCKED )
 1285              		.loc 1 1005 0
 1286 00c8 9DF92B30 		ldrsb	r3, [sp, #43]
 1287 00cc B3F1FF3F 		cmp	r3, #-1
 1288 00d0 12D1     		bne	.L95
1006:/home/rdu/Workspace/project_templates/mcu/stm32_ws/src/libraries/FreeRTOS/Source/queue.c **** 			{
1007:/home/rdu/Workspace/project_templates/mcu/stm32_ws/src/libraries/FreeRTOS/Source/queue.c **** 				#if ( configUSE_QUEUE_SETS == 1 )
1008:/home/rdu/Workspace/project_templates/mcu/stm32_ws/src/libraries/FreeRTOS/Source/queue.c **** 				{
1009:/home/rdu/Workspace/project_templates/mcu/stm32_ws/src/libraries/FreeRTOS/Source/queue.c **** 					if( pxQueue->pxQueueSetContainer != NULL )
1010:/home/rdu/Workspace/project_templates/mcu/stm32_ws/src/libraries/FreeRTOS/Source/queue.c **** 					{
1011:/home/rdu/Workspace/project_templates/mcu/stm32_ws/src/libraries/FreeRTOS/Source/queue.c **** 						if( prvNotifyQueueSetContainer( pxQueue, xCopyPosition ) != pdFALSE )
1012:/home/rdu/Workspace/project_templates/mcu/stm32_ws/src/libraries/FreeRTOS/Source/queue.c **** 						{
1013:/home/rdu/Workspace/project_templates/mcu/stm32_ws/src/libraries/FreeRTOS/Source/queue.c **** 							/* The queue is a member of a queue set, and posting
1014:/home/rdu/Workspace/project_templates/mcu/stm32_ws/src/libraries/FreeRTOS/Source/queue.c **** 							to the queue set caused a higher priority task to
1015:/home/rdu/Workspace/project_templates/mcu/stm32_ws/src/libraries/FreeRTOS/Source/queue.c **** 							unblock.  A context switch is required. */
1016:/home/rdu/Workspace/project_templates/mcu/stm32_ws/src/libraries/FreeRTOS/Source/queue.c **** 							if( pxHigherPriorityTaskWoken != NULL )
1017:/home/rdu/Workspace/project_templates/mcu/stm32_ws/src/libraries/FreeRTOS/Source/queue.c **** 							{
1018:/home/rdu/Workspace/project_templates/mcu/stm32_ws/src/libraries/FreeRTOS/Source/queue.c **** 								*pxHigherPriorityTaskWoken = pdTRUE;
1019:/home/rdu/Workspace/project_templates/mcu/stm32_ws/src/libraries/FreeRTOS/Source/queue.c **** 							}
1020:/home/rdu/Workspace/project_templates/mcu/stm32_ws/src/libraries/FreeRTOS/Source/queue.c **** 							else
1021:/home/rdu/Workspace/project_templates/mcu/stm32_ws/src/libraries/FreeRTOS/Source/queue.c **** 							{
1022:/home/rdu/Workspace/project_templates/mcu/stm32_ws/src/libraries/FreeRTOS/Source/queue.c **** 								mtCOVERAGE_TEST_MARKER();
1023:/home/rdu/Workspace/project_templates/mcu/stm32_ws/src/libraries/FreeRTOS/Source/queue.c **** 							}
1024:/home/rdu/Workspace/project_templates/mcu/stm32_ws/src/libraries/FreeRTOS/Source/queue.c **** 						}
1025:/home/rdu/Workspace/project_templates/mcu/stm32_ws/src/libraries/FreeRTOS/Source/queue.c **** 						else
1026:/home/rdu/Workspace/project_templates/mcu/stm32_ws/src/libraries/FreeRTOS/Source/queue.c **** 						{
1027:/home/rdu/Workspace/project_templates/mcu/stm32_ws/src/libraries/FreeRTOS/Source/queue.c **** 							mtCOVERAGE_TEST_MARKER();
1028:/home/rdu/Workspace/project_templates/mcu/stm32_ws/src/libraries/FreeRTOS/Source/queue.c **** 						}
1029:/home/rdu/Workspace/project_templates/mcu/stm32_ws/src/libraries/FreeRTOS/Source/queue.c **** 					}
1030:/home/rdu/Workspace/project_templates/mcu/stm32_ws/src/libraries/FreeRTOS/Source/queue.c **** 					else
1031:/home/rdu/Workspace/project_templates/mcu/stm32_ws/src/libraries/FreeRTOS/Source/queue.c **** 					{
1032:/home/rdu/Workspace/project_templates/mcu/stm32_ws/src/libraries/FreeRTOS/Source/queue.c **** 						if( listLIST_IS_EMPTY( &( pxQueue->xTasksWaitingToReceive ) ) == pdFALSE )
1033:/home/rdu/Workspace/project_templates/mcu/stm32_ws/src/libraries/FreeRTOS/Source/queue.c **** 						{
1034:/home/rdu/Workspace/project_templates/mcu/stm32_ws/src/libraries/FreeRTOS/Source/queue.c **** 							if( xTaskRemoveFromEventList( &( pxQueue->xTasksWaitingToReceive ) ) != pdFALSE )
1035:/home/rdu/Workspace/project_templates/mcu/stm32_ws/src/libraries/FreeRTOS/Source/queue.c **** 							{
1036:/home/rdu/Workspace/project_templates/mcu/stm32_ws/src/libraries/FreeRTOS/Source/queue.c **** 								/* The task waiting has a higher priority so
1037:/home/rdu/Workspace/project_templates/mcu/stm32_ws/src/libraries/FreeRTOS/Source/queue.c **** 								record that a context switch is required. */
1038:/home/rdu/Workspace/project_templates/mcu/stm32_ws/src/libraries/FreeRTOS/Source/queue.c **** 								if( pxHigherPriorityTaskWoken != NULL )
1039:/home/rdu/Workspace/project_templates/mcu/stm32_ws/src/libraries/FreeRTOS/Source/queue.c **** 								{
1040:/home/rdu/Workspace/project_templates/mcu/stm32_ws/src/libraries/FreeRTOS/Source/queue.c **** 									*pxHigherPriorityTaskWoken = pdTRUE;
1041:/home/rdu/Workspace/project_templates/mcu/stm32_ws/src/libraries/FreeRTOS/Source/queue.c **** 								}
1042:/home/rdu/Workspace/project_templates/mcu/stm32_ws/src/libraries/FreeRTOS/Source/queue.c **** 								else
1043:/home/rdu/Workspace/project_templates/mcu/stm32_ws/src/libraries/FreeRTOS/Source/queue.c **** 								{
1044:/home/rdu/Workspace/project_templates/mcu/stm32_ws/src/libraries/FreeRTOS/Source/queue.c **** 									mtCOVERAGE_TEST_MARKER();
1045:/home/rdu/Workspace/project_templates/mcu/stm32_ws/src/libraries/FreeRTOS/Source/queue.c **** 								}
1046:/home/rdu/Workspace/project_templates/mcu/stm32_ws/src/libraries/FreeRTOS/Source/queue.c **** 							}
1047:/home/rdu/Workspace/project_templates/mcu/stm32_ws/src/libraries/FreeRTOS/Source/queue.c **** 							else
1048:/home/rdu/Workspace/project_templates/mcu/stm32_ws/src/libraries/FreeRTOS/Source/queue.c **** 							{
1049:/home/rdu/Workspace/project_templates/mcu/stm32_ws/src/libraries/FreeRTOS/Source/queue.c **** 								mtCOVERAGE_TEST_MARKER();
1050:/home/rdu/Workspace/project_templates/mcu/stm32_ws/src/libraries/FreeRTOS/Source/queue.c **** 							}
1051:/home/rdu/Workspace/project_templates/mcu/stm32_ws/src/libraries/FreeRTOS/Source/queue.c **** 						}
1052:/home/rdu/Workspace/project_templates/mcu/stm32_ws/src/libraries/FreeRTOS/Source/queue.c **** 						else
1053:/home/rdu/Workspace/project_templates/mcu/stm32_ws/src/libraries/FreeRTOS/Source/queue.c **** 						{
1054:/home/rdu/Workspace/project_templates/mcu/stm32_ws/src/libraries/FreeRTOS/Source/queue.c **** 							mtCOVERAGE_TEST_MARKER();
1055:/home/rdu/Workspace/project_templates/mcu/stm32_ws/src/libraries/FreeRTOS/Source/queue.c **** 						}
1056:/home/rdu/Workspace/project_templates/mcu/stm32_ws/src/libraries/FreeRTOS/Source/queue.c **** 					}
1057:/home/rdu/Workspace/project_templates/mcu/stm32_ws/src/libraries/FreeRTOS/Source/queue.c **** 				}
1058:/home/rdu/Workspace/project_templates/mcu/stm32_ws/src/libraries/FreeRTOS/Source/queue.c **** 				#else /* configUSE_QUEUE_SETS */
1059:/home/rdu/Workspace/project_templates/mcu/stm32_ws/src/libraries/FreeRTOS/Source/queue.c **** 				{
1060:/home/rdu/Workspace/project_templates/mcu/stm32_ws/src/libraries/FreeRTOS/Source/queue.c **** 					if( listLIST_IS_EMPTY( &( pxQueue->xTasksWaitingToReceive ) ) == pdFALSE )
 1289              		.loc 1 1060 0
 1290 00d2 0C9B     		ldr	r3, [sp, #48]
 1291 00d4 5B6A     		ldr	r3, [r3, #36]
 1292 00d6 002B     		cmp	r3, #0
 1293 00d8 16D0     		beq	.L96
1061:/home/rdu/Workspace/project_templates/mcu/stm32_ws/src/libraries/FreeRTOS/Source/queue.c **** 					{
1062:/home/rdu/Workspace/project_templates/mcu/stm32_ws/src/libraries/FreeRTOS/Source/queue.c **** 						if( xTaskRemoveFromEventList( &( pxQueue->xTasksWaitingToReceive ) ) != pdFALSE )
 1294              		.loc 1 1062 0
 1295 00da 0C9B     		ldr	r3, [sp, #48]
 1296 00dc 2433     		adds	r3, r3, #36
 1297 00de 1846     		mov	r0, r3
 1298 00e0 FFF7FEFF 		bl	xTaskRemoveFromEventList
 1299 00e4 0346     		mov	r3, r0
 1300 00e6 002B     		cmp	r3, #0
 1301 00e8 0ED0     		beq	.L96
1063:/home/rdu/Workspace/project_templates/mcu/stm32_ws/src/libraries/FreeRTOS/Source/queue.c **** 						{
1064:/home/rdu/Workspace/project_templates/mcu/stm32_ws/src/libraries/FreeRTOS/Source/queue.c **** 							/* The task waiting has a higher priority so record that a
1065:/home/rdu/Workspace/project_templates/mcu/stm32_ws/src/libraries/FreeRTOS/Source/queue.c **** 							context	switch is required. */
1066:/home/rdu/Workspace/project_templates/mcu/stm32_ws/src/libraries/FreeRTOS/Source/queue.c **** 							if( pxHigherPriorityTaskWoken != NULL )
 1302              		.loc 1 1066 0
 1303 00ea 019B     		ldr	r3, [sp, #4]
 1304 00ec 002B     		cmp	r3, #0
 1305 00ee 0BD0     		beq	.L96
1067:/home/rdu/Workspace/project_templates/mcu/stm32_ws/src/libraries/FreeRTOS/Source/queue.c **** 							{
1068:/home/rdu/Workspace/project_templates/mcu/stm32_ws/src/libraries/FreeRTOS/Source/queue.c **** 								*pxHigherPriorityTaskWoken = pdTRUE;
 1306              		.loc 1 1068 0
 1307 00f0 019B     		ldr	r3, [sp, #4]
 1308 00f2 0122     		movs	r2, #1
 1309 00f4 1A60     		str	r2, [r3]
 1310 00f6 07E0     		b	.L96
 1311              	.L95:
1069:/home/rdu/Workspace/project_templates/mcu/stm32_ws/src/libraries/FreeRTOS/Source/queue.c **** 							}
1070:/home/rdu/Workspace/project_templates/mcu/stm32_ws/src/libraries/FreeRTOS/Source/queue.c **** 							else
1071:/home/rdu/Workspace/project_templates/mcu/stm32_ws/src/libraries/FreeRTOS/Source/queue.c **** 							{
1072:/home/rdu/Workspace/project_templates/mcu/stm32_ws/src/libraries/FreeRTOS/Source/queue.c **** 								mtCOVERAGE_TEST_MARKER();
1073:/home/rdu/Workspace/project_templates/mcu/stm32_ws/src/libraries/FreeRTOS/Source/queue.c **** 							}
1074:/home/rdu/Workspace/project_templates/mcu/stm32_ws/src/libraries/FreeRTOS/Source/queue.c **** 						}
1075:/home/rdu/Workspace/project_templates/mcu/stm32_ws/src/libraries/FreeRTOS/Source/queue.c **** 						else
1076:/home/rdu/Workspace/project_templates/mcu/stm32_ws/src/libraries/FreeRTOS/Source/queue.c **** 						{
1077:/home/rdu/Workspace/project_templates/mcu/stm32_ws/src/libraries/FreeRTOS/Source/queue.c **** 							mtCOVERAGE_TEST_MARKER();
1078:/home/rdu/Workspace/project_templates/mcu/stm32_ws/src/libraries/FreeRTOS/Source/queue.c **** 						}
1079:/home/rdu/Workspace/project_templates/mcu/stm32_ws/src/libraries/FreeRTOS/Source/queue.c **** 					}
1080:/home/rdu/Workspace/project_templates/mcu/stm32_ws/src/libraries/FreeRTOS/Source/queue.c **** 					else
1081:/home/rdu/Workspace/project_templates/mcu/stm32_ws/src/libraries/FreeRTOS/Source/queue.c **** 					{
1082:/home/rdu/Workspace/project_templates/mcu/stm32_ws/src/libraries/FreeRTOS/Source/queue.c **** 						mtCOVERAGE_TEST_MARKER();
1083:/home/rdu/Workspace/project_templates/mcu/stm32_ws/src/libraries/FreeRTOS/Source/queue.c **** 					}
1084:/home/rdu/Workspace/project_templates/mcu/stm32_ws/src/libraries/FreeRTOS/Source/queue.c **** 				}
1085:/home/rdu/Workspace/project_templates/mcu/stm32_ws/src/libraries/FreeRTOS/Source/queue.c **** 				#endif /* configUSE_QUEUE_SETS */
1086:/home/rdu/Workspace/project_templates/mcu/stm32_ws/src/libraries/FreeRTOS/Source/queue.c **** 			}
1087:/home/rdu/Workspace/project_templates/mcu/stm32_ws/src/libraries/FreeRTOS/Source/queue.c **** 			else
1088:/home/rdu/Workspace/project_templates/mcu/stm32_ws/src/libraries/FreeRTOS/Source/queue.c **** 			{
1089:/home/rdu/Workspace/project_templates/mcu/stm32_ws/src/libraries/FreeRTOS/Source/queue.c **** 				/* Increment the lock count so the task that unlocks the queue
1090:/home/rdu/Workspace/project_templates/mcu/stm32_ws/src/libraries/FreeRTOS/Source/queue.c **** 				knows that data was posted while it was locked. */
1091:/home/rdu/Workspace/project_templates/mcu/stm32_ws/src/libraries/FreeRTOS/Source/queue.c **** 				pxQueue->cTxLock = ( int8_t ) ( cTxLock + 1 );
 1312              		.loc 1 1091 0
 1313 00f8 9DF82B30 		ldrb	r3, [sp, #43]	@ zero_extendqisi2
 1314 00fc 0133     		adds	r3, r3, #1
 1315 00fe DBB2     		uxtb	r3, r3
 1316 0100 5AB2     		sxtb	r2, r3
 1317 0102 0C9B     		ldr	r3, [sp, #48]
 1318 0104 83F84520 		strb	r2, [r3, #69]
 1319              	.L96:
1092:/home/rdu/Workspace/project_templates/mcu/stm32_ws/src/libraries/FreeRTOS/Source/queue.c **** 			}
1093:/home/rdu/Workspace/project_templates/mcu/stm32_ws/src/libraries/FreeRTOS/Source/queue.c **** 
1094:/home/rdu/Workspace/project_templates/mcu/stm32_ws/src/libraries/FreeRTOS/Source/queue.c **** 			xReturn = pdPASS;
 1320              		.loc 1 1094 0
 1321 0108 0123     		movs	r3, #1
 1322 010a 0D93     		str	r3, [sp, #52]
 1323              	.LBE129:
 991:/home/rdu/Workspace/project_templates/mcu/stm32_ws/src/libraries/FreeRTOS/Source/queue.c **** 			const int8_t cTxLock = pxQueue->cTxLock;
 1324              		.loc 1 991 0
 1325 010c 01E0     		b	.L97
 1326              	.L94:
1095:/home/rdu/Workspace/project_templates/mcu/stm32_ws/src/libraries/FreeRTOS/Source/queue.c **** 		}
1096:/home/rdu/Workspace/project_templates/mcu/stm32_ws/src/libraries/FreeRTOS/Source/queue.c **** 		else
1097:/home/rdu/Workspace/project_templates/mcu/stm32_ws/src/libraries/FreeRTOS/Source/queue.c **** 		{
1098:/home/rdu/Workspace/project_templates/mcu/stm32_ws/src/libraries/FreeRTOS/Source/queue.c **** 			traceQUEUE_SEND_FROM_ISR_FAILED( pxQueue );
1099:/home/rdu/Workspace/project_templates/mcu/stm32_ws/src/libraries/FreeRTOS/Source/queue.c **** 			xReturn = errQUEUE_FULL;
 1327              		.loc 1 1099 0
 1328 010e 0023     		movs	r3, #0
 1329 0110 0D93     		str	r3, [sp, #52]
 1330              	.L97:
 1331 0112 0B9B     		ldr	r3, [sp, #44]
 1332 0114 0493     		str	r3, [sp, #16]
 1333              	.LBB130:
 1334              	.LBB131:
 224:/home/rdu/Workspace/project_templates/mcu/stm32_ws/src/libraries/FreeRTOS/Source/portable/GCC/ARM_CM4F/portmacro.h **** }
 225:/home/rdu/Workspace/project_templates/mcu/stm32_ws/src/libraries/FreeRTOS/Source/portable/GCC/ARM_CM4F/portmacro.h **** /*-----------------------------------------------------------*/
 226:/home/rdu/Workspace/project_templates/mcu/stm32_ws/src/libraries/FreeRTOS/Source/portable/GCC/ARM_CM4F/portmacro.h **** 
 227:/home/rdu/Workspace/project_templates/mcu/stm32_ws/src/libraries/FreeRTOS/Source/portable/GCC/ARM_CM4F/portmacro.h **** portFORCE_INLINE static void vPortSetBASEPRI( uint32_t ulNewMaskValue )
 228:/home/rdu/Workspace/project_templates/mcu/stm32_ws/src/libraries/FreeRTOS/Source/portable/GCC/ARM_CM4F/portmacro.h **** {
 229:/home/rdu/Workspace/project_templates/mcu/stm32_ws/src/libraries/FreeRTOS/Source/portable/GCC/ARM_CM4F/portmacro.h **** 	__asm volatile
 1335              		.loc 2 229 0
 1336 0116 049B     		ldr	r3, [sp, #16]
 1337              		.syntax unified
 1338              	@ 229 "/home/rdu/Workspace/project_templates/mcu/stm32_ws/src/libraries/FreeRTOS/Source/portable/GC
 1339 0118 83F31188 			msr basepri, r3	
 1340              	@ 0 "" 2
 1341              		.thumb
 1342              		.syntax unified
 1343              	.LBE131:
 1344              	.LBE130:
1100:/home/rdu/Workspace/project_templates/mcu/stm32_ws/src/libraries/FreeRTOS/Source/queue.c **** 		}
1101:/home/rdu/Workspace/project_templates/mcu/stm32_ws/src/libraries/FreeRTOS/Source/queue.c **** 	}
1102:/home/rdu/Workspace/project_templates/mcu/stm32_ws/src/libraries/FreeRTOS/Source/queue.c **** 	portCLEAR_INTERRUPT_MASK_FROM_ISR( uxSavedInterruptStatus );
1103:/home/rdu/Workspace/project_templates/mcu/stm32_ws/src/libraries/FreeRTOS/Source/queue.c **** 
1104:/home/rdu/Workspace/project_templates/mcu/stm32_ws/src/libraries/FreeRTOS/Source/queue.c **** 	return xReturn;
 1345              		.loc 1 1104 0
 1346 011c 0D9B     		ldr	r3, [sp, #52]
1105:/home/rdu/Workspace/project_templates/mcu/stm32_ws/src/libraries/FreeRTOS/Source/queue.c **** }
 1347              		.loc 1 1105 0
 1348 011e 1846     		mov	r0, r3
 1349 0120 0FB0     		add	sp, sp, #60
 1350              	.LCFI29:
 1351              		.cfi_def_cfa_offset 4
 1352              		@ sp needed
 1353 0122 5DF804FB 		ldr	pc, [sp], #4
 1354              		.cfi_endproc
 1355              	.LFE14:
 1357              		.section	.text.xQueueGiveFromISR,"ax",%progbits
 1358              		.align	1
 1359              		.global	xQueueGiveFromISR
 1360              		.syntax unified
 1361              		.thumb
 1362              		.thumb_func
 1363              		.fpu fpv4-sp-d16
 1365              	xQueueGiveFromISR:
 1366              	.LFB15:
1106:/home/rdu/Workspace/project_templates/mcu/stm32_ws/src/libraries/FreeRTOS/Source/queue.c **** /*-----------------------------------------------------------*/
1107:/home/rdu/Workspace/project_templates/mcu/stm32_ws/src/libraries/FreeRTOS/Source/queue.c **** 
1108:/home/rdu/Workspace/project_templates/mcu/stm32_ws/src/libraries/FreeRTOS/Source/queue.c **** BaseType_t xQueueGiveFromISR( QueueHandle_t xQueue, BaseType_t * const pxHigherPriorityTaskWoken )
1109:/home/rdu/Workspace/project_templates/mcu/stm32_ws/src/libraries/FreeRTOS/Source/queue.c **** {
 1367              		.loc 1 1109 0
 1368              		.cfi_startproc
 1369              		@ args = 0, pretend = 0, frame = 56
 1370              		@ frame_needed = 0, uses_anonymous_args = 0
 1371 0000 00B5     		push	{lr}
 1372              	.LCFI30:
 1373              		.cfi_def_cfa_offset 4
 1374              		.cfi_offset 14, -4
 1375 0002 8FB0     		sub	sp, sp, #60
 1376              	.LCFI31:
 1377              		.cfi_def_cfa_offset 64
 1378 0004 0190     		str	r0, [sp, #4]
 1379 0006 0091     		str	r1, [sp]
1110:/home/rdu/Workspace/project_templates/mcu/stm32_ws/src/libraries/FreeRTOS/Source/queue.c **** BaseType_t xReturn;
1111:/home/rdu/Workspace/project_templates/mcu/stm32_ws/src/libraries/FreeRTOS/Source/queue.c **** UBaseType_t uxSavedInterruptStatus;
1112:/home/rdu/Workspace/project_templates/mcu/stm32_ws/src/libraries/FreeRTOS/Source/queue.c **** Queue_t * const pxQueue = xQueue;
 1380              		.loc 1 1112 0
 1381 0008 019B     		ldr	r3, [sp, #4]
 1382 000a 0C93     		str	r3, [sp, #48]
1113:/home/rdu/Workspace/project_templates/mcu/stm32_ws/src/libraries/FreeRTOS/Source/queue.c **** 
1114:/home/rdu/Workspace/project_templates/mcu/stm32_ws/src/libraries/FreeRTOS/Source/queue.c **** 	/* Similar to xQueueGenericSendFromISR() but used with semaphores where the
1115:/home/rdu/Workspace/project_templates/mcu/stm32_ws/src/libraries/FreeRTOS/Source/queue.c **** 	item size is 0.  Don't directly wake a task that was blocked on a queue
1116:/home/rdu/Workspace/project_templates/mcu/stm32_ws/src/libraries/FreeRTOS/Source/queue.c **** 	read, instead return a flag to say whether a context switch is required or
1117:/home/rdu/Workspace/project_templates/mcu/stm32_ws/src/libraries/FreeRTOS/Source/queue.c **** 	not (i.e. has a task with a higher priority than us been woken by this
1118:/home/rdu/Workspace/project_templates/mcu/stm32_ws/src/libraries/FreeRTOS/Source/queue.c **** 	post). */
1119:/home/rdu/Workspace/project_templates/mcu/stm32_ws/src/libraries/FreeRTOS/Source/queue.c **** 
1120:/home/rdu/Workspace/project_templates/mcu/stm32_ws/src/libraries/FreeRTOS/Source/queue.c **** 	configASSERT( pxQueue );
 1383              		.loc 1 1120 0
 1384 000c 0C9B     		ldr	r3, [sp, #48]
 1385 000e 002B     		cmp	r3, #0
 1386 0010 09D1     		bne	.L100
 1387              	.LBB132:
 1388              	.LBB133:
 195:/home/rdu/Workspace/project_templates/mcu/stm32_ws/src/libraries/FreeRTOS/Source/portable/GCC/ARM_CM4F/portmacro.h **** 	(
 1389              		.loc 2 195 0 discriminator 1
 1390              		.syntax unified
 1391              	@ 195 "/home/rdu/Workspace/project_templates/mcu/stm32_ws/src/libraries/FreeRTOS/Source/portable/GC
 1392 0012 4FF05003 			mov r3, #80												
 1393 0016 83F31188 		msr basepri, r3											
 1394 001a BFF36F8F 		isb														
 1395 001e BFF34F8F 		dsb														
 1396              	
 1397              	@ 0 "" 2
 1398              		.thumb
 1399              		.syntax unified
 1400 0022 0893     		str	r3, [sp, #32]
 1401              	.L101:
 1402              	.LBE133:
 1403              	.LBE132:
 1404              		.loc 1 1120 0 discriminator 1
 1405 0024 FEE7     		b	.L101
 1406              	.L100:
1121:/home/rdu/Workspace/project_templates/mcu/stm32_ws/src/libraries/FreeRTOS/Source/queue.c **** 
1122:/home/rdu/Workspace/project_templates/mcu/stm32_ws/src/libraries/FreeRTOS/Source/queue.c **** 	/* xQueueGenericSendFromISR() should be used instead of xQueueGiveFromISR()
1123:/home/rdu/Workspace/project_templates/mcu/stm32_ws/src/libraries/FreeRTOS/Source/queue.c **** 	if the item size is not 0. */
1124:/home/rdu/Workspace/project_templates/mcu/stm32_ws/src/libraries/FreeRTOS/Source/queue.c **** 	configASSERT( pxQueue->uxItemSize == 0 );
 1407              		.loc 1 1124 0
 1408 0026 0C9B     		ldr	r3, [sp, #48]
 1409 0028 1B6C     		ldr	r3, [r3, #64]
 1410 002a 002B     		cmp	r3, #0
 1411 002c 09D0     		beq	.L102
 1412              	.LBB134:
 1413              	.LBB135:
 195:/home/rdu/Workspace/project_templates/mcu/stm32_ws/src/libraries/FreeRTOS/Source/portable/GCC/ARM_CM4F/portmacro.h **** 	(
 1414              		.loc 2 195 0 discriminator 1
 1415              		.syntax unified
 1416              	@ 195 "/home/rdu/Workspace/project_templates/mcu/stm32_ws/src/libraries/FreeRTOS/Source/portable/GC
 1417 002e 4FF05003 			mov r3, #80												
 1418 0032 83F31188 		msr basepri, r3											
 1419 0036 BFF36F8F 		isb														
 1420 003a BFF34F8F 		dsb														
 1421              	
 1422              	@ 0 "" 2
 1423              		.thumb
 1424              		.syntax unified
 1425 003e 0793     		str	r3, [sp, #28]
 1426              	.L103:
 1427              	.LBE135:
 1428              	.LBE134:
 1429              		.loc 1 1124 0 discriminator 2
 1430 0040 FEE7     		b	.L103
 1431              	.L102:
1125:/home/rdu/Workspace/project_templates/mcu/stm32_ws/src/libraries/FreeRTOS/Source/queue.c **** 
1126:/home/rdu/Workspace/project_templates/mcu/stm32_ws/src/libraries/FreeRTOS/Source/queue.c **** 	/* Normally a mutex would not be given from an interrupt, especially if
1127:/home/rdu/Workspace/project_templates/mcu/stm32_ws/src/libraries/FreeRTOS/Source/queue.c **** 	there is a mutex holder, as priority inheritance makes no sense for an
1128:/home/rdu/Workspace/project_templates/mcu/stm32_ws/src/libraries/FreeRTOS/Source/queue.c **** 	interrupts, only tasks. */
1129:/home/rdu/Workspace/project_templates/mcu/stm32_ws/src/libraries/FreeRTOS/Source/queue.c **** 	configASSERT( !( ( pxQueue->uxQueueType == queueQUEUE_IS_MUTEX ) && ( pxQueue->u.xSemaphore.xMutex
 1432              		.loc 1 1129 0
 1433 0042 0C9B     		ldr	r3, [sp, #48]
 1434 0044 1B68     		ldr	r3, [r3]
 1435 0046 002B     		cmp	r3, #0
 1436 0048 03D1     		bne	.L104
 1437              		.loc 1 1129 0 is_stmt 0 discriminator 2
 1438 004a 0C9B     		ldr	r3, [sp, #48]
 1439 004c 9B68     		ldr	r3, [r3, #8]
 1440 004e 002B     		cmp	r3, #0
 1441 0050 01D1     		bne	.L105
 1442              	.L104:
 1443              		.loc 1 1129 0 discriminator 3
 1444 0052 0123     		movs	r3, #1
 1445 0054 00E0     		b	.L106
 1446              	.L105:
 1447              		.loc 1 1129 0 discriminator 4
 1448 0056 0023     		movs	r3, #0
 1449              	.L106:
 1450              		.loc 1 1129 0 discriminator 6
 1451 0058 002B     		cmp	r3, #0
 1452 005a 09D1     		bne	.L107
 1453              	.LBB136:
 1454              	.LBB137:
 195:/home/rdu/Workspace/project_templates/mcu/stm32_ws/src/libraries/FreeRTOS/Source/portable/GCC/ARM_CM4F/portmacro.h **** 	(
 1455              		.loc 2 195 0 is_stmt 1 discriminator 7
 1456              		.syntax unified
 1457              	@ 195 "/home/rdu/Workspace/project_templates/mcu/stm32_ws/src/libraries/FreeRTOS/Source/portable/GC
 1458 005c 4FF05003 			mov r3, #80												
 1459 0060 83F31188 		msr basepri, r3											
 1460 0064 BFF36F8F 		isb														
 1461 0068 BFF34F8F 		dsb														
 1462              	
 1463              	@ 0 "" 2
 1464              		.thumb
 1465              		.syntax unified
 1466 006c 0693     		str	r3, [sp, #24]
 1467              	.L108:
 1468              	.LBE137:
 1469              	.LBE136:
 1470              		.loc 1 1129 0 discriminator 3
 1471 006e FEE7     		b	.L108
 1472              	.L107:
1130:/home/rdu/Workspace/project_templates/mcu/stm32_ws/src/libraries/FreeRTOS/Source/queue.c **** 
1131:/home/rdu/Workspace/project_templates/mcu/stm32_ws/src/libraries/FreeRTOS/Source/queue.c **** 	/* RTOS ports that support interrupt nesting have the concept of a maximum
1132:/home/rdu/Workspace/project_templates/mcu/stm32_ws/src/libraries/FreeRTOS/Source/queue.c **** 	system call (or maximum API call) interrupt priority.  Interrupts that are
1133:/home/rdu/Workspace/project_templates/mcu/stm32_ws/src/libraries/FreeRTOS/Source/queue.c **** 	above the maximum system call priority are kept permanently enabled, even
1134:/home/rdu/Workspace/project_templates/mcu/stm32_ws/src/libraries/FreeRTOS/Source/queue.c **** 	when the RTOS kernel is in a critical section, but cannot make any calls to
1135:/home/rdu/Workspace/project_templates/mcu/stm32_ws/src/libraries/FreeRTOS/Source/queue.c **** 	FreeRTOS API functions.  If configASSERT() is defined in FreeRTOSConfig.h
1136:/home/rdu/Workspace/project_templates/mcu/stm32_ws/src/libraries/FreeRTOS/Source/queue.c **** 	then portASSERT_IF_INTERRUPT_PRIORITY_INVALID() will result in an assertion
1137:/home/rdu/Workspace/project_templates/mcu/stm32_ws/src/libraries/FreeRTOS/Source/queue.c **** 	failure if a FreeRTOS API function is called from an interrupt that has been
1138:/home/rdu/Workspace/project_templates/mcu/stm32_ws/src/libraries/FreeRTOS/Source/queue.c **** 	assigned a priority above the configured maximum system call priority.
1139:/home/rdu/Workspace/project_templates/mcu/stm32_ws/src/libraries/FreeRTOS/Source/queue.c **** 	Only FreeRTOS functions that end in FromISR can be called from interrupts
1140:/home/rdu/Workspace/project_templates/mcu/stm32_ws/src/libraries/FreeRTOS/Source/queue.c **** 	that have been assigned a priority at or (logically) below the maximum
1141:/home/rdu/Workspace/project_templates/mcu/stm32_ws/src/libraries/FreeRTOS/Source/queue.c **** 	system call	interrupt priority.  FreeRTOS maintains a separate interrupt
1142:/home/rdu/Workspace/project_templates/mcu/stm32_ws/src/libraries/FreeRTOS/Source/queue.c **** 	safe API to ensure interrupt entry is as fast and as simple as possible.
1143:/home/rdu/Workspace/project_templates/mcu/stm32_ws/src/libraries/FreeRTOS/Source/queue.c **** 	More information (albeit Cortex-M specific) is provided on the following
1144:/home/rdu/Workspace/project_templates/mcu/stm32_ws/src/libraries/FreeRTOS/Source/queue.c **** 	link: http://www.freertos.org/RTOS-Cortex-M3-M4.html */
1145:/home/rdu/Workspace/project_templates/mcu/stm32_ws/src/libraries/FreeRTOS/Source/queue.c **** 	portASSERT_IF_INTERRUPT_PRIORITY_INVALID();
 1473              		.loc 1 1145 0
 1474 0070 FFF7FEFF 		bl	vPortValidateInterruptPriority
 1475              	.LBB138:
 1476              	.LBB139:
 211:/home/rdu/Workspace/project_templates/mcu/stm32_ws/src/libraries/FreeRTOS/Source/portable/GCC/ARM_CM4F/portmacro.h **** 	(
 1477              		.loc 2 211 0
 1478              		.syntax unified
 1479              	@ 211 "/home/rdu/Workspace/project_templates/mcu/stm32_ws/src/libraries/FreeRTOS/Source/portable/GC
 1480 0074 EFF31182 			mrs r2, basepri											
 1481 0078 4FF05003 		mov r3, #80												
 1482 007c 83F31188 		msr basepri, r3											
 1483 0080 BFF36F8F 		isb														
 1484 0084 BFF34F8F 		dsb														
 1485              	
 1486              	@ 0 "" 2
 1487              		.thumb
 1488              		.syntax unified
 1489 0088 0592     		str	r2, [sp, #20]
 1490 008a 0493     		str	r3, [sp, #16]
 223:/home/rdu/Workspace/project_templates/mcu/stm32_ws/src/libraries/FreeRTOS/Source/portable/GCC/ARM_CM4F/portmacro.h **** }
 1491              		.loc 2 223 0
 1492 008c 059B     		ldr	r3, [sp, #20]
 1493              	.LBE139:
 1494              	.LBE138:
1146:/home/rdu/Workspace/project_templates/mcu/stm32_ws/src/libraries/FreeRTOS/Source/queue.c **** 
1147:/home/rdu/Workspace/project_templates/mcu/stm32_ws/src/libraries/FreeRTOS/Source/queue.c **** 	uxSavedInterruptStatus = portSET_INTERRUPT_MASK_FROM_ISR();
 1495              		.loc 1 1147 0
 1496 008e 0B93     		str	r3, [sp, #44]
 1497              	.LBB140:
1148:/home/rdu/Workspace/project_templates/mcu/stm32_ws/src/libraries/FreeRTOS/Source/queue.c **** 	{
1149:/home/rdu/Workspace/project_templates/mcu/stm32_ws/src/libraries/FreeRTOS/Source/queue.c **** 		const UBaseType_t uxMessagesWaiting = pxQueue->uxMessagesWaiting;
 1498              		.loc 1 1149 0
 1499 0090 0C9B     		ldr	r3, [sp, #48]
 1500 0092 9B6B     		ldr	r3, [r3, #56]
 1501 0094 0A93     		str	r3, [sp, #40]
1150:/home/rdu/Workspace/project_templates/mcu/stm32_ws/src/libraries/FreeRTOS/Source/queue.c **** 
1151:/home/rdu/Workspace/project_templates/mcu/stm32_ws/src/libraries/FreeRTOS/Source/queue.c **** 		/* When the queue is used to implement a semaphore no data is ever
1152:/home/rdu/Workspace/project_templates/mcu/stm32_ws/src/libraries/FreeRTOS/Source/queue.c **** 		moved through the queue but it is still valid to see if the queue 'has
1153:/home/rdu/Workspace/project_templates/mcu/stm32_ws/src/libraries/FreeRTOS/Source/queue.c **** 		space'. */
1154:/home/rdu/Workspace/project_templates/mcu/stm32_ws/src/libraries/FreeRTOS/Source/queue.c **** 		if( uxMessagesWaiting < pxQueue->uxLength )
 1502              		.loc 1 1154 0
 1503 0096 0C9B     		ldr	r3, [sp, #48]
 1504 0098 DB6B     		ldr	r3, [r3, #60]
 1505 009a 0A9A     		ldr	r2, [sp, #40]
 1506 009c 9A42     		cmp	r2, r3
 1507 009e 2BD2     		bcs	.L110
 1508              	.LBB141:
1155:/home/rdu/Workspace/project_templates/mcu/stm32_ws/src/libraries/FreeRTOS/Source/queue.c **** 		{
1156:/home/rdu/Workspace/project_templates/mcu/stm32_ws/src/libraries/FreeRTOS/Source/queue.c **** 			const int8_t cTxLock = pxQueue->cTxLock;
 1509              		.loc 1 1156 0
 1510 00a0 0C9B     		ldr	r3, [sp, #48]
 1511 00a2 93F84530 		ldrb	r3, [r3, #69]
 1512 00a6 8DF82730 		strb	r3, [sp, #39]
1157:/home/rdu/Workspace/project_templates/mcu/stm32_ws/src/libraries/FreeRTOS/Source/queue.c **** 
1158:/home/rdu/Workspace/project_templates/mcu/stm32_ws/src/libraries/FreeRTOS/Source/queue.c **** 			traceQUEUE_SEND_FROM_ISR( pxQueue );
1159:/home/rdu/Workspace/project_templates/mcu/stm32_ws/src/libraries/FreeRTOS/Source/queue.c **** 
1160:/home/rdu/Workspace/project_templates/mcu/stm32_ws/src/libraries/FreeRTOS/Source/queue.c **** 			/* A task can only have an inherited priority if it is a mutex
1161:/home/rdu/Workspace/project_templates/mcu/stm32_ws/src/libraries/FreeRTOS/Source/queue.c **** 			holder - and if there is a mutex holder then the mutex cannot be
1162:/home/rdu/Workspace/project_templates/mcu/stm32_ws/src/libraries/FreeRTOS/Source/queue.c **** 			given from an ISR.  As this is the ISR version of the function it
1163:/home/rdu/Workspace/project_templates/mcu/stm32_ws/src/libraries/FreeRTOS/Source/queue.c **** 			can be assumed there is no mutex holder and no need to determine if
1164:/home/rdu/Workspace/project_templates/mcu/stm32_ws/src/libraries/FreeRTOS/Source/queue.c **** 			priority disinheritance is needed.  Simply increase the count of
1165:/home/rdu/Workspace/project_templates/mcu/stm32_ws/src/libraries/FreeRTOS/Source/queue.c **** 			messages (semaphores) available. */
1166:/home/rdu/Workspace/project_templates/mcu/stm32_ws/src/libraries/FreeRTOS/Source/queue.c **** 			pxQueue->uxMessagesWaiting = uxMessagesWaiting + ( UBaseType_t ) 1;
 1513              		.loc 1 1166 0
 1514 00aa 0A9B     		ldr	r3, [sp, #40]
 1515 00ac 5A1C     		adds	r2, r3, #1
 1516 00ae 0C9B     		ldr	r3, [sp, #48]
 1517 00b0 9A63     		str	r2, [r3, #56]
1167:/home/rdu/Workspace/project_templates/mcu/stm32_ws/src/libraries/FreeRTOS/Source/queue.c **** 
1168:/home/rdu/Workspace/project_templates/mcu/stm32_ws/src/libraries/FreeRTOS/Source/queue.c **** 			/* The event list is not altered if the queue is locked.  This will
1169:/home/rdu/Workspace/project_templates/mcu/stm32_ws/src/libraries/FreeRTOS/Source/queue.c **** 			be done when the queue is unlocked later. */
1170:/home/rdu/Workspace/project_templates/mcu/stm32_ws/src/libraries/FreeRTOS/Source/queue.c **** 			if( cTxLock == queueUNLOCKED )
 1518              		.loc 1 1170 0
 1519 00b2 9DF92730 		ldrsb	r3, [sp, #39]
 1520 00b6 B3F1FF3F 		cmp	r3, #-1
 1521 00ba 12D1     		bne	.L111
1171:/home/rdu/Workspace/project_templates/mcu/stm32_ws/src/libraries/FreeRTOS/Source/queue.c **** 			{
1172:/home/rdu/Workspace/project_templates/mcu/stm32_ws/src/libraries/FreeRTOS/Source/queue.c **** 				#if ( configUSE_QUEUE_SETS == 1 )
1173:/home/rdu/Workspace/project_templates/mcu/stm32_ws/src/libraries/FreeRTOS/Source/queue.c **** 				{
1174:/home/rdu/Workspace/project_templates/mcu/stm32_ws/src/libraries/FreeRTOS/Source/queue.c **** 					if( pxQueue->pxQueueSetContainer != NULL )
1175:/home/rdu/Workspace/project_templates/mcu/stm32_ws/src/libraries/FreeRTOS/Source/queue.c **** 					{
1176:/home/rdu/Workspace/project_templates/mcu/stm32_ws/src/libraries/FreeRTOS/Source/queue.c **** 						if( prvNotifyQueueSetContainer( pxQueue, queueSEND_TO_BACK ) != pdFALSE )
1177:/home/rdu/Workspace/project_templates/mcu/stm32_ws/src/libraries/FreeRTOS/Source/queue.c **** 						{
1178:/home/rdu/Workspace/project_templates/mcu/stm32_ws/src/libraries/FreeRTOS/Source/queue.c **** 							/* The semaphore is a member of a queue set, and
1179:/home/rdu/Workspace/project_templates/mcu/stm32_ws/src/libraries/FreeRTOS/Source/queue.c **** 							posting	to the queue set caused a higher priority
1180:/home/rdu/Workspace/project_templates/mcu/stm32_ws/src/libraries/FreeRTOS/Source/queue.c **** 							task to	unblock.  A context switch is required. */
1181:/home/rdu/Workspace/project_templates/mcu/stm32_ws/src/libraries/FreeRTOS/Source/queue.c **** 							if( pxHigherPriorityTaskWoken != NULL )
1182:/home/rdu/Workspace/project_templates/mcu/stm32_ws/src/libraries/FreeRTOS/Source/queue.c **** 							{
1183:/home/rdu/Workspace/project_templates/mcu/stm32_ws/src/libraries/FreeRTOS/Source/queue.c **** 								*pxHigherPriorityTaskWoken = pdTRUE;
1184:/home/rdu/Workspace/project_templates/mcu/stm32_ws/src/libraries/FreeRTOS/Source/queue.c **** 							}
1185:/home/rdu/Workspace/project_templates/mcu/stm32_ws/src/libraries/FreeRTOS/Source/queue.c **** 							else
1186:/home/rdu/Workspace/project_templates/mcu/stm32_ws/src/libraries/FreeRTOS/Source/queue.c **** 							{
1187:/home/rdu/Workspace/project_templates/mcu/stm32_ws/src/libraries/FreeRTOS/Source/queue.c **** 								mtCOVERAGE_TEST_MARKER();
1188:/home/rdu/Workspace/project_templates/mcu/stm32_ws/src/libraries/FreeRTOS/Source/queue.c **** 							}
1189:/home/rdu/Workspace/project_templates/mcu/stm32_ws/src/libraries/FreeRTOS/Source/queue.c **** 						}
1190:/home/rdu/Workspace/project_templates/mcu/stm32_ws/src/libraries/FreeRTOS/Source/queue.c **** 						else
1191:/home/rdu/Workspace/project_templates/mcu/stm32_ws/src/libraries/FreeRTOS/Source/queue.c **** 						{
1192:/home/rdu/Workspace/project_templates/mcu/stm32_ws/src/libraries/FreeRTOS/Source/queue.c **** 							mtCOVERAGE_TEST_MARKER();
1193:/home/rdu/Workspace/project_templates/mcu/stm32_ws/src/libraries/FreeRTOS/Source/queue.c **** 						}
1194:/home/rdu/Workspace/project_templates/mcu/stm32_ws/src/libraries/FreeRTOS/Source/queue.c **** 					}
1195:/home/rdu/Workspace/project_templates/mcu/stm32_ws/src/libraries/FreeRTOS/Source/queue.c **** 					else
1196:/home/rdu/Workspace/project_templates/mcu/stm32_ws/src/libraries/FreeRTOS/Source/queue.c **** 					{
1197:/home/rdu/Workspace/project_templates/mcu/stm32_ws/src/libraries/FreeRTOS/Source/queue.c **** 						if( listLIST_IS_EMPTY( &( pxQueue->xTasksWaitingToReceive ) ) == pdFALSE )
1198:/home/rdu/Workspace/project_templates/mcu/stm32_ws/src/libraries/FreeRTOS/Source/queue.c **** 						{
1199:/home/rdu/Workspace/project_templates/mcu/stm32_ws/src/libraries/FreeRTOS/Source/queue.c **** 							if( xTaskRemoveFromEventList( &( pxQueue->xTasksWaitingToReceive ) ) != pdFALSE )
1200:/home/rdu/Workspace/project_templates/mcu/stm32_ws/src/libraries/FreeRTOS/Source/queue.c **** 							{
1201:/home/rdu/Workspace/project_templates/mcu/stm32_ws/src/libraries/FreeRTOS/Source/queue.c **** 								/* The task waiting has a higher priority so
1202:/home/rdu/Workspace/project_templates/mcu/stm32_ws/src/libraries/FreeRTOS/Source/queue.c **** 								record that a context switch is required. */
1203:/home/rdu/Workspace/project_templates/mcu/stm32_ws/src/libraries/FreeRTOS/Source/queue.c **** 								if( pxHigherPriorityTaskWoken != NULL )
1204:/home/rdu/Workspace/project_templates/mcu/stm32_ws/src/libraries/FreeRTOS/Source/queue.c **** 								{
1205:/home/rdu/Workspace/project_templates/mcu/stm32_ws/src/libraries/FreeRTOS/Source/queue.c **** 									*pxHigherPriorityTaskWoken = pdTRUE;
1206:/home/rdu/Workspace/project_templates/mcu/stm32_ws/src/libraries/FreeRTOS/Source/queue.c **** 								}
1207:/home/rdu/Workspace/project_templates/mcu/stm32_ws/src/libraries/FreeRTOS/Source/queue.c **** 								else
1208:/home/rdu/Workspace/project_templates/mcu/stm32_ws/src/libraries/FreeRTOS/Source/queue.c **** 								{
1209:/home/rdu/Workspace/project_templates/mcu/stm32_ws/src/libraries/FreeRTOS/Source/queue.c **** 									mtCOVERAGE_TEST_MARKER();
1210:/home/rdu/Workspace/project_templates/mcu/stm32_ws/src/libraries/FreeRTOS/Source/queue.c **** 								}
1211:/home/rdu/Workspace/project_templates/mcu/stm32_ws/src/libraries/FreeRTOS/Source/queue.c **** 							}
1212:/home/rdu/Workspace/project_templates/mcu/stm32_ws/src/libraries/FreeRTOS/Source/queue.c **** 							else
1213:/home/rdu/Workspace/project_templates/mcu/stm32_ws/src/libraries/FreeRTOS/Source/queue.c **** 							{
1214:/home/rdu/Workspace/project_templates/mcu/stm32_ws/src/libraries/FreeRTOS/Source/queue.c **** 								mtCOVERAGE_TEST_MARKER();
1215:/home/rdu/Workspace/project_templates/mcu/stm32_ws/src/libraries/FreeRTOS/Source/queue.c **** 							}
1216:/home/rdu/Workspace/project_templates/mcu/stm32_ws/src/libraries/FreeRTOS/Source/queue.c **** 						}
1217:/home/rdu/Workspace/project_templates/mcu/stm32_ws/src/libraries/FreeRTOS/Source/queue.c **** 						else
1218:/home/rdu/Workspace/project_templates/mcu/stm32_ws/src/libraries/FreeRTOS/Source/queue.c **** 						{
1219:/home/rdu/Workspace/project_templates/mcu/stm32_ws/src/libraries/FreeRTOS/Source/queue.c **** 							mtCOVERAGE_TEST_MARKER();
1220:/home/rdu/Workspace/project_templates/mcu/stm32_ws/src/libraries/FreeRTOS/Source/queue.c **** 						}
1221:/home/rdu/Workspace/project_templates/mcu/stm32_ws/src/libraries/FreeRTOS/Source/queue.c **** 					}
1222:/home/rdu/Workspace/project_templates/mcu/stm32_ws/src/libraries/FreeRTOS/Source/queue.c **** 				}
1223:/home/rdu/Workspace/project_templates/mcu/stm32_ws/src/libraries/FreeRTOS/Source/queue.c **** 				#else /* configUSE_QUEUE_SETS */
1224:/home/rdu/Workspace/project_templates/mcu/stm32_ws/src/libraries/FreeRTOS/Source/queue.c **** 				{
1225:/home/rdu/Workspace/project_templates/mcu/stm32_ws/src/libraries/FreeRTOS/Source/queue.c **** 					if( listLIST_IS_EMPTY( &( pxQueue->xTasksWaitingToReceive ) ) == pdFALSE )
 1522              		.loc 1 1225 0
 1523 00bc 0C9B     		ldr	r3, [sp, #48]
 1524 00be 5B6A     		ldr	r3, [r3, #36]
 1525 00c0 002B     		cmp	r3, #0
 1526 00c2 16D0     		beq	.L112
1226:/home/rdu/Workspace/project_templates/mcu/stm32_ws/src/libraries/FreeRTOS/Source/queue.c **** 					{
1227:/home/rdu/Workspace/project_templates/mcu/stm32_ws/src/libraries/FreeRTOS/Source/queue.c **** 						if( xTaskRemoveFromEventList( &( pxQueue->xTasksWaitingToReceive ) ) != pdFALSE )
 1527              		.loc 1 1227 0
 1528 00c4 0C9B     		ldr	r3, [sp, #48]
 1529 00c6 2433     		adds	r3, r3, #36
 1530 00c8 1846     		mov	r0, r3
 1531 00ca FFF7FEFF 		bl	xTaskRemoveFromEventList
 1532 00ce 0346     		mov	r3, r0
 1533 00d0 002B     		cmp	r3, #0
 1534 00d2 0ED0     		beq	.L112
1228:/home/rdu/Workspace/project_templates/mcu/stm32_ws/src/libraries/FreeRTOS/Source/queue.c **** 						{
1229:/home/rdu/Workspace/project_templates/mcu/stm32_ws/src/libraries/FreeRTOS/Source/queue.c **** 							/* The task waiting has a higher priority so record that a
1230:/home/rdu/Workspace/project_templates/mcu/stm32_ws/src/libraries/FreeRTOS/Source/queue.c **** 							context	switch is required. */
1231:/home/rdu/Workspace/project_templates/mcu/stm32_ws/src/libraries/FreeRTOS/Source/queue.c **** 							if( pxHigherPriorityTaskWoken != NULL )
 1535              		.loc 1 1231 0
 1536 00d4 009B     		ldr	r3, [sp]
 1537 00d6 002B     		cmp	r3, #0
 1538 00d8 0BD0     		beq	.L112
1232:/home/rdu/Workspace/project_templates/mcu/stm32_ws/src/libraries/FreeRTOS/Source/queue.c **** 							{
1233:/home/rdu/Workspace/project_templates/mcu/stm32_ws/src/libraries/FreeRTOS/Source/queue.c **** 								*pxHigherPriorityTaskWoken = pdTRUE;
 1539              		.loc 1 1233 0
 1540 00da 009B     		ldr	r3, [sp]
 1541 00dc 0122     		movs	r2, #1
 1542 00de 1A60     		str	r2, [r3]
 1543 00e0 07E0     		b	.L112
 1544              	.L111:
1234:/home/rdu/Workspace/project_templates/mcu/stm32_ws/src/libraries/FreeRTOS/Source/queue.c **** 							}
1235:/home/rdu/Workspace/project_templates/mcu/stm32_ws/src/libraries/FreeRTOS/Source/queue.c **** 							else
1236:/home/rdu/Workspace/project_templates/mcu/stm32_ws/src/libraries/FreeRTOS/Source/queue.c **** 							{
1237:/home/rdu/Workspace/project_templates/mcu/stm32_ws/src/libraries/FreeRTOS/Source/queue.c **** 								mtCOVERAGE_TEST_MARKER();
1238:/home/rdu/Workspace/project_templates/mcu/stm32_ws/src/libraries/FreeRTOS/Source/queue.c **** 							}
1239:/home/rdu/Workspace/project_templates/mcu/stm32_ws/src/libraries/FreeRTOS/Source/queue.c **** 						}
1240:/home/rdu/Workspace/project_templates/mcu/stm32_ws/src/libraries/FreeRTOS/Source/queue.c **** 						else
1241:/home/rdu/Workspace/project_templates/mcu/stm32_ws/src/libraries/FreeRTOS/Source/queue.c **** 						{
1242:/home/rdu/Workspace/project_templates/mcu/stm32_ws/src/libraries/FreeRTOS/Source/queue.c **** 							mtCOVERAGE_TEST_MARKER();
1243:/home/rdu/Workspace/project_templates/mcu/stm32_ws/src/libraries/FreeRTOS/Source/queue.c **** 						}
1244:/home/rdu/Workspace/project_templates/mcu/stm32_ws/src/libraries/FreeRTOS/Source/queue.c **** 					}
1245:/home/rdu/Workspace/project_templates/mcu/stm32_ws/src/libraries/FreeRTOS/Source/queue.c **** 					else
1246:/home/rdu/Workspace/project_templates/mcu/stm32_ws/src/libraries/FreeRTOS/Source/queue.c **** 					{
1247:/home/rdu/Workspace/project_templates/mcu/stm32_ws/src/libraries/FreeRTOS/Source/queue.c **** 						mtCOVERAGE_TEST_MARKER();
1248:/home/rdu/Workspace/project_templates/mcu/stm32_ws/src/libraries/FreeRTOS/Source/queue.c **** 					}
1249:/home/rdu/Workspace/project_templates/mcu/stm32_ws/src/libraries/FreeRTOS/Source/queue.c **** 				}
1250:/home/rdu/Workspace/project_templates/mcu/stm32_ws/src/libraries/FreeRTOS/Source/queue.c **** 				#endif /* configUSE_QUEUE_SETS */
1251:/home/rdu/Workspace/project_templates/mcu/stm32_ws/src/libraries/FreeRTOS/Source/queue.c **** 			}
1252:/home/rdu/Workspace/project_templates/mcu/stm32_ws/src/libraries/FreeRTOS/Source/queue.c **** 			else
1253:/home/rdu/Workspace/project_templates/mcu/stm32_ws/src/libraries/FreeRTOS/Source/queue.c **** 			{
1254:/home/rdu/Workspace/project_templates/mcu/stm32_ws/src/libraries/FreeRTOS/Source/queue.c **** 				/* Increment the lock count so the task that unlocks the queue
1255:/home/rdu/Workspace/project_templates/mcu/stm32_ws/src/libraries/FreeRTOS/Source/queue.c **** 				knows that data was posted while it was locked. */
1256:/home/rdu/Workspace/project_templates/mcu/stm32_ws/src/libraries/FreeRTOS/Source/queue.c **** 				pxQueue->cTxLock = ( int8_t ) ( cTxLock + 1 );
 1545              		.loc 1 1256 0
 1546 00e2 9DF82730 		ldrb	r3, [sp, #39]	@ zero_extendqisi2
 1547 00e6 0133     		adds	r3, r3, #1
 1548 00e8 DBB2     		uxtb	r3, r3
 1549 00ea 5AB2     		sxtb	r2, r3
 1550 00ec 0C9B     		ldr	r3, [sp, #48]
 1551 00ee 83F84520 		strb	r2, [r3, #69]
 1552              	.L112:
1257:/home/rdu/Workspace/project_templates/mcu/stm32_ws/src/libraries/FreeRTOS/Source/queue.c **** 			}
1258:/home/rdu/Workspace/project_templates/mcu/stm32_ws/src/libraries/FreeRTOS/Source/queue.c **** 
1259:/home/rdu/Workspace/project_templates/mcu/stm32_ws/src/libraries/FreeRTOS/Source/queue.c **** 			xReturn = pdPASS;
 1553              		.loc 1 1259 0
 1554 00f2 0123     		movs	r3, #1
 1555 00f4 0D93     		str	r3, [sp, #52]
 1556              	.LBE141:
 1557 00f6 01E0     		b	.L113
 1558              	.L110:
1260:/home/rdu/Workspace/project_templates/mcu/stm32_ws/src/libraries/FreeRTOS/Source/queue.c **** 		}
1261:/home/rdu/Workspace/project_templates/mcu/stm32_ws/src/libraries/FreeRTOS/Source/queue.c **** 		else
1262:/home/rdu/Workspace/project_templates/mcu/stm32_ws/src/libraries/FreeRTOS/Source/queue.c **** 		{
1263:/home/rdu/Workspace/project_templates/mcu/stm32_ws/src/libraries/FreeRTOS/Source/queue.c **** 			traceQUEUE_SEND_FROM_ISR_FAILED( pxQueue );
1264:/home/rdu/Workspace/project_templates/mcu/stm32_ws/src/libraries/FreeRTOS/Source/queue.c **** 			xReturn = errQUEUE_FULL;
 1559              		.loc 1 1264 0
 1560 00f8 0023     		movs	r3, #0
 1561 00fa 0D93     		str	r3, [sp, #52]
 1562              	.L113:
 1563 00fc 0B9B     		ldr	r3, [sp, #44]
 1564 00fe 0393     		str	r3, [sp, #12]
 1565              	.LBE140:
 1566              	.LBB142:
 1567              	.LBB143:
 1568              		.loc 2 229 0
 1569 0100 039B     		ldr	r3, [sp, #12]
 1570              		.syntax unified
 1571              	@ 229 "/home/rdu/Workspace/project_templates/mcu/stm32_ws/src/libraries/FreeRTOS/Source/portable/GC
 1572 0102 83F31188 			msr basepri, r3	
 1573              	@ 0 "" 2
 1574              		.thumb
 1575              		.syntax unified
 1576              	.LBE143:
 1577              	.LBE142:
1265:/home/rdu/Workspace/project_templates/mcu/stm32_ws/src/libraries/FreeRTOS/Source/queue.c **** 		}
1266:/home/rdu/Workspace/project_templates/mcu/stm32_ws/src/libraries/FreeRTOS/Source/queue.c **** 	}
1267:/home/rdu/Workspace/project_templates/mcu/stm32_ws/src/libraries/FreeRTOS/Source/queue.c **** 	portCLEAR_INTERRUPT_MASK_FROM_ISR( uxSavedInterruptStatus );
1268:/home/rdu/Workspace/project_templates/mcu/stm32_ws/src/libraries/FreeRTOS/Source/queue.c **** 
1269:/home/rdu/Workspace/project_templates/mcu/stm32_ws/src/libraries/FreeRTOS/Source/queue.c **** 	return xReturn;
 1578              		.loc 1 1269 0
 1579 0106 0D9B     		ldr	r3, [sp, #52]
1270:/home/rdu/Workspace/project_templates/mcu/stm32_ws/src/libraries/FreeRTOS/Source/queue.c **** }
 1580              		.loc 1 1270 0
 1581 0108 1846     		mov	r0, r3
 1582 010a 0FB0     		add	sp, sp, #60
 1583              	.LCFI32:
 1584              		.cfi_def_cfa_offset 4
 1585              		@ sp needed
 1586 010c 5DF804FB 		ldr	pc, [sp], #4
 1587              		.cfi_endproc
 1588              	.LFE15:
 1590              		.section	.text.xQueueReceive,"ax",%progbits
 1591              		.align	1
 1592              		.global	xQueueReceive
 1593              		.syntax unified
 1594              		.thumb
 1595              		.thumb_func
 1596              		.fpu fpv4-sp-d16
 1598              	xQueueReceive:
 1599              	.LFB16:
1271:/home/rdu/Workspace/project_templates/mcu/stm32_ws/src/libraries/FreeRTOS/Source/queue.c **** /*-----------------------------------------------------------*/
1272:/home/rdu/Workspace/project_templates/mcu/stm32_ws/src/libraries/FreeRTOS/Source/queue.c **** 
1273:/home/rdu/Workspace/project_templates/mcu/stm32_ws/src/libraries/FreeRTOS/Source/queue.c **** BaseType_t xQueueReceive( QueueHandle_t xQueue, void * const pvBuffer, TickType_t xTicksToWait )
1274:/home/rdu/Workspace/project_templates/mcu/stm32_ws/src/libraries/FreeRTOS/Source/queue.c **** {
 1600              		.loc 1 1274 0
 1601              		.cfi_startproc
 1602              		@ args = 0, pretend = 0, frame = 48
 1603              		@ frame_needed = 0, uses_anonymous_args = 0
 1604 0000 00B5     		push	{lr}
 1605              	.LCFI33:
 1606              		.cfi_def_cfa_offset 4
 1607              		.cfi_offset 14, -4
 1608 0002 8DB0     		sub	sp, sp, #52
 1609              	.LCFI34:
 1610              		.cfi_def_cfa_offset 56
 1611 0004 0390     		str	r0, [sp, #12]
 1612 0006 0291     		str	r1, [sp, #8]
 1613 0008 0192     		str	r2, [sp, #4]
1275:/home/rdu/Workspace/project_templates/mcu/stm32_ws/src/libraries/FreeRTOS/Source/queue.c **** BaseType_t xEntryTimeSet = pdFALSE;
 1614              		.loc 1 1275 0
 1615 000a 0023     		movs	r3, #0
 1616 000c 0B93     		str	r3, [sp, #44]
1276:/home/rdu/Workspace/project_templates/mcu/stm32_ws/src/libraries/FreeRTOS/Source/queue.c **** TimeOut_t xTimeOut;
1277:/home/rdu/Workspace/project_templates/mcu/stm32_ws/src/libraries/FreeRTOS/Source/queue.c **** Queue_t * const pxQueue = xQueue;
 1617              		.loc 1 1277 0
 1618 000e 039B     		ldr	r3, [sp, #12]
 1619 0010 0A93     		str	r3, [sp, #40]
1278:/home/rdu/Workspace/project_templates/mcu/stm32_ws/src/libraries/FreeRTOS/Source/queue.c **** 
1279:/home/rdu/Workspace/project_templates/mcu/stm32_ws/src/libraries/FreeRTOS/Source/queue.c **** 	/* Check the pointer is not NULL. */
1280:/home/rdu/Workspace/project_templates/mcu/stm32_ws/src/libraries/FreeRTOS/Source/queue.c **** 	configASSERT( ( pxQueue ) );
 1620              		.loc 1 1280 0
 1621 0012 0A9B     		ldr	r3, [sp, #40]
 1622 0014 002B     		cmp	r3, #0
 1623 0016 09D1     		bne	.L116
 1624              	.LBB144:
 1625              	.LBB145:
 195:/home/rdu/Workspace/project_templates/mcu/stm32_ws/src/libraries/FreeRTOS/Source/portable/GCC/ARM_CM4F/portmacro.h **** 	(
 1626              		.loc 2 195 0 discriminator 1
 1627              		.syntax unified
 1628              	@ 195 "/home/rdu/Workspace/project_templates/mcu/stm32_ws/src/libraries/FreeRTOS/Source/portable/GC
 1629 0018 4FF05003 			mov r3, #80												
 1630 001c 83F31188 		msr basepri, r3											
 1631 0020 BFF36F8F 		isb														
 1632 0024 BFF34F8F 		dsb														
 1633              	
 1634              	@ 0 "" 2
 1635              		.thumb
 1636              		.syntax unified
 1637 0028 0893     		str	r3, [sp, #32]
 1638              	.L117:
 1639              	.LBE145:
 1640              	.LBE144:
 1641              		.loc 1 1280 0 discriminator 1
 1642 002a FEE7     		b	.L117
 1643              	.L116:
1281:/home/rdu/Workspace/project_templates/mcu/stm32_ws/src/libraries/FreeRTOS/Source/queue.c **** 
1282:/home/rdu/Workspace/project_templates/mcu/stm32_ws/src/libraries/FreeRTOS/Source/queue.c **** 	/* The buffer into which data is received can only be NULL if the data size
1283:/home/rdu/Workspace/project_templates/mcu/stm32_ws/src/libraries/FreeRTOS/Source/queue.c **** 	is zero (so no data is copied into the buffer. */
1284:/home/rdu/Workspace/project_templates/mcu/stm32_ws/src/libraries/FreeRTOS/Source/queue.c **** 	configASSERT( !( ( ( pvBuffer ) == NULL ) && ( ( pxQueue )->uxItemSize != ( UBaseType_t ) 0U ) ) )
 1644              		.loc 1 1284 0
 1645 002c 029B     		ldr	r3, [sp, #8]
 1646 002e 002B     		cmp	r3, #0
 1647 0030 03D1     		bne	.L118
 1648              		.loc 1 1284 0 is_stmt 0 discriminator 2
 1649 0032 0A9B     		ldr	r3, [sp, #40]
 1650 0034 1B6C     		ldr	r3, [r3, #64]
 1651 0036 002B     		cmp	r3, #0
 1652 0038 01D1     		bne	.L119
 1653              	.L118:
 1654              		.loc 1 1284 0 discriminator 3
 1655 003a 0123     		movs	r3, #1
 1656 003c 00E0     		b	.L120
 1657              	.L119:
 1658              		.loc 1 1284 0 discriminator 4
 1659 003e 0023     		movs	r3, #0
 1660              	.L120:
 1661              		.loc 1 1284 0 discriminator 6
 1662 0040 002B     		cmp	r3, #0
 1663 0042 09D1     		bne	.L121
 1664              	.LBB146:
 1665              	.LBB147:
 195:/home/rdu/Workspace/project_templates/mcu/stm32_ws/src/libraries/FreeRTOS/Source/portable/GCC/ARM_CM4F/portmacro.h **** 	(
 1666              		.loc 2 195 0 is_stmt 1 discriminator 7
 1667              		.syntax unified
 1668              	@ 195 "/home/rdu/Workspace/project_templates/mcu/stm32_ws/src/libraries/FreeRTOS/Source/portable/GC
 1669 0044 4FF05003 			mov r3, #80												
 1670 0048 83F31188 		msr basepri, r3											
 1671 004c BFF36F8F 		isb														
 1672 0050 BFF34F8F 		dsb														
 1673              	
 1674              	@ 0 "" 2
 1675              		.thumb
 1676              		.syntax unified
 1677 0054 0793     		str	r3, [sp, #28]
 1678              	.L122:
 1679              	.LBE147:
 1680              	.LBE146:
 1681              		.loc 1 1284 0 discriminator 2
 1682 0056 FEE7     		b	.L122
 1683              	.L121:
1285:/home/rdu/Workspace/project_templates/mcu/stm32_ws/src/libraries/FreeRTOS/Source/queue.c **** 
1286:/home/rdu/Workspace/project_templates/mcu/stm32_ws/src/libraries/FreeRTOS/Source/queue.c **** 	/* Cannot block if the scheduler is suspended. */
1287:/home/rdu/Workspace/project_templates/mcu/stm32_ws/src/libraries/FreeRTOS/Source/queue.c **** 	#if ( ( INCLUDE_xTaskGetSchedulerState == 1 ) || ( configUSE_TIMERS == 1 ) )
1288:/home/rdu/Workspace/project_templates/mcu/stm32_ws/src/libraries/FreeRTOS/Source/queue.c **** 	{
1289:/home/rdu/Workspace/project_templates/mcu/stm32_ws/src/libraries/FreeRTOS/Source/queue.c **** 		configASSERT( !( ( xTaskGetSchedulerState() == taskSCHEDULER_SUSPENDED ) && ( xTicksToWait != 0 )
 1684              		.loc 1 1289 0
 1685 0058 FFF7FEFF 		bl	xTaskGetSchedulerState
 1686 005c 0346     		mov	r3, r0
 1687 005e 002B     		cmp	r3, #0
 1688 0060 02D1     		bne	.L123
 1689              		.loc 1 1289 0 is_stmt 0 discriminator 2
 1690 0062 019B     		ldr	r3, [sp, #4]
 1691 0064 002B     		cmp	r3, #0
 1692 0066 01D1     		bne	.L124
 1693              	.L123:
 1694              		.loc 1 1289 0 discriminator 3
 1695 0068 0123     		movs	r3, #1
 1696 006a 00E0     		b	.L125
 1697              	.L124:
 1698              		.loc 1 1289 0 discriminator 4
 1699 006c 0023     		movs	r3, #0
 1700              	.L125:
 1701              		.loc 1 1289 0 discriminator 6
 1702 006e 002B     		cmp	r3, #0
 1703 0070 09D1     		bne	.L126
 1704              	.LBB148:
 1705              	.LBB149:
 195:/home/rdu/Workspace/project_templates/mcu/stm32_ws/src/libraries/FreeRTOS/Source/portable/GCC/ARM_CM4F/portmacro.h **** 	(
 1706              		.loc 2 195 0 is_stmt 1 discriminator 7
 1707              		.syntax unified
 1708              	@ 195 "/home/rdu/Workspace/project_templates/mcu/stm32_ws/src/libraries/FreeRTOS/Source/portable/GC
 1709 0072 4FF05003 			mov r3, #80												
 1710 0076 83F31188 		msr basepri, r3											
 1711 007a BFF36F8F 		isb														
 1712 007e BFF34F8F 		dsb														
 1713              	
 1714              	@ 0 "" 2
 1715              		.thumb
 1716              		.syntax unified
 1717 0082 0693     		str	r3, [sp, #24]
 1718              	.L127:
 1719              	.LBE149:
 1720              	.LBE148:
 1721              		.loc 1 1289 0 discriminator 3
 1722 0084 FEE7     		b	.L127
 1723              	.L126:
1290:/home/rdu/Workspace/project_templates/mcu/stm32_ws/src/libraries/FreeRTOS/Source/queue.c **** 	}
1291:/home/rdu/Workspace/project_templates/mcu/stm32_ws/src/libraries/FreeRTOS/Source/queue.c **** 	#endif
1292:/home/rdu/Workspace/project_templates/mcu/stm32_ws/src/libraries/FreeRTOS/Source/queue.c **** 
1293:/home/rdu/Workspace/project_templates/mcu/stm32_ws/src/libraries/FreeRTOS/Source/queue.c **** 
1294:/home/rdu/Workspace/project_templates/mcu/stm32_ws/src/libraries/FreeRTOS/Source/queue.c **** 	/*lint -save -e904  This function relaxes the coding standard somewhat to
1295:/home/rdu/Workspace/project_templates/mcu/stm32_ws/src/libraries/FreeRTOS/Source/queue.c **** 	allow return statements within the function itself.  This is done in the
1296:/home/rdu/Workspace/project_templates/mcu/stm32_ws/src/libraries/FreeRTOS/Source/queue.c **** 	interest of execution time efficiency. */
1297:/home/rdu/Workspace/project_templates/mcu/stm32_ws/src/libraries/FreeRTOS/Source/queue.c **** 	for( ;; )
1298:/home/rdu/Workspace/project_templates/mcu/stm32_ws/src/libraries/FreeRTOS/Source/queue.c **** 	{
1299:/home/rdu/Workspace/project_templates/mcu/stm32_ws/src/libraries/FreeRTOS/Source/queue.c **** 		taskENTER_CRITICAL();
 1724              		.loc 1 1299 0
 1725 0086 FFF7FEFF 		bl	vPortEnterCritical
 1726              	.LBB150:
1300:/home/rdu/Workspace/project_templates/mcu/stm32_ws/src/libraries/FreeRTOS/Source/queue.c **** 		{
1301:/home/rdu/Workspace/project_templates/mcu/stm32_ws/src/libraries/FreeRTOS/Source/queue.c **** 			const UBaseType_t uxMessagesWaiting = pxQueue->uxMessagesWaiting;
 1727              		.loc 1 1301 0
 1728 008a 0A9B     		ldr	r3, [sp, #40]
 1729 008c 9B6B     		ldr	r3, [r3, #56]
 1730 008e 0993     		str	r3, [sp, #36]
1302:/home/rdu/Workspace/project_templates/mcu/stm32_ws/src/libraries/FreeRTOS/Source/queue.c **** 
1303:/home/rdu/Workspace/project_templates/mcu/stm32_ws/src/libraries/FreeRTOS/Source/queue.c **** 			/* Is there data in the queue now?  To be running the calling task
1304:/home/rdu/Workspace/project_templates/mcu/stm32_ws/src/libraries/FreeRTOS/Source/queue.c **** 			must be the highest priority task wanting to access the queue. */
1305:/home/rdu/Workspace/project_templates/mcu/stm32_ws/src/libraries/FreeRTOS/Source/queue.c **** 			if( uxMessagesWaiting > ( UBaseType_t ) 0 )
 1731              		.loc 1 1305 0
 1732 0090 099B     		ldr	r3, [sp, #36]
 1733 0092 002B     		cmp	r3, #0
 1734 0094 1FD0     		beq	.L128
1306:/home/rdu/Workspace/project_templates/mcu/stm32_ws/src/libraries/FreeRTOS/Source/queue.c **** 			{
1307:/home/rdu/Workspace/project_templates/mcu/stm32_ws/src/libraries/FreeRTOS/Source/queue.c **** 				/* Data available, remove one item. */
1308:/home/rdu/Workspace/project_templates/mcu/stm32_ws/src/libraries/FreeRTOS/Source/queue.c **** 				prvCopyDataFromQueue( pxQueue, pvBuffer );
 1735              		.loc 1 1308 0
 1736 0096 0299     		ldr	r1, [sp, #8]
 1737 0098 0A98     		ldr	r0, [sp, #40]
 1738 009a FFF7FEFF 		bl	prvCopyDataFromQueue
1309:/home/rdu/Workspace/project_templates/mcu/stm32_ws/src/libraries/FreeRTOS/Source/queue.c **** 				traceQUEUE_RECEIVE( pxQueue );
1310:/home/rdu/Workspace/project_templates/mcu/stm32_ws/src/libraries/FreeRTOS/Source/queue.c **** 				pxQueue->uxMessagesWaiting = uxMessagesWaiting - ( UBaseType_t ) 1;
 1739              		.loc 1 1310 0
 1740 009e 099B     		ldr	r3, [sp, #36]
 1741 00a0 5A1E     		subs	r2, r3, #1
 1742 00a2 0A9B     		ldr	r3, [sp, #40]
 1743 00a4 9A63     		str	r2, [r3, #56]
1311:/home/rdu/Workspace/project_templates/mcu/stm32_ws/src/libraries/FreeRTOS/Source/queue.c **** 
1312:/home/rdu/Workspace/project_templates/mcu/stm32_ws/src/libraries/FreeRTOS/Source/queue.c **** 				/* There is now space in the queue, were any tasks waiting to
1313:/home/rdu/Workspace/project_templates/mcu/stm32_ws/src/libraries/FreeRTOS/Source/queue.c **** 				post to the queue?  If so, unblock the highest priority waiting
1314:/home/rdu/Workspace/project_templates/mcu/stm32_ws/src/libraries/FreeRTOS/Source/queue.c **** 				task. */
1315:/home/rdu/Workspace/project_templates/mcu/stm32_ws/src/libraries/FreeRTOS/Source/queue.c **** 				if( listLIST_IS_EMPTY( &( pxQueue->xTasksWaitingToSend ) ) == pdFALSE )
 1744              		.loc 1 1315 0
 1745 00a6 0A9B     		ldr	r3, [sp, #40]
 1746 00a8 1B69     		ldr	r3, [r3, #16]
 1747 00aa 002B     		cmp	r3, #0
 1748 00ac 0FD0     		beq	.L129
1316:/home/rdu/Workspace/project_templates/mcu/stm32_ws/src/libraries/FreeRTOS/Source/queue.c **** 				{
1317:/home/rdu/Workspace/project_templates/mcu/stm32_ws/src/libraries/FreeRTOS/Source/queue.c **** 					if( xTaskRemoveFromEventList( &( pxQueue->xTasksWaitingToSend ) ) != pdFALSE )
 1749              		.loc 1 1317 0
 1750 00ae 0A9B     		ldr	r3, [sp, #40]
 1751 00b0 1033     		adds	r3, r3, #16
 1752 00b2 1846     		mov	r0, r3
 1753 00b4 FFF7FEFF 		bl	xTaskRemoveFromEventList
 1754 00b8 0346     		mov	r3, r0
 1755 00ba 002B     		cmp	r3, #0
 1756 00bc 07D0     		beq	.L129
1318:/home/rdu/Workspace/project_templates/mcu/stm32_ws/src/libraries/FreeRTOS/Source/queue.c **** 					{
1319:/home/rdu/Workspace/project_templates/mcu/stm32_ws/src/libraries/FreeRTOS/Source/queue.c **** 						queueYIELD_IF_USING_PREEMPTION();
 1757              		.loc 1 1319 0
 1758 00be 3C4B     		ldr	r3, .L140
 1759 00c0 4FF08052 		mov	r2, #268435456
 1760 00c4 1A60     		str	r2, [r3]
 1761              		.syntax unified
 1762              	@ 1319 "/home/rdu/Workspace/project_templates/mcu/stm32_ws/src/libraries/FreeRTOS/Source/queue.c" 1
 1763 00c6 BFF34F8F 		dsb
 1764              	@ 0 "" 2
 1765              	@ 1319 "/home/rdu/Workspace/project_templates/mcu/stm32_ws/src/libraries/FreeRTOS/Source/queue.c" 1
 1766 00ca BFF36F8F 		isb
 1767              	@ 0 "" 2
 1768              		.thumb
 1769              		.syntax unified
 1770              	.L129:
1320:/home/rdu/Workspace/project_templates/mcu/stm32_ws/src/libraries/FreeRTOS/Source/queue.c **** 					}
1321:/home/rdu/Workspace/project_templates/mcu/stm32_ws/src/libraries/FreeRTOS/Source/queue.c **** 					else
1322:/home/rdu/Workspace/project_templates/mcu/stm32_ws/src/libraries/FreeRTOS/Source/queue.c **** 					{
1323:/home/rdu/Workspace/project_templates/mcu/stm32_ws/src/libraries/FreeRTOS/Source/queue.c **** 						mtCOVERAGE_TEST_MARKER();
1324:/home/rdu/Workspace/project_templates/mcu/stm32_ws/src/libraries/FreeRTOS/Source/queue.c **** 					}
1325:/home/rdu/Workspace/project_templates/mcu/stm32_ws/src/libraries/FreeRTOS/Source/queue.c **** 				}
1326:/home/rdu/Workspace/project_templates/mcu/stm32_ws/src/libraries/FreeRTOS/Source/queue.c **** 				else
1327:/home/rdu/Workspace/project_templates/mcu/stm32_ws/src/libraries/FreeRTOS/Source/queue.c **** 				{
1328:/home/rdu/Workspace/project_templates/mcu/stm32_ws/src/libraries/FreeRTOS/Source/queue.c **** 					mtCOVERAGE_TEST_MARKER();
1329:/home/rdu/Workspace/project_templates/mcu/stm32_ws/src/libraries/FreeRTOS/Source/queue.c **** 				}
1330:/home/rdu/Workspace/project_templates/mcu/stm32_ws/src/libraries/FreeRTOS/Source/queue.c **** 
1331:/home/rdu/Workspace/project_templates/mcu/stm32_ws/src/libraries/FreeRTOS/Source/queue.c **** 				taskEXIT_CRITICAL();
 1771              		.loc 1 1331 0
 1772 00ce FFF7FEFF 		bl	vPortExitCritical
1332:/home/rdu/Workspace/project_templates/mcu/stm32_ws/src/libraries/FreeRTOS/Source/queue.c **** 				return pdPASS;
 1773              		.loc 1 1332 0
 1774 00d2 0123     		movs	r3, #1
 1775 00d4 67E0     		b	.L139
 1776              	.L128:
1333:/home/rdu/Workspace/project_templates/mcu/stm32_ws/src/libraries/FreeRTOS/Source/queue.c **** 			}
1334:/home/rdu/Workspace/project_templates/mcu/stm32_ws/src/libraries/FreeRTOS/Source/queue.c **** 			else
1335:/home/rdu/Workspace/project_templates/mcu/stm32_ws/src/libraries/FreeRTOS/Source/queue.c **** 			{
1336:/home/rdu/Workspace/project_templates/mcu/stm32_ws/src/libraries/FreeRTOS/Source/queue.c **** 				if( xTicksToWait == ( TickType_t ) 0 )
 1777              		.loc 1 1336 0
 1778 00d6 019B     		ldr	r3, [sp, #4]
 1779 00d8 002B     		cmp	r3, #0
 1780 00da 03D1     		bne	.L131
1337:/home/rdu/Workspace/project_templates/mcu/stm32_ws/src/libraries/FreeRTOS/Source/queue.c **** 				{
1338:/home/rdu/Workspace/project_templates/mcu/stm32_ws/src/libraries/FreeRTOS/Source/queue.c **** 					/* The queue was empty and no block time is specified (or
1339:/home/rdu/Workspace/project_templates/mcu/stm32_ws/src/libraries/FreeRTOS/Source/queue.c **** 					the block time has expired) so leave now. */
1340:/home/rdu/Workspace/project_templates/mcu/stm32_ws/src/libraries/FreeRTOS/Source/queue.c **** 					taskEXIT_CRITICAL();
 1781              		.loc 1 1340 0
 1782 00dc FFF7FEFF 		bl	vPortExitCritical
1341:/home/rdu/Workspace/project_templates/mcu/stm32_ws/src/libraries/FreeRTOS/Source/queue.c **** 					traceQUEUE_RECEIVE_FAILED( pxQueue );
1342:/home/rdu/Workspace/project_templates/mcu/stm32_ws/src/libraries/FreeRTOS/Source/queue.c **** 					return errQUEUE_EMPTY;
 1783              		.loc 1 1342 0
 1784 00e0 0023     		movs	r3, #0
 1785 00e2 60E0     		b	.L139
 1786              	.L131:
1343:/home/rdu/Workspace/project_templates/mcu/stm32_ws/src/libraries/FreeRTOS/Source/queue.c **** 				}
1344:/home/rdu/Workspace/project_templates/mcu/stm32_ws/src/libraries/FreeRTOS/Source/queue.c **** 				else if( xEntryTimeSet == pdFALSE )
 1787              		.loc 1 1344 0
 1788 00e4 0B9B     		ldr	r3, [sp, #44]
 1789 00e6 002B     		cmp	r3, #0
 1790 00e8 05D1     		bne	.L132
1345:/home/rdu/Workspace/project_templates/mcu/stm32_ws/src/libraries/FreeRTOS/Source/queue.c **** 				{
1346:/home/rdu/Workspace/project_templates/mcu/stm32_ws/src/libraries/FreeRTOS/Source/queue.c **** 					/* The queue was empty and a block time was specified so
1347:/home/rdu/Workspace/project_templates/mcu/stm32_ws/src/libraries/FreeRTOS/Source/queue.c **** 					configure the timeout structure. */
1348:/home/rdu/Workspace/project_templates/mcu/stm32_ws/src/libraries/FreeRTOS/Source/queue.c **** 					vTaskInternalSetTimeOutState( &xTimeOut );
 1791              		.loc 1 1348 0
 1792 00ea 04AB     		add	r3, sp, #16
 1793 00ec 1846     		mov	r0, r3
 1794 00ee FFF7FEFF 		bl	vTaskInternalSetTimeOutState
1349:/home/rdu/Workspace/project_templates/mcu/stm32_ws/src/libraries/FreeRTOS/Source/queue.c **** 					xEntryTimeSet = pdTRUE;
 1795              		.loc 1 1349 0
 1796 00f2 0123     		movs	r3, #1
 1797 00f4 0B93     		str	r3, [sp, #44]
 1798              	.L132:
 1799              	.LBE150:
1350:/home/rdu/Workspace/project_templates/mcu/stm32_ws/src/libraries/FreeRTOS/Source/queue.c **** 				}
1351:/home/rdu/Workspace/project_templates/mcu/stm32_ws/src/libraries/FreeRTOS/Source/queue.c **** 				else
1352:/home/rdu/Workspace/project_templates/mcu/stm32_ws/src/libraries/FreeRTOS/Source/queue.c **** 				{
1353:/home/rdu/Workspace/project_templates/mcu/stm32_ws/src/libraries/FreeRTOS/Source/queue.c **** 					/* Entry time was already set. */
1354:/home/rdu/Workspace/project_templates/mcu/stm32_ws/src/libraries/FreeRTOS/Source/queue.c **** 					mtCOVERAGE_TEST_MARKER();
1355:/home/rdu/Workspace/project_templates/mcu/stm32_ws/src/libraries/FreeRTOS/Source/queue.c **** 				}
1356:/home/rdu/Workspace/project_templates/mcu/stm32_ws/src/libraries/FreeRTOS/Source/queue.c **** 			}
1357:/home/rdu/Workspace/project_templates/mcu/stm32_ws/src/libraries/FreeRTOS/Source/queue.c **** 		}
1358:/home/rdu/Workspace/project_templates/mcu/stm32_ws/src/libraries/FreeRTOS/Source/queue.c **** 		taskEXIT_CRITICAL();
 1800              		.loc 1 1358 0
 1801 00f6 FFF7FEFF 		bl	vPortExitCritical
1359:/home/rdu/Workspace/project_templates/mcu/stm32_ws/src/libraries/FreeRTOS/Source/queue.c **** 
1360:/home/rdu/Workspace/project_templates/mcu/stm32_ws/src/libraries/FreeRTOS/Source/queue.c **** 		/* Interrupts and other tasks can send to and receive from the queue
1361:/home/rdu/Workspace/project_templates/mcu/stm32_ws/src/libraries/FreeRTOS/Source/queue.c **** 		now the critical section has been exited. */
1362:/home/rdu/Workspace/project_templates/mcu/stm32_ws/src/libraries/FreeRTOS/Source/queue.c **** 
1363:/home/rdu/Workspace/project_templates/mcu/stm32_ws/src/libraries/FreeRTOS/Source/queue.c **** 		vTaskSuspendAll();
 1802              		.loc 1 1363 0
 1803 00fa FFF7FEFF 		bl	vTaskSuspendAll
1364:/home/rdu/Workspace/project_templates/mcu/stm32_ws/src/libraries/FreeRTOS/Source/queue.c **** 		prvLockQueue( pxQueue );
 1804              		.loc 1 1364 0
 1805 00fe FFF7FEFF 		bl	vPortEnterCritical
 1806 0102 0A9B     		ldr	r3, [sp, #40]
 1807 0104 93F84430 		ldrb	r3, [r3, #68]
 1808 0108 5BB2     		sxtb	r3, r3
 1809 010a B3F1FF3F 		cmp	r3, #-1
 1810 010e 03D1     		bne	.L133
 1811              		.loc 1 1364 0 is_stmt 0 discriminator 1
 1812 0110 0A9B     		ldr	r3, [sp, #40]
 1813 0112 0022     		movs	r2, #0
 1814 0114 83F84420 		strb	r2, [r3, #68]
 1815              	.L133:
 1816              		.loc 1 1364 0 discriminator 3
 1817 0118 0A9B     		ldr	r3, [sp, #40]
 1818 011a 93F84530 		ldrb	r3, [r3, #69]
 1819 011e 5BB2     		sxtb	r3, r3
 1820 0120 B3F1FF3F 		cmp	r3, #-1
 1821 0124 03D1     		bne	.L134
 1822              		.loc 1 1364 0 discriminator 4
 1823 0126 0A9B     		ldr	r3, [sp, #40]
 1824 0128 0022     		movs	r2, #0
 1825 012a 83F84520 		strb	r2, [r3, #69]
 1826              	.L134:
 1827              		.loc 1 1364 0 discriminator 6
 1828 012e FFF7FEFF 		bl	vPortExitCritical
1365:/home/rdu/Workspace/project_templates/mcu/stm32_ws/src/libraries/FreeRTOS/Source/queue.c **** 
1366:/home/rdu/Workspace/project_templates/mcu/stm32_ws/src/libraries/FreeRTOS/Source/queue.c **** 		/* Update the timeout state to see if it has expired yet. */
1367:/home/rdu/Workspace/project_templates/mcu/stm32_ws/src/libraries/FreeRTOS/Source/queue.c **** 		if( xTaskCheckForTimeOut( &xTimeOut, &xTicksToWait ) == pdFALSE )
 1829              		.loc 1 1367 0 is_stmt 1 discriminator 6
 1830 0132 01AA     		add	r2, sp, #4
 1831 0134 04AB     		add	r3, sp, #16
 1832 0136 1146     		mov	r1, r2
 1833 0138 1846     		mov	r0, r3
 1834 013a FFF7FEFF 		bl	xTaskCheckForTimeOut
 1835 013e 0346     		mov	r3, r0
 1836 0140 002B     		cmp	r3, #0
 1837 0142 23D1     		bne	.L135
1368:/home/rdu/Workspace/project_templates/mcu/stm32_ws/src/libraries/FreeRTOS/Source/queue.c **** 		{
1369:/home/rdu/Workspace/project_templates/mcu/stm32_ws/src/libraries/FreeRTOS/Source/queue.c **** 			/* The timeout has not expired.  If the queue is still empty place
1370:/home/rdu/Workspace/project_templates/mcu/stm32_ws/src/libraries/FreeRTOS/Source/queue.c **** 			the task on the list of tasks waiting to receive from the queue. */
1371:/home/rdu/Workspace/project_templates/mcu/stm32_ws/src/libraries/FreeRTOS/Source/queue.c **** 			if( prvIsQueueEmpty( pxQueue ) != pdFALSE )
 1838              		.loc 1 1371 0
 1839 0144 0A98     		ldr	r0, [sp, #40]
 1840 0146 FFF7FEFF 		bl	prvIsQueueEmpty
 1841 014a 0346     		mov	r3, r0
 1842 014c 002B     		cmp	r3, #0
 1843 014e 17D0     		beq	.L136
1372:/home/rdu/Workspace/project_templates/mcu/stm32_ws/src/libraries/FreeRTOS/Source/queue.c **** 			{
1373:/home/rdu/Workspace/project_templates/mcu/stm32_ws/src/libraries/FreeRTOS/Source/queue.c **** 				traceBLOCKING_ON_QUEUE_RECEIVE( pxQueue );
1374:/home/rdu/Workspace/project_templates/mcu/stm32_ws/src/libraries/FreeRTOS/Source/queue.c **** 				vTaskPlaceOnEventList( &( pxQueue->xTasksWaitingToReceive ), xTicksToWait );
 1844              		.loc 1 1374 0
 1845 0150 0A9B     		ldr	r3, [sp, #40]
 1846 0152 2433     		adds	r3, r3, #36
 1847 0154 019A     		ldr	r2, [sp, #4]
 1848 0156 1146     		mov	r1, r2
 1849 0158 1846     		mov	r0, r3
 1850 015a FFF7FEFF 		bl	vTaskPlaceOnEventList
1375:/home/rdu/Workspace/project_templates/mcu/stm32_ws/src/libraries/FreeRTOS/Source/queue.c **** 				prvUnlockQueue( pxQueue );
 1851              		.loc 1 1375 0
 1852 015e 0A98     		ldr	r0, [sp, #40]
 1853 0160 FFF7FEFF 		bl	prvUnlockQueue
1376:/home/rdu/Workspace/project_templates/mcu/stm32_ws/src/libraries/FreeRTOS/Source/queue.c **** 				if( xTaskResumeAll() == pdFALSE )
 1854              		.loc 1 1376 0
 1855 0164 FFF7FEFF 		bl	xTaskResumeAll
 1856 0168 0346     		mov	r3, r0
 1857 016a 002B     		cmp	r3, #0
 1858 016c 8BD1     		bne	.L126
1377:/home/rdu/Workspace/project_templates/mcu/stm32_ws/src/libraries/FreeRTOS/Source/queue.c **** 				{
1378:/home/rdu/Workspace/project_templates/mcu/stm32_ws/src/libraries/FreeRTOS/Source/queue.c **** 					portYIELD_WITHIN_API();
 1859              		.loc 1 1378 0
 1860 016e 104B     		ldr	r3, .L140
 1861 0170 4FF08052 		mov	r2, #268435456
 1862 0174 1A60     		str	r2, [r3]
 1863              		.syntax unified
 1864              	@ 1378 "/home/rdu/Workspace/project_templates/mcu/stm32_ws/src/libraries/FreeRTOS/Source/queue.c" 1
 1865 0176 BFF34F8F 		dsb
 1866              	@ 0 "" 2
 1867              	@ 1378 "/home/rdu/Workspace/project_templates/mcu/stm32_ws/src/libraries/FreeRTOS/Source/queue.c" 1
 1868 017a BFF36F8F 		isb
 1869              	@ 0 "" 2
 1870              		.thumb
 1871              		.syntax unified
 1872 017e 82E7     		b	.L126
 1873              	.L136:
1379:/home/rdu/Workspace/project_templates/mcu/stm32_ws/src/libraries/FreeRTOS/Source/queue.c **** 				}
1380:/home/rdu/Workspace/project_templates/mcu/stm32_ws/src/libraries/FreeRTOS/Source/queue.c **** 				else
1381:/home/rdu/Workspace/project_templates/mcu/stm32_ws/src/libraries/FreeRTOS/Source/queue.c **** 				{
1382:/home/rdu/Workspace/project_templates/mcu/stm32_ws/src/libraries/FreeRTOS/Source/queue.c **** 					mtCOVERAGE_TEST_MARKER();
1383:/home/rdu/Workspace/project_templates/mcu/stm32_ws/src/libraries/FreeRTOS/Source/queue.c **** 				}
1384:/home/rdu/Workspace/project_templates/mcu/stm32_ws/src/libraries/FreeRTOS/Source/queue.c **** 			}
1385:/home/rdu/Workspace/project_templates/mcu/stm32_ws/src/libraries/FreeRTOS/Source/queue.c **** 			else
1386:/home/rdu/Workspace/project_templates/mcu/stm32_ws/src/libraries/FreeRTOS/Source/queue.c **** 			{
1387:/home/rdu/Workspace/project_templates/mcu/stm32_ws/src/libraries/FreeRTOS/Source/queue.c **** 				/* The queue contains data again.  Loop back to try and read the
1388:/home/rdu/Workspace/project_templates/mcu/stm32_ws/src/libraries/FreeRTOS/Source/queue.c **** 				data. */
1389:/home/rdu/Workspace/project_templates/mcu/stm32_ws/src/libraries/FreeRTOS/Source/queue.c **** 				prvUnlockQueue( pxQueue );
 1874              		.loc 1 1389 0
 1875 0180 0A98     		ldr	r0, [sp, #40]
 1876 0182 FFF7FEFF 		bl	prvUnlockQueue
1390:/home/rdu/Workspace/project_templates/mcu/stm32_ws/src/libraries/FreeRTOS/Source/queue.c **** 				( void ) xTaskResumeAll();
 1877              		.loc 1 1390 0
 1878 0186 FFF7FEFF 		bl	xTaskResumeAll
 1879 018a 7CE7     		b	.L126
 1880              	.L135:
1391:/home/rdu/Workspace/project_templates/mcu/stm32_ws/src/libraries/FreeRTOS/Source/queue.c **** 			}
1392:/home/rdu/Workspace/project_templates/mcu/stm32_ws/src/libraries/FreeRTOS/Source/queue.c **** 		}
1393:/home/rdu/Workspace/project_templates/mcu/stm32_ws/src/libraries/FreeRTOS/Source/queue.c **** 		else
1394:/home/rdu/Workspace/project_templates/mcu/stm32_ws/src/libraries/FreeRTOS/Source/queue.c **** 		{
1395:/home/rdu/Workspace/project_templates/mcu/stm32_ws/src/libraries/FreeRTOS/Source/queue.c **** 			/* Timed out.  If there is no data in the queue exit, otherwise loop
1396:/home/rdu/Workspace/project_templates/mcu/stm32_ws/src/libraries/FreeRTOS/Source/queue.c **** 			back and attempt to read the data. */
1397:/home/rdu/Workspace/project_templates/mcu/stm32_ws/src/libraries/FreeRTOS/Source/queue.c **** 			prvUnlockQueue( pxQueue );
 1881              		.loc 1 1397 0
 1882 018c 0A98     		ldr	r0, [sp, #40]
 1883 018e FFF7FEFF 		bl	prvUnlockQueue
1398:/home/rdu/Workspace/project_templates/mcu/stm32_ws/src/libraries/FreeRTOS/Source/queue.c **** 			( void ) xTaskResumeAll();
 1884              		.loc 1 1398 0
 1885 0192 FFF7FEFF 		bl	xTaskResumeAll
1399:/home/rdu/Workspace/project_templates/mcu/stm32_ws/src/libraries/FreeRTOS/Source/queue.c **** 
1400:/home/rdu/Workspace/project_templates/mcu/stm32_ws/src/libraries/FreeRTOS/Source/queue.c **** 			if( prvIsQueueEmpty( pxQueue ) != pdFALSE )
 1886              		.loc 1 1400 0
 1887 0196 0A98     		ldr	r0, [sp, #40]
 1888 0198 FFF7FEFF 		bl	prvIsQueueEmpty
 1889 019c 0346     		mov	r3, r0
 1890 019e 002B     		cmp	r3, #0
 1891 01a0 3FF471AF 		beq	.L126
1401:/home/rdu/Workspace/project_templates/mcu/stm32_ws/src/libraries/FreeRTOS/Source/queue.c **** 			{
1402:/home/rdu/Workspace/project_templates/mcu/stm32_ws/src/libraries/FreeRTOS/Source/queue.c **** 				traceQUEUE_RECEIVE_FAILED( pxQueue );
1403:/home/rdu/Workspace/project_templates/mcu/stm32_ws/src/libraries/FreeRTOS/Source/queue.c **** 				return errQUEUE_EMPTY;
 1892              		.loc 1 1403 0
 1893 01a4 0023     		movs	r3, #0
 1894              	.L139:
1404:/home/rdu/Workspace/project_templates/mcu/stm32_ws/src/libraries/FreeRTOS/Source/queue.c **** 			}
1405:/home/rdu/Workspace/project_templates/mcu/stm32_ws/src/libraries/FreeRTOS/Source/queue.c **** 			else
1406:/home/rdu/Workspace/project_templates/mcu/stm32_ws/src/libraries/FreeRTOS/Source/queue.c **** 			{
1407:/home/rdu/Workspace/project_templates/mcu/stm32_ws/src/libraries/FreeRTOS/Source/queue.c **** 				mtCOVERAGE_TEST_MARKER();
1408:/home/rdu/Workspace/project_templates/mcu/stm32_ws/src/libraries/FreeRTOS/Source/queue.c **** 			}
1409:/home/rdu/Workspace/project_templates/mcu/stm32_ws/src/libraries/FreeRTOS/Source/queue.c **** 		}
1410:/home/rdu/Workspace/project_templates/mcu/stm32_ws/src/libraries/FreeRTOS/Source/queue.c **** 	} /*lint -restore */
1411:/home/rdu/Workspace/project_templates/mcu/stm32_ws/src/libraries/FreeRTOS/Source/queue.c **** }
 1895              		.loc 1 1411 0 discriminator 6
 1896 01a6 1846     		mov	r0, r3
 1897 01a8 0DB0     		add	sp, sp, #52
 1898              	.LCFI35:
 1899              		.cfi_def_cfa_offset 4
 1900              		@ sp needed
 1901 01aa 5DF804FB 		ldr	pc, [sp], #4
 1902              	.L141:
 1903 01ae 00BF     		.align	2
 1904              	.L140:
 1905 01b0 04ED00E0 		.word	-536810236
 1906              		.cfi_endproc
 1907              	.LFE16:
 1909              		.section	.text.xQueueSemaphoreTake,"ax",%progbits
 1910              		.align	1
 1911              		.global	xQueueSemaphoreTake
 1912              		.syntax unified
 1913              		.thumb
 1914              		.thumb_func
 1915              		.fpu fpv4-sp-d16
 1917              	xQueueSemaphoreTake:
 1918              	.LFB17:
1412:/home/rdu/Workspace/project_templates/mcu/stm32_ws/src/libraries/FreeRTOS/Source/queue.c **** /*-----------------------------------------------------------*/
1413:/home/rdu/Workspace/project_templates/mcu/stm32_ws/src/libraries/FreeRTOS/Source/queue.c **** 
1414:/home/rdu/Workspace/project_templates/mcu/stm32_ws/src/libraries/FreeRTOS/Source/queue.c **** BaseType_t xQueueSemaphoreTake( QueueHandle_t xQueue, TickType_t xTicksToWait )
1415:/home/rdu/Workspace/project_templates/mcu/stm32_ws/src/libraries/FreeRTOS/Source/queue.c **** {
 1919              		.loc 1 1415 0
 1920              		.cfi_startproc
 1921              		@ args = 0, pretend = 0, frame = 56
 1922              		@ frame_needed = 0, uses_anonymous_args = 0
 1923 0000 00B5     		push	{lr}
 1924              	.LCFI36:
 1925              		.cfi_def_cfa_offset 4
 1926              		.cfi_offset 14, -4
 1927 0002 8FB0     		sub	sp, sp, #60
 1928              	.LCFI37:
 1929              		.cfi_def_cfa_offset 64
 1930 0004 0190     		str	r0, [sp, #4]
 1931 0006 0091     		str	r1, [sp]
1416:/home/rdu/Workspace/project_templates/mcu/stm32_ws/src/libraries/FreeRTOS/Source/queue.c **** BaseType_t xEntryTimeSet = pdFALSE;
 1932              		.loc 1 1416 0
 1933 0008 0023     		movs	r3, #0
 1934 000a 0D93     		str	r3, [sp, #52]
1417:/home/rdu/Workspace/project_templates/mcu/stm32_ws/src/libraries/FreeRTOS/Source/queue.c **** TimeOut_t xTimeOut;
1418:/home/rdu/Workspace/project_templates/mcu/stm32_ws/src/libraries/FreeRTOS/Source/queue.c **** Queue_t * const pxQueue = xQueue;
 1935              		.loc 1 1418 0
 1936 000c 019B     		ldr	r3, [sp, #4]
 1937 000e 0B93     		str	r3, [sp, #44]
1419:/home/rdu/Workspace/project_templates/mcu/stm32_ws/src/libraries/FreeRTOS/Source/queue.c **** 
1420:/home/rdu/Workspace/project_templates/mcu/stm32_ws/src/libraries/FreeRTOS/Source/queue.c **** #if( configUSE_MUTEXES == 1 )
1421:/home/rdu/Workspace/project_templates/mcu/stm32_ws/src/libraries/FreeRTOS/Source/queue.c **** 	BaseType_t xInheritanceOccurred = pdFALSE;
 1938              		.loc 1 1421 0
 1939 0010 0023     		movs	r3, #0
 1940 0012 0C93     		str	r3, [sp, #48]
1422:/home/rdu/Workspace/project_templates/mcu/stm32_ws/src/libraries/FreeRTOS/Source/queue.c **** #endif
1423:/home/rdu/Workspace/project_templates/mcu/stm32_ws/src/libraries/FreeRTOS/Source/queue.c **** 
1424:/home/rdu/Workspace/project_templates/mcu/stm32_ws/src/libraries/FreeRTOS/Source/queue.c **** 	/* Check the queue pointer is not NULL. */
1425:/home/rdu/Workspace/project_templates/mcu/stm32_ws/src/libraries/FreeRTOS/Source/queue.c **** 	configASSERT( ( pxQueue ) );
 1941              		.loc 1 1425 0
 1942 0014 0B9B     		ldr	r3, [sp, #44]
 1943 0016 002B     		cmp	r3, #0
 1944 0018 09D1     		bne	.L143
 1945              	.LBB151:
 1946              	.LBB152:
 195:/home/rdu/Workspace/project_templates/mcu/stm32_ws/src/libraries/FreeRTOS/Source/portable/GCC/ARM_CM4F/portmacro.h **** 	(
 1947              		.loc 2 195 0 discriminator 1
 1948              		.syntax unified
 1949              	@ 195 "/home/rdu/Workspace/project_templates/mcu/stm32_ws/src/libraries/FreeRTOS/Source/portable/GC
 1950 001a 4FF05003 			mov r3, #80												
 1951 001e 83F31188 		msr basepri, r3											
 1952 0022 BFF36F8F 		isb														
 1953 0026 BFF34F8F 		dsb														
 1954              	
 1955              	@ 0 "" 2
 1956              		.thumb
 1957              		.syntax unified
 1958 002a 0893     		str	r3, [sp, #32]
 1959              	.L144:
 1960              	.LBE152:
 1961              	.LBE151:
 1962              		.loc 1 1425 0 discriminator 1
 1963 002c FEE7     		b	.L144
 1964              	.L143:
1426:/home/rdu/Workspace/project_templates/mcu/stm32_ws/src/libraries/FreeRTOS/Source/queue.c **** 
1427:/home/rdu/Workspace/project_templates/mcu/stm32_ws/src/libraries/FreeRTOS/Source/queue.c **** 	/* Check this really is a semaphore, in which case the item size will be
1428:/home/rdu/Workspace/project_templates/mcu/stm32_ws/src/libraries/FreeRTOS/Source/queue.c **** 	0. */
1429:/home/rdu/Workspace/project_templates/mcu/stm32_ws/src/libraries/FreeRTOS/Source/queue.c **** 	configASSERT( pxQueue->uxItemSize == 0 );
 1965              		.loc 1 1429 0
 1966 002e 0B9B     		ldr	r3, [sp, #44]
 1967 0030 1B6C     		ldr	r3, [r3, #64]
 1968 0032 002B     		cmp	r3, #0
 1969 0034 09D0     		beq	.L145
 1970              	.LBB153:
 1971              	.LBB154:
 195:/home/rdu/Workspace/project_templates/mcu/stm32_ws/src/libraries/FreeRTOS/Source/portable/GCC/ARM_CM4F/portmacro.h **** 	(
 1972              		.loc 2 195 0 discriminator 1
 1973              		.syntax unified
 1974              	@ 195 "/home/rdu/Workspace/project_templates/mcu/stm32_ws/src/libraries/FreeRTOS/Source/portable/GC
 1975 0036 4FF05003 			mov r3, #80												
 1976 003a 83F31188 		msr basepri, r3											
 1977 003e BFF36F8F 		isb														
 1978 0042 BFF34F8F 		dsb														
 1979              	
 1980              	@ 0 "" 2
 1981              		.thumb
 1982              		.syntax unified
 1983 0046 0793     		str	r3, [sp, #28]
 1984              	.L146:
 1985              	.LBE154:
 1986              	.LBE153:
 1987              		.loc 1 1429 0 discriminator 2
 1988 0048 FEE7     		b	.L146
 1989              	.L145:
1430:/home/rdu/Workspace/project_templates/mcu/stm32_ws/src/libraries/FreeRTOS/Source/queue.c **** 
1431:/home/rdu/Workspace/project_templates/mcu/stm32_ws/src/libraries/FreeRTOS/Source/queue.c **** 	/* Cannot block if the scheduler is suspended. */
1432:/home/rdu/Workspace/project_templates/mcu/stm32_ws/src/libraries/FreeRTOS/Source/queue.c **** 	#if ( ( INCLUDE_xTaskGetSchedulerState == 1 ) || ( configUSE_TIMERS == 1 ) )
1433:/home/rdu/Workspace/project_templates/mcu/stm32_ws/src/libraries/FreeRTOS/Source/queue.c **** 	{
1434:/home/rdu/Workspace/project_templates/mcu/stm32_ws/src/libraries/FreeRTOS/Source/queue.c **** 		configASSERT( !( ( xTaskGetSchedulerState() == taskSCHEDULER_SUSPENDED ) && ( xTicksToWait != 0 )
 1990              		.loc 1 1434 0
 1991 004a FFF7FEFF 		bl	xTaskGetSchedulerState
 1992 004e 0346     		mov	r3, r0
 1993 0050 002B     		cmp	r3, #0
 1994 0052 02D1     		bne	.L147
 1995              		.loc 1 1434 0 is_stmt 0 discriminator 2
 1996 0054 009B     		ldr	r3, [sp]
 1997 0056 002B     		cmp	r3, #0
 1998 0058 01D1     		bne	.L148
 1999              	.L147:
 2000              		.loc 1 1434 0 discriminator 3
 2001 005a 0123     		movs	r3, #1
 2002 005c 00E0     		b	.L149
 2003              	.L148:
 2004              		.loc 1 1434 0 discriminator 4
 2005 005e 0023     		movs	r3, #0
 2006              	.L149:
 2007              		.loc 1 1434 0 discriminator 6
 2008 0060 002B     		cmp	r3, #0
 2009 0062 09D1     		bne	.L150
 2010              	.LBB155:
 2011              	.LBB156:
 195:/home/rdu/Workspace/project_templates/mcu/stm32_ws/src/libraries/FreeRTOS/Source/portable/GCC/ARM_CM4F/portmacro.h **** 	(
 2012              		.loc 2 195 0 is_stmt 1 discriminator 7
 2013              		.syntax unified
 2014              	@ 195 "/home/rdu/Workspace/project_templates/mcu/stm32_ws/src/libraries/FreeRTOS/Source/portable/GC
 2015 0064 4FF05003 			mov r3, #80												
 2016 0068 83F31188 		msr basepri, r3											
 2017 006c BFF36F8F 		isb														
 2018 0070 BFF34F8F 		dsb														
 2019              	
 2020              	@ 0 "" 2
 2021              		.thumb
 2022              		.syntax unified
 2023 0074 0693     		str	r3, [sp, #24]
 2024              	.L151:
 2025              	.LBE156:
 2026              	.LBE155:
 2027              		.loc 1 1434 0 discriminator 3
 2028 0076 FEE7     		b	.L151
 2029              	.L150:
1435:/home/rdu/Workspace/project_templates/mcu/stm32_ws/src/libraries/FreeRTOS/Source/queue.c **** 	}
1436:/home/rdu/Workspace/project_templates/mcu/stm32_ws/src/libraries/FreeRTOS/Source/queue.c **** 	#endif
1437:/home/rdu/Workspace/project_templates/mcu/stm32_ws/src/libraries/FreeRTOS/Source/queue.c **** 
1438:/home/rdu/Workspace/project_templates/mcu/stm32_ws/src/libraries/FreeRTOS/Source/queue.c **** 
1439:/home/rdu/Workspace/project_templates/mcu/stm32_ws/src/libraries/FreeRTOS/Source/queue.c **** 	/*lint -save -e904 This function relaxes the coding standard somewhat to allow return
1440:/home/rdu/Workspace/project_templates/mcu/stm32_ws/src/libraries/FreeRTOS/Source/queue.c **** 	statements within the function itself.  This is done in the interest
1441:/home/rdu/Workspace/project_templates/mcu/stm32_ws/src/libraries/FreeRTOS/Source/queue.c **** 	of execution time efficiency. */
1442:/home/rdu/Workspace/project_templates/mcu/stm32_ws/src/libraries/FreeRTOS/Source/queue.c **** 	for( ;; )
1443:/home/rdu/Workspace/project_templates/mcu/stm32_ws/src/libraries/FreeRTOS/Source/queue.c **** 	{
1444:/home/rdu/Workspace/project_templates/mcu/stm32_ws/src/libraries/FreeRTOS/Source/queue.c **** 		taskENTER_CRITICAL();
 2030              		.loc 1 1444 0
 2031 0078 FFF7FEFF 		bl	vPortEnterCritical
 2032              	.LBB157:
1445:/home/rdu/Workspace/project_templates/mcu/stm32_ws/src/libraries/FreeRTOS/Source/queue.c **** 		{
1446:/home/rdu/Workspace/project_templates/mcu/stm32_ws/src/libraries/FreeRTOS/Source/queue.c **** 			/* Semaphores are queues with an item size of 0, and where the
1447:/home/rdu/Workspace/project_templates/mcu/stm32_ws/src/libraries/FreeRTOS/Source/queue.c **** 			number of messages in the queue is the semaphore's count value. */
1448:/home/rdu/Workspace/project_templates/mcu/stm32_ws/src/libraries/FreeRTOS/Source/queue.c **** 			const UBaseType_t uxSemaphoreCount = pxQueue->uxMessagesWaiting;
 2033              		.loc 1 1448 0
 2034 007c 0B9B     		ldr	r3, [sp, #44]
 2035 007e 9B6B     		ldr	r3, [r3, #56]
 2036 0080 0A93     		str	r3, [sp, #40]
1449:/home/rdu/Workspace/project_templates/mcu/stm32_ws/src/libraries/FreeRTOS/Source/queue.c **** 
1450:/home/rdu/Workspace/project_templates/mcu/stm32_ws/src/libraries/FreeRTOS/Source/queue.c **** 			/* Is there data in the queue now?  To be running the calling task
1451:/home/rdu/Workspace/project_templates/mcu/stm32_ws/src/libraries/FreeRTOS/Source/queue.c **** 			must be the highest priority task wanting to access the queue. */
1452:/home/rdu/Workspace/project_templates/mcu/stm32_ws/src/libraries/FreeRTOS/Source/queue.c **** 			if( uxSemaphoreCount > ( UBaseType_t ) 0 )
 2037              		.loc 1 1452 0
 2038 0082 0A9B     		ldr	r3, [sp, #40]
 2039 0084 002B     		cmp	r3, #0
 2040 0086 24D0     		beq	.L152
1453:/home/rdu/Workspace/project_templates/mcu/stm32_ws/src/libraries/FreeRTOS/Source/queue.c **** 			{
1454:/home/rdu/Workspace/project_templates/mcu/stm32_ws/src/libraries/FreeRTOS/Source/queue.c **** 				traceQUEUE_RECEIVE( pxQueue );
1455:/home/rdu/Workspace/project_templates/mcu/stm32_ws/src/libraries/FreeRTOS/Source/queue.c **** 
1456:/home/rdu/Workspace/project_templates/mcu/stm32_ws/src/libraries/FreeRTOS/Source/queue.c **** 				/* Semaphores are queues with a data size of zero and where the
1457:/home/rdu/Workspace/project_templates/mcu/stm32_ws/src/libraries/FreeRTOS/Source/queue.c **** 				messages waiting is the semaphore's count.  Reduce the count. */
1458:/home/rdu/Workspace/project_templates/mcu/stm32_ws/src/libraries/FreeRTOS/Source/queue.c **** 				pxQueue->uxMessagesWaiting = uxSemaphoreCount - ( UBaseType_t ) 1;
 2041              		.loc 1 1458 0
 2042 0088 0A9B     		ldr	r3, [sp, #40]
 2043 008a 5A1E     		subs	r2, r3, #1
 2044 008c 0B9B     		ldr	r3, [sp, #44]
 2045 008e 9A63     		str	r2, [r3, #56]
1459:/home/rdu/Workspace/project_templates/mcu/stm32_ws/src/libraries/FreeRTOS/Source/queue.c **** 
1460:/home/rdu/Workspace/project_templates/mcu/stm32_ws/src/libraries/FreeRTOS/Source/queue.c **** 				#if ( configUSE_MUTEXES == 1 )
1461:/home/rdu/Workspace/project_templates/mcu/stm32_ws/src/libraries/FreeRTOS/Source/queue.c **** 				{
1462:/home/rdu/Workspace/project_templates/mcu/stm32_ws/src/libraries/FreeRTOS/Source/queue.c **** 					if( pxQueue->uxQueueType == queueQUEUE_IS_MUTEX )
 2046              		.loc 1 1462 0
 2047 0090 0B9B     		ldr	r3, [sp, #44]
 2048 0092 1B68     		ldr	r3, [r3]
 2049 0094 002B     		cmp	r3, #0
 2050 0096 04D1     		bne	.L153
1463:/home/rdu/Workspace/project_templates/mcu/stm32_ws/src/libraries/FreeRTOS/Source/queue.c **** 					{
1464:/home/rdu/Workspace/project_templates/mcu/stm32_ws/src/libraries/FreeRTOS/Source/queue.c **** 						/* Record the information required to implement
1465:/home/rdu/Workspace/project_templates/mcu/stm32_ws/src/libraries/FreeRTOS/Source/queue.c **** 						priority inheritance should it become necessary. */
1466:/home/rdu/Workspace/project_templates/mcu/stm32_ws/src/libraries/FreeRTOS/Source/queue.c **** 						pxQueue->u.xSemaphore.xMutexHolder = pvTaskIncrementMutexHeldCount();
 2051              		.loc 1 1466 0
 2052 0098 FFF7FEFF 		bl	pvTaskIncrementMutexHeldCount
 2053 009c 0246     		mov	r2, r0
 2054 009e 0B9B     		ldr	r3, [sp, #44]
 2055 00a0 9A60     		str	r2, [r3, #8]
 2056              	.L153:
1467:/home/rdu/Workspace/project_templates/mcu/stm32_ws/src/libraries/FreeRTOS/Source/queue.c **** 					}
1468:/home/rdu/Workspace/project_templates/mcu/stm32_ws/src/libraries/FreeRTOS/Source/queue.c **** 					else
1469:/home/rdu/Workspace/project_templates/mcu/stm32_ws/src/libraries/FreeRTOS/Source/queue.c **** 					{
1470:/home/rdu/Workspace/project_templates/mcu/stm32_ws/src/libraries/FreeRTOS/Source/queue.c **** 						mtCOVERAGE_TEST_MARKER();
1471:/home/rdu/Workspace/project_templates/mcu/stm32_ws/src/libraries/FreeRTOS/Source/queue.c **** 					}
1472:/home/rdu/Workspace/project_templates/mcu/stm32_ws/src/libraries/FreeRTOS/Source/queue.c **** 				}
1473:/home/rdu/Workspace/project_templates/mcu/stm32_ws/src/libraries/FreeRTOS/Source/queue.c **** 				#endif /* configUSE_MUTEXES */
1474:/home/rdu/Workspace/project_templates/mcu/stm32_ws/src/libraries/FreeRTOS/Source/queue.c **** 
1475:/home/rdu/Workspace/project_templates/mcu/stm32_ws/src/libraries/FreeRTOS/Source/queue.c **** 				/* Check to see if other tasks are blocked waiting to give the
1476:/home/rdu/Workspace/project_templates/mcu/stm32_ws/src/libraries/FreeRTOS/Source/queue.c **** 				semaphore, and if so, unblock the highest priority such task. */
1477:/home/rdu/Workspace/project_templates/mcu/stm32_ws/src/libraries/FreeRTOS/Source/queue.c **** 				if( listLIST_IS_EMPTY( &( pxQueue->xTasksWaitingToSend ) ) == pdFALSE )
 2057              		.loc 1 1477 0
 2058 00a2 0B9B     		ldr	r3, [sp, #44]
 2059 00a4 1B69     		ldr	r3, [r3, #16]
 2060 00a6 002B     		cmp	r3, #0
 2061 00a8 0FD0     		beq	.L154
1478:/home/rdu/Workspace/project_templates/mcu/stm32_ws/src/libraries/FreeRTOS/Source/queue.c **** 				{
1479:/home/rdu/Workspace/project_templates/mcu/stm32_ws/src/libraries/FreeRTOS/Source/queue.c **** 					if( xTaskRemoveFromEventList( &( pxQueue->xTasksWaitingToSend ) ) != pdFALSE )
 2062              		.loc 1 1479 0
 2063 00aa 0B9B     		ldr	r3, [sp, #44]
 2064 00ac 1033     		adds	r3, r3, #16
 2065 00ae 1846     		mov	r0, r3
 2066 00b0 FFF7FEFF 		bl	xTaskRemoveFromEventList
 2067 00b4 0346     		mov	r3, r0
 2068 00b6 002B     		cmp	r3, #0
 2069 00b8 07D0     		beq	.L154
1480:/home/rdu/Workspace/project_templates/mcu/stm32_ws/src/libraries/FreeRTOS/Source/queue.c **** 					{
1481:/home/rdu/Workspace/project_templates/mcu/stm32_ws/src/libraries/FreeRTOS/Source/queue.c **** 						queueYIELD_IF_USING_PREEMPTION();
 2070              		.loc 1 1481 0
 2071 00ba 524B     		ldr	r3, .L169
 2072 00bc 4FF08052 		mov	r2, #268435456
 2073 00c0 1A60     		str	r2, [r3]
 2074              		.syntax unified
 2075              	@ 1481 "/home/rdu/Workspace/project_templates/mcu/stm32_ws/src/libraries/FreeRTOS/Source/queue.c" 1
 2076 00c2 BFF34F8F 		dsb
 2077              	@ 0 "" 2
 2078              	@ 1481 "/home/rdu/Workspace/project_templates/mcu/stm32_ws/src/libraries/FreeRTOS/Source/queue.c" 1
 2079 00c6 BFF36F8F 		isb
 2080              	@ 0 "" 2
 2081              		.thumb
 2082              		.syntax unified
 2083              	.L154:
1482:/home/rdu/Workspace/project_templates/mcu/stm32_ws/src/libraries/FreeRTOS/Source/queue.c **** 					}
1483:/home/rdu/Workspace/project_templates/mcu/stm32_ws/src/libraries/FreeRTOS/Source/queue.c **** 					else
1484:/home/rdu/Workspace/project_templates/mcu/stm32_ws/src/libraries/FreeRTOS/Source/queue.c **** 					{
1485:/home/rdu/Workspace/project_templates/mcu/stm32_ws/src/libraries/FreeRTOS/Source/queue.c **** 						mtCOVERAGE_TEST_MARKER();
1486:/home/rdu/Workspace/project_templates/mcu/stm32_ws/src/libraries/FreeRTOS/Source/queue.c **** 					}
1487:/home/rdu/Workspace/project_templates/mcu/stm32_ws/src/libraries/FreeRTOS/Source/queue.c **** 				}
1488:/home/rdu/Workspace/project_templates/mcu/stm32_ws/src/libraries/FreeRTOS/Source/queue.c **** 				else
1489:/home/rdu/Workspace/project_templates/mcu/stm32_ws/src/libraries/FreeRTOS/Source/queue.c **** 				{
1490:/home/rdu/Workspace/project_templates/mcu/stm32_ws/src/libraries/FreeRTOS/Source/queue.c **** 					mtCOVERAGE_TEST_MARKER();
1491:/home/rdu/Workspace/project_templates/mcu/stm32_ws/src/libraries/FreeRTOS/Source/queue.c **** 				}
1492:/home/rdu/Workspace/project_templates/mcu/stm32_ws/src/libraries/FreeRTOS/Source/queue.c **** 
1493:/home/rdu/Workspace/project_templates/mcu/stm32_ws/src/libraries/FreeRTOS/Source/queue.c **** 				taskEXIT_CRITICAL();
 2084              		.loc 1 1493 0
 2085 00ca FFF7FEFF 		bl	vPortExitCritical
1494:/home/rdu/Workspace/project_templates/mcu/stm32_ws/src/libraries/FreeRTOS/Source/queue.c **** 				return pdPASS;
 2086              		.loc 1 1494 0
 2087 00ce 0123     		movs	r3, #1
 2088 00d0 94E0     		b	.L168
 2089              	.L152:
1495:/home/rdu/Workspace/project_templates/mcu/stm32_ws/src/libraries/FreeRTOS/Source/queue.c **** 			}
1496:/home/rdu/Workspace/project_templates/mcu/stm32_ws/src/libraries/FreeRTOS/Source/queue.c **** 			else
1497:/home/rdu/Workspace/project_templates/mcu/stm32_ws/src/libraries/FreeRTOS/Source/queue.c **** 			{
1498:/home/rdu/Workspace/project_templates/mcu/stm32_ws/src/libraries/FreeRTOS/Source/queue.c **** 				if( xTicksToWait == ( TickType_t ) 0 )
 2090              		.loc 1 1498 0
 2091 00d2 009B     		ldr	r3, [sp]
 2092 00d4 002B     		cmp	r3, #0
 2093 00d6 10D1     		bne	.L156
1499:/home/rdu/Workspace/project_templates/mcu/stm32_ws/src/libraries/FreeRTOS/Source/queue.c **** 				{
1500:/home/rdu/Workspace/project_templates/mcu/stm32_ws/src/libraries/FreeRTOS/Source/queue.c **** 					/* For inheritance to have occurred there must have been an
1501:/home/rdu/Workspace/project_templates/mcu/stm32_ws/src/libraries/FreeRTOS/Source/queue.c **** 					initial timeout, and an adjusted timeout cannot become 0, as
1502:/home/rdu/Workspace/project_templates/mcu/stm32_ws/src/libraries/FreeRTOS/Source/queue.c **** 					if it were 0 the function would have exited. */
1503:/home/rdu/Workspace/project_templates/mcu/stm32_ws/src/libraries/FreeRTOS/Source/queue.c **** 					#if( configUSE_MUTEXES == 1 )
1504:/home/rdu/Workspace/project_templates/mcu/stm32_ws/src/libraries/FreeRTOS/Source/queue.c **** 					{
1505:/home/rdu/Workspace/project_templates/mcu/stm32_ws/src/libraries/FreeRTOS/Source/queue.c **** 						configASSERT( xInheritanceOccurred == pdFALSE );
 2094              		.loc 1 1505 0
 2095 00d8 0C9B     		ldr	r3, [sp, #48]
 2096 00da 002B     		cmp	r3, #0
 2097 00dc 09D0     		beq	.L157
 2098              	.LBB158:
 2099              	.LBB159:
 195:/home/rdu/Workspace/project_templates/mcu/stm32_ws/src/libraries/FreeRTOS/Source/portable/GCC/ARM_CM4F/portmacro.h **** 	(
 2100              		.loc 2 195 0 discriminator 1
 2101              		.syntax unified
 2102              	@ 195 "/home/rdu/Workspace/project_templates/mcu/stm32_ws/src/libraries/FreeRTOS/Source/portable/GC
 2103 00de 4FF05003 			mov r3, #80												
 2104 00e2 83F31188 		msr basepri, r3											
 2105 00e6 BFF36F8F 		isb														
 2106 00ea BFF34F8F 		dsb														
 2107              	
 2108              	@ 0 "" 2
 2109              		.thumb
 2110              		.syntax unified
 2111 00ee 0593     		str	r3, [sp, #20]
 2112              	.L158:
 2113              	.LBE159:
 2114              	.LBE158:
 2115              		.loc 1 1505 0 discriminator 4
 2116 00f0 FEE7     		b	.L158
 2117              	.L157:
1506:/home/rdu/Workspace/project_templates/mcu/stm32_ws/src/libraries/FreeRTOS/Source/queue.c **** 					}
1507:/home/rdu/Workspace/project_templates/mcu/stm32_ws/src/libraries/FreeRTOS/Source/queue.c **** 					#endif /* configUSE_MUTEXES */
1508:/home/rdu/Workspace/project_templates/mcu/stm32_ws/src/libraries/FreeRTOS/Source/queue.c **** 
1509:/home/rdu/Workspace/project_templates/mcu/stm32_ws/src/libraries/FreeRTOS/Source/queue.c **** 					/* The semaphore count was 0 and no block time is specified
1510:/home/rdu/Workspace/project_templates/mcu/stm32_ws/src/libraries/FreeRTOS/Source/queue.c **** 					(or the block time has expired) so exit now. */
1511:/home/rdu/Workspace/project_templates/mcu/stm32_ws/src/libraries/FreeRTOS/Source/queue.c **** 					taskEXIT_CRITICAL();
 2118              		.loc 1 1511 0
 2119 00f2 FFF7FEFF 		bl	vPortExitCritical
1512:/home/rdu/Workspace/project_templates/mcu/stm32_ws/src/libraries/FreeRTOS/Source/queue.c **** 					traceQUEUE_RECEIVE_FAILED( pxQueue );
1513:/home/rdu/Workspace/project_templates/mcu/stm32_ws/src/libraries/FreeRTOS/Source/queue.c **** 					return errQUEUE_EMPTY;
 2120              		.loc 1 1513 0
 2121 00f6 0023     		movs	r3, #0
 2122 00f8 80E0     		b	.L168
 2123              	.L156:
1514:/home/rdu/Workspace/project_templates/mcu/stm32_ws/src/libraries/FreeRTOS/Source/queue.c **** 				}
1515:/home/rdu/Workspace/project_templates/mcu/stm32_ws/src/libraries/FreeRTOS/Source/queue.c **** 				else if( xEntryTimeSet == pdFALSE )
 2124              		.loc 1 1515 0
 2125 00fa 0D9B     		ldr	r3, [sp, #52]
 2126 00fc 002B     		cmp	r3, #0
 2127 00fe 05D1     		bne	.L159
1516:/home/rdu/Workspace/project_templates/mcu/stm32_ws/src/libraries/FreeRTOS/Source/queue.c **** 				{
1517:/home/rdu/Workspace/project_templates/mcu/stm32_ws/src/libraries/FreeRTOS/Source/queue.c **** 					/* The semaphore count was 0 and a block time was specified
1518:/home/rdu/Workspace/project_templates/mcu/stm32_ws/src/libraries/FreeRTOS/Source/queue.c **** 					so configure the timeout structure ready to block. */
1519:/home/rdu/Workspace/project_templates/mcu/stm32_ws/src/libraries/FreeRTOS/Source/queue.c **** 					vTaskInternalSetTimeOutState( &xTimeOut );
 2128              		.loc 1 1519 0
 2129 0100 03AB     		add	r3, sp, #12
 2130 0102 1846     		mov	r0, r3
 2131 0104 FFF7FEFF 		bl	vTaskInternalSetTimeOutState
1520:/home/rdu/Workspace/project_templates/mcu/stm32_ws/src/libraries/FreeRTOS/Source/queue.c **** 					xEntryTimeSet = pdTRUE;
 2132              		.loc 1 1520 0
 2133 0108 0123     		movs	r3, #1
 2134 010a 0D93     		str	r3, [sp, #52]
 2135              	.L159:
 2136              	.LBE157:
1521:/home/rdu/Workspace/project_templates/mcu/stm32_ws/src/libraries/FreeRTOS/Source/queue.c **** 				}
1522:/home/rdu/Workspace/project_templates/mcu/stm32_ws/src/libraries/FreeRTOS/Source/queue.c **** 				else
1523:/home/rdu/Workspace/project_templates/mcu/stm32_ws/src/libraries/FreeRTOS/Source/queue.c **** 				{
1524:/home/rdu/Workspace/project_templates/mcu/stm32_ws/src/libraries/FreeRTOS/Source/queue.c **** 					/* Entry time was already set. */
1525:/home/rdu/Workspace/project_templates/mcu/stm32_ws/src/libraries/FreeRTOS/Source/queue.c **** 					mtCOVERAGE_TEST_MARKER();
1526:/home/rdu/Workspace/project_templates/mcu/stm32_ws/src/libraries/FreeRTOS/Source/queue.c **** 				}
1527:/home/rdu/Workspace/project_templates/mcu/stm32_ws/src/libraries/FreeRTOS/Source/queue.c **** 			}
1528:/home/rdu/Workspace/project_templates/mcu/stm32_ws/src/libraries/FreeRTOS/Source/queue.c **** 		}
1529:/home/rdu/Workspace/project_templates/mcu/stm32_ws/src/libraries/FreeRTOS/Source/queue.c **** 		taskEXIT_CRITICAL();
 2137              		.loc 1 1529 0
 2138 010c FFF7FEFF 		bl	vPortExitCritical
1530:/home/rdu/Workspace/project_templates/mcu/stm32_ws/src/libraries/FreeRTOS/Source/queue.c **** 
1531:/home/rdu/Workspace/project_templates/mcu/stm32_ws/src/libraries/FreeRTOS/Source/queue.c **** 		/* Interrupts and other tasks can give to and take from the semaphore
1532:/home/rdu/Workspace/project_templates/mcu/stm32_ws/src/libraries/FreeRTOS/Source/queue.c **** 		now the critical section has been exited. */
1533:/home/rdu/Workspace/project_templates/mcu/stm32_ws/src/libraries/FreeRTOS/Source/queue.c **** 
1534:/home/rdu/Workspace/project_templates/mcu/stm32_ws/src/libraries/FreeRTOS/Source/queue.c **** 		vTaskSuspendAll();
 2139              		.loc 1 1534 0
 2140 0110 FFF7FEFF 		bl	vTaskSuspendAll
1535:/home/rdu/Workspace/project_templates/mcu/stm32_ws/src/libraries/FreeRTOS/Source/queue.c **** 		prvLockQueue( pxQueue );
 2141              		.loc 1 1535 0
 2142 0114 FFF7FEFF 		bl	vPortEnterCritical
 2143 0118 0B9B     		ldr	r3, [sp, #44]
 2144 011a 93F84430 		ldrb	r3, [r3, #68]
 2145 011e 5BB2     		sxtb	r3, r3
 2146 0120 B3F1FF3F 		cmp	r3, #-1
 2147 0124 03D1     		bne	.L160
 2148              		.loc 1 1535 0 is_stmt 0 discriminator 1
 2149 0126 0B9B     		ldr	r3, [sp, #44]
 2150 0128 0022     		movs	r2, #0
 2151 012a 83F84420 		strb	r2, [r3, #68]
 2152              	.L160:
 2153              		.loc 1 1535 0 discriminator 3
 2154 012e 0B9B     		ldr	r3, [sp, #44]
 2155 0130 93F84530 		ldrb	r3, [r3, #69]
 2156 0134 5BB2     		sxtb	r3, r3
 2157 0136 B3F1FF3F 		cmp	r3, #-1
 2158 013a 03D1     		bne	.L161
 2159              		.loc 1 1535 0 discriminator 4
 2160 013c 0B9B     		ldr	r3, [sp, #44]
 2161 013e 0022     		movs	r2, #0
 2162 0140 83F84520 		strb	r2, [r3, #69]
 2163              	.L161:
 2164              		.loc 1 1535 0 discriminator 6
 2165 0144 FFF7FEFF 		bl	vPortExitCritical
1536:/home/rdu/Workspace/project_templates/mcu/stm32_ws/src/libraries/FreeRTOS/Source/queue.c **** 
1537:/home/rdu/Workspace/project_templates/mcu/stm32_ws/src/libraries/FreeRTOS/Source/queue.c **** 		/* Update the timeout state to see if it has expired yet. */
1538:/home/rdu/Workspace/project_templates/mcu/stm32_ws/src/libraries/FreeRTOS/Source/queue.c **** 		if( xTaskCheckForTimeOut( &xTimeOut, &xTicksToWait ) == pdFALSE )
 2166              		.loc 1 1538 0 is_stmt 1 discriminator 6
 2167 0148 6A46     		mov	r2, sp
 2168 014a 03AB     		add	r3, sp, #12
 2169 014c 1146     		mov	r1, r2
 2170 014e 1846     		mov	r0, r3
 2171 0150 FFF7FEFF 		bl	xTaskCheckForTimeOut
 2172 0154 0346     		mov	r3, r0
 2173 0156 002B     		cmp	r3, #0
 2174 0158 32D1     		bne	.L162
1539:/home/rdu/Workspace/project_templates/mcu/stm32_ws/src/libraries/FreeRTOS/Source/queue.c **** 		{
1540:/home/rdu/Workspace/project_templates/mcu/stm32_ws/src/libraries/FreeRTOS/Source/queue.c **** 			/* A block time is specified and not expired.  If the semaphore
1541:/home/rdu/Workspace/project_templates/mcu/stm32_ws/src/libraries/FreeRTOS/Source/queue.c **** 			count is 0 then enter the Blocked state to wait for a semaphore to
1542:/home/rdu/Workspace/project_templates/mcu/stm32_ws/src/libraries/FreeRTOS/Source/queue.c **** 			become available.  As semaphores are implemented with queues the
1543:/home/rdu/Workspace/project_templates/mcu/stm32_ws/src/libraries/FreeRTOS/Source/queue.c **** 			queue being empty is equivalent to the semaphore count being 0. */
1544:/home/rdu/Workspace/project_templates/mcu/stm32_ws/src/libraries/FreeRTOS/Source/queue.c **** 			if( prvIsQueueEmpty( pxQueue ) != pdFALSE )
 2175              		.loc 1 1544 0
 2176 015a 0B98     		ldr	r0, [sp, #44]
 2177 015c FFF7FEFF 		bl	prvIsQueueEmpty
 2178 0160 0346     		mov	r3, r0
 2179 0162 002B     		cmp	r3, #0
 2180 0164 26D0     		beq	.L163
1545:/home/rdu/Workspace/project_templates/mcu/stm32_ws/src/libraries/FreeRTOS/Source/queue.c **** 			{
1546:/home/rdu/Workspace/project_templates/mcu/stm32_ws/src/libraries/FreeRTOS/Source/queue.c **** 				traceBLOCKING_ON_QUEUE_RECEIVE( pxQueue );
1547:/home/rdu/Workspace/project_templates/mcu/stm32_ws/src/libraries/FreeRTOS/Source/queue.c **** 
1548:/home/rdu/Workspace/project_templates/mcu/stm32_ws/src/libraries/FreeRTOS/Source/queue.c **** 				#if ( configUSE_MUTEXES == 1 )
1549:/home/rdu/Workspace/project_templates/mcu/stm32_ws/src/libraries/FreeRTOS/Source/queue.c **** 				{
1550:/home/rdu/Workspace/project_templates/mcu/stm32_ws/src/libraries/FreeRTOS/Source/queue.c **** 					if( pxQueue->uxQueueType == queueQUEUE_IS_MUTEX )
 2181              		.loc 1 1550 0
 2182 0166 0B9B     		ldr	r3, [sp, #44]
 2183 0168 1B68     		ldr	r3, [r3]
 2184 016a 002B     		cmp	r3, #0
 2185 016c 09D1     		bne	.L164
1551:/home/rdu/Workspace/project_templates/mcu/stm32_ws/src/libraries/FreeRTOS/Source/queue.c **** 					{
1552:/home/rdu/Workspace/project_templates/mcu/stm32_ws/src/libraries/FreeRTOS/Source/queue.c **** 						taskENTER_CRITICAL();
 2186              		.loc 1 1552 0
 2187 016e FFF7FEFF 		bl	vPortEnterCritical
1553:/home/rdu/Workspace/project_templates/mcu/stm32_ws/src/libraries/FreeRTOS/Source/queue.c **** 						{
1554:/home/rdu/Workspace/project_templates/mcu/stm32_ws/src/libraries/FreeRTOS/Source/queue.c **** 							xInheritanceOccurred = xTaskPriorityInherit( pxQueue->u.xSemaphore.xMutexHolder );
 2188              		.loc 1 1554 0
 2189 0172 0B9B     		ldr	r3, [sp, #44]
 2190 0174 9B68     		ldr	r3, [r3, #8]
 2191 0176 1846     		mov	r0, r3
 2192 0178 FFF7FEFF 		bl	xTaskPriorityInherit
 2193 017c 0C90     		str	r0, [sp, #48]
1555:/home/rdu/Workspace/project_templates/mcu/stm32_ws/src/libraries/FreeRTOS/Source/queue.c **** 						}
1556:/home/rdu/Workspace/project_templates/mcu/stm32_ws/src/libraries/FreeRTOS/Source/queue.c **** 						taskEXIT_CRITICAL();
 2194              		.loc 1 1556 0
 2195 017e FFF7FEFF 		bl	vPortExitCritical
 2196              	.L164:
1557:/home/rdu/Workspace/project_templates/mcu/stm32_ws/src/libraries/FreeRTOS/Source/queue.c **** 					}
1558:/home/rdu/Workspace/project_templates/mcu/stm32_ws/src/libraries/FreeRTOS/Source/queue.c **** 					else
1559:/home/rdu/Workspace/project_templates/mcu/stm32_ws/src/libraries/FreeRTOS/Source/queue.c **** 					{
1560:/home/rdu/Workspace/project_templates/mcu/stm32_ws/src/libraries/FreeRTOS/Source/queue.c **** 						mtCOVERAGE_TEST_MARKER();
1561:/home/rdu/Workspace/project_templates/mcu/stm32_ws/src/libraries/FreeRTOS/Source/queue.c **** 					}
1562:/home/rdu/Workspace/project_templates/mcu/stm32_ws/src/libraries/FreeRTOS/Source/queue.c **** 				}
1563:/home/rdu/Workspace/project_templates/mcu/stm32_ws/src/libraries/FreeRTOS/Source/queue.c **** 				#endif
1564:/home/rdu/Workspace/project_templates/mcu/stm32_ws/src/libraries/FreeRTOS/Source/queue.c **** 
1565:/home/rdu/Workspace/project_templates/mcu/stm32_ws/src/libraries/FreeRTOS/Source/queue.c **** 				vTaskPlaceOnEventList( &( pxQueue->xTasksWaitingToReceive ), xTicksToWait );
 2197              		.loc 1 1565 0
 2198 0182 0B9B     		ldr	r3, [sp, #44]
 2199 0184 2433     		adds	r3, r3, #36
 2200 0186 009A     		ldr	r2, [sp]
 2201 0188 1146     		mov	r1, r2
 2202 018a 1846     		mov	r0, r3
 2203 018c FFF7FEFF 		bl	vTaskPlaceOnEventList
1566:/home/rdu/Workspace/project_templates/mcu/stm32_ws/src/libraries/FreeRTOS/Source/queue.c **** 				prvUnlockQueue( pxQueue );
 2204              		.loc 1 1566 0
 2205 0190 0B98     		ldr	r0, [sp, #44]
 2206 0192 FFF7FEFF 		bl	prvUnlockQueue
1567:/home/rdu/Workspace/project_templates/mcu/stm32_ws/src/libraries/FreeRTOS/Source/queue.c **** 				if( xTaskResumeAll() == pdFALSE )
 2207              		.loc 1 1567 0
 2208 0196 FFF7FEFF 		bl	xTaskResumeAll
 2209 019a 0346     		mov	r3, r0
 2210 019c 002B     		cmp	r3, #0
 2211 019e 7FF46BAF 		bne	.L150
1568:/home/rdu/Workspace/project_templates/mcu/stm32_ws/src/libraries/FreeRTOS/Source/queue.c **** 				{
1569:/home/rdu/Workspace/project_templates/mcu/stm32_ws/src/libraries/FreeRTOS/Source/queue.c **** 					portYIELD_WITHIN_API();
 2212              		.loc 1 1569 0
 2213 01a2 184B     		ldr	r3, .L169
 2214 01a4 4FF08052 		mov	r2, #268435456
 2215 01a8 1A60     		str	r2, [r3]
 2216              		.syntax unified
 2217              	@ 1569 "/home/rdu/Workspace/project_templates/mcu/stm32_ws/src/libraries/FreeRTOS/Source/queue.c" 1
 2218 01aa BFF34F8F 		dsb
 2219              	@ 0 "" 2
 2220              	@ 1569 "/home/rdu/Workspace/project_templates/mcu/stm32_ws/src/libraries/FreeRTOS/Source/queue.c" 1
 2221 01ae BFF36F8F 		isb
 2222              	@ 0 "" 2
 2223              		.thumb
 2224              		.syntax unified
 2225 01b2 61E7     		b	.L150
 2226              	.L163:
1570:/home/rdu/Workspace/project_templates/mcu/stm32_ws/src/libraries/FreeRTOS/Source/queue.c **** 				}
1571:/home/rdu/Workspace/project_templates/mcu/stm32_ws/src/libraries/FreeRTOS/Source/queue.c **** 				else
1572:/home/rdu/Workspace/project_templates/mcu/stm32_ws/src/libraries/FreeRTOS/Source/queue.c **** 				{
1573:/home/rdu/Workspace/project_templates/mcu/stm32_ws/src/libraries/FreeRTOS/Source/queue.c **** 					mtCOVERAGE_TEST_MARKER();
1574:/home/rdu/Workspace/project_templates/mcu/stm32_ws/src/libraries/FreeRTOS/Source/queue.c **** 				}
1575:/home/rdu/Workspace/project_templates/mcu/stm32_ws/src/libraries/FreeRTOS/Source/queue.c **** 			}
1576:/home/rdu/Workspace/project_templates/mcu/stm32_ws/src/libraries/FreeRTOS/Source/queue.c **** 			else
1577:/home/rdu/Workspace/project_templates/mcu/stm32_ws/src/libraries/FreeRTOS/Source/queue.c **** 			{
1578:/home/rdu/Workspace/project_templates/mcu/stm32_ws/src/libraries/FreeRTOS/Source/queue.c **** 				/* There was no timeout and the semaphore count was not 0, so
1579:/home/rdu/Workspace/project_templates/mcu/stm32_ws/src/libraries/FreeRTOS/Source/queue.c **** 				attempt to take the semaphore again. */
1580:/home/rdu/Workspace/project_templates/mcu/stm32_ws/src/libraries/FreeRTOS/Source/queue.c **** 				prvUnlockQueue( pxQueue );
 2227              		.loc 1 1580 0
 2228 01b4 0B98     		ldr	r0, [sp, #44]
 2229 01b6 FFF7FEFF 		bl	prvUnlockQueue
1581:/home/rdu/Workspace/project_templates/mcu/stm32_ws/src/libraries/FreeRTOS/Source/queue.c **** 				( void ) xTaskResumeAll();
 2230              		.loc 1 1581 0
 2231 01ba FFF7FEFF 		bl	xTaskResumeAll
 2232 01be 5BE7     		b	.L150
 2233              	.L162:
1582:/home/rdu/Workspace/project_templates/mcu/stm32_ws/src/libraries/FreeRTOS/Source/queue.c **** 			}
1583:/home/rdu/Workspace/project_templates/mcu/stm32_ws/src/libraries/FreeRTOS/Source/queue.c **** 		}
1584:/home/rdu/Workspace/project_templates/mcu/stm32_ws/src/libraries/FreeRTOS/Source/queue.c **** 		else
1585:/home/rdu/Workspace/project_templates/mcu/stm32_ws/src/libraries/FreeRTOS/Source/queue.c **** 		{
1586:/home/rdu/Workspace/project_templates/mcu/stm32_ws/src/libraries/FreeRTOS/Source/queue.c **** 			/* Timed out. */
1587:/home/rdu/Workspace/project_templates/mcu/stm32_ws/src/libraries/FreeRTOS/Source/queue.c **** 			prvUnlockQueue( pxQueue );
 2234              		.loc 1 1587 0
 2235 01c0 0B98     		ldr	r0, [sp, #44]
 2236 01c2 FFF7FEFF 		bl	prvUnlockQueue
1588:/home/rdu/Workspace/project_templates/mcu/stm32_ws/src/libraries/FreeRTOS/Source/queue.c **** 			( void ) xTaskResumeAll();
 2237              		.loc 1 1588 0
 2238 01c6 FFF7FEFF 		bl	xTaskResumeAll
1589:/home/rdu/Workspace/project_templates/mcu/stm32_ws/src/libraries/FreeRTOS/Source/queue.c **** 
1590:/home/rdu/Workspace/project_templates/mcu/stm32_ws/src/libraries/FreeRTOS/Source/queue.c **** 			/* If the semaphore count is 0 exit now as the timeout has
1591:/home/rdu/Workspace/project_templates/mcu/stm32_ws/src/libraries/FreeRTOS/Source/queue.c **** 			expired.  Otherwise return to attempt to take the semaphore that is
1592:/home/rdu/Workspace/project_templates/mcu/stm32_ws/src/libraries/FreeRTOS/Source/queue.c **** 			known to be available.  As semaphores are implemented by queues the
1593:/home/rdu/Workspace/project_templates/mcu/stm32_ws/src/libraries/FreeRTOS/Source/queue.c **** 			queue being empty is equivalent to the semaphore count being 0. */
1594:/home/rdu/Workspace/project_templates/mcu/stm32_ws/src/libraries/FreeRTOS/Source/queue.c **** 			if( prvIsQueueEmpty( pxQueue ) != pdFALSE )
 2239              		.loc 1 1594 0
 2240 01ca 0B98     		ldr	r0, [sp, #44]
 2241 01cc FFF7FEFF 		bl	prvIsQueueEmpty
 2242 01d0 0346     		mov	r3, r0
 2243 01d2 002B     		cmp	r3, #0
 2244 01d4 3FF450AF 		beq	.L150
1595:/home/rdu/Workspace/project_templates/mcu/stm32_ws/src/libraries/FreeRTOS/Source/queue.c **** 			{
1596:/home/rdu/Workspace/project_templates/mcu/stm32_ws/src/libraries/FreeRTOS/Source/queue.c **** 				#if ( configUSE_MUTEXES == 1 )
1597:/home/rdu/Workspace/project_templates/mcu/stm32_ws/src/libraries/FreeRTOS/Source/queue.c **** 				{
1598:/home/rdu/Workspace/project_templates/mcu/stm32_ws/src/libraries/FreeRTOS/Source/queue.c **** 					/* xInheritanceOccurred could only have be set if
1599:/home/rdu/Workspace/project_templates/mcu/stm32_ws/src/libraries/FreeRTOS/Source/queue.c **** 					pxQueue->uxQueueType == queueQUEUE_IS_MUTEX so no need to
1600:/home/rdu/Workspace/project_templates/mcu/stm32_ws/src/libraries/FreeRTOS/Source/queue.c **** 					test the mutex type again to check it is actually a mutex. */
1601:/home/rdu/Workspace/project_templates/mcu/stm32_ws/src/libraries/FreeRTOS/Source/queue.c **** 					if( xInheritanceOccurred != pdFALSE )
 2245              		.loc 1 1601 0
 2246 01d8 0C9B     		ldr	r3, [sp, #48]
 2247 01da 002B     		cmp	r3, #0
 2248 01dc 0DD0     		beq	.L167
1602:/home/rdu/Workspace/project_templates/mcu/stm32_ws/src/libraries/FreeRTOS/Source/queue.c **** 					{
1603:/home/rdu/Workspace/project_templates/mcu/stm32_ws/src/libraries/FreeRTOS/Source/queue.c **** 						taskENTER_CRITICAL();
 2249              		.loc 1 1603 0
 2250 01de FFF7FEFF 		bl	vPortEnterCritical
 2251              	.LBB160:
1604:/home/rdu/Workspace/project_templates/mcu/stm32_ws/src/libraries/FreeRTOS/Source/queue.c **** 						{
1605:/home/rdu/Workspace/project_templates/mcu/stm32_ws/src/libraries/FreeRTOS/Source/queue.c **** 							UBaseType_t uxHighestWaitingPriority;
1606:/home/rdu/Workspace/project_templates/mcu/stm32_ws/src/libraries/FreeRTOS/Source/queue.c **** 
1607:/home/rdu/Workspace/project_templates/mcu/stm32_ws/src/libraries/FreeRTOS/Source/queue.c **** 							/* This task blocking on the mutex caused another
1608:/home/rdu/Workspace/project_templates/mcu/stm32_ws/src/libraries/FreeRTOS/Source/queue.c **** 							task to inherit this task's priority.  Now this task
1609:/home/rdu/Workspace/project_templates/mcu/stm32_ws/src/libraries/FreeRTOS/Source/queue.c **** 							has timed out the priority should be disinherited
1610:/home/rdu/Workspace/project_templates/mcu/stm32_ws/src/libraries/FreeRTOS/Source/queue.c **** 							again, but only as low as the next highest priority
1611:/home/rdu/Workspace/project_templates/mcu/stm32_ws/src/libraries/FreeRTOS/Source/queue.c **** 							task that is waiting for the same mutex. */
1612:/home/rdu/Workspace/project_templates/mcu/stm32_ws/src/libraries/FreeRTOS/Source/queue.c **** 							uxHighestWaitingPriority = prvGetDisinheritPriorityAfterTimeout( pxQueue );
 2252              		.loc 1 1612 0
 2253 01e2 0B98     		ldr	r0, [sp, #44]
 2254 01e4 FFF7FEFF 		bl	prvGetDisinheritPriorityAfterTimeout
 2255 01e8 0990     		str	r0, [sp, #36]
1613:/home/rdu/Workspace/project_templates/mcu/stm32_ws/src/libraries/FreeRTOS/Source/queue.c **** 							vTaskPriorityDisinheritAfterTimeout( pxQueue->u.xSemaphore.xMutexHolder, uxHighestWaitingPri
 2256              		.loc 1 1613 0
 2257 01ea 0B9B     		ldr	r3, [sp, #44]
 2258 01ec 9B68     		ldr	r3, [r3, #8]
 2259 01ee 0999     		ldr	r1, [sp, #36]
 2260 01f0 1846     		mov	r0, r3
 2261 01f2 FFF7FEFF 		bl	vTaskPriorityDisinheritAfterTimeout
 2262              	.LBE160:
1614:/home/rdu/Workspace/project_templates/mcu/stm32_ws/src/libraries/FreeRTOS/Source/queue.c **** 						}
1615:/home/rdu/Workspace/project_templates/mcu/stm32_ws/src/libraries/FreeRTOS/Source/queue.c **** 						taskEXIT_CRITICAL();
 2263              		.loc 1 1615 0
 2264 01f6 FFF7FEFF 		bl	vPortExitCritical
 2265              	.L167:
1616:/home/rdu/Workspace/project_templates/mcu/stm32_ws/src/libraries/FreeRTOS/Source/queue.c **** 					}
1617:/home/rdu/Workspace/project_templates/mcu/stm32_ws/src/libraries/FreeRTOS/Source/queue.c **** 				}
1618:/home/rdu/Workspace/project_templates/mcu/stm32_ws/src/libraries/FreeRTOS/Source/queue.c **** 				#endif /* configUSE_MUTEXES */
1619:/home/rdu/Workspace/project_templates/mcu/stm32_ws/src/libraries/FreeRTOS/Source/queue.c **** 
1620:/home/rdu/Workspace/project_templates/mcu/stm32_ws/src/libraries/FreeRTOS/Source/queue.c **** 				traceQUEUE_RECEIVE_FAILED( pxQueue );
1621:/home/rdu/Workspace/project_templates/mcu/stm32_ws/src/libraries/FreeRTOS/Source/queue.c **** 				return errQUEUE_EMPTY;
 2266              		.loc 1 1621 0
 2267 01fa 0023     		movs	r3, #0
 2268              	.L168:
1622:/home/rdu/Workspace/project_templates/mcu/stm32_ws/src/libraries/FreeRTOS/Source/queue.c **** 			}
1623:/home/rdu/Workspace/project_templates/mcu/stm32_ws/src/libraries/FreeRTOS/Source/queue.c **** 			else
1624:/home/rdu/Workspace/project_templates/mcu/stm32_ws/src/libraries/FreeRTOS/Source/queue.c **** 			{
1625:/home/rdu/Workspace/project_templates/mcu/stm32_ws/src/libraries/FreeRTOS/Source/queue.c **** 				mtCOVERAGE_TEST_MARKER();
1626:/home/rdu/Workspace/project_templates/mcu/stm32_ws/src/libraries/FreeRTOS/Source/queue.c **** 			}
1627:/home/rdu/Workspace/project_templates/mcu/stm32_ws/src/libraries/FreeRTOS/Source/queue.c **** 		}
1628:/home/rdu/Workspace/project_templates/mcu/stm32_ws/src/libraries/FreeRTOS/Source/queue.c **** 	} /*lint -restore */
1629:/home/rdu/Workspace/project_templates/mcu/stm32_ws/src/libraries/FreeRTOS/Source/queue.c **** }
 2269              		.loc 1 1629 0 discriminator 7
 2270 01fc 1846     		mov	r0, r3
 2271 01fe 0FB0     		add	sp, sp, #60
 2272              	.LCFI38:
 2273              		.cfi_def_cfa_offset 4
 2274              		@ sp needed
 2275 0200 5DF804FB 		ldr	pc, [sp], #4
 2276              	.L170:
 2277              		.align	2
 2278              	.L169:
 2279 0204 04ED00E0 		.word	-536810236
 2280              		.cfi_endproc
 2281              	.LFE17:
 2283              		.section	.text.xQueuePeek,"ax",%progbits
 2284              		.align	1
 2285              		.global	xQueuePeek
 2286              		.syntax unified
 2287              		.thumb
 2288              		.thumb_func
 2289              		.fpu fpv4-sp-d16
 2291              	xQueuePeek:
 2292              	.LFB18:
1630:/home/rdu/Workspace/project_templates/mcu/stm32_ws/src/libraries/FreeRTOS/Source/queue.c **** /*-----------------------------------------------------------*/
1631:/home/rdu/Workspace/project_templates/mcu/stm32_ws/src/libraries/FreeRTOS/Source/queue.c **** 
1632:/home/rdu/Workspace/project_templates/mcu/stm32_ws/src/libraries/FreeRTOS/Source/queue.c **** BaseType_t xQueuePeek( QueueHandle_t xQueue, void * const pvBuffer, TickType_t xTicksToWait )
1633:/home/rdu/Workspace/project_templates/mcu/stm32_ws/src/libraries/FreeRTOS/Source/queue.c **** {
 2293              		.loc 1 1633 0
 2294              		.cfi_startproc
 2295              		@ args = 0, pretend = 0, frame = 56
 2296              		@ frame_needed = 0, uses_anonymous_args = 0
 2297 0000 00B5     		push	{lr}
 2298              	.LCFI39:
 2299              		.cfi_def_cfa_offset 4
 2300              		.cfi_offset 14, -4
 2301 0002 8FB0     		sub	sp, sp, #60
 2302              	.LCFI40:
 2303              		.cfi_def_cfa_offset 64
 2304 0004 0390     		str	r0, [sp, #12]
 2305 0006 0291     		str	r1, [sp, #8]
 2306 0008 0192     		str	r2, [sp, #4]
1634:/home/rdu/Workspace/project_templates/mcu/stm32_ws/src/libraries/FreeRTOS/Source/queue.c **** BaseType_t xEntryTimeSet = pdFALSE;
 2307              		.loc 1 1634 0
 2308 000a 0023     		movs	r3, #0
 2309 000c 0D93     		str	r3, [sp, #52]
1635:/home/rdu/Workspace/project_templates/mcu/stm32_ws/src/libraries/FreeRTOS/Source/queue.c **** TimeOut_t xTimeOut;
1636:/home/rdu/Workspace/project_templates/mcu/stm32_ws/src/libraries/FreeRTOS/Source/queue.c **** int8_t *pcOriginalReadPosition;
1637:/home/rdu/Workspace/project_templates/mcu/stm32_ws/src/libraries/FreeRTOS/Source/queue.c **** Queue_t * const pxQueue = xQueue;
 2310              		.loc 1 1637 0
 2311 000e 039B     		ldr	r3, [sp, #12]
 2312 0010 0C93     		str	r3, [sp, #48]
1638:/home/rdu/Workspace/project_templates/mcu/stm32_ws/src/libraries/FreeRTOS/Source/queue.c **** 
1639:/home/rdu/Workspace/project_templates/mcu/stm32_ws/src/libraries/FreeRTOS/Source/queue.c **** 	/* Check the pointer is not NULL. */
1640:/home/rdu/Workspace/project_templates/mcu/stm32_ws/src/libraries/FreeRTOS/Source/queue.c **** 	configASSERT( ( pxQueue ) );
 2313              		.loc 1 1640 0
 2314 0012 0C9B     		ldr	r3, [sp, #48]
 2315 0014 002B     		cmp	r3, #0
 2316 0016 09D1     		bne	.L172
 2317              	.LBB161:
 2318              	.LBB162:
 195:/home/rdu/Workspace/project_templates/mcu/stm32_ws/src/libraries/FreeRTOS/Source/portable/GCC/ARM_CM4F/portmacro.h **** 	(
 2319              		.loc 2 195 0 discriminator 1
 2320              		.syntax unified
 2321              	@ 195 "/home/rdu/Workspace/project_templates/mcu/stm32_ws/src/libraries/FreeRTOS/Source/portable/GC
 2322 0018 4FF05003 			mov r3, #80												
 2323 001c 83F31188 		msr basepri, r3											
 2324 0020 BFF36F8F 		isb														
 2325 0024 BFF34F8F 		dsb														
 2326              	
 2327              	@ 0 "" 2
 2328              		.thumb
 2329              		.syntax unified
 2330 0028 0993     		str	r3, [sp, #36]
 2331              	.L173:
 2332              	.LBE162:
 2333              	.LBE161:
 2334              		.loc 1 1640 0 discriminator 1
 2335 002a FEE7     		b	.L173
 2336              	.L172:
1641:/home/rdu/Workspace/project_templates/mcu/stm32_ws/src/libraries/FreeRTOS/Source/queue.c **** 
1642:/home/rdu/Workspace/project_templates/mcu/stm32_ws/src/libraries/FreeRTOS/Source/queue.c **** 	/* The buffer into which data is received can only be NULL if the data size
1643:/home/rdu/Workspace/project_templates/mcu/stm32_ws/src/libraries/FreeRTOS/Source/queue.c **** 	is zero (so no data is copied into the buffer. */
1644:/home/rdu/Workspace/project_templates/mcu/stm32_ws/src/libraries/FreeRTOS/Source/queue.c **** 	configASSERT( !( ( ( pvBuffer ) == NULL ) && ( ( pxQueue )->uxItemSize != ( UBaseType_t ) 0U ) ) )
 2337              		.loc 1 1644 0
 2338 002c 029B     		ldr	r3, [sp, #8]
 2339 002e 002B     		cmp	r3, #0
 2340 0030 03D1     		bne	.L174
 2341              		.loc 1 1644 0 is_stmt 0 discriminator 2
 2342 0032 0C9B     		ldr	r3, [sp, #48]
 2343 0034 1B6C     		ldr	r3, [r3, #64]
 2344 0036 002B     		cmp	r3, #0
 2345 0038 01D1     		bne	.L175
 2346              	.L174:
 2347              		.loc 1 1644 0 discriminator 3
 2348 003a 0123     		movs	r3, #1
 2349 003c 00E0     		b	.L176
 2350              	.L175:
 2351              		.loc 1 1644 0 discriminator 4
 2352 003e 0023     		movs	r3, #0
 2353              	.L176:
 2354              		.loc 1 1644 0 discriminator 6
 2355 0040 002B     		cmp	r3, #0
 2356 0042 09D1     		bne	.L177
 2357              	.LBB163:
 2358              	.LBB164:
 195:/home/rdu/Workspace/project_templates/mcu/stm32_ws/src/libraries/FreeRTOS/Source/portable/GCC/ARM_CM4F/portmacro.h **** 	(
 2359              		.loc 2 195 0 is_stmt 1 discriminator 7
 2360              		.syntax unified
 2361              	@ 195 "/home/rdu/Workspace/project_templates/mcu/stm32_ws/src/libraries/FreeRTOS/Source/portable/GC
 2362 0044 4FF05003 			mov r3, #80												
 2363 0048 83F31188 		msr basepri, r3											
 2364 004c BFF36F8F 		isb														
 2365 0050 BFF34F8F 		dsb														
 2366              	
 2367              	@ 0 "" 2
 2368              		.thumb
 2369              		.syntax unified
 2370 0054 0893     		str	r3, [sp, #32]
 2371              	.L178:
 2372              	.LBE164:
 2373              	.LBE163:
 2374              		.loc 1 1644 0 discriminator 2
 2375 0056 FEE7     		b	.L178
 2376              	.L177:
1645:/home/rdu/Workspace/project_templates/mcu/stm32_ws/src/libraries/FreeRTOS/Source/queue.c **** 
1646:/home/rdu/Workspace/project_templates/mcu/stm32_ws/src/libraries/FreeRTOS/Source/queue.c **** 	/* Cannot block if the scheduler is suspended. */
1647:/home/rdu/Workspace/project_templates/mcu/stm32_ws/src/libraries/FreeRTOS/Source/queue.c **** 	#if ( ( INCLUDE_xTaskGetSchedulerState == 1 ) || ( configUSE_TIMERS == 1 ) )
1648:/home/rdu/Workspace/project_templates/mcu/stm32_ws/src/libraries/FreeRTOS/Source/queue.c **** 	{
1649:/home/rdu/Workspace/project_templates/mcu/stm32_ws/src/libraries/FreeRTOS/Source/queue.c **** 		configASSERT( !( ( xTaskGetSchedulerState() == taskSCHEDULER_SUSPENDED ) && ( xTicksToWait != 0 )
 2377              		.loc 1 1649 0
 2378 0058 FFF7FEFF 		bl	xTaskGetSchedulerState
 2379 005c 0346     		mov	r3, r0
 2380 005e 002B     		cmp	r3, #0
 2381 0060 02D1     		bne	.L179
 2382              		.loc 1 1649 0 is_stmt 0 discriminator 2
 2383 0062 019B     		ldr	r3, [sp, #4]
 2384 0064 002B     		cmp	r3, #0
 2385 0066 01D1     		bne	.L180
 2386              	.L179:
 2387              		.loc 1 1649 0 discriminator 3
 2388 0068 0123     		movs	r3, #1
 2389 006a 00E0     		b	.L181
 2390              	.L180:
 2391              		.loc 1 1649 0 discriminator 4
 2392 006c 0023     		movs	r3, #0
 2393              	.L181:
 2394              		.loc 1 1649 0 discriminator 6
 2395 006e 002B     		cmp	r3, #0
 2396 0070 09D1     		bne	.L182
 2397              	.LBB165:
 2398              	.LBB166:
 195:/home/rdu/Workspace/project_templates/mcu/stm32_ws/src/libraries/FreeRTOS/Source/portable/GCC/ARM_CM4F/portmacro.h **** 	(
 2399              		.loc 2 195 0 is_stmt 1 discriminator 7
 2400              		.syntax unified
 2401              	@ 195 "/home/rdu/Workspace/project_templates/mcu/stm32_ws/src/libraries/FreeRTOS/Source/portable/GC
 2402 0072 4FF05003 			mov r3, #80												
 2403 0076 83F31188 		msr basepri, r3											
 2404 007a BFF36F8F 		isb														
 2405 007e BFF34F8F 		dsb														
 2406              	
 2407              	@ 0 "" 2
 2408              		.thumb
 2409              		.syntax unified
 2410 0082 0793     		str	r3, [sp, #28]
 2411              	.L183:
 2412              	.LBE166:
 2413              	.LBE165:
 2414              		.loc 1 1649 0 discriminator 3
 2415 0084 FEE7     		b	.L183
 2416              	.L182:
1650:/home/rdu/Workspace/project_templates/mcu/stm32_ws/src/libraries/FreeRTOS/Source/queue.c **** 	}
1651:/home/rdu/Workspace/project_templates/mcu/stm32_ws/src/libraries/FreeRTOS/Source/queue.c **** 	#endif
1652:/home/rdu/Workspace/project_templates/mcu/stm32_ws/src/libraries/FreeRTOS/Source/queue.c **** 
1653:/home/rdu/Workspace/project_templates/mcu/stm32_ws/src/libraries/FreeRTOS/Source/queue.c **** 
1654:/home/rdu/Workspace/project_templates/mcu/stm32_ws/src/libraries/FreeRTOS/Source/queue.c **** 	/*lint -save -e904  This function relaxes the coding standard somewhat to
1655:/home/rdu/Workspace/project_templates/mcu/stm32_ws/src/libraries/FreeRTOS/Source/queue.c **** 	allow return statements within the function itself.  This is done in the
1656:/home/rdu/Workspace/project_templates/mcu/stm32_ws/src/libraries/FreeRTOS/Source/queue.c **** 	interest of execution time efficiency. */
1657:/home/rdu/Workspace/project_templates/mcu/stm32_ws/src/libraries/FreeRTOS/Source/queue.c **** 	for( ;; )
1658:/home/rdu/Workspace/project_templates/mcu/stm32_ws/src/libraries/FreeRTOS/Source/queue.c **** 	{
1659:/home/rdu/Workspace/project_templates/mcu/stm32_ws/src/libraries/FreeRTOS/Source/queue.c **** 		taskENTER_CRITICAL();
 2417              		.loc 1 1659 0
 2418 0086 FFF7FEFF 		bl	vPortEnterCritical
 2419              	.LBB167:
1660:/home/rdu/Workspace/project_templates/mcu/stm32_ws/src/libraries/FreeRTOS/Source/queue.c **** 		{
1661:/home/rdu/Workspace/project_templates/mcu/stm32_ws/src/libraries/FreeRTOS/Source/queue.c **** 			const UBaseType_t uxMessagesWaiting = pxQueue->uxMessagesWaiting;
 2420              		.loc 1 1661 0
 2421 008a 0C9B     		ldr	r3, [sp, #48]
 2422 008c 9B6B     		ldr	r3, [r3, #56]
 2423 008e 0B93     		str	r3, [sp, #44]
1662:/home/rdu/Workspace/project_templates/mcu/stm32_ws/src/libraries/FreeRTOS/Source/queue.c **** 
1663:/home/rdu/Workspace/project_templates/mcu/stm32_ws/src/libraries/FreeRTOS/Source/queue.c **** 			/* Is there data in the queue now?  To be running the calling task
1664:/home/rdu/Workspace/project_templates/mcu/stm32_ws/src/libraries/FreeRTOS/Source/queue.c **** 			must be the highest priority task wanting to access the queue. */
1665:/home/rdu/Workspace/project_templates/mcu/stm32_ws/src/libraries/FreeRTOS/Source/queue.c **** 			if( uxMessagesWaiting > ( UBaseType_t ) 0 )
 2424              		.loc 1 1665 0
 2425 0090 0B9B     		ldr	r3, [sp, #44]
 2426 0092 002B     		cmp	r3, #0
 2427 0094 21D0     		beq	.L184
1666:/home/rdu/Workspace/project_templates/mcu/stm32_ws/src/libraries/FreeRTOS/Source/queue.c **** 			{
1667:/home/rdu/Workspace/project_templates/mcu/stm32_ws/src/libraries/FreeRTOS/Source/queue.c **** 				/* Remember the read position so it can be reset after the data
1668:/home/rdu/Workspace/project_templates/mcu/stm32_ws/src/libraries/FreeRTOS/Source/queue.c **** 				is read from the queue as this function is only peeking the
1669:/home/rdu/Workspace/project_templates/mcu/stm32_ws/src/libraries/FreeRTOS/Source/queue.c **** 				data, not removing it. */
1670:/home/rdu/Workspace/project_templates/mcu/stm32_ws/src/libraries/FreeRTOS/Source/queue.c **** 				pcOriginalReadPosition = pxQueue->u.xQueue.pcReadFrom;
 2428              		.loc 1 1670 0
 2429 0096 0C9B     		ldr	r3, [sp, #48]
 2430 0098 DB68     		ldr	r3, [r3, #12]
 2431 009a 0A93     		str	r3, [sp, #40]
1671:/home/rdu/Workspace/project_templates/mcu/stm32_ws/src/libraries/FreeRTOS/Source/queue.c **** 
1672:/home/rdu/Workspace/project_templates/mcu/stm32_ws/src/libraries/FreeRTOS/Source/queue.c **** 				prvCopyDataFromQueue( pxQueue, pvBuffer );
 2432              		.loc 1 1672 0
 2433 009c 0299     		ldr	r1, [sp, #8]
 2434 009e 0C98     		ldr	r0, [sp, #48]
 2435 00a0 FFF7FEFF 		bl	prvCopyDataFromQueue
1673:/home/rdu/Workspace/project_templates/mcu/stm32_ws/src/libraries/FreeRTOS/Source/queue.c **** 				traceQUEUE_PEEK( pxQueue );
1674:/home/rdu/Workspace/project_templates/mcu/stm32_ws/src/libraries/FreeRTOS/Source/queue.c **** 
1675:/home/rdu/Workspace/project_templates/mcu/stm32_ws/src/libraries/FreeRTOS/Source/queue.c **** 				/* The data is not being removed, so reset the read pointer. */
1676:/home/rdu/Workspace/project_templates/mcu/stm32_ws/src/libraries/FreeRTOS/Source/queue.c **** 				pxQueue->u.xQueue.pcReadFrom = pcOriginalReadPosition;
 2436              		.loc 1 1676 0
 2437 00a4 0C9B     		ldr	r3, [sp, #48]
 2438 00a6 0A9A     		ldr	r2, [sp, #40]
 2439 00a8 DA60     		str	r2, [r3, #12]
1677:/home/rdu/Workspace/project_templates/mcu/stm32_ws/src/libraries/FreeRTOS/Source/queue.c **** 
1678:/home/rdu/Workspace/project_templates/mcu/stm32_ws/src/libraries/FreeRTOS/Source/queue.c **** 				/* The data is being left in the queue, so see if there are
1679:/home/rdu/Workspace/project_templates/mcu/stm32_ws/src/libraries/FreeRTOS/Source/queue.c **** 				any other tasks waiting for the data. */
1680:/home/rdu/Workspace/project_templates/mcu/stm32_ws/src/libraries/FreeRTOS/Source/queue.c **** 				if( listLIST_IS_EMPTY( &( pxQueue->xTasksWaitingToReceive ) ) == pdFALSE )
 2440              		.loc 1 1680 0
 2441 00aa 0C9B     		ldr	r3, [sp, #48]
 2442 00ac 5B6A     		ldr	r3, [r3, #36]
 2443 00ae 002B     		cmp	r3, #0
 2444 00b0 0FD0     		beq	.L185
1681:/home/rdu/Workspace/project_templates/mcu/stm32_ws/src/libraries/FreeRTOS/Source/queue.c **** 				{
1682:/home/rdu/Workspace/project_templates/mcu/stm32_ws/src/libraries/FreeRTOS/Source/queue.c **** 					if( xTaskRemoveFromEventList( &( pxQueue->xTasksWaitingToReceive ) ) != pdFALSE )
 2445              		.loc 1 1682 0
 2446 00b2 0C9B     		ldr	r3, [sp, #48]
 2447 00b4 2433     		adds	r3, r3, #36
 2448 00b6 1846     		mov	r0, r3
 2449 00b8 FFF7FEFF 		bl	xTaskRemoveFromEventList
 2450 00bc 0346     		mov	r3, r0
 2451 00be 002B     		cmp	r3, #0
 2452 00c0 07D0     		beq	.L185
1683:/home/rdu/Workspace/project_templates/mcu/stm32_ws/src/libraries/FreeRTOS/Source/queue.c **** 					{
1684:/home/rdu/Workspace/project_templates/mcu/stm32_ws/src/libraries/FreeRTOS/Source/queue.c **** 						/* The task waiting has a higher priority than this task. */
1685:/home/rdu/Workspace/project_templates/mcu/stm32_ws/src/libraries/FreeRTOS/Source/queue.c **** 						queueYIELD_IF_USING_PREEMPTION();
 2453              		.loc 1 1685 0
 2454 00c2 3C4B     		ldr	r3, .L196
 2455 00c4 4FF08052 		mov	r2, #268435456
 2456 00c8 1A60     		str	r2, [r3]
 2457              		.syntax unified
 2458              	@ 1685 "/home/rdu/Workspace/project_templates/mcu/stm32_ws/src/libraries/FreeRTOS/Source/queue.c" 1
 2459 00ca BFF34F8F 		dsb
 2460              	@ 0 "" 2
 2461              	@ 1685 "/home/rdu/Workspace/project_templates/mcu/stm32_ws/src/libraries/FreeRTOS/Source/queue.c" 1
 2462 00ce BFF36F8F 		isb
 2463              	@ 0 "" 2
 2464              		.thumb
 2465              		.syntax unified
 2466              	.L185:
1686:/home/rdu/Workspace/project_templates/mcu/stm32_ws/src/libraries/FreeRTOS/Source/queue.c **** 					}
1687:/home/rdu/Workspace/project_templates/mcu/stm32_ws/src/libraries/FreeRTOS/Source/queue.c **** 					else
1688:/home/rdu/Workspace/project_templates/mcu/stm32_ws/src/libraries/FreeRTOS/Source/queue.c **** 					{
1689:/home/rdu/Workspace/project_templates/mcu/stm32_ws/src/libraries/FreeRTOS/Source/queue.c **** 						mtCOVERAGE_TEST_MARKER();
1690:/home/rdu/Workspace/project_templates/mcu/stm32_ws/src/libraries/FreeRTOS/Source/queue.c **** 					}
1691:/home/rdu/Workspace/project_templates/mcu/stm32_ws/src/libraries/FreeRTOS/Source/queue.c **** 				}
1692:/home/rdu/Workspace/project_templates/mcu/stm32_ws/src/libraries/FreeRTOS/Source/queue.c **** 				else
1693:/home/rdu/Workspace/project_templates/mcu/stm32_ws/src/libraries/FreeRTOS/Source/queue.c **** 				{
1694:/home/rdu/Workspace/project_templates/mcu/stm32_ws/src/libraries/FreeRTOS/Source/queue.c **** 					mtCOVERAGE_TEST_MARKER();
1695:/home/rdu/Workspace/project_templates/mcu/stm32_ws/src/libraries/FreeRTOS/Source/queue.c **** 				}
1696:/home/rdu/Workspace/project_templates/mcu/stm32_ws/src/libraries/FreeRTOS/Source/queue.c **** 
1697:/home/rdu/Workspace/project_templates/mcu/stm32_ws/src/libraries/FreeRTOS/Source/queue.c **** 				taskEXIT_CRITICAL();
 2467              		.loc 1 1697 0
 2468 00d2 FFF7FEFF 		bl	vPortExitCritical
1698:/home/rdu/Workspace/project_templates/mcu/stm32_ws/src/libraries/FreeRTOS/Source/queue.c **** 				return pdPASS;
 2469              		.loc 1 1698 0
 2470 00d6 0123     		movs	r3, #1
 2471 00d8 67E0     		b	.L195
 2472              	.L184:
1699:/home/rdu/Workspace/project_templates/mcu/stm32_ws/src/libraries/FreeRTOS/Source/queue.c **** 			}
1700:/home/rdu/Workspace/project_templates/mcu/stm32_ws/src/libraries/FreeRTOS/Source/queue.c **** 			else
1701:/home/rdu/Workspace/project_templates/mcu/stm32_ws/src/libraries/FreeRTOS/Source/queue.c **** 			{
1702:/home/rdu/Workspace/project_templates/mcu/stm32_ws/src/libraries/FreeRTOS/Source/queue.c **** 				if( xTicksToWait == ( TickType_t ) 0 )
 2473              		.loc 1 1702 0
 2474 00da 019B     		ldr	r3, [sp, #4]
 2475 00dc 002B     		cmp	r3, #0
 2476 00de 03D1     		bne	.L187
1703:/home/rdu/Workspace/project_templates/mcu/stm32_ws/src/libraries/FreeRTOS/Source/queue.c **** 				{
1704:/home/rdu/Workspace/project_templates/mcu/stm32_ws/src/libraries/FreeRTOS/Source/queue.c **** 					/* The queue was empty and no block time is specified (or
1705:/home/rdu/Workspace/project_templates/mcu/stm32_ws/src/libraries/FreeRTOS/Source/queue.c **** 					the block time has expired) so leave now. */
1706:/home/rdu/Workspace/project_templates/mcu/stm32_ws/src/libraries/FreeRTOS/Source/queue.c **** 					taskEXIT_CRITICAL();
 2477              		.loc 1 1706 0
 2478 00e0 FFF7FEFF 		bl	vPortExitCritical
1707:/home/rdu/Workspace/project_templates/mcu/stm32_ws/src/libraries/FreeRTOS/Source/queue.c **** 					traceQUEUE_PEEK_FAILED( pxQueue );
1708:/home/rdu/Workspace/project_templates/mcu/stm32_ws/src/libraries/FreeRTOS/Source/queue.c **** 					return errQUEUE_EMPTY;
 2479              		.loc 1 1708 0
 2480 00e4 0023     		movs	r3, #0
 2481 00e6 60E0     		b	.L195
 2482              	.L187:
1709:/home/rdu/Workspace/project_templates/mcu/stm32_ws/src/libraries/FreeRTOS/Source/queue.c **** 				}
1710:/home/rdu/Workspace/project_templates/mcu/stm32_ws/src/libraries/FreeRTOS/Source/queue.c **** 				else if( xEntryTimeSet == pdFALSE )
 2483              		.loc 1 1710 0
 2484 00e8 0D9B     		ldr	r3, [sp, #52]
 2485 00ea 002B     		cmp	r3, #0
 2486 00ec 05D1     		bne	.L188
1711:/home/rdu/Workspace/project_templates/mcu/stm32_ws/src/libraries/FreeRTOS/Source/queue.c **** 				{
1712:/home/rdu/Workspace/project_templates/mcu/stm32_ws/src/libraries/FreeRTOS/Source/queue.c **** 					/* The queue was empty and a block time was specified so
1713:/home/rdu/Workspace/project_templates/mcu/stm32_ws/src/libraries/FreeRTOS/Source/queue.c **** 					configure the timeout structure ready to enter the blocked
1714:/home/rdu/Workspace/project_templates/mcu/stm32_ws/src/libraries/FreeRTOS/Source/queue.c **** 					state. */
1715:/home/rdu/Workspace/project_templates/mcu/stm32_ws/src/libraries/FreeRTOS/Source/queue.c **** 					vTaskInternalSetTimeOutState( &xTimeOut );
 2487              		.loc 1 1715 0
 2488 00ee 05AB     		add	r3, sp, #20
 2489 00f0 1846     		mov	r0, r3
 2490 00f2 FFF7FEFF 		bl	vTaskInternalSetTimeOutState
1716:/home/rdu/Workspace/project_templates/mcu/stm32_ws/src/libraries/FreeRTOS/Source/queue.c **** 					xEntryTimeSet = pdTRUE;
 2491              		.loc 1 1716 0
 2492 00f6 0123     		movs	r3, #1
 2493 00f8 0D93     		str	r3, [sp, #52]
 2494              	.L188:
 2495              	.LBE167:
1717:/home/rdu/Workspace/project_templates/mcu/stm32_ws/src/libraries/FreeRTOS/Source/queue.c **** 				}
1718:/home/rdu/Workspace/project_templates/mcu/stm32_ws/src/libraries/FreeRTOS/Source/queue.c **** 				else
1719:/home/rdu/Workspace/project_templates/mcu/stm32_ws/src/libraries/FreeRTOS/Source/queue.c **** 				{
1720:/home/rdu/Workspace/project_templates/mcu/stm32_ws/src/libraries/FreeRTOS/Source/queue.c **** 					/* Entry time was already set. */
1721:/home/rdu/Workspace/project_templates/mcu/stm32_ws/src/libraries/FreeRTOS/Source/queue.c **** 					mtCOVERAGE_TEST_MARKER();
1722:/home/rdu/Workspace/project_templates/mcu/stm32_ws/src/libraries/FreeRTOS/Source/queue.c **** 				}
1723:/home/rdu/Workspace/project_templates/mcu/stm32_ws/src/libraries/FreeRTOS/Source/queue.c **** 			}
1724:/home/rdu/Workspace/project_templates/mcu/stm32_ws/src/libraries/FreeRTOS/Source/queue.c **** 		}
1725:/home/rdu/Workspace/project_templates/mcu/stm32_ws/src/libraries/FreeRTOS/Source/queue.c **** 		taskEXIT_CRITICAL();
 2496              		.loc 1 1725 0
 2497 00fa FFF7FEFF 		bl	vPortExitCritical
1726:/home/rdu/Workspace/project_templates/mcu/stm32_ws/src/libraries/FreeRTOS/Source/queue.c **** 
1727:/home/rdu/Workspace/project_templates/mcu/stm32_ws/src/libraries/FreeRTOS/Source/queue.c **** 		/* Interrupts and other tasks can send to and receive from the queue
1728:/home/rdu/Workspace/project_templates/mcu/stm32_ws/src/libraries/FreeRTOS/Source/queue.c **** 		now the critical section has been exited. */
1729:/home/rdu/Workspace/project_templates/mcu/stm32_ws/src/libraries/FreeRTOS/Source/queue.c **** 
1730:/home/rdu/Workspace/project_templates/mcu/stm32_ws/src/libraries/FreeRTOS/Source/queue.c **** 		vTaskSuspendAll();
 2498              		.loc 1 1730 0
 2499 00fe FFF7FEFF 		bl	vTaskSuspendAll
1731:/home/rdu/Workspace/project_templates/mcu/stm32_ws/src/libraries/FreeRTOS/Source/queue.c **** 		prvLockQueue( pxQueue );
 2500              		.loc 1 1731 0
 2501 0102 FFF7FEFF 		bl	vPortEnterCritical
 2502 0106 0C9B     		ldr	r3, [sp, #48]
 2503 0108 93F84430 		ldrb	r3, [r3, #68]
 2504 010c 5BB2     		sxtb	r3, r3
 2505 010e B3F1FF3F 		cmp	r3, #-1
 2506 0112 03D1     		bne	.L189
 2507              		.loc 1 1731 0 is_stmt 0 discriminator 1
 2508 0114 0C9B     		ldr	r3, [sp, #48]
 2509 0116 0022     		movs	r2, #0
 2510 0118 83F84420 		strb	r2, [r3, #68]
 2511              	.L189:
 2512              		.loc 1 1731 0 discriminator 3
 2513 011c 0C9B     		ldr	r3, [sp, #48]
 2514 011e 93F84530 		ldrb	r3, [r3, #69]
 2515 0122 5BB2     		sxtb	r3, r3
 2516 0124 B3F1FF3F 		cmp	r3, #-1
 2517 0128 03D1     		bne	.L190
 2518              		.loc 1 1731 0 discriminator 4
 2519 012a 0C9B     		ldr	r3, [sp, #48]
 2520 012c 0022     		movs	r2, #0
 2521 012e 83F84520 		strb	r2, [r3, #69]
 2522              	.L190:
 2523              		.loc 1 1731 0 discriminator 6
 2524 0132 FFF7FEFF 		bl	vPortExitCritical
1732:/home/rdu/Workspace/project_templates/mcu/stm32_ws/src/libraries/FreeRTOS/Source/queue.c **** 
1733:/home/rdu/Workspace/project_templates/mcu/stm32_ws/src/libraries/FreeRTOS/Source/queue.c **** 		/* Update the timeout state to see if it has expired yet. */
1734:/home/rdu/Workspace/project_templates/mcu/stm32_ws/src/libraries/FreeRTOS/Source/queue.c **** 		if( xTaskCheckForTimeOut( &xTimeOut, &xTicksToWait ) == pdFALSE )
 2525              		.loc 1 1734 0 is_stmt 1 discriminator 6
 2526 0136 01AA     		add	r2, sp, #4
 2527 0138 05AB     		add	r3, sp, #20
 2528 013a 1146     		mov	r1, r2
 2529 013c 1846     		mov	r0, r3
 2530 013e FFF7FEFF 		bl	xTaskCheckForTimeOut
 2531 0142 0346     		mov	r3, r0
 2532 0144 002B     		cmp	r3, #0
 2533 0146 23D1     		bne	.L191
1735:/home/rdu/Workspace/project_templates/mcu/stm32_ws/src/libraries/FreeRTOS/Source/queue.c **** 		{
1736:/home/rdu/Workspace/project_templates/mcu/stm32_ws/src/libraries/FreeRTOS/Source/queue.c **** 			/* Timeout has not expired yet, check to see if there is data in the
1737:/home/rdu/Workspace/project_templates/mcu/stm32_ws/src/libraries/FreeRTOS/Source/queue.c **** 			queue now, and if not enter the Blocked state to wait for data. */
1738:/home/rdu/Workspace/project_templates/mcu/stm32_ws/src/libraries/FreeRTOS/Source/queue.c **** 			if( prvIsQueueEmpty( pxQueue ) != pdFALSE )
 2534              		.loc 1 1738 0
 2535 0148 0C98     		ldr	r0, [sp, #48]
 2536 014a FFF7FEFF 		bl	prvIsQueueEmpty
 2537 014e 0346     		mov	r3, r0
 2538 0150 002B     		cmp	r3, #0
 2539 0152 17D0     		beq	.L192
1739:/home/rdu/Workspace/project_templates/mcu/stm32_ws/src/libraries/FreeRTOS/Source/queue.c **** 			{
1740:/home/rdu/Workspace/project_templates/mcu/stm32_ws/src/libraries/FreeRTOS/Source/queue.c **** 				traceBLOCKING_ON_QUEUE_PEEK( pxQueue );
1741:/home/rdu/Workspace/project_templates/mcu/stm32_ws/src/libraries/FreeRTOS/Source/queue.c **** 				vTaskPlaceOnEventList( &( pxQueue->xTasksWaitingToReceive ), xTicksToWait );
 2540              		.loc 1 1741 0
 2541 0154 0C9B     		ldr	r3, [sp, #48]
 2542 0156 2433     		adds	r3, r3, #36
 2543 0158 019A     		ldr	r2, [sp, #4]
 2544 015a 1146     		mov	r1, r2
 2545 015c 1846     		mov	r0, r3
 2546 015e FFF7FEFF 		bl	vTaskPlaceOnEventList
1742:/home/rdu/Workspace/project_templates/mcu/stm32_ws/src/libraries/FreeRTOS/Source/queue.c **** 				prvUnlockQueue( pxQueue );
 2547              		.loc 1 1742 0
 2548 0162 0C98     		ldr	r0, [sp, #48]
 2549 0164 FFF7FEFF 		bl	prvUnlockQueue
1743:/home/rdu/Workspace/project_templates/mcu/stm32_ws/src/libraries/FreeRTOS/Source/queue.c **** 				if( xTaskResumeAll() == pdFALSE )
 2550              		.loc 1 1743 0
 2551 0168 FFF7FEFF 		bl	xTaskResumeAll
 2552 016c 0346     		mov	r3, r0
 2553 016e 002B     		cmp	r3, #0
 2554 0170 89D1     		bne	.L182
1744:/home/rdu/Workspace/project_templates/mcu/stm32_ws/src/libraries/FreeRTOS/Source/queue.c **** 				{
1745:/home/rdu/Workspace/project_templates/mcu/stm32_ws/src/libraries/FreeRTOS/Source/queue.c **** 					portYIELD_WITHIN_API();
 2555              		.loc 1 1745 0
 2556 0172 104B     		ldr	r3, .L196
 2557 0174 4FF08052 		mov	r2, #268435456
 2558 0178 1A60     		str	r2, [r3]
 2559              		.syntax unified
 2560              	@ 1745 "/home/rdu/Workspace/project_templates/mcu/stm32_ws/src/libraries/FreeRTOS/Source/queue.c" 1
 2561 017a BFF34F8F 		dsb
 2562              	@ 0 "" 2
 2563              	@ 1745 "/home/rdu/Workspace/project_templates/mcu/stm32_ws/src/libraries/FreeRTOS/Source/queue.c" 1
 2564 017e BFF36F8F 		isb
 2565              	@ 0 "" 2
 2566              		.thumb
 2567              		.syntax unified
 2568 0182 80E7     		b	.L182
 2569              	.L192:
1746:/home/rdu/Workspace/project_templates/mcu/stm32_ws/src/libraries/FreeRTOS/Source/queue.c **** 				}
1747:/home/rdu/Workspace/project_templates/mcu/stm32_ws/src/libraries/FreeRTOS/Source/queue.c **** 				else
1748:/home/rdu/Workspace/project_templates/mcu/stm32_ws/src/libraries/FreeRTOS/Source/queue.c **** 				{
1749:/home/rdu/Workspace/project_templates/mcu/stm32_ws/src/libraries/FreeRTOS/Source/queue.c **** 					mtCOVERAGE_TEST_MARKER();
1750:/home/rdu/Workspace/project_templates/mcu/stm32_ws/src/libraries/FreeRTOS/Source/queue.c **** 				}
1751:/home/rdu/Workspace/project_templates/mcu/stm32_ws/src/libraries/FreeRTOS/Source/queue.c **** 			}
1752:/home/rdu/Workspace/project_templates/mcu/stm32_ws/src/libraries/FreeRTOS/Source/queue.c **** 			else
1753:/home/rdu/Workspace/project_templates/mcu/stm32_ws/src/libraries/FreeRTOS/Source/queue.c **** 			{
1754:/home/rdu/Workspace/project_templates/mcu/stm32_ws/src/libraries/FreeRTOS/Source/queue.c **** 				/* There is data in the queue now, so don't enter the blocked
1755:/home/rdu/Workspace/project_templates/mcu/stm32_ws/src/libraries/FreeRTOS/Source/queue.c **** 				state, instead return to try and obtain the data. */
1756:/home/rdu/Workspace/project_templates/mcu/stm32_ws/src/libraries/FreeRTOS/Source/queue.c **** 				prvUnlockQueue( pxQueue );
 2570              		.loc 1 1756 0
 2571 0184 0C98     		ldr	r0, [sp, #48]
 2572 0186 FFF7FEFF 		bl	prvUnlockQueue
1757:/home/rdu/Workspace/project_templates/mcu/stm32_ws/src/libraries/FreeRTOS/Source/queue.c **** 				( void ) xTaskResumeAll();
 2573              		.loc 1 1757 0
 2574 018a FFF7FEFF 		bl	xTaskResumeAll
 2575 018e 7AE7     		b	.L182
 2576              	.L191:
1758:/home/rdu/Workspace/project_templates/mcu/stm32_ws/src/libraries/FreeRTOS/Source/queue.c **** 			}
1759:/home/rdu/Workspace/project_templates/mcu/stm32_ws/src/libraries/FreeRTOS/Source/queue.c **** 		}
1760:/home/rdu/Workspace/project_templates/mcu/stm32_ws/src/libraries/FreeRTOS/Source/queue.c **** 		else
1761:/home/rdu/Workspace/project_templates/mcu/stm32_ws/src/libraries/FreeRTOS/Source/queue.c **** 		{
1762:/home/rdu/Workspace/project_templates/mcu/stm32_ws/src/libraries/FreeRTOS/Source/queue.c **** 			/* The timeout has expired.  If there is still no data in the queue
1763:/home/rdu/Workspace/project_templates/mcu/stm32_ws/src/libraries/FreeRTOS/Source/queue.c **** 			exit, otherwise go back and try to read the data again. */
1764:/home/rdu/Workspace/project_templates/mcu/stm32_ws/src/libraries/FreeRTOS/Source/queue.c **** 			prvUnlockQueue( pxQueue );
 2577              		.loc 1 1764 0
 2578 0190 0C98     		ldr	r0, [sp, #48]
 2579 0192 FFF7FEFF 		bl	prvUnlockQueue
1765:/home/rdu/Workspace/project_templates/mcu/stm32_ws/src/libraries/FreeRTOS/Source/queue.c **** 			( void ) xTaskResumeAll();
 2580              		.loc 1 1765 0
 2581 0196 FFF7FEFF 		bl	xTaskResumeAll
1766:/home/rdu/Workspace/project_templates/mcu/stm32_ws/src/libraries/FreeRTOS/Source/queue.c **** 
1767:/home/rdu/Workspace/project_templates/mcu/stm32_ws/src/libraries/FreeRTOS/Source/queue.c **** 			if( prvIsQueueEmpty( pxQueue ) != pdFALSE )
 2582              		.loc 1 1767 0
 2583 019a 0C98     		ldr	r0, [sp, #48]
 2584 019c FFF7FEFF 		bl	prvIsQueueEmpty
 2585 01a0 0346     		mov	r3, r0
 2586 01a2 002B     		cmp	r3, #0
 2587 01a4 3FF46FAF 		beq	.L182
1768:/home/rdu/Workspace/project_templates/mcu/stm32_ws/src/libraries/FreeRTOS/Source/queue.c **** 			{
1769:/home/rdu/Workspace/project_templates/mcu/stm32_ws/src/libraries/FreeRTOS/Source/queue.c **** 				traceQUEUE_PEEK_FAILED( pxQueue );
1770:/home/rdu/Workspace/project_templates/mcu/stm32_ws/src/libraries/FreeRTOS/Source/queue.c **** 				return errQUEUE_EMPTY;
 2588              		.loc 1 1770 0
 2589 01a8 0023     		movs	r3, #0
 2590              	.L195:
1771:/home/rdu/Workspace/project_templates/mcu/stm32_ws/src/libraries/FreeRTOS/Source/queue.c **** 			}
1772:/home/rdu/Workspace/project_templates/mcu/stm32_ws/src/libraries/FreeRTOS/Source/queue.c **** 			else
1773:/home/rdu/Workspace/project_templates/mcu/stm32_ws/src/libraries/FreeRTOS/Source/queue.c **** 			{
1774:/home/rdu/Workspace/project_templates/mcu/stm32_ws/src/libraries/FreeRTOS/Source/queue.c **** 				mtCOVERAGE_TEST_MARKER();
1775:/home/rdu/Workspace/project_templates/mcu/stm32_ws/src/libraries/FreeRTOS/Source/queue.c **** 			}
1776:/home/rdu/Workspace/project_templates/mcu/stm32_ws/src/libraries/FreeRTOS/Source/queue.c **** 		}
1777:/home/rdu/Workspace/project_templates/mcu/stm32_ws/src/libraries/FreeRTOS/Source/queue.c **** 	} /*lint -restore */
1778:/home/rdu/Workspace/project_templates/mcu/stm32_ws/src/libraries/FreeRTOS/Source/queue.c **** }
 2591              		.loc 1 1778 0 discriminator 6
 2592 01aa 1846     		mov	r0, r3
 2593 01ac 0FB0     		add	sp, sp, #60
 2594              	.LCFI41:
 2595              		.cfi_def_cfa_offset 4
 2596              		@ sp needed
 2597 01ae 5DF804FB 		ldr	pc, [sp], #4
 2598              	.L197:
 2599 01b2 00BF     		.align	2
 2600              	.L196:
 2601 01b4 04ED00E0 		.word	-536810236
 2602              		.cfi_endproc
 2603              	.LFE18:
 2605              		.section	.text.xQueueReceiveFromISR,"ax",%progbits
 2606              		.align	1
 2607              		.global	xQueueReceiveFromISR
 2608              		.syntax unified
 2609              		.thumb
 2610              		.thumb_func
 2611              		.fpu fpv4-sp-d16
 2613              	xQueueReceiveFromISR:
 2614              	.LFB19:
1779:/home/rdu/Workspace/project_templates/mcu/stm32_ws/src/libraries/FreeRTOS/Source/queue.c **** /*-----------------------------------------------------------*/
1780:/home/rdu/Workspace/project_templates/mcu/stm32_ws/src/libraries/FreeRTOS/Source/queue.c **** 
1781:/home/rdu/Workspace/project_templates/mcu/stm32_ws/src/libraries/FreeRTOS/Source/queue.c **** BaseType_t xQueueReceiveFromISR( QueueHandle_t xQueue, void * const pvBuffer, BaseType_t * const px
1782:/home/rdu/Workspace/project_templates/mcu/stm32_ws/src/libraries/FreeRTOS/Source/queue.c **** {
 2615              		.loc 1 1782 0
 2616              		.cfi_startproc
 2617              		@ args = 0, pretend = 0, frame = 56
 2618              		@ frame_needed = 0, uses_anonymous_args = 0
 2619 0000 00B5     		push	{lr}
 2620              	.LCFI42:
 2621              		.cfi_def_cfa_offset 4
 2622              		.cfi_offset 14, -4
 2623 0002 8FB0     		sub	sp, sp, #60
 2624              	.LCFI43:
 2625              		.cfi_def_cfa_offset 64
 2626 0004 0390     		str	r0, [sp, #12]
 2627 0006 0291     		str	r1, [sp, #8]
 2628 0008 0192     		str	r2, [sp, #4]
1783:/home/rdu/Workspace/project_templates/mcu/stm32_ws/src/libraries/FreeRTOS/Source/queue.c **** BaseType_t xReturn;
1784:/home/rdu/Workspace/project_templates/mcu/stm32_ws/src/libraries/FreeRTOS/Source/queue.c **** UBaseType_t uxSavedInterruptStatus;
1785:/home/rdu/Workspace/project_templates/mcu/stm32_ws/src/libraries/FreeRTOS/Source/queue.c **** Queue_t * const pxQueue = xQueue;
 2629              		.loc 1 1785 0
 2630 000a 039B     		ldr	r3, [sp, #12]
 2631 000c 0C93     		str	r3, [sp, #48]
1786:/home/rdu/Workspace/project_templates/mcu/stm32_ws/src/libraries/FreeRTOS/Source/queue.c **** 
1787:/home/rdu/Workspace/project_templates/mcu/stm32_ws/src/libraries/FreeRTOS/Source/queue.c **** 	configASSERT( pxQueue );
 2632              		.loc 1 1787 0
 2633 000e 0C9B     		ldr	r3, [sp, #48]
 2634 0010 002B     		cmp	r3, #0
 2635 0012 09D1     		bne	.L199
 2636              	.LBB168:
 2637              	.LBB169:
 195:/home/rdu/Workspace/project_templates/mcu/stm32_ws/src/libraries/FreeRTOS/Source/portable/GCC/ARM_CM4F/portmacro.h **** 	(
 2638              		.loc 2 195 0 discriminator 1
 2639              		.syntax unified
 2640              	@ 195 "/home/rdu/Workspace/project_templates/mcu/stm32_ws/src/libraries/FreeRTOS/Source/portable/GC
 2641 0014 4FF05003 			mov r3, #80												
 2642 0018 83F31188 		msr basepri, r3											
 2643 001c BFF36F8F 		isb														
 2644 0020 BFF34F8F 		dsb														
 2645              	
 2646              	@ 0 "" 2
 2647              		.thumb
 2648              		.syntax unified
 2649 0024 0893     		str	r3, [sp, #32]
 2650              	.L200:
 2651              	.LBE169:
 2652              	.LBE168:
 2653              		.loc 1 1787 0 discriminator 1
 2654 0026 FEE7     		b	.L200
 2655              	.L199:
1788:/home/rdu/Workspace/project_templates/mcu/stm32_ws/src/libraries/FreeRTOS/Source/queue.c **** 	configASSERT( !( ( pvBuffer == NULL ) && ( pxQueue->uxItemSize != ( UBaseType_t ) 0U ) ) );
 2656              		.loc 1 1788 0
 2657 0028 029B     		ldr	r3, [sp, #8]
 2658 002a 002B     		cmp	r3, #0
 2659 002c 03D1     		bne	.L201
 2660              		.loc 1 1788 0 is_stmt 0 discriminator 2
 2661 002e 0C9B     		ldr	r3, [sp, #48]
 2662 0030 1B6C     		ldr	r3, [r3, #64]
 2663 0032 002B     		cmp	r3, #0
 2664 0034 01D1     		bne	.L202
 2665              	.L201:
 2666              		.loc 1 1788 0 discriminator 3
 2667 0036 0123     		movs	r3, #1
 2668 0038 00E0     		b	.L203
 2669              	.L202:
 2670              		.loc 1 1788 0 discriminator 4
 2671 003a 0023     		movs	r3, #0
 2672              	.L203:
 2673              		.loc 1 1788 0 discriminator 6
 2674 003c 002B     		cmp	r3, #0
 2675 003e 09D1     		bne	.L204
 2676              	.LBB170:
 2677              	.LBB171:
 195:/home/rdu/Workspace/project_templates/mcu/stm32_ws/src/libraries/FreeRTOS/Source/portable/GCC/ARM_CM4F/portmacro.h **** 	(
 2678              		.loc 2 195 0 is_stmt 1 discriminator 7
 2679              		.syntax unified
 2680              	@ 195 "/home/rdu/Workspace/project_templates/mcu/stm32_ws/src/libraries/FreeRTOS/Source/portable/GC
 2681 0040 4FF05003 			mov r3, #80												
 2682 0044 83F31188 		msr basepri, r3											
 2683 0048 BFF36F8F 		isb														
 2684 004c BFF34F8F 		dsb														
 2685              	
 2686              	@ 0 "" 2
 2687              		.thumb
 2688              		.syntax unified
 2689 0050 0793     		str	r3, [sp, #28]
 2690              	.L205:
 2691              	.LBE171:
 2692              	.LBE170:
 2693              		.loc 1 1788 0 discriminator 2
 2694 0052 FEE7     		b	.L205
 2695              	.L204:
1789:/home/rdu/Workspace/project_templates/mcu/stm32_ws/src/libraries/FreeRTOS/Source/queue.c **** 
1790:/home/rdu/Workspace/project_templates/mcu/stm32_ws/src/libraries/FreeRTOS/Source/queue.c **** 	/* RTOS ports that support interrupt nesting have the concept of a maximum
1791:/home/rdu/Workspace/project_templates/mcu/stm32_ws/src/libraries/FreeRTOS/Source/queue.c **** 	system call (or maximum API call) interrupt priority.  Interrupts that are
1792:/home/rdu/Workspace/project_templates/mcu/stm32_ws/src/libraries/FreeRTOS/Source/queue.c **** 	above the maximum system call priority are kept permanently enabled, even
1793:/home/rdu/Workspace/project_templates/mcu/stm32_ws/src/libraries/FreeRTOS/Source/queue.c **** 	when the RTOS kernel is in a critical section, but cannot make any calls to
1794:/home/rdu/Workspace/project_templates/mcu/stm32_ws/src/libraries/FreeRTOS/Source/queue.c **** 	FreeRTOS API functions.  If configASSERT() is defined in FreeRTOSConfig.h
1795:/home/rdu/Workspace/project_templates/mcu/stm32_ws/src/libraries/FreeRTOS/Source/queue.c **** 	then portASSERT_IF_INTERRUPT_PRIORITY_INVALID() will result in an assertion
1796:/home/rdu/Workspace/project_templates/mcu/stm32_ws/src/libraries/FreeRTOS/Source/queue.c **** 	failure if a FreeRTOS API function is called from an interrupt that has been
1797:/home/rdu/Workspace/project_templates/mcu/stm32_ws/src/libraries/FreeRTOS/Source/queue.c **** 	assigned a priority above the configured maximum system call priority.
1798:/home/rdu/Workspace/project_templates/mcu/stm32_ws/src/libraries/FreeRTOS/Source/queue.c **** 	Only FreeRTOS functions that end in FromISR can be called from interrupts
1799:/home/rdu/Workspace/project_templates/mcu/stm32_ws/src/libraries/FreeRTOS/Source/queue.c **** 	that have been assigned a priority at or (logically) below the maximum
1800:/home/rdu/Workspace/project_templates/mcu/stm32_ws/src/libraries/FreeRTOS/Source/queue.c **** 	system call	interrupt priority.  FreeRTOS maintains a separate interrupt
1801:/home/rdu/Workspace/project_templates/mcu/stm32_ws/src/libraries/FreeRTOS/Source/queue.c **** 	safe API to ensure interrupt entry is as fast and as simple as possible.
1802:/home/rdu/Workspace/project_templates/mcu/stm32_ws/src/libraries/FreeRTOS/Source/queue.c **** 	More information (albeit Cortex-M specific) is provided on the following
1803:/home/rdu/Workspace/project_templates/mcu/stm32_ws/src/libraries/FreeRTOS/Source/queue.c **** 	link: http://www.freertos.org/RTOS-Cortex-M3-M4.html */
1804:/home/rdu/Workspace/project_templates/mcu/stm32_ws/src/libraries/FreeRTOS/Source/queue.c **** 	portASSERT_IF_INTERRUPT_PRIORITY_INVALID();
 2696              		.loc 1 1804 0
 2697 0054 FFF7FEFF 		bl	vPortValidateInterruptPriority
 2698              	.LBB172:
 2699              	.LBB173:
 211:/home/rdu/Workspace/project_templates/mcu/stm32_ws/src/libraries/FreeRTOS/Source/portable/GCC/ARM_CM4F/portmacro.h **** 	(
 2700              		.loc 2 211 0
 2701              		.syntax unified
 2702              	@ 211 "/home/rdu/Workspace/project_templates/mcu/stm32_ws/src/libraries/FreeRTOS/Source/portable/GC
 2703 0058 EFF31182 			mrs r2, basepri											
 2704 005c 4FF05003 		mov r3, #80												
 2705 0060 83F31188 		msr basepri, r3											
 2706 0064 BFF36F8F 		isb														
 2707 0068 BFF34F8F 		dsb														
 2708              	
 2709              	@ 0 "" 2
 2710              		.thumb
 2711              		.syntax unified
 2712 006c 0692     		str	r2, [sp, #24]
 2713 006e 0593     		str	r3, [sp, #20]
 223:/home/rdu/Workspace/project_templates/mcu/stm32_ws/src/libraries/FreeRTOS/Source/portable/GCC/ARM_CM4F/portmacro.h **** }
 2714              		.loc 2 223 0
 2715 0070 069B     		ldr	r3, [sp, #24]
 2716              	.LBE173:
 2717              	.LBE172:
1805:/home/rdu/Workspace/project_templates/mcu/stm32_ws/src/libraries/FreeRTOS/Source/queue.c **** 
1806:/home/rdu/Workspace/project_templates/mcu/stm32_ws/src/libraries/FreeRTOS/Source/queue.c **** 	uxSavedInterruptStatus = portSET_INTERRUPT_MASK_FROM_ISR();
 2718              		.loc 1 1806 0
 2719 0072 0B93     		str	r3, [sp, #44]
 2720              	.LBB174:
1807:/home/rdu/Workspace/project_templates/mcu/stm32_ws/src/libraries/FreeRTOS/Source/queue.c **** 	{
1808:/home/rdu/Workspace/project_templates/mcu/stm32_ws/src/libraries/FreeRTOS/Source/queue.c **** 		const UBaseType_t uxMessagesWaiting = pxQueue->uxMessagesWaiting;
 2721              		.loc 1 1808 0
 2722 0074 0C9B     		ldr	r3, [sp, #48]
 2723 0076 9B6B     		ldr	r3, [r3, #56]
 2724 0078 0A93     		str	r3, [sp, #40]
1809:/home/rdu/Workspace/project_templates/mcu/stm32_ws/src/libraries/FreeRTOS/Source/queue.c **** 
1810:/home/rdu/Workspace/project_templates/mcu/stm32_ws/src/libraries/FreeRTOS/Source/queue.c **** 		/* Cannot block in an ISR, so check there is data available. */
1811:/home/rdu/Workspace/project_templates/mcu/stm32_ws/src/libraries/FreeRTOS/Source/queue.c **** 		if( uxMessagesWaiting > ( UBaseType_t ) 0 )
 2725              		.loc 1 1811 0
 2726 007a 0A9B     		ldr	r3, [sp, #40]
 2727 007c 002B     		cmp	r3, #0
 2728 007e 2FD0     		beq	.L207
 2729              	.LBB175:
1812:/home/rdu/Workspace/project_templates/mcu/stm32_ws/src/libraries/FreeRTOS/Source/queue.c **** 		{
1813:/home/rdu/Workspace/project_templates/mcu/stm32_ws/src/libraries/FreeRTOS/Source/queue.c **** 			const int8_t cRxLock = pxQueue->cRxLock;
 2730              		.loc 1 1813 0
 2731 0080 0C9B     		ldr	r3, [sp, #48]
 2732 0082 93F84430 		ldrb	r3, [r3, #68]
 2733 0086 8DF82730 		strb	r3, [sp, #39]
1814:/home/rdu/Workspace/project_templates/mcu/stm32_ws/src/libraries/FreeRTOS/Source/queue.c **** 
1815:/home/rdu/Workspace/project_templates/mcu/stm32_ws/src/libraries/FreeRTOS/Source/queue.c **** 			traceQUEUE_RECEIVE_FROM_ISR( pxQueue );
1816:/home/rdu/Workspace/project_templates/mcu/stm32_ws/src/libraries/FreeRTOS/Source/queue.c **** 
1817:/home/rdu/Workspace/project_templates/mcu/stm32_ws/src/libraries/FreeRTOS/Source/queue.c **** 			prvCopyDataFromQueue( pxQueue, pvBuffer );
 2734              		.loc 1 1817 0
 2735 008a 0299     		ldr	r1, [sp, #8]
 2736 008c 0C98     		ldr	r0, [sp, #48]
 2737 008e FFF7FEFF 		bl	prvCopyDataFromQueue
1818:/home/rdu/Workspace/project_templates/mcu/stm32_ws/src/libraries/FreeRTOS/Source/queue.c **** 			pxQueue->uxMessagesWaiting = uxMessagesWaiting - ( UBaseType_t ) 1;
 2738              		.loc 1 1818 0
 2739 0092 0A9B     		ldr	r3, [sp, #40]
 2740 0094 5A1E     		subs	r2, r3, #1
 2741 0096 0C9B     		ldr	r3, [sp, #48]
 2742 0098 9A63     		str	r2, [r3, #56]
1819:/home/rdu/Workspace/project_templates/mcu/stm32_ws/src/libraries/FreeRTOS/Source/queue.c **** 
1820:/home/rdu/Workspace/project_templates/mcu/stm32_ws/src/libraries/FreeRTOS/Source/queue.c **** 			/* If the queue is locked the event list will not be modified.
1821:/home/rdu/Workspace/project_templates/mcu/stm32_ws/src/libraries/FreeRTOS/Source/queue.c **** 			Instead update the lock count so the task that unlocks the queue
1822:/home/rdu/Workspace/project_templates/mcu/stm32_ws/src/libraries/FreeRTOS/Source/queue.c **** 			will know that an ISR has removed data while the queue was
1823:/home/rdu/Workspace/project_templates/mcu/stm32_ws/src/libraries/FreeRTOS/Source/queue.c **** 			locked. */
1824:/home/rdu/Workspace/project_templates/mcu/stm32_ws/src/libraries/FreeRTOS/Source/queue.c **** 			if( cRxLock == queueUNLOCKED )
 2743              		.loc 1 1824 0
 2744 009a 9DF92730 		ldrsb	r3, [sp, #39]
 2745 009e B3F1FF3F 		cmp	r3, #-1
 2746 00a2 12D1     		bne	.L208
1825:/home/rdu/Workspace/project_templates/mcu/stm32_ws/src/libraries/FreeRTOS/Source/queue.c **** 			{
1826:/home/rdu/Workspace/project_templates/mcu/stm32_ws/src/libraries/FreeRTOS/Source/queue.c **** 				if( listLIST_IS_EMPTY( &( pxQueue->xTasksWaitingToSend ) ) == pdFALSE )
 2747              		.loc 1 1826 0
 2748 00a4 0C9B     		ldr	r3, [sp, #48]
 2749 00a6 1B69     		ldr	r3, [r3, #16]
 2750 00a8 002B     		cmp	r3, #0
 2751 00aa 16D0     		beq	.L209
1827:/home/rdu/Workspace/project_templates/mcu/stm32_ws/src/libraries/FreeRTOS/Source/queue.c **** 				{
1828:/home/rdu/Workspace/project_templates/mcu/stm32_ws/src/libraries/FreeRTOS/Source/queue.c **** 					if( xTaskRemoveFromEventList( &( pxQueue->xTasksWaitingToSend ) ) != pdFALSE )
 2752              		.loc 1 1828 0
 2753 00ac 0C9B     		ldr	r3, [sp, #48]
 2754 00ae 1033     		adds	r3, r3, #16
 2755 00b0 1846     		mov	r0, r3
 2756 00b2 FFF7FEFF 		bl	xTaskRemoveFromEventList
 2757 00b6 0346     		mov	r3, r0
 2758 00b8 002B     		cmp	r3, #0
 2759 00ba 0ED0     		beq	.L209
1829:/home/rdu/Workspace/project_templates/mcu/stm32_ws/src/libraries/FreeRTOS/Source/queue.c **** 					{
1830:/home/rdu/Workspace/project_templates/mcu/stm32_ws/src/libraries/FreeRTOS/Source/queue.c **** 						/* The task waiting has a higher priority than us so
1831:/home/rdu/Workspace/project_templates/mcu/stm32_ws/src/libraries/FreeRTOS/Source/queue.c **** 						force a context switch. */
1832:/home/rdu/Workspace/project_templates/mcu/stm32_ws/src/libraries/FreeRTOS/Source/queue.c **** 						if( pxHigherPriorityTaskWoken != NULL )
 2760              		.loc 1 1832 0
 2761 00bc 019B     		ldr	r3, [sp, #4]
 2762 00be 002B     		cmp	r3, #0
 2763 00c0 0BD0     		beq	.L209
1833:/home/rdu/Workspace/project_templates/mcu/stm32_ws/src/libraries/FreeRTOS/Source/queue.c **** 						{
1834:/home/rdu/Workspace/project_templates/mcu/stm32_ws/src/libraries/FreeRTOS/Source/queue.c **** 							*pxHigherPriorityTaskWoken = pdTRUE;
 2764              		.loc 1 1834 0
 2765 00c2 019B     		ldr	r3, [sp, #4]
 2766 00c4 0122     		movs	r2, #1
 2767 00c6 1A60     		str	r2, [r3]
 2768 00c8 07E0     		b	.L209
 2769              	.L208:
1835:/home/rdu/Workspace/project_templates/mcu/stm32_ws/src/libraries/FreeRTOS/Source/queue.c **** 						}
1836:/home/rdu/Workspace/project_templates/mcu/stm32_ws/src/libraries/FreeRTOS/Source/queue.c **** 						else
1837:/home/rdu/Workspace/project_templates/mcu/stm32_ws/src/libraries/FreeRTOS/Source/queue.c **** 						{
1838:/home/rdu/Workspace/project_templates/mcu/stm32_ws/src/libraries/FreeRTOS/Source/queue.c **** 							mtCOVERAGE_TEST_MARKER();
1839:/home/rdu/Workspace/project_templates/mcu/stm32_ws/src/libraries/FreeRTOS/Source/queue.c **** 						}
1840:/home/rdu/Workspace/project_templates/mcu/stm32_ws/src/libraries/FreeRTOS/Source/queue.c **** 					}
1841:/home/rdu/Workspace/project_templates/mcu/stm32_ws/src/libraries/FreeRTOS/Source/queue.c **** 					else
1842:/home/rdu/Workspace/project_templates/mcu/stm32_ws/src/libraries/FreeRTOS/Source/queue.c **** 					{
1843:/home/rdu/Workspace/project_templates/mcu/stm32_ws/src/libraries/FreeRTOS/Source/queue.c **** 						mtCOVERAGE_TEST_MARKER();
1844:/home/rdu/Workspace/project_templates/mcu/stm32_ws/src/libraries/FreeRTOS/Source/queue.c **** 					}
1845:/home/rdu/Workspace/project_templates/mcu/stm32_ws/src/libraries/FreeRTOS/Source/queue.c **** 				}
1846:/home/rdu/Workspace/project_templates/mcu/stm32_ws/src/libraries/FreeRTOS/Source/queue.c **** 				else
1847:/home/rdu/Workspace/project_templates/mcu/stm32_ws/src/libraries/FreeRTOS/Source/queue.c **** 				{
1848:/home/rdu/Workspace/project_templates/mcu/stm32_ws/src/libraries/FreeRTOS/Source/queue.c **** 					mtCOVERAGE_TEST_MARKER();
1849:/home/rdu/Workspace/project_templates/mcu/stm32_ws/src/libraries/FreeRTOS/Source/queue.c **** 				}
1850:/home/rdu/Workspace/project_templates/mcu/stm32_ws/src/libraries/FreeRTOS/Source/queue.c **** 			}
1851:/home/rdu/Workspace/project_templates/mcu/stm32_ws/src/libraries/FreeRTOS/Source/queue.c **** 			else
1852:/home/rdu/Workspace/project_templates/mcu/stm32_ws/src/libraries/FreeRTOS/Source/queue.c **** 			{
1853:/home/rdu/Workspace/project_templates/mcu/stm32_ws/src/libraries/FreeRTOS/Source/queue.c **** 				/* Increment the lock count so the task that unlocks the queue
1854:/home/rdu/Workspace/project_templates/mcu/stm32_ws/src/libraries/FreeRTOS/Source/queue.c **** 				knows that data was removed while it was locked. */
1855:/home/rdu/Workspace/project_templates/mcu/stm32_ws/src/libraries/FreeRTOS/Source/queue.c **** 				pxQueue->cRxLock = ( int8_t ) ( cRxLock + 1 );
 2770              		.loc 1 1855 0
 2771 00ca 9DF82730 		ldrb	r3, [sp, #39]	@ zero_extendqisi2
 2772 00ce 0133     		adds	r3, r3, #1
 2773 00d0 DBB2     		uxtb	r3, r3
 2774 00d2 5AB2     		sxtb	r2, r3
 2775 00d4 0C9B     		ldr	r3, [sp, #48]
 2776 00d6 83F84420 		strb	r2, [r3, #68]
 2777              	.L209:
1856:/home/rdu/Workspace/project_templates/mcu/stm32_ws/src/libraries/FreeRTOS/Source/queue.c **** 			}
1857:/home/rdu/Workspace/project_templates/mcu/stm32_ws/src/libraries/FreeRTOS/Source/queue.c **** 
1858:/home/rdu/Workspace/project_templates/mcu/stm32_ws/src/libraries/FreeRTOS/Source/queue.c **** 			xReturn = pdPASS;
 2778              		.loc 1 1858 0
 2779 00da 0123     		movs	r3, #1
 2780 00dc 0D93     		str	r3, [sp, #52]
 2781              	.LBE175:
 2782 00de 01E0     		b	.L210
 2783              	.L207:
1859:/home/rdu/Workspace/project_templates/mcu/stm32_ws/src/libraries/FreeRTOS/Source/queue.c **** 		}
1860:/home/rdu/Workspace/project_templates/mcu/stm32_ws/src/libraries/FreeRTOS/Source/queue.c **** 		else
1861:/home/rdu/Workspace/project_templates/mcu/stm32_ws/src/libraries/FreeRTOS/Source/queue.c **** 		{
1862:/home/rdu/Workspace/project_templates/mcu/stm32_ws/src/libraries/FreeRTOS/Source/queue.c **** 			xReturn = pdFAIL;
 2784              		.loc 1 1862 0
 2785 00e0 0023     		movs	r3, #0
 2786 00e2 0D93     		str	r3, [sp, #52]
 2787              	.L210:
 2788 00e4 0B9B     		ldr	r3, [sp, #44]
 2789 00e6 0493     		str	r3, [sp, #16]
 2790              	.LBE174:
 2791              	.LBB176:
 2792              	.LBB177:
 2793              		.loc 2 229 0
 2794 00e8 049B     		ldr	r3, [sp, #16]
 2795              		.syntax unified
 2796              	@ 229 "/home/rdu/Workspace/project_templates/mcu/stm32_ws/src/libraries/FreeRTOS/Source/portable/GC
 2797 00ea 83F31188 			msr basepri, r3	
 2798              	@ 0 "" 2
 2799              		.thumb
 2800              		.syntax unified
 2801              	.LBE177:
 2802              	.LBE176:
1863:/home/rdu/Workspace/project_templates/mcu/stm32_ws/src/libraries/FreeRTOS/Source/queue.c **** 			traceQUEUE_RECEIVE_FROM_ISR_FAILED( pxQueue );
1864:/home/rdu/Workspace/project_templates/mcu/stm32_ws/src/libraries/FreeRTOS/Source/queue.c **** 		}
1865:/home/rdu/Workspace/project_templates/mcu/stm32_ws/src/libraries/FreeRTOS/Source/queue.c **** 	}
1866:/home/rdu/Workspace/project_templates/mcu/stm32_ws/src/libraries/FreeRTOS/Source/queue.c **** 	portCLEAR_INTERRUPT_MASK_FROM_ISR( uxSavedInterruptStatus );
1867:/home/rdu/Workspace/project_templates/mcu/stm32_ws/src/libraries/FreeRTOS/Source/queue.c **** 
1868:/home/rdu/Workspace/project_templates/mcu/stm32_ws/src/libraries/FreeRTOS/Source/queue.c **** 	return xReturn;
 2803              		.loc 1 1868 0
 2804 00ee 0D9B     		ldr	r3, [sp, #52]
1869:/home/rdu/Workspace/project_templates/mcu/stm32_ws/src/libraries/FreeRTOS/Source/queue.c **** }
 2805              		.loc 1 1869 0
 2806 00f0 1846     		mov	r0, r3
 2807 00f2 0FB0     		add	sp, sp, #60
 2808              	.LCFI44:
 2809              		.cfi_def_cfa_offset 4
 2810              		@ sp needed
 2811 00f4 5DF804FB 		ldr	pc, [sp], #4
 2812              		.cfi_endproc
 2813              	.LFE19:
 2815              		.section	.text.xQueuePeekFromISR,"ax",%progbits
 2816              		.align	1
 2817              		.global	xQueuePeekFromISR
 2818              		.syntax unified
 2819              		.thumb
 2820              		.thumb_func
 2821              		.fpu fpv4-sp-d16
 2823              	xQueuePeekFromISR:
 2824              	.LFB20:
1870:/home/rdu/Workspace/project_templates/mcu/stm32_ws/src/libraries/FreeRTOS/Source/queue.c **** /*-----------------------------------------------------------*/
1871:/home/rdu/Workspace/project_templates/mcu/stm32_ws/src/libraries/FreeRTOS/Source/queue.c **** 
1872:/home/rdu/Workspace/project_templates/mcu/stm32_ws/src/libraries/FreeRTOS/Source/queue.c **** BaseType_t xQueuePeekFromISR( QueueHandle_t xQueue,  void * const pvBuffer )
1873:/home/rdu/Workspace/project_templates/mcu/stm32_ws/src/libraries/FreeRTOS/Source/queue.c **** {
 2825              		.loc 1 1873 0
 2826              		.cfi_startproc
 2827              		@ args = 0, pretend = 0, frame = 48
 2828              		@ frame_needed = 0, uses_anonymous_args = 0
 2829 0000 00B5     		push	{lr}
 2830              	.LCFI45:
 2831              		.cfi_def_cfa_offset 4
 2832              		.cfi_offset 14, -4
 2833 0002 8DB0     		sub	sp, sp, #52
 2834              	.LCFI46:
 2835              		.cfi_def_cfa_offset 56
 2836 0004 0190     		str	r0, [sp, #4]
 2837 0006 0091     		str	r1, [sp]
1874:/home/rdu/Workspace/project_templates/mcu/stm32_ws/src/libraries/FreeRTOS/Source/queue.c **** BaseType_t xReturn;
1875:/home/rdu/Workspace/project_templates/mcu/stm32_ws/src/libraries/FreeRTOS/Source/queue.c **** UBaseType_t uxSavedInterruptStatus;
1876:/home/rdu/Workspace/project_templates/mcu/stm32_ws/src/libraries/FreeRTOS/Source/queue.c **** int8_t *pcOriginalReadPosition;
1877:/home/rdu/Workspace/project_templates/mcu/stm32_ws/src/libraries/FreeRTOS/Source/queue.c **** Queue_t * const pxQueue = xQueue;
 2838              		.loc 1 1877 0
 2839 0008 019B     		ldr	r3, [sp, #4]
 2840 000a 0A93     		str	r3, [sp, #40]
1878:/home/rdu/Workspace/project_templates/mcu/stm32_ws/src/libraries/FreeRTOS/Source/queue.c **** 
1879:/home/rdu/Workspace/project_templates/mcu/stm32_ws/src/libraries/FreeRTOS/Source/queue.c **** 	configASSERT( pxQueue );
 2841              		.loc 1 1879 0
 2842 000c 0A9B     		ldr	r3, [sp, #40]
 2843 000e 002B     		cmp	r3, #0
 2844 0010 09D1     		bne	.L213
 2845              	.LBB178:
 2846              	.LBB179:
 195:/home/rdu/Workspace/project_templates/mcu/stm32_ws/src/libraries/FreeRTOS/Source/portable/GCC/ARM_CM4F/portmacro.h **** 	(
 2847              		.loc 2 195 0 discriminator 1
 2848              		.syntax unified
 2849              	@ 195 "/home/rdu/Workspace/project_templates/mcu/stm32_ws/src/libraries/FreeRTOS/Source/portable/GC
 2850 0012 4FF05003 			mov r3, #80												
 2851 0016 83F31188 		msr basepri, r3											
 2852 001a BFF36F8F 		isb														
 2853 001e BFF34F8F 		dsb														
 2854              	
 2855              	@ 0 "" 2
 2856              		.thumb
 2857              		.syntax unified
 2858 0022 0793     		str	r3, [sp, #28]
 2859              	.L214:
 2860              	.LBE179:
 2861              	.LBE178:
 2862              		.loc 1 1879 0 discriminator 1
 2863 0024 FEE7     		b	.L214
 2864              	.L213:
1880:/home/rdu/Workspace/project_templates/mcu/stm32_ws/src/libraries/FreeRTOS/Source/queue.c **** 	configASSERT( !( ( pvBuffer == NULL ) && ( pxQueue->uxItemSize != ( UBaseType_t ) 0U ) ) );
 2865              		.loc 1 1880 0
 2866 0026 009B     		ldr	r3, [sp]
 2867 0028 002B     		cmp	r3, #0
 2868 002a 03D1     		bne	.L215
 2869              		.loc 1 1880 0 is_stmt 0 discriminator 2
 2870 002c 0A9B     		ldr	r3, [sp, #40]
 2871 002e 1B6C     		ldr	r3, [r3, #64]
 2872 0030 002B     		cmp	r3, #0
 2873 0032 01D1     		bne	.L216
 2874              	.L215:
 2875              		.loc 1 1880 0 discriminator 3
 2876 0034 0123     		movs	r3, #1
 2877 0036 00E0     		b	.L217
 2878              	.L216:
 2879              		.loc 1 1880 0 discriminator 4
 2880 0038 0023     		movs	r3, #0
 2881              	.L217:
 2882              		.loc 1 1880 0 discriminator 6
 2883 003a 002B     		cmp	r3, #0
 2884 003c 09D1     		bne	.L218
 2885              	.LBB180:
 2886              	.LBB181:
 195:/home/rdu/Workspace/project_templates/mcu/stm32_ws/src/libraries/FreeRTOS/Source/portable/GCC/ARM_CM4F/portmacro.h **** 	(
 2887              		.loc 2 195 0 is_stmt 1 discriminator 7
 2888              		.syntax unified
 2889              	@ 195 "/home/rdu/Workspace/project_templates/mcu/stm32_ws/src/libraries/FreeRTOS/Source/portable/GC
 2890 003e 4FF05003 			mov r3, #80												
 2891 0042 83F31188 		msr basepri, r3											
 2892 0046 BFF36F8F 		isb														
 2893 004a BFF34F8F 		dsb														
 2894              	
 2895              	@ 0 "" 2
 2896              		.thumb
 2897              		.syntax unified
 2898 004e 0693     		str	r3, [sp, #24]
 2899              	.L219:
 2900              	.LBE181:
 2901              	.LBE180:
 2902              		.loc 1 1880 0 discriminator 2
 2903 0050 FEE7     		b	.L219
 2904              	.L218:
1881:/home/rdu/Workspace/project_templates/mcu/stm32_ws/src/libraries/FreeRTOS/Source/queue.c **** 	configASSERT( pxQueue->uxItemSize != 0 ); /* Can't peek a semaphore. */
 2905              		.loc 1 1881 0
 2906 0052 0A9B     		ldr	r3, [sp, #40]
 2907 0054 1B6C     		ldr	r3, [r3, #64]
 2908 0056 002B     		cmp	r3, #0
 2909 0058 09D1     		bne	.L220
 2910              	.LBB182:
 2911              	.LBB183:
 195:/home/rdu/Workspace/project_templates/mcu/stm32_ws/src/libraries/FreeRTOS/Source/portable/GCC/ARM_CM4F/portmacro.h **** 	(
 2912              		.loc 2 195 0 discriminator 1
 2913              		.syntax unified
 2914              	@ 195 "/home/rdu/Workspace/project_templates/mcu/stm32_ws/src/libraries/FreeRTOS/Source/portable/GC
 2915 005a 4FF05003 			mov r3, #80												
 2916 005e 83F31188 		msr basepri, r3											
 2917 0062 BFF36F8F 		isb														
 2918 0066 BFF34F8F 		dsb														
 2919              	
 2920              	@ 0 "" 2
 2921              		.thumb
 2922              		.syntax unified
 2923 006a 0593     		str	r3, [sp, #20]
 2924              	.L221:
 2925              	.LBE183:
 2926              	.LBE182:
 2927              		.loc 1 1881 0 discriminator 3
 2928 006c FEE7     		b	.L221
 2929              	.L220:
1882:/home/rdu/Workspace/project_templates/mcu/stm32_ws/src/libraries/FreeRTOS/Source/queue.c **** 
1883:/home/rdu/Workspace/project_templates/mcu/stm32_ws/src/libraries/FreeRTOS/Source/queue.c **** 	/* RTOS ports that support interrupt nesting have the concept of a maximum
1884:/home/rdu/Workspace/project_templates/mcu/stm32_ws/src/libraries/FreeRTOS/Source/queue.c **** 	system call (or maximum API call) interrupt priority.  Interrupts that are
1885:/home/rdu/Workspace/project_templates/mcu/stm32_ws/src/libraries/FreeRTOS/Source/queue.c **** 	above the maximum system call priority are kept permanently enabled, even
1886:/home/rdu/Workspace/project_templates/mcu/stm32_ws/src/libraries/FreeRTOS/Source/queue.c **** 	when the RTOS kernel is in a critical section, but cannot make any calls to
1887:/home/rdu/Workspace/project_templates/mcu/stm32_ws/src/libraries/FreeRTOS/Source/queue.c **** 	FreeRTOS API functions.  If configASSERT() is defined in FreeRTOSConfig.h
1888:/home/rdu/Workspace/project_templates/mcu/stm32_ws/src/libraries/FreeRTOS/Source/queue.c **** 	then portASSERT_IF_INTERRUPT_PRIORITY_INVALID() will result in an assertion
1889:/home/rdu/Workspace/project_templates/mcu/stm32_ws/src/libraries/FreeRTOS/Source/queue.c **** 	failure if a FreeRTOS API function is called from an interrupt that has been
1890:/home/rdu/Workspace/project_templates/mcu/stm32_ws/src/libraries/FreeRTOS/Source/queue.c **** 	assigned a priority above the configured maximum system call priority.
1891:/home/rdu/Workspace/project_templates/mcu/stm32_ws/src/libraries/FreeRTOS/Source/queue.c **** 	Only FreeRTOS functions that end in FromISR can be called from interrupts
1892:/home/rdu/Workspace/project_templates/mcu/stm32_ws/src/libraries/FreeRTOS/Source/queue.c **** 	that have been assigned a priority at or (logically) below the maximum
1893:/home/rdu/Workspace/project_templates/mcu/stm32_ws/src/libraries/FreeRTOS/Source/queue.c **** 	system call	interrupt priority.  FreeRTOS maintains a separate interrupt
1894:/home/rdu/Workspace/project_templates/mcu/stm32_ws/src/libraries/FreeRTOS/Source/queue.c **** 	safe API to ensure interrupt entry is as fast and as simple as possible.
1895:/home/rdu/Workspace/project_templates/mcu/stm32_ws/src/libraries/FreeRTOS/Source/queue.c **** 	More information (albeit Cortex-M specific) is provided on the following
1896:/home/rdu/Workspace/project_templates/mcu/stm32_ws/src/libraries/FreeRTOS/Source/queue.c **** 	link: http://www.freertos.org/RTOS-Cortex-M3-M4.html */
1897:/home/rdu/Workspace/project_templates/mcu/stm32_ws/src/libraries/FreeRTOS/Source/queue.c **** 	portASSERT_IF_INTERRUPT_PRIORITY_INVALID();
 2930              		.loc 1 1897 0
 2931 006e FFF7FEFF 		bl	vPortValidateInterruptPriority
 2932              	.LBB184:
 2933              	.LBB185:
 211:/home/rdu/Workspace/project_templates/mcu/stm32_ws/src/libraries/FreeRTOS/Source/portable/GCC/ARM_CM4F/portmacro.h **** 	(
 2934              		.loc 2 211 0
 2935              		.syntax unified
 2936              	@ 211 "/home/rdu/Workspace/project_templates/mcu/stm32_ws/src/libraries/FreeRTOS/Source/portable/GC
 2937 0072 EFF31182 			mrs r2, basepri											
 2938 0076 4FF05003 		mov r3, #80												
 2939 007a 83F31188 		msr basepri, r3											
 2940 007e BFF36F8F 		isb														
 2941 0082 BFF34F8F 		dsb														
 2942              	
 2943              	@ 0 "" 2
 2944              		.thumb
 2945              		.syntax unified
 2946 0086 0492     		str	r2, [sp, #16]
 2947 0088 0393     		str	r3, [sp, #12]
 223:/home/rdu/Workspace/project_templates/mcu/stm32_ws/src/libraries/FreeRTOS/Source/portable/GCC/ARM_CM4F/portmacro.h **** }
 2948              		.loc 2 223 0
 2949 008a 049B     		ldr	r3, [sp, #16]
 2950              	.LBE185:
 2951              	.LBE184:
1898:/home/rdu/Workspace/project_templates/mcu/stm32_ws/src/libraries/FreeRTOS/Source/queue.c **** 
1899:/home/rdu/Workspace/project_templates/mcu/stm32_ws/src/libraries/FreeRTOS/Source/queue.c **** 	uxSavedInterruptStatus = portSET_INTERRUPT_MASK_FROM_ISR();
 2952              		.loc 1 1899 0
 2953 008c 0993     		str	r3, [sp, #36]
1900:/home/rdu/Workspace/project_templates/mcu/stm32_ws/src/libraries/FreeRTOS/Source/queue.c **** 	{
1901:/home/rdu/Workspace/project_templates/mcu/stm32_ws/src/libraries/FreeRTOS/Source/queue.c **** 		/* Cannot block in an ISR, so check there is data available. */
1902:/home/rdu/Workspace/project_templates/mcu/stm32_ws/src/libraries/FreeRTOS/Source/queue.c **** 		if( pxQueue->uxMessagesWaiting > ( UBaseType_t ) 0 )
 2954              		.loc 1 1902 0
 2955 008e 0A9B     		ldr	r3, [sp, #40]
 2956 0090 9B6B     		ldr	r3, [r3, #56]
 2957 0092 002B     		cmp	r3, #0
 2958 0094 0CD0     		beq	.L223
1903:/home/rdu/Workspace/project_templates/mcu/stm32_ws/src/libraries/FreeRTOS/Source/queue.c **** 		{
1904:/home/rdu/Workspace/project_templates/mcu/stm32_ws/src/libraries/FreeRTOS/Source/queue.c **** 			traceQUEUE_PEEK_FROM_ISR( pxQueue );
1905:/home/rdu/Workspace/project_templates/mcu/stm32_ws/src/libraries/FreeRTOS/Source/queue.c **** 
1906:/home/rdu/Workspace/project_templates/mcu/stm32_ws/src/libraries/FreeRTOS/Source/queue.c **** 			/* Remember the read position so it can be reset as nothing is
1907:/home/rdu/Workspace/project_templates/mcu/stm32_ws/src/libraries/FreeRTOS/Source/queue.c **** 			actually being removed from the queue. */
1908:/home/rdu/Workspace/project_templates/mcu/stm32_ws/src/libraries/FreeRTOS/Source/queue.c **** 			pcOriginalReadPosition = pxQueue->u.xQueue.pcReadFrom;
 2959              		.loc 1 1908 0
 2960 0096 0A9B     		ldr	r3, [sp, #40]
 2961 0098 DB68     		ldr	r3, [r3, #12]
 2962 009a 0893     		str	r3, [sp, #32]
1909:/home/rdu/Workspace/project_templates/mcu/stm32_ws/src/libraries/FreeRTOS/Source/queue.c **** 			prvCopyDataFromQueue( pxQueue, pvBuffer );
 2963              		.loc 1 1909 0
 2964 009c 0099     		ldr	r1, [sp]
 2965 009e 0A98     		ldr	r0, [sp, #40]
 2966 00a0 FFF7FEFF 		bl	prvCopyDataFromQueue
1910:/home/rdu/Workspace/project_templates/mcu/stm32_ws/src/libraries/FreeRTOS/Source/queue.c **** 			pxQueue->u.xQueue.pcReadFrom = pcOriginalReadPosition;
 2967              		.loc 1 1910 0
 2968 00a4 0A9B     		ldr	r3, [sp, #40]
 2969 00a6 089A     		ldr	r2, [sp, #32]
 2970 00a8 DA60     		str	r2, [r3, #12]
1911:/home/rdu/Workspace/project_templates/mcu/stm32_ws/src/libraries/FreeRTOS/Source/queue.c **** 
1912:/home/rdu/Workspace/project_templates/mcu/stm32_ws/src/libraries/FreeRTOS/Source/queue.c **** 			xReturn = pdPASS;
 2971              		.loc 1 1912 0
 2972 00aa 0123     		movs	r3, #1
 2973 00ac 0B93     		str	r3, [sp, #44]
 2974 00ae 01E0     		b	.L224
 2975              	.L223:
1913:/home/rdu/Workspace/project_templates/mcu/stm32_ws/src/libraries/FreeRTOS/Source/queue.c **** 		}
1914:/home/rdu/Workspace/project_templates/mcu/stm32_ws/src/libraries/FreeRTOS/Source/queue.c **** 		else
1915:/home/rdu/Workspace/project_templates/mcu/stm32_ws/src/libraries/FreeRTOS/Source/queue.c **** 		{
1916:/home/rdu/Workspace/project_templates/mcu/stm32_ws/src/libraries/FreeRTOS/Source/queue.c **** 			xReturn = pdFAIL;
 2976              		.loc 1 1916 0
 2977 00b0 0023     		movs	r3, #0
 2978 00b2 0B93     		str	r3, [sp, #44]
 2979              	.L224:
 2980 00b4 099B     		ldr	r3, [sp, #36]
 2981 00b6 0293     		str	r3, [sp, #8]
 2982              	.LBB186:
 2983              	.LBB187:
 2984              		.loc 2 229 0
 2985 00b8 029B     		ldr	r3, [sp, #8]
 2986              		.syntax unified
 2987              	@ 229 "/home/rdu/Workspace/project_templates/mcu/stm32_ws/src/libraries/FreeRTOS/Source/portable/GC
 2988 00ba 83F31188 			msr basepri, r3	
 2989              	@ 0 "" 2
 2990              		.thumb
 2991              		.syntax unified
 2992              	.LBE187:
 2993              	.LBE186:
1917:/home/rdu/Workspace/project_templates/mcu/stm32_ws/src/libraries/FreeRTOS/Source/queue.c **** 			traceQUEUE_PEEK_FROM_ISR_FAILED( pxQueue );
1918:/home/rdu/Workspace/project_templates/mcu/stm32_ws/src/libraries/FreeRTOS/Source/queue.c **** 		}
1919:/home/rdu/Workspace/project_templates/mcu/stm32_ws/src/libraries/FreeRTOS/Source/queue.c **** 	}
1920:/home/rdu/Workspace/project_templates/mcu/stm32_ws/src/libraries/FreeRTOS/Source/queue.c **** 	portCLEAR_INTERRUPT_MASK_FROM_ISR( uxSavedInterruptStatus );
1921:/home/rdu/Workspace/project_templates/mcu/stm32_ws/src/libraries/FreeRTOS/Source/queue.c **** 
1922:/home/rdu/Workspace/project_templates/mcu/stm32_ws/src/libraries/FreeRTOS/Source/queue.c **** 	return xReturn;
 2994              		.loc 1 1922 0
 2995 00be 0B9B     		ldr	r3, [sp, #44]
1923:/home/rdu/Workspace/project_templates/mcu/stm32_ws/src/libraries/FreeRTOS/Source/queue.c **** }
 2996              		.loc 1 1923 0
 2997 00c0 1846     		mov	r0, r3
 2998 00c2 0DB0     		add	sp, sp, #52
 2999              	.LCFI47:
 3000              		.cfi_def_cfa_offset 4
 3001              		@ sp needed
 3002 00c4 5DF804FB 		ldr	pc, [sp], #4
 3003              		.cfi_endproc
 3004              	.LFE20:
 3006              		.section	.text.uxQueueMessagesWaiting,"ax",%progbits
 3007              		.align	1
 3008              		.global	uxQueueMessagesWaiting
 3009              		.syntax unified
 3010              		.thumb
 3011              		.thumb_func
 3012              		.fpu fpv4-sp-d16
 3014              	uxQueueMessagesWaiting:
 3015              	.LFB21:
1924:/home/rdu/Workspace/project_templates/mcu/stm32_ws/src/libraries/FreeRTOS/Source/queue.c **** /*-----------------------------------------------------------*/
1925:/home/rdu/Workspace/project_templates/mcu/stm32_ws/src/libraries/FreeRTOS/Source/queue.c **** 
1926:/home/rdu/Workspace/project_templates/mcu/stm32_ws/src/libraries/FreeRTOS/Source/queue.c **** UBaseType_t uxQueueMessagesWaiting( const QueueHandle_t xQueue )
1927:/home/rdu/Workspace/project_templates/mcu/stm32_ws/src/libraries/FreeRTOS/Source/queue.c **** {
 3016              		.loc 1 1927 0
 3017              		.cfi_startproc
 3018              		@ args = 0, pretend = 0, frame = 16
 3019              		@ frame_needed = 0, uses_anonymous_args = 0
 3020 0000 00B5     		push	{lr}
 3021              	.LCFI48:
 3022              		.cfi_def_cfa_offset 4
 3023              		.cfi_offset 14, -4
 3024 0002 85B0     		sub	sp, sp, #20
 3025              	.LCFI49:
 3026              		.cfi_def_cfa_offset 24
 3027 0004 0190     		str	r0, [sp, #4]
1928:/home/rdu/Workspace/project_templates/mcu/stm32_ws/src/libraries/FreeRTOS/Source/queue.c **** UBaseType_t uxReturn;
1929:/home/rdu/Workspace/project_templates/mcu/stm32_ws/src/libraries/FreeRTOS/Source/queue.c **** 
1930:/home/rdu/Workspace/project_templates/mcu/stm32_ws/src/libraries/FreeRTOS/Source/queue.c **** 	configASSERT( xQueue );
 3028              		.loc 1 1930 0
 3029 0006 019B     		ldr	r3, [sp, #4]
 3030 0008 002B     		cmp	r3, #0
 3031 000a 09D1     		bne	.L227
 3032              	.LBB188:
 3033              	.LBB189:
 195:/home/rdu/Workspace/project_templates/mcu/stm32_ws/src/libraries/FreeRTOS/Source/portable/GCC/ARM_CM4F/portmacro.h **** 	(
 3034              		.loc 2 195 0 discriminator 1
 3035              		.syntax unified
 3036              	@ 195 "/home/rdu/Workspace/project_templates/mcu/stm32_ws/src/libraries/FreeRTOS/Source/portable/GC
 3037 000c 4FF05003 			mov r3, #80												
 3038 0010 83F31188 		msr basepri, r3											
 3039 0014 BFF36F8F 		isb														
 3040 0018 BFF34F8F 		dsb														
 3041              	
 3042              	@ 0 "" 2
 3043              		.thumb
 3044              		.syntax unified
 3045 001c 0293     		str	r3, [sp, #8]
 3046              	.L228:
 3047              	.LBE189:
 3048              	.LBE188:
 3049              		.loc 1 1930 0 discriminator 1
 3050 001e FEE7     		b	.L228
 3051              	.L227:
1931:/home/rdu/Workspace/project_templates/mcu/stm32_ws/src/libraries/FreeRTOS/Source/queue.c **** 
1932:/home/rdu/Workspace/project_templates/mcu/stm32_ws/src/libraries/FreeRTOS/Source/queue.c **** 	taskENTER_CRITICAL();
 3052              		.loc 1 1932 0
 3053 0020 FFF7FEFF 		bl	vPortEnterCritical
1933:/home/rdu/Workspace/project_templates/mcu/stm32_ws/src/libraries/FreeRTOS/Source/queue.c **** 	{
1934:/home/rdu/Workspace/project_templates/mcu/stm32_ws/src/libraries/FreeRTOS/Source/queue.c **** 		uxReturn = ( ( Queue_t * ) xQueue )->uxMessagesWaiting;
 3054              		.loc 1 1934 0
 3055 0024 019B     		ldr	r3, [sp, #4]
 3056 0026 9B6B     		ldr	r3, [r3, #56]
 3057 0028 0393     		str	r3, [sp, #12]
1935:/home/rdu/Workspace/project_templates/mcu/stm32_ws/src/libraries/FreeRTOS/Source/queue.c **** 	}
1936:/home/rdu/Workspace/project_templates/mcu/stm32_ws/src/libraries/FreeRTOS/Source/queue.c **** 	taskEXIT_CRITICAL();
 3058              		.loc 1 1936 0
 3059 002a FFF7FEFF 		bl	vPortExitCritical
1937:/home/rdu/Workspace/project_templates/mcu/stm32_ws/src/libraries/FreeRTOS/Source/queue.c **** 
1938:/home/rdu/Workspace/project_templates/mcu/stm32_ws/src/libraries/FreeRTOS/Source/queue.c **** 	return uxReturn;
 3060              		.loc 1 1938 0
 3061 002e 039B     		ldr	r3, [sp, #12]
1939:/home/rdu/Workspace/project_templates/mcu/stm32_ws/src/libraries/FreeRTOS/Source/queue.c **** } /*lint !e818 Pointer cannot be declared const as xQueue is a typedef not pointer. */
 3062              		.loc 1 1939 0
 3063 0030 1846     		mov	r0, r3
 3064 0032 05B0     		add	sp, sp, #20
 3065              	.LCFI50:
 3066              		.cfi_def_cfa_offset 4
 3067              		@ sp needed
 3068 0034 5DF804FB 		ldr	pc, [sp], #4
 3069              		.cfi_endproc
 3070              	.LFE21:
 3072              		.section	.text.uxQueueSpacesAvailable,"ax",%progbits
 3073              		.align	1
 3074              		.global	uxQueueSpacesAvailable
 3075              		.syntax unified
 3076              		.thumb
 3077              		.thumb_func
 3078              		.fpu fpv4-sp-d16
 3080              	uxQueueSpacesAvailable:
 3081              	.LFB22:
1940:/home/rdu/Workspace/project_templates/mcu/stm32_ws/src/libraries/FreeRTOS/Source/queue.c **** /*-----------------------------------------------------------*/
1941:/home/rdu/Workspace/project_templates/mcu/stm32_ws/src/libraries/FreeRTOS/Source/queue.c **** 
1942:/home/rdu/Workspace/project_templates/mcu/stm32_ws/src/libraries/FreeRTOS/Source/queue.c **** UBaseType_t uxQueueSpacesAvailable( const QueueHandle_t xQueue )
1943:/home/rdu/Workspace/project_templates/mcu/stm32_ws/src/libraries/FreeRTOS/Source/queue.c **** {
 3082              		.loc 1 1943 0
 3083              		.cfi_startproc
 3084              		@ args = 0, pretend = 0, frame = 24
 3085              		@ frame_needed = 0, uses_anonymous_args = 0
 3086 0000 00B5     		push	{lr}
 3087              	.LCFI51:
 3088              		.cfi_def_cfa_offset 4
 3089              		.cfi_offset 14, -4
 3090 0002 87B0     		sub	sp, sp, #28
 3091              	.LCFI52:
 3092              		.cfi_def_cfa_offset 32
 3093 0004 0190     		str	r0, [sp, #4]
1944:/home/rdu/Workspace/project_templates/mcu/stm32_ws/src/libraries/FreeRTOS/Source/queue.c **** UBaseType_t uxReturn;
1945:/home/rdu/Workspace/project_templates/mcu/stm32_ws/src/libraries/FreeRTOS/Source/queue.c **** Queue_t * const pxQueue = xQueue;
 3094              		.loc 1 1945 0
 3095 0006 019B     		ldr	r3, [sp, #4]
 3096 0008 0593     		str	r3, [sp, #20]
1946:/home/rdu/Workspace/project_templates/mcu/stm32_ws/src/libraries/FreeRTOS/Source/queue.c **** 
1947:/home/rdu/Workspace/project_templates/mcu/stm32_ws/src/libraries/FreeRTOS/Source/queue.c **** 	configASSERT( pxQueue );
 3097              		.loc 1 1947 0
 3098 000a 059B     		ldr	r3, [sp, #20]
 3099 000c 002B     		cmp	r3, #0
 3100 000e 09D1     		bne	.L231
 3101              	.LBB190:
 3102              	.LBB191:
 195:/home/rdu/Workspace/project_templates/mcu/stm32_ws/src/libraries/FreeRTOS/Source/portable/GCC/ARM_CM4F/portmacro.h **** 	(
 3103              		.loc 2 195 0 discriminator 1
 3104              		.syntax unified
 3105              	@ 195 "/home/rdu/Workspace/project_templates/mcu/stm32_ws/src/libraries/FreeRTOS/Source/portable/GC
 3106 0010 4FF05003 			mov r3, #80												
 3107 0014 83F31188 		msr basepri, r3											
 3108 0018 BFF36F8F 		isb														
 3109 001c BFF34F8F 		dsb														
 3110              	
 3111              	@ 0 "" 2
 3112              		.thumb
 3113              		.syntax unified
 3114 0020 0393     		str	r3, [sp, #12]
 3115              	.L232:
 3116              	.LBE191:
 3117              	.LBE190:
 3118              		.loc 1 1947 0 discriminator 1
 3119 0022 FEE7     		b	.L232
 3120              	.L231:
1948:/home/rdu/Workspace/project_templates/mcu/stm32_ws/src/libraries/FreeRTOS/Source/queue.c **** 
1949:/home/rdu/Workspace/project_templates/mcu/stm32_ws/src/libraries/FreeRTOS/Source/queue.c **** 	taskENTER_CRITICAL();
 3121              		.loc 1 1949 0
 3122 0024 FFF7FEFF 		bl	vPortEnterCritical
1950:/home/rdu/Workspace/project_templates/mcu/stm32_ws/src/libraries/FreeRTOS/Source/queue.c **** 	{
1951:/home/rdu/Workspace/project_templates/mcu/stm32_ws/src/libraries/FreeRTOS/Source/queue.c **** 		uxReturn = pxQueue->uxLength - pxQueue->uxMessagesWaiting;
 3123              		.loc 1 1951 0
 3124 0028 059B     		ldr	r3, [sp, #20]
 3125 002a DA6B     		ldr	r2, [r3, #60]
 3126 002c 059B     		ldr	r3, [sp, #20]
 3127 002e 9B6B     		ldr	r3, [r3, #56]
 3128 0030 D31A     		subs	r3, r2, r3
 3129 0032 0493     		str	r3, [sp, #16]
1952:/home/rdu/Workspace/project_templates/mcu/stm32_ws/src/libraries/FreeRTOS/Source/queue.c **** 	}
1953:/home/rdu/Workspace/project_templates/mcu/stm32_ws/src/libraries/FreeRTOS/Source/queue.c **** 	taskEXIT_CRITICAL();
 3130              		.loc 1 1953 0
 3131 0034 FFF7FEFF 		bl	vPortExitCritical
1954:/home/rdu/Workspace/project_templates/mcu/stm32_ws/src/libraries/FreeRTOS/Source/queue.c **** 
1955:/home/rdu/Workspace/project_templates/mcu/stm32_ws/src/libraries/FreeRTOS/Source/queue.c **** 	return uxReturn;
 3132              		.loc 1 1955 0
 3133 0038 049B     		ldr	r3, [sp, #16]
1956:/home/rdu/Workspace/project_templates/mcu/stm32_ws/src/libraries/FreeRTOS/Source/queue.c **** } /*lint !e818 Pointer cannot be declared const as xQueue is a typedef not pointer. */
 3134              		.loc 1 1956 0
 3135 003a 1846     		mov	r0, r3
 3136 003c 07B0     		add	sp, sp, #28
 3137              	.LCFI53:
 3138              		.cfi_def_cfa_offset 4
 3139              		@ sp needed
 3140 003e 5DF804FB 		ldr	pc, [sp], #4
 3141              		.cfi_endproc
 3142              	.LFE22:
 3144              		.section	.text.uxQueueMessagesWaitingFromISR,"ax",%progbits
 3145              		.align	1
 3146              		.global	uxQueueMessagesWaitingFromISR
 3147              		.syntax unified
 3148              		.thumb
 3149              		.thumb_func
 3150              		.fpu fpv4-sp-d16
 3152              	uxQueueMessagesWaitingFromISR:
 3153              	.LFB23:
1957:/home/rdu/Workspace/project_templates/mcu/stm32_ws/src/libraries/FreeRTOS/Source/queue.c **** /*-----------------------------------------------------------*/
1958:/home/rdu/Workspace/project_templates/mcu/stm32_ws/src/libraries/FreeRTOS/Source/queue.c **** 
1959:/home/rdu/Workspace/project_templates/mcu/stm32_ws/src/libraries/FreeRTOS/Source/queue.c **** UBaseType_t uxQueueMessagesWaitingFromISR( const QueueHandle_t xQueue )
1960:/home/rdu/Workspace/project_templates/mcu/stm32_ws/src/libraries/FreeRTOS/Source/queue.c **** {
 3154              		.loc 1 1960 0
 3155              		.cfi_startproc
 3156              		@ args = 0, pretend = 0, frame = 24
 3157              		@ frame_needed = 0, uses_anonymous_args = 0
 3158              		@ link register save eliminated.
 3159 0000 86B0     		sub	sp, sp, #24
 3160              	.LCFI54:
 3161              		.cfi_def_cfa_offset 24
 3162 0002 0190     		str	r0, [sp, #4]
1961:/home/rdu/Workspace/project_templates/mcu/stm32_ws/src/libraries/FreeRTOS/Source/queue.c **** UBaseType_t uxReturn;
1962:/home/rdu/Workspace/project_templates/mcu/stm32_ws/src/libraries/FreeRTOS/Source/queue.c **** Queue_t * const pxQueue = xQueue;
 3163              		.loc 1 1962 0
 3164 0004 019B     		ldr	r3, [sp, #4]
 3165 0006 0593     		str	r3, [sp, #20]
1963:/home/rdu/Workspace/project_templates/mcu/stm32_ws/src/libraries/FreeRTOS/Source/queue.c **** 
1964:/home/rdu/Workspace/project_templates/mcu/stm32_ws/src/libraries/FreeRTOS/Source/queue.c **** 	configASSERT( pxQueue );
 3166              		.loc 1 1964 0
 3167 0008 059B     		ldr	r3, [sp, #20]
 3168 000a 002B     		cmp	r3, #0
 3169 000c 09D1     		bne	.L235
 3170              	.LBB192:
 3171              	.LBB193:
 195:/home/rdu/Workspace/project_templates/mcu/stm32_ws/src/libraries/FreeRTOS/Source/portable/GCC/ARM_CM4F/portmacro.h **** 	(
 3172              		.loc 2 195 0 discriminator 1
 3173              		.syntax unified
 3174              	@ 195 "/home/rdu/Workspace/project_templates/mcu/stm32_ws/src/libraries/FreeRTOS/Source/portable/GC
 3175 000e 4FF05003 			mov r3, #80												
 3176 0012 83F31188 		msr basepri, r3											
 3177 0016 BFF36F8F 		isb														
 3178 001a BFF34F8F 		dsb														
 3179              	
 3180              	@ 0 "" 2
 3181              		.thumb
 3182              		.syntax unified
 3183 001e 0393     		str	r3, [sp, #12]
 3184              	.L236:
 3185              	.LBE193:
 3186              	.LBE192:
 3187              		.loc 1 1964 0 discriminator 1
 3188 0020 FEE7     		b	.L236
 3189              	.L235:
1965:/home/rdu/Workspace/project_templates/mcu/stm32_ws/src/libraries/FreeRTOS/Source/queue.c **** 	uxReturn = pxQueue->uxMessagesWaiting;
 3190              		.loc 1 1965 0
 3191 0022 059B     		ldr	r3, [sp, #20]
 3192 0024 9B6B     		ldr	r3, [r3, #56]
 3193 0026 0493     		str	r3, [sp, #16]
1966:/home/rdu/Workspace/project_templates/mcu/stm32_ws/src/libraries/FreeRTOS/Source/queue.c **** 
1967:/home/rdu/Workspace/project_templates/mcu/stm32_ws/src/libraries/FreeRTOS/Source/queue.c **** 	return uxReturn;
 3194              		.loc 1 1967 0
 3195 0028 049B     		ldr	r3, [sp, #16]
1968:/home/rdu/Workspace/project_templates/mcu/stm32_ws/src/libraries/FreeRTOS/Source/queue.c **** } /*lint !e818 Pointer cannot be declared const as xQueue is a typedef not pointer. */
 3196              		.loc 1 1968 0
 3197 002a 1846     		mov	r0, r3
 3198 002c 06B0     		add	sp, sp, #24
 3199              	.LCFI55:
 3200              		.cfi_def_cfa_offset 0
 3201              		@ sp needed
 3202 002e 7047     		bx	lr
 3203              		.cfi_endproc
 3204              	.LFE23:
 3206              		.section	.text.vQueueDelete,"ax",%progbits
 3207              		.align	1
 3208              		.global	vQueueDelete
 3209              		.syntax unified
 3210              		.thumb
 3211              		.thumb_func
 3212              		.fpu fpv4-sp-d16
 3214              	vQueueDelete:
 3215              	.LFB24:
1969:/home/rdu/Workspace/project_templates/mcu/stm32_ws/src/libraries/FreeRTOS/Source/queue.c **** /*-----------------------------------------------------------*/
1970:/home/rdu/Workspace/project_templates/mcu/stm32_ws/src/libraries/FreeRTOS/Source/queue.c **** 
1971:/home/rdu/Workspace/project_templates/mcu/stm32_ws/src/libraries/FreeRTOS/Source/queue.c **** void vQueueDelete( QueueHandle_t xQueue )
1972:/home/rdu/Workspace/project_templates/mcu/stm32_ws/src/libraries/FreeRTOS/Source/queue.c **** {
 3216              		.loc 1 1972 0
 3217              		.cfi_startproc
 3218              		@ args = 0, pretend = 0, frame = 16
 3219              		@ frame_needed = 0, uses_anonymous_args = 0
 3220 0000 00B5     		push	{lr}
 3221              	.LCFI56:
 3222              		.cfi_def_cfa_offset 4
 3223              		.cfi_offset 14, -4
 3224 0002 85B0     		sub	sp, sp, #20
 3225              	.LCFI57:
 3226              		.cfi_def_cfa_offset 24
 3227 0004 0190     		str	r0, [sp, #4]
1973:/home/rdu/Workspace/project_templates/mcu/stm32_ws/src/libraries/FreeRTOS/Source/queue.c **** Queue_t * const pxQueue = xQueue;
 3228              		.loc 1 1973 0
 3229 0006 019B     		ldr	r3, [sp, #4]
 3230 0008 0393     		str	r3, [sp, #12]
1974:/home/rdu/Workspace/project_templates/mcu/stm32_ws/src/libraries/FreeRTOS/Source/queue.c **** 
1975:/home/rdu/Workspace/project_templates/mcu/stm32_ws/src/libraries/FreeRTOS/Source/queue.c **** 	configASSERT( pxQueue );
 3231              		.loc 1 1975 0
 3232 000a 039B     		ldr	r3, [sp, #12]
 3233 000c 002B     		cmp	r3, #0
 3234 000e 09D1     		bne	.L239
 3235              	.LBB194:
 3236              	.LBB195:
 195:/home/rdu/Workspace/project_templates/mcu/stm32_ws/src/libraries/FreeRTOS/Source/portable/GCC/ARM_CM4F/portmacro.h **** 	(
 3237              		.loc 2 195 0 discriminator 1
 3238              		.syntax unified
 3239              	@ 195 "/home/rdu/Workspace/project_templates/mcu/stm32_ws/src/libraries/FreeRTOS/Source/portable/GC
 3240 0010 4FF05003 			mov r3, #80												
 3241 0014 83F31188 		msr basepri, r3											
 3242 0018 BFF36F8F 		isb														
 3243 001c BFF34F8F 		dsb														
 3244              	
 3245              	@ 0 "" 2
 3246              		.thumb
 3247              		.syntax unified
 3248 0020 0293     		str	r3, [sp, #8]
 3249              	.L240:
 3250              	.LBE195:
 3251              	.LBE194:
 3252              		.loc 1 1975 0 discriminator 1
 3253 0022 FEE7     		b	.L240
 3254              	.L239:
1976:/home/rdu/Workspace/project_templates/mcu/stm32_ws/src/libraries/FreeRTOS/Source/queue.c **** 	traceQUEUE_DELETE( pxQueue );
1977:/home/rdu/Workspace/project_templates/mcu/stm32_ws/src/libraries/FreeRTOS/Source/queue.c **** 
1978:/home/rdu/Workspace/project_templates/mcu/stm32_ws/src/libraries/FreeRTOS/Source/queue.c **** 	#if ( configQUEUE_REGISTRY_SIZE > 0 )
1979:/home/rdu/Workspace/project_templates/mcu/stm32_ws/src/libraries/FreeRTOS/Source/queue.c **** 	{
1980:/home/rdu/Workspace/project_templates/mcu/stm32_ws/src/libraries/FreeRTOS/Source/queue.c **** 		vQueueUnregisterQueue( pxQueue );
 3255              		.loc 1 1980 0
 3256 0024 0398     		ldr	r0, [sp, #12]
 3257 0026 FFF7FEFF 		bl	vQueueUnregisterQueue
1981:/home/rdu/Workspace/project_templates/mcu/stm32_ws/src/libraries/FreeRTOS/Source/queue.c **** 	}
1982:/home/rdu/Workspace/project_templates/mcu/stm32_ws/src/libraries/FreeRTOS/Source/queue.c **** 	#endif
1983:/home/rdu/Workspace/project_templates/mcu/stm32_ws/src/libraries/FreeRTOS/Source/queue.c **** 
1984:/home/rdu/Workspace/project_templates/mcu/stm32_ws/src/libraries/FreeRTOS/Source/queue.c **** 	#if( ( configSUPPORT_DYNAMIC_ALLOCATION == 1 ) && ( configSUPPORT_STATIC_ALLOCATION == 0 ) )
1985:/home/rdu/Workspace/project_templates/mcu/stm32_ws/src/libraries/FreeRTOS/Source/queue.c **** 	{
1986:/home/rdu/Workspace/project_templates/mcu/stm32_ws/src/libraries/FreeRTOS/Source/queue.c **** 		/* The queue can only have been allocated dynamically - free it
1987:/home/rdu/Workspace/project_templates/mcu/stm32_ws/src/libraries/FreeRTOS/Source/queue.c **** 		again. */
1988:/home/rdu/Workspace/project_templates/mcu/stm32_ws/src/libraries/FreeRTOS/Source/queue.c **** 		vPortFree( pxQueue );
 3258              		.loc 1 1988 0
 3259 002a 0398     		ldr	r0, [sp, #12]
 3260 002c FFF7FEFF 		bl	vPortFree
1989:/home/rdu/Workspace/project_templates/mcu/stm32_ws/src/libraries/FreeRTOS/Source/queue.c **** 	}
1990:/home/rdu/Workspace/project_templates/mcu/stm32_ws/src/libraries/FreeRTOS/Source/queue.c **** 	#elif( ( configSUPPORT_DYNAMIC_ALLOCATION == 1 ) && ( configSUPPORT_STATIC_ALLOCATION == 1 ) )
1991:/home/rdu/Workspace/project_templates/mcu/stm32_ws/src/libraries/FreeRTOS/Source/queue.c **** 	{
1992:/home/rdu/Workspace/project_templates/mcu/stm32_ws/src/libraries/FreeRTOS/Source/queue.c **** 		/* The queue could have been allocated statically or dynamically, so
1993:/home/rdu/Workspace/project_templates/mcu/stm32_ws/src/libraries/FreeRTOS/Source/queue.c **** 		check before attempting to free the memory. */
1994:/home/rdu/Workspace/project_templates/mcu/stm32_ws/src/libraries/FreeRTOS/Source/queue.c **** 		if( pxQueue->ucStaticallyAllocated == ( uint8_t ) pdFALSE )
1995:/home/rdu/Workspace/project_templates/mcu/stm32_ws/src/libraries/FreeRTOS/Source/queue.c **** 		{
1996:/home/rdu/Workspace/project_templates/mcu/stm32_ws/src/libraries/FreeRTOS/Source/queue.c **** 			vPortFree( pxQueue );
1997:/home/rdu/Workspace/project_templates/mcu/stm32_ws/src/libraries/FreeRTOS/Source/queue.c **** 		}
1998:/home/rdu/Workspace/project_templates/mcu/stm32_ws/src/libraries/FreeRTOS/Source/queue.c **** 		else
1999:/home/rdu/Workspace/project_templates/mcu/stm32_ws/src/libraries/FreeRTOS/Source/queue.c **** 		{
2000:/home/rdu/Workspace/project_templates/mcu/stm32_ws/src/libraries/FreeRTOS/Source/queue.c **** 			mtCOVERAGE_TEST_MARKER();
2001:/home/rdu/Workspace/project_templates/mcu/stm32_ws/src/libraries/FreeRTOS/Source/queue.c **** 		}
2002:/home/rdu/Workspace/project_templates/mcu/stm32_ws/src/libraries/FreeRTOS/Source/queue.c **** 	}
2003:/home/rdu/Workspace/project_templates/mcu/stm32_ws/src/libraries/FreeRTOS/Source/queue.c **** 	#else
2004:/home/rdu/Workspace/project_templates/mcu/stm32_ws/src/libraries/FreeRTOS/Source/queue.c **** 	{
2005:/home/rdu/Workspace/project_templates/mcu/stm32_ws/src/libraries/FreeRTOS/Source/queue.c **** 		/* The queue must have been statically allocated, so is not going to be
2006:/home/rdu/Workspace/project_templates/mcu/stm32_ws/src/libraries/FreeRTOS/Source/queue.c **** 		deleted.  Avoid compiler warnings about the unused parameter. */
2007:/home/rdu/Workspace/project_templates/mcu/stm32_ws/src/libraries/FreeRTOS/Source/queue.c **** 		( void ) pxQueue;
2008:/home/rdu/Workspace/project_templates/mcu/stm32_ws/src/libraries/FreeRTOS/Source/queue.c **** 	}
2009:/home/rdu/Workspace/project_templates/mcu/stm32_ws/src/libraries/FreeRTOS/Source/queue.c **** 	#endif /* configSUPPORT_DYNAMIC_ALLOCATION */
2010:/home/rdu/Workspace/project_templates/mcu/stm32_ws/src/libraries/FreeRTOS/Source/queue.c **** }
 3261              		.loc 1 2010 0
 3262 0030 00BF     		nop
 3263 0032 05B0     		add	sp, sp, #20
 3264              	.LCFI58:
 3265              		.cfi_def_cfa_offset 4
 3266              		@ sp needed
 3267 0034 5DF804FB 		ldr	pc, [sp], #4
 3268              		.cfi_endproc
 3269              	.LFE24:
 3271              		.section	.text.uxQueueGetQueueNumber,"ax",%progbits
 3272              		.align	1
 3273              		.global	uxQueueGetQueueNumber
 3274              		.syntax unified
 3275              		.thumb
 3276              		.thumb_func
 3277              		.fpu fpv4-sp-d16
 3279              	uxQueueGetQueueNumber:
 3280              	.LFB25:
2011:/home/rdu/Workspace/project_templates/mcu/stm32_ws/src/libraries/FreeRTOS/Source/queue.c **** /*-----------------------------------------------------------*/
2012:/home/rdu/Workspace/project_templates/mcu/stm32_ws/src/libraries/FreeRTOS/Source/queue.c **** 
2013:/home/rdu/Workspace/project_templates/mcu/stm32_ws/src/libraries/FreeRTOS/Source/queue.c **** #if ( configUSE_TRACE_FACILITY == 1 )
2014:/home/rdu/Workspace/project_templates/mcu/stm32_ws/src/libraries/FreeRTOS/Source/queue.c **** 
2015:/home/rdu/Workspace/project_templates/mcu/stm32_ws/src/libraries/FreeRTOS/Source/queue.c **** 	UBaseType_t uxQueueGetQueueNumber( QueueHandle_t xQueue )
2016:/home/rdu/Workspace/project_templates/mcu/stm32_ws/src/libraries/FreeRTOS/Source/queue.c **** 	{
 3281              		.loc 1 2016 0
 3282              		.cfi_startproc
 3283              		@ args = 0, pretend = 0, frame = 8
 3284              		@ frame_needed = 0, uses_anonymous_args = 0
 3285              		@ link register save eliminated.
 3286 0000 82B0     		sub	sp, sp, #8
 3287              	.LCFI59:
 3288              		.cfi_def_cfa_offset 8
 3289 0002 0190     		str	r0, [sp, #4]
2017:/home/rdu/Workspace/project_templates/mcu/stm32_ws/src/libraries/FreeRTOS/Source/queue.c **** 		return ( ( Queue_t * ) xQueue )->uxQueueNumber;
 3290              		.loc 1 2017 0
 3291 0004 019B     		ldr	r3, [sp, #4]
 3292 0006 9B6C     		ldr	r3, [r3, #72]
2018:/home/rdu/Workspace/project_templates/mcu/stm32_ws/src/libraries/FreeRTOS/Source/queue.c **** 	}
 3293              		.loc 1 2018 0
 3294 0008 1846     		mov	r0, r3
 3295 000a 02B0     		add	sp, sp, #8
 3296              	.LCFI60:
 3297              		.cfi_def_cfa_offset 0
 3298              		@ sp needed
 3299 000c 7047     		bx	lr
 3300              		.cfi_endproc
 3301              	.LFE25:
 3303              		.section	.text.vQueueSetQueueNumber,"ax",%progbits
 3304              		.align	1
 3305              		.global	vQueueSetQueueNumber
 3306              		.syntax unified
 3307              		.thumb
 3308              		.thumb_func
 3309              		.fpu fpv4-sp-d16
 3311              	vQueueSetQueueNumber:
 3312              	.LFB26:
2019:/home/rdu/Workspace/project_templates/mcu/stm32_ws/src/libraries/FreeRTOS/Source/queue.c **** 
2020:/home/rdu/Workspace/project_templates/mcu/stm32_ws/src/libraries/FreeRTOS/Source/queue.c **** #endif /* configUSE_TRACE_FACILITY */
2021:/home/rdu/Workspace/project_templates/mcu/stm32_ws/src/libraries/FreeRTOS/Source/queue.c **** /*-----------------------------------------------------------*/
2022:/home/rdu/Workspace/project_templates/mcu/stm32_ws/src/libraries/FreeRTOS/Source/queue.c **** 
2023:/home/rdu/Workspace/project_templates/mcu/stm32_ws/src/libraries/FreeRTOS/Source/queue.c **** #if ( configUSE_TRACE_FACILITY == 1 )
2024:/home/rdu/Workspace/project_templates/mcu/stm32_ws/src/libraries/FreeRTOS/Source/queue.c **** 
2025:/home/rdu/Workspace/project_templates/mcu/stm32_ws/src/libraries/FreeRTOS/Source/queue.c **** 	void vQueueSetQueueNumber( QueueHandle_t xQueue, UBaseType_t uxQueueNumber )
2026:/home/rdu/Workspace/project_templates/mcu/stm32_ws/src/libraries/FreeRTOS/Source/queue.c **** 	{
 3313              		.loc 1 2026 0
 3314              		.cfi_startproc
 3315              		@ args = 0, pretend = 0, frame = 8
 3316              		@ frame_needed = 0, uses_anonymous_args = 0
 3317              		@ link register save eliminated.
 3318 0000 82B0     		sub	sp, sp, #8
 3319              	.LCFI61:
 3320              		.cfi_def_cfa_offset 8
 3321 0002 0190     		str	r0, [sp, #4]
 3322 0004 0091     		str	r1, [sp]
2027:/home/rdu/Workspace/project_templates/mcu/stm32_ws/src/libraries/FreeRTOS/Source/queue.c **** 		( ( Queue_t * ) xQueue )->uxQueueNumber = uxQueueNumber;
 3323              		.loc 1 2027 0
 3324 0006 019B     		ldr	r3, [sp, #4]
 3325 0008 009A     		ldr	r2, [sp]
 3326 000a 9A64     		str	r2, [r3, #72]
2028:/home/rdu/Workspace/project_templates/mcu/stm32_ws/src/libraries/FreeRTOS/Source/queue.c **** 	}
 3327              		.loc 1 2028 0
 3328 000c 00BF     		nop
 3329 000e 02B0     		add	sp, sp, #8
 3330              	.LCFI62:
 3331              		.cfi_def_cfa_offset 0
 3332              		@ sp needed
 3333 0010 7047     		bx	lr
 3334              		.cfi_endproc
 3335              	.LFE26:
 3337              		.section	.text.ucQueueGetQueueType,"ax",%progbits
 3338              		.align	1
 3339              		.global	ucQueueGetQueueType
 3340              		.syntax unified
 3341              		.thumb
 3342              		.thumb_func
 3343              		.fpu fpv4-sp-d16
 3345              	ucQueueGetQueueType:
 3346              	.LFB27:
2029:/home/rdu/Workspace/project_templates/mcu/stm32_ws/src/libraries/FreeRTOS/Source/queue.c **** 
2030:/home/rdu/Workspace/project_templates/mcu/stm32_ws/src/libraries/FreeRTOS/Source/queue.c **** #endif /* configUSE_TRACE_FACILITY */
2031:/home/rdu/Workspace/project_templates/mcu/stm32_ws/src/libraries/FreeRTOS/Source/queue.c **** /*-----------------------------------------------------------*/
2032:/home/rdu/Workspace/project_templates/mcu/stm32_ws/src/libraries/FreeRTOS/Source/queue.c **** 
2033:/home/rdu/Workspace/project_templates/mcu/stm32_ws/src/libraries/FreeRTOS/Source/queue.c **** #if ( configUSE_TRACE_FACILITY == 1 )
2034:/home/rdu/Workspace/project_templates/mcu/stm32_ws/src/libraries/FreeRTOS/Source/queue.c **** 
2035:/home/rdu/Workspace/project_templates/mcu/stm32_ws/src/libraries/FreeRTOS/Source/queue.c **** 	uint8_t ucQueueGetQueueType( QueueHandle_t xQueue )
2036:/home/rdu/Workspace/project_templates/mcu/stm32_ws/src/libraries/FreeRTOS/Source/queue.c **** 	{
 3347              		.loc 1 2036 0
 3348              		.cfi_startproc
 3349              		@ args = 0, pretend = 0, frame = 8
 3350              		@ frame_needed = 0, uses_anonymous_args = 0
 3351              		@ link register save eliminated.
 3352 0000 82B0     		sub	sp, sp, #8
 3353              	.LCFI63:
 3354              		.cfi_def_cfa_offset 8
 3355 0002 0190     		str	r0, [sp, #4]
2037:/home/rdu/Workspace/project_templates/mcu/stm32_ws/src/libraries/FreeRTOS/Source/queue.c **** 		return ( ( Queue_t * ) xQueue )->ucQueueType;
 3356              		.loc 1 2037 0
 3357 0004 019B     		ldr	r3, [sp, #4]
 3358 0006 93F84C30 		ldrb	r3, [r3, #76]	@ zero_extendqisi2
2038:/home/rdu/Workspace/project_templates/mcu/stm32_ws/src/libraries/FreeRTOS/Source/queue.c **** 	}
 3359              		.loc 1 2038 0
 3360 000a 1846     		mov	r0, r3
 3361 000c 02B0     		add	sp, sp, #8
 3362              	.LCFI64:
 3363              		.cfi_def_cfa_offset 0
 3364              		@ sp needed
 3365 000e 7047     		bx	lr
 3366              		.cfi_endproc
 3367              	.LFE27:
 3369              		.section	.text.prvGetDisinheritPriorityAfterTimeout,"ax",%progbits
 3370              		.align	1
 3371              		.syntax unified
 3372              		.thumb
 3373              		.thumb_func
 3374              		.fpu fpv4-sp-d16
 3376              	prvGetDisinheritPriorityAfterTimeout:
 3377              	.LFB28:
2039:/home/rdu/Workspace/project_templates/mcu/stm32_ws/src/libraries/FreeRTOS/Source/queue.c **** 
2040:/home/rdu/Workspace/project_templates/mcu/stm32_ws/src/libraries/FreeRTOS/Source/queue.c **** #endif /* configUSE_TRACE_FACILITY */
2041:/home/rdu/Workspace/project_templates/mcu/stm32_ws/src/libraries/FreeRTOS/Source/queue.c **** /*-----------------------------------------------------------*/
2042:/home/rdu/Workspace/project_templates/mcu/stm32_ws/src/libraries/FreeRTOS/Source/queue.c **** 
2043:/home/rdu/Workspace/project_templates/mcu/stm32_ws/src/libraries/FreeRTOS/Source/queue.c **** #if( configUSE_MUTEXES == 1 )
2044:/home/rdu/Workspace/project_templates/mcu/stm32_ws/src/libraries/FreeRTOS/Source/queue.c **** 
2045:/home/rdu/Workspace/project_templates/mcu/stm32_ws/src/libraries/FreeRTOS/Source/queue.c **** 	static UBaseType_t prvGetDisinheritPriorityAfterTimeout( const Queue_t * const pxQueue )
2046:/home/rdu/Workspace/project_templates/mcu/stm32_ws/src/libraries/FreeRTOS/Source/queue.c **** 	{
 3378              		.loc 1 2046 0
 3379              		.cfi_startproc
 3380              		@ args = 0, pretend = 0, frame = 16
 3381              		@ frame_needed = 0, uses_anonymous_args = 0
 3382              		@ link register save eliminated.
 3383 0000 84B0     		sub	sp, sp, #16
 3384              	.LCFI65:
 3385              		.cfi_def_cfa_offset 16
 3386 0002 0190     		str	r0, [sp, #4]
2047:/home/rdu/Workspace/project_templates/mcu/stm32_ws/src/libraries/FreeRTOS/Source/queue.c **** 	UBaseType_t uxHighestPriorityOfWaitingTasks;
2048:/home/rdu/Workspace/project_templates/mcu/stm32_ws/src/libraries/FreeRTOS/Source/queue.c **** 
2049:/home/rdu/Workspace/project_templates/mcu/stm32_ws/src/libraries/FreeRTOS/Source/queue.c **** 		/* If a task waiting for a mutex causes the mutex holder to inherit a
2050:/home/rdu/Workspace/project_templates/mcu/stm32_ws/src/libraries/FreeRTOS/Source/queue.c **** 		priority, but the waiting task times out, then the holder should
2051:/home/rdu/Workspace/project_templates/mcu/stm32_ws/src/libraries/FreeRTOS/Source/queue.c **** 		disinherit the priority - but only down to the highest priority of any
2052:/home/rdu/Workspace/project_templates/mcu/stm32_ws/src/libraries/FreeRTOS/Source/queue.c **** 		other tasks that are waiting for the same mutex.  For this purpose,
2053:/home/rdu/Workspace/project_templates/mcu/stm32_ws/src/libraries/FreeRTOS/Source/queue.c **** 		return the priority of the highest priority task that is waiting for the
2054:/home/rdu/Workspace/project_templates/mcu/stm32_ws/src/libraries/FreeRTOS/Source/queue.c **** 		mutex. */
2055:/home/rdu/Workspace/project_templates/mcu/stm32_ws/src/libraries/FreeRTOS/Source/queue.c **** 		if( listCURRENT_LIST_LENGTH( &( pxQueue->xTasksWaitingToReceive ) ) > 0U )
 3387              		.loc 1 2055 0
 3388 0004 019B     		ldr	r3, [sp, #4]
 3389 0006 5B6A     		ldr	r3, [r3, #36]
 3390 0008 002B     		cmp	r3, #0
 3391 000a 06D0     		beq	.L247
2056:/home/rdu/Workspace/project_templates/mcu/stm32_ws/src/libraries/FreeRTOS/Source/queue.c **** 		{
2057:/home/rdu/Workspace/project_templates/mcu/stm32_ws/src/libraries/FreeRTOS/Source/queue.c **** 			uxHighestPriorityOfWaitingTasks = ( UBaseType_t ) configMAX_PRIORITIES - ( UBaseType_t ) listGET
 3392              		.loc 1 2057 0
 3393 000c 019B     		ldr	r3, [sp, #4]
 3394 000e 1B6B     		ldr	r3, [r3, #48]
 3395 0010 1B68     		ldr	r3, [r3]
 3396 0012 C3F10503 		rsb	r3, r3, #5
 3397 0016 0393     		str	r3, [sp, #12]
 3398 0018 01E0     		b	.L248
 3399              	.L247:
2058:/home/rdu/Workspace/project_templates/mcu/stm32_ws/src/libraries/FreeRTOS/Source/queue.c **** 		}
2059:/home/rdu/Workspace/project_templates/mcu/stm32_ws/src/libraries/FreeRTOS/Source/queue.c **** 		else
2060:/home/rdu/Workspace/project_templates/mcu/stm32_ws/src/libraries/FreeRTOS/Source/queue.c **** 		{
2061:/home/rdu/Workspace/project_templates/mcu/stm32_ws/src/libraries/FreeRTOS/Source/queue.c **** 			uxHighestPriorityOfWaitingTasks = tskIDLE_PRIORITY;
 3400              		.loc 1 2061 0
 3401 001a 0023     		movs	r3, #0
 3402 001c 0393     		str	r3, [sp, #12]
 3403              	.L248:
2062:/home/rdu/Workspace/project_templates/mcu/stm32_ws/src/libraries/FreeRTOS/Source/queue.c **** 		}
2063:/home/rdu/Workspace/project_templates/mcu/stm32_ws/src/libraries/FreeRTOS/Source/queue.c **** 
2064:/home/rdu/Workspace/project_templates/mcu/stm32_ws/src/libraries/FreeRTOS/Source/queue.c **** 		return uxHighestPriorityOfWaitingTasks;
 3404              		.loc 1 2064 0
 3405 001e 039B     		ldr	r3, [sp, #12]
2065:/home/rdu/Workspace/project_templates/mcu/stm32_ws/src/libraries/FreeRTOS/Source/queue.c **** 	}
 3406              		.loc 1 2065 0
 3407 0020 1846     		mov	r0, r3
 3408 0022 04B0     		add	sp, sp, #16
 3409              	.LCFI66:
 3410              		.cfi_def_cfa_offset 0
 3411              		@ sp needed
 3412 0024 7047     		bx	lr
 3413              		.cfi_endproc
 3414              	.LFE28:
 3416              		.section	.text.prvCopyDataToQueue,"ax",%progbits
 3417              		.align	1
 3418              		.syntax unified
 3419              		.thumb
 3420              		.thumb_func
 3421              		.fpu fpv4-sp-d16
 3423              	prvCopyDataToQueue:
 3424              	.LFB29:
2066:/home/rdu/Workspace/project_templates/mcu/stm32_ws/src/libraries/FreeRTOS/Source/queue.c **** 
2067:/home/rdu/Workspace/project_templates/mcu/stm32_ws/src/libraries/FreeRTOS/Source/queue.c **** #endif /* configUSE_MUTEXES */
2068:/home/rdu/Workspace/project_templates/mcu/stm32_ws/src/libraries/FreeRTOS/Source/queue.c **** /*-----------------------------------------------------------*/
2069:/home/rdu/Workspace/project_templates/mcu/stm32_ws/src/libraries/FreeRTOS/Source/queue.c **** 
2070:/home/rdu/Workspace/project_templates/mcu/stm32_ws/src/libraries/FreeRTOS/Source/queue.c **** static BaseType_t prvCopyDataToQueue( Queue_t * const pxQueue, const void *pvItemToQueue, const Bas
2071:/home/rdu/Workspace/project_templates/mcu/stm32_ws/src/libraries/FreeRTOS/Source/queue.c **** {
 3425              		.loc 1 2071 0
 3426              		.cfi_startproc
 3427              		@ args = 0, pretend = 0, frame = 24
 3428              		@ frame_needed = 0, uses_anonymous_args = 0
 3429 0000 00B5     		push	{lr}
 3430              	.LCFI67:
 3431              		.cfi_def_cfa_offset 4
 3432              		.cfi_offset 14, -4
 3433 0002 87B0     		sub	sp, sp, #28
 3434              	.LCFI68:
 3435              		.cfi_def_cfa_offset 32
 3436 0004 0390     		str	r0, [sp, #12]
 3437 0006 0291     		str	r1, [sp, #8]
 3438 0008 0192     		str	r2, [sp, #4]
2072:/home/rdu/Workspace/project_templates/mcu/stm32_ws/src/libraries/FreeRTOS/Source/queue.c **** BaseType_t xReturn = pdFALSE;
 3439              		.loc 1 2072 0
 3440 000a 0023     		movs	r3, #0
 3441 000c 0593     		str	r3, [sp, #20]
2073:/home/rdu/Workspace/project_templates/mcu/stm32_ws/src/libraries/FreeRTOS/Source/queue.c **** UBaseType_t uxMessagesWaiting;
2074:/home/rdu/Workspace/project_templates/mcu/stm32_ws/src/libraries/FreeRTOS/Source/queue.c **** 
2075:/home/rdu/Workspace/project_templates/mcu/stm32_ws/src/libraries/FreeRTOS/Source/queue.c **** 	/* This function is called from a critical section. */
2076:/home/rdu/Workspace/project_templates/mcu/stm32_ws/src/libraries/FreeRTOS/Source/queue.c **** 
2077:/home/rdu/Workspace/project_templates/mcu/stm32_ws/src/libraries/FreeRTOS/Source/queue.c **** 	uxMessagesWaiting = pxQueue->uxMessagesWaiting;
 3442              		.loc 1 2077 0
 3443 000e 039B     		ldr	r3, [sp, #12]
 3444 0010 9B6B     		ldr	r3, [r3, #56]
 3445 0012 0493     		str	r3, [sp, #16]
2078:/home/rdu/Workspace/project_templates/mcu/stm32_ws/src/libraries/FreeRTOS/Source/queue.c **** 
2079:/home/rdu/Workspace/project_templates/mcu/stm32_ws/src/libraries/FreeRTOS/Source/queue.c **** 	if( pxQueue->uxItemSize == ( UBaseType_t ) 0 )
 3446              		.loc 1 2079 0
 3447 0014 039B     		ldr	r3, [sp, #12]
 3448 0016 1B6C     		ldr	r3, [r3, #64]
 3449 0018 002B     		cmp	r3, #0
 3450 001a 0DD1     		bne	.L251
2080:/home/rdu/Workspace/project_templates/mcu/stm32_ws/src/libraries/FreeRTOS/Source/queue.c **** 	{
2081:/home/rdu/Workspace/project_templates/mcu/stm32_ws/src/libraries/FreeRTOS/Source/queue.c **** 		#if ( configUSE_MUTEXES == 1 )
2082:/home/rdu/Workspace/project_templates/mcu/stm32_ws/src/libraries/FreeRTOS/Source/queue.c **** 		{
2083:/home/rdu/Workspace/project_templates/mcu/stm32_ws/src/libraries/FreeRTOS/Source/queue.c **** 			if( pxQueue->uxQueueType == queueQUEUE_IS_MUTEX )
 3451              		.loc 1 2083 0
 3452 001c 039B     		ldr	r3, [sp, #12]
 3453 001e 1B68     		ldr	r3, [r3]
 3454 0020 002B     		cmp	r3, #0
 3455 0022 4DD1     		bne	.L252
2084:/home/rdu/Workspace/project_templates/mcu/stm32_ws/src/libraries/FreeRTOS/Source/queue.c **** 			{
2085:/home/rdu/Workspace/project_templates/mcu/stm32_ws/src/libraries/FreeRTOS/Source/queue.c **** 				/* The mutex is no longer being held. */
2086:/home/rdu/Workspace/project_templates/mcu/stm32_ws/src/libraries/FreeRTOS/Source/queue.c **** 				xReturn = xTaskPriorityDisinherit( pxQueue->u.xSemaphore.xMutexHolder );
 3456              		.loc 1 2086 0
 3457 0024 039B     		ldr	r3, [sp, #12]
 3458 0026 9B68     		ldr	r3, [r3, #8]
 3459 0028 1846     		mov	r0, r3
 3460 002a FFF7FEFF 		bl	xTaskPriorityDisinherit
 3461 002e 0590     		str	r0, [sp, #20]
2087:/home/rdu/Workspace/project_templates/mcu/stm32_ws/src/libraries/FreeRTOS/Source/queue.c **** 				pxQueue->u.xSemaphore.xMutexHolder = NULL;
 3462              		.loc 1 2087 0
 3463 0030 039B     		ldr	r3, [sp, #12]
 3464 0032 0022     		movs	r2, #0
 3465 0034 9A60     		str	r2, [r3, #8]
 3466 0036 43E0     		b	.L252
 3467              	.L251:
2088:/home/rdu/Workspace/project_templates/mcu/stm32_ws/src/libraries/FreeRTOS/Source/queue.c **** 			}
2089:/home/rdu/Workspace/project_templates/mcu/stm32_ws/src/libraries/FreeRTOS/Source/queue.c **** 			else
2090:/home/rdu/Workspace/project_templates/mcu/stm32_ws/src/libraries/FreeRTOS/Source/queue.c **** 			{
2091:/home/rdu/Workspace/project_templates/mcu/stm32_ws/src/libraries/FreeRTOS/Source/queue.c **** 				mtCOVERAGE_TEST_MARKER();
2092:/home/rdu/Workspace/project_templates/mcu/stm32_ws/src/libraries/FreeRTOS/Source/queue.c **** 			}
2093:/home/rdu/Workspace/project_templates/mcu/stm32_ws/src/libraries/FreeRTOS/Source/queue.c **** 		}
2094:/home/rdu/Workspace/project_templates/mcu/stm32_ws/src/libraries/FreeRTOS/Source/queue.c **** 		#endif /* configUSE_MUTEXES */
2095:/home/rdu/Workspace/project_templates/mcu/stm32_ws/src/libraries/FreeRTOS/Source/queue.c **** 	}
2096:/home/rdu/Workspace/project_templates/mcu/stm32_ws/src/libraries/FreeRTOS/Source/queue.c **** 	else if( xPosition == queueSEND_TO_BACK )
 3468              		.loc 1 2096 0
 3469 0038 019B     		ldr	r3, [sp, #4]
 3470 003a 002B     		cmp	r3, #0
 3471 003c 19D1     		bne	.L253
2097:/home/rdu/Workspace/project_templates/mcu/stm32_ws/src/libraries/FreeRTOS/Source/queue.c **** 	{
2098:/home/rdu/Workspace/project_templates/mcu/stm32_ws/src/libraries/FreeRTOS/Source/queue.c **** 		( void ) memcpy( ( void * ) pxQueue->pcWriteTo, pvItemToQueue, ( size_t ) pxQueue->uxItemSize ); 
 3472              		.loc 1 2098 0
 3473 003e 039B     		ldr	r3, [sp, #12]
 3474 0040 5868     		ldr	r0, [r3, #4]
 3475 0042 039B     		ldr	r3, [sp, #12]
 3476 0044 1B6C     		ldr	r3, [r3, #64]
 3477 0046 1A46     		mov	r2, r3
 3478 0048 0299     		ldr	r1, [sp, #8]
 3479 004a FFF7FEFF 		bl	memcpy
2099:/home/rdu/Workspace/project_templates/mcu/stm32_ws/src/libraries/FreeRTOS/Source/queue.c **** 		pxQueue->pcWriteTo += pxQueue->uxItemSize; /*lint !e9016 Pointer arithmetic on char types ok, esp
 3480              		.loc 1 2099 0
 3481 004e 039B     		ldr	r3, [sp, #12]
 3482 0050 5A68     		ldr	r2, [r3, #4]
 3483 0052 039B     		ldr	r3, [sp, #12]
 3484 0054 1B6C     		ldr	r3, [r3, #64]
 3485 0056 1A44     		add	r2, r2, r3
 3486 0058 039B     		ldr	r3, [sp, #12]
 3487 005a 5A60     		str	r2, [r3, #4]
2100:/home/rdu/Workspace/project_templates/mcu/stm32_ws/src/libraries/FreeRTOS/Source/queue.c **** 		if( pxQueue->pcWriteTo >= pxQueue->u.xQueue.pcTail ) /*lint !e946 MISRA exception justified as co
 3488              		.loc 1 2100 0
 3489 005c 039B     		ldr	r3, [sp, #12]
 3490 005e 5A68     		ldr	r2, [r3, #4]
 3491 0060 039B     		ldr	r3, [sp, #12]
 3492 0062 9B68     		ldr	r3, [r3, #8]
 3493 0064 9A42     		cmp	r2, r3
 3494 0066 2BD3     		bcc	.L252
2101:/home/rdu/Workspace/project_templates/mcu/stm32_ws/src/libraries/FreeRTOS/Source/queue.c **** 		{
2102:/home/rdu/Workspace/project_templates/mcu/stm32_ws/src/libraries/FreeRTOS/Source/queue.c **** 			pxQueue->pcWriteTo = pxQueue->pcHead;
 3495              		.loc 1 2102 0
 3496 0068 039B     		ldr	r3, [sp, #12]
 3497 006a 1A68     		ldr	r2, [r3]
 3498 006c 039B     		ldr	r3, [sp, #12]
 3499 006e 5A60     		str	r2, [r3, #4]
 3500 0070 26E0     		b	.L252
 3501              	.L253:
2103:/home/rdu/Workspace/project_templates/mcu/stm32_ws/src/libraries/FreeRTOS/Source/queue.c **** 		}
2104:/home/rdu/Workspace/project_templates/mcu/stm32_ws/src/libraries/FreeRTOS/Source/queue.c **** 		else
2105:/home/rdu/Workspace/project_templates/mcu/stm32_ws/src/libraries/FreeRTOS/Source/queue.c **** 		{
2106:/home/rdu/Workspace/project_templates/mcu/stm32_ws/src/libraries/FreeRTOS/Source/queue.c **** 			mtCOVERAGE_TEST_MARKER();
2107:/home/rdu/Workspace/project_templates/mcu/stm32_ws/src/libraries/FreeRTOS/Source/queue.c **** 		}
2108:/home/rdu/Workspace/project_templates/mcu/stm32_ws/src/libraries/FreeRTOS/Source/queue.c **** 	}
2109:/home/rdu/Workspace/project_templates/mcu/stm32_ws/src/libraries/FreeRTOS/Source/queue.c **** 	else
2110:/home/rdu/Workspace/project_templates/mcu/stm32_ws/src/libraries/FreeRTOS/Source/queue.c **** 	{
2111:/home/rdu/Workspace/project_templates/mcu/stm32_ws/src/libraries/FreeRTOS/Source/queue.c **** 		( void ) memcpy( ( void * ) pxQueue->u.xQueue.pcReadFrom, pvItemToQueue, ( size_t ) pxQueue->uxIt
 3502              		.loc 1 2111 0
 3503 0072 039B     		ldr	r3, [sp, #12]
 3504 0074 D868     		ldr	r0, [r3, #12]
 3505 0076 039B     		ldr	r3, [sp, #12]
 3506 0078 1B6C     		ldr	r3, [r3, #64]
 3507 007a 1A46     		mov	r2, r3
 3508 007c 0299     		ldr	r1, [sp, #8]
 3509 007e FFF7FEFF 		bl	memcpy
2112:/home/rdu/Workspace/project_templates/mcu/stm32_ws/src/libraries/FreeRTOS/Source/queue.c **** 		pxQueue->u.xQueue.pcReadFrom -= pxQueue->uxItemSize;
 3510              		.loc 1 2112 0
 3511 0082 039B     		ldr	r3, [sp, #12]
 3512 0084 DA68     		ldr	r2, [r3, #12]
 3513 0086 039B     		ldr	r3, [sp, #12]
 3514 0088 1B6C     		ldr	r3, [r3, #64]
 3515 008a 5B42     		negs	r3, r3
 3516 008c 1A44     		add	r2, r2, r3
 3517 008e 039B     		ldr	r3, [sp, #12]
 3518 0090 DA60     		str	r2, [r3, #12]
2113:/home/rdu/Workspace/project_templates/mcu/stm32_ws/src/libraries/FreeRTOS/Source/queue.c **** 		if( pxQueue->u.xQueue.pcReadFrom < pxQueue->pcHead ) /*lint !e946 MISRA exception justified as co
 3519              		.loc 1 2113 0
 3520 0092 039B     		ldr	r3, [sp, #12]
 3521 0094 DA68     		ldr	r2, [r3, #12]
 3522 0096 039B     		ldr	r3, [sp, #12]
 3523 0098 1B68     		ldr	r3, [r3]
 3524 009a 9A42     		cmp	r2, r3
 3525 009c 07D2     		bcs	.L254
2114:/home/rdu/Workspace/project_templates/mcu/stm32_ws/src/libraries/FreeRTOS/Source/queue.c **** 		{
2115:/home/rdu/Workspace/project_templates/mcu/stm32_ws/src/libraries/FreeRTOS/Source/queue.c **** 			pxQueue->u.xQueue.pcReadFrom = ( pxQueue->u.xQueue.pcTail - pxQueue->uxItemSize );
 3526              		.loc 1 2115 0
 3527 009e 039B     		ldr	r3, [sp, #12]
 3528 00a0 9A68     		ldr	r2, [r3, #8]
 3529 00a2 039B     		ldr	r3, [sp, #12]
 3530 00a4 1B6C     		ldr	r3, [r3, #64]
 3531 00a6 5B42     		negs	r3, r3
 3532 00a8 1A44     		add	r2, r2, r3
 3533 00aa 039B     		ldr	r3, [sp, #12]
 3534 00ac DA60     		str	r2, [r3, #12]
 3535              	.L254:
2116:/home/rdu/Workspace/project_templates/mcu/stm32_ws/src/libraries/FreeRTOS/Source/queue.c **** 		}
2117:/home/rdu/Workspace/project_templates/mcu/stm32_ws/src/libraries/FreeRTOS/Source/queue.c **** 		else
2118:/home/rdu/Workspace/project_templates/mcu/stm32_ws/src/libraries/FreeRTOS/Source/queue.c **** 		{
2119:/home/rdu/Workspace/project_templates/mcu/stm32_ws/src/libraries/FreeRTOS/Source/queue.c **** 			mtCOVERAGE_TEST_MARKER();
2120:/home/rdu/Workspace/project_templates/mcu/stm32_ws/src/libraries/FreeRTOS/Source/queue.c **** 		}
2121:/home/rdu/Workspace/project_templates/mcu/stm32_ws/src/libraries/FreeRTOS/Source/queue.c **** 
2122:/home/rdu/Workspace/project_templates/mcu/stm32_ws/src/libraries/FreeRTOS/Source/queue.c **** 		if( xPosition == queueOVERWRITE )
 3536              		.loc 1 2122 0
 3537 00ae 019B     		ldr	r3, [sp, #4]
 3538 00b0 022B     		cmp	r3, #2
 3539 00b2 05D1     		bne	.L252
2123:/home/rdu/Workspace/project_templates/mcu/stm32_ws/src/libraries/FreeRTOS/Source/queue.c **** 		{
2124:/home/rdu/Workspace/project_templates/mcu/stm32_ws/src/libraries/FreeRTOS/Source/queue.c **** 			if( uxMessagesWaiting > ( UBaseType_t ) 0 )
 3540              		.loc 1 2124 0
 3541 00b4 049B     		ldr	r3, [sp, #16]
 3542 00b6 002B     		cmp	r3, #0
 3543 00b8 02D0     		beq	.L252
2125:/home/rdu/Workspace/project_templates/mcu/stm32_ws/src/libraries/FreeRTOS/Source/queue.c **** 			{
2126:/home/rdu/Workspace/project_templates/mcu/stm32_ws/src/libraries/FreeRTOS/Source/queue.c **** 				/* An item is not being added but overwritten, so subtract
2127:/home/rdu/Workspace/project_templates/mcu/stm32_ws/src/libraries/FreeRTOS/Source/queue.c **** 				one from the recorded number of items in the queue so when
2128:/home/rdu/Workspace/project_templates/mcu/stm32_ws/src/libraries/FreeRTOS/Source/queue.c **** 				one is added again below the number of recorded items remains
2129:/home/rdu/Workspace/project_templates/mcu/stm32_ws/src/libraries/FreeRTOS/Source/queue.c **** 				correct. */
2130:/home/rdu/Workspace/project_templates/mcu/stm32_ws/src/libraries/FreeRTOS/Source/queue.c **** 				--uxMessagesWaiting;
 3544              		.loc 1 2130 0
 3545 00ba 049B     		ldr	r3, [sp, #16]
 3546 00bc 013B     		subs	r3, r3, #1
 3547 00be 0493     		str	r3, [sp, #16]
 3548              	.L252:
2131:/home/rdu/Workspace/project_templates/mcu/stm32_ws/src/libraries/FreeRTOS/Source/queue.c **** 			}
2132:/home/rdu/Workspace/project_templates/mcu/stm32_ws/src/libraries/FreeRTOS/Source/queue.c **** 			else
2133:/home/rdu/Workspace/project_templates/mcu/stm32_ws/src/libraries/FreeRTOS/Source/queue.c **** 			{
2134:/home/rdu/Workspace/project_templates/mcu/stm32_ws/src/libraries/FreeRTOS/Source/queue.c **** 				mtCOVERAGE_TEST_MARKER();
2135:/home/rdu/Workspace/project_templates/mcu/stm32_ws/src/libraries/FreeRTOS/Source/queue.c **** 			}
2136:/home/rdu/Workspace/project_templates/mcu/stm32_ws/src/libraries/FreeRTOS/Source/queue.c **** 		}
2137:/home/rdu/Workspace/project_templates/mcu/stm32_ws/src/libraries/FreeRTOS/Source/queue.c **** 		else
2138:/home/rdu/Workspace/project_templates/mcu/stm32_ws/src/libraries/FreeRTOS/Source/queue.c **** 		{
2139:/home/rdu/Workspace/project_templates/mcu/stm32_ws/src/libraries/FreeRTOS/Source/queue.c **** 			mtCOVERAGE_TEST_MARKER();
2140:/home/rdu/Workspace/project_templates/mcu/stm32_ws/src/libraries/FreeRTOS/Source/queue.c **** 		}
2141:/home/rdu/Workspace/project_templates/mcu/stm32_ws/src/libraries/FreeRTOS/Source/queue.c **** 	}
2142:/home/rdu/Workspace/project_templates/mcu/stm32_ws/src/libraries/FreeRTOS/Source/queue.c **** 
2143:/home/rdu/Workspace/project_templates/mcu/stm32_ws/src/libraries/FreeRTOS/Source/queue.c **** 	pxQueue->uxMessagesWaiting = uxMessagesWaiting + ( UBaseType_t ) 1;
 3549              		.loc 1 2143 0
 3550 00c0 049B     		ldr	r3, [sp, #16]
 3551 00c2 5A1C     		adds	r2, r3, #1
 3552 00c4 039B     		ldr	r3, [sp, #12]
 3553 00c6 9A63     		str	r2, [r3, #56]
2144:/home/rdu/Workspace/project_templates/mcu/stm32_ws/src/libraries/FreeRTOS/Source/queue.c **** 
2145:/home/rdu/Workspace/project_templates/mcu/stm32_ws/src/libraries/FreeRTOS/Source/queue.c **** 	return xReturn;
 3554              		.loc 1 2145 0
 3555 00c8 059B     		ldr	r3, [sp, #20]
2146:/home/rdu/Workspace/project_templates/mcu/stm32_ws/src/libraries/FreeRTOS/Source/queue.c **** }
 3556              		.loc 1 2146 0
 3557 00ca 1846     		mov	r0, r3
 3558 00cc 07B0     		add	sp, sp, #28
 3559              	.LCFI69:
 3560              		.cfi_def_cfa_offset 4
 3561              		@ sp needed
 3562 00ce 5DF804FB 		ldr	pc, [sp], #4
 3563              		.cfi_endproc
 3564              	.LFE29:
 3566              		.section	.text.prvCopyDataFromQueue,"ax",%progbits
 3567              		.align	1
 3568              		.syntax unified
 3569              		.thumb
 3570              		.thumb_func
 3571              		.fpu fpv4-sp-d16
 3573              	prvCopyDataFromQueue:
 3574              	.LFB30:
2147:/home/rdu/Workspace/project_templates/mcu/stm32_ws/src/libraries/FreeRTOS/Source/queue.c **** /*-----------------------------------------------------------*/
2148:/home/rdu/Workspace/project_templates/mcu/stm32_ws/src/libraries/FreeRTOS/Source/queue.c **** 
2149:/home/rdu/Workspace/project_templates/mcu/stm32_ws/src/libraries/FreeRTOS/Source/queue.c **** static void prvCopyDataFromQueue( Queue_t * const pxQueue, void * const pvBuffer )
2150:/home/rdu/Workspace/project_templates/mcu/stm32_ws/src/libraries/FreeRTOS/Source/queue.c **** {
 3575              		.loc 1 2150 0
 3576              		.cfi_startproc
 3577              		@ args = 0, pretend = 0, frame = 8
 3578              		@ frame_needed = 0, uses_anonymous_args = 0
 3579 0000 00B5     		push	{lr}
 3580              	.LCFI70:
 3581              		.cfi_def_cfa_offset 4
 3582              		.cfi_offset 14, -4
 3583 0002 83B0     		sub	sp, sp, #12
 3584              	.LCFI71:
 3585              		.cfi_def_cfa_offset 16
 3586 0004 0190     		str	r0, [sp, #4]
 3587 0006 0091     		str	r1, [sp]
2151:/home/rdu/Workspace/project_templates/mcu/stm32_ws/src/libraries/FreeRTOS/Source/queue.c **** 	if( pxQueue->uxItemSize != ( UBaseType_t ) 0 )
 3588              		.loc 1 2151 0
 3589 0008 019B     		ldr	r3, [sp, #4]
 3590 000a 1B6C     		ldr	r3, [r3, #64]
 3591 000c 002B     		cmp	r3, #0
 3592 000e 18D0     		beq	.L259
2152:/home/rdu/Workspace/project_templates/mcu/stm32_ws/src/libraries/FreeRTOS/Source/queue.c **** 	{
2153:/home/rdu/Workspace/project_templates/mcu/stm32_ws/src/libraries/FreeRTOS/Source/queue.c **** 		pxQueue->u.xQueue.pcReadFrom += pxQueue->uxItemSize; /*lint !e9016 Pointer arithmetic on char typ
 3593              		.loc 1 2153 0
 3594 0010 019B     		ldr	r3, [sp, #4]
 3595 0012 DA68     		ldr	r2, [r3, #12]
 3596 0014 019B     		ldr	r3, [sp, #4]
 3597 0016 1B6C     		ldr	r3, [r3, #64]
 3598 0018 1A44     		add	r2, r2, r3
 3599 001a 019B     		ldr	r3, [sp, #4]
 3600 001c DA60     		str	r2, [r3, #12]
2154:/home/rdu/Workspace/project_templates/mcu/stm32_ws/src/libraries/FreeRTOS/Source/queue.c **** 		if( pxQueue->u.xQueue.pcReadFrom >= pxQueue->u.xQueue.pcTail ) /*lint !e946 MISRA exception justi
 3601              		.loc 1 2154 0
 3602 001e 019B     		ldr	r3, [sp, #4]
 3603 0020 DA68     		ldr	r2, [r3, #12]
 3604 0022 019B     		ldr	r3, [sp, #4]
 3605 0024 9B68     		ldr	r3, [r3, #8]
 3606 0026 9A42     		cmp	r2, r3
 3607 0028 03D3     		bcc	.L258
2155:/home/rdu/Workspace/project_templates/mcu/stm32_ws/src/libraries/FreeRTOS/Source/queue.c **** 		{
2156:/home/rdu/Workspace/project_templates/mcu/stm32_ws/src/libraries/FreeRTOS/Source/queue.c **** 			pxQueue->u.xQueue.pcReadFrom = pxQueue->pcHead;
 3608              		.loc 1 2156 0
 3609 002a 019B     		ldr	r3, [sp, #4]
 3610 002c 1A68     		ldr	r2, [r3]
 3611 002e 019B     		ldr	r3, [sp, #4]
 3612 0030 DA60     		str	r2, [r3, #12]
 3613              	.L258:
2157:/home/rdu/Workspace/project_templates/mcu/stm32_ws/src/libraries/FreeRTOS/Source/queue.c **** 		}
2158:/home/rdu/Workspace/project_templates/mcu/stm32_ws/src/libraries/FreeRTOS/Source/queue.c **** 		else
2159:/home/rdu/Workspace/project_templates/mcu/stm32_ws/src/libraries/FreeRTOS/Source/queue.c **** 		{
2160:/home/rdu/Workspace/project_templates/mcu/stm32_ws/src/libraries/FreeRTOS/Source/queue.c **** 			mtCOVERAGE_TEST_MARKER();
2161:/home/rdu/Workspace/project_templates/mcu/stm32_ws/src/libraries/FreeRTOS/Source/queue.c **** 		}
2162:/home/rdu/Workspace/project_templates/mcu/stm32_ws/src/libraries/FreeRTOS/Source/queue.c **** 		( void ) memcpy( ( void * ) pvBuffer, ( void * ) pxQueue->u.xQueue.pcReadFrom, ( size_t ) pxQueue
 3614              		.loc 1 2162 0
 3615 0032 019B     		ldr	r3, [sp, #4]
 3616 0034 D968     		ldr	r1, [r3, #12]
 3617 0036 019B     		ldr	r3, [sp, #4]
 3618 0038 1B6C     		ldr	r3, [r3, #64]
 3619 003a 1A46     		mov	r2, r3
 3620 003c 0098     		ldr	r0, [sp]
 3621 003e FFF7FEFF 		bl	memcpy
 3622              	.L259:
2163:/home/rdu/Workspace/project_templates/mcu/stm32_ws/src/libraries/FreeRTOS/Source/queue.c **** 	}
2164:/home/rdu/Workspace/project_templates/mcu/stm32_ws/src/libraries/FreeRTOS/Source/queue.c **** }
 3623              		.loc 1 2164 0
 3624 0042 00BF     		nop
 3625 0044 03B0     		add	sp, sp, #12
 3626              	.LCFI72:
 3627              		.cfi_def_cfa_offset 4
 3628              		@ sp needed
 3629 0046 5DF804FB 		ldr	pc, [sp], #4
 3630              		.cfi_endproc
 3631              	.LFE30:
 3633              		.section	.text.prvUnlockQueue,"ax",%progbits
 3634              		.align	1
 3635              		.syntax unified
 3636              		.thumb
 3637              		.thumb_func
 3638              		.fpu fpv4-sp-d16
 3640              	prvUnlockQueue:
 3641              	.LFB31:
2165:/home/rdu/Workspace/project_templates/mcu/stm32_ws/src/libraries/FreeRTOS/Source/queue.c **** /*-----------------------------------------------------------*/
2166:/home/rdu/Workspace/project_templates/mcu/stm32_ws/src/libraries/FreeRTOS/Source/queue.c **** 
2167:/home/rdu/Workspace/project_templates/mcu/stm32_ws/src/libraries/FreeRTOS/Source/queue.c **** static void prvUnlockQueue( Queue_t * const pxQueue )
2168:/home/rdu/Workspace/project_templates/mcu/stm32_ws/src/libraries/FreeRTOS/Source/queue.c **** {
 3642              		.loc 1 2168 0
 3643              		.cfi_startproc
 3644              		@ args = 0, pretend = 0, frame = 16
 3645              		@ frame_needed = 0, uses_anonymous_args = 0
 3646 0000 00B5     		push	{lr}
 3647              	.LCFI73:
 3648              		.cfi_def_cfa_offset 4
 3649              		.cfi_offset 14, -4
 3650 0002 85B0     		sub	sp, sp, #20
 3651              	.LCFI74:
 3652              		.cfi_def_cfa_offset 24
 3653 0004 0190     		str	r0, [sp, #4]
2169:/home/rdu/Workspace/project_templates/mcu/stm32_ws/src/libraries/FreeRTOS/Source/queue.c **** 	/* THIS FUNCTION MUST BE CALLED WITH THE SCHEDULER SUSPENDED. */
2170:/home/rdu/Workspace/project_templates/mcu/stm32_ws/src/libraries/FreeRTOS/Source/queue.c **** 
2171:/home/rdu/Workspace/project_templates/mcu/stm32_ws/src/libraries/FreeRTOS/Source/queue.c **** 	/* The lock counts contains the number of extra data items placed or
2172:/home/rdu/Workspace/project_templates/mcu/stm32_ws/src/libraries/FreeRTOS/Source/queue.c **** 	removed from the queue while the queue was locked.  When a queue is
2173:/home/rdu/Workspace/project_templates/mcu/stm32_ws/src/libraries/FreeRTOS/Source/queue.c **** 	locked items can be added or removed, but the event lists cannot be
2174:/home/rdu/Workspace/project_templates/mcu/stm32_ws/src/libraries/FreeRTOS/Source/queue.c **** 	updated. */
2175:/home/rdu/Workspace/project_templates/mcu/stm32_ws/src/libraries/FreeRTOS/Source/queue.c **** 	taskENTER_CRITICAL();
 3654              		.loc 1 2175 0
 3655 0006 FFF7FEFF 		bl	vPortEnterCritical
 3656              	.LBB196:
2176:/home/rdu/Workspace/project_templates/mcu/stm32_ws/src/libraries/FreeRTOS/Source/queue.c **** 	{
2177:/home/rdu/Workspace/project_templates/mcu/stm32_ws/src/libraries/FreeRTOS/Source/queue.c **** 		int8_t cTxLock = pxQueue->cTxLock;
 3657              		.loc 1 2177 0
 3658 000a 019B     		ldr	r3, [sp, #4]
 3659 000c 93F84530 		ldrb	r3, [r3, #69]
 3660 0010 8DF80F30 		strb	r3, [sp, #15]
2178:/home/rdu/Workspace/project_templates/mcu/stm32_ws/src/libraries/FreeRTOS/Source/queue.c **** 
2179:/home/rdu/Workspace/project_templates/mcu/stm32_ws/src/libraries/FreeRTOS/Source/queue.c **** 		/* See if data was added to the queue while it was locked. */
2180:/home/rdu/Workspace/project_templates/mcu/stm32_ws/src/libraries/FreeRTOS/Source/queue.c **** 		while( cTxLock > queueLOCKED_UNMODIFIED )
 3661              		.loc 1 2180 0
 3662 0014 13E0     		b	.L261
 3663              	.L265:
2181:/home/rdu/Workspace/project_templates/mcu/stm32_ws/src/libraries/FreeRTOS/Source/queue.c **** 		{
2182:/home/rdu/Workspace/project_templates/mcu/stm32_ws/src/libraries/FreeRTOS/Source/queue.c **** 			/* Data was posted while the queue was locked.  Are any tasks
2183:/home/rdu/Workspace/project_templates/mcu/stm32_ws/src/libraries/FreeRTOS/Source/queue.c **** 			blocked waiting for data to become available? */
2184:/home/rdu/Workspace/project_templates/mcu/stm32_ws/src/libraries/FreeRTOS/Source/queue.c **** 			#if ( configUSE_QUEUE_SETS == 1 )
2185:/home/rdu/Workspace/project_templates/mcu/stm32_ws/src/libraries/FreeRTOS/Source/queue.c **** 			{
2186:/home/rdu/Workspace/project_templates/mcu/stm32_ws/src/libraries/FreeRTOS/Source/queue.c **** 				if( pxQueue->pxQueueSetContainer != NULL )
2187:/home/rdu/Workspace/project_templates/mcu/stm32_ws/src/libraries/FreeRTOS/Source/queue.c **** 				{
2188:/home/rdu/Workspace/project_templates/mcu/stm32_ws/src/libraries/FreeRTOS/Source/queue.c **** 					if( prvNotifyQueueSetContainer( pxQueue, queueSEND_TO_BACK ) != pdFALSE )
2189:/home/rdu/Workspace/project_templates/mcu/stm32_ws/src/libraries/FreeRTOS/Source/queue.c **** 					{
2190:/home/rdu/Workspace/project_templates/mcu/stm32_ws/src/libraries/FreeRTOS/Source/queue.c **** 						/* The queue is a member of a queue set, and posting to
2191:/home/rdu/Workspace/project_templates/mcu/stm32_ws/src/libraries/FreeRTOS/Source/queue.c **** 						the queue set caused a higher priority task to unblock.
2192:/home/rdu/Workspace/project_templates/mcu/stm32_ws/src/libraries/FreeRTOS/Source/queue.c **** 						A context switch is required. */
2193:/home/rdu/Workspace/project_templates/mcu/stm32_ws/src/libraries/FreeRTOS/Source/queue.c **** 						vTaskMissedYield();
2194:/home/rdu/Workspace/project_templates/mcu/stm32_ws/src/libraries/FreeRTOS/Source/queue.c **** 					}
2195:/home/rdu/Workspace/project_templates/mcu/stm32_ws/src/libraries/FreeRTOS/Source/queue.c **** 					else
2196:/home/rdu/Workspace/project_templates/mcu/stm32_ws/src/libraries/FreeRTOS/Source/queue.c **** 					{
2197:/home/rdu/Workspace/project_templates/mcu/stm32_ws/src/libraries/FreeRTOS/Source/queue.c **** 						mtCOVERAGE_TEST_MARKER();
2198:/home/rdu/Workspace/project_templates/mcu/stm32_ws/src/libraries/FreeRTOS/Source/queue.c **** 					}
2199:/home/rdu/Workspace/project_templates/mcu/stm32_ws/src/libraries/FreeRTOS/Source/queue.c **** 				}
2200:/home/rdu/Workspace/project_templates/mcu/stm32_ws/src/libraries/FreeRTOS/Source/queue.c **** 				else
2201:/home/rdu/Workspace/project_templates/mcu/stm32_ws/src/libraries/FreeRTOS/Source/queue.c **** 				{
2202:/home/rdu/Workspace/project_templates/mcu/stm32_ws/src/libraries/FreeRTOS/Source/queue.c **** 					/* Tasks that are removed from the event list will get
2203:/home/rdu/Workspace/project_templates/mcu/stm32_ws/src/libraries/FreeRTOS/Source/queue.c **** 					added to the pending ready list as the scheduler is still
2204:/home/rdu/Workspace/project_templates/mcu/stm32_ws/src/libraries/FreeRTOS/Source/queue.c **** 					suspended. */
2205:/home/rdu/Workspace/project_templates/mcu/stm32_ws/src/libraries/FreeRTOS/Source/queue.c **** 					if( listLIST_IS_EMPTY( &( pxQueue->xTasksWaitingToReceive ) ) == pdFALSE )
2206:/home/rdu/Workspace/project_templates/mcu/stm32_ws/src/libraries/FreeRTOS/Source/queue.c **** 					{
2207:/home/rdu/Workspace/project_templates/mcu/stm32_ws/src/libraries/FreeRTOS/Source/queue.c **** 						if( xTaskRemoveFromEventList( &( pxQueue->xTasksWaitingToReceive ) ) != pdFALSE )
2208:/home/rdu/Workspace/project_templates/mcu/stm32_ws/src/libraries/FreeRTOS/Source/queue.c **** 						{
2209:/home/rdu/Workspace/project_templates/mcu/stm32_ws/src/libraries/FreeRTOS/Source/queue.c **** 							/* The task waiting has a higher priority so record that a
2210:/home/rdu/Workspace/project_templates/mcu/stm32_ws/src/libraries/FreeRTOS/Source/queue.c **** 							context	switch is required. */
2211:/home/rdu/Workspace/project_templates/mcu/stm32_ws/src/libraries/FreeRTOS/Source/queue.c **** 							vTaskMissedYield();
2212:/home/rdu/Workspace/project_templates/mcu/stm32_ws/src/libraries/FreeRTOS/Source/queue.c **** 						}
2213:/home/rdu/Workspace/project_templates/mcu/stm32_ws/src/libraries/FreeRTOS/Source/queue.c **** 						else
2214:/home/rdu/Workspace/project_templates/mcu/stm32_ws/src/libraries/FreeRTOS/Source/queue.c **** 						{
2215:/home/rdu/Workspace/project_templates/mcu/stm32_ws/src/libraries/FreeRTOS/Source/queue.c **** 							mtCOVERAGE_TEST_MARKER();
2216:/home/rdu/Workspace/project_templates/mcu/stm32_ws/src/libraries/FreeRTOS/Source/queue.c **** 						}
2217:/home/rdu/Workspace/project_templates/mcu/stm32_ws/src/libraries/FreeRTOS/Source/queue.c **** 					}
2218:/home/rdu/Workspace/project_templates/mcu/stm32_ws/src/libraries/FreeRTOS/Source/queue.c **** 					else
2219:/home/rdu/Workspace/project_templates/mcu/stm32_ws/src/libraries/FreeRTOS/Source/queue.c **** 					{
2220:/home/rdu/Workspace/project_templates/mcu/stm32_ws/src/libraries/FreeRTOS/Source/queue.c **** 						break;
2221:/home/rdu/Workspace/project_templates/mcu/stm32_ws/src/libraries/FreeRTOS/Source/queue.c **** 					}
2222:/home/rdu/Workspace/project_templates/mcu/stm32_ws/src/libraries/FreeRTOS/Source/queue.c **** 				}
2223:/home/rdu/Workspace/project_templates/mcu/stm32_ws/src/libraries/FreeRTOS/Source/queue.c **** 			}
2224:/home/rdu/Workspace/project_templates/mcu/stm32_ws/src/libraries/FreeRTOS/Source/queue.c **** 			#else /* configUSE_QUEUE_SETS */
2225:/home/rdu/Workspace/project_templates/mcu/stm32_ws/src/libraries/FreeRTOS/Source/queue.c **** 			{
2226:/home/rdu/Workspace/project_templates/mcu/stm32_ws/src/libraries/FreeRTOS/Source/queue.c **** 				/* Tasks that are removed from the event list will get added to
2227:/home/rdu/Workspace/project_templates/mcu/stm32_ws/src/libraries/FreeRTOS/Source/queue.c **** 				the pending ready list as the scheduler is still suspended. */
2228:/home/rdu/Workspace/project_templates/mcu/stm32_ws/src/libraries/FreeRTOS/Source/queue.c **** 				if( listLIST_IS_EMPTY( &( pxQueue->xTasksWaitingToReceive ) ) == pdFALSE )
 3664              		.loc 1 2228 0
 3665 0016 019B     		ldr	r3, [sp, #4]
 3666 0018 5B6A     		ldr	r3, [r3, #36]
 3667 001a 002B     		cmp	r3, #0
 3668 001c 14D0     		beq	.L271
2229:/home/rdu/Workspace/project_templates/mcu/stm32_ws/src/libraries/FreeRTOS/Source/queue.c **** 				{
2230:/home/rdu/Workspace/project_templates/mcu/stm32_ws/src/libraries/FreeRTOS/Source/queue.c **** 					if( xTaskRemoveFromEventList( &( pxQueue->xTasksWaitingToReceive ) ) != pdFALSE )
 3669              		.loc 1 2230 0
 3670 001e 019B     		ldr	r3, [sp, #4]
 3671 0020 2433     		adds	r3, r3, #36
 3672 0022 1846     		mov	r0, r3
 3673 0024 FFF7FEFF 		bl	xTaskRemoveFromEventList
 3674 0028 0346     		mov	r3, r0
 3675 002a 002B     		cmp	r3, #0
 3676 002c 01D0     		beq	.L263
2231:/home/rdu/Workspace/project_templates/mcu/stm32_ws/src/libraries/FreeRTOS/Source/queue.c **** 					{
2232:/home/rdu/Workspace/project_templates/mcu/stm32_ws/src/libraries/FreeRTOS/Source/queue.c **** 						/* The task waiting has a higher priority so record that
2233:/home/rdu/Workspace/project_templates/mcu/stm32_ws/src/libraries/FreeRTOS/Source/queue.c **** 						a context switch is required. */
2234:/home/rdu/Workspace/project_templates/mcu/stm32_ws/src/libraries/FreeRTOS/Source/queue.c **** 						vTaskMissedYield();
 3677              		.loc 1 2234 0
 3678 002e FFF7FEFF 		bl	vTaskMissedYield
 3679              	.L263:
2235:/home/rdu/Workspace/project_templates/mcu/stm32_ws/src/libraries/FreeRTOS/Source/queue.c **** 					}
2236:/home/rdu/Workspace/project_templates/mcu/stm32_ws/src/libraries/FreeRTOS/Source/queue.c **** 					else
2237:/home/rdu/Workspace/project_templates/mcu/stm32_ws/src/libraries/FreeRTOS/Source/queue.c **** 					{
2238:/home/rdu/Workspace/project_templates/mcu/stm32_ws/src/libraries/FreeRTOS/Source/queue.c **** 						mtCOVERAGE_TEST_MARKER();
2239:/home/rdu/Workspace/project_templates/mcu/stm32_ws/src/libraries/FreeRTOS/Source/queue.c **** 					}
2240:/home/rdu/Workspace/project_templates/mcu/stm32_ws/src/libraries/FreeRTOS/Source/queue.c **** 				}
2241:/home/rdu/Workspace/project_templates/mcu/stm32_ws/src/libraries/FreeRTOS/Source/queue.c **** 				else
2242:/home/rdu/Workspace/project_templates/mcu/stm32_ws/src/libraries/FreeRTOS/Source/queue.c **** 				{
2243:/home/rdu/Workspace/project_templates/mcu/stm32_ws/src/libraries/FreeRTOS/Source/queue.c **** 					break;
2244:/home/rdu/Workspace/project_templates/mcu/stm32_ws/src/libraries/FreeRTOS/Source/queue.c **** 				}
2245:/home/rdu/Workspace/project_templates/mcu/stm32_ws/src/libraries/FreeRTOS/Source/queue.c **** 			}
2246:/home/rdu/Workspace/project_templates/mcu/stm32_ws/src/libraries/FreeRTOS/Source/queue.c **** 			#endif /* configUSE_QUEUE_SETS */
2247:/home/rdu/Workspace/project_templates/mcu/stm32_ws/src/libraries/FreeRTOS/Source/queue.c **** 
2248:/home/rdu/Workspace/project_templates/mcu/stm32_ws/src/libraries/FreeRTOS/Source/queue.c **** 			--cTxLock;
 3680              		.loc 1 2248 0
 3681 0032 9DF80F30 		ldrb	r3, [sp, #15]	@ zero_extendqisi2
 3682 0036 013B     		subs	r3, r3, #1
 3683 0038 DBB2     		uxtb	r3, r3
 3684 003a 8DF80F30 		strb	r3, [sp, #15]
 3685              	.L261:
2180:/home/rdu/Workspace/project_templates/mcu/stm32_ws/src/libraries/FreeRTOS/Source/queue.c **** 		{
 3686              		.loc 1 2180 0
 3687 003e 9DF90F30 		ldrsb	r3, [sp, #15]
 3688 0042 002B     		cmp	r3, #0
 3689 0044 E7DC     		bgt	.L265
 3690 0046 00E0     		b	.L264
 3691              	.L271:
2243:/home/rdu/Workspace/project_templates/mcu/stm32_ws/src/libraries/FreeRTOS/Source/queue.c **** 				}
 3692              		.loc 1 2243 0
 3693 0048 00BF     		nop
 3694              	.L264:
2249:/home/rdu/Workspace/project_templates/mcu/stm32_ws/src/libraries/FreeRTOS/Source/queue.c **** 		}
2250:/home/rdu/Workspace/project_templates/mcu/stm32_ws/src/libraries/FreeRTOS/Source/queue.c **** 
2251:/home/rdu/Workspace/project_templates/mcu/stm32_ws/src/libraries/FreeRTOS/Source/queue.c **** 		pxQueue->cTxLock = queueUNLOCKED;
 3695              		.loc 1 2251 0
 3696 004a 019B     		ldr	r3, [sp, #4]
 3697 004c FF22     		movs	r2, #255
 3698 004e 83F84520 		strb	r2, [r3, #69]
 3699              	.LBE196:
2252:/home/rdu/Workspace/project_templates/mcu/stm32_ws/src/libraries/FreeRTOS/Source/queue.c **** 	}
2253:/home/rdu/Workspace/project_templates/mcu/stm32_ws/src/libraries/FreeRTOS/Source/queue.c **** 	taskEXIT_CRITICAL();
 3700              		.loc 1 2253 0
 3701 0052 FFF7FEFF 		bl	vPortExitCritical
2254:/home/rdu/Workspace/project_templates/mcu/stm32_ws/src/libraries/FreeRTOS/Source/queue.c **** 
2255:/home/rdu/Workspace/project_templates/mcu/stm32_ws/src/libraries/FreeRTOS/Source/queue.c **** 	/* Do the same for the Rx lock. */
2256:/home/rdu/Workspace/project_templates/mcu/stm32_ws/src/libraries/FreeRTOS/Source/queue.c **** 	taskENTER_CRITICAL();
 3702              		.loc 1 2256 0
 3703 0056 FFF7FEFF 		bl	vPortEnterCritical
 3704              	.LBB197:
2257:/home/rdu/Workspace/project_templates/mcu/stm32_ws/src/libraries/FreeRTOS/Source/queue.c **** 	{
2258:/home/rdu/Workspace/project_templates/mcu/stm32_ws/src/libraries/FreeRTOS/Source/queue.c **** 		int8_t cRxLock = pxQueue->cRxLock;
 3705              		.loc 1 2258 0
 3706 005a 019B     		ldr	r3, [sp, #4]
 3707 005c 93F84430 		ldrb	r3, [r3, #68]
 3708 0060 8DF80E30 		strb	r3, [sp, #14]
2259:/home/rdu/Workspace/project_templates/mcu/stm32_ws/src/libraries/FreeRTOS/Source/queue.c **** 
2260:/home/rdu/Workspace/project_templates/mcu/stm32_ws/src/libraries/FreeRTOS/Source/queue.c **** 		while( cRxLock > queueLOCKED_UNMODIFIED )
 3709              		.loc 1 2260 0
 3710 0064 13E0     		b	.L266
 3711              	.L270:
2261:/home/rdu/Workspace/project_templates/mcu/stm32_ws/src/libraries/FreeRTOS/Source/queue.c **** 		{
2262:/home/rdu/Workspace/project_templates/mcu/stm32_ws/src/libraries/FreeRTOS/Source/queue.c **** 			if( listLIST_IS_EMPTY( &( pxQueue->xTasksWaitingToSend ) ) == pdFALSE )
 3712              		.loc 1 2262 0
 3713 0066 019B     		ldr	r3, [sp, #4]
 3714 0068 1B69     		ldr	r3, [r3, #16]
 3715 006a 002B     		cmp	r3, #0
 3716 006c 14D0     		beq	.L272
2263:/home/rdu/Workspace/project_templates/mcu/stm32_ws/src/libraries/FreeRTOS/Source/queue.c **** 			{
2264:/home/rdu/Workspace/project_templates/mcu/stm32_ws/src/libraries/FreeRTOS/Source/queue.c **** 				if( xTaskRemoveFromEventList( &( pxQueue->xTasksWaitingToSend ) ) != pdFALSE )
 3717              		.loc 1 2264 0
 3718 006e 019B     		ldr	r3, [sp, #4]
 3719 0070 1033     		adds	r3, r3, #16
 3720 0072 1846     		mov	r0, r3
 3721 0074 FFF7FEFF 		bl	xTaskRemoveFromEventList
 3722 0078 0346     		mov	r3, r0
 3723 007a 002B     		cmp	r3, #0
 3724 007c 01D0     		beq	.L268
2265:/home/rdu/Workspace/project_templates/mcu/stm32_ws/src/libraries/FreeRTOS/Source/queue.c **** 				{
2266:/home/rdu/Workspace/project_templates/mcu/stm32_ws/src/libraries/FreeRTOS/Source/queue.c **** 					vTaskMissedYield();
 3725              		.loc 1 2266 0
 3726 007e FFF7FEFF 		bl	vTaskMissedYield
 3727              	.L268:
2267:/home/rdu/Workspace/project_templates/mcu/stm32_ws/src/libraries/FreeRTOS/Source/queue.c **** 				}
2268:/home/rdu/Workspace/project_templates/mcu/stm32_ws/src/libraries/FreeRTOS/Source/queue.c **** 				else
2269:/home/rdu/Workspace/project_templates/mcu/stm32_ws/src/libraries/FreeRTOS/Source/queue.c **** 				{
2270:/home/rdu/Workspace/project_templates/mcu/stm32_ws/src/libraries/FreeRTOS/Source/queue.c **** 					mtCOVERAGE_TEST_MARKER();
2271:/home/rdu/Workspace/project_templates/mcu/stm32_ws/src/libraries/FreeRTOS/Source/queue.c **** 				}
2272:/home/rdu/Workspace/project_templates/mcu/stm32_ws/src/libraries/FreeRTOS/Source/queue.c **** 
2273:/home/rdu/Workspace/project_templates/mcu/stm32_ws/src/libraries/FreeRTOS/Source/queue.c **** 				--cRxLock;
 3728              		.loc 1 2273 0
 3729 0082 9DF80E30 		ldrb	r3, [sp, #14]	@ zero_extendqisi2
 3730 0086 013B     		subs	r3, r3, #1
 3731 0088 DBB2     		uxtb	r3, r3
 3732 008a 8DF80E30 		strb	r3, [sp, #14]
 3733              	.L266:
2260:/home/rdu/Workspace/project_templates/mcu/stm32_ws/src/libraries/FreeRTOS/Source/queue.c **** 		{
 3734              		.loc 1 2260 0
 3735 008e 9DF90E30 		ldrsb	r3, [sp, #14]
 3736 0092 002B     		cmp	r3, #0
 3737 0094 E7DC     		bgt	.L270
 3738 0096 00E0     		b	.L269
 3739              	.L272:
2274:/home/rdu/Workspace/project_templates/mcu/stm32_ws/src/libraries/FreeRTOS/Source/queue.c **** 			}
2275:/home/rdu/Workspace/project_templates/mcu/stm32_ws/src/libraries/FreeRTOS/Source/queue.c **** 			else
2276:/home/rdu/Workspace/project_templates/mcu/stm32_ws/src/libraries/FreeRTOS/Source/queue.c **** 			{
2277:/home/rdu/Workspace/project_templates/mcu/stm32_ws/src/libraries/FreeRTOS/Source/queue.c **** 				break;
 3740              		.loc 1 2277 0
 3741 0098 00BF     		nop
 3742              	.L269:
2278:/home/rdu/Workspace/project_templates/mcu/stm32_ws/src/libraries/FreeRTOS/Source/queue.c **** 			}
2279:/home/rdu/Workspace/project_templates/mcu/stm32_ws/src/libraries/FreeRTOS/Source/queue.c **** 		}
2280:/home/rdu/Workspace/project_templates/mcu/stm32_ws/src/libraries/FreeRTOS/Source/queue.c **** 
2281:/home/rdu/Workspace/project_templates/mcu/stm32_ws/src/libraries/FreeRTOS/Source/queue.c **** 		pxQueue->cRxLock = queueUNLOCKED;
 3743              		.loc 1 2281 0
 3744 009a 019B     		ldr	r3, [sp, #4]
 3745 009c FF22     		movs	r2, #255
 3746 009e 83F84420 		strb	r2, [r3, #68]
 3747              	.LBE197:
2282:/home/rdu/Workspace/project_templates/mcu/stm32_ws/src/libraries/FreeRTOS/Source/queue.c **** 	}
2283:/home/rdu/Workspace/project_templates/mcu/stm32_ws/src/libraries/FreeRTOS/Source/queue.c **** 	taskEXIT_CRITICAL();
 3748              		.loc 1 2283 0
 3749 00a2 FFF7FEFF 		bl	vPortExitCritical
2284:/home/rdu/Workspace/project_templates/mcu/stm32_ws/src/libraries/FreeRTOS/Source/queue.c **** }
 3750              		.loc 1 2284 0
 3751 00a6 00BF     		nop
 3752 00a8 05B0     		add	sp, sp, #20
 3753              	.LCFI75:
 3754              		.cfi_def_cfa_offset 4
 3755              		@ sp needed
 3756 00aa 5DF804FB 		ldr	pc, [sp], #4
 3757              		.cfi_endproc
 3758              	.LFE31:
 3760              		.section	.text.prvIsQueueEmpty,"ax",%progbits
 3761              		.align	1
 3762              		.syntax unified
 3763              		.thumb
 3764              		.thumb_func
 3765              		.fpu fpv4-sp-d16
 3767              	prvIsQueueEmpty:
 3768              	.LFB32:
2285:/home/rdu/Workspace/project_templates/mcu/stm32_ws/src/libraries/FreeRTOS/Source/queue.c **** /*-----------------------------------------------------------*/
2286:/home/rdu/Workspace/project_templates/mcu/stm32_ws/src/libraries/FreeRTOS/Source/queue.c **** 
2287:/home/rdu/Workspace/project_templates/mcu/stm32_ws/src/libraries/FreeRTOS/Source/queue.c **** static BaseType_t prvIsQueueEmpty( const Queue_t *pxQueue )
2288:/home/rdu/Workspace/project_templates/mcu/stm32_ws/src/libraries/FreeRTOS/Source/queue.c **** {
 3769              		.loc 1 2288 0
 3770              		.cfi_startproc
 3771              		@ args = 0, pretend = 0, frame = 16
 3772              		@ frame_needed = 0, uses_anonymous_args = 0
 3773 0000 00B5     		push	{lr}
 3774              	.LCFI76:
 3775              		.cfi_def_cfa_offset 4
 3776              		.cfi_offset 14, -4
 3777 0002 85B0     		sub	sp, sp, #20
 3778              	.LCFI77:
 3779              		.cfi_def_cfa_offset 24
 3780 0004 0190     		str	r0, [sp, #4]
2289:/home/rdu/Workspace/project_templates/mcu/stm32_ws/src/libraries/FreeRTOS/Source/queue.c **** BaseType_t xReturn;
2290:/home/rdu/Workspace/project_templates/mcu/stm32_ws/src/libraries/FreeRTOS/Source/queue.c **** 
2291:/home/rdu/Workspace/project_templates/mcu/stm32_ws/src/libraries/FreeRTOS/Source/queue.c **** 	taskENTER_CRITICAL();
 3781              		.loc 1 2291 0
 3782 0006 FFF7FEFF 		bl	vPortEnterCritical
2292:/home/rdu/Workspace/project_templates/mcu/stm32_ws/src/libraries/FreeRTOS/Source/queue.c **** 	{
2293:/home/rdu/Workspace/project_templates/mcu/stm32_ws/src/libraries/FreeRTOS/Source/queue.c **** 		if( pxQueue->uxMessagesWaiting == ( UBaseType_t )  0 )
 3783              		.loc 1 2293 0
 3784 000a 019B     		ldr	r3, [sp, #4]
 3785 000c 9B6B     		ldr	r3, [r3, #56]
 3786 000e 002B     		cmp	r3, #0
 3787 0010 02D1     		bne	.L274
2294:/home/rdu/Workspace/project_templates/mcu/stm32_ws/src/libraries/FreeRTOS/Source/queue.c **** 		{
2295:/home/rdu/Workspace/project_templates/mcu/stm32_ws/src/libraries/FreeRTOS/Source/queue.c **** 			xReturn = pdTRUE;
 3788              		.loc 1 2295 0
 3789 0012 0123     		movs	r3, #1
 3790 0014 0393     		str	r3, [sp, #12]
 3791 0016 01E0     		b	.L275
 3792              	.L274:
2296:/home/rdu/Workspace/project_templates/mcu/stm32_ws/src/libraries/FreeRTOS/Source/queue.c **** 		}
2297:/home/rdu/Workspace/project_templates/mcu/stm32_ws/src/libraries/FreeRTOS/Source/queue.c **** 		else
2298:/home/rdu/Workspace/project_templates/mcu/stm32_ws/src/libraries/FreeRTOS/Source/queue.c **** 		{
2299:/home/rdu/Workspace/project_templates/mcu/stm32_ws/src/libraries/FreeRTOS/Source/queue.c **** 			xReturn = pdFALSE;
 3793              		.loc 1 2299 0
 3794 0018 0023     		movs	r3, #0
 3795 001a 0393     		str	r3, [sp, #12]
 3796              	.L275:
2300:/home/rdu/Workspace/project_templates/mcu/stm32_ws/src/libraries/FreeRTOS/Source/queue.c **** 		}
2301:/home/rdu/Workspace/project_templates/mcu/stm32_ws/src/libraries/FreeRTOS/Source/queue.c **** 	}
2302:/home/rdu/Workspace/project_templates/mcu/stm32_ws/src/libraries/FreeRTOS/Source/queue.c **** 	taskEXIT_CRITICAL();
 3797              		.loc 1 2302 0
 3798 001c FFF7FEFF 		bl	vPortExitCritical
2303:/home/rdu/Workspace/project_templates/mcu/stm32_ws/src/libraries/FreeRTOS/Source/queue.c **** 
2304:/home/rdu/Workspace/project_templates/mcu/stm32_ws/src/libraries/FreeRTOS/Source/queue.c **** 	return xReturn;
 3799              		.loc 1 2304 0
 3800 0020 039B     		ldr	r3, [sp, #12]
2305:/home/rdu/Workspace/project_templates/mcu/stm32_ws/src/libraries/FreeRTOS/Source/queue.c **** }
 3801              		.loc 1 2305 0
 3802 0022 1846     		mov	r0, r3
 3803 0024 05B0     		add	sp, sp, #20
 3804              	.LCFI78:
 3805              		.cfi_def_cfa_offset 4
 3806              		@ sp needed
 3807 0026 5DF804FB 		ldr	pc, [sp], #4
 3808              		.cfi_endproc
 3809              	.LFE32:
 3811              		.section	.text.xQueueIsQueueEmptyFromISR,"ax",%progbits
 3812              		.align	1
 3813              		.global	xQueueIsQueueEmptyFromISR
 3814              		.syntax unified
 3815              		.thumb
 3816              		.thumb_func
 3817              		.fpu fpv4-sp-d16
 3819              	xQueueIsQueueEmptyFromISR:
 3820              	.LFB33:
2306:/home/rdu/Workspace/project_templates/mcu/stm32_ws/src/libraries/FreeRTOS/Source/queue.c **** /*-----------------------------------------------------------*/
2307:/home/rdu/Workspace/project_templates/mcu/stm32_ws/src/libraries/FreeRTOS/Source/queue.c **** 
2308:/home/rdu/Workspace/project_templates/mcu/stm32_ws/src/libraries/FreeRTOS/Source/queue.c **** BaseType_t xQueueIsQueueEmptyFromISR( const QueueHandle_t xQueue )
2309:/home/rdu/Workspace/project_templates/mcu/stm32_ws/src/libraries/FreeRTOS/Source/queue.c **** {
 3821              		.loc 1 2309 0
 3822              		.cfi_startproc
 3823              		@ args = 0, pretend = 0, frame = 24
 3824              		@ frame_needed = 0, uses_anonymous_args = 0
 3825              		@ link register save eliminated.
 3826 0000 86B0     		sub	sp, sp, #24
 3827              	.LCFI79:
 3828              		.cfi_def_cfa_offset 24
 3829 0002 0190     		str	r0, [sp, #4]
2310:/home/rdu/Workspace/project_templates/mcu/stm32_ws/src/libraries/FreeRTOS/Source/queue.c **** BaseType_t xReturn;
2311:/home/rdu/Workspace/project_templates/mcu/stm32_ws/src/libraries/FreeRTOS/Source/queue.c **** Queue_t * const pxQueue = xQueue;
 3830              		.loc 1 2311 0
 3831 0004 019B     		ldr	r3, [sp, #4]
 3832 0006 0493     		str	r3, [sp, #16]
2312:/home/rdu/Workspace/project_templates/mcu/stm32_ws/src/libraries/FreeRTOS/Source/queue.c **** 
2313:/home/rdu/Workspace/project_templates/mcu/stm32_ws/src/libraries/FreeRTOS/Source/queue.c **** 	configASSERT( pxQueue );
 3833              		.loc 1 2313 0
 3834 0008 049B     		ldr	r3, [sp, #16]
 3835 000a 002B     		cmp	r3, #0
 3836 000c 09D1     		bne	.L278
 3837              	.LBB198:
 3838              	.LBB199:
 195:/home/rdu/Workspace/project_templates/mcu/stm32_ws/src/libraries/FreeRTOS/Source/portable/GCC/ARM_CM4F/portmacro.h **** 	(
 3839              		.loc 2 195 0 discriminator 1
 3840              		.syntax unified
 3841              	@ 195 "/home/rdu/Workspace/project_templates/mcu/stm32_ws/src/libraries/FreeRTOS/Source/portable/GC
 3842 000e 4FF05003 			mov r3, #80												
 3843 0012 83F31188 		msr basepri, r3											
 3844 0016 BFF36F8F 		isb														
 3845 001a BFF34F8F 		dsb														
 3846              	
 3847              	@ 0 "" 2
 3848              		.thumb
 3849              		.syntax unified
 3850 001e 0393     		str	r3, [sp, #12]
 3851              	.L279:
 3852              	.LBE199:
 3853              	.LBE198:
 3854              		.loc 1 2313 0 discriminator 1
 3855 0020 FEE7     		b	.L279
 3856              	.L278:
2314:/home/rdu/Workspace/project_templates/mcu/stm32_ws/src/libraries/FreeRTOS/Source/queue.c **** 	if( pxQueue->uxMessagesWaiting == ( UBaseType_t ) 0 )
 3857              		.loc 1 2314 0
 3858 0022 049B     		ldr	r3, [sp, #16]
 3859 0024 9B6B     		ldr	r3, [r3, #56]
 3860 0026 002B     		cmp	r3, #0
 3861 0028 02D1     		bne	.L280
2315:/home/rdu/Workspace/project_templates/mcu/stm32_ws/src/libraries/FreeRTOS/Source/queue.c **** 	{
2316:/home/rdu/Workspace/project_templates/mcu/stm32_ws/src/libraries/FreeRTOS/Source/queue.c **** 		xReturn = pdTRUE;
 3862              		.loc 1 2316 0
 3863 002a 0123     		movs	r3, #1
 3864 002c 0593     		str	r3, [sp, #20]
 3865 002e 01E0     		b	.L281
 3866              	.L280:
2317:/home/rdu/Workspace/project_templates/mcu/stm32_ws/src/libraries/FreeRTOS/Source/queue.c **** 	}
2318:/home/rdu/Workspace/project_templates/mcu/stm32_ws/src/libraries/FreeRTOS/Source/queue.c **** 	else
2319:/home/rdu/Workspace/project_templates/mcu/stm32_ws/src/libraries/FreeRTOS/Source/queue.c **** 	{
2320:/home/rdu/Workspace/project_templates/mcu/stm32_ws/src/libraries/FreeRTOS/Source/queue.c **** 		xReturn = pdFALSE;
 3867              		.loc 1 2320 0
 3868 0030 0023     		movs	r3, #0
 3869 0032 0593     		str	r3, [sp, #20]
 3870              	.L281:
2321:/home/rdu/Workspace/project_templates/mcu/stm32_ws/src/libraries/FreeRTOS/Source/queue.c **** 	}
2322:/home/rdu/Workspace/project_templates/mcu/stm32_ws/src/libraries/FreeRTOS/Source/queue.c **** 
2323:/home/rdu/Workspace/project_templates/mcu/stm32_ws/src/libraries/FreeRTOS/Source/queue.c **** 	return xReturn;
 3871              		.loc 1 2323 0
 3872 0034 059B     		ldr	r3, [sp, #20]
2324:/home/rdu/Workspace/project_templates/mcu/stm32_ws/src/libraries/FreeRTOS/Source/queue.c **** } /*lint !e818 xQueue could not be pointer to const because it is a typedef. */
 3873              		.loc 1 2324 0
 3874 0036 1846     		mov	r0, r3
 3875 0038 06B0     		add	sp, sp, #24
 3876              	.LCFI80:
 3877              		.cfi_def_cfa_offset 0
 3878              		@ sp needed
 3879 003a 7047     		bx	lr
 3880              		.cfi_endproc
 3881              	.LFE33:
 3883              		.section	.text.prvIsQueueFull,"ax",%progbits
 3884              		.align	1
 3885              		.syntax unified
 3886              		.thumb
 3887              		.thumb_func
 3888              		.fpu fpv4-sp-d16
 3890              	prvIsQueueFull:
 3891              	.LFB34:
2325:/home/rdu/Workspace/project_templates/mcu/stm32_ws/src/libraries/FreeRTOS/Source/queue.c **** /*-----------------------------------------------------------*/
2326:/home/rdu/Workspace/project_templates/mcu/stm32_ws/src/libraries/FreeRTOS/Source/queue.c **** 
2327:/home/rdu/Workspace/project_templates/mcu/stm32_ws/src/libraries/FreeRTOS/Source/queue.c **** static BaseType_t prvIsQueueFull( const Queue_t *pxQueue )
2328:/home/rdu/Workspace/project_templates/mcu/stm32_ws/src/libraries/FreeRTOS/Source/queue.c **** {
 3892              		.loc 1 2328 0
 3893              		.cfi_startproc
 3894              		@ args = 0, pretend = 0, frame = 16
 3895              		@ frame_needed = 0, uses_anonymous_args = 0
 3896 0000 00B5     		push	{lr}
 3897              	.LCFI81:
 3898              		.cfi_def_cfa_offset 4
 3899              		.cfi_offset 14, -4
 3900 0002 85B0     		sub	sp, sp, #20
 3901              	.LCFI82:
 3902              		.cfi_def_cfa_offset 24
 3903 0004 0190     		str	r0, [sp, #4]
2329:/home/rdu/Workspace/project_templates/mcu/stm32_ws/src/libraries/FreeRTOS/Source/queue.c **** BaseType_t xReturn;
2330:/home/rdu/Workspace/project_templates/mcu/stm32_ws/src/libraries/FreeRTOS/Source/queue.c **** 
2331:/home/rdu/Workspace/project_templates/mcu/stm32_ws/src/libraries/FreeRTOS/Source/queue.c **** 	taskENTER_CRITICAL();
 3904              		.loc 1 2331 0
 3905 0006 FFF7FEFF 		bl	vPortEnterCritical
2332:/home/rdu/Workspace/project_templates/mcu/stm32_ws/src/libraries/FreeRTOS/Source/queue.c **** 	{
2333:/home/rdu/Workspace/project_templates/mcu/stm32_ws/src/libraries/FreeRTOS/Source/queue.c **** 		if( pxQueue->uxMessagesWaiting == pxQueue->uxLength )
 3906              		.loc 1 2333 0
 3907 000a 019B     		ldr	r3, [sp, #4]
 3908 000c 9A6B     		ldr	r2, [r3, #56]
 3909 000e 019B     		ldr	r3, [sp, #4]
 3910 0010 DB6B     		ldr	r3, [r3, #60]
 3911 0012 9A42     		cmp	r2, r3
 3912 0014 02D1     		bne	.L284
2334:/home/rdu/Workspace/project_templates/mcu/stm32_ws/src/libraries/FreeRTOS/Source/queue.c **** 		{
2335:/home/rdu/Workspace/project_templates/mcu/stm32_ws/src/libraries/FreeRTOS/Source/queue.c **** 			xReturn = pdTRUE;
 3913              		.loc 1 2335 0
 3914 0016 0123     		movs	r3, #1
 3915 0018 0393     		str	r3, [sp, #12]
 3916 001a 01E0     		b	.L285
 3917              	.L284:
2336:/home/rdu/Workspace/project_templates/mcu/stm32_ws/src/libraries/FreeRTOS/Source/queue.c **** 		}
2337:/home/rdu/Workspace/project_templates/mcu/stm32_ws/src/libraries/FreeRTOS/Source/queue.c **** 		else
2338:/home/rdu/Workspace/project_templates/mcu/stm32_ws/src/libraries/FreeRTOS/Source/queue.c **** 		{
2339:/home/rdu/Workspace/project_templates/mcu/stm32_ws/src/libraries/FreeRTOS/Source/queue.c **** 			xReturn = pdFALSE;
 3918              		.loc 1 2339 0
 3919 001c 0023     		movs	r3, #0
 3920 001e 0393     		str	r3, [sp, #12]
 3921              	.L285:
2340:/home/rdu/Workspace/project_templates/mcu/stm32_ws/src/libraries/FreeRTOS/Source/queue.c **** 		}
2341:/home/rdu/Workspace/project_templates/mcu/stm32_ws/src/libraries/FreeRTOS/Source/queue.c **** 	}
2342:/home/rdu/Workspace/project_templates/mcu/stm32_ws/src/libraries/FreeRTOS/Source/queue.c **** 	taskEXIT_CRITICAL();
 3922              		.loc 1 2342 0
 3923 0020 FFF7FEFF 		bl	vPortExitCritical
2343:/home/rdu/Workspace/project_templates/mcu/stm32_ws/src/libraries/FreeRTOS/Source/queue.c **** 
2344:/home/rdu/Workspace/project_templates/mcu/stm32_ws/src/libraries/FreeRTOS/Source/queue.c **** 	return xReturn;
 3924              		.loc 1 2344 0
 3925 0024 039B     		ldr	r3, [sp, #12]
2345:/home/rdu/Workspace/project_templates/mcu/stm32_ws/src/libraries/FreeRTOS/Source/queue.c **** }
 3926              		.loc 1 2345 0
 3927 0026 1846     		mov	r0, r3
 3928 0028 05B0     		add	sp, sp, #20
 3929              	.LCFI83:
 3930              		.cfi_def_cfa_offset 4
 3931              		@ sp needed
 3932 002a 5DF804FB 		ldr	pc, [sp], #4
 3933              		.cfi_endproc
 3934              	.LFE34:
 3936              		.section	.text.xQueueIsQueueFullFromISR,"ax",%progbits
 3937              		.align	1
 3938              		.global	xQueueIsQueueFullFromISR
 3939              		.syntax unified
 3940              		.thumb
 3941              		.thumb_func
 3942              		.fpu fpv4-sp-d16
 3944              	xQueueIsQueueFullFromISR:
 3945              	.LFB35:
2346:/home/rdu/Workspace/project_templates/mcu/stm32_ws/src/libraries/FreeRTOS/Source/queue.c **** /*-----------------------------------------------------------*/
2347:/home/rdu/Workspace/project_templates/mcu/stm32_ws/src/libraries/FreeRTOS/Source/queue.c **** 
2348:/home/rdu/Workspace/project_templates/mcu/stm32_ws/src/libraries/FreeRTOS/Source/queue.c **** BaseType_t xQueueIsQueueFullFromISR( const QueueHandle_t xQueue )
2349:/home/rdu/Workspace/project_templates/mcu/stm32_ws/src/libraries/FreeRTOS/Source/queue.c **** {
 3946              		.loc 1 2349 0
 3947              		.cfi_startproc
 3948              		@ args = 0, pretend = 0, frame = 24
 3949              		@ frame_needed = 0, uses_anonymous_args = 0
 3950              		@ link register save eliminated.
 3951 0000 86B0     		sub	sp, sp, #24
 3952              	.LCFI84:
 3953              		.cfi_def_cfa_offset 24
 3954 0002 0190     		str	r0, [sp, #4]
2350:/home/rdu/Workspace/project_templates/mcu/stm32_ws/src/libraries/FreeRTOS/Source/queue.c **** BaseType_t xReturn;
2351:/home/rdu/Workspace/project_templates/mcu/stm32_ws/src/libraries/FreeRTOS/Source/queue.c **** Queue_t * const pxQueue = xQueue;
 3955              		.loc 1 2351 0
 3956 0004 019B     		ldr	r3, [sp, #4]
 3957 0006 0493     		str	r3, [sp, #16]
2352:/home/rdu/Workspace/project_templates/mcu/stm32_ws/src/libraries/FreeRTOS/Source/queue.c **** 
2353:/home/rdu/Workspace/project_templates/mcu/stm32_ws/src/libraries/FreeRTOS/Source/queue.c **** 	configASSERT( pxQueue );
 3958              		.loc 1 2353 0
 3959 0008 049B     		ldr	r3, [sp, #16]
 3960 000a 002B     		cmp	r3, #0
 3961 000c 09D1     		bne	.L288
 3962              	.LBB200:
 3963              	.LBB201:
 195:/home/rdu/Workspace/project_templates/mcu/stm32_ws/src/libraries/FreeRTOS/Source/portable/GCC/ARM_CM4F/portmacro.h **** 	(
 3964              		.loc 2 195 0 discriminator 1
 3965              		.syntax unified
 3966              	@ 195 "/home/rdu/Workspace/project_templates/mcu/stm32_ws/src/libraries/FreeRTOS/Source/portable/GC
 3967 000e 4FF05003 			mov r3, #80												
 3968 0012 83F31188 		msr basepri, r3											
 3969 0016 BFF36F8F 		isb														
 3970 001a BFF34F8F 		dsb														
 3971              	
 3972              	@ 0 "" 2
 3973              		.thumb
 3974              		.syntax unified
 3975 001e 0393     		str	r3, [sp, #12]
 3976              	.L289:
 3977              	.LBE201:
 3978              	.LBE200:
 3979              		.loc 1 2353 0 discriminator 1
 3980 0020 FEE7     		b	.L289
 3981              	.L288:
2354:/home/rdu/Workspace/project_templates/mcu/stm32_ws/src/libraries/FreeRTOS/Source/queue.c **** 	if( pxQueue->uxMessagesWaiting == pxQueue->uxLength )
 3982              		.loc 1 2354 0
 3983 0022 049B     		ldr	r3, [sp, #16]
 3984 0024 9A6B     		ldr	r2, [r3, #56]
 3985 0026 049B     		ldr	r3, [sp, #16]
 3986 0028 DB6B     		ldr	r3, [r3, #60]
 3987 002a 9A42     		cmp	r2, r3
 3988 002c 02D1     		bne	.L290
2355:/home/rdu/Workspace/project_templates/mcu/stm32_ws/src/libraries/FreeRTOS/Source/queue.c **** 	{
2356:/home/rdu/Workspace/project_templates/mcu/stm32_ws/src/libraries/FreeRTOS/Source/queue.c **** 		xReturn = pdTRUE;
 3989              		.loc 1 2356 0
 3990 002e 0123     		movs	r3, #1
 3991 0030 0593     		str	r3, [sp, #20]
 3992 0032 01E0     		b	.L291
 3993              	.L290:
2357:/home/rdu/Workspace/project_templates/mcu/stm32_ws/src/libraries/FreeRTOS/Source/queue.c **** 	}
2358:/home/rdu/Workspace/project_templates/mcu/stm32_ws/src/libraries/FreeRTOS/Source/queue.c **** 	else
2359:/home/rdu/Workspace/project_templates/mcu/stm32_ws/src/libraries/FreeRTOS/Source/queue.c **** 	{
2360:/home/rdu/Workspace/project_templates/mcu/stm32_ws/src/libraries/FreeRTOS/Source/queue.c **** 		xReturn = pdFALSE;
 3994              		.loc 1 2360 0
 3995 0034 0023     		movs	r3, #0
 3996 0036 0593     		str	r3, [sp, #20]
 3997              	.L291:
2361:/home/rdu/Workspace/project_templates/mcu/stm32_ws/src/libraries/FreeRTOS/Source/queue.c **** 	}
2362:/home/rdu/Workspace/project_templates/mcu/stm32_ws/src/libraries/FreeRTOS/Source/queue.c **** 
2363:/home/rdu/Workspace/project_templates/mcu/stm32_ws/src/libraries/FreeRTOS/Source/queue.c **** 	return xReturn;
 3998              		.loc 1 2363 0
 3999 0038 059B     		ldr	r3, [sp, #20]
2364:/home/rdu/Workspace/project_templates/mcu/stm32_ws/src/libraries/FreeRTOS/Source/queue.c **** } /*lint !e818 xQueue could not be pointer to const because it is a typedef. */
 4000              		.loc 1 2364 0
 4001 003a 1846     		mov	r0, r3
 4002 003c 06B0     		add	sp, sp, #24
 4003              	.LCFI85:
 4004              		.cfi_def_cfa_offset 0
 4005              		@ sp needed
 4006 003e 7047     		bx	lr
 4007              		.cfi_endproc
 4008              	.LFE35:
 4010              		.section	.text.vQueueAddToRegistry,"ax",%progbits
 4011              		.align	1
 4012              		.global	vQueueAddToRegistry
 4013              		.syntax unified
 4014              		.thumb
 4015              		.thumb_func
 4016              		.fpu fpv4-sp-d16
 4018              	vQueueAddToRegistry:
 4019              	.LFB36:
2365:/home/rdu/Workspace/project_templates/mcu/stm32_ws/src/libraries/FreeRTOS/Source/queue.c **** /*-----------------------------------------------------------*/
2366:/home/rdu/Workspace/project_templates/mcu/stm32_ws/src/libraries/FreeRTOS/Source/queue.c **** 
2367:/home/rdu/Workspace/project_templates/mcu/stm32_ws/src/libraries/FreeRTOS/Source/queue.c **** #if ( configUSE_CO_ROUTINES == 1 )
2368:/home/rdu/Workspace/project_templates/mcu/stm32_ws/src/libraries/FreeRTOS/Source/queue.c **** 
2369:/home/rdu/Workspace/project_templates/mcu/stm32_ws/src/libraries/FreeRTOS/Source/queue.c **** 	BaseType_t xQueueCRSend( QueueHandle_t xQueue, const void *pvItemToQueue, TickType_t xTicksToWait 
2370:/home/rdu/Workspace/project_templates/mcu/stm32_ws/src/libraries/FreeRTOS/Source/queue.c **** 	{
2371:/home/rdu/Workspace/project_templates/mcu/stm32_ws/src/libraries/FreeRTOS/Source/queue.c **** 	BaseType_t xReturn;
2372:/home/rdu/Workspace/project_templates/mcu/stm32_ws/src/libraries/FreeRTOS/Source/queue.c **** 	Queue_t * const pxQueue = xQueue;
2373:/home/rdu/Workspace/project_templates/mcu/stm32_ws/src/libraries/FreeRTOS/Source/queue.c **** 
2374:/home/rdu/Workspace/project_templates/mcu/stm32_ws/src/libraries/FreeRTOS/Source/queue.c **** 		/* If the queue is already full we may have to block.  A critical section
2375:/home/rdu/Workspace/project_templates/mcu/stm32_ws/src/libraries/FreeRTOS/Source/queue.c **** 		is required to prevent an interrupt removing something from the queue
2376:/home/rdu/Workspace/project_templates/mcu/stm32_ws/src/libraries/FreeRTOS/Source/queue.c **** 		between the check to see if the queue is full and blocking on the queue. */
2377:/home/rdu/Workspace/project_templates/mcu/stm32_ws/src/libraries/FreeRTOS/Source/queue.c **** 		portDISABLE_INTERRUPTS();
2378:/home/rdu/Workspace/project_templates/mcu/stm32_ws/src/libraries/FreeRTOS/Source/queue.c **** 		{
2379:/home/rdu/Workspace/project_templates/mcu/stm32_ws/src/libraries/FreeRTOS/Source/queue.c **** 			if( prvIsQueueFull( pxQueue ) != pdFALSE )
2380:/home/rdu/Workspace/project_templates/mcu/stm32_ws/src/libraries/FreeRTOS/Source/queue.c **** 			{
2381:/home/rdu/Workspace/project_templates/mcu/stm32_ws/src/libraries/FreeRTOS/Source/queue.c **** 				/* The queue is full - do we want to block or just leave without
2382:/home/rdu/Workspace/project_templates/mcu/stm32_ws/src/libraries/FreeRTOS/Source/queue.c **** 				posting? */
2383:/home/rdu/Workspace/project_templates/mcu/stm32_ws/src/libraries/FreeRTOS/Source/queue.c **** 				if( xTicksToWait > ( TickType_t ) 0 )
2384:/home/rdu/Workspace/project_templates/mcu/stm32_ws/src/libraries/FreeRTOS/Source/queue.c **** 				{
2385:/home/rdu/Workspace/project_templates/mcu/stm32_ws/src/libraries/FreeRTOS/Source/queue.c **** 					/* As this is called from a coroutine we cannot block directly, but
2386:/home/rdu/Workspace/project_templates/mcu/stm32_ws/src/libraries/FreeRTOS/Source/queue.c **** 					return indicating that we need to block. */
2387:/home/rdu/Workspace/project_templates/mcu/stm32_ws/src/libraries/FreeRTOS/Source/queue.c **** 					vCoRoutineAddToDelayedList( xTicksToWait, &( pxQueue->xTasksWaitingToSend ) );
2388:/home/rdu/Workspace/project_templates/mcu/stm32_ws/src/libraries/FreeRTOS/Source/queue.c **** 					portENABLE_INTERRUPTS();
2389:/home/rdu/Workspace/project_templates/mcu/stm32_ws/src/libraries/FreeRTOS/Source/queue.c **** 					return errQUEUE_BLOCKED;
2390:/home/rdu/Workspace/project_templates/mcu/stm32_ws/src/libraries/FreeRTOS/Source/queue.c **** 				}
2391:/home/rdu/Workspace/project_templates/mcu/stm32_ws/src/libraries/FreeRTOS/Source/queue.c **** 				else
2392:/home/rdu/Workspace/project_templates/mcu/stm32_ws/src/libraries/FreeRTOS/Source/queue.c **** 				{
2393:/home/rdu/Workspace/project_templates/mcu/stm32_ws/src/libraries/FreeRTOS/Source/queue.c **** 					portENABLE_INTERRUPTS();
2394:/home/rdu/Workspace/project_templates/mcu/stm32_ws/src/libraries/FreeRTOS/Source/queue.c **** 					return errQUEUE_FULL;
2395:/home/rdu/Workspace/project_templates/mcu/stm32_ws/src/libraries/FreeRTOS/Source/queue.c **** 				}
2396:/home/rdu/Workspace/project_templates/mcu/stm32_ws/src/libraries/FreeRTOS/Source/queue.c **** 			}
2397:/home/rdu/Workspace/project_templates/mcu/stm32_ws/src/libraries/FreeRTOS/Source/queue.c **** 		}
2398:/home/rdu/Workspace/project_templates/mcu/stm32_ws/src/libraries/FreeRTOS/Source/queue.c **** 		portENABLE_INTERRUPTS();
2399:/home/rdu/Workspace/project_templates/mcu/stm32_ws/src/libraries/FreeRTOS/Source/queue.c **** 
2400:/home/rdu/Workspace/project_templates/mcu/stm32_ws/src/libraries/FreeRTOS/Source/queue.c **** 		portDISABLE_INTERRUPTS();
2401:/home/rdu/Workspace/project_templates/mcu/stm32_ws/src/libraries/FreeRTOS/Source/queue.c **** 		{
2402:/home/rdu/Workspace/project_templates/mcu/stm32_ws/src/libraries/FreeRTOS/Source/queue.c **** 			if( pxQueue->uxMessagesWaiting < pxQueue->uxLength )
2403:/home/rdu/Workspace/project_templates/mcu/stm32_ws/src/libraries/FreeRTOS/Source/queue.c **** 			{
2404:/home/rdu/Workspace/project_templates/mcu/stm32_ws/src/libraries/FreeRTOS/Source/queue.c **** 				/* There is room in the queue, copy the data into the queue. */
2405:/home/rdu/Workspace/project_templates/mcu/stm32_ws/src/libraries/FreeRTOS/Source/queue.c **** 				prvCopyDataToQueue( pxQueue, pvItemToQueue, queueSEND_TO_BACK );
2406:/home/rdu/Workspace/project_templates/mcu/stm32_ws/src/libraries/FreeRTOS/Source/queue.c **** 				xReturn = pdPASS;
2407:/home/rdu/Workspace/project_templates/mcu/stm32_ws/src/libraries/FreeRTOS/Source/queue.c **** 
2408:/home/rdu/Workspace/project_templates/mcu/stm32_ws/src/libraries/FreeRTOS/Source/queue.c **** 				/* Were any co-routines waiting for data to become available? */
2409:/home/rdu/Workspace/project_templates/mcu/stm32_ws/src/libraries/FreeRTOS/Source/queue.c **** 				if( listLIST_IS_EMPTY( &( pxQueue->xTasksWaitingToReceive ) ) == pdFALSE )
2410:/home/rdu/Workspace/project_templates/mcu/stm32_ws/src/libraries/FreeRTOS/Source/queue.c **** 				{
2411:/home/rdu/Workspace/project_templates/mcu/stm32_ws/src/libraries/FreeRTOS/Source/queue.c **** 					/* In this instance the co-routine could be placed directly
2412:/home/rdu/Workspace/project_templates/mcu/stm32_ws/src/libraries/FreeRTOS/Source/queue.c **** 					into the ready list as we are within a critical section.
2413:/home/rdu/Workspace/project_templates/mcu/stm32_ws/src/libraries/FreeRTOS/Source/queue.c **** 					Instead the same pending ready list mechanism is used as if
2414:/home/rdu/Workspace/project_templates/mcu/stm32_ws/src/libraries/FreeRTOS/Source/queue.c **** 					the event were caused from within an interrupt. */
2415:/home/rdu/Workspace/project_templates/mcu/stm32_ws/src/libraries/FreeRTOS/Source/queue.c **** 					if( xCoRoutineRemoveFromEventList( &( pxQueue->xTasksWaitingToReceive ) ) != pdFALSE )
2416:/home/rdu/Workspace/project_templates/mcu/stm32_ws/src/libraries/FreeRTOS/Source/queue.c **** 					{
2417:/home/rdu/Workspace/project_templates/mcu/stm32_ws/src/libraries/FreeRTOS/Source/queue.c **** 						/* The co-routine waiting has a higher priority so record
2418:/home/rdu/Workspace/project_templates/mcu/stm32_ws/src/libraries/FreeRTOS/Source/queue.c **** 						that a yield might be appropriate. */
2419:/home/rdu/Workspace/project_templates/mcu/stm32_ws/src/libraries/FreeRTOS/Source/queue.c **** 						xReturn = errQUEUE_YIELD;
2420:/home/rdu/Workspace/project_templates/mcu/stm32_ws/src/libraries/FreeRTOS/Source/queue.c **** 					}
2421:/home/rdu/Workspace/project_templates/mcu/stm32_ws/src/libraries/FreeRTOS/Source/queue.c **** 					else
2422:/home/rdu/Workspace/project_templates/mcu/stm32_ws/src/libraries/FreeRTOS/Source/queue.c **** 					{
2423:/home/rdu/Workspace/project_templates/mcu/stm32_ws/src/libraries/FreeRTOS/Source/queue.c **** 						mtCOVERAGE_TEST_MARKER();
2424:/home/rdu/Workspace/project_templates/mcu/stm32_ws/src/libraries/FreeRTOS/Source/queue.c **** 					}
2425:/home/rdu/Workspace/project_templates/mcu/stm32_ws/src/libraries/FreeRTOS/Source/queue.c **** 				}
2426:/home/rdu/Workspace/project_templates/mcu/stm32_ws/src/libraries/FreeRTOS/Source/queue.c **** 				else
2427:/home/rdu/Workspace/project_templates/mcu/stm32_ws/src/libraries/FreeRTOS/Source/queue.c **** 				{
2428:/home/rdu/Workspace/project_templates/mcu/stm32_ws/src/libraries/FreeRTOS/Source/queue.c **** 					mtCOVERAGE_TEST_MARKER();
2429:/home/rdu/Workspace/project_templates/mcu/stm32_ws/src/libraries/FreeRTOS/Source/queue.c **** 				}
2430:/home/rdu/Workspace/project_templates/mcu/stm32_ws/src/libraries/FreeRTOS/Source/queue.c **** 			}
2431:/home/rdu/Workspace/project_templates/mcu/stm32_ws/src/libraries/FreeRTOS/Source/queue.c **** 			else
2432:/home/rdu/Workspace/project_templates/mcu/stm32_ws/src/libraries/FreeRTOS/Source/queue.c **** 			{
2433:/home/rdu/Workspace/project_templates/mcu/stm32_ws/src/libraries/FreeRTOS/Source/queue.c **** 				xReturn = errQUEUE_FULL;
2434:/home/rdu/Workspace/project_templates/mcu/stm32_ws/src/libraries/FreeRTOS/Source/queue.c **** 			}
2435:/home/rdu/Workspace/project_templates/mcu/stm32_ws/src/libraries/FreeRTOS/Source/queue.c **** 		}
2436:/home/rdu/Workspace/project_templates/mcu/stm32_ws/src/libraries/FreeRTOS/Source/queue.c **** 		portENABLE_INTERRUPTS();
2437:/home/rdu/Workspace/project_templates/mcu/stm32_ws/src/libraries/FreeRTOS/Source/queue.c **** 
2438:/home/rdu/Workspace/project_templates/mcu/stm32_ws/src/libraries/FreeRTOS/Source/queue.c **** 		return xReturn;
2439:/home/rdu/Workspace/project_templates/mcu/stm32_ws/src/libraries/FreeRTOS/Source/queue.c **** 	}
2440:/home/rdu/Workspace/project_templates/mcu/stm32_ws/src/libraries/FreeRTOS/Source/queue.c **** 
2441:/home/rdu/Workspace/project_templates/mcu/stm32_ws/src/libraries/FreeRTOS/Source/queue.c **** #endif /* configUSE_CO_ROUTINES */
2442:/home/rdu/Workspace/project_templates/mcu/stm32_ws/src/libraries/FreeRTOS/Source/queue.c **** /*-----------------------------------------------------------*/
2443:/home/rdu/Workspace/project_templates/mcu/stm32_ws/src/libraries/FreeRTOS/Source/queue.c **** 
2444:/home/rdu/Workspace/project_templates/mcu/stm32_ws/src/libraries/FreeRTOS/Source/queue.c **** #if ( configUSE_CO_ROUTINES == 1 )
2445:/home/rdu/Workspace/project_templates/mcu/stm32_ws/src/libraries/FreeRTOS/Source/queue.c **** 
2446:/home/rdu/Workspace/project_templates/mcu/stm32_ws/src/libraries/FreeRTOS/Source/queue.c **** 	BaseType_t xQueueCRReceive( QueueHandle_t xQueue, void *pvBuffer, TickType_t xTicksToWait )
2447:/home/rdu/Workspace/project_templates/mcu/stm32_ws/src/libraries/FreeRTOS/Source/queue.c **** 	{
2448:/home/rdu/Workspace/project_templates/mcu/stm32_ws/src/libraries/FreeRTOS/Source/queue.c **** 	BaseType_t xReturn;
2449:/home/rdu/Workspace/project_templates/mcu/stm32_ws/src/libraries/FreeRTOS/Source/queue.c **** 	Queue_t * const pxQueue = xQueue;
2450:/home/rdu/Workspace/project_templates/mcu/stm32_ws/src/libraries/FreeRTOS/Source/queue.c **** 
2451:/home/rdu/Workspace/project_templates/mcu/stm32_ws/src/libraries/FreeRTOS/Source/queue.c **** 		/* If the queue is already empty we may have to block.  A critical section
2452:/home/rdu/Workspace/project_templates/mcu/stm32_ws/src/libraries/FreeRTOS/Source/queue.c **** 		is required to prevent an interrupt adding something to the queue
2453:/home/rdu/Workspace/project_templates/mcu/stm32_ws/src/libraries/FreeRTOS/Source/queue.c **** 		between the check to see if the queue is empty and blocking on the queue. */
2454:/home/rdu/Workspace/project_templates/mcu/stm32_ws/src/libraries/FreeRTOS/Source/queue.c **** 		portDISABLE_INTERRUPTS();
2455:/home/rdu/Workspace/project_templates/mcu/stm32_ws/src/libraries/FreeRTOS/Source/queue.c **** 		{
2456:/home/rdu/Workspace/project_templates/mcu/stm32_ws/src/libraries/FreeRTOS/Source/queue.c **** 			if( pxQueue->uxMessagesWaiting == ( UBaseType_t ) 0 )
2457:/home/rdu/Workspace/project_templates/mcu/stm32_ws/src/libraries/FreeRTOS/Source/queue.c **** 			{
2458:/home/rdu/Workspace/project_templates/mcu/stm32_ws/src/libraries/FreeRTOS/Source/queue.c **** 				/* There are no messages in the queue, do we want to block or just
2459:/home/rdu/Workspace/project_templates/mcu/stm32_ws/src/libraries/FreeRTOS/Source/queue.c **** 				leave with nothing? */
2460:/home/rdu/Workspace/project_templates/mcu/stm32_ws/src/libraries/FreeRTOS/Source/queue.c **** 				if( xTicksToWait > ( TickType_t ) 0 )
2461:/home/rdu/Workspace/project_templates/mcu/stm32_ws/src/libraries/FreeRTOS/Source/queue.c **** 				{
2462:/home/rdu/Workspace/project_templates/mcu/stm32_ws/src/libraries/FreeRTOS/Source/queue.c **** 					/* As this is a co-routine we cannot block directly, but return
2463:/home/rdu/Workspace/project_templates/mcu/stm32_ws/src/libraries/FreeRTOS/Source/queue.c **** 					indicating that we need to block. */
2464:/home/rdu/Workspace/project_templates/mcu/stm32_ws/src/libraries/FreeRTOS/Source/queue.c **** 					vCoRoutineAddToDelayedList( xTicksToWait, &( pxQueue->xTasksWaitingToReceive ) );
2465:/home/rdu/Workspace/project_templates/mcu/stm32_ws/src/libraries/FreeRTOS/Source/queue.c **** 					portENABLE_INTERRUPTS();
2466:/home/rdu/Workspace/project_templates/mcu/stm32_ws/src/libraries/FreeRTOS/Source/queue.c **** 					return errQUEUE_BLOCKED;
2467:/home/rdu/Workspace/project_templates/mcu/stm32_ws/src/libraries/FreeRTOS/Source/queue.c **** 				}
2468:/home/rdu/Workspace/project_templates/mcu/stm32_ws/src/libraries/FreeRTOS/Source/queue.c **** 				else
2469:/home/rdu/Workspace/project_templates/mcu/stm32_ws/src/libraries/FreeRTOS/Source/queue.c **** 				{
2470:/home/rdu/Workspace/project_templates/mcu/stm32_ws/src/libraries/FreeRTOS/Source/queue.c **** 					portENABLE_INTERRUPTS();
2471:/home/rdu/Workspace/project_templates/mcu/stm32_ws/src/libraries/FreeRTOS/Source/queue.c **** 					return errQUEUE_FULL;
2472:/home/rdu/Workspace/project_templates/mcu/stm32_ws/src/libraries/FreeRTOS/Source/queue.c **** 				}
2473:/home/rdu/Workspace/project_templates/mcu/stm32_ws/src/libraries/FreeRTOS/Source/queue.c **** 			}
2474:/home/rdu/Workspace/project_templates/mcu/stm32_ws/src/libraries/FreeRTOS/Source/queue.c **** 			else
2475:/home/rdu/Workspace/project_templates/mcu/stm32_ws/src/libraries/FreeRTOS/Source/queue.c **** 			{
2476:/home/rdu/Workspace/project_templates/mcu/stm32_ws/src/libraries/FreeRTOS/Source/queue.c **** 				mtCOVERAGE_TEST_MARKER();
2477:/home/rdu/Workspace/project_templates/mcu/stm32_ws/src/libraries/FreeRTOS/Source/queue.c **** 			}
2478:/home/rdu/Workspace/project_templates/mcu/stm32_ws/src/libraries/FreeRTOS/Source/queue.c **** 		}
2479:/home/rdu/Workspace/project_templates/mcu/stm32_ws/src/libraries/FreeRTOS/Source/queue.c **** 		portENABLE_INTERRUPTS();
2480:/home/rdu/Workspace/project_templates/mcu/stm32_ws/src/libraries/FreeRTOS/Source/queue.c **** 
2481:/home/rdu/Workspace/project_templates/mcu/stm32_ws/src/libraries/FreeRTOS/Source/queue.c **** 		portDISABLE_INTERRUPTS();
2482:/home/rdu/Workspace/project_templates/mcu/stm32_ws/src/libraries/FreeRTOS/Source/queue.c **** 		{
2483:/home/rdu/Workspace/project_templates/mcu/stm32_ws/src/libraries/FreeRTOS/Source/queue.c **** 			if( pxQueue->uxMessagesWaiting > ( UBaseType_t ) 0 )
2484:/home/rdu/Workspace/project_templates/mcu/stm32_ws/src/libraries/FreeRTOS/Source/queue.c **** 			{
2485:/home/rdu/Workspace/project_templates/mcu/stm32_ws/src/libraries/FreeRTOS/Source/queue.c **** 				/* Data is available from the queue. */
2486:/home/rdu/Workspace/project_templates/mcu/stm32_ws/src/libraries/FreeRTOS/Source/queue.c **** 				pxQueue->u.xQueue.pcReadFrom += pxQueue->uxItemSize;
2487:/home/rdu/Workspace/project_templates/mcu/stm32_ws/src/libraries/FreeRTOS/Source/queue.c **** 				if( pxQueue->u.xQueue.pcReadFrom >= pxQueue->u.xQueue.pcTail )
2488:/home/rdu/Workspace/project_templates/mcu/stm32_ws/src/libraries/FreeRTOS/Source/queue.c **** 				{
2489:/home/rdu/Workspace/project_templates/mcu/stm32_ws/src/libraries/FreeRTOS/Source/queue.c **** 					pxQueue->u.xQueue.pcReadFrom = pxQueue->pcHead;
2490:/home/rdu/Workspace/project_templates/mcu/stm32_ws/src/libraries/FreeRTOS/Source/queue.c **** 				}
2491:/home/rdu/Workspace/project_templates/mcu/stm32_ws/src/libraries/FreeRTOS/Source/queue.c **** 				else
2492:/home/rdu/Workspace/project_templates/mcu/stm32_ws/src/libraries/FreeRTOS/Source/queue.c **** 				{
2493:/home/rdu/Workspace/project_templates/mcu/stm32_ws/src/libraries/FreeRTOS/Source/queue.c **** 					mtCOVERAGE_TEST_MARKER();
2494:/home/rdu/Workspace/project_templates/mcu/stm32_ws/src/libraries/FreeRTOS/Source/queue.c **** 				}
2495:/home/rdu/Workspace/project_templates/mcu/stm32_ws/src/libraries/FreeRTOS/Source/queue.c **** 				--( pxQueue->uxMessagesWaiting );
2496:/home/rdu/Workspace/project_templates/mcu/stm32_ws/src/libraries/FreeRTOS/Source/queue.c **** 				( void ) memcpy( ( void * ) pvBuffer, ( void * ) pxQueue->u.xQueue.pcReadFrom, ( unsigned ) pxQ
2497:/home/rdu/Workspace/project_templates/mcu/stm32_ws/src/libraries/FreeRTOS/Source/queue.c **** 
2498:/home/rdu/Workspace/project_templates/mcu/stm32_ws/src/libraries/FreeRTOS/Source/queue.c **** 				xReturn = pdPASS;
2499:/home/rdu/Workspace/project_templates/mcu/stm32_ws/src/libraries/FreeRTOS/Source/queue.c **** 
2500:/home/rdu/Workspace/project_templates/mcu/stm32_ws/src/libraries/FreeRTOS/Source/queue.c **** 				/* Were any co-routines waiting for space to become available? */
2501:/home/rdu/Workspace/project_templates/mcu/stm32_ws/src/libraries/FreeRTOS/Source/queue.c **** 				if( listLIST_IS_EMPTY( &( pxQueue->xTasksWaitingToSend ) ) == pdFALSE )
2502:/home/rdu/Workspace/project_templates/mcu/stm32_ws/src/libraries/FreeRTOS/Source/queue.c **** 				{
2503:/home/rdu/Workspace/project_templates/mcu/stm32_ws/src/libraries/FreeRTOS/Source/queue.c **** 					/* In this instance the co-routine could be placed directly
2504:/home/rdu/Workspace/project_templates/mcu/stm32_ws/src/libraries/FreeRTOS/Source/queue.c **** 					into the ready list as we are within a critical section.
2505:/home/rdu/Workspace/project_templates/mcu/stm32_ws/src/libraries/FreeRTOS/Source/queue.c **** 					Instead the same pending ready list mechanism is used as if
2506:/home/rdu/Workspace/project_templates/mcu/stm32_ws/src/libraries/FreeRTOS/Source/queue.c **** 					the event were caused from within an interrupt. */
2507:/home/rdu/Workspace/project_templates/mcu/stm32_ws/src/libraries/FreeRTOS/Source/queue.c **** 					if( xCoRoutineRemoveFromEventList( &( pxQueue->xTasksWaitingToSend ) ) != pdFALSE )
2508:/home/rdu/Workspace/project_templates/mcu/stm32_ws/src/libraries/FreeRTOS/Source/queue.c **** 					{
2509:/home/rdu/Workspace/project_templates/mcu/stm32_ws/src/libraries/FreeRTOS/Source/queue.c **** 						xReturn = errQUEUE_YIELD;
2510:/home/rdu/Workspace/project_templates/mcu/stm32_ws/src/libraries/FreeRTOS/Source/queue.c **** 					}
2511:/home/rdu/Workspace/project_templates/mcu/stm32_ws/src/libraries/FreeRTOS/Source/queue.c **** 					else
2512:/home/rdu/Workspace/project_templates/mcu/stm32_ws/src/libraries/FreeRTOS/Source/queue.c **** 					{
2513:/home/rdu/Workspace/project_templates/mcu/stm32_ws/src/libraries/FreeRTOS/Source/queue.c **** 						mtCOVERAGE_TEST_MARKER();
2514:/home/rdu/Workspace/project_templates/mcu/stm32_ws/src/libraries/FreeRTOS/Source/queue.c **** 					}
2515:/home/rdu/Workspace/project_templates/mcu/stm32_ws/src/libraries/FreeRTOS/Source/queue.c **** 				}
2516:/home/rdu/Workspace/project_templates/mcu/stm32_ws/src/libraries/FreeRTOS/Source/queue.c **** 				else
2517:/home/rdu/Workspace/project_templates/mcu/stm32_ws/src/libraries/FreeRTOS/Source/queue.c **** 				{
2518:/home/rdu/Workspace/project_templates/mcu/stm32_ws/src/libraries/FreeRTOS/Source/queue.c **** 					mtCOVERAGE_TEST_MARKER();
2519:/home/rdu/Workspace/project_templates/mcu/stm32_ws/src/libraries/FreeRTOS/Source/queue.c **** 				}
2520:/home/rdu/Workspace/project_templates/mcu/stm32_ws/src/libraries/FreeRTOS/Source/queue.c **** 			}
2521:/home/rdu/Workspace/project_templates/mcu/stm32_ws/src/libraries/FreeRTOS/Source/queue.c **** 			else
2522:/home/rdu/Workspace/project_templates/mcu/stm32_ws/src/libraries/FreeRTOS/Source/queue.c **** 			{
2523:/home/rdu/Workspace/project_templates/mcu/stm32_ws/src/libraries/FreeRTOS/Source/queue.c **** 				xReturn = pdFAIL;
2524:/home/rdu/Workspace/project_templates/mcu/stm32_ws/src/libraries/FreeRTOS/Source/queue.c **** 			}
2525:/home/rdu/Workspace/project_templates/mcu/stm32_ws/src/libraries/FreeRTOS/Source/queue.c **** 		}
2526:/home/rdu/Workspace/project_templates/mcu/stm32_ws/src/libraries/FreeRTOS/Source/queue.c **** 		portENABLE_INTERRUPTS();
2527:/home/rdu/Workspace/project_templates/mcu/stm32_ws/src/libraries/FreeRTOS/Source/queue.c **** 
2528:/home/rdu/Workspace/project_templates/mcu/stm32_ws/src/libraries/FreeRTOS/Source/queue.c **** 		return xReturn;
2529:/home/rdu/Workspace/project_templates/mcu/stm32_ws/src/libraries/FreeRTOS/Source/queue.c **** 	}
2530:/home/rdu/Workspace/project_templates/mcu/stm32_ws/src/libraries/FreeRTOS/Source/queue.c **** 
2531:/home/rdu/Workspace/project_templates/mcu/stm32_ws/src/libraries/FreeRTOS/Source/queue.c **** #endif /* configUSE_CO_ROUTINES */
2532:/home/rdu/Workspace/project_templates/mcu/stm32_ws/src/libraries/FreeRTOS/Source/queue.c **** /*-----------------------------------------------------------*/
2533:/home/rdu/Workspace/project_templates/mcu/stm32_ws/src/libraries/FreeRTOS/Source/queue.c **** 
2534:/home/rdu/Workspace/project_templates/mcu/stm32_ws/src/libraries/FreeRTOS/Source/queue.c **** #if ( configUSE_CO_ROUTINES == 1 )
2535:/home/rdu/Workspace/project_templates/mcu/stm32_ws/src/libraries/FreeRTOS/Source/queue.c **** 
2536:/home/rdu/Workspace/project_templates/mcu/stm32_ws/src/libraries/FreeRTOS/Source/queue.c **** 	BaseType_t xQueueCRSendFromISR( QueueHandle_t xQueue, const void *pvItemToQueue, BaseType_t xCoRou
2537:/home/rdu/Workspace/project_templates/mcu/stm32_ws/src/libraries/FreeRTOS/Source/queue.c **** 	{
2538:/home/rdu/Workspace/project_templates/mcu/stm32_ws/src/libraries/FreeRTOS/Source/queue.c **** 	Queue_t * const pxQueue = xQueue;
2539:/home/rdu/Workspace/project_templates/mcu/stm32_ws/src/libraries/FreeRTOS/Source/queue.c **** 
2540:/home/rdu/Workspace/project_templates/mcu/stm32_ws/src/libraries/FreeRTOS/Source/queue.c **** 		/* Cannot block within an ISR so if there is no space on the queue then
2541:/home/rdu/Workspace/project_templates/mcu/stm32_ws/src/libraries/FreeRTOS/Source/queue.c **** 		exit without doing anything. */
2542:/home/rdu/Workspace/project_templates/mcu/stm32_ws/src/libraries/FreeRTOS/Source/queue.c **** 		if( pxQueue->uxMessagesWaiting < pxQueue->uxLength )
2543:/home/rdu/Workspace/project_templates/mcu/stm32_ws/src/libraries/FreeRTOS/Source/queue.c **** 		{
2544:/home/rdu/Workspace/project_templates/mcu/stm32_ws/src/libraries/FreeRTOS/Source/queue.c **** 			prvCopyDataToQueue( pxQueue, pvItemToQueue, queueSEND_TO_BACK );
2545:/home/rdu/Workspace/project_templates/mcu/stm32_ws/src/libraries/FreeRTOS/Source/queue.c **** 
2546:/home/rdu/Workspace/project_templates/mcu/stm32_ws/src/libraries/FreeRTOS/Source/queue.c **** 			/* We only want to wake one co-routine per ISR, so check that a
2547:/home/rdu/Workspace/project_templates/mcu/stm32_ws/src/libraries/FreeRTOS/Source/queue.c **** 			co-routine has not already been woken. */
2548:/home/rdu/Workspace/project_templates/mcu/stm32_ws/src/libraries/FreeRTOS/Source/queue.c **** 			if( xCoRoutinePreviouslyWoken == pdFALSE )
2549:/home/rdu/Workspace/project_templates/mcu/stm32_ws/src/libraries/FreeRTOS/Source/queue.c **** 			{
2550:/home/rdu/Workspace/project_templates/mcu/stm32_ws/src/libraries/FreeRTOS/Source/queue.c **** 				if( listLIST_IS_EMPTY( &( pxQueue->xTasksWaitingToReceive ) ) == pdFALSE )
2551:/home/rdu/Workspace/project_templates/mcu/stm32_ws/src/libraries/FreeRTOS/Source/queue.c **** 				{
2552:/home/rdu/Workspace/project_templates/mcu/stm32_ws/src/libraries/FreeRTOS/Source/queue.c **** 					if( xCoRoutineRemoveFromEventList( &( pxQueue->xTasksWaitingToReceive ) ) != pdFALSE )
2553:/home/rdu/Workspace/project_templates/mcu/stm32_ws/src/libraries/FreeRTOS/Source/queue.c **** 					{
2554:/home/rdu/Workspace/project_templates/mcu/stm32_ws/src/libraries/FreeRTOS/Source/queue.c **** 						return pdTRUE;
2555:/home/rdu/Workspace/project_templates/mcu/stm32_ws/src/libraries/FreeRTOS/Source/queue.c **** 					}
2556:/home/rdu/Workspace/project_templates/mcu/stm32_ws/src/libraries/FreeRTOS/Source/queue.c **** 					else
2557:/home/rdu/Workspace/project_templates/mcu/stm32_ws/src/libraries/FreeRTOS/Source/queue.c **** 					{
2558:/home/rdu/Workspace/project_templates/mcu/stm32_ws/src/libraries/FreeRTOS/Source/queue.c **** 						mtCOVERAGE_TEST_MARKER();
2559:/home/rdu/Workspace/project_templates/mcu/stm32_ws/src/libraries/FreeRTOS/Source/queue.c **** 					}
2560:/home/rdu/Workspace/project_templates/mcu/stm32_ws/src/libraries/FreeRTOS/Source/queue.c **** 				}
2561:/home/rdu/Workspace/project_templates/mcu/stm32_ws/src/libraries/FreeRTOS/Source/queue.c **** 				else
2562:/home/rdu/Workspace/project_templates/mcu/stm32_ws/src/libraries/FreeRTOS/Source/queue.c **** 				{
2563:/home/rdu/Workspace/project_templates/mcu/stm32_ws/src/libraries/FreeRTOS/Source/queue.c **** 					mtCOVERAGE_TEST_MARKER();
2564:/home/rdu/Workspace/project_templates/mcu/stm32_ws/src/libraries/FreeRTOS/Source/queue.c **** 				}
2565:/home/rdu/Workspace/project_templates/mcu/stm32_ws/src/libraries/FreeRTOS/Source/queue.c **** 			}
2566:/home/rdu/Workspace/project_templates/mcu/stm32_ws/src/libraries/FreeRTOS/Source/queue.c **** 			else
2567:/home/rdu/Workspace/project_templates/mcu/stm32_ws/src/libraries/FreeRTOS/Source/queue.c **** 			{
2568:/home/rdu/Workspace/project_templates/mcu/stm32_ws/src/libraries/FreeRTOS/Source/queue.c **** 				mtCOVERAGE_TEST_MARKER();
2569:/home/rdu/Workspace/project_templates/mcu/stm32_ws/src/libraries/FreeRTOS/Source/queue.c **** 			}
2570:/home/rdu/Workspace/project_templates/mcu/stm32_ws/src/libraries/FreeRTOS/Source/queue.c **** 		}
2571:/home/rdu/Workspace/project_templates/mcu/stm32_ws/src/libraries/FreeRTOS/Source/queue.c **** 		else
2572:/home/rdu/Workspace/project_templates/mcu/stm32_ws/src/libraries/FreeRTOS/Source/queue.c **** 		{
2573:/home/rdu/Workspace/project_templates/mcu/stm32_ws/src/libraries/FreeRTOS/Source/queue.c **** 			mtCOVERAGE_TEST_MARKER();
2574:/home/rdu/Workspace/project_templates/mcu/stm32_ws/src/libraries/FreeRTOS/Source/queue.c **** 		}
2575:/home/rdu/Workspace/project_templates/mcu/stm32_ws/src/libraries/FreeRTOS/Source/queue.c **** 
2576:/home/rdu/Workspace/project_templates/mcu/stm32_ws/src/libraries/FreeRTOS/Source/queue.c **** 		return xCoRoutinePreviouslyWoken;
2577:/home/rdu/Workspace/project_templates/mcu/stm32_ws/src/libraries/FreeRTOS/Source/queue.c **** 	}
2578:/home/rdu/Workspace/project_templates/mcu/stm32_ws/src/libraries/FreeRTOS/Source/queue.c **** 
2579:/home/rdu/Workspace/project_templates/mcu/stm32_ws/src/libraries/FreeRTOS/Source/queue.c **** #endif /* configUSE_CO_ROUTINES */
2580:/home/rdu/Workspace/project_templates/mcu/stm32_ws/src/libraries/FreeRTOS/Source/queue.c **** /*-----------------------------------------------------------*/
2581:/home/rdu/Workspace/project_templates/mcu/stm32_ws/src/libraries/FreeRTOS/Source/queue.c **** 
2582:/home/rdu/Workspace/project_templates/mcu/stm32_ws/src/libraries/FreeRTOS/Source/queue.c **** #if ( configUSE_CO_ROUTINES == 1 )
2583:/home/rdu/Workspace/project_templates/mcu/stm32_ws/src/libraries/FreeRTOS/Source/queue.c **** 
2584:/home/rdu/Workspace/project_templates/mcu/stm32_ws/src/libraries/FreeRTOS/Source/queue.c **** 	BaseType_t xQueueCRReceiveFromISR( QueueHandle_t xQueue, void *pvBuffer, BaseType_t *pxCoRoutineWo
2585:/home/rdu/Workspace/project_templates/mcu/stm32_ws/src/libraries/FreeRTOS/Source/queue.c **** 	{
2586:/home/rdu/Workspace/project_templates/mcu/stm32_ws/src/libraries/FreeRTOS/Source/queue.c **** 	BaseType_t xReturn;
2587:/home/rdu/Workspace/project_templates/mcu/stm32_ws/src/libraries/FreeRTOS/Source/queue.c **** 	Queue_t * const pxQueue = xQueue;
2588:/home/rdu/Workspace/project_templates/mcu/stm32_ws/src/libraries/FreeRTOS/Source/queue.c **** 
2589:/home/rdu/Workspace/project_templates/mcu/stm32_ws/src/libraries/FreeRTOS/Source/queue.c **** 		/* We cannot block from an ISR, so check there is data available. If
2590:/home/rdu/Workspace/project_templates/mcu/stm32_ws/src/libraries/FreeRTOS/Source/queue.c **** 		not then just leave without doing anything. */
2591:/home/rdu/Workspace/project_templates/mcu/stm32_ws/src/libraries/FreeRTOS/Source/queue.c **** 		if( pxQueue->uxMessagesWaiting > ( UBaseType_t ) 0 )
2592:/home/rdu/Workspace/project_templates/mcu/stm32_ws/src/libraries/FreeRTOS/Source/queue.c **** 		{
2593:/home/rdu/Workspace/project_templates/mcu/stm32_ws/src/libraries/FreeRTOS/Source/queue.c **** 			/* Copy the data from the queue. */
2594:/home/rdu/Workspace/project_templates/mcu/stm32_ws/src/libraries/FreeRTOS/Source/queue.c **** 			pxQueue->u.xQueue.pcReadFrom += pxQueue->uxItemSize;
2595:/home/rdu/Workspace/project_templates/mcu/stm32_ws/src/libraries/FreeRTOS/Source/queue.c **** 			if( pxQueue->u.xQueue.pcReadFrom >= pxQueue->u.xQueue.pcTail )
2596:/home/rdu/Workspace/project_templates/mcu/stm32_ws/src/libraries/FreeRTOS/Source/queue.c **** 			{
2597:/home/rdu/Workspace/project_templates/mcu/stm32_ws/src/libraries/FreeRTOS/Source/queue.c **** 				pxQueue->u.xQueue.pcReadFrom = pxQueue->pcHead;
2598:/home/rdu/Workspace/project_templates/mcu/stm32_ws/src/libraries/FreeRTOS/Source/queue.c **** 			}
2599:/home/rdu/Workspace/project_templates/mcu/stm32_ws/src/libraries/FreeRTOS/Source/queue.c **** 			else
2600:/home/rdu/Workspace/project_templates/mcu/stm32_ws/src/libraries/FreeRTOS/Source/queue.c **** 			{
2601:/home/rdu/Workspace/project_templates/mcu/stm32_ws/src/libraries/FreeRTOS/Source/queue.c **** 				mtCOVERAGE_TEST_MARKER();
2602:/home/rdu/Workspace/project_templates/mcu/stm32_ws/src/libraries/FreeRTOS/Source/queue.c **** 			}
2603:/home/rdu/Workspace/project_templates/mcu/stm32_ws/src/libraries/FreeRTOS/Source/queue.c **** 			--( pxQueue->uxMessagesWaiting );
2604:/home/rdu/Workspace/project_templates/mcu/stm32_ws/src/libraries/FreeRTOS/Source/queue.c **** 			( void ) memcpy( ( void * ) pvBuffer, ( void * ) pxQueue->u.xQueue.pcReadFrom, ( unsigned ) pxQu
2605:/home/rdu/Workspace/project_templates/mcu/stm32_ws/src/libraries/FreeRTOS/Source/queue.c **** 
2606:/home/rdu/Workspace/project_templates/mcu/stm32_ws/src/libraries/FreeRTOS/Source/queue.c **** 			if( ( *pxCoRoutineWoken ) == pdFALSE )
2607:/home/rdu/Workspace/project_templates/mcu/stm32_ws/src/libraries/FreeRTOS/Source/queue.c **** 			{
2608:/home/rdu/Workspace/project_templates/mcu/stm32_ws/src/libraries/FreeRTOS/Source/queue.c **** 				if( listLIST_IS_EMPTY( &( pxQueue->xTasksWaitingToSend ) ) == pdFALSE )
2609:/home/rdu/Workspace/project_templates/mcu/stm32_ws/src/libraries/FreeRTOS/Source/queue.c **** 				{
2610:/home/rdu/Workspace/project_templates/mcu/stm32_ws/src/libraries/FreeRTOS/Source/queue.c **** 					if( xCoRoutineRemoveFromEventList( &( pxQueue->xTasksWaitingToSend ) ) != pdFALSE )
2611:/home/rdu/Workspace/project_templates/mcu/stm32_ws/src/libraries/FreeRTOS/Source/queue.c **** 					{
2612:/home/rdu/Workspace/project_templates/mcu/stm32_ws/src/libraries/FreeRTOS/Source/queue.c **** 						*pxCoRoutineWoken = pdTRUE;
2613:/home/rdu/Workspace/project_templates/mcu/stm32_ws/src/libraries/FreeRTOS/Source/queue.c **** 					}
2614:/home/rdu/Workspace/project_templates/mcu/stm32_ws/src/libraries/FreeRTOS/Source/queue.c **** 					else
2615:/home/rdu/Workspace/project_templates/mcu/stm32_ws/src/libraries/FreeRTOS/Source/queue.c **** 					{
2616:/home/rdu/Workspace/project_templates/mcu/stm32_ws/src/libraries/FreeRTOS/Source/queue.c **** 						mtCOVERAGE_TEST_MARKER();
2617:/home/rdu/Workspace/project_templates/mcu/stm32_ws/src/libraries/FreeRTOS/Source/queue.c **** 					}
2618:/home/rdu/Workspace/project_templates/mcu/stm32_ws/src/libraries/FreeRTOS/Source/queue.c **** 				}
2619:/home/rdu/Workspace/project_templates/mcu/stm32_ws/src/libraries/FreeRTOS/Source/queue.c **** 				else
2620:/home/rdu/Workspace/project_templates/mcu/stm32_ws/src/libraries/FreeRTOS/Source/queue.c **** 				{
2621:/home/rdu/Workspace/project_templates/mcu/stm32_ws/src/libraries/FreeRTOS/Source/queue.c **** 					mtCOVERAGE_TEST_MARKER();
2622:/home/rdu/Workspace/project_templates/mcu/stm32_ws/src/libraries/FreeRTOS/Source/queue.c **** 				}
2623:/home/rdu/Workspace/project_templates/mcu/stm32_ws/src/libraries/FreeRTOS/Source/queue.c **** 			}
2624:/home/rdu/Workspace/project_templates/mcu/stm32_ws/src/libraries/FreeRTOS/Source/queue.c **** 			else
2625:/home/rdu/Workspace/project_templates/mcu/stm32_ws/src/libraries/FreeRTOS/Source/queue.c **** 			{
2626:/home/rdu/Workspace/project_templates/mcu/stm32_ws/src/libraries/FreeRTOS/Source/queue.c **** 				mtCOVERAGE_TEST_MARKER();
2627:/home/rdu/Workspace/project_templates/mcu/stm32_ws/src/libraries/FreeRTOS/Source/queue.c **** 			}
2628:/home/rdu/Workspace/project_templates/mcu/stm32_ws/src/libraries/FreeRTOS/Source/queue.c **** 
2629:/home/rdu/Workspace/project_templates/mcu/stm32_ws/src/libraries/FreeRTOS/Source/queue.c **** 			xReturn = pdPASS;
2630:/home/rdu/Workspace/project_templates/mcu/stm32_ws/src/libraries/FreeRTOS/Source/queue.c **** 		}
2631:/home/rdu/Workspace/project_templates/mcu/stm32_ws/src/libraries/FreeRTOS/Source/queue.c **** 		else
2632:/home/rdu/Workspace/project_templates/mcu/stm32_ws/src/libraries/FreeRTOS/Source/queue.c **** 		{
2633:/home/rdu/Workspace/project_templates/mcu/stm32_ws/src/libraries/FreeRTOS/Source/queue.c **** 			xReturn = pdFAIL;
2634:/home/rdu/Workspace/project_templates/mcu/stm32_ws/src/libraries/FreeRTOS/Source/queue.c **** 		}
2635:/home/rdu/Workspace/project_templates/mcu/stm32_ws/src/libraries/FreeRTOS/Source/queue.c **** 
2636:/home/rdu/Workspace/project_templates/mcu/stm32_ws/src/libraries/FreeRTOS/Source/queue.c **** 		return xReturn;
2637:/home/rdu/Workspace/project_templates/mcu/stm32_ws/src/libraries/FreeRTOS/Source/queue.c **** 	}
2638:/home/rdu/Workspace/project_templates/mcu/stm32_ws/src/libraries/FreeRTOS/Source/queue.c **** 
2639:/home/rdu/Workspace/project_templates/mcu/stm32_ws/src/libraries/FreeRTOS/Source/queue.c **** #endif /* configUSE_CO_ROUTINES */
2640:/home/rdu/Workspace/project_templates/mcu/stm32_ws/src/libraries/FreeRTOS/Source/queue.c **** /*-----------------------------------------------------------*/
2641:/home/rdu/Workspace/project_templates/mcu/stm32_ws/src/libraries/FreeRTOS/Source/queue.c **** 
2642:/home/rdu/Workspace/project_templates/mcu/stm32_ws/src/libraries/FreeRTOS/Source/queue.c **** #if ( configQUEUE_REGISTRY_SIZE > 0 )
2643:/home/rdu/Workspace/project_templates/mcu/stm32_ws/src/libraries/FreeRTOS/Source/queue.c **** 
2644:/home/rdu/Workspace/project_templates/mcu/stm32_ws/src/libraries/FreeRTOS/Source/queue.c **** 	void vQueueAddToRegistry( QueueHandle_t xQueue, const char *pcQueueName ) /*lint !e971 Unqualified
2645:/home/rdu/Workspace/project_templates/mcu/stm32_ws/src/libraries/FreeRTOS/Source/queue.c **** 	{
 4020              		.loc 1 2645 0
 4021              		.cfi_startproc
 4022              		@ args = 0, pretend = 0, frame = 16
 4023              		@ frame_needed = 0, uses_anonymous_args = 0
 4024              		@ link register save eliminated.
 4025 0000 84B0     		sub	sp, sp, #16
 4026              	.LCFI86:
 4027              		.cfi_def_cfa_offset 16
 4028 0002 0190     		str	r0, [sp, #4]
 4029 0004 0091     		str	r1, [sp]
2646:/home/rdu/Workspace/project_templates/mcu/stm32_ws/src/libraries/FreeRTOS/Source/queue.c **** 	UBaseType_t ux;
2647:/home/rdu/Workspace/project_templates/mcu/stm32_ws/src/libraries/FreeRTOS/Source/queue.c **** 
2648:/home/rdu/Workspace/project_templates/mcu/stm32_ws/src/libraries/FreeRTOS/Source/queue.c **** 		/* See if there is an empty space in the registry.  A NULL name denotes
2649:/home/rdu/Workspace/project_templates/mcu/stm32_ws/src/libraries/FreeRTOS/Source/queue.c **** 		a free slot. */
2650:/home/rdu/Workspace/project_templates/mcu/stm32_ws/src/libraries/FreeRTOS/Source/queue.c **** 		for( ux = ( UBaseType_t ) 0U; ux < ( UBaseType_t ) configQUEUE_REGISTRY_SIZE; ux++ )
 4030              		.loc 1 2650 0
 4031 0006 0023     		movs	r3, #0
 4032 0008 0393     		str	r3, [sp, #12]
 4033 000a 14E0     		b	.L294
 4034              	.L297:
2651:/home/rdu/Workspace/project_templates/mcu/stm32_ws/src/libraries/FreeRTOS/Source/queue.c **** 		{
2652:/home/rdu/Workspace/project_templates/mcu/stm32_ws/src/libraries/FreeRTOS/Source/queue.c **** 			if( xQueueRegistry[ ux ].pcQueueName == NULL )
 4035              		.loc 1 2652 0
 4036 000c 0D4A     		ldr	r2, .L298
 4037 000e 039B     		ldr	r3, [sp, #12]
 4038 0010 52F83330 		ldr	r3, [r2, r3, lsl #3]
 4039 0014 002B     		cmp	r3, #0
 4040 0016 0BD1     		bne	.L295
2653:/home/rdu/Workspace/project_templates/mcu/stm32_ws/src/libraries/FreeRTOS/Source/queue.c **** 			{
2654:/home/rdu/Workspace/project_templates/mcu/stm32_ws/src/libraries/FreeRTOS/Source/queue.c **** 				/* Store the information on this queue. */
2655:/home/rdu/Workspace/project_templates/mcu/stm32_ws/src/libraries/FreeRTOS/Source/queue.c **** 				xQueueRegistry[ ux ].pcQueueName = pcQueueName;
 4041              		.loc 1 2655 0
 4042 0018 0A49     		ldr	r1, .L298
 4043 001a 039B     		ldr	r3, [sp, #12]
 4044 001c 009A     		ldr	r2, [sp]
 4045 001e 41F83320 		str	r2, [r1, r3, lsl #3]
2656:/home/rdu/Workspace/project_templates/mcu/stm32_ws/src/libraries/FreeRTOS/Source/queue.c **** 				xQueueRegistry[ ux ].xHandle = xQueue;
 4046              		.loc 1 2656 0
 4047 0022 084A     		ldr	r2, .L298
 4048 0024 039B     		ldr	r3, [sp, #12]
 4049 0026 DB00     		lsls	r3, r3, #3
 4050 0028 1344     		add	r3, r3, r2
 4051 002a 019A     		ldr	r2, [sp, #4]
 4052 002c 5A60     		str	r2, [r3, #4]
2657:/home/rdu/Workspace/project_templates/mcu/stm32_ws/src/libraries/FreeRTOS/Source/queue.c **** 
2658:/home/rdu/Workspace/project_templates/mcu/stm32_ws/src/libraries/FreeRTOS/Source/queue.c **** 				traceQUEUE_REGISTRY_ADD( xQueue, pcQueueName );
2659:/home/rdu/Workspace/project_templates/mcu/stm32_ws/src/libraries/FreeRTOS/Source/queue.c **** 				break;
 4053              		.loc 1 2659 0
 4054 002e 05E0     		b	.L296
 4055              	.L295:
2650:/home/rdu/Workspace/project_templates/mcu/stm32_ws/src/libraries/FreeRTOS/Source/queue.c **** 		{
 4056              		.loc 1 2650 0 discriminator 2
 4057 0030 039B     		ldr	r3, [sp, #12]
 4058 0032 0133     		adds	r3, r3, #1
 4059 0034 0393     		str	r3, [sp, #12]
 4060              	.L294:
2650:/home/rdu/Workspace/project_templates/mcu/stm32_ws/src/libraries/FreeRTOS/Source/queue.c **** 		{
 4061              		.loc 1 2650 0 is_stmt 0 discriminator 1
 4062 0036 039B     		ldr	r3, [sp, #12]
 4063 0038 072B     		cmp	r3, #7
 4064 003a E7D9     		bls	.L297
 4065              	.L296:
2660:/home/rdu/Workspace/project_templates/mcu/stm32_ws/src/libraries/FreeRTOS/Source/queue.c **** 			}
2661:/home/rdu/Workspace/project_templates/mcu/stm32_ws/src/libraries/FreeRTOS/Source/queue.c **** 			else
2662:/home/rdu/Workspace/project_templates/mcu/stm32_ws/src/libraries/FreeRTOS/Source/queue.c **** 			{
2663:/home/rdu/Workspace/project_templates/mcu/stm32_ws/src/libraries/FreeRTOS/Source/queue.c **** 				mtCOVERAGE_TEST_MARKER();
2664:/home/rdu/Workspace/project_templates/mcu/stm32_ws/src/libraries/FreeRTOS/Source/queue.c **** 			}
2665:/home/rdu/Workspace/project_templates/mcu/stm32_ws/src/libraries/FreeRTOS/Source/queue.c **** 		}
2666:/home/rdu/Workspace/project_templates/mcu/stm32_ws/src/libraries/FreeRTOS/Source/queue.c **** 	}
 4066              		.loc 1 2666 0 is_stmt 1
 4067 003c 00BF     		nop
 4068 003e 04B0     		add	sp, sp, #16
 4069              	.LCFI87:
 4070              		.cfi_def_cfa_offset 0
 4071              		@ sp needed
 4072 0040 7047     		bx	lr
 4073              	.L299:
 4074 0042 00BF     		.align	2
 4075              	.L298:
 4076 0044 00000000 		.word	xQueueRegistry
 4077              		.cfi_endproc
 4078              	.LFE36:
 4080              		.section	.text.pcQueueGetName,"ax",%progbits
 4081              		.align	1
 4082              		.global	pcQueueGetName
 4083              		.syntax unified
 4084              		.thumb
 4085              		.thumb_func
 4086              		.fpu fpv4-sp-d16
 4088              	pcQueueGetName:
 4089              	.LFB37:
2667:/home/rdu/Workspace/project_templates/mcu/stm32_ws/src/libraries/FreeRTOS/Source/queue.c **** 
2668:/home/rdu/Workspace/project_templates/mcu/stm32_ws/src/libraries/FreeRTOS/Source/queue.c **** #endif /* configQUEUE_REGISTRY_SIZE */
2669:/home/rdu/Workspace/project_templates/mcu/stm32_ws/src/libraries/FreeRTOS/Source/queue.c **** /*-----------------------------------------------------------*/
2670:/home/rdu/Workspace/project_templates/mcu/stm32_ws/src/libraries/FreeRTOS/Source/queue.c **** 
2671:/home/rdu/Workspace/project_templates/mcu/stm32_ws/src/libraries/FreeRTOS/Source/queue.c **** #if ( configQUEUE_REGISTRY_SIZE > 0 )
2672:/home/rdu/Workspace/project_templates/mcu/stm32_ws/src/libraries/FreeRTOS/Source/queue.c **** 
2673:/home/rdu/Workspace/project_templates/mcu/stm32_ws/src/libraries/FreeRTOS/Source/queue.c **** 	const char *pcQueueGetName( QueueHandle_t xQueue ) /*lint !e971 Unqualified char types are allowed
2674:/home/rdu/Workspace/project_templates/mcu/stm32_ws/src/libraries/FreeRTOS/Source/queue.c **** 	{
 4090              		.loc 1 2674 0
 4091              		.cfi_startproc
 4092              		@ args = 0, pretend = 0, frame = 16
 4093              		@ frame_needed = 0, uses_anonymous_args = 0
 4094              		@ link register save eliminated.
 4095 0000 84B0     		sub	sp, sp, #16
 4096              	.LCFI88:
 4097              		.cfi_def_cfa_offset 16
 4098 0002 0190     		str	r0, [sp, #4]
2675:/home/rdu/Workspace/project_templates/mcu/stm32_ws/src/libraries/FreeRTOS/Source/queue.c **** 	UBaseType_t ux;
2676:/home/rdu/Workspace/project_templates/mcu/stm32_ws/src/libraries/FreeRTOS/Source/queue.c **** 	const char *pcReturn = NULL; /*lint !e971 Unqualified char types are allowed for strings and singl
 4099              		.loc 1 2676 0
 4100 0004 0023     		movs	r3, #0
 4101 0006 0293     		str	r3, [sp, #8]
2677:/home/rdu/Workspace/project_templates/mcu/stm32_ws/src/libraries/FreeRTOS/Source/queue.c **** 
2678:/home/rdu/Workspace/project_templates/mcu/stm32_ws/src/libraries/FreeRTOS/Source/queue.c **** 		/* Note there is nothing here to protect against another task adding or
2679:/home/rdu/Workspace/project_templates/mcu/stm32_ws/src/libraries/FreeRTOS/Source/queue.c **** 		removing entries from the registry while it is being searched. */
2680:/home/rdu/Workspace/project_templates/mcu/stm32_ws/src/libraries/FreeRTOS/Source/queue.c **** 		for( ux = ( UBaseType_t ) 0U; ux < ( UBaseType_t ) configQUEUE_REGISTRY_SIZE; ux++ )
 4102              		.loc 1 2680 0
 4103 0008 0023     		movs	r3, #0
 4104 000a 0393     		str	r3, [sp, #12]
 4105 000c 10E0     		b	.L301
 4106              	.L304:
2681:/home/rdu/Workspace/project_templates/mcu/stm32_ws/src/libraries/FreeRTOS/Source/queue.c **** 		{
2682:/home/rdu/Workspace/project_templates/mcu/stm32_ws/src/libraries/FreeRTOS/Source/queue.c **** 			if( xQueueRegistry[ ux ].xHandle == xQueue )
 4107              		.loc 1 2682 0
 4108 000e 0C4A     		ldr	r2, .L306
 4109 0010 039B     		ldr	r3, [sp, #12]
 4110 0012 DB00     		lsls	r3, r3, #3
 4111 0014 1344     		add	r3, r3, r2
 4112 0016 5B68     		ldr	r3, [r3, #4]
 4113 0018 019A     		ldr	r2, [sp, #4]
 4114 001a 9A42     		cmp	r2, r3
 4115 001c 05D1     		bne	.L302
2683:/home/rdu/Workspace/project_templates/mcu/stm32_ws/src/libraries/FreeRTOS/Source/queue.c **** 			{
2684:/home/rdu/Workspace/project_templates/mcu/stm32_ws/src/libraries/FreeRTOS/Source/queue.c **** 				pcReturn = xQueueRegistry[ ux ].pcQueueName;
 4116              		.loc 1 2684 0
 4117 001e 084A     		ldr	r2, .L306
 4118 0020 039B     		ldr	r3, [sp, #12]
 4119 0022 52F83330 		ldr	r3, [r2, r3, lsl #3]
 4120 0026 0293     		str	r3, [sp, #8]
2685:/home/rdu/Workspace/project_templates/mcu/stm32_ws/src/libraries/FreeRTOS/Source/queue.c **** 				break;
 4121              		.loc 1 2685 0
 4122 0028 05E0     		b	.L303
 4123              	.L302:
2680:/home/rdu/Workspace/project_templates/mcu/stm32_ws/src/libraries/FreeRTOS/Source/queue.c **** 		{
 4124              		.loc 1 2680 0 discriminator 2
 4125 002a 039B     		ldr	r3, [sp, #12]
 4126 002c 0133     		adds	r3, r3, #1
 4127 002e 0393     		str	r3, [sp, #12]
 4128              	.L301:
2680:/home/rdu/Workspace/project_templates/mcu/stm32_ws/src/libraries/FreeRTOS/Source/queue.c **** 		{
 4129              		.loc 1 2680 0 is_stmt 0 discriminator 1
 4130 0030 039B     		ldr	r3, [sp, #12]
 4131 0032 072B     		cmp	r3, #7
 4132 0034 EBD9     		bls	.L304
 4133              	.L303:
2686:/home/rdu/Workspace/project_templates/mcu/stm32_ws/src/libraries/FreeRTOS/Source/queue.c **** 			}
2687:/home/rdu/Workspace/project_templates/mcu/stm32_ws/src/libraries/FreeRTOS/Source/queue.c **** 			else
2688:/home/rdu/Workspace/project_templates/mcu/stm32_ws/src/libraries/FreeRTOS/Source/queue.c **** 			{
2689:/home/rdu/Workspace/project_templates/mcu/stm32_ws/src/libraries/FreeRTOS/Source/queue.c **** 				mtCOVERAGE_TEST_MARKER();
2690:/home/rdu/Workspace/project_templates/mcu/stm32_ws/src/libraries/FreeRTOS/Source/queue.c **** 			}
2691:/home/rdu/Workspace/project_templates/mcu/stm32_ws/src/libraries/FreeRTOS/Source/queue.c **** 		}
2692:/home/rdu/Workspace/project_templates/mcu/stm32_ws/src/libraries/FreeRTOS/Source/queue.c **** 
2693:/home/rdu/Workspace/project_templates/mcu/stm32_ws/src/libraries/FreeRTOS/Source/queue.c **** 		return pcReturn;
 4134              		.loc 1 2693 0 is_stmt 1
 4135 0036 029B     		ldr	r3, [sp, #8]
2694:/home/rdu/Workspace/project_templates/mcu/stm32_ws/src/libraries/FreeRTOS/Source/queue.c **** 	} /*lint !e818 xQueue cannot be a pointer to const because it is a typedef. */
 4136              		.loc 1 2694 0
 4137 0038 1846     		mov	r0, r3
 4138 003a 04B0     		add	sp, sp, #16
 4139              	.LCFI89:
 4140              		.cfi_def_cfa_offset 0
 4141              		@ sp needed
 4142 003c 7047     		bx	lr
 4143              	.L307:
 4144 003e 00BF     		.align	2
 4145              	.L306:
 4146 0040 00000000 		.word	xQueueRegistry
 4147              		.cfi_endproc
 4148              	.LFE37:
 4150              		.section	.text.vQueueUnregisterQueue,"ax",%progbits
 4151              		.align	1
 4152              		.global	vQueueUnregisterQueue
 4153              		.syntax unified
 4154              		.thumb
 4155              		.thumb_func
 4156              		.fpu fpv4-sp-d16
 4158              	vQueueUnregisterQueue:
 4159              	.LFB38:
2695:/home/rdu/Workspace/project_templates/mcu/stm32_ws/src/libraries/FreeRTOS/Source/queue.c **** 
2696:/home/rdu/Workspace/project_templates/mcu/stm32_ws/src/libraries/FreeRTOS/Source/queue.c **** #endif /* configQUEUE_REGISTRY_SIZE */
2697:/home/rdu/Workspace/project_templates/mcu/stm32_ws/src/libraries/FreeRTOS/Source/queue.c **** /*-----------------------------------------------------------*/
2698:/home/rdu/Workspace/project_templates/mcu/stm32_ws/src/libraries/FreeRTOS/Source/queue.c **** 
2699:/home/rdu/Workspace/project_templates/mcu/stm32_ws/src/libraries/FreeRTOS/Source/queue.c **** #if ( configQUEUE_REGISTRY_SIZE > 0 )
2700:/home/rdu/Workspace/project_templates/mcu/stm32_ws/src/libraries/FreeRTOS/Source/queue.c **** 
2701:/home/rdu/Workspace/project_templates/mcu/stm32_ws/src/libraries/FreeRTOS/Source/queue.c **** 	void vQueueUnregisterQueue( QueueHandle_t xQueue )
2702:/home/rdu/Workspace/project_templates/mcu/stm32_ws/src/libraries/FreeRTOS/Source/queue.c **** 	{
 4160              		.loc 1 2702 0
 4161              		.cfi_startproc
 4162              		@ args = 0, pretend = 0, frame = 16
 4163              		@ frame_needed = 0, uses_anonymous_args = 0
 4164              		@ link register save eliminated.
 4165 0000 84B0     		sub	sp, sp, #16
 4166              	.LCFI90:
 4167              		.cfi_def_cfa_offset 16
 4168 0002 0190     		str	r0, [sp, #4]
2703:/home/rdu/Workspace/project_templates/mcu/stm32_ws/src/libraries/FreeRTOS/Source/queue.c **** 	UBaseType_t ux;
2704:/home/rdu/Workspace/project_templates/mcu/stm32_ws/src/libraries/FreeRTOS/Source/queue.c **** 
2705:/home/rdu/Workspace/project_templates/mcu/stm32_ws/src/libraries/FreeRTOS/Source/queue.c **** 		/* See if the handle of the queue being unregistered in actually in the
2706:/home/rdu/Workspace/project_templates/mcu/stm32_ws/src/libraries/FreeRTOS/Source/queue.c **** 		registry. */
2707:/home/rdu/Workspace/project_templates/mcu/stm32_ws/src/libraries/FreeRTOS/Source/queue.c **** 		for( ux = ( UBaseType_t ) 0U; ux < ( UBaseType_t ) configQUEUE_REGISTRY_SIZE; ux++ )
 4169              		.loc 1 2707 0
 4170 0004 0023     		movs	r3, #0
 4171 0006 0393     		str	r3, [sp, #12]
 4172 0008 16E0     		b	.L309
 4173              	.L312:
2708:/home/rdu/Workspace/project_templates/mcu/stm32_ws/src/libraries/FreeRTOS/Source/queue.c **** 		{
2709:/home/rdu/Workspace/project_templates/mcu/stm32_ws/src/libraries/FreeRTOS/Source/queue.c **** 			if( xQueueRegistry[ ux ].xHandle == xQueue )
 4174              		.loc 1 2709 0
 4175 000a 0E4A     		ldr	r2, .L313
 4176 000c 039B     		ldr	r3, [sp, #12]
 4177 000e DB00     		lsls	r3, r3, #3
 4178 0010 1344     		add	r3, r3, r2
 4179 0012 5B68     		ldr	r3, [r3, #4]
 4180 0014 019A     		ldr	r2, [sp, #4]
 4181 0016 9A42     		cmp	r2, r3
 4182 0018 0BD1     		bne	.L310
2710:/home/rdu/Workspace/project_templates/mcu/stm32_ws/src/libraries/FreeRTOS/Source/queue.c **** 			{
2711:/home/rdu/Workspace/project_templates/mcu/stm32_ws/src/libraries/FreeRTOS/Source/queue.c **** 				/* Set the name to NULL to show that this slot if free again. */
2712:/home/rdu/Workspace/project_templates/mcu/stm32_ws/src/libraries/FreeRTOS/Source/queue.c **** 				xQueueRegistry[ ux ].pcQueueName = NULL;
 4183              		.loc 1 2712 0
 4184 001a 0A4A     		ldr	r2, .L313
 4185 001c 039B     		ldr	r3, [sp, #12]
 4186 001e 0021     		movs	r1, #0
 4187 0020 42F83310 		str	r1, [r2, r3, lsl #3]
2713:/home/rdu/Workspace/project_templates/mcu/stm32_ws/src/libraries/FreeRTOS/Source/queue.c **** 
2714:/home/rdu/Workspace/project_templates/mcu/stm32_ws/src/libraries/FreeRTOS/Source/queue.c **** 				/* Set the handle to NULL to ensure the same queue handle cannot
2715:/home/rdu/Workspace/project_templates/mcu/stm32_ws/src/libraries/FreeRTOS/Source/queue.c **** 				appear in the registry twice if it is added, removed, then
2716:/home/rdu/Workspace/project_templates/mcu/stm32_ws/src/libraries/FreeRTOS/Source/queue.c **** 				added again. */
2717:/home/rdu/Workspace/project_templates/mcu/stm32_ws/src/libraries/FreeRTOS/Source/queue.c **** 				xQueueRegistry[ ux ].xHandle = ( QueueHandle_t ) 0;
 4188              		.loc 1 2717 0
 4189 0024 074A     		ldr	r2, .L313
 4190 0026 039B     		ldr	r3, [sp, #12]
 4191 0028 DB00     		lsls	r3, r3, #3
 4192 002a 1344     		add	r3, r3, r2
 4193 002c 0022     		movs	r2, #0
 4194 002e 5A60     		str	r2, [r3, #4]
2718:/home/rdu/Workspace/project_templates/mcu/stm32_ws/src/libraries/FreeRTOS/Source/queue.c **** 				break;
 4195              		.loc 1 2718 0
 4196 0030 05E0     		b	.L311
 4197              	.L310:
2707:/home/rdu/Workspace/project_templates/mcu/stm32_ws/src/libraries/FreeRTOS/Source/queue.c **** 		{
 4198              		.loc 1 2707 0 discriminator 2
 4199 0032 039B     		ldr	r3, [sp, #12]
 4200 0034 0133     		adds	r3, r3, #1
 4201 0036 0393     		str	r3, [sp, #12]
 4202              	.L309:
2707:/home/rdu/Workspace/project_templates/mcu/stm32_ws/src/libraries/FreeRTOS/Source/queue.c **** 		{
 4203              		.loc 1 2707 0 is_stmt 0 discriminator 1
 4204 0038 039B     		ldr	r3, [sp, #12]
 4205 003a 072B     		cmp	r3, #7
 4206 003c E5D9     		bls	.L312
 4207              	.L311:
2719:/home/rdu/Workspace/project_templates/mcu/stm32_ws/src/libraries/FreeRTOS/Source/queue.c **** 			}
2720:/home/rdu/Workspace/project_templates/mcu/stm32_ws/src/libraries/FreeRTOS/Source/queue.c **** 			else
2721:/home/rdu/Workspace/project_templates/mcu/stm32_ws/src/libraries/FreeRTOS/Source/queue.c **** 			{
2722:/home/rdu/Workspace/project_templates/mcu/stm32_ws/src/libraries/FreeRTOS/Source/queue.c **** 				mtCOVERAGE_TEST_MARKER();
2723:/home/rdu/Workspace/project_templates/mcu/stm32_ws/src/libraries/FreeRTOS/Source/queue.c **** 			}
2724:/home/rdu/Workspace/project_templates/mcu/stm32_ws/src/libraries/FreeRTOS/Source/queue.c **** 		}
2725:/home/rdu/Workspace/project_templates/mcu/stm32_ws/src/libraries/FreeRTOS/Source/queue.c **** 
2726:/home/rdu/Workspace/project_templates/mcu/stm32_ws/src/libraries/FreeRTOS/Source/queue.c **** 	} /*lint !e818 xQueue could not be pointer to const because it is a typedef. */
 4208              		.loc 1 2726 0 is_stmt 1
 4209 003e 00BF     		nop
 4210 0040 04B0     		add	sp, sp, #16
 4211              	.LCFI91:
 4212              		.cfi_def_cfa_offset 0
 4213              		@ sp needed
 4214 0042 7047     		bx	lr
 4215              	.L314:
 4216              		.align	2
 4217              	.L313:
 4218 0044 00000000 		.word	xQueueRegistry
 4219              		.cfi_endproc
 4220              	.LFE38:
 4222              		.section	.text.vQueueWaitForMessageRestricted,"ax",%progbits
 4223              		.align	1
 4224              		.global	vQueueWaitForMessageRestricted
 4225              		.syntax unified
 4226              		.thumb
 4227              		.thumb_func
 4228              		.fpu fpv4-sp-d16
 4230              	vQueueWaitForMessageRestricted:
 4231              	.LFB39:
2727:/home/rdu/Workspace/project_templates/mcu/stm32_ws/src/libraries/FreeRTOS/Source/queue.c **** 
2728:/home/rdu/Workspace/project_templates/mcu/stm32_ws/src/libraries/FreeRTOS/Source/queue.c **** #endif /* configQUEUE_REGISTRY_SIZE */
2729:/home/rdu/Workspace/project_templates/mcu/stm32_ws/src/libraries/FreeRTOS/Source/queue.c **** /*-----------------------------------------------------------*/
2730:/home/rdu/Workspace/project_templates/mcu/stm32_ws/src/libraries/FreeRTOS/Source/queue.c **** 
2731:/home/rdu/Workspace/project_templates/mcu/stm32_ws/src/libraries/FreeRTOS/Source/queue.c **** #if ( configUSE_TIMERS == 1 )
2732:/home/rdu/Workspace/project_templates/mcu/stm32_ws/src/libraries/FreeRTOS/Source/queue.c **** 
2733:/home/rdu/Workspace/project_templates/mcu/stm32_ws/src/libraries/FreeRTOS/Source/queue.c **** 	void vQueueWaitForMessageRestricted( QueueHandle_t xQueue, TickType_t xTicksToWait, const BaseType
2734:/home/rdu/Workspace/project_templates/mcu/stm32_ws/src/libraries/FreeRTOS/Source/queue.c **** 	{
 4232              		.loc 1 2734 0
 4233              		.cfi_startproc
 4234              		@ args = 0, pretend = 0, frame = 24
 4235              		@ frame_needed = 0, uses_anonymous_args = 0
 4236 0000 00B5     		push	{lr}
 4237              	.LCFI92:
 4238              		.cfi_def_cfa_offset 4
 4239              		.cfi_offset 14, -4
 4240 0002 87B0     		sub	sp, sp, #28
 4241              	.LCFI93:
 4242              		.cfi_def_cfa_offset 32
 4243 0004 0390     		str	r0, [sp, #12]
 4244 0006 0291     		str	r1, [sp, #8]
 4245 0008 0192     		str	r2, [sp, #4]
2735:/home/rdu/Workspace/project_templates/mcu/stm32_ws/src/libraries/FreeRTOS/Source/queue.c **** 	Queue_t * const pxQueue = xQueue;
 4246              		.loc 1 2735 0
 4247 000a 039B     		ldr	r3, [sp, #12]
 4248 000c 0593     		str	r3, [sp, #20]
2736:/home/rdu/Workspace/project_templates/mcu/stm32_ws/src/libraries/FreeRTOS/Source/queue.c **** 
2737:/home/rdu/Workspace/project_templates/mcu/stm32_ws/src/libraries/FreeRTOS/Source/queue.c **** 		/* This function should not be called by application code hence the
2738:/home/rdu/Workspace/project_templates/mcu/stm32_ws/src/libraries/FreeRTOS/Source/queue.c **** 		'Restricted' in its name.  It is not part of the public API.  It is
2739:/home/rdu/Workspace/project_templates/mcu/stm32_ws/src/libraries/FreeRTOS/Source/queue.c **** 		designed for use by kernel code, and has special calling requirements.
2740:/home/rdu/Workspace/project_templates/mcu/stm32_ws/src/libraries/FreeRTOS/Source/queue.c **** 		It can result in vListInsert() being called on a list that can only
2741:/home/rdu/Workspace/project_templates/mcu/stm32_ws/src/libraries/FreeRTOS/Source/queue.c **** 		possibly ever have one item in it, so the list will be fast, but even
2742:/home/rdu/Workspace/project_templates/mcu/stm32_ws/src/libraries/FreeRTOS/Source/queue.c **** 		so it should be called with the scheduler locked and not from a critical
2743:/home/rdu/Workspace/project_templates/mcu/stm32_ws/src/libraries/FreeRTOS/Source/queue.c **** 		section. */
2744:/home/rdu/Workspace/project_templates/mcu/stm32_ws/src/libraries/FreeRTOS/Source/queue.c **** 
2745:/home/rdu/Workspace/project_templates/mcu/stm32_ws/src/libraries/FreeRTOS/Source/queue.c **** 		/* Only do anything if there are no messages in the queue.  This function
2746:/home/rdu/Workspace/project_templates/mcu/stm32_ws/src/libraries/FreeRTOS/Source/queue.c **** 		will not actually cause the task to block, just place it on a blocked
2747:/home/rdu/Workspace/project_templates/mcu/stm32_ws/src/libraries/FreeRTOS/Source/queue.c **** 		list.  It will not block until the scheduler is unlocked - at which
2748:/home/rdu/Workspace/project_templates/mcu/stm32_ws/src/libraries/FreeRTOS/Source/queue.c **** 		time a yield will be performed.  If an item is added to the queue while
2749:/home/rdu/Workspace/project_templates/mcu/stm32_ws/src/libraries/FreeRTOS/Source/queue.c **** 		the queue is locked, and the calling task blocks on the queue, then the
2750:/home/rdu/Workspace/project_templates/mcu/stm32_ws/src/libraries/FreeRTOS/Source/queue.c **** 		calling task will be immediately unblocked when the queue is unlocked. */
2751:/home/rdu/Workspace/project_templates/mcu/stm32_ws/src/libraries/FreeRTOS/Source/queue.c **** 		prvLockQueue( pxQueue );
 4249              		.loc 1 2751 0
 4250 000e FFF7FEFF 		bl	vPortEnterCritical
 4251 0012 059B     		ldr	r3, [sp, #20]
 4252 0014 93F84430 		ldrb	r3, [r3, #68]
 4253 0018 5BB2     		sxtb	r3, r3
 4254 001a B3F1FF3F 		cmp	r3, #-1
 4255 001e 03D1     		bne	.L316
 4256              		.loc 1 2751 0 is_stmt 0 discriminator 1
 4257 0020 059B     		ldr	r3, [sp, #20]
 4258 0022 0022     		movs	r2, #0
 4259 0024 83F84420 		strb	r2, [r3, #68]
 4260              	.L316:
 4261              		.loc 1 2751 0 discriminator 3
 4262 0028 059B     		ldr	r3, [sp, #20]
 4263 002a 93F84530 		ldrb	r3, [r3, #69]
 4264 002e 5BB2     		sxtb	r3, r3
 4265 0030 B3F1FF3F 		cmp	r3, #-1
 4266 0034 03D1     		bne	.L317
 4267              		.loc 1 2751 0 discriminator 4
 4268 0036 059B     		ldr	r3, [sp, #20]
 4269 0038 0022     		movs	r2, #0
 4270 003a 83F84520 		strb	r2, [r3, #69]
 4271              	.L317:
 4272              		.loc 1 2751 0 discriminator 6
 4273 003e FFF7FEFF 		bl	vPortExitCritical
2752:/home/rdu/Workspace/project_templates/mcu/stm32_ws/src/libraries/FreeRTOS/Source/queue.c **** 		if( pxQueue->uxMessagesWaiting == ( UBaseType_t ) 0U )
 4274              		.loc 1 2752 0 is_stmt 1 discriminator 6
 4275 0042 059B     		ldr	r3, [sp, #20]
 4276 0044 9B6B     		ldr	r3, [r3, #56]
 4277 0046 002B     		cmp	r3, #0
 4278 0048 06D1     		bne	.L318
2753:/home/rdu/Workspace/project_templates/mcu/stm32_ws/src/libraries/FreeRTOS/Source/queue.c **** 		{
2754:/home/rdu/Workspace/project_templates/mcu/stm32_ws/src/libraries/FreeRTOS/Source/queue.c **** 			/* There is nothing in the queue, block for the specified period. */
2755:/home/rdu/Workspace/project_templates/mcu/stm32_ws/src/libraries/FreeRTOS/Source/queue.c **** 			vTaskPlaceOnEventListRestricted( &( pxQueue->xTasksWaitingToReceive ), xTicksToWait, xWaitIndefi
 4279              		.loc 1 2755 0
 4280 004a 059B     		ldr	r3, [sp, #20]
 4281 004c 2433     		adds	r3, r3, #36
 4282 004e 019A     		ldr	r2, [sp, #4]
 4283 0050 0299     		ldr	r1, [sp, #8]
 4284 0052 1846     		mov	r0, r3
 4285 0054 FFF7FEFF 		bl	vTaskPlaceOnEventListRestricted
 4286              	.L318:
2756:/home/rdu/Workspace/project_templates/mcu/stm32_ws/src/libraries/FreeRTOS/Source/queue.c **** 		}
2757:/home/rdu/Workspace/project_templates/mcu/stm32_ws/src/libraries/FreeRTOS/Source/queue.c **** 		else
2758:/home/rdu/Workspace/project_templates/mcu/stm32_ws/src/libraries/FreeRTOS/Source/queue.c **** 		{
2759:/home/rdu/Workspace/project_templates/mcu/stm32_ws/src/libraries/FreeRTOS/Source/queue.c **** 			mtCOVERAGE_TEST_MARKER();
2760:/home/rdu/Workspace/project_templates/mcu/stm32_ws/src/libraries/FreeRTOS/Source/queue.c **** 		}
2761:/home/rdu/Workspace/project_templates/mcu/stm32_ws/src/libraries/FreeRTOS/Source/queue.c **** 		prvUnlockQueue( pxQueue );
 4287              		.loc 1 2761 0
 4288 0058 0598     		ldr	r0, [sp, #20]
 4289 005a FFF7FEFF 		bl	prvUnlockQueue
2762:/home/rdu/Workspace/project_templates/mcu/stm32_ws/src/libraries/FreeRTOS/Source/queue.c **** 	}
 4290              		.loc 1 2762 0
 4291 005e 00BF     		nop
 4292 0060 07B0     		add	sp, sp, #28
 4293              	.LCFI94:
 4294              		.cfi_def_cfa_offset 4
 4295              		@ sp needed
 4296 0062 5DF804FB 		ldr	pc, [sp], #4
 4297              		.cfi_endproc
 4298              	.LFE39:
 4300              		.text
 4301              	.Letext0:
 4302              		.file 3 "/home/rdu/Software/gcc-arm-none-eabi-7-2017-q4-major/lib/gcc/arm-none-eabi/7.2.1/include/
 4303              		.file 4 "/home/rdu/Software/gcc-arm-none-eabi-7-2017-q4-major/arm-none-eabi/include/machine/_defau
 4304              		.file 5 "/home/rdu/Software/gcc-arm-none-eabi-7-2017-q4-major/arm-none-eabi/include/sys/lock.h"
 4305              		.file 6 "/home/rdu/Software/gcc-arm-none-eabi-7-2017-q4-major/arm-none-eabi/include/sys/_types.h"
 4306              		.file 7 "/home/rdu/Software/gcc-arm-none-eabi-7-2017-q4-major/arm-none-eabi/include/sys/reent.h"
 4307              		.file 8 "/home/rdu/Software/gcc-arm-none-eabi-7-2017-q4-major/arm-none-eabi/include/stdlib.h"
 4308              		.file 9 "/home/rdu/Software/gcc-arm-none-eabi-7-2017-q4-major/arm-none-eabi/include/sys/_stdint.h"
 4309              		.file 10 "/home/rdu/Workspace/project_templates/mcu/stm32_ws/src/targets/racer_core/firmware/confi
 4310              		.file 11 "/home/rdu/Workspace/project_templates/mcu/stm32_ws/src/libraries/FreeRTOS/Source/include
 4311              		.file 12 "/home/rdu/Workspace/project_templates/mcu/stm32_ws/src/libraries/FreeRTOS/Source/include
 4312              		.file 13 "/home/rdu/Workspace/project_templates/mcu/stm32_ws/src/libraries/FreeRTOS/Source/include
DEFINED SYMBOLS
                            *ABS*:0000000000000000 queue.c
                            *COM*:0000000000000040 xQueueRegistry
     /tmp/ccD04bBw.s:17     .text.xQueueGenericReset:0000000000000000 $t
     /tmp/ccD04bBw.s:24     .text.xQueueGenericReset:0000000000000000 xQueueGenericReset
     /tmp/ccD04bBw.s:167    .text.xQueueGenericReset:00000000000000c8 $d
     /tmp/ccD04bBw.s:172    .text.xQueueGenericCreate:0000000000000000 $t
     /tmp/ccD04bBw.s:179    .text.xQueueGenericCreate:0000000000000000 xQueueGenericCreate
     /tmp/ccD04bBw.s:281    .text.prvInitialiseNewQueue:0000000000000000 prvInitialiseNewQueue
     /tmp/ccD04bBw.s:275    .text.prvInitialiseNewQueue:0000000000000000 $t
     /tmp/ccD04bBw.s:340    .text.prvInitialiseMutex:0000000000000000 $t
     /tmp/ccD04bBw.s:346    .text.prvInitialiseMutex:0000000000000000 prvInitialiseMutex
     /tmp/ccD04bBw.s:743    .text.xQueueGenericSend:0000000000000000 xQueueGenericSend
     /tmp/ccD04bBw.s:394    .text.xQueueCreateMutex:0000000000000000 $t
     /tmp/ccD04bBw.s:401    .text.xQueueCreateMutex:0000000000000000 xQueueCreateMutex
     /tmp/ccD04bBw.s:444    .text.xQueueGiveMutexRecursive:0000000000000000 $t
     /tmp/ccD04bBw.s:451    .text.xQueueGiveMutexRecursive:0000000000000000 xQueueGiveMutexRecursive
     /tmp/ccD04bBw.s:540    .text.xQueueTakeMutexRecursive:0000000000000000 $t
     /tmp/ccD04bBw.s:547    .text.xQueueTakeMutexRecursive:0000000000000000 xQueueTakeMutexRecursive
     /tmp/ccD04bBw.s:1917   .text.xQueueSemaphoreTake:0000000000000000 xQueueSemaphoreTake
     /tmp/ccD04bBw.s:637    .text.xQueueCreateCountingSemaphore:0000000000000000 $t
     /tmp/ccD04bBw.s:644    .text.xQueueCreateCountingSemaphore:0000000000000000 xQueueCreateCountingSemaphore
     /tmp/ccD04bBw.s:736    .text.xQueueGenericSend:0000000000000000 $t
     /tmp/ccD04bBw.s:3423   .text.prvCopyDataToQueue:0000000000000000 prvCopyDataToQueue
     /tmp/ccD04bBw.s:3890   .text.prvIsQueueFull:0000000000000000 prvIsQueueFull
     /tmp/ccD04bBw.s:3640   .text.prvUnlockQueue:0000000000000000 prvUnlockQueue
     /tmp/ccD04bBw.s:1103   .text.xQueueGenericSend:00000000000001ec $d
     /tmp/ccD04bBw.s:1108   .text.xQueueGenericSendFromISR:0000000000000000 $t
     /tmp/ccD04bBw.s:1115   .text.xQueueGenericSendFromISR:0000000000000000 xQueueGenericSendFromISR
     /tmp/ccD04bBw.s:1358   .text.xQueueGiveFromISR:0000000000000000 $t
     /tmp/ccD04bBw.s:1365   .text.xQueueGiveFromISR:0000000000000000 xQueueGiveFromISR
     /tmp/ccD04bBw.s:1591   .text.xQueueReceive:0000000000000000 $t
     /tmp/ccD04bBw.s:1598   .text.xQueueReceive:0000000000000000 xQueueReceive
     /tmp/ccD04bBw.s:3573   .text.prvCopyDataFromQueue:0000000000000000 prvCopyDataFromQueue
     /tmp/ccD04bBw.s:3767   .text.prvIsQueueEmpty:0000000000000000 prvIsQueueEmpty
     /tmp/ccD04bBw.s:1905   .text.xQueueReceive:00000000000001b0 $d
     /tmp/ccD04bBw.s:1910   .text.xQueueSemaphoreTake:0000000000000000 $t
     /tmp/ccD04bBw.s:3376   .text.prvGetDisinheritPriorityAfterTimeout:0000000000000000 prvGetDisinheritPriorityAfterTimeout
     /tmp/ccD04bBw.s:2279   .text.xQueueSemaphoreTake:0000000000000204 $d
     /tmp/ccD04bBw.s:2284   .text.xQueuePeek:0000000000000000 $t
     /tmp/ccD04bBw.s:2291   .text.xQueuePeek:0000000000000000 xQueuePeek
     /tmp/ccD04bBw.s:2601   .text.xQueuePeek:00000000000001b4 $d
     /tmp/ccD04bBw.s:2606   .text.xQueueReceiveFromISR:0000000000000000 $t
     /tmp/ccD04bBw.s:2613   .text.xQueueReceiveFromISR:0000000000000000 xQueueReceiveFromISR
     /tmp/ccD04bBw.s:2816   .text.xQueuePeekFromISR:0000000000000000 $t
     /tmp/ccD04bBw.s:2823   .text.xQueuePeekFromISR:0000000000000000 xQueuePeekFromISR
     /tmp/ccD04bBw.s:3007   .text.uxQueueMessagesWaiting:0000000000000000 $t
     /tmp/ccD04bBw.s:3014   .text.uxQueueMessagesWaiting:0000000000000000 uxQueueMessagesWaiting
     /tmp/ccD04bBw.s:3073   .text.uxQueueSpacesAvailable:0000000000000000 $t
     /tmp/ccD04bBw.s:3080   .text.uxQueueSpacesAvailable:0000000000000000 uxQueueSpacesAvailable
     /tmp/ccD04bBw.s:3145   .text.uxQueueMessagesWaitingFromISR:0000000000000000 $t
     /tmp/ccD04bBw.s:3152   .text.uxQueueMessagesWaitingFromISR:0000000000000000 uxQueueMessagesWaitingFromISR
     /tmp/ccD04bBw.s:3207   .text.vQueueDelete:0000000000000000 $t
     /tmp/ccD04bBw.s:3214   .text.vQueueDelete:0000000000000000 vQueueDelete
     /tmp/ccD04bBw.s:4158   .text.vQueueUnregisterQueue:0000000000000000 vQueueUnregisterQueue
     /tmp/ccD04bBw.s:3272   .text.uxQueueGetQueueNumber:0000000000000000 $t
     /tmp/ccD04bBw.s:3279   .text.uxQueueGetQueueNumber:0000000000000000 uxQueueGetQueueNumber
     /tmp/ccD04bBw.s:3304   .text.vQueueSetQueueNumber:0000000000000000 $t
     /tmp/ccD04bBw.s:3311   .text.vQueueSetQueueNumber:0000000000000000 vQueueSetQueueNumber
     /tmp/ccD04bBw.s:3338   .text.ucQueueGetQueueType:0000000000000000 $t
     /tmp/ccD04bBw.s:3345   .text.ucQueueGetQueueType:0000000000000000 ucQueueGetQueueType
     /tmp/ccD04bBw.s:3370   .text.prvGetDisinheritPriorityAfterTimeout:0000000000000000 $t
     /tmp/ccD04bBw.s:3417   .text.prvCopyDataToQueue:0000000000000000 $t
     /tmp/ccD04bBw.s:3567   .text.prvCopyDataFromQueue:0000000000000000 $t
     /tmp/ccD04bBw.s:3634   .text.prvUnlockQueue:0000000000000000 $t
     /tmp/ccD04bBw.s:3761   .text.prvIsQueueEmpty:0000000000000000 $t
     /tmp/ccD04bBw.s:3812   .text.xQueueIsQueueEmptyFromISR:0000000000000000 $t
     /tmp/ccD04bBw.s:3819   .text.xQueueIsQueueEmptyFromISR:0000000000000000 xQueueIsQueueEmptyFromISR
     /tmp/ccD04bBw.s:3884   .text.prvIsQueueFull:0000000000000000 $t
     /tmp/ccD04bBw.s:3937   .text.xQueueIsQueueFullFromISR:0000000000000000 $t
     /tmp/ccD04bBw.s:3944   .text.xQueueIsQueueFullFromISR:0000000000000000 xQueueIsQueueFullFromISR
     /tmp/ccD04bBw.s:4011   .text.vQueueAddToRegistry:0000000000000000 $t
     /tmp/ccD04bBw.s:4018   .text.vQueueAddToRegistry:0000000000000000 vQueueAddToRegistry
     /tmp/ccD04bBw.s:4076   .text.vQueueAddToRegistry:0000000000000044 $d
     /tmp/ccD04bBw.s:4081   .text.pcQueueGetName:0000000000000000 $t
     /tmp/ccD04bBw.s:4088   .text.pcQueueGetName:0000000000000000 pcQueueGetName
     /tmp/ccD04bBw.s:4146   .text.pcQueueGetName:0000000000000040 $d
     /tmp/ccD04bBw.s:4151   .text.vQueueUnregisterQueue:0000000000000000 $t
     /tmp/ccD04bBw.s:4218   .text.vQueueUnregisterQueue:0000000000000044 $d
     /tmp/ccD04bBw.s:4223   .text.vQueueWaitForMessageRestricted:0000000000000000 $t
     /tmp/ccD04bBw.s:4230   .text.vQueueWaitForMessageRestricted:0000000000000000 vQueueWaitForMessageRestricted

UNDEFINED SYMBOLS
vPortEnterCritical
xTaskRemoveFromEventList
vListInitialise
vPortExitCritical
pvPortMalloc
xTaskGetCurrentTaskHandle
xTaskGetSchedulerState
vTaskInternalSetTimeOutState
vTaskSuspendAll
xTaskCheckForTimeOut
vTaskPlaceOnEventList
xTaskResumeAll
vPortValidateInterruptPriority
pvTaskIncrementMutexHeldCount
xTaskPriorityInherit
vTaskPriorityDisinheritAfterTimeout
vPortFree
xTaskPriorityDisinherit
memcpy
vTaskMissedYield
vTaskPlaceOnEventListRestricted
