   1              		.cpu cortex-m4
   2              		.eabi_attribute 27, 1
   3              		.eabi_attribute 28, 1
   4              		.eabi_attribute 23, 1
   5              		.eabi_attribute 24, 1
   6              		.eabi_attribute 25, 1
   7              		.eabi_attribute 26, 1
   8              		.eabi_attribute 30, 6
   9              		.eabi_attribute 34, 1
  10              		.eabi_attribute 18, 4
  11              		.file	"queue.c"
  12              		.text
  13              	.Ltext0:
  14              		.cfi_sections	.debug_frame
  15              		.comm	xQueueRegistry,64,4
  16              		.section	.text.xQueueGenericReset,"ax",%progbits
  17              		.align	1
  18              		.global	xQueueGenericReset
  19              		.syntax unified
  20              		.thumb
  21              		.thumb_func
  22              		.fpu fpv4-sp-d16
  24              	xQueueGenericReset:
  25              	.LFB5:
  26              		.file 1 "/home/rdu/Workspace/project_templates/mcu/stm32_ws/src/libraries/FreeRTOS/Source/queue.c"
   1:/home/rdu/Workspace/project_templates/mcu/stm32_ws/src/libraries/FreeRTOS/Source/queue.c **** /*
   2:/home/rdu/Workspace/project_templates/mcu/stm32_ws/src/libraries/FreeRTOS/Source/queue.c ****  * FreeRTOS Kernel V10.1.1
   3:/home/rdu/Workspace/project_templates/mcu/stm32_ws/src/libraries/FreeRTOS/Source/queue.c ****  * Copyright (C) 2018 Amazon.com, Inc. or its affiliates.  All Rights Reserved.
   4:/home/rdu/Workspace/project_templates/mcu/stm32_ws/src/libraries/FreeRTOS/Source/queue.c ****  *
   5:/home/rdu/Workspace/project_templates/mcu/stm32_ws/src/libraries/FreeRTOS/Source/queue.c ****  * Permission is hereby granted, free of charge, to any person obtaining a copy of
   6:/home/rdu/Workspace/project_templates/mcu/stm32_ws/src/libraries/FreeRTOS/Source/queue.c ****  * this software and associated documentation files (the "Software"), to deal in
   7:/home/rdu/Workspace/project_templates/mcu/stm32_ws/src/libraries/FreeRTOS/Source/queue.c ****  * the Software without restriction, including without limitation the rights to
   8:/home/rdu/Workspace/project_templates/mcu/stm32_ws/src/libraries/FreeRTOS/Source/queue.c ****  * use, copy, modify, merge, publish, distribute, sublicense, and/or sell copies of
   9:/home/rdu/Workspace/project_templates/mcu/stm32_ws/src/libraries/FreeRTOS/Source/queue.c ****  * the Software, and to permit persons to whom the Software is furnished to do so,
  10:/home/rdu/Workspace/project_templates/mcu/stm32_ws/src/libraries/FreeRTOS/Source/queue.c ****  * subject to the following conditions:
  11:/home/rdu/Workspace/project_templates/mcu/stm32_ws/src/libraries/FreeRTOS/Source/queue.c ****  *
  12:/home/rdu/Workspace/project_templates/mcu/stm32_ws/src/libraries/FreeRTOS/Source/queue.c ****  * The above copyright notice and this permission notice shall be included in all
  13:/home/rdu/Workspace/project_templates/mcu/stm32_ws/src/libraries/FreeRTOS/Source/queue.c ****  * copies or substantial portions of the Software.
  14:/home/rdu/Workspace/project_templates/mcu/stm32_ws/src/libraries/FreeRTOS/Source/queue.c ****  *
  15:/home/rdu/Workspace/project_templates/mcu/stm32_ws/src/libraries/FreeRTOS/Source/queue.c ****  * THE SOFTWARE IS PROVIDED "AS IS", WITHOUT WARRANTY OF ANY KIND, EXPRESS OR
  16:/home/rdu/Workspace/project_templates/mcu/stm32_ws/src/libraries/FreeRTOS/Source/queue.c ****  * IMPLIED, INCLUDING BUT NOT LIMITED TO THE WARRANTIES OF MERCHANTABILITY, FITNESS
  17:/home/rdu/Workspace/project_templates/mcu/stm32_ws/src/libraries/FreeRTOS/Source/queue.c ****  * FOR A PARTICULAR PURPOSE AND NONINFRINGEMENT. IN NO EVENT SHALL THE AUTHORS OR
  18:/home/rdu/Workspace/project_templates/mcu/stm32_ws/src/libraries/FreeRTOS/Source/queue.c ****  * COPYRIGHT HOLDERS BE LIABLE FOR ANY CLAIM, DAMAGES OR OTHER LIABILITY, WHETHER
  19:/home/rdu/Workspace/project_templates/mcu/stm32_ws/src/libraries/FreeRTOS/Source/queue.c ****  * IN AN ACTION OF CONTRACT, TORT OR OTHERWISE, ARISING FROM, OUT OF OR IN
  20:/home/rdu/Workspace/project_templates/mcu/stm32_ws/src/libraries/FreeRTOS/Source/queue.c ****  * CONNECTION WITH THE SOFTWARE OR THE USE OR OTHER DEALINGS IN THE SOFTWARE.
  21:/home/rdu/Workspace/project_templates/mcu/stm32_ws/src/libraries/FreeRTOS/Source/queue.c ****  *
  22:/home/rdu/Workspace/project_templates/mcu/stm32_ws/src/libraries/FreeRTOS/Source/queue.c ****  * http://www.FreeRTOS.org
  23:/home/rdu/Workspace/project_templates/mcu/stm32_ws/src/libraries/FreeRTOS/Source/queue.c ****  * http://aws.amazon.com/freertos
  24:/home/rdu/Workspace/project_templates/mcu/stm32_ws/src/libraries/FreeRTOS/Source/queue.c ****  *
  25:/home/rdu/Workspace/project_templates/mcu/stm32_ws/src/libraries/FreeRTOS/Source/queue.c ****  * 1 tab == 4 spaces!
  26:/home/rdu/Workspace/project_templates/mcu/stm32_ws/src/libraries/FreeRTOS/Source/queue.c ****  */
  27:/home/rdu/Workspace/project_templates/mcu/stm32_ws/src/libraries/FreeRTOS/Source/queue.c **** 
  28:/home/rdu/Workspace/project_templates/mcu/stm32_ws/src/libraries/FreeRTOS/Source/queue.c **** #include <stdlib.h>
  29:/home/rdu/Workspace/project_templates/mcu/stm32_ws/src/libraries/FreeRTOS/Source/queue.c **** #include <string.h>
  30:/home/rdu/Workspace/project_templates/mcu/stm32_ws/src/libraries/FreeRTOS/Source/queue.c **** 
  31:/home/rdu/Workspace/project_templates/mcu/stm32_ws/src/libraries/FreeRTOS/Source/queue.c **** /* Defining MPU_WRAPPERS_INCLUDED_FROM_API_FILE prevents task.h from redefining
  32:/home/rdu/Workspace/project_templates/mcu/stm32_ws/src/libraries/FreeRTOS/Source/queue.c **** all the API functions to use the MPU wrappers.  That should only be done when
  33:/home/rdu/Workspace/project_templates/mcu/stm32_ws/src/libraries/FreeRTOS/Source/queue.c **** task.h is included from an application file. */
  34:/home/rdu/Workspace/project_templates/mcu/stm32_ws/src/libraries/FreeRTOS/Source/queue.c **** #define MPU_WRAPPERS_INCLUDED_FROM_API_FILE
  35:/home/rdu/Workspace/project_templates/mcu/stm32_ws/src/libraries/FreeRTOS/Source/queue.c **** 
  36:/home/rdu/Workspace/project_templates/mcu/stm32_ws/src/libraries/FreeRTOS/Source/queue.c **** #include "FreeRTOS.h"
  37:/home/rdu/Workspace/project_templates/mcu/stm32_ws/src/libraries/FreeRTOS/Source/queue.c **** #include "task.h"
  38:/home/rdu/Workspace/project_templates/mcu/stm32_ws/src/libraries/FreeRTOS/Source/queue.c **** #include "queue.h"
  39:/home/rdu/Workspace/project_templates/mcu/stm32_ws/src/libraries/FreeRTOS/Source/queue.c **** 
  40:/home/rdu/Workspace/project_templates/mcu/stm32_ws/src/libraries/FreeRTOS/Source/queue.c **** #if ( configUSE_CO_ROUTINES == 1 )
  41:/home/rdu/Workspace/project_templates/mcu/stm32_ws/src/libraries/FreeRTOS/Source/queue.c **** 	#include "croutine.h"
  42:/home/rdu/Workspace/project_templates/mcu/stm32_ws/src/libraries/FreeRTOS/Source/queue.c **** #endif
  43:/home/rdu/Workspace/project_templates/mcu/stm32_ws/src/libraries/FreeRTOS/Source/queue.c **** 
  44:/home/rdu/Workspace/project_templates/mcu/stm32_ws/src/libraries/FreeRTOS/Source/queue.c **** /* Lint e9021, e961 and e750 are suppressed as a MISRA exception justified
  45:/home/rdu/Workspace/project_templates/mcu/stm32_ws/src/libraries/FreeRTOS/Source/queue.c **** because the MPU ports require MPU_WRAPPERS_INCLUDED_FROM_API_FILE to be defined
  46:/home/rdu/Workspace/project_templates/mcu/stm32_ws/src/libraries/FreeRTOS/Source/queue.c **** for the header files above, but not in this file, in order to generate the
  47:/home/rdu/Workspace/project_templates/mcu/stm32_ws/src/libraries/FreeRTOS/Source/queue.c **** correct privileged Vs unprivileged linkage and placement. */
  48:/home/rdu/Workspace/project_templates/mcu/stm32_ws/src/libraries/FreeRTOS/Source/queue.c **** #undef MPU_WRAPPERS_INCLUDED_FROM_API_FILE /*lint !e961 !e750 !e9021. */
  49:/home/rdu/Workspace/project_templates/mcu/stm32_ws/src/libraries/FreeRTOS/Source/queue.c **** 
  50:/home/rdu/Workspace/project_templates/mcu/stm32_ws/src/libraries/FreeRTOS/Source/queue.c **** 
  51:/home/rdu/Workspace/project_templates/mcu/stm32_ws/src/libraries/FreeRTOS/Source/queue.c **** /* Constants used with the cRxLock and cTxLock structure members. */
  52:/home/rdu/Workspace/project_templates/mcu/stm32_ws/src/libraries/FreeRTOS/Source/queue.c **** #define queueUNLOCKED					( ( int8_t ) -1 )
  53:/home/rdu/Workspace/project_templates/mcu/stm32_ws/src/libraries/FreeRTOS/Source/queue.c **** #define queueLOCKED_UNMODIFIED			( ( int8_t ) 0 )
  54:/home/rdu/Workspace/project_templates/mcu/stm32_ws/src/libraries/FreeRTOS/Source/queue.c **** 
  55:/home/rdu/Workspace/project_templates/mcu/stm32_ws/src/libraries/FreeRTOS/Source/queue.c **** /* When the Queue_t structure is used to represent a base queue its pcHead and
  56:/home/rdu/Workspace/project_templates/mcu/stm32_ws/src/libraries/FreeRTOS/Source/queue.c **** pcTail members are used as pointers into the queue storage area.  When the
  57:/home/rdu/Workspace/project_templates/mcu/stm32_ws/src/libraries/FreeRTOS/Source/queue.c **** Queue_t structure is used to represent a mutex pcHead and pcTail pointers are
  58:/home/rdu/Workspace/project_templates/mcu/stm32_ws/src/libraries/FreeRTOS/Source/queue.c **** not necessary, and the pcHead pointer is set to NULL to indicate that the
  59:/home/rdu/Workspace/project_templates/mcu/stm32_ws/src/libraries/FreeRTOS/Source/queue.c **** structure instead holds a pointer to the mutex holder (if any).  Map alternative
  60:/home/rdu/Workspace/project_templates/mcu/stm32_ws/src/libraries/FreeRTOS/Source/queue.c **** names to the pcHead and structure member to ensure the readability of the code
  61:/home/rdu/Workspace/project_templates/mcu/stm32_ws/src/libraries/FreeRTOS/Source/queue.c **** is maintained.  The QueuePointers_t and SemaphoreData_t types are used to form
  62:/home/rdu/Workspace/project_templates/mcu/stm32_ws/src/libraries/FreeRTOS/Source/queue.c **** a union as their usage is mutually exclusive dependent on what the queue is
  63:/home/rdu/Workspace/project_templates/mcu/stm32_ws/src/libraries/FreeRTOS/Source/queue.c **** being used for. */
  64:/home/rdu/Workspace/project_templates/mcu/stm32_ws/src/libraries/FreeRTOS/Source/queue.c **** #define uxQueueType						pcHead
  65:/home/rdu/Workspace/project_templates/mcu/stm32_ws/src/libraries/FreeRTOS/Source/queue.c **** #define queueQUEUE_IS_MUTEX				NULL
  66:/home/rdu/Workspace/project_templates/mcu/stm32_ws/src/libraries/FreeRTOS/Source/queue.c **** 
  67:/home/rdu/Workspace/project_templates/mcu/stm32_ws/src/libraries/FreeRTOS/Source/queue.c **** typedef struct QueuePointers
  68:/home/rdu/Workspace/project_templates/mcu/stm32_ws/src/libraries/FreeRTOS/Source/queue.c **** {
  69:/home/rdu/Workspace/project_templates/mcu/stm32_ws/src/libraries/FreeRTOS/Source/queue.c **** 	int8_t *pcTail;					/*< Points to the byte at the end of the queue storage area.  Once more byte i
  70:/home/rdu/Workspace/project_templates/mcu/stm32_ws/src/libraries/FreeRTOS/Source/queue.c **** 	int8_t *pcReadFrom;				/*< Points to the last place that a queued item was read from when the stru
  71:/home/rdu/Workspace/project_templates/mcu/stm32_ws/src/libraries/FreeRTOS/Source/queue.c **** } QueuePointers_t;
  72:/home/rdu/Workspace/project_templates/mcu/stm32_ws/src/libraries/FreeRTOS/Source/queue.c **** 
  73:/home/rdu/Workspace/project_templates/mcu/stm32_ws/src/libraries/FreeRTOS/Source/queue.c **** typedef struct SemaphoreData
  74:/home/rdu/Workspace/project_templates/mcu/stm32_ws/src/libraries/FreeRTOS/Source/queue.c **** {
  75:/home/rdu/Workspace/project_templates/mcu/stm32_ws/src/libraries/FreeRTOS/Source/queue.c **** 	TaskHandle_t xMutexHolder;		 /*< The handle of the task that holds the mutex. */
  76:/home/rdu/Workspace/project_templates/mcu/stm32_ws/src/libraries/FreeRTOS/Source/queue.c **** 	UBaseType_t uxRecursiveCallCount;/*< Maintains a count of the number of times a recursive mutex ha
  77:/home/rdu/Workspace/project_templates/mcu/stm32_ws/src/libraries/FreeRTOS/Source/queue.c **** } SemaphoreData_t;
  78:/home/rdu/Workspace/project_templates/mcu/stm32_ws/src/libraries/FreeRTOS/Source/queue.c **** 
  79:/home/rdu/Workspace/project_templates/mcu/stm32_ws/src/libraries/FreeRTOS/Source/queue.c **** /* Semaphores do not actually store or copy data, so have an item size of
  80:/home/rdu/Workspace/project_templates/mcu/stm32_ws/src/libraries/FreeRTOS/Source/queue.c **** zero. */
  81:/home/rdu/Workspace/project_templates/mcu/stm32_ws/src/libraries/FreeRTOS/Source/queue.c **** #define queueSEMAPHORE_QUEUE_ITEM_LENGTH ( ( UBaseType_t ) 0 )
  82:/home/rdu/Workspace/project_templates/mcu/stm32_ws/src/libraries/FreeRTOS/Source/queue.c **** #define queueMUTEX_GIVE_BLOCK_TIME		 ( ( TickType_t ) 0U )
  83:/home/rdu/Workspace/project_templates/mcu/stm32_ws/src/libraries/FreeRTOS/Source/queue.c **** 
  84:/home/rdu/Workspace/project_templates/mcu/stm32_ws/src/libraries/FreeRTOS/Source/queue.c **** #if( configUSE_PREEMPTION == 0 )
  85:/home/rdu/Workspace/project_templates/mcu/stm32_ws/src/libraries/FreeRTOS/Source/queue.c **** 	/* If the cooperative scheduler is being used then a yield should not be
  86:/home/rdu/Workspace/project_templates/mcu/stm32_ws/src/libraries/FreeRTOS/Source/queue.c **** 	performed just because a higher priority task has been woken. */
  87:/home/rdu/Workspace/project_templates/mcu/stm32_ws/src/libraries/FreeRTOS/Source/queue.c **** 	#define queueYIELD_IF_USING_PREEMPTION()
  88:/home/rdu/Workspace/project_templates/mcu/stm32_ws/src/libraries/FreeRTOS/Source/queue.c **** #else
  89:/home/rdu/Workspace/project_templates/mcu/stm32_ws/src/libraries/FreeRTOS/Source/queue.c **** 	#define queueYIELD_IF_USING_PREEMPTION() portYIELD_WITHIN_API()
  90:/home/rdu/Workspace/project_templates/mcu/stm32_ws/src/libraries/FreeRTOS/Source/queue.c **** #endif
  91:/home/rdu/Workspace/project_templates/mcu/stm32_ws/src/libraries/FreeRTOS/Source/queue.c **** 
  92:/home/rdu/Workspace/project_templates/mcu/stm32_ws/src/libraries/FreeRTOS/Source/queue.c **** /*
  93:/home/rdu/Workspace/project_templates/mcu/stm32_ws/src/libraries/FreeRTOS/Source/queue.c ****  * Definition of the queue used by the scheduler.
  94:/home/rdu/Workspace/project_templates/mcu/stm32_ws/src/libraries/FreeRTOS/Source/queue.c ****  * Items are queued by copy, not reference.  See the following link for the
  95:/home/rdu/Workspace/project_templates/mcu/stm32_ws/src/libraries/FreeRTOS/Source/queue.c ****  * rationale: https://www.freertos.org/Embedded-RTOS-Queues.html
  96:/home/rdu/Workspace/project_templates/mcu/stm32_ws/src/libraries/FreeRTOS/Source/queue.c ****  */
  97:/home/rdu/Workspace/project_templates/mcu/stm32_ws/src/libraries/FreeRTOS/Source/queue.c **** typedef struct QueueDefinition /* The old naming convention is used to prevent breaking kernel awar
  98:/home/rdu/Workspace/project_templates/mcu/stm32_ws/src/libraries/FreeRTOS/Source/queue.c **** {
  99:/home/rdu/Workspace/project_templates/mcu/stm32_ws/src/libraries/FreeRTOS/Source/queue.c **** 	int8_t *pcHead;					/*< Points to the beginning of the queue storage area. */
 100:/home/rdu/Workspace/project_templates/mcu/stm32_ws/src/libraries/FreeRTOS/Source/queue.c **** 	int8_t *pcWriteTo;				/*< Points to the free next place in the storage area. */
 101:/home/rdu/Workspace/project_templates/mcu/stm32_ws/src/libraries/FreeRTOS/Source/queue.c **** 
 102:/home/rdu/Workspace/project_templates/mcu/stm32_ws/src/libraries/FreeRTOS/Source/queue.c **** 	union
 103:/home/rdu/Workspace/project_templates/mcu/stm32_ws/src/libraries/FreeRTOS/Source/queue.c **** 	{
 104:/home/rdu/Workspace/project_templates/mcu/stm32_ws/src/libraries/FreeRTOS/Source/queue.c **** 		QueuePointers_t xQueue;		/*< Data required exclusively when this structure is used as a queue. */
 105:/home/rdu/Workspace/project_templates/mcu/stm32_ws/src/libraries/FreeRTOS/Source/queue.c **** 		SemaphoreData_t xSemaphore; /*< Data required exclusively when this structure is used as a semaph
 106:/home/rdu/Workspace/project_templates/mcu/stm32_ws/src/libraries/FreeRTOS/Source/queue.c **** 	} u;
 107:/home/rdu/Workspace/project_templates/mcu/stm32_ws/src/libraries/FreeRTOS/Source/queue.c **** 
 108:/home/rdu/Workspace/project_templates/mcu/stm32_ws/src/libraries/FreeRTOS/Source/queue.c **** 	List_t xTasksWaitingToSend;		/*< List of tasks that are blocked waiting to post onto this queue.  
 109:/home/rdu/Workspace/project_templates/mcu/stm32_ws/src/libraries/FreeRTOS/Source/queue.c **** 	List_t xTasksWaitingToReceive;	/*< List of tasks that are blocked waiting to read from this queue.
 110:/home/rdu/Workspace/project_templates/mcu/stm32_ws/src/libraries/FreeRTOS/Source/queue.c **** 
 111:/home/rdu/Workspace/project_templates/mcu/stm32_ws/src/libraries/FreeRTOS/Source/queue.c **** 	volatile UBaseType_t uxMessagesWaiting;/*< The number of items currently in the queue. */
 112:/home/rdu/Workspace/project_templates/mcu/stm32_ws/src/libraries/FreeRTOS/Source/queue.c **** 	UBaseType_t uxLength;			/*< The length of the queue defined as the number of items it will hold, n
 113:/home/rdu/Workspace/project_templates/mcu/stm32_ws/src/libraries/FreeRTOS/Source/queue.c **** 	UBaseType_t uxItemSize;			/*< The size of each items that the queue will hold. */
 114:/home/rdu/Workspace/project_templates/mcu/stm32_ws/src/libraries/FreeRTOS/Source/queue.c **** 
 115:/home/rdu/Workspace/project_templates/mcu/stm32_ws/src/libraries/FreeRTOS/Source/queue.c **** 	volatile int8_t cRxLock;		/*< Stores the number of items received from the queue (removed from the
 116:/home/rdu/Workspace/project_templates/mcu/stm32_ws/src/libraries/FreeRTOS/Source/queue.c **** 	volatile int8_t cTxLock;		/*< Stores the number of items transmitted to the queue (added to the qu
 117:/home/rdu/Workspace/project_templates/mcu/stm32_ws/src/libraries/FreeRTOS/Source/queue.c **** 
 118:/home/rdu/Workspace/project_templates/mcu/stm32_ws/src/libraries/FreeRTOS/Source/queue.c **** 	#if( ( configSUPPORT_STATIC_ALLOCATION == 1 ) && ( configSUPPORT_DYNAMIC_ALLOCATION == 1 ) )
 119:/home/rdu/Workspace/project_templates/mcu/stm32_ws/src/libraries/FreeRTOS/Source/queue.c **** 		uint8_t ucStaticallyAllocated;	/*< Set to pdTRUE if the memory used by the queue was statically a
 120:/home/rdu/Workspace/project_templates/mcu/stm32_ws/src/libraries/FreeRTOS/Source/queue.c **** 	#endif
 121:/home/rdu/Workspace/project_templates/mcu/stm32_ws/src/libraries/FreeRTOS/Source/queue.c **** 
 122:/home/rdu/Workspace/project_templates/mcu/stm32_ws/src/libraries/FreeRTOS/Source/queue.c **** 	#if ( configUSE_QUEUE_SETS == 1 )
 123:/home/rdu/Workspace/project_templates/mcu/stm32_ws/src/libraries/FreeRTOS/Source/queue.c **** 		struct QueueDefinition *pxQueueSetContainer;
 124:/home/rdu/Workspace/project_templates/mcu/stm32_ws/src/libraries/FreeRTOS/Source/queue.c **** 	#endif
 125:/home/rdu/Workspace/project_templates/mcu/stm32_ws/src/libraries/FreeRTOS/Source/queue.c **** 
 126:/home/rdu/Workspace/project_templates/mcu/stm32_ws/src/libraries/FreeRTOS/Source/queue.c **** 	#if ( configUSE_TRACE_FACILITY == 1 )
 127:/home/rdu/Workspace/project_templates/mcu/stm32_ws/src/libraries/FreeRTOS/Source/queue.c **** 		UBaseType_t uxQueueNumber;
 128:/home/rdu/Workspace/project_templates/mcu/stm32_ws/src/libraries/FreeRTOS/Source/queue.c **** 		uint8_t ucQueueType;
 129:/home/rdu/Workspace/project_templates/mcu/stm32_ws/src/libraries/FreeRTOS/Source/queue.c **** 	#endif
 130:/home/rdu/Workspace/project_templates/mcu/stm32_ws/src/libraries/FreeRTOS/Source/queue.c **** 
 131:/home/rdu/Workspace/project_templates/mcu/stm32_ws/src/libraries/FreeRTOS/Source/queue.c **** } xQUEUE;
 132:/home/rdu/Workspace/project_templates/mcu/stm32_ws/src/libraries/FreeRTOS/Source/queue.c **** 
 133:/home/rdu/Workspace/project_templates/mcu/stm32_ws/src/libraries/FreeRTOS/Source/queue.c **** /* The old xQUEUE name is maintained above then typedefed to the new Queue_t
 134:/home/rdu/Workspace/project_templates/mcu/stm32_ws/src/libraries/FreeRTOS/Source/queue.c **** name below to enable the use of older kernel aware debuggers. */
 135:/home/rdu/Workspace/project_templates/mcu/stm32_ws/src/libraries/FreeRTOS/Source/queue.c **** typedef xQUEUE Queue_t;
 136:/home/rdu/Workspace/project_templates/mcu/stm32_ws/src/libraries/FreeRTOS/Source/queue.c **** 
 137:/home/rdu/Workspace/project_templates/mcu/stm32_ws/src/libraries/FreeRTOS/Source/queue.c **** /*-----------------------------------------------------------*/
 138:/home/rdu/Workspace/project_templates/mcu/stm32_ws/src/libraries/FreeRTOS/Source/queue.c **** 
 139:/home/rdu/Workspace/project_templates/mcu/stm32_ws/src/libraries/FreeRTOS/Source/queue.c **** /*
 140:/home/rdu/Workspace/project_templates/mcu/stm32_ws/src/libraries/FreeRTOS/Source/queue.c ****  * The queue registry is just a means for kernel aware debuggers to locate
 141:/home/rdu/Workspace/project_templates/mcu/stm32_ws/src/libraries/FreeRTOS/Source/queue.c ****  * queue structures.  It has no other purpose so is an optional component.
 142:/home/rdu/Workspace/project_templates/mcu/stm32_ws/src/libraries/FreeRTOS/Source/queue.c ****  */
 143:/home/rdu/Workspace/project_templates/mcu/stm32_ws/src/libraries/FreeRTOS/Source/queue.c **** #if ( configQUEUE_REGISTRY_SIZE > 0 )
 144:/home/rdu/Workspace/project_templates/mcu/stm32_ws/src/libraries/FreeRTOS/Source/queue.c **** 
 145:/home/rdu/Workspace/project_templates/mcu/stm32_ws/src/libraries/FreeRTOS/Source/queue.c **** 	/* The type stored within the queue registry array.  This allows a name
 146:/home/rdu/Workspace/project_templates/mcu/stm32_ws/src/libraries/FreeRTOS/Source/queue.c **** 	to be assigned to each queue making kernel aware debugging a little
 147:/home/rdu/Workspace/project_templates/mcu/stm32_ws/src/libraries/FreeRTOS/Source/queue.c **** 	more user friendly. */
 148:/home/rdu/Workspace/project_templates/mcu/stm32_ws/src/libraries/FreeRTOS/Source/queue.c **** 	typedef struct QUEUE_REGISTRY_ITEM
 149:/home/rdu/Workspace/project_templates/mcu/stm32_ws/src/libraries/FreeRTOS/Source/queue.c **** 	{
 150:/home/rdu/Workspace/project_templates/mcu/stm32_ws/src/libraries/FreeRTOS/Source/queue.c **** 		const char *pcQueueName; /*lint !e971 Unqualified char types are allowed for strings and single c
 151:/home/rdu/Workspace/project_templates/mcu/stm32_ws/src/libraries/FreeRTOS/Source/queue.c **** 		QueueHandle_t xHandle;
 152:/home/rdu/Workspace/project_templates/mcu/stm32_ws/src/libraries/FreeRTOS/Source/queue.c **** 	} xQueueRegistryItem;
 153:/home/rdu/Workspace/project_templates/mcu/stm32_ws/src/libraries/FreeRTOS/Source/queue.c **** 
 154:/home/rdu/Workspace/project_templates/mcu/stm32_ws/src/libraries/FreeRTOS/Source/queue.c **** 	/* The old xQueueRegistryItem name is maintained above then typedefed to the
 155:/home/rdu/Workspace/project_templates/mcu/stm32_ws/src/libraries/FreeRTOS/Source/queue.c **** 	new xQueueRegistryItem name below to enable the use of older kernel aware
 156:/home/rdu/Workspace/project_templates/mcu/stm32_ws/src/libraries/FreeRTOS/Source/queue.c **** 	debuggers. */
 157:/home/rdu/Workspace/project_templates/mcu/stm32_ws/src/libraries/FreeRTOS/Source/queue.c **** 	typedef xQueueRegistryItem QueueRegistryItem_t;
 158:/home/rdu/Workspace/project_templates/mcu/stm32_ws/src/libraries/FreeRTOS/Source/queue.c **** 
 159:/home/rdu/Workspace/project_templates/mcu/stm32_ws/src/libraries/FreeRTOS/Source/queue.c **** 	/* The queue registry is simply an array of QueueRegistryItem_t structures.
 160:/home/rdu/Workspace/project_templates/mcu/stm32_ws/src/libraries/FreeRTOS/Source/queue.c **** 	The pcQueueName member of a structure being NULL is indicative of the
 161:/home/rdu/Workspace/project_templates/mcu/stm32_ws/src/libraries/FreeRTOS/Source/queue.c **** 	array position being vacant. */
 162:/home/rdu/Workspace/project_templates/mcu/stm32_ws/src/libraries/FreeRTOS/Source/queue.c **** 	PRIVILEGED_DATA QueueRegistryItem_t xQueueRegistry[ configQUEUE_REGISTRY_SIZE ];
 163:/home/rdu/Workspace/project_templates/mcu/stm32_ws/src/libraries/FreeRTOS/Source/queue.c **** 
 164:/home/rdu/Workspace/project_templates/mcu/stm32_ws/src/libraries/FreeRTOS/Source/queue.c **** #endif /* configQUEUE_REGISTRY_SIZE */
 165:/home/rdu/Workspace/project_templates/mcu/stm32_ws/src/libraries/FreeRTOS/Source/queue.c **** 
 166:/home/rdu/Workspace/project_templates/mcu/stm32_ws/src/libraries/FreeRTOS/Source/queue.c **** /*
 167:/home/rdu/Workspace/project_templates/mcu/stm32_ws/src/libraries/FreeRTOS/Source/queue.c ****  * Unlocks a queue locked by a call to prvLockQueue.  Locking a queue does not
 168:/home/rdu/Workspace/project_templates/mcu/stm32_ws/src/libraries/FreeRTOS/Source/queue.c ****  * prevent an ISR from adding or removing items to the queue, but does prevent
 169:/home/rdu/Workspace/project_templates/mcu/stm32_ws/src/libraries/FreeRTOS/Source/queue.c ****  * an ISR from removing tasks from the queue event lists.  If an ISR finds a
 170:/home/rdu/Workspace/project_templates/mcu/stm32_ws/src/libraries/FreeRTOS/Source/queue.c ****  * queue is locked it will instead increment the appropriate queue lock count
 171:/home/rdu/Workspace/project_templates/mcu/stm32_ws/src/libraries/FreeRTOS/Source/queue.c ****  * to indicate that a task may require unblocking.  When the queue in unlocked
 172:/home/rdu/Workspace/project_templates/mcu/stm32_ws/src/libraries/FreeRTOS/Source/queue.c ****  * these lock counts are inspected, and the appropriate action taken.
 173:/home/rdu/Workspace/project_templates/mcu/stm32_ws/src/libraries/FreeRTOS/Source/queue.c ****  */
 174:/home/rdu/Workspace/project_templates/mcu/stm32_ws/src/libraries/FreeRTOS/Source/queue.c **** static void prvUnlockQueue( Queue_t * const pxQueue ) PRIVILEGED_FUNCTION;
 175:/home/rdu/Workspace/project_templates/mcu/stm32_ws/src/libraries/FreeRTOS/Source/queue.c **** 
 176:/home/rdu/Workspace/project_templates/mcu/stm32_ws/src/libraries/FreeRTOS/Source/queue.c **** /*
 177:/home/rdu/Workspace/project_templates/mcu/stm32_ws/src/libraries/FreeRTOS/Source/queue.c ****  * Uses a critical section to determine if there is any data in a queue.
 178:/home/rdu/Workspace/project_templates/mcu/stm32_ws/src/libraries/FreeRTOS/Source/queue.c ****  *
 179:/home/rdu/Workspace/project_templates/mcu/stm32_ws/src/libraries/FreeRTOS/Source/queue.c ****  * @return pdTRUE if the queue contains no items, otherwise pdFALSE.
 180:/home/rdu/Workspace/project_templates/mcu/stm32_ws/src/libraries/FreeRTOS/Source/queue.c ****  */
 181:/home/rdu/Workspace/project_templates/mcu/stm32_ws/src/libraries/FreeRTOS/Source/queue.c **** static BaseType_t prvIsQueueEmpty( const Queue_t *pxQueue ) PRIVILEGED_FUNCTION;
 182:/home/rdu/Workspace/project_templates/mcu/stm32_ws/src/libraries/FreeRTOS/Source/queue.c **** 
 183:/home/rdu/Workspace/project_templates/mcu/stm32_ws/src/libraries/FreeRTOS/Source/queue.c **** /*
 184:/home/rdu/Workspace/project_templates/mcu/stm32_ws/src/libraries/FreeRTOS/Source/queue.c ****  * Uses a critical section to determine if there is any space in a queue.
 185:/home/rdu/Workspace/project_templates/mcu/stm32_ws/src/libraries/FreeRTOS/Source/queue.c ****  *
 186:/home/rdu/Workspace/project_templates/mcu/stm32_ws/src/libraries/FreeRTOS/Source/queue.c ****  * @return pdTRUE if there is no space, otherwise pdFALSE;
 187:/home/rdu/Workspace/project_templates/mcu/stm32_ws/src/libraries/FreeRTOS/Source/queue.c ****  */
 188:/home/rdu/Workspace/project_templates/mcu/stm32_ws/src/libraries/FreeRTOS/Source/queue.c **** static BaseType_t prvIsQueueFull( const Queue_t *pxQueue ) PRIVILEGED_FUNCTION;
 189:/home/rdu/Workspace/project_templates/mcu/stm32_ws/src/libraries/FreeRTOS/Source/queue.c **** 
 190:/home/rdu/Workspace/project_templates/mcu/stm32_ws/src/libraries/FreeRTOS/Source/queue.c **** /*
 191:/home/rdu/Workspace/project_templates/mcu/stm32_ws/src/libraries/FreeRTOS/Source/queue.c ****  * Copies an item into the queue, either at the front of the queue or the
 192:/home/rdu/Workspace/project_templates/mcu/stm32_ws/src/libraries/FreeRTOS/Source/queue.c ****  * back of the queue.
 193:/home/rdu/Workspace/project_templates/mcu/stm32_ws/src/libraries/FreeRTOS/Source/queue.c ****  */
 194:/home/rdu/Workspace/project_templates/mcu/stm32_ws/src/libraries/FreeRTOS/Source/queue.c **** static BaseType_t prvCopyDataToQueue( Queue_t * const pxQueue, const void *pvItemToQueue, const Bas
 195:/home/rdu/Workspace/project_templates/mcu/stm32_ws/src/libraries/FreeRTOS/Source/queue.c **** 
 196:/home/rdu/Workspace/project_templates/mcu/stm32_ws/src/libraries/FreeRTOS/Source/queue.c **** /*
 197:/home/rdu/Workspace/project_templates/mcu/stm32_ws/src/libraries/FreeRTOS/Source/queue.c ****  * Copies an item out of a queue.
 198:/home/rdu/Workspace/project_templates/mcu/stm32_ws/src/libraries/FreeRTOS/Source/queue.c ****  */
 199:/home/rdu/Workspace/project_templates/mcu/stm32_ws/src/libraries/FreeRTOS/Source/queue.c **** static void prvCopyDataFromQueue( Queue_t * const pxQueue, void * const pvBuffer ) PRIVILEGED_FUNCT
 200:/home/rdu/Workspace/project_templates/mcu/stm32_ws/src/libraries/FreeRTOS/Source/queue.c **** 
 201:/home/rdu/Workspace/project_templates/mcu/stm32_ws/src/libraries/FreeRTOS/Source/queue.c **** #if ( configUSE_QUEUE_SETS == 1 )
 202:/home/rdu/Workspace/project_templates/mcu/stm32_ws/src/libraries/FreeRTOS/Source/queue.c **** 	/*
 203:/home/rdu/Workspace/project_templates/mcu/stm32_ws/src/libraries/FreeRTOS/Source/queue.c **** 	 * Checks to see if a queue is a member of a queue set, and if so, notifies
 204:/home/rdu/Workspace/project_templates/mcu/stm32_ws/src/libraries/FreeRTOS/Source/queue.c **** 	 * the queue set that the queue contains data.
 205:/home/rdu/Workspace/project_templates/mcu/stm32_ws/src/libraries/FreeRTOS/Source/queue.c **** 	 */
 206:/home/rdu/Workspace/project_templates/mcu/stm32_ws/src/libraries/FreeRTOS/Source/queue.c **** 	static BaseType_t prvNotifyQueueSetContainer( const Queue_t * const pxQueue, const BaseType_t xCop
 207:/home/rdu/Workspace/project_templates/mcu/stm32_ws/src/libraries/FreeRTOS/Source/queue.c **** #endif
 208:/home/rdu/Workspace/project_templates/mcu/stm32_ws/src/libraries/FreeRTOS/Source/queue.c **** 
 209:/home/rdu/Workspace/project_templates/mcu/stm32_ws/src/libraries/FreeRTOS/Source/queue.c **** /*
 210:/home/rdu/Workspace/project_templates/mcu/stm32_ws/src/libraries/FreeRTOS/Source/queue.c ****  * Called after a Queue_t structure has been allocated either statically or
 211:/home/rdu/Workspace/project_templates/mcu/stm32_ws/src/libraries/FreeRTOS/Source/queue.c ****  * dynamically to fill in the structure's members.
 212:/home/rdu/Workspace/project_templates/mcu/stm32_ws/src/libraries/FreeRTOS/Source/queue.c ****  */
 213:/home/rdu/Workspace/project_templates/mcu/stm32_ws/src/libraries/FreeRTOS/Source/queue.c **** static void prvInitialiseNewQueue( const UBaseType_t uxQueueLength, const UBaseType_t uxItemSize, u
 214:/home/rdu/Workspace/project_templates/mcu/stm32_ws/src/libraries/FreeRTOS/Source/queue.c **** 
 215:/home/rdu/Workspace/project_templates/mcu/stm32_ws/src/libraries/FreeRTOS/Source/queue.c **** /*
 216:/home/rdu/Workspace/project_templates/mcu/stm32_ws/src/libraries/FreeRTOS/Source/queue.c ****  * Mutexes are a special type of queue.  When a mutex is created, first the
 217:/home/rdu/Workspace/project_templates/mcu/stm32_ws/src/libraries/FreeRTOS/Source/queue.c ****  * queue is created, then prvInitialiseMutex() is called to configure the queue
 218:/home/rdu/Workspace/project_templates/mcu/stm32_ws/src/libraries/FreeRTOS/Source/queue.c ****  * as a mutex.
 219:/home/rdu/Workspace/project_templates/mcu/stm32_ws/src/libraries/FreeRTOS/Source/queue.c ****  */
 220:/home/rdu/Workspace/project_templates/mcu/stm32_ws/src/libraries/FreeRTOS/Source/queue.c **** #if( configUSE_MUTEXES == 1 )
 221:/home/rdu/Workspace/project_templates/mcu/stm32_ws/src/libraries/FreeRTOS/Source/queue.c **** 	static void prvInitialiseMutex( Queue_t *pxNewQueue ) PRIVILEGED_FUNCTION;
 222:/home/rdu/Workspace/project_templates/mcu/stm32_ws/src/libraries/FreeRTOS/Source/queue.c **** #endif
 223:/home/rdu/Workspace/project_templates/mcu/stm32_ws/src/libraries/FreeRTOS/Source/queue.c **** 
 224:/home/rdu/Workspace/project_templates/mcu/stm32_ws/src/libraries/FreeRTOS/Source/queue.c **** #if( configUSE_MUTEXES == 1 )
 225:/home/rdu/Workspace/project_templates/mcu/stm32_ws/src/libraries/FreeRTOS/Source/queue.c **** 	/*
 226:/home/rdu/Workspace/project_templates/mcu/stm32_ws/src/libraries/FreeRTOS/Source/queue.c **** 	 * If a task waiting for a mutex causes the mutex holder to inherit a
 227:/home/rdu/Workspace/project_templates/mcu/stm32_ws/src/libraries/FreeRTOS/Source/queue.c **** 	 * priority, but the waiting task times out, then the holder should
 228:/home/rdu/Workspace/project_templates/mcu/stm32_ws/src/libraries/FreeRTOS/Source/queue.c **** 	 * disinherit the priority - but only down to the highest priority of any
 229:/home/rdu/Workspace/project_templates/mcu/stm32_ws/src/libraries/FreeRTOS/Source/queue.c **** 	 * other tasks that are waiting for the same mutex.  This function returns
 230:/home/rdu/Workspace/project_templates/mcu/stm32_ws/src/libraries/FreeRTOS/Source/queue.c **** 	 * that priority.
 231:/home/rdu/Workspace/project_templates/mcu/stm32_ws/src/libraries/FreeRTOS/Source/queue.c **** 	 */
 232:/home/rdu/Workspace/project_templates/mcu/stm32_ws/src/libraries/FreeRTOS/Source/queue.c **** 	static UBaseType_t prvGetDisinheritPriorityAfterTimeout( const Queue_t * const pxQueue ) PRIVILEGE
 233:/home/rdu/Workspace/project_templates/mcu/stm32_ws/src/libraries/FreeRTOS/Source/queue.c **** #endif
 234:/home/rdu/Workspace/project_templates/mcu/stm32_ws/src/libraries/FreeRTOS/Source/queue.c **** /*-----------------------------------------------------------*/
 235:/home/rdu/Workspace/project_templates/mcu/stm32_ws/src/libraries/FreeRTOS/Source/queue.c **** 
 236:/home/rdu/Workspace/project_templates/mcu/stm32_ws/src/libraries/FreeRTOS/Source/queue.c **** /*
 237:/home/rdu/Workspace/project_templates/mcu/stm32_ws/src/libraries/FreeRTOS/Source/queue.c ****  * Macro to mark a queue as locked.  Locking a queue prevents an ISR from
 238:/home/rdu/Workspace/project_templates/mcu/stm32_ws/src/libraries/FreeRTOS/Source/queue.c ****  * accessing the queue event lists.
 239:/home/rdu/Workspace/project_templates/mcu/stm32_ws/src/libraries/FreeRTOS/Source/queue.c ****  */
 240:/home/rdu/Workspace/project_templates/mcu/stm32_ws/src/libraries/FreeRTOS/Source/queue.c **** #define prvLockQueue( pxQueue )								\
 241:/home/rdu/Workspace/project_templates/mcu/stm32_ws/src/libraries/FreeRTOS/Source/queue.c **** 	taskENTER_CRITICAL();									\
 242:/home/rdu/Workspace/project_templates/mcu/stm32_ws/src/libraries/FreeRTOS/Source/queue.c **** 	{														\
 243:/home/rdu/Workspace/project_templates/mcu/stm32_ws/src/libraries/FreeRTOS/Source/queue.c **** 		if( ( pxQueue )->cRxLock == queueUNLOCKED )			\
 244:/home/rdu/Workspace/project_templates/mcu/stm32_ws/src/libraries/FreeRTOS/Source/queue.c **** 		{													\
 245:/home/rdu/Workspace/project_templates/mcu/stm32_ws/src/libraries/FreeRTOS/Source/queue.c **** 			( pxQueue )->cRxLock = queueLOCKED_UNMODIFIED;	\
 246:/home/rdu/Workspace/project_templates/mcu/stm32_ws/src/libraries/FreeRTOS/Source/queue.c **** 		}													\
 247:/home/rdu/Workspace/project_templates/mcu/stm32_ws/src/libraries/FreeRTOS/Source/queue.c **** 		if( ( pxQueue )->cTxLock == queueUNLOCKED )			\
 248:/home/rdu/Workspace/project_templates/mcu/stm32_ws/src/libraries/FreeRTOS/Source/queue.c **** 		{													\
 249:/home/rdu/Workspace/project_templates/mcu/stm32_ws/src/libraries/FreeRTOS/Source/queue.c **** 			( pxQueue )->cTxLock = queueLOCKED_UNMODIFIED;	\
 250:/home/rdu/Workspace/project_templates/mcu/stm32_ws/src/libraries/FreeRTOS/Source/queue.c **** 		}													\
 251:/home/rdu/Workspace/project_templates/mcu/stm32_ws/src/libraries/FreeRTOS/Source/queue.c **** 	}														\
 252:/home/rdu/Workspace/project_templates/mcu/stm32_ws/src/libraries/FreeRTOS/Source/queue.c **** 	taskEXIT_CRITICAL()
 253:/home/rdu/Workspace/project_templates/mcu/stm32_ws/src/libraries/FreeRTOS/Source/queue.c **** /*-----------------------------------------------------------*/
 254:/home/rdu/Workspace/project_templates/mcu/stm32_ws/src/libraries/FreeRTOS/Source/queue.c **** 
 255:/home/rdu/Workspace/project_templates/mcu/stm32_ws/src/libraries/FreeRTOS/Source/queue.c **** BaseType_t xQueueGenericReset( QueueHandle_t xQueue, BaseType_t xNewQueue )
 256:/home/rdu/Workspace/project_templates/mcu/stm32_ws/src/libraries/FreeRTOS/Source/queue.c **** {
  27              		.loc 1 256 0
  28              		.cfi_startproc
  29              		@ args = 0, pretend = 0, frame = 16
  30              		@ frame_needed = 0, uses_anonymous_args = 0
  31 0000 00B5     		push	{lr}
  32              	.LCFI0:
  33              		.cfi_def_cfa_offset 4
  34              		.cfi_offset 14, -4
  35 0002 85B0     		sub	sp, sp, #20
  36              	.LCFI1:
  37              		.cfi_def_cfa_offset 24
  38 0004 0190     		str	r0, [sp, #4]
  39 0006 0091     		str	r1, [sp]
 257:/home/rdu/Workspace/project_templates/mcu/stm32_ws/src/libraries/FreeRTOS/Source/queue.c **** Queue_t * const pxQueue = xQueue;
  40              		.loc 1 257 0
  41 0008 019B     		ldr	r3, [sp, #4]
  42 000a 0393     		str	r3, [sp, #12]
 258:/home/rdu/Workspace/project_templates/mcu/stm32_ws/src/libraries/FreeRTOS/Source/queue.c **** 
 259:/home/rdu/Workspace/project_templates/mcu/stm32_ws/src/libraries/FreeRTOS/Source/queue.c **** 	configASSERT( pxQueue );
  43              		.loc 1 259 0
  44 000c 039B     		ldr	r3, [sp, #12]
  45 000e 002B     		cmp	r3, #0
  46 0010 09D1     		bne	.L2
  47              	.LBB101:
  48              	.LBB102:
  49              		.file 2 "/home/rdu/Workspace/project_templates/mcu/stm32_ws/src/libraries/FreeRTOS/Source/portable
   1:/home/rdu/Workspace/project_templates/mcu/stm32_ws/src/libraries/FreeRTOS/Source/portable/GCC/ARM_CM4F/portmacro.h **** /*
   2:/home/rdu/Workspace/project_templates/mcu/stm32_ws/src/libraries/FreeRTOS/Source/portable/GCC/ARM_CM4F/portmacro.h ****  * FreeRTOS Kernel V10.1.1
   3:/home/rdu/Workspace/project_templates/mcu/stm32_ws/src/libraries/FreeRTOS/Source/portable/GCC/ARM_CM4F/portmacro.h ****  * Copyright (C) 2018 Amazon.com, Inc. or its affiliates.  All Rights Reserved.
   4:/home/rdu/Workspace/project_templates/mcu/stm32_ws/src/libraries/FreeRTOS/Source/portable/GCC/ARM_CM4F/portmacro.h ****  *
   5:/home/rdu/Workspace/project_templates/mcu/stm32_ws/src/libraries/FreeRTOS/Source/portable/GCC/ARM_CM4F/portmacro.h ****  * Permission is hereby granted, free of charge, to any person obtaining a copy of
   6:/home/rdu/Workspace/project_templates/mcu/stm32_ws/src/libraries/FreeRTOS/Source/portable/GCC/ARM_CM4F/portmacro.h ****  * this software and associated documentation files (the "Software"), to deal in
   7:/home/rdu/Workspace/project_templates/mcu/stm32_ws/src/libraries/FreeRTOS/Source/portable/GCC/ARM_CM4F/portmacro.h ****  * the Software without restriction, including without limitation the rights to
   8:/home/rdu/Workspace/project_templates/mcu/stm32_ws/src/libraries/FreeRTOS/Source/portable/GCC/ARM_CM4F/portmacro.h ****  * use, copy, modify, merge, publish, distribute, sublicense, and/or sell copies of
   9:/home/rdu/Workspace/project_templates/mcu/stm32_ws/src/libraries/FreeRTOS/Source/portable/GCC/ARM_CM4F/portmacro.h ****  * the Software, and to permit persons to whom the Software is furnished to do so,
  10:/home/rdu/Workspace/project_templates/mcu/stm32_ws/src/libraries/FreeRTOS/Source/portable/GCC/ARM_CM4F/portmacro.h ****  * subject to the following conditions:
  11:/home/rdu/Workspace/project_templates/mcu/stm32_ws/src/libraries/FreeRTOS/Source/portable/GCC/ARM_CM4F/portmacro.h ****  *
  12:/home/rdu/Workspace/project_templates/mcu/stm32_ws/src/libraries/FreeRTOS/Source/portable/GCC/ARM_CM4F/portmacro.h ****  * The above copyright notice and this permission notice shall be included in all
  13:/home/rdu/Workspace/project_templates/mcu/stm32_ws/src/libraries/FreeRTOS/Source/portable/GCC/ARM_CM4F/portmacro.h ****  * copies or substantial portions of the Software.
  14:/home/rdu/Workspace/project_templates/mcu/stm32_ws/src/libraries/FreeRTOS/Source/portable/GCC/ARM_CM4F/portmacro.h ****  *
  15:/home/rdu/Workspace/project_templates/mcu/stm32_ws/src/libraries/FreeRTOS/Source/portable/GCC/ARM_CM4F/portmacro.h ****  * THE SOFTWARE IS PROVIDED "AS IS", WITHOUT WARRANTY OF ANY KIND, EXPRESS OR
  16:/home/rdu/Workspace/project_templates/mcu/stm32_ws/src/libraries/FreeRTOS/Source/portable/GCC/ARM_CM4F/portmacro.h ****  * IMPLIED, INCLUDING BUT NOT LIMITED TO THE WARRANTIES OF MERCHANTABILITY, FITNESS
  17:/home/rdu/Workspace/project_templates/mcu/stm32_ws/src/libraries/FreeRTOS/Source/portable/GCC/ARM_CM4F/portmacro.h ****  * FOR A PARTICULAR PURPOSE AND NONINFRINGEMENT. IN NO EVENT SHALL THE AUTHORS OR
  18:/home/rdu/Workspace/project_templates/mcu/stm32_ws/src/libraries/FreeRTOS/Source/portable/GCC/ARM_CM4F/portmacro.h ****  * COPYRIGHT HOLDERS BE LIABLE FOR ANY CLAIM, DAMAGES OR OTHER LIABILITY, WHETHER
  19:/home/rdu/Workspace/project_templates/mcu/stm32_ws/src/libraries/FreeRTOS/Source/portable/GCC/ARM_CM4F/portmacro.h ****  * IN AN ACTION OF CONTRACT, TORT OR OTHERWISE, ARISING FROM, OUT OF OR IN
  20:/home/rdu/Workspace/project_templates/mcu/stm32_ws/src/libraries/FreeRTOS/Source/portable/GCC/ARM_CM4F/portmacro.h ****  * CONNECTION WITH THE SOFTWARE OR THE USE OR OTHER DEALINGS IN THE SOFTWARE.
  21:/home/rdu/Workspace/project_templates/mcu/stm32_ws/src/libraries/FreeRTOS/Source/portable/GCC/ARM_CM4F/portmacro.h ****  *
  22:/home/rdu/Workspace/project_templates/mcu/stm32_ws/src/libraries/FreeRTOS/Source/portable/GCC/ARM_CM4F/portmacro.h ****  * http://www.FreeRTOS.org
  23:/home/rdu/Workspace/project_templates/mcu/stm32_ws/src/libraries/FreeRTOS/Source/portable/GCC/ARM_CM4F/portmacro.h ****  * http://aws.amazon.com/freertos
  24:/home/rdu/Workspace/project_templates/mcu/stm32_ws/src/libraries/FreeRTOS/Source/portable/GCC/ARM_CM4F/portmacro.h ****  *
  25:/home/rdu/Workspace/project_templates/mcu/stm32_ws/src/libraries/FreeRTOS/Source/portable/GCC/ARM_CM4F/portmacro.h ****  * 1 tab == 4 spaces!
  26:/home/rdu/Workspace/project_templates/mcu/stm32_ws/src/libraries/FreeRTOS/Source/portable/GCC/ARM_CM4F/portmacro.h ****  */
  27:/home/rdu/Workspace/project_templates/mcu/stm32_ws/src/libraries/FreeRTOS/Source/portable/GCC/ARM_CM4F/portmacro.h **** 
  28:/home/rdu/Workspace/project_templates/mcu/stm32_ws/src/libraries/FreeRTOS/Source/portable/GCC/ARM_CM4F/portmacro.h **** 
  29:/home/rdu/Workspace/project_templates/mcu/stm32_ws/src/libraries/FreeRTOS/Source/portable/GCC/ARM_CM4F/portmacro.h **** #ifndef PORTMACRO_H
  30:/home/rdu/Workspace/project_templates/mcu/stm32_ws/src/libraries/FreeRTOS/Source/portable/GCC/ARM_CM4F/portmacro.h **** #define PORTMACRO_H
  31:/home/rdu/Workspace/project_templates/mcu/stm32_ws/src/libraries/FreeRTOS/Source/portable/GCC/ARM_CM4F/portmacro.h **** 
  32:/home/rdu/Workspace/project_templates/mcu/stm32_ws/src/libraries/FreeRTOS/Source/portable/GCC/ARM_CM4F/portmacro.h **** #ifdef __cplusplus
  33:/home/rdu/Workspace/project_templates/mcu/stm32_ws/src/libraries/FreeRTOS/Source/portable/GCC/ARM_CM4F/portmacro.h **** extern "C" {
  34:/home/rdu/Workspace/project_templates/mcu/stm32_ws/src/libraries/FreeRTOS/Source/portable/GCC/ARM_CM4F/portmacro.h **** #endif
  35:/home/rdu/Workspace/project_templates/mcu/stm32_ws/src/libraries/FreeRTOS/Source/portable/GCC/ARM_CM4F/portmacro.h **** 
  36:/home/rdu/Workspace/project_templates/mcu/stm32_ws/src/libraries/FreeRTOS/Source/portable/GCC/ARM_CM4F/portmacro.h **** /*-----------------------------------------------------------
  37:/home/rdu/Workspace/project_templates/mcu/stm32_ws/src/libraries/FreeRTOS/Source/portable/GCC/ARM_CM4F/portmacro.h ****  * Port specific definitions.
  38:/home/rdu/Workspace/project_templates/mcu/stm32_ws/src/libraries/FreeRTOS/Source/portable/GCC/ARM_CM4F/portmacro.h ****  *
  39:/home/rdu/Workspace/project_templates/mcu/stm32_ws/src/libraries/FreeRTOS/Source/portable/GCC/ARM_CM4F/portmacro.h ****  * The settings in this file configure FreeRTOS correctly for the
  40:/home/rdu/Workspace/project_templates/mcu/stm32_ws/src/libraries/FreeRTOS/Source/portable/GCC/ARM_CM4F/portmacro.h ****  * given hardware and compiler.
  41:/home/rdu/Workspace/project_templates/mcu/stm32_ws/src/libraries/FreeRTOS/Source/portable/GCC/ARM_CM4F/portmacro.h ****  *
  42:/home/rdu/Workspace/project_templates/mcu/stm32_ws/src/libraries/FreeRTOS/Source/portable/GCC/ARM_CM4F/portmacro.h ****  * These settings should not be altered.
  43:/home/rdu/Workspace/project_templates/mcu/stm32_ws/src/libraries/FreeRTOS/Source/portable/GCC/ARM_CM4F/portmacro.h ****  *-----------------------------------------------------------
  44:/home/rdu/Workspace/project_templates/mcu/stm32_ws/src/libraries/FreeRTOS/Source/portable/GCC/ARM_CM4F/portmacro.h ****  */
  45:/home/rdu/Workspace/project_templates/mcu/stm32_ws/src/libraries/FreeRTOS/Source/portable/GCC/ARM_CM4F/portmacro.h **** 
  46:/home/rdu/Workspace/project_templates/mcu/stm32_ws/src/libraries/FreeRTOS/Source/portable/GCC/ARM_CM4F/portmacro.h **** /* Type definitions. */
  47:/home/rdu/Workspace/project_templates/mcu/stm32_ws/src/libraries/FreeRTOS/Source/portable/GCC/ARM_CM4F/portmacro.h **** #define portCHAR		char
  48:/home/rdu/Workspace/project_templates/mcu/stm32_ws/src/libraries/FreeRTOS/Source/portable/GCC/ARM_CM4F/portmacro.h **** #define portFLOAT		float
  49:/home/rdu/Workspace/project_templates/mcu/stm32_ws/src/libraries/FreeRTOS/Source/portable/GCC/ARM_CM4F/portmacro.h **** #define portDOUBLE		double
  50:/home/rdu/Workspace/project_templates/mcu/stm32_ws/src/libraries/FreeRTOS/Source/portable/GCC/ARM_CM4F/portmacro.h **** #define portLONG		long
  51:/home/rdu/Workspace/project_templates/mcu/stm32_ws/src/libraries/FreeRTOS/Source/portable/GCC/ARM_CM4F/portmacro.h **** #define portSHORT		short
  52:/home/rdu/Workspace/project_templates/mcu/stm32_ws/src/libraries/FreeRTOS/Source/portable/GCC/ARM_CM4F/portmacro.h **** #define portSTACK_TYPE	uint32_t
  53:/home/rdu/Workspace/project_templates/mcu/stm32_ws/src/libraries/FreeRTOS/Source/portable/GCC/ARM_CM4F/portmacro.h **** #define portBASE_TYPE	long
  54:/home/rdu/Workspace/project_templates/mcu/stm32_ws/src/libraries/FreeRTOS/Source/portable/GCC/ARM_CM4F/portmacro.h **** 
  55:/home/rdu/Workspace/project_templates/mcu/stm32_ws/src/libraries/FreeRTOS/Source/portable/GCC/ARM_CM4F/portmacro.h **** typedef portSTACK_TYPE StackType_t;
  56:/home/rdu/Workspace/project_templates/mcu/stm32_ws/src/libraries/FreeRTOS/Source/portable/GCC/ARM_CM4F/portmacro.h **** typedef long BaseType_t;
  57:/home/rdu/Workspace/project_templates/mcu/stm32_ws/src/libraries/FreeRTOS/Source/portable/GCC/ARM_CM4F/portmacro.h **** typedef unsigned long UBaseType_t;
  58:/home/rdu/Workspace/project_templates/mcu/stm32_ws/src/libraries/FreeRTOS/Source/portable/GCC/ARM_CM4F/portmacro.h **** 
  59:/home/rdu/Workspace/project_templates/mcu/stm32_ws/src/libraries/FreeRTOS/Source/portable/GCC/ARM_CM4F/portmacro.h **** #if( configUSE_16_BIT_TICKS == 1 )
  60:/home/rdu/Workspace/project_templates/mcu/stm32_ws/src/libraries/FreeRTOS/Source/portable/GCC/ARM_CM4F/portmacro.h **** 	typedef uint16_t TickType_t;
  61:/home/rdu/Workspace/project_templates/mcu/stm32_ws/src/libraries/FreeRTOS/Source/portable/GCC/ARM_CM4F/portmacro.h **** 	#define portMAX_DELAY ( TickType_t ) 0xffff
  62:/home/rdu/Workspace/project_templates/mcu/stm32_ws/src/libraries/FreeRTOS/Source/portable/GCC/ARM_CM4F/portmacro.h **** #else
  63:/home/rdu/Workspace/project_templates/mcu/stm32_ws/src/libraries/FreeRTOS/Source/portable/GCC/ARM_CM4F/portmacro.h **** 	typedef uint32_t TickType_t;
  64:/home/rdu/Workspace/project_templates/mcu/stm32_ws/src/libraries/FreeRTOS/Source/portable/GCC/ARM_CM4F/portmacro.h **** 	#define portMAX_DELAY ( TickType_t ) 0xffffffffUL
  65:/home/rdu/Workspace/project_templates/mcu/stm32_ws/src/libraries/FreeRTOS/Source/portable/GCC/ARM_CM4F/portmacro.h **** 
  66:/home/rdu/Workspace/project_templates/mcu/stm32_ws/src/libraries/FreeRTOS/Source/portable/GCC/ARM_CM4F/portmacro.h **** 	/* 32-bit tick type on a 32-bit architecture, so reads of the tick count do
  67:/home/rdu/Workspace/project_templates/mcu/stm32_ws/src/libraries/FreeRTOS/Source/portable/GCC/ARM_CM4F/portmacro.h **** 	not need to be guarded with a critical section. */
  68:/home/rdu/Workspace/project_templates/mcu/stm32_ws/src/libraries/FreeRTOS/Source/portable/GCC/ARM_CM4F/portmacro.h **** 	#define portTICK_TYPE_IS_ATOMIC 1
  69:/home/rdu/Workspace/project_templates/mcu/stm32_ws/src/libraries/FreeRTOS/Source/portable/GCC/ARM_CM4F/portmacro.h **** #endif
  70:/home/rdu/Workspace/project_templates/mcu/stm32_ws/src/libraries/FreeRTOS/Source/portable/GCC/ARM_CM4F/portmacro.h **** /*-----------------------------------------------------------*/
  71:/home/rdu/Workspace/project_templates/mcu/stm32_ws/src/libraries/FreeRTOS/Source/portable/GCC/ARM_CM4F/portmacro.h **** 
  72:/home/rdu/Workspace/project_templates/mcu/stm32_ws/src/libraries/FreeRTOS/Source/portable/GCC/ARM_CM4F/portmacro.h **** /* Architecture specifics. */
  73:/home/rdu/Workspace/project_templates/mcu/stm32_ws/src/libraries/FreeRTOS/Source/portable/GCC/ARM_CM4F/portmacro.h **** #define portSTACK_GROWTH			( -1 )
  74:/home/rdu/Workspace/project_templates/mcu/stm32_ws/src/libraries/FreeRTOS/Source/portable/GCC/ARM_CM4F/portmacro.h **** #define portTICK_PERIOD_MS			( ( TickType_t ) 1000 / configTICK_RATE_HZ )
  75:/home/rdu/Workspace/project_templates/mcu/stm32_ws/src/libraries/FreeRTOS/Source/portable/GCC/ARM_CM4F/portmacro.h **** #define portBYTE_ALIGNMENT			8
  76:/home/rdu/Workspace/project_templates/mcu/stm32_ws/src/libraries/FreeRTOS/Source/portable/GCC/ARM_CM4F/portmacro.h **** /*-----------------------------------------------------------*/
  77:/home/rdu/Workspace/project_templates/mcu/stm32_ws/src/libraries/FreeRTOS/Source/portable/GCC/ARM_CM4F/portmacro.h **** 
  78:/home/rdu/Workspace/project_templates/mcu/stm32_ws/src/libraries/FreeRTOS/Source/portable/GCC/ARM_CM4F/portmacro.h **** /* Scheduler utilities. */
  79:/home/rdu/Workspace/project_templates/mcu/stm32_ws/src/libraries/FreeRTOS/Source/portable/GCC/ARM_CM4F/portmacro.h **** #define portYIELD() 															\
  80:/home/rdu/Workspace/project_templates/mcu/stm32_ws/src/libraries/FreeRTOS/Source/portable/GCC/ARM_CM4F/portmacro.h **** {																				\
  81:/home/rdu/Workspace/project_templates/mcu/stm32_ws/src/libraries/FreeRTOS/Source/portable/GCC/ARM_CM4F/portmacro.h **** 	/* Set a PendSV to request a context switch. */								\
  82:/home/rdu/Workspace/project_templates/mcu/stm32_ws/src/libraries/FreeRTOS/Source/portable/GCC/ARM_CM4F/portmacro.h **** 	portNVIC_INT_CTRL_REG = portNVIC_PENDSVSET_BIT;								\
  83:/home/rdu/Workspace/project_templates/mcu/stm32_ws/src/libraries/FreeRTOS/Source/portable/GCC/ARM_CM4F/portmacro.h **** 																				\
  84:/home/rdu/Workspace/project_templates/mcu/stm32_ws/src/libraries/FreeRTOS/Source/portable/GCC/ARM_CM4F/portmacro.h **** 	/* Barriers are normally not required but do ensure the code is completely	\
  85:/home/rdu/Workspace/project_templates/mcu/stm32_ws/src/libraries/FreeRTOS/Source/portable/GCC/ARM_CM4F/portmacro.h **** 	within the specified behaviour for the architecture. */						\
  86:/home/rdu/Workspace/project_templates/mcu/stm32_ws/src/libraries/FreeRTOS/Source/portable/GCC/ARM_CM4F/portmacro.h **** 	__asm volatile( "dsb" ::: "memory" );										\
  87:/home/rdu/Workspace/project_templates/mcu/stm32_ws/src/libraries/FreeRTOS/Source/portable/GCC/ARM_CM4F/portmacro.h **** 	__asm volatile( "isb" );													\
  88:/home/rdu/Workspace/project_templates/mcu/stm32_ws/src/libraries/FreeRTOS/Source/portable/GCC/ARM_CM4F/portmacro.h **** }
  89:/home/rdu/Workspace/project_templates/mcu/stm32_ws/src/libraries/FreeRTOS/Source/portable/GCC/ARM_CM4F/portmacro.h **** 
  90:/home/rdu/Workspace/project_templates/mcu/stm32_ws/src/libraries/FreeRTOS/Source/portable/GCC/ARM_CM4F/portmacro.h **** #define portNVIC_INT_CTRL_REG		( * ( ( volatile uint32_t * ) 0xe000ed04 ) )
  91:/home/rdu/Workspace/project_templates/mcu/stm32_ws/src/libraries/FreeRTOS/Source/portable/GCC/ARM_CM4F/portmacro.h **** #define portNVIC_PENDSVSET_BIT		( 1UL << 28UL )
  92:/home/rdu/Workspace/project_templates/mcu/stm32_ws/src/libraries/FreeRTOS/Source/portable/GCC/ARM_CM4F/portmacro.h **** #define portEND_SWITCHING_ISR( xSwitchRequired ) if( xSwitchRequired != pdFALSE ) portYIELD()
  93:/home/rdu/Workspace/project_templates/mcu/stm32_ws/src/libraries/FreeRTOS/Source/portable/GCC/ARM_CM4F/portmacro.h **** #define portYIELD_FROM_ISR( x ) portEND_SWITCHING_ISR( x )
  94:/home/rdu/Workspace/project_templates/mcu/stm32_ws/src/libraries/FreeRTOS/Source/portable/GCC/ARM_CM4F/portmacro.h **** /*-----------------------------------------------------------*/
  95:/home/rdu/Workspace/project_templates/mcu/stm32_ws/src/libraries/FreeRTOS/Source/portable/GCC/ARM_CM4F/portmacro.h **** 
  96:/home/rdu/Workspace/project_templates/mcu/stm32_ws/src/libraries/FreeRTOS/Source/portable/GCC/ARM_CM4F/portmacro.h **** /* Critical section management. */
  97:/home/rdu/Workspace/project_templates/mcu/stm32_ws/src/libraries/FreeRTOS/Source/portable/GCC/ARM_CM4F/portmacro.h **** extern void vPortEnterCritical( void );
  98:/home/rdu/Workspace/project_templates/mcu/stm32_ws/src/libraries/FreeRTOS/Source/portable/GCC/ARM_CM4F/portmacro.h **** extern void vPortExitCritical( void );
  99:/home/rdu/Workspace/project_templates/mcu/stm32_ws/src/libraries/FreeRTOS/Source/portable/GCC/ARM_CM4F/portmacro.h **** #define portSET_INTERRUPT_MASK_FROM_ISR()		ulPortRaiseBASEPRI()
 100:/home/rdu/Workspace/project_templates/mcu/stm32_ws/src/libraries/FreeRTOS/Source/portable/GCC/ARM_CM4F/portmacro.h **** #define portCLEAR_INTERRUPT_MASK_FROM_ISR(x)	vPortSetBASEPRI(x)
 101:/home/rdu/Workspace/project_templates/mcu/stm32_ws/src/libraries/FreeRTOS/Source/portable/GCC/ARM_CM4F/portmacro.h **** #define portDISABLE_INTERRUPTS()				vPortRaiseBASEPRI()
 102:/home/rdu/Workspace/project_templates/mcu/stm32_ws/src/libraries/FreeRTOS/Source/portable/GCC/ARM_CM4F/portmacro.h **** #define portENABLE_INTERRUPTS()					vPortSetBASEPRI(0)
 103:/home/rdu/Workspace/project_templates/mcu/stm32_ws/src/libraries/FreeRTOS/Source/portable/GCC/ARM_CM4F/portmacro.h **** #define portENTER_CRITICAL()					vPortEnterCritical()
 104:/home/rdu/Workspace/project_templates/mcu/stm32_ws/src/libraries/FreeRTOS/Source/portable/GCC/ARM_CM4F/portmacro.h **** #define portEXIT_CRITICAL()						vPortExitCritical()
 105:/home/rdu/Workspace/project_templates/mcu/stm32_ws/src/libraries/FreeRTOS/Source/portable/GCC/ARM_CM4F/portmacro.h **** 
 106:/home/rdu/Workspace/project_templates/mcu/stm32_ws/src/libraries/FreeRTOS/Source/portable/GCC/ARM_CM4F/portmacro.h **** /*-----------------------------------------------------------*/
 107:/home/rdu/Workspace/project_templates/mcu/stm32_ws/src/libraries/FreeRTOS/Source/portable/GCC/ARM_CM4F/portmacro.h **** 
 108:/home/rdu/Workspace/project_templates/mcu/stm32_ws/src/libraries/FreeRTOS/Source/portable/GCC/ARM_CM4F/portmacro.h **** /* Task function macros as described on the FreeRTOS.org WEB site.  These are
 109:/home/rdu/Workspace/project_templates/mcu/stm32_ws/src/libraries/FreeRTOS/Source/portable/GCC/ARM_CM4F/portmacro.h **** not necessary for to use this port.  They are defined so the common demo files
 110:/home/rdu/Workspace/project_templates/mcu/stm32_ws/src/libraries/FreeRTOS/Source/portable/GCC/ARM_CM4F/portmacro.h **** (which build with all the ports) will build. */
 111:/home/rdu/Workspace/project_templates/mcu/stm32_ws/src/libraries/FreeRTOS/Source/portable/GCC/ARM_CM4F/portmacro.h **** #define portTASK_FUNCTION_PROTO( vFunction, pvParameters ) void vFunction( void *pvParameters )
 112:/home/rdu/Workspace/project_templates/mcu/stm32_ws/src/libraries/FreeRTOS/Source/portable/GCC/ARM_CM4F/portmacro.h **** #define portTASK_FUNCTION( vFunction, pvParameters ) void vFunction( void *pvParameters )
 113:/home/rdu/Workspace/project_templates/mcu/stm32_ws/src/libraries/FreeRTOS/Source/portable/GCC/ARM_CM4F/portmacro.h **** /*-----------------------------------------------------------*/
 114:/home/rdu/Workspace/project_templates/mcu/stm32_ws/src/libraries/FreeRTOS/Source/portable/GCC/ARM_CM4F/portmacro.h **** 
 115:/home/rdu/Workspace/project_templates/mcu/stm32_ws/src/libraries/FreeRTOS/Source/portable/GCC/ARM_CM4F/portmacro.h **** /* Tickless idle/low power functionality. */
 116:/home/rdu/Workspace/project_templates/mcu/stm32_ws/src/libraries/FreeRTOS/Source/portable/GCC/ARM_CM4F/portmacro.h **** #ifndef portSUPPRESS_TICKS_AND_SLEEP
 117:/home/rdu/Workspace/project_templates/mcu/stm32_ws/src/libraries/FreeRTOS/Source/portable/GCC/ARM_CM4F/portmacro.h **** 	extern void vPortSuppressTicksAndSleep( TickType_t xExpectedIdleTime );
 118:/home/rdu/Workspace/project_templates/mcu/stm32_ws/src/libraries/FreeRTOS/Source/portable/GCC/ARM_CM4F/portmacro.h **** 	#define portSUPPRESS_TICKS_AND_SLEEP( xExpectedIdleTime ) vPortSuppressTicksAndSleep( xExpectedIdl
 119:/home/rdu/Workspace/project_templates/mcu/stm32_ws/src/libraries/FreeRTOS/Source/portable/GCC/ARM_CM4F/portmacro.h **** #endif
 120:/home/rdu/Workspace/project_templates/mcu/stm32_ws/src/libraries/FreeRTOS/Source/portable/GCC/ARM_CM4F/portmacro.h **** /*-----------------------------------------------------------*/
 121:/home/rdu/Workspace/project_templates/mcu/stm32_ws/src/libraries/FreeRTOS/Source/portable/GCC/ARM_CM4F/portmacro.h **** 
 122:/home/rdu/Workspace/project_templates/mcu/stm32_ws/src/libraries/FreeRTOS/Source/portable/GCC/ARM_CM4F/portmacro.h **** /* Architecture specific optimisations. */
 123:/home/rdu/Workspace/project_templates/mcu/stm32_ws/src/libraries/FreeRTOS/Source/portable/GCC/ARM_CM4F/portmacro.h **** #ifndef configUSE_PORT_OPTIMISED_TASK_SELECTION
 124:/home/rdu/Workspace/project_templates/mcu/stm32_ws/src/libraries/FreeRTOS/Source/portable/GCC/ARM_CM4F/portmacro.h **** 	#define configUSE_PORT_OPTIMISED_TASK_SELECTION 1
 125:/home/rdu/Workspace/project_templates/mcu/stm32_ws/src/libraries/FreeRTOS/Source/portable/GCC/ARM_CM4F/portmacro.h **** #endif
 126:/home/rdu/Workspace/project_templates/mcu/stm32_ws/src/libraries/FreeRTOS/Source/portable/GCC/ARM_CM4F/portmacro.h **** 
 127:/home/rdu/Workspace/project_templates/mcu/stm32_ws/src/libraries/FreeRTOS/Source/portable/GCC/ARM_CM4F/portmacro.h **** #if configUSE_PORT_OPTIMISED_TASK_SELECTION == 1
 128:/home/rdu/Workspace/project_templates/mcu/stm32_ws/src/libraries/FreeRTOS/Source/portable/GCC/ARM_CM4F/portmacro.h **** 
 129:/home/rdu/Workspace/project_templates/mcu/stm32_ws/src/libraries/FreeRTOS/Source/portable/GCC/ARM_CM4F/portmacro.h **** 	/* Generic helper function. */
 130:/home/rdu/Workspace/project_templates/mcu/stm32_ws/src/libraries/FreeRTOS/Source/portable/GCC/ARM_CM4F/portmacro.h **** 	__attribute__( ( always_inline ) ) static inline uint8_t ucPortCountLeadingZeros( uint32_t ulBitma
 131:/home/rdu/Workspace/project_templates/mcu/stm32_ws/src/libraries/FreeRTOS/Source/portable/GCC/ARM_CM4F/portmacro.h **** 	{
 132:/home/rdu/Workspace/project_templates/mcu/stm32_ws/src/libraries/FreeRTOS/Source/portable/GCC/ARM_CM4F/portmacro.h **** 	uint8_t ucReturn;
 133:/home/rdu/Workspace/project_templates/mcu/stm32_ws/src/libraries/FreeRTOS/Source/portable/GCC/ARM_CM4F/portmacro.h **** 
 134:/home/rdu/Workspace/project_templates/mcu/stm32_ws/src/libraries/FreeRTOS/Source/portable/GCC/ARM_CM4F/portmacro.h **** 		__asm volatile ( "clz %0, %1" : "=r" ( ucReturn ) : "r" ( ulBitmap ) : "memory" );
 135:/home/rdu/Workspace/project_templates/mcu/stm32_ws/src/libraries/FreeRTOS/Source/portable/GCC/ARM_CM4F/portmacro.h **** 		return ucReturn;
 136:/home/rdu/Workspace/project_templates/mcu/stm32_ws/src/libraries/FreeRTOS/Source/portable/GCC/ARM_CM4F/portmacro.h **** 	}
 137:/home/rdu/Workspace/project_templates/mcu/stm32_ws/src/libraries/FreeRTOS/Source/portable/GCC/ARM_CM4F/portmacro.h **** 
 138:/home/rdu/Workspace/project_templates/mcu/stm32_ws/src/libraries/FreeRTOS/Source/portable/GCC/ARM_CM4F/portmacro.h **** 	/* Check the configuration. */
 139:/home/rdu/Workspace/project_templates/mcu/stm32_ws/src/libraries/FreeRTOS/Source/portable/GCC/ARM_CM4F/portmacro.h **** 	#if( configMAX_PRIORITIES > 32 )
 140:/home/rdu/Workspace/project_templates/mcu/stm32_ws/src/libraries/FreeRTOS/Source/portable/GCC/ARM_CM4F/portmacro.h **** 		#error configUSE_PORT_OPTIMISED_TASK_SELECTION can only be set to 1 when configMAX_PRIORITIES is 
 141:/home/rdu/Workspace/project_templates/mcu/stm32_ws/src/libraries/FreeRTOS/Source/portable/GCC/ARM_CM4F/portmacro.h **** 	#endif
 142:/home/rdu/Workspace/project_templates/mcu/stm32_ws/src/libraries/FreeRTOS/Source/portable/GCC/ARM_CM4F/portmacro.h **** 
 143:/home/rdu/Workspace/project_templates/mcu/stm32_ws/src/libraries/FreeRTOS/Source/portable/GCC/ARM_CM4F/portmacro.h **** 	/* Store/clear the ready priorities in a bit map. */
 144:/home/rdu/Workspace/project_templates/mcu/stm32_ws/src/libraries/FreeRTOS/Source/portable/GCC/ARM_CM4F/portmacro.h **** 	#define portRECORD_READY_PRIORITY( uxPriority, uxReadyPriorities ) ( uxReadyPriorities ) |= ( 1UL 
 145:/home/rdu/Workspace/project_templates/mcu/stm32_ws/src/libraries/FreeRTOS/Source/portable/GCC/ARM_CM4F/portmacro.h **** 	#define portRESET_READY_PRIORITY( uxPriority, uxReadyPriorities ) ( uxReadyPriorities ) &= ~( 1UL 
 146:/home/rdu/Workspace/project_templates/mcu/stm32_ws/src/libraries/FreeRTOS/Source/portable/GCC/ARM_CM4F/portmacro.h **** 
 147:/home/rdu/Workspace/project_templates/mcu/stm32_ws/src/libraries/FreeRTOS/Source/portable/GCC/ARM_CM4F/portmacro.h **** 	/*-----------------------------------------------------------*/
 148:/home/rdu/Workspace/project_templates/mcu/stm32_ws/src/libraries/FreeRTOS/Source/portable/GCC/ARM_CM4F/portmacro.h **** 
 149:/home/rdu/Workspace/project_templates/mcu/stm32_ws/src/libraries/FreeRTOS/Source/portable/GCC/ARM_CM4F/portmacro.h **** 	#define portGET_HIGHEST_PRIORITY( uxTopPriority, uxReadyPriorities ) uxTopPriority = ( 31UL - ( ui
 150:/home/rdu/Workspace/project_templates/mcu/stm32_ws/src/libraries/FreeRTOS/Source/portable/GCC/ARM_CM4F/portmacro.h **** 
 151:/home/rdu/Workspace/project_templates/mcu/stm32_ws/src/libraries/FreeRTOS/Source/portable/GCC/ARM_CM4F/portmacro.h **** #endif /* configUSE_PORT_OPTIMISED_TASK_SELECTION */
 152:/home/rdu/Workspace/project_templates/mcu/stm32_ws/src/libraries/FreeRTOS/Source/portable/GCC/ARM_CM4F/portmacro.h **** 
 153:/home/rdu/Workspace/project_templates/mcu/stm32_ws/src/libraries/FreeRTOS/Source/portable/GCC/ARM_CM4F/portmacro.h **** /*-----------------------------------------------------------*/
 154:/home/rdu/Workspace/project_templates/mcu/stm32_ws/src/libraries/FreeRTOS/Source/portable/GCC/ARM_CM4F/portmacro.h **** 
 155:/home/rdu/Workspace/project_templates/mcu/stm32_ws/src/libraries/FreeRTOS/Source/portable/GCC/ARM_CM4F/portmacro.h **** #ifdef configASSERT
 156:/home/rdu/Workspace/project_templates/mcu/stm32_ws/src/libraries/FreeRTOS/Source/portable/GCC/ARM_CM4F/portmacro.h **** 	void vPortValidateInterruptPriority( void );
 157:/home/rdu/Workspace/project_templates/mcu/stm32_ws/src/libraries/FreeRTOS/Source/portable/GCC/ARM_CM4F/portmacro.h **** 	#define portASSERT_IF_INTERRUPT_PRIORITY_INVALID() 	vPortValidateInterruptPriority()
 158:/home/rdu/Workspace/project_templates/mcu/stm32_ws/src/libraries/FreeRTOS/Source/portable/GCC/ARM_CM4F/portmacro.h **** #endif
 159:/home/rdu/Workspace/project_templates/mcu/stm32_ws/src/libraries/FreeRTOS/Source/portable/GCC/ARM_CM4F/portmacro.h **** 
 160:/home/rdu/Workspace/project_templates/mcu/stm32_ws/src/libraries/FreeRTOS/Source/portable/GCC/ARM_CM4F/portmacro.h **** /* portNOP() is not required by this port. */
 161:/home/rdu/Workspace/project_templates/mcu/stm32_ws/src/libraries/FreeRTOS/Source/portable/GCC/ARM_CM4F/portmacro.h **** #define portNOP()
 162:/home/rdu/Workspace/project_templates/mcu/stm32_ws/src/libraries/FreeRTOS/Source/portable/GCC/ARM_CM4F/portmacro.h **** 
 163:/home/rdu/Workspace/project_templates/mcu/stm32_ws/src/libraries/FreeRTOS/Source/portable/GCC/ARM_CM4F/portmacro.h **** #define portINLINE	__inline
 164:/home/rdu/Workspace/project_templates/mcu/stm32_ws/src/libraries/FreeRTOS/Source/portable/GCC/ARM_CM4F/portmacro.h **** 
 165:/home/rdu/Workspace/project_templates/mcu/stm32_ws/src/libraries/FreeRTOS/Source/portable/GCC/ARM_CM4F/portmacro.h **** #ifndef portFORCE_INLINE
 166:/home/rdu/Workspace/project_templates/mcu/stm32_ws/src/libraries/FreeRTOS/Source/portable/GCC/ARM_CM4F/portmacro.h **** 	#define portFORCE_INLINE inline __attribute__(( always_inline))
 167:/home/rdu/Workspace/project_templates/mcu/stm32_ws/src/libraries/FreeRTOS/Source/portable/GCC/ARM_CM4F/portmacro.h **** #endif
 168:/home/rdu/Workspace/project_templates/mcu/stm32_ws/src/libraries/FreeRTOS/Source/portable/GCC/ARM_CM4F/portmacro.h **** 
 169:/home/rdu/Workspace/project_templates/mcu/stm32_ws/src/libraries/FreeRTOS/Source/portable/GCC/ARM_CM4F/portmacro.h **** portFORCE_INLINE static BaseType_t xPortIsInsideInterrupt( void )
 170:/home/rdu/Workspace/project_templates/mcu/stm32_ws/src/libraries/FreeRTOS/Source/portable/GCC/ARM_CM4F/portmacro.h **** {
 171:/home/rdu/Workspace/project_templates/mcu/stm32_ws/src/libraries/FreeRTOS/Source/portable/GCC/ARM_CM4F/portmacro.h **** uint32_t ulCurrentInterrupt;
 172:/home/rdu/Workspace/project_templates/mcu/stm32_ws/src/libraries/FreeRTOS/Source/portable/GCC/ARM_CM4F/portmacro.h **** BaseType_t xReturn;
 173:/home/rdu/Workspace/project_templates/mcu/stm32_ws/src/libraries/FreeRTOS/Source/portable/GCC/ARM_CM4F/portmacro.h **** 
 174:/home/rdu/Workspace/project_templates/mcu/stm32_ws/src/libraries/FreeRTOS/Source/portable/GCC/ARM_CM4F/portmacro.h **** 	/* Obtain the number of the currently executing interrupt. */
 175:/home/rdu/Workspace/project_templates/mcu/stm32_ws/src/libraries/FreeRTOS/Source/portable/GCC/ARM_CM4F/portmacro.h **** 	__asm volatile( "mrs %0, ipsr" : "=r"( ulCurrentInterrupt ) :: "memory" );
 176:/home/rdu/Workspace/project_templates/mcu/stm32_ws/src/libraries/FreeRTOS/Source/portable/GCC/ARM_CM4F/portmacro.h **** 
 177:/home/rdu/Workspace/project_templates/mcu/stm32_ws/src/libraries/FreeRTOS/Source/portable/GCC/ARM_CM4F/portmacro.h **** 	if( ulCurrentInterrupt == 0 )
 178:/home/rdu/Workspace/project_templates/mcu/stm32_ws/src/libraries/FreeRTOS/Source/portable/GCC/ARM_CM4F/portmacro.h **** 	{
 179:/home/rdu/Workspace/project_templates/mcu/stm32_ws/src/libraries/FreeRTOS/Source/portable/GCC/ARM_CM4F/portmacro.h **** 		xReturn = pdFALSE;
 180:/home/rdu/Workspace/project_templates/mcu/stm32_ws/src/libraries/FreeRTOS/Source/portable/GCC/ARM_CM4F/portmacro.h **** 	}
 181:/home/rdu/Workspace/project_templates/mcu/stm32_ws/src/libraries/FreeRTOS/Source/portable/GCC/ARM_CM4F/portmacro.h **** 	else
 182:/home/rdu/Workspace/project_templates/mcu/stm32_ws/src/libraries/FreeRTOS/Source/portable/GCC/ARM_CM4F/portmacro.h **** 	{
 183:/home/rdu/Workspace/project_templates/mcu/stm32_ws/src/libraries/FreeRTOS/Source/portable/GCC/ARM_CM4F/portmacro.h **** 		xReturn = pdTRUE;
 184:/home/rdu/Workspace/project_templates/mcu/stm32_ws/src/libraries/FreeRTOS/Source/portable/GCC/ARM_CM4F/portmacro.h **** 	}
 185:/home/rdu/Workspace/project_templates/mcu/stm32_ws/src/libraries/FreeRTOS/Source/portable/GCC/ARM_CM4F/portmacro.h **** 
 186:/home/rdu/Workspace/project_templates/mcu/stm32_ws/src/libraries/FreeRTOS/Source/portable/GCC/ARM_CM4F/portmacro.h **** 	return xReturn;
 187:/home/rdu/Workspace/project_templates/mcu/stm32_ws/src/libraries/FreeRTOS/Source/portable/GCC/ARM_CM4F/portmacro.h **** }
 188:/home/rdu/Workspace/project_templates/mcu/stm32_ws/src/libraries/FreeRTOS/Source/portable/GCC/ARM_CM4F/portmacro.h **** 
 189:/home/rdu/Workspace/project_templates/mcu/stm32_ws/src/libraries/FreeRTOS/Source/portable/GCC/ARM_CM4F/portmacro.h **** /*-----------------------------------------------------------*/
 190:/home/rdu/Workspace/project_templates/mcu/stm32_ws/src/libraries/FreeRTOS/Source/portable/GCC/ARM_CM4F/portmacro.h **** 
 191:/home/rdu/Workspace/project_templates/mcu/stm32_ws/src/libraries/FreeRTOS/Source/portable/GCC/ARM_CM4F/portmacro.h **** portFORCE_INLINE static void vPortRaiseBASEPRI( void )
 192:/home/rdu/Workspace/project_templates/mcu/stm32_ws/src/libraries/FreeRTOS/Source/portable/GCC/ARM_CM4F/portmacro.h **** {
 193:/home/rdu/Workspace/project_templates/mcu/stm32_ws/src/libraries/FreeRTOS/Source/portable/GCC/ARM_CM4F/portmacro.h **** uint32_t ulNewBASEPRI;
 194:/home/rdu/Workspace/project_templates/mcu/stm32_ws/src/libraries/FreeRTOS/Source/portable/GCC/ARM_CM4F/portmacro.h **** 
 195:/home/rdu/Workspace/project_templates/mcu/stm32_ws/src/libraries/FreeRTOS/Source/portable/GCC/ARM_CM4F/portmacro.h **** 	__asm volatile
  50              		.loc 2 195 0 discriminator 1
  51              		.syntax unified
  52              	@ 195 "/home/rdu/Workspace/project_templates/mcu/stm32_ws/src/libraries/FreeRTOS/Source/portable/GC
  53 0012 4FF05003 			mov r3, #80												
  54 0016 83F31188 		msr basepri, r3											
  55 001a BFF36F8F 		isb														
  56 001e BFF34F8F 		dsb														
  57              	
  58              	@ 0 "" 2
  59              		.thumb
  60              		.syntax unified
  61 0022 0293     		str	r3, [sp, #8]
  62              	.L3:
  63              	.LBE102:
  64              	.LBE101:
  65              		.loc 1 259 0 discriminator 1
  66 0024 FEE7     		b	.L3
  67              	.L2:
 260:/home/rdu/Workspace/project_templates/mcu/stm32_ws/src/libraries/FreeRTOS/Source/queue.c **** 
 261:/home/rdu/Workspace/project_templates/mcu/stm32_ws/src/libraries/FreeRTOS/Source/queue.c **** 	taskENTER_CRITICAL();
  68              		.loc 1 261 0
  69 0026 FFF7FEFF 		bl	vPortEnterCritical
 262:/home/rdu/Workspace/project_templates/mcu/stm32_ws/src/libraries/FreeRTOS/Source/queue.c **** 	{
 263:/home/rdu/Workspace/project_templates/mcu/stm32_ws/src/libraries/FreeRTOS/Source/queue.c **** 		pxQueue->u.xQueue.pcTail = pxQueue->pcHead + ( pxQueue->uxLength * pxQueue->uxItemSize ); /*lint 
  70              		.loc 1 263 0
  71 002a 039B     		ldr	r3, [sp, #12]
  72 002c 1A68     		ldr	r2, [r3]
  73 002e 039B     		ldr	r3, [sp, #12]
  74 0030 DB6B     		ldr	r3, [r3, #60]
  75 0032 0399     		ldr	r1, [sp, #12]
  76 0034 096C     		ldr	r1, [r1, #64]
  77 0036 01FB03F3 		mul	r3, r1, r3
  78 003a 1A44     		add	r2, r2, r3
  79 003c 039B     		ldr	r3, [sp, #12]
  80 003e 9A60     		str	r2, [r3, #8]
 264:/home/rdu/Workspace/project_templates/mcu/stm32_ws/src/libraries/FreeRTOS/Source/queue.c **** 		pxQueue->uxMessagesWaiting = ( UBaseType_t ) 0U;
  81              		.loc 1 264 0
  82 0040 039B     		ldr	r3, [sp, #12]
  83 0042 0022     		movs	r2, #0
  84 0044 9A63     		str	r2, [r3, #56]
 265:/home/rdu/Workspace/project_templates/mcu/stm32_ws/src/libraries/FreeRTOS/Source/queue.c **** 		pxQueue->pcWriteTo = pxQueue->pcHead;
  85              		.loc 1 265 0
  86 0046 039B     		ldr	r3, [sp, #12]
  87 0048 1A68     		ldr	r2, [r3]
  88 004a 039B     		ldr	r3, [sp, #12]
  89 004c 5A60     		str	r2, [r3, #4]
 266:/home/rdu/Workspace/project_templates/mcu/stm32_ws/src/libraries/FreeRTOS/Source/queue.c **** 		pxQueue->u.xQueue.pcReadFrom = pxQueue->pcHead + ( ( pxQueue->uxLength - 1U ) * pxQueue->uxItemSi
  90              		.loc 1 266 0
  91 004e 039B     		ldr	r3, [sp, #12]
  92 0050 1A68     		ldr	r2, [r3]
  93 0052 039B     		ldr	r3, [sp, #12]
  94 0054 DB6B     		ldr	r3, [r3, #60]
  95 0056 013B     		subs	r3, r3, #1
  96 0058 0399     		ldr	r1, [sp, #12]
  97 005a 096C     		ldr	r1, [r1, #64]
  98 005c 01FB03F3 		mul	r3, r1, r3
  99 0060 1A44     		add	r2, r2, r3
 100 0062 039B     		ldr	r3, [sp, #12]
 101 0064 DA60     		str	r2, [r3, #12]
 267:/home/rdu/Workspace/project_templates/mcu/stm32_ws/src/libraries/FreeRTOS/Source/queue.c **** 		pxQueue->cRxLock = queueUNLOCKED;
 102              		.loc 1 267 0
 103 0066 039B     		ldr	r3, [sp, #12]
 104 0068 FF22     		movs	r2, #255
 105 006a 83F84420 		strb	r2, [r3, #68]
 268:/home/rdu/Workspace/project_templates/mcu/stm32_ws/src/libraries/FreeRTOS/Source/queue.c **** 		pxQueue->cTxLock = queueUNLOCKED;
 106              		.loc 1 268 0
 107 006e 039B     		ldr	r3, [sp, #12]
 108 0070 FF22     		movs	r2, #255
 109 0072 83F84520 		strb	r2, [r3, #69]
 269:/home/rdu/Workspace/project_templates/mcu/stm32_ws/src/libraries/FreeRTOS/Source/queue.c **** 
 270:/home/rdu/Workspace/project_templates/mcu/stm32_ws/src/libraries/FreeRTOS/Source/queue.c **** 		if( xNewQueue == pdFALSE )
 110              		.loc 1 270 0
 111 0076 009B     		ldr	r3, [sp]
 112 0078 002B     		cmp	r3, #0
 113 007a 14D1     		bne	.L4
 271:/home/rdu/Workspace/project_templates/mcu/stm32_ws/src/libraries/FreeRTOS/Source/queue.c **** 		{
 272:/home/rdu/Workspace/project_templates/mcu/stm32_ws/src/libraries/FreeRTOS/Source/queue.c **** 			/* If there are tasks blocked waiting to read from the queue, then
 273:/home/rdu/Workspace/project_templates/mcu/stm32_ws/src/libraries/FreeRTOS/Source/queue.c **** 			the tasks will remain blocked as after this function exits the queue
 274:/home/rdu/Workspace/project_templates/mcu/stm32_ws/src/libraries/FreeRTOS/Source/queue.c **** 			will still be empty.  If there are tasks blocked waiting to write to
 275:/home/rdu/Workspace/project_templates/mcu/stm32_ws/src/libraries/FreeRTOS/Source/queue.c **** 			the queue, then one should be unblocked as after this function exits
 276:/home/rdu/Workspace/project_templates/mcu/stm32_ws/src/libraries/FreeRTOS/Source/queue.c **** 			it will be possible to write to it. */
 277:/home/rdu/Workspace/project_templates/mcu/stm32_ws/src/libraries/FreeRTOS/Source/queue.c **** 			if( listLIST_IS_EMPTY( &( pxQueue->xTasksWaitingToSend ) ) == pdFALSE )
 114              		.loc 1 277 0
 115 007c 039B     		ldr	r3, [sp, #12]
 116 007e 1B69     		ldr	r3, [r3, #16]
 117 0080 002B     		cmp	r3, #0
 118 0082 1AD0     		beq	.L5
 278:/home/rdu/Workspace/project_templates/mcu/stm32_ws/src/libraries/FreeRTOS/Source/queue.c **** 			{
 279:/home/rdu/Workspace/project_templates/mcu/stm32_ws/src/libraries/FreeRTOS/Source/queue.c **** 				if( xTaskRemoveFromEventList( &( pxQueue->xTasksWaitingToSend ) ) != pdFALSE )
 119              		.loc 1 279 0
 120 0084 039B     		ldr	r3, [sp, #12]
 121 0086 1033     		adds	r3, r3, #16
 122 0088 1846     		mov	r0, r3
 123 008a FFF7FEFF 		bl	xTaskRemoveFromEventList
 124 008e 0346     		mov	r3, r0
 125 0090 002B     		cmp	r3, #0
 126 0092 12D0     		beq	.L5
 280:/home/rdu/Workspace/project_templates/mcu/stm32_ws/src/libraries/FreeRTOS/Source/queue.c **** 				{
 281:/home/rdu/Workspace/project_templates/mcu/stm32_ws/src/libraries/FreeRTOS/Source/queue.c **** 					queueYIELD_IF_USING_PREEMPTION();
 127              		.loc 1 281 0
 128 0094 0C4B     		ldr	r3, .L7
 129 0096 4FF08052 		mov	r2, #268435456
 130 009a 1A60     		str	r2, [r3]
 131              		.syntax unified
 132              	@ 281 "/home/rdu/Workspace/project_templates/mcu/stm32_ws/src/libraries/FreeRTOS/Source/queue.c" 1
 133 009c BFF34F8F 		dsb
 134              	@ 0 "" 2
 135              	@ 281 "/home/rdu/Workspace/project_templates/mcu/stm32_ws/src/libraries/FreeRTOS/Source/queue.c" 1
 136 00a0 BFF36F8F 		isb
 137              	@ 0 "" 2
 138              		.thumb
 139              		.syntax unified
 140 00a4 09E0     		b	.L5
 141              	.L4:
 282:/home/rdu/Workspace/project_templates/mcu/stm32_ws/src/libraries/FreeRTOS/Source/queue.c **** 				}
 283:/home/rdu/Workspace/project_templates/mcu/stm32_ws/src/libraries/FreeRTOS/Source/queue.c **** 				else
 284:/home/rdu/Workspace/project_templates/mcu/stm32_ws/src/libraries/FreeRTOS/Source/queue.c **** 				{
 285:/home/rdu/Workspace/project_templates/mcu/stm32_ws/src/libraries/FreeRTOS/Source/queue.c **** 					mtCOVERAGE_TEST_MARKER();
 286:/home/rdu/Workspace/project_templates/mcu/stm32_ws/src/libraries/FreeRTOS/Source/queue.c **** 				}
 287:/home/rdu/Workspace/project_templates/mcu/stm32_ws/src/libraries/FreeRTOS/Source/queue.c **** 			}
 288:/home/rdu/Workspace/project_templates/mcu/stm32_ws/src/libraries/FreeRTOS/Source/queue.c **** 			else
 289:/home/rdu/Workspace/project_templates/mcu/stm32_ws/src/libraries/FreeRTOS/Source/queue.c **** 			{
 290:/home/rdu/Workspace/project_templates/mcu/stm32_ws/src/libraries/FreeRTOS/Source/queue.c **** 				mtCOVERAGE_TEST_MARKER();
 291:/home/rdu/Workspace/project_templates/mcu/stm32_ws/src/libraries/FreeRTOS/Source/queue.c **** 			}
 292:/home/rdu/Workspace/project_templates/mcu/stm32_ws/src/libraries/FreeRTOS/Source/queue.c **** 		}
 293:/home/rdu/Workspace/project_templates/mcu/stm32_ws/src/libraries/FreeRTOS/Source/queue.c **** 		else
 294:/home/rdu/Workspace/project_templates/mcu/stm32_ws/src/libraries/FreeRTOS/Source/queue.c **** 		{
 295:/home/rdu/Workspace/project_templates/mcu/stm32_ws/src/libraries/FreeRTOS/Source/queue.c **** 			/* Ensure the event queues start in the correct state. */
 296:/home/rdu/Workspace/project_templates/mcu/stm32_ws/src/libraries/FreeRTOS/Source/queue.c **** 			vListInitialise( &( pxQueue->xTasksWaitingToSend ) );
 142              		.loc 1 296 0
 143 00a6 039B     		ldr	r3, [sp, #12]
 144 00a8 1033     		adds	r3, r3, #16
 145 00aa 1846     		mov	r0, r3
 146 00ac FFF7FEFF 		bl	vListInitialise
 297:/home/rdu/Workspace/project_templates/mcu/stm32_ws/src/libraries/FreeRTOS/Source/queue.c **** 			vListInitialise( &( pxQueue->xTasksWaitingToReceive ) );
 147              		.loc 1 297 0
 148 00b0 039B     		ldr	r3, [sp, #12]
 149 00b2 2433     		adds	r3, r3, #36
 150 00b4 1846     		mov	r0, r3
 151 00b6 FFF7FEFF 		bl	vListInitialise
 152              	.L5:
 298:/home/rdu/Workspace/project_templates/mcu/stm32_ws/src/libraries/FreeRTOS/Source/queue.c **** 		}
 299:/home/rdu/Workspace/project_templates/mcu/stm32_ws/src/libraries/FreeRTOS/Source/queue.c **** 	}
 300:/home/rdu/Workspace/project_templates/mcu/stm32_ws/src/libraries/FreeRTOS/Source/queue.c **** 	taskEXIT_CRITICAL();
 153              		.loc 1 300 0
 154 00ba FFF7FEFF 		bl	vPortExitCritical
 301:/home/rdu/Workspace/project_templates/mcu/stm32_ws/src/libraries/FreeRTOS/Source/queue.c **** 
 302:/home/rdu/Workspace/project_templates/mcu/stm32_ws/src/libraries/FreeRTOS/Source/queue.c **** 	/* A value is returned for calling semantic consistency with previous
 303:/home/rdu/Workspace/project_templates/mcu/stm32_ws/src/libraries/FreeRTOS/Source/queue.c **** 	versions. */
 304:/home/rdu/Workspace/project_templates/mcu/stm32_ws/src/libraries/FreeRTOS/Source/queue.c **** 	return pdPASS;
 155              		.loc 1 304 0
 156 00be 0123     		movs	r3, #1
 305:/home/rdu/Workspace/project_templates/mcu/stm32_ws/src/libraries/FreeRTOS/Source/queue.c **** }
 157              		.loc 1 305 0
 158 00c0 1846     		mov	r0, r3
 159 00c2 05B0     		add	sp, sp, #20
 160              	.LCFI2:
 161              		.cfi_def_cfa_offset 4
 162              		@ sp needed
 163 00c4 5DF804FB 		ldr	pc, [sp], #4
 164              	.L8:
 165              		.align	2
 166              	.L7:
 167 00c8 04ED00E0 		.word	-536810236
 168              		.cfi_endproc
 169              	.LFE5:
 171              		.section	.text.xQueueGenericCreate,"ax",%progbits
 172              		.align	1
 173              		.global	xQueueGenericCreate
 174              		.syntax unified
 175              		.thumb
 176              		.thumb_func
 177              		.fpu fpv4-sp-d16
 179              	xQueueGenericCreate:
 180              	.LFB6:
 306:/home/rdu/Workspace/project_templates/mcu/stm32_ws/src/libraries/FreeRTOS/Source/queue.c **** /*-----------------------------------------------------------*/
 307:/home/rdu/Workspace/project_templates/mcu/stm32_ws/src/libraries/FreeRTOS/Source/queue.c **** 
 308:/home/rdu/Workspace/project_templates/mcu/stm32_ws/src/libraries/FreeRTOS/Source/queue.c **** #if( configSUPPORT_STATIC_ALLOCATION == 1 )
 309:/home/rdu/Workspace/project_templates/mcu/stm32_ws/src/libraries/FreeRTOS/Source/queue.c **** 
 310:/home/rdu/Workspace/project_templates/mcu/stm32_ws/src/libraries/FreeRTOS/Source/queue.c **** 	QueueHandle_t xQueueGenericCreateStatic( const UBaseType_t uxQueueLength, const UBaseType_t uxItem
 311:/home/rdu/Workspace/project_templates/mcu/stm32_ws/src/libraries/FreeRTOS/Source/queue.c **** 	{
 312:/home/rdu/Workspace/project_templates/mcu/stm32_ws/src/libraries/FreeRTOS/Source/queue.c **** 	Queue_t *pxNewQueue;
 313:/home/rdu/Workspace/project_templates/mcu/stm32_ws/src/libraries/FreeRTOS/Source/queue.c **** 
 314:/home/rdu/Workspace/project_templates/mcu/stm32_ws/src/libraries/FreeRTOS/Source/queue.c **** 		configASSERT( uxQueueLength > ( UBaseType_t ) 0 );
 315:/home/rdu/Workspace/project_templates/mcu/stm32_ws/src/libraries/FreeRTOS/Source/queue.c **** 
 316:/home/rdu/Workspace/project_templates/mcu/stm32_ws/src/libraries/FreeRTOS/Source/queue.c **** 		/* The StaticQueue_t structure and the queue storage area must be
 317:/home/rdu/Workspace/project_templates/mcu/stm32_ws/src/libraries/FreeRTOS/Source/queue.c **** 		supplied. */
 318:/home/rdu/Workspace/project_templates/mcu/stm32_ws/src/libraries/FreeRTOS/Source/queue.c **** 		configASSERT( pxStaticQueue != NULL );
 319:/home/rdu/Workspace/project_templates/mcu/stm32_ws/src/libraries/FreeRTOS/Source/queue.c **** 
 320:/home/rdu/Workspace/project_templates/mcu/stm32_ws/src/libraries/FreeRTOS/Source/queue.c **** 		/* A queue storage area should be provided if the item size is not 0, and
 321:/home/rdu/Workspace/project_templates/mcu/stm32_ws/src/libraries/FreeRTOS/Source/queue.c **** 		should not be provided if the item size is 0. */
 322:/home/rdu/Workspace/project_templates/mcu/stm32_ws/src/libraries/FreeRTOS/Source/queue.c **** 		configASSERT( !( ( pucQueueStorage != NULL ) && ( uxItemSize == 0 ) ) );
 323:/home/rdu/Workspace/project_templates/mcu/stm32_ws/src/libraries/FreeRTOS/Source/queue.c **** 		configASSERT( !( ( pucQueueStorage == NULL ) && ( uxItemSize != 0 ) ) );
 324:/home/rdu/Workspace/project_templates/mcu/stm32_ws/src/libraries/FreeRTOS/Source/queue.c **** 
 325:/home/rdu/Workspace/project_templates/mcu/stm32_ws/src/libraries/FreeRTOS/Source/queue.c **** 		#if( configASSERT_DEFINED == 1 )
 326:/home/rdu/Workspace/project_templates/mcu/stm32_ws/src/libraries/FreeRTOS/Source/queue.c **** 		{
 327:/home/rdu/Workspace/project_templates/mcu/stm32_ws/src/libraries/FreeRTOS/Source/queue.c **** 			/* Sanity check that the size of the structure used to declare a
 328:/home/rdu/Workspace/project_templates/mcu/stm32_ws/src/libraries/FreeRTOS/Source/queue.c **** 			variable of type StaticQueue_t or StaticSemaphore_t equals the size of
 329:/home/rdu/Workspace/project_templates/mcu/stm32_ws/src/libraries/FreeRTOS/Source/queue.c **** 			the real queue and semaphore structures. */
 330:/home/rdu/Workspace/project_templates/mcu/stm32_ws/src/libraries/FreeRTOS/Source/queue.c **** 			volatile size_t xSize = sizeof( StaticQueue_t );
 331:/home/rdu/Workspace/project_templates/mcu/stm32_ws/src/libraries/FreeRTOS/Source/queue.c **** 			configASSERT( xSize == sizeof( Queue_t ) );
 332:/home/rdu/Workspace/project_templates/mcu/stm32_ws/src/libraries/FreeRTOS/Source/queue.c **** 			( void ) xSize; /* Keeps lint quiet when configASSERT() is not defined. */
 333:/home/rdu/Workspace/project_templates/mcu/stm32_ws/src/libraries/FreeRTOS/Source/queue.c **** 		}
 334:/home/rdu/Workspace/project_templates/mcu/stm32_ws/src/libraries/FreeRTOS/Source/queue.c **** 		#endif /* configASSERT_DEFINED */
 335:/home/rdu/Workspace/project_templates/mcu/stm32_ws/src/libraries/FreeRTOS/Source/queue.c **** 
 336:/home/rdu/Workspace/project_templates/mcu/stm32_ws/src/libraries/FreeRTOS/Source/queue.c **** 		/* The address of a statically allocated queue was passed in, use it.
 337:/home/rdu/Workspace/project_templates/mcu/stm32_ws/src/libraries/FreeRTOS/Source/queue.c **** 		The address of a statically allocated storage area was also passed in
 338:/home/rdu/Workspace/project_templates/mcu/stm32_ws/src/libraries/FreeRTOS/Source/queue.c **** 		but is already set. */
 339:/home/rdu/Workspace/project_templates/mcu/stm32_ws/src/libraries/FreeRTOS/Source/queue.c **** 		pxNewQueue = ( Queue_t * ) pxStaticQueue; /*lint !e740 !e9087 Unusual cast is ok as the structure
 340:/home/rdu/Workspace/project_templates/mcu/stm32_ws/src/libraries/FreeRTOS/Source/queue.c **** 
 341:/home/rdu/Workspace/project_templates/mcu/stm32_ws/src/libraries/FreeRTOS/Source/queue.c **** 		if( pxNewQueue != NULL )
 342:/home/rdu/Workspace/project_templates/mcu/stm32_ws/src/libraries/FreeRTOS/Source/queue.c **** 		{
 343:/home/rdu/Workspace/project_templates/mcu/stm32_ws/src/libraries/FreeRTOS/Source/queue.c **** 			#if( configSUPPORT_DYNAMIC_ALLOCATION == 1 )
 344:/home/rdu/Workspace/project_templates/mcu/stm32_ws/src/libraries/FreeRTOS/Source/queue.c **** 			{
 345:/home/rdu/Workspace/project_templates/mcu/stm32_ws/src/libraries/FreeRTOS/Source/queue.c **** 				/* Queues can be allocated wither statically or dynamically, so
 346:/home/rdu/Workspace/project_templates/mcu/stm32_ws/src/libraries/FreeRTOS/Source/queue.c **** 				note this queue was allocated statically in case the queue is
 347:/home/rdu/Workspace/project_templates/mcu/stm32_ws/src/libraries/FreeRTOS/Source/queue.c **** 				later deleted. */
 348:/home/rdu/Workspace/project_templates/mcu/stm32_ws/src/libraries/FreeRTOS/Source/queue.c **** 				pxNewQueue->ucStaticallyAllocated = pdTRUE;
 349:/home/rdu/Workspace/project_templates/mcu/stm32_ws/src/libraries/FreeRTOS/Source/queue.c **** 			}
 350:/home/rdu/Workspace/project_templates/mcu/stm32_ws/src/libraries/FreeRTOS/Source/queue.c **** 			#endif /* configSUPPORT_DYNAMIC_ALLOCATION */
 351:/home/rdu/Workspace/project_templates/mcu/stm32_ws/src/libraries/FreeRTOS/Source/queue.c **** 
 352:/home/rdu/Workspace/project_templates/mcu/stm32_ws/src/libraries/FreeRTOS/Source/queue.c **** 			prvInitialiseNewQueue( uxQueueLength, uxItemSize, pucQueueStorage, ucQueueType, pxNewQueue );
 353:/home/rdu/Workspace/project_templates/mcu/stm32_ws/src/libraries/FreeRTOS/Source/queue.c **** 		}
 354:/home/rdu/Workspace/project_templates/mcu/stm32_ws/src/libraries/FreeRTOS/Source/queue.c **** 		else
 355:/home/rdu/Workspace/project_templates/mcu/stm32_ws/src/libraries/FreeRTOS/Source/queue.c **** 		{
 356:/home/rdu/Workspace/project_templates/mcu/stm32_ws/src/libraries/FreeRTOS/Source/queue.c **** 			traceQUEUE_CREATE_FAILED( ucQueueType );
 357:/home/rdu/Workspace/project_templates/mcu/stm32_ws/src/libraries/FreeRTOS/Source/queue.c **** 			mtCOVERAGE_TEST_MARKER();
 358:/home/rdu/Workspace/project_templates/mcu/stm32_ws/src/libraries/FreeRTOS/Source/queue.c **** 		}
 359:/home/rdu/Workspace/project_templates/mcu/stm32_ws/src/libraries/FreeRTOS/Source/queue.c **** 
 360:/home/rdu/Workspace/project_templates/mcu/stm32_ws/src/libraries/FreeRTOS/Source/queue.c **** 		return pxNewQueue;
 361:/home/rdu/Workspace/project_templates/mcu/stm32_ws/src/libraries/FreeRTOS/Source/queue.c **** 	}
 362:/home/rdu/Workspace/project_templates/mcu/stm32_ws/src/libraries/FreeRTOS/Source/queue.c **** 
 363:/home/rdu/Workspace/project_templates/mcu/stm32_ws/src/libraries/FreeRTOS/Source/queue.c **** #endif /* configSUPPORT_STATIC_ALLOCATION */
 364:/home/rdu/Workspace/project_templates/mcu/stm32_ws/src/libraries/FreeRTOS/Source/queue.c **** /*-----------------------------------------------------------*/
 365:/home/rdu/Workspace/project_templates/mcu/stm32_ws/src/libraries/FreeRTOS/Source/queue.c **** 
 366:/home/rdu/Workspace/project_templates/mcu/stm32_ws/src/libraries/FreeRTOS/Source/queue.c **** #if( configSUPPORT_DYNAMIC_ALLOCATION == 1 )
 367:/home/rdu/Workspace/project_templates/mcu/stm32_ws/src/libraries/FreeRTOS/Source/queue.c **** 
 368:/home/rdu/Workspace/project_templates/mcu/stm32_ws/src/libraries/FreeRTOS/Source/queue.c **** 	QueueHandle_t xQueueGenericCreate( const UBaseType_t uxQueueLength, const UBaseType_t uxItemSize, 
 369:/home/rdu/Workspace/project_templates/mcu/stm32_ws/src/libraries/FreeRTOS/Source/queue.c **** 	{
 181              		.loc 1 369 0
 182              		.cfi_startproc
 183              		@ args = 0, pretend = 0, frame = 32
 184              		@ frame_needed = 0, uses_anonymous_args = 0
 185 0000 00B5     		push	{lr}
 186              	.LCFI3:
 187              		.cfi_def_cfa_offset 4
 188              		.cfi_offset 14, -4
 189 0002 8BB0     		sub	sp, sp, #44
 190              	.LCFI4:
 191              		.cfi_def_cfa_offset 48
 192 0004 0590     		str	r0, [sp, #20]
 193 0006 0491     		str	r1, [sp, #16]
 194 0008 1346     		mov	r3, r2
 195 000a 8DF80F30 		strb	r3, [sp, #15]
 370:/home/rdu/Workspace/project_templates/mcu/stm32_ws/src/libraries/FreeRTOS/Source/queue.c **** 	Queue_t *pxNewQueue;
 371:/home/rdu/Workspace/project_templates/mcu/stm32_ws/src/libraries/FreeRTOS/Source/queue.c **** 	size_t xQueueSizeInBytes;
 372:/home/rdu/Workspace/project_templates/mcu/stm32_ws/src/libraries/FreeRTOS/Source/queue.c **** 	uint8_t *pucQueueStorage;
 373:/home/rdu/Workspace/project_templates/mcu/stm32_ws/src/libraries/FreeRTOS/Source/queue.c **** 
 374:/home/rdu/Workspace/project_templates/mcu/stm32_ws/src/libraries/FreeRTOS/Source/queue.c **** 		configASSERT( uxQueueLength > ( UBaseType_t ) 0 );
 196              		.loc 1 374 0
 197 000e 059B     		ldr	r3, [sp, #20]
 198 0010 002B     		cmp	r3, #0
 199 0012 09D1     		bne	.L10
 200              	.LBB103:
 201              	.LBB104:
 202              		.loc 2 195 0 discriminator 1
 203              		.syntax unified
 204              	@ 195 "/home/rdu/Workspace/project_templates/mcu/stm32_ws/src/libraries/FreeRTOS/Source/portable/GC
 205 0014 4FF05003 			mov r3, #80												
 206 0018 83F31188 		msr basepri, r3											
 207 001c BFF36F8F 		isb														
 208 0020 BFF34F8F 		dsb														
 209              	
 210              	@ 0 "" 2
 211              		.thumb
 212              		.syntax unified
 213 0024 0693     		str	r3, [sp, #24]
 214              	.L11:
 215              	.LBE104:
 216              	.LBE103:
 217              		.loc 1 374 0 discriminator 1
 218 0026 FEE7     		b	.L11
 219              	.L10:
 375:/home/rdu/Workspace/project_templates/mcu/stm32_ws/src/libraries/FreeRTOS/Source/queue.c **** 
 376:/home/rdu/Workspace/project_templates/mcu/stm32_ws/src/libraries/FreeRTOS/Source/queue.c **** 		if( uxItemSize == ( UBaseType_t ) 0 )
 220              		.loc 1 376 0
 221 0028 049B     		ldr	r3, [sp, #16]
 222 002a 002B     		cmp	r3, #0
 223 002c 02D1     		bne	.L12
 377:/home/rdu/Workspace/project_templates/mcu/stm32_ws/src/libraries/FreeRTOS/Source/queue.c **** 		{
 378:/home/rdu/Workspace/project_templates/mcu/stm32_ws/src/libraries/FreeRTOS/Source/queue.c **** 			/* There is not going to be a queue storage area. */
 379:/home/rdu/Workspace/project_templates/mcu/stm32_ws/src/libraries/FreeRTOS/Source/queue.c **** 			xQueueSizeInBytes = ( size_t ) 0;
 224              		.loc 1 379 0
 225 002e 0023     		movs	r3, #0
 226 0030 0993     		str	r3, [sp, #36]
 227 0032 04E0     		b	.L13
 228              	.L12:
 380:/home/rdu/Workspace/project_templates/mcu/stm32_ws/src/libraries/FreeRTOS/Source/queue.c **** 		}
 381:/home/rdu/Workspace/project_templates/mcu/stm32_ws/src/libraries/FreeRTOS/Source/queue.c **** 		else
 382:/home/rdu/Workspace/project_templates/mcu/stm32_ws/src/libraries/FreeRTOS/Source/queue.c **** 		{
 383:/home/rdu/Workspace/project_templates/mcu/stm32_ws/src/libraries/FreeRTOS/Source/queue.c **** 			/* Allocate enough space to hold the maximum number of items that
 384:/home/rdu/Workspace/project_templates/mcu/stm32_ws/src/libraries/FreeRTOS/Source/queue.c **** 			can be in the queue at any time. */
 385:/home/rdu/Workspace/project_templates/mcu/stm32_ws/src/libraries/FreeRTOS/Source/queue.c **** 			xQueueSizeInBytes = ( size_t ) ( uxQueueLength * uxItemSize ); /*lint !e961 MISRA exception as t
 229              		.loc 1 385 0
 230 0034 059B     		ldr	r3, [sp, #20]
 231 0036 049A     		ldr	r2, [sp, #16]
 232 0038 02FB03F3 		mul	r3, r2, r3
 233 003c 0993     		str	r3, [sp, #36]
 234              	.L13:
 386:/home/rdu/Workspace/project_templates/mcu/stm32_ws/src/libraries/FreeRTOS/Source/queue.c **** 		}
 387:/home/rdu/Workspace/project_templates/mcu/stm32_ws/src/libraries/FreeRTOS/Source/queue.c **** 
 388:/home/rdu/Workspace/project_templates/mcu/stm32_ws/src/libraries/FreeRTOS/Source/queue.c **** 		/* Allocate the queue and storage area.  Justification for MISRA
 389:/home/rdu/Workspace/project_templates/mcu/stm32_ws/src/libraries/FreeRTOS/Source/queue.c **** 		deviation as follows:  pvPortMalloc() always ensures returned memory
 390:/home/rdu/Workspace/project_templates/mcu/stm32_ws/src/libraries/FreeRTOS/Source/queue.c **** 		blocks are aligned per the requirements of the MCU stack.  In this case
 391:/home/rdu/Workspace/project_templates/mcu/stm32_ws/src/libraries/FreeRTOS/Source/queue.c **** 		pvPortMalloc() must return a pointer that is guaranteed to meet the
 392:/home/rdu/Workspace/project_templates/mcu/stm32_ws/src/libraries/FreeRTOS/Source/queue.c **** 		alignment requirements of the Queue_t structure - which in this case
 393:/home/rdu/Workspace/project_templates/mcu/stm32_ws/src/libraries/FreeRTOS/Source/queue.c **** 		is an int8_t *.  Therefore, whenever the stack alignment requirements
 394:/home/rdu/Workspace/project_templates/mcu/stm32_ws/src/libraries/FreeRTOS/Source/queue.c **** 		are greater than or equal to the pointer to char requirements the cast
 395:/home/rdu/Workspace/project_templates/mcu/stm32_ws/src/libraries/FreeRTOS/Source/queue.c **** 		is safe.  In other cases alignment requirements are not strict (one or
 396:/home/rdu/Workspace/project_templates/mcu/stm32_ws/src/libraries/FreeRTOS/Source/queue.c **** 		two bytes). */
 397:/home/rdu/Workspace/project_templates/mcu/stm32_ws/src/libraries/FreeRTOS/Source/queue.c **** 		pxNewQueue = ( Queue_t * ) pvPortMalloc( sizeof( Queue_t ) + xQueueSizeInBytes ); /*lint !e9087 !
 235              		.loc 1 397 0
 236 003e 099B     		ldr	r3, [sp, #36]
 237 0040 5033     		adds	r3, r3, #80
 238 0042 1846     		mov	r0, r3
 239 0044 FFF7FEFF 		bl	pvPortMalloc
 240 0048 0890     		str	r0, [sp, #32]
 398:/home/rdu/Workspace/project_templates/mcu/stm32_ws/src/libraries/FreeRTOS/Source/queue.c **** 
 399:/home/rdu/Workspace/project_templates/mcu/stm32_ws/src/libraries/FreeRTOS/Source/queue.c **** 		if( pxNewQueue != NULL )
 241              		.loc 1 399 0
 242 004a 089B     		ldr	r3, [sp, #32]
 243 004c 002B     		cmp	r3, #0
 244 004e 0ED0     		beq	.L14
 400:/home/rdu/Workspace/project_templates/mcu/stm32_ws/src/libraries/FreeRTOS/Source/queue.c **** 		{
 401:/home/rdu/Workspace/project_templates/mcu/stm32_ws/src/libraries/FreeRTOS/Source/queue.c **** 			/* Jump past the queue structure to find the location of the queue
 402:/home/rdu/Workspace/project_templates/mcu/stm32_ws/src/libraries/FreeRTOS/Source/queue.c **** 			storage area. */
 403:/home/rdu/Workspace/project_templates/mcu/stm32_ws/src/libraries/FreeRTOS/Source/queue.c **** 			pucQueueStorage = ( uint8_t * ) pxNewQueue;
 245              		.loc 1 403 0
 246 0050 089B     		ldr	r3, [sp, #32]
 247 0052 0793     		str	r3, [sp, #28]
 404:/home/rdu/Workspace/project_templates/mcu/stm32_ws/src/libraries/FreeRTOS/Source/queue.c **** 			pucQueueStorage += sizeof( Queue_t ); /*lint !e9016 Pointer arithmetic allowed on char types, es
 248              		.loc 1 404 0
 249 0054 079B     		ldr	r3, [sp, #28]
 250 0056 5033     		adds	r3, r3, #80
 251 0058 0793     		str	r3, [sp, #28]
 405:/home/rdu/Workspace/project_templates/mcu/stm32_ws/src/libraries/FreeRTOS/Source/queue.c **** 
 406:/home/rdu/Workspace/project_templates/mcu/stm32_ws/src/libraries/FreeRTOS/Source/queue.c **** 			#if( configSUPPORT_STATIC_ALLOCATION == 1 )
 407:/home/rdu/Workspace/project_templates/mcu/stm32_ws/src/libraries/FreeRTOS/Source/queue.c **** 			{
 408:/home/rdu/Workspace/project_templates/mcu/stm32_ws/src/libraries/FreeRTOS/Source/queue.c **** 				/* Queues can be created either statically or dynamically, so
 409:/home/rdu/Workspace/project_templates/mcu/stm32_ws/src/libraries/FreeRTOS/Source/queue.c **** 				note this task was created dynamically in case it is later
 410:/home/rdu/Workspace/project_templates/mcu/stm32_ws/src/libraries/FreeRTOS/Source/queue.c **** 				deleted. */
 411:/home/rdu/Workspace/project_templates/mcu/stm32_ws/src/libraries/FreeRTOS/Source/queue.c **** 				pxNewQueue->ucStaticallyAllocated = pdFALSE;
 412:/home/rdu/Workspace/project_templates/mcu/stm32_ws/src/libraries/FreeRTOS/Source/queue.c **** 			}
 413:/home/rdu/Workspace/project_templates/mcu/stm32_ws/src/libraries/FreeRTOS/Source/queue.c **** 			#endif /* configSUPPORT_STATIC_ALLOCATION */
 414:/home/rdu/Workspace/project_templates/mcu/stm32_ws/src/libraries/FreeRTOS/Source/queue.c **** 
 415:/home/rdu/Workspace/project_templates/mcu/stm32_ws/src/libraries/FreeRTOS/Source/queue.c **** 			prvInitialiseNewQueue( uxQueueLength, uxItemSize, pucQueueStorage, ucQueueType, pxNewQueue );
 252              		.loc 1 415 0
 253 005a 9DF80F20 		ldrb	r2, [sp, #15]	@ zero_extendqisi2
 254 005e 089B     		ldr	r3, [sp, #32]
 255 0060 0093     		str	r3, [sp]
 256 0062 1346     		mov	r3, r2
 257 0064 079A     		ldr	r2, [sp, #28]
 258 0066 0499     		ldr	r1, [sp, #16]
 259 0068 0598     		ldr	r0, [sp, #20]
 260 006a FFF7FEFF 		bl	prvInitialiseNewQueue
 261              	.L14:
 416:/home/rdu/Workspace/project_templates/mcu/stm32_ws/src/libraries/FreeRTOS/Source/queue.c **** 		}
 417:/home/rdu/Workspace/project_templates/mcu/stm32_ws/src/libraries/FreeRTOS/Source/queue.c **** 		else
 418:/home/rdu/Workspace/project_templates/mcu/stm32_ws/src/libraries/FreeRTOS/Source/queue.c **** 		{
 419:/home/rdu/Workspace/project_templates/mcu/stm32_ws/src/libraries/FreeRTOS/Source/queue.c **** 			traceQUEUE_CREATE_FAILED( ucQueueType );
 420:/home/rdu/Workspace/project_templates/mcu/stm32_ws/src/libraries/FreeRTOS/Source/queue.c **** 			mtCOVERAGE_TEST_MARKER();
 421:/home/rdu/Workspace/project_templates/mcu/stm32_ws/src/libraries/FreeRTOS/Source/queue.c **** 		}
 422:/home/rdu/Workspace/project_templates/mcu/stm32_ws/src/libraries/FreeRTOS/Source/queue.c **** 
 423:/home/rdu/Workspace/project_templates/mcu/stm32_ws/src/libraries/FreeRTOS/Source/queue.c **** 		return pxNewQueue;
 262              		.loc 1 423 0
 263 006e 089B     		ldr	r3, [sp, #32]
 424:/home/rdu/Workspace/project_templates/mcu/stm32_ws/src/libraries/FreeRTOS/Source/queue.c **** 	}
 264              		.loc 1 424 0
 265 0070 1846     		mov	r0, r3
 266 0072 0BB0     		add	sp, sp, #44
 267              	.LCFI5:
 268              		.cfi_def_cfa_offset 4
 269              		@ sp needed
 270 0074 5DF804FB 		ldr	pc, [sp], #4
 271              		.cfi_endproc
 272              	.LFE6:
 274              		.section	.text.prvInitialiseNewQueue,"ax",%progbits
 275              		.align	1
 276              		.syntax unified
 277              		.thumb
 278              		.thumb_func
 279              		.fpu fpv4-sp-d16
 281              	prvInitialiseNewQueue:
 282              	.LFB7:
 425:/home/rdu/Workspace/project_templates/mcu/stm32_ws/src/libraries/FreeRTOS/Source/queue.c **** 
 426:/home/rdu/Workspace/project_templates/mcu/stm32_ws/src/libraries/FreeRTOS/Source/queue.c **** #endif /* configSUPPORT_STATIC_ALLOCATION */
 427:/home/rdu/Workspace/project_templates/mcu/stm32_ws/src/libraries/FreeRTOS/Source/queue.c **** /*-----------------------------------------------------------*/
 428:/home/rdu/Workspace/project_templates/mcu/stm32_ws/src/libraries/FreeRTOS/Source/queue.c **** 
 429:/home/rdu/Workspace/project_templates/mcu/stm32_ws/src/libraries/FreeRTOS/Source/queue.c **** static void prvInitialiseNewQueue( const UBaseType_t uxQueueLength, const UBaseType_t uxItemSize, u
 430:/home/rdu/Workspace/project_templates/mcu/stm32_ws/src/libraries/FreeRTOS/Source/queue.c **** {
 283              		.loc 1 430 0
 284              		.cfi_startproc
 285              		@ args = 4, pretend = 0, frame = 16
 286              		@ frame_needed = 0, uses_anonymous_args = 0
 287 0000 00B5     		push	{lr}
 288              	.LCFI6:
 289              		.cfi_def_cfa_offset 4
 290              		.cfi_offset 14, -4
 291 0002 85B0     		sub	sp, sp, #20
 292              	.LCFI7:
 293              		.cfi_def_cfa_offset 24
 294 0004 0390     		str	r0, [sp, #12]
 295 0006 0291     		str	r1, [sp, #8]
 296 0008 0192     		str	r2, [sp, #4]
 297 000a 8DF80330 		strb	r3, [sp, #3]
 431:/home/rdu/Workspace/project_templates/mcu/stm32_ws/src/libraries/FreeRTOS/Source/queue.c **** 	/* Remove compiler warnings about unused parameters should
 432:/home/rdu/Workspace/project_templates/mcu/stm32_ws/src/libraries/FreeRTOS/Source/queue.c **** 	configUSE_TRACE_FACILITY not be set to 1. */
 433:/home/rdu/Workspace/project_templates/mcu/stm32_ws/src/libraries/FreeRTOS/Source/queue.c **** 	( void ) ucQueueType;
 434:/home/rdu/Workspace/project_templates/mcu/stm32_ws/src/libraries/FreeRTOS/Source/queue.c **** 
 435:/home/rdu/Workspace/project_templates/mcu/stm32_ws/src/libraries/FreeRTOS/Source/queue.c **** 	if( uxItemSize == ( UBaseType_t ) 0 )
 298              		.loc 1 435 0
 299 000e 029B     		ldr	r3, [sp, #8]
 300 0010 002B     		cmp	r3, #0
 301 0012 03D1     		bne	.L17
 436:/home/rdu/Workspace/project_templates/mcu/stm32_ws/src/libraries/FreeRTOS/Source/queue.c **** 	{
 437:/home/rdu/Workspace/project_templates/mcu/stm32_ws/src/libraries/FreeRTOS/Source/queue.c **** 		/* No RAM was allocated for the queue storage area, but PC head cannot
 438:/home/rdu/Workspace/project_templates/mcu/stm32_ws/src/libraries/FreeRTOS/Source/queue.c **** 		be set to NULL because NULL is used as a key to say the queue is used as
 439:/home/rdu/Workspace/project_templates/mcu/stm32_ws/src/libraries/FreeRTOS/Source/queue.c **** 		a mutex.  Therefore just set pcHead to point to the queue as a benign
 440:/home/rdu/Workspace/project_templates/mcu/stm32_ws/src/libraries/FreeRTOS/Source/queue.c **** 		value that is known to be within the memory map. */
 441:/home/rdu/Workspace/project_templates/mcu/stm32_ws/src/libraries/FreeRTOS/Source/queue.c **** 		pxNewQueue->pcHead = ( int8_t * ) pxNewQueue;
 302              		.loc 1 441 0
 303 0014 069B     		ldr	r3, [sp, #24]
 304 0016 069A     		ldr	r2, [sp, #24]
 305 0018 1A60     		str	r2, [r3]
 306 001a 02E0     		b	.L18
 307              	.L17:
 442:/home/rdu/Workspace/project_templates/mcu/stm32_ws/src/libraries/FreeRTOS/Source/queue.c **** 	}
 443:/home/rdu/Workspace/project_templates/mcu/stm32_ws/src/libraries/FreeRTOS/Source/queue.c **** 	else
 444:/home/rdu/Workspace/project_templates/mcu/stm32_ws/src/libraries/FreeRTOS/Source/queue.c **** 	{
 445:/home/rdu/Workspace/project_templates/mcu/stm32_ws/src/libraries/FreeRTOS/Source/queue.c **** 		/* Set the head to the start of the queue storage area. */
 446:/home/rdu/Workspace/project_templates/mcu/stm32_ws/src/libraries/FreeRTOS/Source/queue.c **** 		pxNewQueue->pcHead = ( int8_t * ) pucQueueStorage;
 308              		.loc 1 446 0
 309 001c 069B     		ldr	r3, [sp, #24]
 310 001e 019A     		ldr	r2, [sp, #4]
 311 0020 1A60     		str	r2, [r3]
 312              	.L18:
 447:/home/rdu/Workspace/project_templates/mcu/stm32_ws/src/libraries/FreeRTOS/Source/queue.c **** 	}
 448:/home/rdu/Workspace/project_templates/mcu/stm32_ws/src/libraries/FreeRTOS/Source/queue.c **** 
 449:/home/rdu/Workspace/project_templates/mcu/stm32_ws/src/libraries/FreeRTOS/Source/queue.c **** 	/* Initialise the queue members as described where the queue type is
 450:/home/rdu/Workspace/project_templates/mcu/stm32_ws/src/libraries/FreeRTOS/Source/queue.c **** 	defined. */
 451:/home/rdu/Workspace/project_templates/mcu/stm32_ws/src/libraries/FreeRTOS/Source/queue.c **** 	pxNewQueue->uxLength = uxQueueLength;
 313              		.loc 1 451 0
 314 0022 069B     		ldr	r3, [sp, #24]
 315 0024 039A     		ldr	r2, [sp, #12]
 316 0026 DA63     		str	r2, [r3, #60]
 452:/home/rdu/Workspace/project_templates/mcu/stm32_ws/src/libraries/FreeRTOS/Source/queue.c **** 	pxNewQueue->uxItemSize = uxItemSize;
 317              		.loc 1 452 0
 318 0028 069B     		ldr	r3, [sp, #24]
 319 002a 029A     		ldr	r2, [sp, #8]
 320 002c 1A64     		str	r2, [r3, #64]
 453:/home/rdu/Workspace/project_templates/mcu/stm32_ws/src/libraries/FreeRTOS/Source/queue.c **** 	( void ) xQueueGenericReset( pxNewQueue, pdTRUE );
 321              		.loc 1 453 0
 322 002e 0121     		movs	r1, #1
 323 0030 0698     		ldr	r0, [sp, #24]
 324 0032 FFF7FEFF 		bl	xQueueGenericReset
 454:/home/rdu/Workspace/project_templates/mcu/stm32_ws/src/libraries/FreeRTOS/Source/queue.c **** 
 455:/home/rdu/Workspace/project_templates/mcu/stm32_ws/src/libraries/FreeRTOS/Source/queue.c **** 	#if ( configUSE_TRACE_FACILITY == 1 )
 456:/home/rdu/Workspace/project_templates/mcu/stm32_ws/src/libraries/FreeRTOS/Source/queue.c **** 	{
 457:/home/rdu/Workspace/project_templates/mcu/stm32_ws/src/libraries/FreeRTOS/Source/queue.c **** 		pxNewQueue->ucQueueType = ucQueueType;
 325              		.loc 1 457 0
 326 0036 069B     		ldr	r3, [sp, #24]
 327 0038 9DF80320 		ldrb	r2, [sp, #3]
 328 003c 83F84C20 		strb	r2, [r3, #76]
 458:/home/rdu/Workspace/project_templates/mcu/stm32_ws/src/libraries/FreeRTOS/Source/queue.c **** 	}
 459:/home/rdu/Workspace/project_templates/mcu/stm32_ws/src/libraries/FreeRTOS/Source/queue.c **** 	#endif /* configUSE_TRACE_FACILITY */
 460:/home/rdu/Workspace/project_templates/mcu/stm32_ws/src/libraries/FreeRTOS/Source/queue.c **** 
 461:/home/rdu/Workspace/project_templates/mcu/stm32_ws/src/libraries/FreeRTOS/Source/queue.c **** 	#if( configUSE_QUEUE_SETS == 1 )
 462:/home/rdu/Workspace/project_templates/mcu/stm32_ws/src/libraries/FreeRTOS/Source/queue.c **** 	{
 463:/home/rdu/Workspace/project_templates/mcu/stm32_ws/src/libraries/FreeRTOS/Source/queue.c **** 		pxNewQueue->pxQueueSetContainer = NULL;
 464:/home/rdu/Workspace/project_templates/mcu/stm32_ws/src/libraries/FreeRTOS/Source/queue.c **** 	}
 465:/home/rdu/Workspace/project_templates/mcu/stm32_ws/src/libraries/FreeRTOS/Source/queue.c **** 	#endif /* configUSE_QUEUE_SETS */
 466:/home/rdu/Workspace/project_templates/mcu/stm32_ws/src/libraries/FreeRTOS/Source/queue.c **** 
 467:/home/rdu/Workspace/project_templates/mcu/stm32_ws/src/libraries/FreeRTOS/Source/queue.c **** 	traceQUEUE_CREATE( pxNewQueue );
 468:/home/rdu/Workspace/project_templates/mcu/stm32_ws/src/libraries/FreeRTOS/Source/queue.c **** }
 329              		.loc 1 468 0
 330 0040 00BF     		nop
 331 0042 05B0     		add	sp, sp, #20
 332              	.LCFI8:
 333              		.cfi_def_cfa_offset 4
 334              		@ sp needed
 335 0044 5DF804FB 		ldr	pc, [sp], #4
 336              		.cfi_endproc
 337              	.LFE7:
 339              		.section	.text.prvInitialiseMutex,"ax",%progbits
 340              		.align	1
 341              		.syntax unified
 342              		.thumb
 343              		.thumb_func
 344              		.fpu fpv4-sp-d16
 346              	prvInitialiseMutex:
 347              	.LFB8:
 469:/home/rdu/Workspace/project_templates/mcu/stm32_ws/src/libraries/FreeRTOS/Source/queue.c **** /*-----------------------------------------------------------*/
 470:/home/rdu/Workspace/project_templates/mcu/stm32_ws/src/libraries/FreeRTOS/Source/queue.c **** 
 471:/home/rdu/Workspace/project_templates/mcu/stm32_ws/src/libraries/FreeRTOS/Source/queue.c **** #if( configUSE_MUTEXES == 1 )
 472:/home/rdu/Workspace/project_templates/mcu/stm32_ws/src/libraries/FreeRTOS/Source/queue.c **** 
 473:/home/rdu/Workspace/project_templates/mcu/stm32_ws/src/libraries/FreeRTOS/Source/queue.c **** 	static void prvInitialiseMutex( Queue_t *pxNewQueue )
 474:/home/rdu/Workspace/project_templates/mcu/stm32_ws/src/libraries/FreeRTOS/Source/queue.c **** 	{
 348              		.loc 1 474 0
 349              		.cfi_startproc
 350              		@ args = 0, pretend = 0, frame = 8
 351              		@ frame_needed = 0, uses_anonymous_args = 0
 352 0000 00B5     		push	{lr}
 353              	.LCFI9:
 354              		.cfi_def_cfa_offset 4
 355              		.cfi_offset 14, -4
 356 0002 83B0     		sub	sp, sp, #12
 357              	.LCFI10:
 358              		.cfi_def_cfa_offset 16
 359 0004 0190     		str	r0, [sp, #4]
 475:/home/rdu/Workspace/project_templates/mcu/stm32_ws/src/libraries/FreeRTOS/Source/queue.c **** 		if( pxNewQueue != NULL )
 360              		.loc 1 475 0
 361 0006 019B     		ldr	r3, [sp, #4]
 362 0008 002B     		cmp	r3, #0
 363 000a 0ED0     		beq	.L21
 476:/home/rdu/Workspace/project_templates/mcu/stm32_ws/src/libraries/FreeRTOS/Source/queue.c **** 		{
 477:/home/rdu/Workspace/project_templates/mcu/stm32_ws/src/libraries/FreeRTOS/Source/queue.c **** 			/* The queue create function will set all the queue structure members
 478:/home/rdu/Workspace/project_templates/mcu/stm32_ws/src/libraries/FreeRTOS/Source/queue.c **** 			correctly for a generic queue, but this function is creating a
 479:/home/rdu/Workspace/project_templates/mcu/stm32_ws/src/libraries/FreeRTOS/Source/queue.c **** 			mutex.  Overwrite those members that need to be set differently -
 480:/home/rdu/Workspace/project_templates/mcu/stm32_ws/src/libraries/FreeRTOS/Source/queue.c **** 			in particular the information required for priority inheritance. */
 481:/home/rdu/Workspace/project_templates/mcu/stm32_ws/src/libraries/FreeRTOS/Source/queue.c **** 			pxNewQueue->u.xSemaphore.xMutexHolder = NULL;
 364              		.loc 1 481 0
 365 000c 019B     		ldr	r3, [sp, #4]
 366 000e 0022     		movs	r2, #0
 367 0010 9A60     		str	r2, [r3, #8]
 482:/home/rdu/Workspace/project_templates/mcu/stm32_ws/src/libraries/FreeRTOS/Source/queue.c **** 			pxNewQueue->uxQueueType = queueQUEUE_IS_MUTEX;
 368              		.loc 1 482 0
 369 0012 019B     		ldr	r3, [sp, #4]
 370 0014 0022     		movs	r2, #0
 371 0016 1A60     		str	r2, [r3]
 483:/home/rdu/Workspace/project_templates/mcu/stm32_ws/src/libraries/FreeRTOS/Source/queue.c **** 
 484:/home/rdu/Workspace/project_templates/mcu/stm32_ws/src/libraries/FreeRTOS/Source/queue.c **** 			/* In case this is a recursive mutex. */
 485:/home/rdu/Workspace/project_templates/mcu/stm32_ws/src/libraries/FreeRTOS/Source/queue.c **** 			pxNewQueue->u.xSemaphore.uxRecursiveCallCount = 0;
 372              		.loc 1 485 0
 373 0018 019B     		ldr	r3, [sp, #4]
 374 001a 0022     		movs	r2, #0
 375 001c DA60     		str	r2, [r3, #12]
 486:/home/rdu/Workspace/project_templates/mcu/stm32_ws/src/libraries/FreeRTOS/Source/queue.c **** 
 487:/home/rdu/Workspace/project_templates/mcu/stm32_ws/src/libraries/FreeRTOS/Source/queue.c **** 			traceCREATE_MUTEX( pxNewQueue );
 488:/home/rdu/Workspace/project_templates/mcu/stm32_ws/src/libraries/FreeRTOS/Source/queue.c **** 
 489:/home/rdu/Workspace/project_templates/mcu/stm32_ws/src/libraries/FreeRTOS/Source/queue.c **** 			/* Start with the semaphore in the expected state. */
 490:/home/rdu/Workspace/project_templates/mcu/stm32_ws/src/libraries/FreeRTOS/Source/queue.c **** 			( void ) xQueueGenericSend( pxNewQueue, NULL, ( TickType_t ) 0U, queueSEND_TO_BACK );
 376              		.loc 1 490 0
 377 001e 0023     		movs	r3, #0
 378 0020 0022     		movs	r2, #0
 379 0022 0021     		movs	r1, #0
 380 0024 0198     		ldr	r0, [sp, #4]
 381 0026 FFF7FEFF 		bl	xQueueGenericSend
 382              	.L21:
 491:/home/rdu/Workspace/project_templates/mcu/stm32_ws/src/libraries/FreeRTOS/Source/queue.c **** 		}
 492:/home/rdu/Workspace/project_templates/mcu/stm32_ws/src/libraries/FreeRTOS/Source/queue.c **** 		else
 493:/home/rdu/Workspace/project_templates/mcu/stm32_ws/src/libraries/FreeRTOS/Source/queue.c **** 		{
 494:/home/rdu/Workspace/project_templates/mcu/stm32_ws/src/libraries/FreeRTOS/Source/queue.c **** 			traceCREATE_MUTEX_FAILED();
 495:/home/rdu/Workspace/project_templates/mcu/stm32_ws/src/libraries/FreeRTOS/Source/queue.c **** 		}
 496:/home/rdu/Workspace/project_templates/mcu/stm32_ws/src/libraries/FreeRTOS/Source/queue.c **** 	}
 383              		.loc 1 496 0
 384 002a 00BF     		nop
 385 002c 03B0     		add	sp, sp, #12
 386              	.LCFI11:
 387              		.cfi_def_cfa_offset 4
 388              		@ sp needed
 389 002e 5DF804FB 		ldr	pc, [sp], #4
 390              		.cfi_endproc
 391              	.LFE8:
 393              		.section	.text.xQueueCreateMutex,"ax",%progbits
 394              		.align	1
 395              		.global	xQueueCreateMutex
 396              		.syntax unified
 397              		.thumb
 398              		.thumb_func
 399              		.fpu fpv4-sp-d16
 401              	xQueueCreateMutex:
 402              	.LFB9:
 497:/home/rdu/Workspace/project_templates/mcu/stm32_ws/src/libraries/FreeRTOS/Source/queue.c **** 
 498:/home/rdu/Workspace/project_templates/mcu/stm32_ws/src/libraries/FreeRTOS/Source/queue.c **** #endif /* configUSE_MUTEXES */
 499:/home/rdu/Workspace/project_templates/mcu/stm32_ws/src/libraries/FreeRTOS/Source/queue.c **** /*-----------------------------------------------------------*/
 500:/home/rdu/Workspace/project_templates/mcu/stm32_ws/src/libraries/FreeRTOS/Source/queue.c **** 
 501:/home/rdu/Workspace/project_templates/mcu/stm32_ws/src/libraries/FreeRTOS/Source/queue.c **** #if( ( configUSE_MUTEXES == 1 ) && ( configSUPPORT_DYNAMIC_ALLOCATION == 1 ) )
 502:/home/rdu/Workspace/project_templates/mcu/stm32_ws/src/libraries/FreeRTOS/Source/queue.c **** 
 503:/home/rdu/Workspace/project_templates/mcu/stm32_ws/src/libraries/FreeRTOS/Source/queue.c **** 	QueueHandle_t xQueueCreateMutex( const uint8_t ucQueueType )
 504:/home/rdu/Workspace/project_templates/mcu/stm32_ws/src/libraries/FreeRTOS/Source/queue.c **** 	{
 403              		.loc 1 504 0
 404              		.cfi_startproc
 405              		@ args = 0, pretend = 0, frame = 24
 406              		@ frame_needed = 0, uses_anonymous_args = 0
 407 0000 00B5     		push	{lr}
 408              	.LCFI12:
 409              		.cfi_def_cfa_offset 4
 410              		.cfi_offset 14, -4
 411 0002 87B0     		sub	sp, sp, #28
 412              	.LCFI13:
 413              		.cfi_def_cfa_offset 32
 414 0004 0346     		mov	r3, r0
 415 0006 8DF80730 		strb	r3, [sp, #7]
 505:/home/rdu/Workspace/project_templates/mcu/stm32_ws/src/libraries/FreeRTOS/Source/queue.c **** 	QueueHandle_t xNewQueue;
 506:/home/rdu/Workspace/project_templates/mcu/stm32_ws/src/libraries/FreeRTOS/Source/queue.c **** 	const UBaseType_t uxMutexLength = ( UBaseType_t ) 1, uxMutexSize = ( UBaseType_t ) 0;
 416              		.loc 1 506 0
 417 000a 0123     		movs	r3, #1
 418 000c 0593     		str	r3, [sp, #20]
 419 000e 0023     		movs	r3, #0
 420 0010 0493     		str	r3, [sp, #16]
 507:/home/rdu/Workspace/project_templates/mcu/stm32_ws/src/libraries/FreeRTOS/Source/queue.c **** 
 508:/home/rdu/Workspace/project_templates/mcu/stm32_ws/src/libraries/FreeRTOS/Source/queue.c **** 		xNewQueue = xQueueGenericCreate( uxMutexLength, uxMutexSize, ucQueueType );
 421              		.loc 1 508 0
 422 0012 9DF80730 		ldrb	r3, [sp, #7]	@ zero_extendqisi2
 423 0016 1A46     		mov	r2, r3
 424 0018 0499     		ldr	r1, [sp, #16]
 425 001a 0598     		ldr	r0, [sp, #20]
 426 001c FFF7FEFF 		bl	xQueueGenericCreate
 427 0020 0390     		str	r0, [sp, #12]
 509:/home/rdu/Workspace/project_templates/mcu/stm32_ws/src/libraries/FreeRTOS/Source/queue.c **** 		prvInitialiseMutex( ( Queue_t * ) xNewQueue );
 428              		.loc 1 509 0
 429 0022 0398     		ldr	r0, [sp, #12]
 430 0024 FFF7FEFF 		bl	prvInitialiseMutex
 510:/home/rdu/Workspace/project_templates/mcu/stm32_ws/src/libraries/FreeRTOS/Source/queue.c **** 
 511:/home/rdu/Workspace/project_templates/mcu/stm32_ws/src/libraries/FreeRTOS/Source/queue.c **** 		return xNewQueue;
 431              		.loc 1 511 0
 432 0028 039B     		ldr	r3, [sp, #12]
 512:/home/rdu/Workspace/project_templates/mcu/stm32_ws/src/libraries/FreeRTOS/Source/queue.c **** 	}
 433              		.loc 1 512 0
 434 002a 1846     		mov	r0, r3
 435 002c 07B0     		add	sp, sp, #28
 436              	.LCFI14:
 437              		.cfi_def_cfa_offset 4
 438              		@ sp needed
 439 002e 5DF804FB 		ldr	pc, [sp], #4
 440              		.cfi_endproc
 441              	.LFE9:
 443              		.section	.text.xQueueGiveMutexRecursive,"ax",%progbits
 444              		.align	1
 445              		.global	xQueueGiveMutexRecursive
 446              		.syntax unified
 447              		.thumb
 448              		.thumb_func
 449              		.fpu fpv4-sp-d16
 451              	xQueueGiveMutexRecursive:
 452              	.LFB10:
 513:/home/rdu/Workspace/project_templates/mcu/stm32_ws/src/libraries/FreeRTOS/Source/queue.c **** 
 514:/home/rdu/Workspace/project_templates/mcu/stm32_ws/src/libraries/FreeRTOS/Source/queue.c **** #endif /* configUSE_MUTEXES */
 515:/home/rdu/Workspace/project_templates/mcu/stm32_ws/src/libraries/FreeRTOS/Source/queue.c **** /*-----------------------------------------------------------*/
 516:/home/rdu/Workspace/project_templates/mcu/stm32_ws/src/libraries/FreeRTOS/Source/queue.c **** 
 517:/home/rdu/Workspace/project_templates/mcu/stm32_ws/src/libraries/FreeRTOS/Source/queue.c **** #if( ( configUSE_MUTEXES == 1 ) && ( configSUPPORT_STATIC_ALLOCATION == 1 ) )
 518:/home/rdu/Workspace/project_templates/mcu/stm32_ws/src/libraries/FreeRTOS/Source/queue.c **** 
 519:/home/rdu/Workspace/project_templates/mcu/stm32_ws/src/libraries/FreeRTOS/Source/queue.c **** 	QueueHandle_t xQueueCreateMutexStatic( const uint8_t ucQueueType, StaticQueue_t *pxStaticQueue )
 520:/home/rdu/Workspace/project_templates/mcu/stm32_ws/src/libraries/FreeRTOS/Source/queue.c **** 	{
 521:/home/rdu/Workspace/project_templates/mcu/stm32_ws/src/libraries/FreeRTOS/Source/queue.c **** 	QueueHandle_t xNewQueue;
 522:/home/rdu/Workspace/project_templates/mcu/stm32_ws/src/libraries/FreeRTOS/Source/queue.c **** 	const UBaseType_t uxMutexLength = ( UBaseType_t ) 1, uxMutexSize = ( UBaseType_t ) 0;
 523:/home/rdu/Workspace/project_templates/mcu/stm32_ws/src/libraries/FreeRTOS/Source/queue.c **** 
 524:/home/rdu/Workspace/project_templates/mcu/stm32_ws/src/libraries/FreeRTOS/Source/queue.c **** 		/* Prevent compiler warnings about unused parameters if
 525:/home/rdu/Workspace/project_templates/mcu/stm32_ws/src/libraries/FreeRTOS/Source/queue.c **** 		configUSE_TRACE_FACILITY does not equal 1. */
 526:/home/rdu/Workspace/project_templates/mcu/stm32_ws/src/libraries/FreeRTOS/Source/queue.c **** 		( void ) ucQueueType;
 527:/home/rdu/Workspace/project_templates/mcu/stm32_ws/src/libraries/FreeRTOS/Source/queue.c **** 
 528:/home/rdu/Workspace/project_templates/mcu/stm32_ws/src/libraries/FreeRTOS/Source/queue.c **** 		xNewQueue = xQueueGenericCreateStatic( uxMutexLength, uxMutexSize, NULL, pxStaticQueue, ucQueueTy
 529:/home/rdu/Workspace/project_templates/mcu/stm32_ws/src/libraries/FreeRTOS/Source/queue.c **** 		prvInitialiseMutex( ( Queue_t * ) xNewQueue );
 530:/home/rdu/Workspace/project_templates/mcu/stm32_ws/src/libraries/FreeRTOS/Source/queue.c **** 
 531:/home/rdu/Workspace/project_templates/mcu/stm32_ws/src/libraries/FreeRTOS/Source/queue.c **** 		return xNewQueue;
 532:/home/rdu/Workspace/project_templates/mcu/stm32_ws/src/libraries/FreeRTOS/Source/queue.c **** 	}
 533:/home/rdu/Workspace/project_templates/mcu/stm32_ws/src/libraries/FreeRTOS/Source/queue.c **** 
 534:/home/rdu/Workspace/project_templates/mcu/stm32_ws/src/libraries/FreeRTOS/Source/queue.c **** #endif /* configUSE_MUTEXES */
 535:/home/rdu/Workspace/project_templates/mcu/stm32_ws/src/libraries/FreeRTOS/Source/queue.c **** /*-----------------------------------------------------------*/
 536:/home/rdu/Workspace/project_templates/mcu/stm32_ws/src/libraries/FreeRTOS/Source/queue.c **** 
 537:/home/rdu/Workspace/project_templates/mcu/stm32_ws/src/libraries/FreeRTOS/Source/queue.c **** #if ( ( configUSE_MUTEXES == 1 ) && ( INCLUDE_xSemaphoreGetMutexHolder == 1 ) )
 538:/home/rdu/Workspace/project_templates/mcu/stm32_ws/src/libraries/FreeRTOS/Source/queue.c **** 
 539:/home/rdu/Workspace/project_templates/mcu/stm32_ws/src/libraries/FreeRTOS/Source/queue.c **** 	TaskHandle_t xQueueGetMutexHolder( QueueHandle_t xSemaphore )
 540:/home/rdu/Workspace/project_templates/mcu/stm32_ws/src/libraries/FreeRTOS/Source/queue.c **** 	{
 541:/home/rdu/Workspace/project_templates/mcu/stm32_ws/src/libraries/FreeRTOS/Source/queue.c **** 	TaskHandle_t pxReturn;
 542:/home/rdu/Workspace/project_templates/mcu/stm32_ws/src/libraries/FreeRTOS/Source/queue.c **** 	Queue_t * const pxSemaphore = ( Queue_t * ) xSemaphore;
 543:/home/rdu/Workspace/project_templates/mcu/stm32_ws/src/libraries/FreeRTOS/Source/queue.c **** 
 544:/home/rdu/Workspace/project_templates/mcu/stm32_ws/src/libraries/FreeRTOS/Source/queue.c **** 		/* This function is called by xSemaphoreGetMutexHolder(), and should not
 545:/home/rdu/Workspace/project_templates/mcu/stm32_ws/src/libraries/FreeRTOS/Source/queue.c **** 		be called directly.  Note:  This is a good way of determining if the
 546:/home/rdu/Workspace/project_templates/mcu/stm32_ws/src/libraries/FreeRTOS/Source/queue.c **** 		calling task is the mutex holder, but not a good way of determining the
 547:/home/rdu/Workspace/project_templates/mcu/stm32_ws/src/libraries/FreeRTOS/Source/queue.c **** 		identity of the mutex holder, as the holder may change between the
 548:/home/rdu/Workspace/project_templates/mcu/stm32_ws/src/libraries/FreeRTOS/Source/queue.c **** 		following critical section exiting and the function returning. */
 549:/home/rdu/Workspace/project_templates/mcu/stm32_ws/src/libraries/FreeRTOS/Source/queue.c **** 		taskENTER_CRITICAL();
 550:/home/rdu/Workspace/project_templates/mcu/stm32_ws/src/libraries/FreeRTOS/Source/queue.c **** 		{
 551:/home/rdu/Workspace/project_templates/mcu/stm32_ws/src/libraries/FreeRTOS/Source/queue.c **** 			if( pxSemaphore->uxQueueType == queueQUEUE_IS_MUTEX )
 552:/home/rdu/Workspace/project_templates/mcu/stm32_ws/src/libraries/FreeRTOS/Source/queue.c **** 			{
 553:/home/rdu/Workspace/project_templates/mcu/stm32_ws/src/libraries/FreeRTOS/Source/queue.c **** 				pxReturn = pxSemaphore->u.xSemaphore.xMutexHolder;
 554:/home/rdu/Workspace/project_templates/mcu/stm32_ws/src/libraries/FreeRTOS/Source/queue.c **** 			}
 555:/home/rdu/Workspace/project_templates/mcu/stm32_ws/src/libraries/FreeRTOS/Source/queue.c **** 			else
 556:/home/rdu/Workspace/project_templates/mcu/stm32_ws/src/libraries/FreeRTOS/Source/queue.c **** 			{
 557:/home/rdu/Workspace/project_templates/mcu/stm32_ws/src/libraries/FreeRTOS/Source/queue.c **** 				pxReturn = NULL;
 558:/home/rdu/Workspace/project_templates/mcu/stm32_ws/src/libraries/FreeRTOS/Source/queue.c **** 			}
 559:/home/rdu/Workspace/project_templates/mcu/stm32_ws/src/libraries/FreeRTOS/Source/queue.c **** 		}
 560:/home/rdu/Workspace/project_templates/mcu/stm32_ws/src/libraries/FreeRTOS/Source/queue.c **** 		taskEXIT_CRITICAL();
 561:/home/rdu/Workspace/project_templates/mcu/stm32_ws/src/libraries/FreeRTOS/Source/queue.c **** 
 562:/home/rdu/Workspace/project_templates/mcu/stm32_ws/src/libraries/FreeRTOS/Source/queue.c **** 		return pxReturn;
 563:/home/rdu/Workspace/project_templates/mcu/stm32_ws/src/libraries/FreeRTOS/Source/queue.c **** 	} /*lint !e818 xSemaphore cannot be a pointer to const because it is a typedef. */
 564:/home/rdu/Workspace/project_templates/mcu/stm32_ws/src/libraries/FreeRTOS/Source/queue.c **** 
 565:/home/rdu/Workspace/project_templates/mcu/stm32_ws/src/libraries/FreeRTOS/Source/queue.c **** #endif
 566:/home/rdu/Workspace/project_templates/mcu/stm32_ws/src/libraries/FreeRTOS/Source/queue.c **** /*-----------------------------------------------------------*/
 567:/home/rdu/Workspace/project_templates/mcu/stm32_ws/src/libraries/FreeRTOS/Source/queue.c **** 
 568:/home/rdu/Workspace/project_templates/mcu/stm32_ws/src/libraries/FreeRTOS/Source/queue.c **** #if ( ( configUSE_MUTEXES == 1 ) && ( INCLUDE_xSemaphoreGetMutexHolder == 1 ) )
 569:/home/rdu/Workspace/project_templates/mcu/stm32_ws/src/libraries/FreeRTOS/Source/queue.c **** 
 570:/home/rdu/Workspace/project_templates/mcu/stm32_ws/src/libraries/FreeRTOS/Source/queue.c **** 	TaskHandle_t xQueueGetMutexHolderFromISR( QueueHandle_t xSemaphore )
 571:/home/rdu/Workspace/project_templates/mcu/stm32_ws/src/libraries/FreeRTOS/Source/queue.c **** 	{
 572:/home/rdu/Workspace/project_templates/mcu/stm32_ws/src/libraries/FreeRTOS/Source/queue.c **** 	TaskHandle_t pxReturn;
 573:/home/rdu/Workspace/project_templates/mcu/stm32_ws/src/libraries/FreeRTOS/Source/queue.c **** 
 574:/home/rdu/Workspace/project_templates/mcu/stm32_ws/src/libraries/FreeRTOS/Source/queue.c **** 		configASSERT( xSemaphore );
 575:/home/rdu/Workspace/project_templates/mcu/stm32_ws/src/libraries/FreeRTOS/Source/queue.c **** 
 576:/home/rdu/Workspace/project_templates/mcu/stm32_ws/src/libraries/FreeRTOS/Source/queue.c **** 		/* Mutexes cannot be used in interrupt service routines, so the mutex
 577:/home/rdu/Workspace/project_templates/mcu/stm32_ws/src/libraries/FreeRTOS/Source/queue.c **** 		holder should not change in an ISR, and therefore a critical section is
 578:/home/rdu/Workspace/project_templates/mcu/stm32_ws/src/libraries/FreeRTOS/Source/queue.c **** 		not required here. */
 579:/home/rdu/Workspace/project_templates/mcu/stm32_ws/src/libraries/FreeRTOS/Source/queue.c **** 		if( ( ( Queue_t * ) xSemaphore )->uxQueueType == queueQUEUE_IS_MUTEX )
 580:/home/rdu/Workspace/project_templates/mcu/stm32_ws/src/libraries/FreeRTOS/Source/queue.c **** 		{
 581:/home/rdu/Workspace/project_templates/mcu/stm32_ws/src/libraries/FreeRTOS/Source/queue.c **** 			pxReturn = ( ( Queue_t * ) xSemaphore )->u.xSemaphore.xMutexHolder;
 582:/home/rdu/Workspace/project_templates/mcu/stm32_ws/src/libraries/FreeRTOS/Source/queue.c **** 		}
 583:/home/rdu/Workspace/project_templates/mcu/stm32_ws/src/libraries/FreeRTOS/Source/queue.c **** 		else
 584:/home/rdu/Workspace/project_templates/mcu/stm32_ws/src/libraries/FreeRTOS/Source/queue.c **** 		{
 585:/home/rdu/Workspace/project_templates/mcu/stm32_ws/src/libraries/FreeRTOS/Source/queue.c **** 			pxReturn = NULL;
 586:/home/rdu/Workspace/project_templates/mcu/stm32_ws/src/libraries/FreeRTOS/Source/queue.c **** 		}
 587:/home/rdu/Workspace/project_templates/mcu/stm32_ws/src/libraries/FreeRTOS/Source/queue.c **** 
 588:/home/rdu/Workspace/project_templates/mcu/stm32_ws/src/libraries/FreeRTOS/Source/queue.c **** 		return pxReturn;
 589:/home/rdu/Workspace/project_templates/mcu/stm32_ws/src/libraries/FreeRTOS/Source/queue.c **** 	} /*lint !e818 xSemaphore cannot be a pointer to const because it is a typedef. */
 590:/home/rdu/Workspace/project_templates/mcu/stm32_ws/src/libraries/FreeRTOS/Source/queue.c **** 
 591:/home/rdu/Workspace/project_templates/mcu/stm32_ws/src/libraries/FreeRTOS/Source/queue.c **** #endif
 592:/home/rdu/Workspace/project_templates/mcu/stm32_ws/src/libraries/FreeRTOS/Source/queue.c **** /*-----------------------------------------------------------*/
 593:/home/rdu/Workspace/project_templates/mcu/stm32_ws/src/libraries/FreeRTOS/Source/queue.c **** 
 594:/home/rdu/Workspace/project_templates/mcu/stm32_ws/src/libraries/FreeRTOS/Source/queue.c **** #if ( configUSE_RECURSIVE_MUTEXES == 1 )
 595:/home/rdu/Workspace/project_templates/mcu/stm32_ws/src/libraries/FreeRTOS/Source/queue.c **** 
 596:/home/rdu/Workspace/project_templates/mcu/stm32_ws/src/libraries/FreeRTOS/Source/queue.c **** 	BaseType_t xQueueGiveMutexRecursive( QueueHandle_t xMutex )
 597:/home/rdu/Workspace/project_templates/mcu/stm32_ws/src/libraries/FreeRTOS/Source/queue.c **** 	{
 453              		.loc 1 597 0
 454              		.cfi_startproc
 455              		@ args = 0, pretend = 0, frame = 24
 456              		@ frame_needed = 0, uses_anonymous_args = 0
 457 0000 10B5     		push	{r4, lr}
 458              	.LCFI15:
 459              		.cfi_def_cfa_offset 8
 460              		.cfi_offset 4, -8
 461              		.cfi_offset 14, -4
 462 0002 86B0     		sub	sp, sp, #24
 463              	.LCFI16:
 464              		.cfi_def_cfa_offset 32
 465 0004 0190     		str	r0, [sp, #4]
 598:/home/rdu/Workspace/project_templates/mcu/stm32_ws/src/libraries/FreeRTOS/Source/queue.c **** 	BaseType_t xReturn;
 599:/home/rdu/Workspace/project_templates/mcu/stm32_ws/src/libraries/FreeRTOS/Source/queue.c **** 	Queue_t * const pxMutex = ( Queue_t * ) xMutex;
 466              		.loc 1 599 0
 467 0006 019B     		ldr	r3, [sp, #4]
 468 0008 0493     		str	r3, [sp, #16]
 600:/home/rdu/Workspace/project_templates/mcu/stm32_ws/src/libraries/FreeRTOS/Source/queue.c **** 
 601:/home/rdu/Workspace/project_templates/mcu/stm32_ws/src/libraries/FreeRTOS/Source/queue.c **** 		configASSERT( pxMutex );
 469              		.loc 1 601 0
 470 000a 049B     		ldr	r3, [sp, #16]
 471 000c 002B     		cmp	r3, #0
 472 000e 09D1     		bne	.L25
 473              	.LBB105:
 474              	.LBB106:
 475              		.loc 2 195 0 discriminator 1
 476              		.syntax unified
 477              	@ 195 "/home/rdu/Workspace/project_templates/mcu/stm32_ws/src/libraries/FreeRTOS/Source/portable/GC
 478 0010 4FF05003 			mov r3, #80												
 479 0014 83F31188 		msr basepri, r3											
 480 0018 BFF36F8F 		isb														
 481 001c BFF34F8F 		dsb														
 482              	
 483              	@ 0 "" 2
 484              		.thumb
 485              		.syntax unified
 486 0020 0393     		str	r3, [sp, #12]
 487              	.L26:
 488              	.LBE106:
 489              	.LBE105:
 490              		.loc 1 601 0 discriminator 1
 491 0022 FEE7     		b	.L26
 492              	.L25:
 602:/home/rdu/Workspace/project_templates/mcu/stm32_ws/src/libraries/FreeRTOS/Source/queue.c **** 
 603:/home/rdu/Workspace/project_templates/mcu/stm32_ws/src/libraries/FreeRTOS/Source/queue.c **** 		/* If this is the task that holds the mutex then xMutexHolder will not
 604:/home/rdu/Workspace/project_templates/mcu/stm32_ws/src/libraries/FreeRTOS/Source/queue.c **** 		change outside of this task.  If this task does not hold the mutex then
 605:/home/rdu/Workspace/project_templates/mcu/stm32_ws/src/libraries/FreeRTOS/Source/queue.c **** 		pxMutexHolder can never coincidentally equal the tasks handle, and as
 606:/home/rdu/Workspace/project_templates/mcu/stm32_ws/src/libraries/FreeRTOS/Source/queue.c **** 		this is the only condition we are interested in it does not matter if
 607:/home/rdu/Workspace/project_templates/mcu/stm32_ws/src/libraries/FreeRTOS/Source/queue.c **** 		pxMutexHolder is accessed simultaneously by another task.  Therefore no
 608:/home/rdu/Workspace/project_templates/mcu/stm32_ws/src/libraries/FreeRTOS/Source/queue.c **** 		mutual exclusion is required to test the pxMutexHolder variable. */
 609:/home/rdu/Workspace/project_templates/mcu/stm32_ws/src/libraries/FreeRTOS/Source/queue.c **** 		if( pxMutex->u.xSemaphore.xMutexHolder == xTaskGetCurrentTaskHandle() )
 493              		.loc 1 609 0
 494 0024 049B     		ldr	r3, [sp, #16]
 495 0026 9C68     		ldr	r4, [r3, #8]
 496 0028 FFF7FEFF 		bl	xTaskGetCurrentTaskHandle
 497 002c 0346     		mov	r3, r0
 498 002e 9C42     		cmp	r4, r3
 499 0030 11D1     		bne	.L27
 610:/home/rdu/Workspace/project_templates/mcu/stm32_ws/src/libraries/FreeRTOS/Source/queue.c **** 		{
 611:/home/rdu/Workspace/project_templates/mcu/stm32_ws/src/libraries/FreeRTOS/Source/queue.c **** 			traceGIVE_MUTEX_RECURSIVE( pxMutex );
 612:/home/rdu/Workspace/project_templates/mcu/stm32_ws/src/libraries/FreeRTOS/Source/queue.c **** 
 613:/home/rdu/Workspace/project_templates/mcu/stm32_ws/src/libraries/FreeRTOS/Source/queue.c **** 			/* uxRecursiveCallCount cannot be zero if xMutexHolder is equal to
 614:/home/rdu/Workspace/project_templates/mcu/stm32_ws/src/libraries/FreeRTOS/Source/queue.c **** 			the task handle, therefore no underflow check is required.  Also,
 615:/home/rdu/Workspace/project_templates/mcu/stm32_ws/src/libraries/FreeRTOS/Source/queue.c **** 			uxRecursiveCallCount is only modified by the mutex holder, and as
 616:/home/rdu/Workspace/project_templates/mcu/stm32_ws/src/libraries/FreeRTOS/Source/queue.c **** 			there can only be one, no mutual exclusion is required to modify the
 617:/home/rdu/Workspace/project_templates/mcu/stm32_ws/src/libraries/FreeRTOS/Source/queue.c **** 			uxRecursiveCallCount member. */
 618:/home/rdu/Workspace/project_templates/mcu/stm32_ws/src/libraries/FreeRTOS/Source/queue.c **** 			( pxMutex->u.xSemaphore.uxRecursiveCallCount )--;
 500              		.loc 1 618 0
 501 0032 049B     		ldr	r3, [sp, #16]
 502 0034 DB68     		ldr	r3, [r3, #12]
 503 0036 5A1E     		subs	r2, r3, #1
 504 0038 049B     		ldr	r3, [sp, #16]
 505 003a DA60     		str	r2, [r3, #12]
 619:/home/rdu/Workspace/project_templates/mcu/stm32_ws/src/libraries/FreeRTOS/Source/queue.c **** 
 620:/home/rdu/Workspace/project_templates/mcu/stm32_ws/src/libraries/FreeRTOS/Source/queue.c **** 			/* Has the recursive call count unwound to 0? */
 621:/home/rdu/Workspace/project_templates/mcu/stm32_ws/src/libraries/FreeRTOS/Source/queue.c **** 			if( pxMutex->u.xSemaphore.uxRecursiveCallCount == ( UBaseType_t ) 0 )
 506              		.loc 1 621 0
 507 003c 049B     		ldr	r3, [sp, #16]
 508 003e DB68     		ldr	r3, [r3, #12]
 509 0040 002B     		cmp	r3, #0
 510 0042 05D1     		bne	.L28
 622:/home/rdu/Workspace/project_templates/mcu/stm32_ws/src/libraries/FreeRTOS/Source/queue.c **** 			{
 623:/home/rdu/Workspace/project_templates/mcu/stm32_ws/src/libraries/FreeRTOS/Source/queue.c **** 				/* Return the mutex.  This will automatically unblock any other
 624:/home/rdu/Workspace/project_templates/mcu/stm32_ws/src/libraries/FreeRTOS/Source/queue.c **** 				task that might be waiting to access the mutex. */
 625:/home/rdu/Workspace/project_templates/mcu/stm32_ws/src/libraries/FreeRTOS/Source/queue.c **** 				( void ) xQueueGenericSend( pxMutex, NULL, queueMUTEX_GIVE_BLOCK_TIME, queueSEND_TO_BACK );
 511              		.loc 1 625 0
 512 0044 0023     		movs	r3, #0
 513 0046 0022     		movs	r2, #0
 514 0048 0021     		movs	r1, #0
 515 004a 0498     		ldr	r0, [sp, #16]
 516 004c FFF7FEFF 		bl	xQueueGenericSend
 517              	.L28:
 626:/home/rdu/Workspace/project_templates/mcu/stm32_ws/src/libraries/FreeRTOS/Source/queue.c **** 			}
 627:/home/rdu/Workspace/project_templates/mcu/stm32_ws/src/libraries/FreeRTOS/Source/queue.c **** 			else
 628:/home/rdu/Workspace/project_templates/mcu/stm32_ws/src/libraries/FreeRTOS/Source/queue.c **** 			{
 629:/home/rdu/Workspace/project_templates/mcu/stm32_ws/src/libraries/FreeRTOS/Source/queue.c **** 				mtCOVERAGE_TEST_MARKER();
 630:/home/rdu/Workspace/project_templates/mcu/stm32_ws/src/libraries/FreeRTOS/Source/queue.c **** 			}
 631:/home/rdu/Workspace/project_templates/mcu/stm32_ws/src/libraries/FreeRTOS/Source/queue.c **** 
 632:/home/rdu/Workspace/project_templates/mcu/stm32_ws/src/libraries/FreeRTOS/Source/queue.c **** 			xReturn = pdPASS;
 518              		.loc 1 632 0
 519 0050 0123     		movs	r3, #1
 520 0052 0593     		str	r3, [sp, #20]
 521 0054 01E0     		b	.L29
 522              	.L27:
 633:/home/rdu/Workspace/project_templates/mcu/stm32_ws/src/libraries/FreeRTOS/Source/queue.c **** 		}
 634:/home/rdu/Workspace/project_templates/mcu/stm32_ws/src/libraries/FreeRTOS/Source/queue.c **** 		else
 635:/home/rdu/Workspace/project_templates/mcu/stm32_ws/src/libraries/FreeRTOS/Source/queue.c **** 		{
 636:/home/rdu/Workspace/project_templates/mcu/stm32_ws/src/libraries/FreeRTOS/Source/queue.c **** 			/* The mutex cannot be given because the calling task is not the
 637:/home/rdu/Workspace/project_templates/mcu/stm32_ws/src/libraries/FreeRTOS/Source/queue.c **** 			holder. */
 638:/home/rdu/Workspace/project_templates/mcu/stm32_ws/src/libraries/FreeRTOS/Source/queue.c **** 			xReturn = pdFAIL;
 523              		.loc 1 638 0
 524 0056 0023     		movs	r3, #0
 525 0058 0593     		str	r3, [sp, #20]
 526              	.L29:
 639:/home/rdu/Workspace/project_templates/mcu/stm32_ws/src/libraries/FreeRTOS/Source/queue.c **** 
 640:/home/rdu/Workspace/project_templates/mcu/stm32_ws/src/libraries/FreeRTOS/Source/queue.c **** 			traceGIVE_MUTEX_RECURSIVE_FAILED( pxMutex );
 641:/home/rdu/Workspace/project_templates/mcu/stm32_ws/src/libraries/FreeRTOS/Source/queue.c **** 		}
 642:/home/rdu/Workspace/project_templates/mcu/stm32_ws/src/libraries/FreeRTOS/Source/queue.c **** 
 643:/home/rdu/Workspace/project_templates/mcu/stm32_ws/src/libraries/FreeRTOS/Source/queue.c **** 		return xReturn;
 527              		.loc 1 643 0
 528 005a 059B     		ldr	r3, [sp, #20]
 644:/home/rdu/Workspace/project_templates/mcu/stm32_ws/src/libraries/FreeRTOS/Source/queue.c **** 	}
 529              		.loc 1 644 0
 530 005c 1846     		mov	r0, r3
 531 005e 06B0     		add	sp, sp, #24
 532              	.LCFI17:
 533              		.cfi_def_cfa_offset 8
 534              		@ sp needed
 535 0060 10BD     		pop	{r4, pc}
 536              		.cfi_endproc
 537              	.LFE10:
 539              		.section	.text.xQueueTakeMutexRecursive,"ax",%progbits
 540              		.align	1
 541              		.global	xQueueTakeMutexRecursive
 542              		.syntax unified
 543              		.thumb
 544              		.thumb_func
 545              		.fpu fpv4-sp-d16
 547              	xQueueTakeMutexRecursive:
 548              	.LFB11:
 645:/home/rdu/Workspace/project_templates/mcu/stm32_ws/src/libraries/FreeRTOS/Source/queue.c **** 
 646:/home/rdu/Workspace/project_templates/mcu/stm32_ws/src/libraries/FreeRTOS/Source/queue.c **** #endif /* configUSE_RECURSIVE_MUTEXES */
 647:/home/rdu/Workspace/project_templates/mcu/stm32_ws/src/libraries/FreeRTOS/Source/queue.c **** /*-----------------------------------------------------------*/
 648:/home/rdu/Workspace/project_templates/mcu/stm32_ws/src/libraries/FreeRTOS/Source/queue.c **** 
 649:/home/rdu/Workspace/project_templates/mcu/stm32_ws/src/libraries/FreeRTOS/Source/queue.c **** #if ( configUSE_RECURSIVE_MUTEXES == 1 )
 650:/home/rdu/Workspace/project_templates/mcu/stm32_ws/src/libraries/FreeRTOS/Source/queue.c **** 
 651:/home/rdu/Workspace/project_templates/mcu/stm32_ws/src/libraries/FreeRTOS/Source/queue.c **** 	BaseType_t xQueueTakeMutexRecursive( QueueHandle_t xMutex, TickType_t xTicksToWait )
 652:/home/rdu/Workspace/project_templates/mcu/stm32_ws/src/libraries/FreeRTOS/Source/queue.c **** 	{
 549              		.loc 1 652 0
 550              		.cfi_startproc
 551              		@ args = 0, pretend = 0, frame = 24
 552              		@ frame_needed = 0, uses_anonymous_args = 0
 553 0000 10B5     		push	{r4, lr}
 554              	.LCFI18:
 555              		.cfi_def_cfa_offset 8
 556              		.cfi_offset 4, -8
 557              		.cfi_offset 14, -4
 558 0002 86B0     		sub	sp, sp, #24
 559              	.LCFI19:
 560              		.cfi_def_cfa_offset 32
 561 0004 0190     		str	r0, [sp, #4]
 562 0006 0091     		str	r1, [sp]
 653:/home/rdu/Workspace/project_templates/mcu/stm32_ws/src/libraries/FreeRTOS/Source/queue.c **** 	BaseType_t xReturn;
 654:/home/rdu/Workspace/project_templates/mcu/stm32_ws/src/libraries/FreeRTOS/Source/queue.c **** 	Queue_t * const pxMutex = ( Queue_t * ) xMutex;
 563              		.loc 1 654 0
 564 0008 019B     		ldr	r3, [sp, #4]
 565 000a 0493     		str	r3, [sp, #16]
 655:/home/rdu/Workspace/project_templates/mcu/stm32_ws/src/libraries/FreeRTOS/Source/queue.c **** 
 656:/home/rdu/Workspace/project_templates/mcu/stm32_ws/src/libraries/FreeRTOS/Source/queue.c **** 		configASSERT( pxMutex );
 566              		.loc 1 656 0
 567 000c 049B     		ldr	r3, [sp, #16]
 568 000e 002B     		cmp	r3, #0
 569 0010 09D1     		bne	.L32
 570              	.LBB107:
 571              	.LBB108:
 572              		.loc 2 195 0 discriminator 1
 573              		.syntax unified
 574              	@ 195 "/home/rdu/Workspace/project_templates/mcu/stm32_ws/src/libraries/FreeRTOS/Source/portable/GC
 575 0012 4FF05003 			mov r3, #80												
 576 0016 83F31188 		msr basepri, r3											
 577 001a BFF36F8F 		isb														
 578 001e BFF34F8F 		dsb														
 579              	
 580              	@ 0 "" 2
 581              		.thumb
 582              		.syntax unified
 583 0022 0393     		str	r3, [sp, #12]
 584              	.L33:
 585              	.LBE108:
 586              	.LBE107:
 587              		.loc 1 656 0 discriminator 1
 588 0024 FEE7     		b	.L33
 589              	.L32:
 657:/home/rdu/Workspace/project_templates/mcu/stm32_ws/src/libraries/FreeRTOS/Source/queue.c **** 
 658:/home/rdu/Workspace/project_templates/mcu/stm32_ws/src/libraries/FreeRTOS/Source/queue.c **** 		/* Comments regarding mutual exclusion as per those within
 659:/home/rdu/Workspace/project_templates/mcu/stm32_ws/src/libraries/FreeRTOS/Source/queue.c **** 		xQueueGiveMutexRecursive(). */
 660:/home/rdu/Workspace/project_templates/mcu/stm32_ws/src/libraries/FreeRTOS/Source/queue.c **** 
 661:/home/rdu/Workspace/project_templates/mcu/stm32_ws/src/libraries/FreeRTOS/Source/queue.c **** 		traceTAKE_MUTEX_RECURSIVE( pxMutex );
 662:/home/rdu/Workspace/project_templates/mcu/stm32_ws/src/libraries/FreeRTOS/Source/queue.c **** 
 663:/home/rdu/Workspace/project_templates/mcu/stm32_ws/src/libraries/FreeRTOS/Source/queue.c **** 		if( pxMutex->u.xSemaphore.xMutexHolder == xTaskGetCurrentTaskHandle() )
 590              		.loc 1 663 0
 591 0026 049B     		ldr	r3, [sp, #16]
 592 0028 9C68     		ldr	r4, [r3, #8]
 593 002a FFF7FEFF 		bl	xTaskGetCurrentTaskHandle
 594 002e 0346     		mov	r3, r0
 595 0030 9C42     		cmp	r4, r3
 596 0032 07D1     		bne	.L34
 664:/home/rdu/Workspace/project_templates/mcu/stm32_ws/src/libraries/FreeRTOS/Source/queue.c **** 		{
 665:/home/rdu/Workspace/project_templates/mcu/stm32_ws/src/libraries/FreeRTOS/Source/queue.c **** 			( pxMutex->u.xSemaphore.uxRecursiveCallCount )++;
 597              		.loc 1 665 0
 598 0034 049B     		ldr	r3, [sp, #16]
 599 0036 DB68     		ldr	r3, [r3, #12]
 600 0038 5A1C     		adds	r2, r3, #1
 601 003a 049B     		ldr	r3, [sp, #16]
 602 003c DA60     		str	r2, [r3, #12]
 666:/home/rdu/Workspace/project_templates/mcu/stm32_ws/src/libraries/FreeRTOS/Source/queue.c **** 			xReturn = pdPASS;
 603              		.loc 1 666 0
 604 003e 0123     		movs	r3, #1
 605 0040 0593     		str	r3, [sp, #20]
 606 0042 0CE0     		b	.L35
 607              	.L34:
 667:/home/rdu/Workspace/project_templates/mcu/stm32_ws/src/libraries/FreeRTOS/Source/queue.c **** 		}
 668:/home/rdu/Workspace/project_templates/mcu/stm32_ws/src/libraries/FreeRTOS/Source/queue.c **** 		else
 669:/home/rdu/Workspace/project_templates/mcu/stm32_ws/src/libraries/FreeRTOS/Source/queue.c **** 		{
 670:/home/rdu/Workspace/project_templates/mcu/stm32_ws/src/libraries/FreeRTOS/Source/queue.c **** 			xReturn = xQueueSemaphoreTake( pxMutex, xTicksToWait );
 608              		.loc 1 670 0
 609 0044 0099     		ldr	r1, [sp]
 610 0046 0498     		ldr	r0, [sp, #16]
 611 0048 FFF7FEFF 		bl	xQueueSemaphoreTake
 612 004c 0590     		str	r0, [sp, #20]
 671:/home/rdu/Workspace/project_templates/mcu/stm32_ws/src/libraries/FreeRTOS/Source/queue.c **** 
 672:/home/rdu/Workspace/project_templates/mcu/stm32_ws/src/libraries/FreeRTOS/Source/queue.c **** 			/* pdPASS will only be returned if the mutex was successfully
 673:/home/rdu/Workspace/project_templates/mcu/stm32_ws/src/libraries/FreeRTOS/Source/queue.c **** 			obtained.  The calling task may have entered the Blocked state
 674:/home/rdu/Workspace/project_templates/mcu/stm32_ws/src/libraries/FreeRTOS/Source/queue.c **** 			before reaching here. */
 675:/home/rdu/Workspace/project_templates/mcu/stm32_ws/src/libraries/FreeRTOS/Source/queue.c **** 			if( xReturn != pdFAIL )
 613              		.loc 1 675 0
 614 004e 059B     		ldr	r3, [sp, #20]
 615 0050 002B     		cmp	r3, #0
 616 0052 04D0     		beq	.L35
 676:/home/rdu/Workspace/project_templates/mcu/stm32_ws/src/libraries/FreeRTOS/Source/queue.c **** 			{
 677:/home/rdu/Workspace/project_templates/mcu/stm32_ws/src/libraries/FreeRTOS/Source/queue.c **** 				( pxMutex->u.xSemaphore.uxRecursiveCallCount )++;
 617              		.loc 1 677 0
 618 0054 049B     		ldr	r3, [sp, #16]
 619 0056 DB68     		ldr	r3, [r3, #12]
 620 0058 5A1C     		adds	r2, r3, #1
 621 005a 049B     		ldr	r3, [sp, #16]
 622 005c DA60     		str	r2, [r3, #12]
 623              	.L35:
 678:/home/rdu/Workspace/project_templates/mcu/stm32_ws/src/libraries/FreeRTOS/Source/queue.c **** 			}
 679:/home/rdu/Workspace/project_templates/mcu/stm32_ws/src/libraries/FreeRTOS/Source/queue.c **** 			else
 680:/home/rdu/Workspace/project_templates/mcu/stm32_ws/src/libraries/FreeRTOS/Source/queue.c **** 			{
 681:/home/rdu/Workspace/project_templates/mcu/stm32_ws/src/libraries/FreeRTOS/Source/queue.c **** 				traceTAKE_MUTEX_RECURSIVE_FAILED( pxMutex );
 682:/home/rdu/Workspace/project_templates/mcu/stm32_ws/src/libraries/FreeRTOS/Source/queue.c **** 			}
 683:/home/rdu/Workspace/project_templates/mcu/stm32_ws/src/libraries/FreeRTOS/Source/queue.c **** 		}
 684:/home/rdu/Workspace/project_templates/mcu/stm32_ws/src/libraries/FreeRTOS/Source/queue.c **** 
 685:/home/rdu/Workspace/project_templates/mcu/stm32_ws/src/libraries/FreeRTOS/Source/queue.c **** 		return xReturn;
 624              		.loc 1 685 0
 625 005e 059B     		ldr	r3, [sp, #20]
 686:/home/rdu/Workspace/project_templates/mcu/stm32_ws/src/libraries/FreeRTOS/Source/queue.c **** 	}
 626              		.loc 1 686 0
 627 0060 1846     		mov	r0, r3
 628 0062 06B0     		add	sp, sp, #24
 629              	.LCFI20:
 630              		.cfi_def_cfa_offset 8
 631              		@ sp needed
 632 0064 10BD     		pop	{r4, pc}
 633              		.cfi_endproc
 634              	.LFE11:
 636              		.section	.text.xQueueCreateCountingSemaphore,"ax",%progbits
 637              		.align	1
 638              		.global	xQueueCreateCountingSemaphore
 639              		.syntax unified
 640              		.thumb
 641              		.thumb_func
 642              		.fpu fpv4-sp-d16
 644              	xQueueCreateCountingSemaphore:
 645              	.LFB12:
 687:/home/rdu/Workspace/project_templates/mcu/stm32_ws/src/libraries/FreeRTOS/Source/queue.c **** 
 688:/home/rdu/Workspace/project_templates/mcu/stm32_ws/src/libraries/FreeRTOS/Source/queue.c **** #endif /* configUSE_RECURSIVE_MUTEXES */
 689:/home/rdu/Workspace/project_templates/mcu/stm32_ws/src/libraries/FreeRTOS/Source/queue.c **** /*-----------------------------------------------------------*/
 690:/home/rdu/Workspace/project_templates/mcu/stm32_ws/src/libraries/FreeRTOS/Source/queue.c **** 
 691:/home/rdu/Workspace/project_templates/mcu/stm32_ws/src/libraries/FreeRTOS/Source/queue.c **** #if( ( configUSE_COUNTING_SEMAPHORES == 1 ) && ( configSUPPORT_STATIC_ALLOCATION == 1 ) )
 692:/home/rdu/Workspace/project_templates/mcu/stm32_ws/src/libraries/FreeRTOS/Source/queue.c **** 
 693:/home/rdu/Workspace/project_templates/mcu/stm32_ws/src/libraries/FreeRTOS/Source/queue.c **** 	QueueHandle_t xQueueCreateCountingSemaphoreStatic( const UBaseType_t uxMaxCount, const UBaseType_t
 694:/home/rdu/Workspace/project_templates/mcu/stm32_ws/src/libraries/FreeRTOS/Source/queue.c **** 	{
 695:/home/rdu/Workspace/project_templates/mcu/stm32_ws/src/libraries/FreeRTOS/Source/queue.c **** 	QueueHandle_t xHandle;
 696:/home/rdu/Workspace/project_templates/mcu/stm32_ws/src/libraries/FreeRTOS/Source/queue.c **** 
 697:/home/rdu/Workspace/project_templates/mcu/stm32_ws/src/libraries/FreeRTOS/Source/queue.c **** 		configASSERT( uxMaxCount != 0 );
 698:/home/rdu/Workspace/project_templates/mcu/stm32_ws/src/libraries/FreeRTOS/Source/queue.c **** 		configASSERT( uxInitialCount <= uxMaxCount );
 699:/home/rdu/Workspace/project_templates/mcu/stm32_ws/src/libraries/FreeRTOS/Source/queue.c **** 
 700:/home/rdu/Workspace/project_templates/mcu/stm32_ws/src/libraries/FreeRTOS/Source/queue.c **** 		xHandle = xQueueGenericCreateStatic( uxMaxCount, queueSEMAPHORE_QUEUE_ITEM_LENGTH, NULL, pxStatic
 701:/home/rdu/Workspace/project_templates/mcu/stm32_ws/src/libraries/FreeRTOS/Source/queue.c **** 
 702:/home/rdu/Workspace/project_templates/mcu/stm32_ws/src/libraries/FreeRTOS/Source/queue.c **** 		if( xHandle != NULL )
 703:/home/rdu/Workspace/project_templates/mcu/stm32_ws/src/libraries/FreeRTOS/Source/queue.c **** 		{
 704:/home/rdu/Workspace/project_templates/mcu/stm32_ws/src/libraries/FreeRTOS/Source/queue.c **** 			( ( Queue_t * ) xHandle )->uxMessagesWaiting = uxInitialCount;
 705:/home/rdu/Workspace/project_templates/mcu/stm32_ws/src/libraries/FreeRTOS/Source/queue.c **** 
 706:/home/rdu/Workspace/project_templates/mcu/stm32_ws/src/libraries/FreeRTOS/Source/queue.c **** 			traceCREATE_COUNTING_SEMAPHORE();
 707:/home/rdu/Workspace/project_templates/mcu/stm32_ws/src/libraries/FreeRTOS/Source/queue.c **** 		}
 708:/home/rdu/Workspace/project_templates/mcu/stm32_ws/src/libraries/FreeRTOS/Source/queue.c **** 		else
 709:/home/rdu/Workspace/project_templates/mcu/stm32_ws/src/libraries/FreeRTOS/Source/queue.c **** 		{
 710:/home/rdu/Workspace/project_templates/mcu/stm32_ws/src/libraries/FreeRTOS/Source/queue.c **** 			traceCREATE_COUNTING_SEMAPHORE_FAILED();
 711:/home/rdu/Workspace/project_templates/mcu/stm32_ws/src/libraries/FreeRTOS/Source/queue.c **** 		}
 712:/home/rdu/Workspace/project_templates/mcu/stm32_ws/src/libraries/FreeRTOS/Source/queue.c **** 
 713:/home/rdu/Workspace/project_templates/mcu/stm32_ws/src/libraries/FreeRTOS/Source/queue.c **** 		return xHandle;
 714:/home/rdu/Workspace/project_templates/mcu/stm32_ws/src/libraries/FreeRTOS/Source/queue.c **** 	}
 715:/home/rdu/Workspace/project_templates/mcu/stm32_ws/src/libraries/FreeRTOS/Source/queue.c **** 
 716:/home/rdu/Workspace/project_templates/mcu/stm32_ws/src/libraries/FreeRTOS/Source/queue.c **** #endif /* ( ( configUSE_COUNTING_SEMAPHORES == 1 ) && ( configSUPPORT_DYNAMIC_ALLOCATION == 1 ) ) *
 717:/home/rdu/Workspace/project_templates/mcu/stm32_ws/src/libraries/FreeRTOS/Source/queue.c **** /*-----------------------------------------------------------*/
 718:/home/rdu/Workspace/project_templates/mcu/stm32_ws/src/libraries/FreeRTOS/Source/queue.c **** 
 719:/home/rdu/Workspace/project_templates/mcu/stm32_ws/src/libraries/FreeRTOS/Source/queue.c **** #if( ( configUSE_COUNTING_SEMAPHORES == 1 ) && ( configSUPPORT_DYNAMIC_ALLOCATION == 1 ) )
 720:/home/rdu/Workspace/project_templates/mcu/stm32_ws/src/libraries/FreeRTOS/Source/queue.c **** 
 721:/home/rdu/Workspace/project_templates/mcu/stm32_ws/src/libraries/FreeRTOS/Source/queue.c **** 	QueueHandle_t xQueueCreateCountingSemaphore( const UBaseType_t uxMaxCount, const UBaseType_t uxIni
 722:/home/rdu/Workspace/project_templates/mcu/stm32_ws/src/libraries/FreeRTOS/Source/queue.c **** 	{
 646              		.loc 1 722 0
 647              		.cfi_startproc
 648              		@ args = 0, pretend = 0, frame = 24
 649              		@ frame_needed = 0, uses_anonymous_args = 0
 650 0000 00B5     		push	{lr}
 651              	.LCFI21:
 652              		.cfi_def_cfa_offset 4
 653              		.cfi_offset 14, -4
 654 0002 87B0     		sub	sp, sp, #28
 655              	.LCFI22:
 656              		.cfi_def_cfa_offset 32
 657 0004 0190     		str	r0, [sp, #4]
 658 0006 0091     		str	r1, [sp]
 723:/home/rdu/Workspace/project_templates/mcu/stm32_ws/src/libraries/FreeRTOS/Source/queue.c **** 	QueueHandle_t xHandle;
 724:/home/rdu/Workspace/project_templates/mcu/stm32_ws/src/libraries/FreeRTOS/Source/queue.c **** 
 725:/home/rdu/Workspace/project_templates/mcu/stm32_ws/src/libraries/FreeRTOS/Source/queue.c **** 		configASSERT( uxMaxCount != 0 );
 659              		.loc 1 725 0
 660 0008 019B     		ldr	r3, [sp, #4]
 661 000a 002B     		cmp	r3, #0
 662 000c 09D1     		bne	.L38
 663              	.LBB109:
 664              	.LBB110:
 665              		.loc 2 195 0 discriminator 1
 666              		.syntax unified
 667              	@ 195 "/home/rdu/Workspace/project_templates/mcu/stm32_ws/src/libraries/FreeRTOS/Source/portable/GC
 668 000e 4FF05003 			mov r3, #80												
 669 0012 83F31188 		msr basepri, r3											
 670 0016 BFF36F8F 		isb														
 671 001a BFF34F8F 		dsb														
 672              	
 673              	@ 0 "" 2
 674              		.thumb
 675              		.syntax unified
 676 001e 0493     		str	r3, [sp, #16]
 677              	.L39:
 678              	.LBE110:
 679              	.LBE109:
 680              		.loc 1 725 0 discriminator 1
 681 0020 FEE7     		b	.L39
 682              	.L38:
 726:/home/rdu/Workspace/project_templates/mcu/stm32_ws/src/libraries/FreeRTOS/Source/queue.c **** 		configASSERT( uxInitialCount <= uxMaxCount );
 683              		.loc 1 726 0
 684 0022 009A     		ldr	r2, [sp]
 685 0024 019B     		ldr	r3, [sp, #4]
 686 0026 9A42     		cmp	r2, r3
 687 0028 09D9     		bls	.L40
 688              	.LBB111:
 689              	.LBB112:
 690              		.loc 2 195 0 discriminator 1
 691              		.syntax unified
 692              	@ 195 "/home/rdu/Workspace/project_templates/mcu/stm32_ws/src/libraries/FreeRTOS/Source/portable/GC
 693 002a 4FF05003 			mov r3, #80												
 694 002e 83F31188 		msr basepri, r3											
 695 0032 BFF36F8F 		isb														
 696 0036 BFF34F8F 		dsb														
 697              	
 698              	@ 0 "" 2
 699              		.thumb
 700              		.syntax unified
 701 003a 0393     		str	r3, [sp, #12]
 702              	.L41:
 703              	.LBE112:
 704              	.LBE111:
 705              		.loc 1 726 0 discriminator 2
 706 003c FEE7     		b	.L41
 707              	.L40:
 727:/home/rdu/Workspace/project_templates/mcu/stm32_ws/src/libraries/FreeRTOS/Source/queue.c **** 
 728:/home/rdu/Workspace/project_templates/mcu/stm32_ws/src/libraries/FreeRTOS/Source/queue.c **** 		xHandle = xQueueGenericCreate( uxMaxCount, queueSEMAPHORE_QUEUE_ITEM_LENGTH, queueQUEUE_TYPE_COUN
 708              		.loc 1 728 0
 709 003e 0222     		movs	r2, #2
 710 0040 0021     		movs	r1, #0
 711 0042 0198     		ldr	r0, [sp, #4]
 712 0044 FFF7FEFF 		bl	xQueueGenericCreate
 713 0048 0590     		str	r0, [sp, #20]
 729:/home/rdu/Workspace/project_templates/mcu/stm32_ws/src/libraries/FreeRTOS/Source/queue.c **** 
 730:/home/rdu/Workspace/project_templates/mcu/stm32_ws/src/libraries/FreeRTOS/Source/queue.c **** 		if( xHandle != NULL )
 714              		.loc 1 730 0
 715 004a 059B     		ldr	r3, [sp, #20]
 716 004c 002B     		cmp	r3, #0
 717 004e 02D0     		beq	.L42
 731:/home/rdu/Workspace/project_templates/mcu/stm32_ws/src/libraries/FreeRTOS/Source/queue.c **** 		{
 732:/home/rdu/Workspace/project_templates/mcu/stm32_ws/src/libraries/FreeRTOS/Source/queue.c **** 			( ( Queue_t * ) xHandle )->uxMessagesWaiting = uxInitialCount;
 718              		.loc 1 732 0
 719 0050 059B     		ldr	r3, [sp, #20]
 720 0052 009A     		ldr	r2, [sp]
 721 0054 9A63     		str	r2, [r3, #56]
 722              	.L42:
 733:/home/rdu/Workspace/project_templates/mcu/stm32_ws/src/libraries/FreeRTOS/Source/queue.c **** 
 734:/home/rdu/Workspace/project_templates/mcu/stm32_ws/src/libraries/FreeRTOS/Source/queue.c **** 			traceCREATE_COUNTING_SEMAPHORE();
 735:/home/rdu/Workspace/project_templates/mcu/stm32_ws/src/libraries/FreeRTOS/Source/queue.c **** 		}
 736:/home/rdu/Workspace/project_templates/mcu/stm32_ws/src/libraries/FreeRTOS/Source/queue.c **** 		else
 737:/home/rdu/Workspace/project_templates/mcu/stm32_ws/src/libraries/FreeRTOS/Source/queue.c **** 		{
 738:/home/rdu/Workspace/project_templates/mcu/stm32_ws/src/libraries/FreeRTOS/Source/queue.c **** 			traceCREATE_COUNTING_SEMAPHORE_FAILED();
 739:/home/rdu/Workspace/project_templates/mcu/stm32_ws/src/libraries/FreeRTOS/Source/queue.c **** 		}
 740:/home/rdu/Workspace/project_templates/mcu/stm32_ws/src/libraries/FreeRTOS/Source/queue.c **** 
 741:/home/rdu/Workspace/project_templates/mcu/stm32_ws/src/libraries/FreeRTOS/Source/queue.c **** 		return xHandle;
 723              		.loc 1 741 0
 724 0056 059B     		ldr	r3, [sp, #20]
 742:/home/rdu/Workspace/project_templates/mcu/stm32_ws/src/libraries/FreeRTOS/Source/queue.c **** 	}
 725              		.loc 1 742 0
 726 0058 1846     		mov	r0, r3
 727 005a 07B0     		add	sp, sp, #28
 728              	.LCFI23:
 729              		.cfi_def_cfa_offset 4
 730              		@ sp needed
 731 005c 5DF804FB 		ldr	pc, [sp], #4
 732              		.cfi_endproc
 733              	.LFE12:
 735              		.section	.text.xQueueGenericSend,"ax",%progbits
 736              		.align	1
 737              		.global	xQueueGenericSend
 738              		.syntax unified
 739              		.thumb
 740              		.thumb_func
 741              		.fpu fpv4-sp-d16
 743              	xQueueGenericSend:
 744              	.LFB13:
 743:/home/rdu/Workspace/project_templates/mcu/stm32_ws/src/libraries/FreeRTOS/Source/queue.c **** 
 744:/home/rdu/Workspace/project_templates/mcu/stm32_ws/src/libraries/FreeRTOS/Source/queue.c **** #endif /* ( ( configUSE_COUNTING_SEMAPHORES == 1 ) && ( configSUPPORT_DYNAMIC_ALLOCATION == 1 ) ) *
 745:/home/rdu/Workspace/project_templates/mcu/stm32_ws/src/libraries/FreeRTOS/Source/queue.c **** /*-----------------------------------------------------------*/
 746:/home/rdu/Workspace/project_templates/mcu/stm32_ws/src/libraries/FreeRTOS/Source/queue.c **** 
 747:/home/rdu/Workspace/project_templates/mcu/stm32_ws/src/libraries/FreeRTOS/Source/queue.c **** BaseType_t xQueueGenericSend( QueueHandle_t xQueue, const void * const pvItemToQueue, TickType_t xT
 748:/home/rdu/Workspace/project_templates/mcu/stm32_ws/src/libraries/FreeRTOS/Source/queue.c **** {
 745              		.loc 1 748 0
 746              		.cfi_startproc
 747              		@ args = 0, pretend = 0, frame = 56
 748              		@ frame_needed = 0, uses_anonymous_args = 0
 749 0000 00B5     		push	{lr}
 750              	.LCFI24:
 751              		.cfi_def_cfa_offset 4
 752              		.cfi_offset 14, -4
 753 0002 8FB0     		sub	sp, sp, #60
 754              	.LCFI25:
 755              		.cfi_def_cfa_offset 64
 756 0004 0390     		str	r0, [sp, #12]
 757 0006 0291     		str	r1, [sp, #8]
 758 0008 0192     		str	r2, [sp, #4]
 759 000a 0093     		str	r3, [sp]
 749:/home/rdu/Workspace/project_templates/mcu/stm32_ws/src/libraries/FreeRTOS/Source/queue.c **** BaseType_t xEntryTimeSet = pdFALSE, xYieldRequired;
 760              		.loc 1 749 0
 761 000c 0023     		movs	r3, #0
 762 000e 0D93     		str	r3, [sp, #52]
 750:/home/rdu/Workspace/project_templates/mcu/stm32_ws/src/libraries/FreeRTOS/Source/queue.c **** TimeOut_t xTimeOut;
 751:/home/rdu/Workspace/project_templates/mcu/stm32_ws/src/libraries/FreeRTOS/Source/queue.c **** Queue_t * const pxQueue = xQueue;
 763              		.loc 1 751 0
 764 0010 039B     		ldr	r3, [sp, #12]
 765 0012 0C93     		str	r3, [sp, #48]
 752:/home/rdu/Workspace/project_templates/mcu/stm32_ws/src/libraries/FreeRTOS/Source/queue.c **** 
 753:/home/rdu/Workspace/project_templates/mcu/stm32_ws/src/libraries/FreeRTOS/Source/queue.c **** 	configASSERT( pxQueue );
 766              		.loc 1 753 0
 767 0014 0C9B     		ldr	r3, [sp, #48]
 768 0016 002B     		cmp	r3, #0
 769 0018 09D1     		bne	.L45
 770              	.LBB113:
 771              	.LBB114:
 772              		.loc 2 195 0 discriminator 1
 773              		.syntax unified
 774              	@ 195 "/home/rdu/Workspace/project_templates/mcu/stm32_ws/src/libraries/FreeRTOS/Source/portable/GC
 775 001a 4FF05003 			mov r3, #80												
 776 001e 83F31188 		msr basepri, r3											
 777 0022 BFF36F8F 		isb														
 778 0026 BFF34F8F 		dsb														
 779              	
 780              	@ 0 "" 2
 781              		.thumb
 782              		.syntax unified
 783 002a 0A93     		str	r3, [sp, #40]
 784              	.L46:
 785              	.LBE114:
 786              	.LBE113:
 787              		.loc 1 753 0 discriminator 1
 788 002c FEE7     		b	.L46
 789              	.L45:
 754:/home/rdu/Workspace/project_templates/mcu/stm32_ws/src/libraries/FreeRTOS/Source/queue.c **** 	configASSERT( !( ( pvItemToQueue == NULL ) && ( pxQueue->uxItemSize != ( UBaseType_t ) 0U ) ) );
 790              		.loc 1 754 0
 791 002e 029B     		ldr	r3, [sp, #8]
 792 0030 002B     		cmp	r3, #0
 793 0032 03D1     		bne	.L47
 794              		.loc 1 754 0 is_stmt 0 discriminator 2
 795 0034 0C9B     		ldr	r3, [sp, #48]
 796 0036 1B6C     		ldr	r3, [r3, #64]
 797 0038 002B     		cmp	r3, #0
 798 003a 01D1     		bne	.L48
 799              	.L47:
 800              		.loc 1 754 0 discriminator 3
 801 003c 0123     		movs	r3, #1
 802 003e 00E0     		b	.L49
 803              	.L48:
 804              		.loc 1 754 0 discriminator 4
 805 0040 0023     		movs	r3, #0
 806              	.L49:
 807              		.loc 1 754 0 discriminator 6
 808 0042 002B     		cmp	r3, #0
 809 0044 09D1     		bne	.L50
 810              	.LBB115:
 811              	.LBB116:
 812              		.loc 2 195 0 is_stmt 1 discriminator 7
 813              		.syntax unified
 814              	@ 195 "/home/rdu/Workspace/project_templates/mcu/stm32_ws/src/libraries/FreeRTOS/Source/portable/GC
 815 0046 4FF05003 			mov r3, #80												
 816 004a 83F31188 		msr basepri, r3											
 817 004e BFF36F8F 		isb														
 818 0052 BFF34F8F 		dsb														
 819              	
 820              	@ 0 "" 2
 821              		.thumb
 822              		.syntax unified
 823 0056 0993     		str	r3, [sp, #36]
 824              	.L51:
 825              	.LBE116:
 826              	.LBE115:
 827              		.loc 1 754 0 discriminator 2
 828 0058 FEE7     		b	.L51
 829              	.L50:
 755:/home/rdu/Workspace/project_templates/mcu/stm32_ws/src/libraries/FreeRTOS/Source/queue.c **** 	configASSERT( !( ( xCopyPosition == queueOVERWRITE ) && ( pxQueue->uxLength != 1 ) ) );
 830              		.loc 1 755 0
 831 005a 009B     		ldr	r3, [sp]
 832 005c 022B     		cmp	r3, #2
 833 005e 03D1     		bne	.L52
 834              		.loc 1 755 0 is_stmt 0 discriminator 2
 835 0060 0C9B     		ldr	r3, [sp, #48]
 836 0062 DB6B     		ldr	r3, [r3, #60]
 837 0064 012B     		cmp	r3, #1
 838 0066 01D1     		bne	.L53
 839              	.L52:
 840              		.loc 1 755 0 discriminator 3
 841 0068 0123     		movs	r3, #1
 842 006a 00E0     		b	.L54
 843              	.L53:
 844              		.loc 1 755 0 discriminator 4
 845 006c 0023     		movs	r3, #0
 846              	.L54:
 847              		.loc 1 755 0 discriminator 6
 848 006e 002B     		cmp	r3, #0
 849 0070 09D1     		bne	.L55
 850              	.LBB117:
 851              	.LBB118:
 852              		.loc 2 195 0 is_stmt 1 discriminator 7
 853              		.syntax unified
 854              	@ 195 "/home/rdu/Workspace/project_templates/mcu/stm32_ws/src/libraries/FreeRTOS/Source/portable/GC
 855 0072 4FF05003 			mov r3, #80												
 856 0076 83F31188 		msr basepri, r3											
 857 007a BFF36F8F 		isb														
 858 007e BFF34F8F 		dsb														
 859              	
 860              	@ 0 "" 2
 861              		.thumb
 862              		.syntax unified
 863 0082 0893     		str	r3, [sp, #32]
 864              	.L56:
 865              	.LBE118:
 866              	.LBE117:
 867              		.loc 1 755 0 discriminator 3
 868 0084 FEE7     		b	.L56
 869              	.L55:
 756:/home/rdu/Workspace/project_templates/mcu/stm32_ws/src/libraries/FreeRTOS/Source/queue.c **** 	#if ( ( INCLUDE_xTaskGetSchedulerState == 1 ) || ( configUSE_TIMERS == 1 ) )
 757:/home/rdu/Workspace/project_templates/mcu/stm32_ws/src/libraries/FreeRTOS/Source/queue.c **** 	{
 758:/home/rdu/Workspace/project_templates/mcu/stm32_ws/src/libraries/FreeRTOS/Source/queue.c **** 		configASSERT( !( ( xTaskGetSchedulerState() == taskSCHEDULER_SUSPENDED ) && ( xTicksToWait != 0 )
 870              		.loc 1 758 0
 871 0086 FFF7FEFF 		bl	xTaskGetSchedulerState
 872 008a 0346     		mov	r3, r0
 873 008c 002B     		cmp	r3, #0
 874 008e 02D1     		bne	.L57
 875              		.loc 1 758 0 is_stmt 0 discriminator 2
 876 0090 019B     		ldr	r3, [sp, #4]
 877 0092 002B     		cmp	r3, #0
 878 0094 01D1     		bne	.L58
 879              	.L57:
 880              		.loc 1 758 0 discriminator 3
 881 0096 0123     		movs	r3, #1
 882 0098 00E0     		b	.L59
 883              	.L58:
 884              		.loc 1 758 0 discriminator 4
 885 009a 0023     		movs	r3, #0
 886              	.L59:
 887              		.loc 1 758 0 discriminator 6
 888 009c 002B     		cmp	r3, #0
 889 009e 09D1     		bne	.L60
 890              	.LBB119:
 891              	.LBB120:
 892              		.loc 2 195 0 is_stmt 1 discriminator 7
 893              		.syntax unified
 894              	@ 195 "/home/rdu/Workspace/project_templates/mcu/stm32_ws/src/libraries/FreeRTOS/Source/portable/GC
 895 00a0 4FF05003 			mov r3, #80												
 896 00a4 83F31188 		msr basepri, r3											
 897 00a8 BFF36F8F 		isb														
 898 00ac BFF34F8F 		dsb														
 899              	
 900              	@ 0 "" 2
 901              		.thumb
 902              		.syntax unified
 903 00b0 0793     		str	r3, [sp, #28]
 904              	.L61:
 905              	.LBE120:
 906              	.LBE119:
 907              		.loc 1 758 0 discriminator 4
 908 00b2 FEE7     		b	.L61
 909              	.L60:
 759:/home/rdu/Workspace/project_templates/mcu/stm32_ws/src/libraries/FreeRTOS/Source/queue.c **** 	}
 760:/home/rdu/Workspace/project_templates/mcu/stm32_ws/src/libraries/FreeRTOS/Source/queue.c **** 	#endif
 761:/home/rdu/Workspace/project_templates/mcu/stm32_ws/src/libraries/FreeRTOS/Source/queue.c **** 
 762:/home/rdu/Workspace/project_templates/mcu/stm32_ws/src/libraries/FreeRTOS/Source/queue.c **** 
 763:/home/rdu/Workspace/project_templates/mcu/stm32_ws/src/libraries/FreeRTOS/Source/queue.c **** 	/*lint -save -e904 This function relaxes the coding standard somewhat to
 764:/home/rdu/Workspace/project_templates/mcu/stm32_ws/src/libraries/FreeRTOS/Source/queue.c **** 	allow return statements within the function itself.  This is done in the
 765:/home/rdu/Workspace/project_templates/mcu/stm32_ws/src/libraries/FreeRTOS/Source/queue.c **** 	interest of execution time efficiency. */
 766:/home/rdu/Workspace/project_templates/mcu/stm32_ws/src/libraries/FreeRTOS/Source/queue.c **** 	for( ;; )
 767:/home/rdu/Workspace/project_templates/mcu/stm32_ws/src/libraries/FreeRTOS/Source/queue.c **** 	{
 768:/home/rdu/Workspace/project_templates/mcu/stm32_ws/src/libraries/FreeRTOS/Source/queue.c **** 		taskENTER_CRITICAL();
 910              		.loc 1 768 0
 911 00b4 FFF7FEFF 		bl	vPortEnterCritical
 769:/home/rdu/Workspace/project_templates/mcu/stm32_ws/src/libraries/FreeRTOS/Source/queue.c **** 		{
 770:/home/rdu/Workspace/project_templates/mcu/stm32_ws/src/libraries/FreeRTOS/Source/queue.c **** 			/* Is there room on the queue now?  The running task must be the
 771:/home/rdu/Workspace/project_templates/mcu/stm32_ws/src/libraries/FreeRTOS/Source/queue.c **** 			highest priority task wanting to access the queue.  If the head item
 772:/home/rdu/Workspace/project_templates/mcu/stm32_ws/src/libraries/FreeRTOS/Source/queue.c **** 			in the queue is to be overwritten then it does not matter if the
 773:/home/rdu/Workspace/project_templates/mcu/stm32_ws/src/libraries/FreeRTOS/Source/queue.c **** 			queue is full. */
 774:/home/rdu/Workspace/project_templates/mcu/stm32_ws/src/libraries/FreeRTOS/Source/queue.c **** 			if( ( pxQueue->uxMessagesWaiting < pxQueue->uxLength ) || ( xCopyPosition == queueOVERWRITE ) )
 912              		.loc 1 774 0
 913 00b8 0C9B     		ldr	r3, [sp, #48]
 914 00ba 9A6B     		ldr	r2, [r3, #56]
 915 00bc 0C9B     		ldr	r3, [sp, #48]
 916 00be DB6B     		ldr	r3, [r3, #60]
 917 00c0 9A42     		cmp	r2, r3
 918 00c2 02D3     		bcc	.L62
 919              		.loc 1 774 0 is_stmt 0 discriminator 1
 920 00c4 009B     		ldr	r3, [sp]
 921 00c6 022B     		cmp	r3, #2
 922 00c8 29D1     		bne	.L63
 923              	.L62:
 775:/home/rdu/Workspace/project_templates/mcu/stm32_ws/src/libraries/FreeRTOS/Source/queue.c **** 			{
 776:/home/rdu/Workspace/project_templates/mcu/stm32_ws/src/libraries/FreeRTOS/Source/queue.c **** 				traceQUEUE_SEND( pxQueue );
 777:/home/rdu/Workspace/project_templates/mcu/stm32_ws/src/libraries/FreeRTOS/Source/queue.c **** 
 778:/home/rdu/Workspace/project_templates/mcu/stm32_ws/src/libraries/FreeRTOS/Source/queue.c **** 				#if ( configUSE_QUEUE_SETS == 1 )
 779:/home/rdu/Workspace/project_templates/mcu/stm32_ws/src/libraries/FreeRTOS/Source/queue.c **** 				{
 780:/home/rdu/Workspace/project_templates/mcu/stm32_ws/src/libraries/FreeRTOS/Source/queue.c **** 				UBaseType_t uxPreviousMessagesWaiting = pxQueue->uxMessagesWaiting;
 781:/home/rdu/Workspace/project_templates/mcu/stm32_ws/src/libraries/FreeRTOS/Source/queue.c **** 
 782:/home/rdu/Workspace/project_templates/mcu/stm32_ws/src/libraries/FreeRTOS/Source/queue.c **** 					xYieldRequired = prvCopyDataToQueue( pxQueue, pvItemToQueue, xCopyPosition );
 783:/home/rdu/Workspace/project_templates/mcu/stm32_ws/src/libraries/FreeRTOS/Source/queue.c **** 
 784:/home/rdu/Workspace/project_templates/mcu/stm32_ws/src/libraries/FreeRTOS/Source/queue.c **** 					if( pxQueue->pxQueueSetContainer != NULL )
 785:/home/rdu/Workspace/project_templates/mcu/stm32_ws/src/libraries/FreeRTOS/Source/queue.c **** 					{
 786:/home/rdu/Workspace/project_templates/mcu/stm32_ws/src/libraries/FreeRTOS/Source/queue.c **** 						if( ( xCopyPosition == queueOVERWRITE ) && ( uxPreviousMessagesWaiting != ( UBaseType_t ) 0 )
 787:/home/rdu/Workspace/project_templates/mcu/stm32_ws/src/libraries/FreeRTOS/Source/queue.c **** 						{
 788:/home/rdu/Workspace/project_templates/mcu/stm32_ws/src/libraries/FreeRTOS/Source/queue.c **** 							/* Do not notify the queue set as an existing item
 789:/home/rdu/Workspace/project_templates/mcu/stm32_ws/src/libraries/FreeRTOS/Source/queue.c **** 							was overwritten in the queue so the number of items
 790:/home/rdu/Workspace/project_templates/mcu/stm32_ws/src/libraries/FreeRTOS/Source/queue.c **** 							in the queue has not changed. */
 791:/home/rdu/Workspace/project_templates/mcu/stm32_ws/src/libraries/FreeRTOS/Source/queue.c **** 							mtCOVERAGE_TEST_MARKER();
 792:/home/rdu/Workspace/project_templates/mcu/stm32_ws/src/libraries/FreeRTOS/Source/queue.c **** 						}
 793:/home/rdu/Workspace/project_templates/mcu/stm32_ws/src/libraries/FreeRTOS/Source/queue.c **** 						else if( prvNotifyQueueSetContainer( pxQueue, xCopyPosition ) != pdFALSE )
 794:/home/rdu/Workspace/project_templates/mcu/stm32_ws/src/libraries/FreeRTOS/Source/queue.c **** 						{
 795:/home/rdu/Workspace/project_templates/mcu/stm32_ws/src/libraries/FreeRTOS/Source/queue.c **** 							/* The queue is a member of a queue set, and posting
 796:/home/rdu/Workspace/project_templates/mcu/stm32_ws/src/libraries/FreeRTOS/Source/queue.c **** 							to the queue set caused a higher priority task to
 797:/home/rdu/Workspace/project_templates/mcu/stm32_ws/src/libraries/FreeRTOS/Source/queue.c **** 							unblock. A context switch is required. */
 798:/home/rdu/Workspace/project_templates/mcu/stm32_ws/src/libraries/FreeRTOS/Source/queue.c **** 							queueYIELD_IF_USING_PREEMPTION();
 799:/home/rdu/Workspace/project_templates/mcu/stm32_ws/src/libraries/FreeRTOS/Source/queue.c **** 						}
 800:/home/rdu/Workspace/project_templates/mcu/stm32_ws/src/libraries/FreeRTOS/Source/queue.c **** 						else
 801:/home/rdu/Workspace/project_templates/mcu/stm32_ws/src/libraries/FreeRTOS/Source/queue.c **** 						{
 802:/home/rdu/Workspace/project_templates/mcu/stm32_ws/src/libraries/FreeRTOS/Source/queue.c **** 							mtCOVERAGE_TEST_MARKER();
 803:/home/rdu/Workspace/project_templates/mcu/stm32_ws/src/libraries/FreeRTOS/Source/queue.c **** 						}
 804:/home/rdu/Workspace/project_templates/mcu/stm32_ws/src/libraries/FreeRTOS/Source/queue.c **** 					}
 805:/home/rdu/Workspace/project_templates/mcu/stm32_ws/src/libraries/FreeRTOS/Source/queue.c **** 					else
 806:/home/rdu/Workspace/project_templates/mcu/stm32_ws/src/libraries/FreeRTOS/Source/queue.c **** 					{
 807:/home/rdu/Workspace/project_templates/mcu/stm32_ws/src/libraries/FreeRTOS/Source/queue.c **** 						/* If there was a task waiting for data to arrive on the
 808:/home/rdu/Workspace/project_templates/mcu/stm32_ws/src/libraries/FreeRTOS/Source/queue.c **** 						queue then unblock it now. */
 809:/home/rdu/Workspace/project_templates/mcu/stm32_ws/src/libraries/FreeRTOS/Source/queue.c **** 						if( listLIST_IS_EMPTY( &( pxQueue->xTasksWaitingToReceive ) ) == pdFALSE )
 810:/home/rdu/Workspace/project_templates/mcu/stm32_ws/src/libraries/FreeRTOS/Source/queue.c **** 						{
 811:/home/rdu/Workspace/project_templates/mcu/stm32_ws/src/libraries/FreeRTOS/Source/queue.c **** 							if( xTaskRemoveFromEventList( &( pxQueue->xTasksWaitingToReceive ) ) != pdFALSE )
 812:/home/rdu/Workspace/project_templates/mcu/stm32_ws/src/libraries/FreeRTOS/Source/queue.c **** 							{
 813:/home/rdu/Workspace/project_templates/mcu/stm32_ws/src/libraries/FreeRTOS/Source/queue.c **** 								/* The unblocked task has a priority higher than
 814:/home/rdu/Workspace/project_templates/mcu/stm32_ws/src/libraries/FreeRTOS/Source/queue.c **** 								our own so yield immediately.  Yes it is ok to
 815:/home/rdu/Workspace/project_templates/mcu/stm32_ws/src/libraries/FreeRTOS/Source/queue.c **** 								do this from within the critical section - the
 816:/home/rdu/Workspace/project_templates/mcu/stm32_ws/src/libraries/FreeRTOS/Source/queue.c **** 								kernel takes care of that. */
 817:/home/rdu/Workspace/project_templates/mcu/stm32_ws/src/libraries/FreeRTOS/Source/queue.c **** 								queueYIELD_IF_USING_PREEMPTION();
 818:/home/rdu/Workspace/project_templates/mcu/stm32_ws/src/libraries/FreeRTOS/Source/queue.c **** 							}
 819:/home/rdu/Workspace/project_templates/mcu/stm32_ws/src/libraries/FreeRTOS/Source/queue.c **** 							else
 820:/home/rdu/Workspace/project_templates/mcu/stm32_ws/src/libraries/FreeRTOS/Source/queue.c **** 							{
 821:/home/rdu/Workspace/project_templates/mcu/stm32_ws/src/libraries/FreeRTOS/Source/queue.c **** 								mtCOVERAGE_TEST_MARKER();
 822:/home/rdu/Workspace/project_templates/mcu/stm32_ws/src/libraries/FreeRTOS/Source/queue.c **** 							}
 823:/home/rdu/Workspace/project_templates/mcu/stm32_ws/src/libraries/FreeRTOS/Source/queue.c **** 						}
 824:/home/rdu/Workspace/project_templates/mcu/stm32_ws/src/libraries/FreeRTOS/Source/queue.c **** 						else if( xYieldRequired != pdFALSE )
 825:/home/rdu/Workspace/project_templates/mcu/stm32_ws/src/libraries/FreeRTOS/Source/queue.c **** 						{
 826:/home/rdu/Workspace/project_templates/mcu/stm32_ws/src/libraries/FreeRTOS/Source/queue.c **** 							/* This path is a special case that will only get
 827:/home/rdu/Workspace/project_templates/mcu/stm32_ws/src/libraries/FreeRTOS/Source/queue.c **** 							executed if the task was holding multiple mutexes
 828:/home/rdu/Workspace/project_templates/mcu/stm32_ws/src/libraries/FreeRTOS/Source/queue.c **** 							and the mutexes were given back in an order that is
 829:/home/rdu/Workspace/project_templates/mcu/stm32_ws/src/libraries/FreeRTOS/Source/queue.c **** 							different to that in which they were taken. */
 830:/home/rdu/Workspace/project_templates/mcu/stm32_ws/src/libraries/FreeRTOS/Source/queue.c **** 							queueYIELD_IF_USING_PREEMPTION();
 831:/home/rdu/Workspace/project_templates/mcu/stm32_ws/src/libraries/FreeRTOS/Source/queue.c **** 						}
 832:/home/rdu/Workspace/project_templates/mcu/stm32_ws/src/libraries/FreeRTOS/Source/queue.c **** 						else
 833:/home/rdu/Workspace/project_templates/mcu/stm32_ws/src/libraries/FreeRTOS/Source/queue.c **** 						{
 834:/home/rdu/Workspace/project_templates/mcu/stm32_ws/src/libraries/FreeRTOS/Source/queue.c **** 							mtCOVERAGE_TEST_MARKER();
 835:/home/rdu/Workspace/project_templates/mcu/stm32_ws/src/libraries/FreeRTOS/Source/queue.c **** 						}
 836:/home/rdu/Workspace/project_templates/mcu/stm32_ws/src/libraries/FreeRTOS/Source/queue.c **** 					}
 837:/home/rdu/Workspace/project_templates/mcu/stm32_ws/src/libraries/FreeRTOS/Source/queue.c **** 				}
 838:/home/rdu/Workspace/project_templates/mcu/stm32_ws/src/libraries/FreeRTOS/Source/queue.c **** 				#else /* configUSE_QUEUE_SETS */
 839:/home/rdu/Workspace/project_templates/mcu/stm32_ws/src/libraries/FreeRTOS/Source/queue.c **** 				{
 840:/home/rdu/Workspace/project_templates/mcu/stm32_ws/src/libraries/FreeRTOS/Source/queue.c **** 					xYieldRequired = prvCopyDataToQueue( pxQueue, pvItemToQueue, xCopyPosition );
 924              		.loc 1 840 0 is_stmt 1
 925 00ca 009A     		ldr	r2, [sp]
 926 00cc 0299     		ldr	r1, [sp, #8]
 927 00ce 0C98     		ldr	r0, [sp, #48]
 928 00d0 FFF7FEFF 		bl	prvCopyDataToQueue
 929 00d4 0B90     		str	r0, [sp, #44]
 841:/home/rdu/Workspace/project_templates/mcu/stm32_ws/src/libraries/FreeRTOS/Source/queue.c **** 
 842:/home/rdu/Workspace/project_templates/mcu/stm32_ws/src/libraries/FreeRTOS/Source/queue.c **** 					/* If there was a task waiting for data to arrive on the
 843:/home/rdu/Workspace/project_templates/mcu/stm32_ws/src/libraries/FreeRTOS/Source/queue.c **** 					queue then unblock it now. */
 844:/home/rdu/Workspace/project_templates/mcu/stm32_ws/src/libraries/FreeRTOS/Source/queue.c **** 					if( listLIST_IS_EMPTY( &( pxQueue->xTasksWaitingToReceive ) ) == pdFALSE )
 930              		.loc 1 844 0
 931 00d6 0C9B     		ldr	r3, [sp, #48]
 932 00d8 5B6A     		ldr	r3, [r3, #36]
 933 00da 002B     		cmp	r3, #0
 934 00dc 10D0     		beq	.L64
 845:/home/rdu/Workspace/project_templates/mcu/stm32_ws/src/libraries/FreeRTOS/Source/queue.c **** 					{
 846:/home/rdu/Workspace/project_templates/mcu/stm32_ws/src/libraries/FreeRTOS/Source/queue.c **** 						if( xTaskRemoveFromEventList( &( pxQueue->xTasksWaitingToReceive ) ) != pdFALSE )
 935              		.loc 1 846 0
 936 00de 0C9B     		ldr	r3, [sp, #48]
 937 00e0 2433     		adds	r3, r3, #36
 938 00e2 1846     		mov	r0, r3
 939 00e4 FFF7FEFF 		bl	xTaskRemoveFromEventList
 940 00e8 0346     		mov	r3, r0
 941 00ea 002B     		cmp	r3, #0
 942 00ec 13D0     		beq	.L65
 847:/home/rdu/Workspace/project_templates/mcu/stm32_ws/src/libraries/FreeRTOS/Source/queue.c **** 						{
 848:/home/rdu/Workspace/project_templates/mcu/stm32_ws/src/libraries/FreeRTOS/Source/queue.c **** 							/* The unblocked task has a priority higher than
 849:/home/rdu/Workspace/project_templates/mcu/stm32_ws/src/libraries/FreeRTOS/Source/queue.c **** 							our own so yield immediately.  Yes it is ok to do
 850:/home/rdu/Workspace/project_templates/mcu/stm32_ws/src/libraries/FreeRTOS/Source/queue.c **** 							this from within the critical section - the kernel
 851:/home/rdu/Workspace/project_templates/mcu/stm32_ws/src/libraries/FreeRTOS/Source/queue.c **** 							takes care of that. */
 852:/home/rdu/Workspace/project_templates/mcu/stm32_ws/src/libraries/FreeRTOS/Source/queue.c **** 							queueYIELD_IF_USING_PREEMPTION();
 943              		.loc 1 852 0
 944 00ee 3F4B     		ldr	r3, .L77
 945 00f0 4FF08052 		mov	r2, #268435456
 946 00f4 1A60     		str	r2, [r3]
 947              		.syntax unified
 948              	@ 852 "/home/rdu/Workspace/project_templates/mcu/stm32_ws/src/libraries/FreeRTOS/Source/queue.c" 1
 949 00f6 BFF34F8F 		dsb
 950              	@ 0 "" 2
 951              	@ 852 "/home/rdu/Workspace/project_templates/mcu/stm32_ws/src/libraries/FreeRTOS/Source/queue.c" 1
 952 00fa BFF36F8F 		isb
 953              	@ 0 "" 2
 954              		.thumb
 955              		.syntax unified
 956 00fe 0AE0     		b	.L65
 957              	.L64:
 853:/home/rdu/Workspace/project_templates/mcu/stm32_ws/src/libraries/FreeRTOS/Source/queue.c **** 						}
 854:/home/rdu/Workspace/project_templates/mcu/stm32_ws/src/libraries/FreeRTOS/Source/queue.c **** 						else
 855:/home/rdu/Workspace/project_templates/mcu/stm32_ws/src/libraries/FreeRTOS/Source/queue.c **** 						{
 856:/home/rdu/Workspace/project_templates/mcu/stm32_ws/src/libraries/FreeRTOS/Source/queue.c **** 							mtCOVERAGE_TEST_MARKER();
 857:/home/rdu/Workspace/project_templates/mcu/stm32_ws/src/libraries/FreeRTOS/Source/queue.c **** 						}
 858:/home/rdu/Workspace/project_templates/mcu/stm32_ws/src/libraries/FreeRTOS/Source/queue.c **** 					}
 859:/home/rdu/Workspace/project_templates/mcu/stm32_ws/src/libraries/FreeRTOS/Source/queue.c **** 					else if( xYieldRequired != pdFALSE )
 958              		.loc 1 859 0
 959 0100 0B9B     		ldr	r3, [sp, #44]
 960 0102 002B     		cmp	r3, #0
 961 0104 07D0     		beq	.L65
 860:/home/rdu/Workspace/project_templates/mcu/stm32_ws/src/libraries/FreeRTOS/Source/queue.c **** 					{
 861:/home/rdu/Workspace/project_templates/mcu/stm32_ws/src/libraries/FreeRTOS/Source/queue.c **** 						/* This path is a special case that will only get
 862:/home/rdu/Workspace/project_templates/mcu/stm32_ws/src/libraries/FreeRTOS/Source/queue.c **** 						executed if the task was holding multiple mutexes and
 863:/home/rdu/Workspace/project_templates/mcu/stm32_ws/src/libraries/FreeRTOS/Source/queue.c **** 						the mutexes were given back in an order that is
 864:/home/rdu/Workspace/project_templates/mcu/stm32_ws/src/libraries/FreeRTOS/Source/queue.c **** 						different to that in which they were taken. */
 865:/home/rdu/Workspace/project_templates/mcu/stm32_ws/src/libraries/FreeRTOS/Source/queue.c **** 						queueYIELD_IF_USING_PREEMPTION();
 962              		.loc 1 865 0
 963 0106 394B     		ldr	r3, .L77
 964 0108 4FF08052 		mov	r2, #268435456
 965 010c 1A60     		str	r2, [r3]
 966              		.syntax unified
 967              	@ 865 "/home/rdu/Workspace/project_templates/mcu/stm32_ws/src/libraries/FreeRTOS/Source/queue.c" 1
 968 010e BFF34F8F 		dsb
 969              	@ 0 "" 2
 970              	@ 865 "/home/rdu/Workspace/project_templates/mcu/stm32_ws/src/libraries/FreeRTOS/Source/queue.c" 1
 971 0112 BFF36F8F 		isb
 972              	@ 0 "" 2
 973              		.thumb
 974              		.syntax unified
 975              	.L65:
 866:/home/rdu/Workspace/project_templates/mcu/stm32_ws/src/libraries/FreeRTOS/Source/queue.c **** 					}
 867:/home/rdu/Workspace/project_templates/mcu/stm32_ws/src/libraries/FreeRTOS/Source/queue.c **** 					else
 868:/home/rdu/Workspace/project_templates/mcu/stm32_ws/src/libraries/FreeRTOS/Source/queue.c **** 					{
 869:/home/rdu/Workspace/project_templates/mcu/stm32_ws/src/libraries/FreeRTOS/Source/queue.c **** 						mtCOVERAGE_TEST_MARKER();
 870:/home/rdu/Workspace/project_templates/mcu/stm32_ws/src/libraries/FreeRTOS/Source/queue.c **** 					}
 871:/home/rdu/Workspace/project_templates/mcu/stm32_ws/src/libraries/FreeRTOS/Source/queue.c **** 				}
 872:/home/rdu/Workspace/project_templates/mcu/stm32_ws/src/libraries/FreeRTOS/Source/queue.c **** 				#endif /* configUSE_QUEUE_SETS */
 873:/home/rdu/Workspace/project_templates/mcu/stm32_ws/src/libraries/FreeRTOS/Source/queue.c **** 
 874:/home/rdu/Workspace/project_templates/mcu/stm32_ws/src/libraries/FreeRTOS/Source/queue.c **** 				taskEXIT_CRITICAL();
 976              		.loc 1 874 0
 977 0116 FFF7FEFF 		bl	vPortExitCritical
 875:/home/rdu/Workspace/project_templates/mcu/stm32_ws/src/libraries/FreeRTOS/Source/queue.c **** 				return pdPASS;
 978              		.loc 1 875 0
 979 011a 0123     		movs	r3, #1
 980 011c 61E0     		b	.L76
 981              	.L63:
 876:/home/rdu/Workspace/project_templates/mcu/stm32_ws/src/libraries/FreeRTOS/Source/queue.c **** 			}
 877:/home/rdu/Workspace/project_templates/mcu/stm32_ws/src/libraries/FreeRTOS/Source/queue.c **** 			else
 878:/home/rdu/Workspace/project_templates/mcu/stm32_ws/src/libraries/FreeRTOS/Source/queue.c **** 			{
 879:/home/rdu/Workspace/project_templates/mcu/stm32_ws/src/libraries/FreeRTOS/Source/queue.c **** 				if( xTicksToWait == ( TickType_t ) 0 )
 982              		.loc 1 879 0
 983 011e 019B     		ldr	r3, [sp, #4]
 984 0120 002B     		cmp	r3, #0
 985 0122 03D1     		bne	.L67
 880:/home/rdu/Workspace/project_templates/mcu/stm32_ws/src/libraries/FreeRTOS/Source/queue.c **** 				{
 881:/home/rdu/Workspace/project_templates/mcu/stm32_ws/src/libraries/FreeRTOS/Source/queue.c **** 					/* The queue was full and no block time is specified (or
 882:/home/rdu/Workspace/project_templates/mcu/stm32_ws/src/libraries/FreeRTOS/Source/queue.c **** 					the block time has expired) so leave now. */
 883:/home/rdu/Workspace/project_templates/mcu/stm32_ws/src/libraries/FreeRTOS/Source/queue.c **** 					taskEXIT_CRITICAL();
 986              		.loc 1 883 0
 987 0124 FFF7FEFF 		bl	vPortExitCritical
 884:/home/rdu/Workspace/project_templates/mcu/stm32_ws/src/libraries/FreeRTOS/Source/queue.c **** 
 885:/home/rdu/Workspace/project_templates/mcu/stm32_ws/src/libraries/FreeRTOS/Source/queue.c **** 					/* Return to the original privilege level before exiting
 886:/home/rdu/Workspace/project_templates/mcu/stm32_ws/src/libraries/FreeRTOS/Source/queue.c **** 					the function. */
 887:/home/rdu/Workspace/project_templates/mcu/stm32_ws/src/libraries/FreeRTOS/Source/queue.c **** 					traceQUEUE_SEND_FAILED( pxQueue );
 888:/home/rdu/Workspace/project_templates/mcu/stm32_ws/src/libraries/FreeRTOS/Source/queue.c **** 					return errQUEUE_FULL;
 988              		.loc 1 888 0
 989 0128 0023     		movs	r3, #0
 990 012a 5AE0     		b	.L76
 991              	.L67:
 889:/home/rdu/Workspace/project_templates/mcu/stm32_ws/src/libraries/FreeRTOS/Source/queue.c **** 				}
 890:/home/rdu/Workspace/project_templates/mcu/stm32_ws/src/libraries/FreeRTOS/Source/queue.c **** 				else if( xEntryTimeSet == pdFALSE )
 992              		.loc 1 890 0
 993 012c 0D9B     		ldr	r3, [sp, #52]
 994 012e 002B     		cmp	r3, #0
 995 0130 05D1     		bne	.L68
 891:/home/rdu/Workspace/project_templates/mcu/stm32_ws/src/libraries/FreeRTOS/Source/queue.c **** 				{
 892:/home/rdu/Workspace/project_templates/mcu/stm32_ws/src/libraries/FreeRTOS/Source/queue.c **** 					/* The queue was full and a block time was specified so
 893:/home/rdu/Workspace/project_templates/mcu/stm32_ws/src/libraries/FreeRTOS/Source/queue.c **** 					configure the timeout structure. */
 894:/home/rdu/Workspace/project_templates/mcu/stm32_ws/src/libraries/FreeRTOS/Source/queue.c **** 					vTaskInternalSetTimeOutState( &xTimeOut );
 996              		.loc 1 894 0
 997 0132 05AB     		add	r3, sp, #20
 998 0134 1846     		mov	r0, r3
 999 0136 FFF7FEFF 		bl	vTaskInternalSetTimeOutState
 895:/home/rdu/Workspace/project_templates/mcu/stm32_ws/src/libraries/FreeRTOS/Source/queue.c **** 					xEntryTimeSet = pdTRUE;
 1000              		.loc 1 895 0
 1001 013a 0123     		movs	r3, #1
 1002 013c 0D93     		str	r3, [sp, #52]
 1003              	.L68:
 896:/home/rdu/Workspace/project_templates/mcu/stm32_ws/src/libraries/FreeRTOS/Source/queue.c **** 				}
 897:/home/rdu/Workspace/project_templates/mcu/stm32_ws/src/libraries/FreeRTOS/Source/queue.c **** 				else
 898:/home/rdu/Workspace/project_templates/mcu/stm32_ws/src/libraries/FreeRTOS/Source/queue.c **** 				{
 899:/home/rdu/Workspace/project_templates/mcu/stm32_ws/src/libraries/FreeRTOS/Source/queue.c **** 					/* Entry time was already set. */
 900:/home/rdu/Workspace/project_templates/mcu/stm32_ws/src/libraries/FreeRTOS/Source/queue.c **** 					mtCOVERAGE_TEST_MARKER();
 901:/home/rdu/Workspace/project_templates/mcu/stm32_ws/src/libraries/FreeRTOS/Source/queue.c **** 				}
 902:/home/rdu/Workspace/project_templates/mcu/stm32_ws/src/libraries/FreeRTOS/Source/queue.c **** 			}
 903:/home/rdu/Workspace/project_templates/mcu/stm32_ws/src/libraries/FreeRTOS/Source/queue.c **** 		}
 904:/home/rdu/Workspace/project_templates/mcu/stm32_ws/src/libraries/FreeRTOS/Source/queue.c **** 		taskEXIT_CRITICAL();
 1004              		.loc 1 904 0
 1005 013e FFF7FEFF 		bl	vPortExitCritical
 905:/home/rdu/Workspace/project_templates/mcu/stm32_ws/src/libraries/FreeRTOS/Source/queue.c **** 
 906:/home/rdu/Workspace/project_templates/mcu/stm32_ws/src/libraries/FreeRTOS/Source/queue.c **** 		/* Interrupts and other tasks can send to and receive from the queue
 907:/home/rdu/Workspace/project_templates/mcu/stm32_ws/src/libraries/FreeRTOS/Source/queue.c **** 		now the critical section has been exited. */
 908:/home/rdu/Workspace/project_templates/mcu/stm32_ws/src/libraries/FreeRTOS/Source/queue.c **** 
 909:/home/rdu/Workspace/project_templates/mcu/stm32_ws/src/libraries/FreeRTOS/Source/queue.c **** 		vTaskSuspendAll();
 1006              		.loc 1 909 0
 1007 0142 FFF7FEFF 		bl	vTaskSuspendAll
 910:/home/rdu/Workspace/project_templates/mcu/stm32_ws/src/libraries/FreeRTOS/Source/queue.c **** 		prvLockQueue( pxQueue );
 1008              		.loc 1 910 0
 1009 0146 FFF7FEFF 		bl	vPortEnterCritical
 1010 014a 0C9B     		ldr	r3, [sp, #48]
 1011 014c 93F84430 		ldrb	r3, [r3, #68]
 1012 0150 5BB2     		sxtb	r3, r3
 1013 0152 B3F1FF3F 		cmp	r3, #-1
 1014 0156 03D1     		bne	.L69
 1015              		.loc 1 910 0 is_stmt 0 discriminator 1
 1016 0158 0C9B     		ldr	r3, [sp, #48]
 1017 015a 0022     		movs	r2, #0
 1018 015c 83F84420 		strb	r2, [r3, #68]
 1019              	.L69:
 1020              		.loc 1 910 0 discriminator 3
 1021 0160 0C9B     		ldr	r3, [sp, #48]
 1022 0162 93F84530 		ldrb	r3, [r3, #69]
 1023 0166 5BB2     		sxtb	r3, r3
 1024 0168 B3F1FF3F 		cmp	r3, #-1
 1025 016c 03D1     		bne	.L70
 1026              		.loc 1 910 0 discriminator 4
 1027 016e 0C9B     		ldr	r3, [sp, #48]
 1028 0170 0022     		movs	r2, #0
 1029 0172 83F84520 		strb	r2, [r3, #69]
 1030              	.L70:
 1031              		.loc 1 910 0 discriminator 6
 1032 0176 FFF7FEFF 		bl	vPortExitCritical
 911:/home/rdu/Workspace/project_templates/mcu/stm32_ws/src/libraries/FreeRTOS/Source/queue.c **** 
 912:/home/rdu/Workspace/project_templates/mcu/stm32_ws/src/libraries/FreeRTOS/Source/queue.c **** 		/* Update the timeout state to see if it has expired yet. */
 913:/home/rdu/Workspace/project_templates/mcu/stm32_ws/src/libraries/FreeRTOS/Source/queue.c **** 		if( xTaskCheckForTimeOut( &xTimeOut, &xTicksToWait ) == pdFALSE )
 1033              		.loc 1 913 0 is_stmt 1 discriminator 6
 1034 017a 01AA     		add	r2, sp, #4
 1035 017c 05AB     		add	r3, sp, #20
 1036 017e 1146     		mov	r1, r2
 1037 0180 1846     		mov	r0, r3
 1038 0182 FFF7FEFF 		bl	xTaskCheckForTimeOut
 1039 0186 0346     		mov	r3, r0
 1040 0188 002B     		cmp	r3, #0
 1041 018a 24D1     		bne	.L71
 914:/home/rdu/Workspace/project_templates/mcu/stm32_ws/src/libraries/FreeRTOS/Source/queue.c **** 		{
 915:/home/rdu/Workspace/project_templates/mcu/stm32_ws/src/libraries/FreeRTOS/Source/queue.c **** 			if( prvIsQueueFull( pxQueue ) != pdFALSE )
 1042              		.loc 1 915 0
 1043 018c 0C98     		ldr	r0, [sp, #48]
 1044 018e FFF7FEFF 		bl	prvIsQueueFull
 1045 0192 0346     		mov	r3, r0
 1046 0194 002B     		cmp	r3, #0
 1047 0196 18D0     		beq	.L72
 916:/home/rdu/Workspace/project_templates/mcu/stm32_ws/src/libraries/FreeRTOS/Source/queue.c **** 			{
 917:/home/rdu/Workspace/project_templates/mcu/stm32_ws/src/libraries/FreeRTOS/Source/queue.c **** 				traceBLOCKING_ON_QUEUE_SEND( pxQueue );
 918:/home/rdu/Workspace/project_templates/mcu/stm32_ws/src/libraries/FreeRTOS/Source/queue.c **** 				vTaskPlaceOnEventList( &( pxQueue->xTasksWaitingToSend ), xTicksToWait );
 1048              		.loc 1 918 0
 1049 0198 0C9B     		ldr	r3, [sp, #48]
 1050 019a 1033     		adds	r3, r3, #16
 1051 019c 019A     		ldr	r2, [sp, #4]
 1052 019e 1146     		mov	r1, r2
 1053 01a0 1846     		mov	r0, r3
 1054 01a2 FFF7FEFF 		bl	vTaskPlaceOnEventList
 919:/home/rdu/Workspace/project_templates/mcu/stm32_ws/src/libraries/FreeRTOS/Source/queue.c **** 
 920:/home/rdu/Workspace/project_templates/mcu/stm32_ws/src/libraries/FreeRTOS/Source/queue.c **** 				/* Unlocking the queue means queue events can effect the
 921:/home/rdu/Workspace/project_templates/mcu/stm32_ws/src/libraries/FreeRTOS/Source/queue.c **** 				event list.  It is possible that interrupts occurring now
 922:/home/rdu/Workspace/project_templates/mcu/stm32_ws/src/libraries/FreeRTOS/Source/queue.c **** 				remove this task from the event list again - but as the
 923:/home/rdu/Workspace/project_templates/mcu/stm32_ws/src/libraries/FreeRTOS/Source/queue.c **** 				scheduler is suspended the task will go onto the pending
 924:/home/rdu/Workspace/project_templates/mcu/stm32_ws/src/libraries/FreeRTOS/Source/queue.c **** 				ready last instead of the actual ready list. */
 925:/home/rdu/Workspace/project_templates/mcu/stm32_ws/src/libraries/FreeRTOS/Source/queue.c **** 				prvUnlockQueue( pxQueue );
 1055              		.loc 1 925 0
 1056 01a6 0C98     		ldr	r0, [sp, #48]
 1057 01a8 FFF7FEFF 		bl	prvUnlockQueue
 926:/home/rdu/Workspace/project_templates/mcu/stm32_ws/src/libraries/FreeRTOS/Source/queue.c **** 
 927:/home/rdu/Workspace/project_templates/mcu/stm32_ws/src/libraries/FreeRTOS/Source/queue.c **** 				/* Resuming the scheduler will move tasks from the pending
 928:/home/rdu/Workspace/project_templates/mcu/stm32_ws/src/libraries/FreeRTOS/Source/queue.c **** 				ready list into the ready list - so it is feasible that this
 929:/home/rdu/Workspace/project_templates/mcu/stm32_ws/src/libraries/FreeRTOS/Source/queue.c **** 				task is already in a ready list before it yields - in which
 930:/home/rdu/Workspace/project_templates/mcu/stm32_ws/src/libraries/FreeRTOS/Source/queue.c **** 				case the yield will not cause a context switch unless there
 931:/home/rdu/Workspace/project_templates/mcu/stm32_ws/src/libraries/FreeRTOS/Source/queue.c **** 				is also a higher priority task in the pending ready list. */
 932:/home/rdu/Workspace/project_templates/mcu/stm32_ws/src/libraries/FreeRTOS/Source/queue.c **** 				if( xTaskResumeAll() == pdFALSE )
 1058              		.loc 1 932 0
 1059 01ac FFF7FEFF 		bl	xTaskResumeAll
 1060 01b0 0346     		mov	r3, r0
 1061 01b2 002B     		cmp	r3, #0
 1062 01b4 7FF47EAF 		bne	.L60
 933:/home/rdu/Workspace/project_templates/mcu/stm32_ws/src/libraries/FreeRTOS/Source/queue.c **** 				{
 934:/home/rdu/Workspace/project_templates/mcu/stm32_ws/src/libraries/FreeRTOS/Source/queue.c **** 					portYIELD_WITHIN_API();
 1063              		.loc 1 934 0
 1064 01b8 0C4B     		ldr	r3, .L77
 1065 01ba 4FF08052 		mov	r2, #268435456
 1066 01be 1A60     		str	r2, [r3]
 1067              		.syntax unified
 1068              	@ 934 "/home/rdu/Workspace/project_templates/mcu/stm32_ws/src/libraries/FreeRTOS/Source/queue.c" 1
 1069 01c0 BFF34F8F 		dsb
 1070              	@ 0 "" 2
 1071              	@ 934 "/home/rdu/Workspace/project_templates/mcu/stm32_ws/src/libraries/FreeRTOS/Source/queue.c" 1
 1072 01c4 BFF36F8F 		isb
 1073              	@ 0 "" 2
 1074              		.thumb
 1075              		.syntax unified
 1076 01c8 74E7     		b	.L60
 1077              	.L72:
 935:/home/rdu/Workspace/project_templates/mcu/stm32_ws/src/libraries/FreeRTOS/Source/queue.c **** 				}
 936:/home/rdu/Workspace/project_templates/mcu/stm32_ws/src/libraries/FreeRTOS/Source/queue.c **** 			}
 937:/home/rdu/Workspace/project_templates/mcu/stm32_ws/src/libraries/FreeRTOS/Source/queue.c **** 			else
 938:/home/rdu/Workspace/project_templates/mcu/stm32_ws/src/libraries/FreeRTOS/Source/queue.c **** 			{
 939:/home/rdu/Workspace/project_templates/mcu/stm32_ws/src/libraries/FreeRTOS/Source/queue.c **** 				/* Try again. */
 940:/home/rdu/Workspace/project_templates/mcu/stm32_ws/src/libraries/FreeRTOS/Source/queue.c **** 				prvUnlockQueue( pxQueue );
 1078              		.loc 1 940 0
 1079 01ca 0C98     		ldr	r0, [sp, #48]
 1080 01cc FFF7FEFF 		bl	prvUnlockQueue
 941:/home/rdu/Workspace/project_templates/mcu/stm32_ws/src/libraries/FreeRTOS/Source/queue.c **** 				( void ) xTaskResumeAll();
 1081              		.loc 1 941 0
 1082 01d0 FFF7FEFF 		bl	xTaskResumeAll
 1083 01d4 6EE7     		b	.L60
 1084              	.L71:
 942:/home/rdu/Workspace/project_templates/mcu/stm32_ws/src/libraries/FreeRTOS/Source/queue.c **** 			}
 943:/home/rdu/Workspace/project_templates/mcu/stm32_ws/src/libraries/FreeRTOS/Source/queue.c **** 		}
 944:/home/rdu/Workspace/project_templates/mcu/stm32_ws/src/libraries/FreeRTOS/Source/queue.c **** 		else
 945:/home/rdu/Workspace/project_templates/mcu/stm32_ws/src/libraries/FreeRTOS/Source/queue.c **** 		{
 946:/home/rdu/Workspace/project_templates/mcu/stm32_ws/src/libraries/FreeRTOS/Source/queue.c **** 			/* The timeout has expired. */
 947:/home/rdu/Workspace/project_templates/mcu/stm32_ws/src/libraries/FreeRTOS/Source/queue.c **** 			prvUnlockQueue( pxQueue );
 1085              		.loc 1 947 0
 1086 01d6 0C98     		ldr	r0, [sp, #48]
 1087 01d8 FFF7FEFF 		bl	prvUnlockQueue
 948:/home/rdu/Workspace/project_templates/mcu/stm32_ws/src/libraries/FreeRTOS/Source/queue.c **** 			( void ) xTaskResumeAll();
 1088              		.loc 1 948 0
 1089 01dc FFF7FEFF 		bl	xTaskResumeAll
 949:/home/rdu/Workspace/project_templates/mcu/stm32_ws/src/libraries/FreeRTOS/Source/queue.c **** 
 950:/home/rdu/Workspace/project_templates/mcu/stm32_ws/src/libraries/FreeRTOS/Source/queue.c **** 			traceQUEUE_SEND_FAILED( pxQueue );
 951:/home/rdu/Workspace/project_templates/mcu/stm32_ws/src/libraries/FreeRTOS/Source/queue.c **** 			return errQUEUE_FULL;
 1090              		.loc 1 951 0
 1091 01e0 0023     		movs	r3, #0
 1092              	.L76:
 952:/home/rdu/Workspace/project_templates/mcu/stm32_ws/src/libraries/FreeRTOS/Source/queue.c **** 		}
 953:/home/rdu/Workspace/project_templates/mcu/stm32_ws/src/libraries/FreeRTOS/Source/queue.c **** 	} /*lint -restore */
 954:/home/rdu/Workspace/project_templates/mcu/stm32_ws/src/libraries/FreeRTOS/Source/queue.c **** }
 1093              		.loc 1 954 0 discriminator 7
 1094 01e2 1846     		mov	r0, r3
 1095 01e4 0FB0     		add	sp, sp, #60
 1096              	.LCFI26:
 1097              		.cfi_def_cfa_offset 4
 1098              		@ sp needed
 1099 01e6 5DF804FB 		ldr	pc, [sp], #4
 1100              	.L78:
 1101 01ea 00BF     		.align	2
 1102              	.L77:
 1103 01ec 04ED00E0 		.word	-536810236
 1104              		.cfi_endproc
 1105              	.LFE13:
 1107              		.section	.text.xQueueGenericSendFromISR,"ax",%progbits
 1108              		.align	1
 1109              		.global	xQueueGenericSendFromISR
 1110              		.syntax unified
 1111              		.thumb
 1112              		.thumb_func
 1113              		.fpu fpv4-sp-d16
 1115              	xQueueGenericSendFromISR:
 1116              	.LFB14:
 955:/home/rdu/Workspace/project_templates/mcu/stm32_ws/src/libraries/FreeRTOS/Source/queue.c **** /*-----------------------------------------------------------*/
 956:/home/rdu/Workspace/project_templates/mcu/stm32_ws/src/libraries/FreeRTOS/Source/queue.c **** 
 957:/home/rdu/Workspace/project_templates/mcu/stm32_ws/src/libraries/FreeRTOS/Source/queue.c **** BaseType_t xQueueGenericSendFromISR( QueueHandle_t xQueue, const void * const pvItemToQueue, BaseTy
 958:/home/rdu/Workspace/project_templates/mcu/stm32_ws/src/libraries/FreeRTOS/Source/queue.c **** {
 1117              		.loc 1 958 0
 1118              		.cfi_startproc
 1119              		@ args = 0, pretend = 0, frame = 56
 1120              		@ frame_needed = 0, uses_anonymous_args = 0
 1121 0000 00B5     		push	{lr}
 1122              	.LCFI27:
 1123              		.cfi_def_cfa_offset 4
 1124              		.cfi_offset 14, -4
 1125 0002 8FB0     		sub	sp, sp, #60
 1126              	.LCFI28:
 1127              		.cfi_def_cfa_offset 64
 1128 0004 0390     		str	r0, [sp, #12]
 1129 0006 0291     		str	r1, [sp, #8]
 1130 0008 0192     		str	r2, [sp, #4]
 1131 000a 0093     		str	r3, [sp]
 959:/home/rdu/Workspace/project_templates/mcu/stm32_ws/src/libraries/FreeRTOS/Source/queue.c **** BaseType_t xReturn;
 960:/home/rdu/Workspace/project_templates/mcu/stm32_ws/src/libraries/FreeRTOS/Source/queue.c **** UBaseType_t uxSavedInterruptStatus;
 961:/home/rdu/Workspace/project_templates/mcu/stm32_ws/src/libraries/FreeRTOS/Source/queue.c **** Queue_t * const pxQueue = xQueue;
 1132              		.loc 1 961 0
 1133 000c 039B     		ldr	r3, [sp, #12]
 1134 000e 0C93     		str	r3, [sp, #48]
 962:/home/rdu/Workspace/project_templates/mcu/stm32_ws/src/libraries/FreeRTOS/Source/queue.c **** 
 963:/home/rdu/Workspace/project_templates/mcu/stm32_ws/src/libraries/FreeRTOS/Source/queue.c **** 	configASSERT( pxQueue );
 1135              		.loc 1 963 0
 1136 0010 0C9B     		ldr	r3, [sp, #48]
 1137 0012 002B     		cmp	r3, #0
 1138 0014 09D1     		bne	.L80
 1139              	.LBB121:
 1140              	.LBB122:
 1141              		.loc 2 195 0 discriminator 1
 1142              		.syntax unified
 1143              	@ 195 "/home/rdu/Workspace/project_templates/mcu/stm32_ws/src/libraries/FreeRTOS/Source/portable/GC
 1144 0016 4FF05003 			mov r3, #80												
 1145 001a 83F31188 		msr basepri, r3											
 1146 001e BFF36F8F 		isb														
 1147 0022 BFF34F8F 		dsb														
 1148              	
 1149              	@ 0 "" 2
 1150              		.thumb
 1151              		.syntax unified
 1152 0026 0993     		str	r3, [sp, #36]
 1153              	.L81:
 1154              	.LBE122:
 1155              	.LBE121:
 1156              		.loc 1 963 0 discriminator 1
 1157 0028 FEE7     		b	.L81
 1158              	.L80:
 964:/home/rdu/Workspace/project_templates/mcu/stm32_ws/src/libraries/FreeRTOS/Source/queue.c **** 	configASSERT( !( ( pvItemToQueue == NULL ) && ( pxQueue->uxItemSize != ( UBaseType_t ) 0U ) ) );
 1159              		.loc 1 964 0
 1160 002a 029B     		ldr	r3, [sp, #8]
 1161 002c 002B     		cmp	r3, #0
 1162 002e 03D1     		bne	.L82
 1163              		.loc 1 964 0 is_stmt 0 discriminator 2
 1164 0030 0C9B     		ldr	r3, [sp, #48]
 1165 0032 1B6C     		ldr	r3, [r3, #64]
 1166 0034 002B     		cmp	r3, #0
 1167 0036 01D1     		bne	.L83
 1168              	.L82:
 1169              		.loc 1 964 0 discriminator 3
 1170 0038 0123     		movs	r3, #1
 1171 003a 00E0     		b	.L84
 1172              	.L83:
 1173              		.loc 1 964 0 discriminator 4
 1174 003c 0023     		movs	r3, #0
 1175              	.L84:
 1176              		.loc 1 964 0 discriminator 6
 1177 003e 002B     		cmp	r3, #0
 1178 0040 09D1     		bne	.L85
 1179              	.LBB123:
 1180              	.LBB124:
 1181              		.loc 2 195 0 is_stmt 1 discriminator 7
 1182              		.syntax unified
 1183              	@ 195 "/home/rdu/Workspace/project_templates/mcu/stm32_ws/src/libraries/FreeRTOS/Source/portable/GC
 1184 0042 4FF05003 			mov r3, #80												
 1185 0046 83F31188 		msr basepri, r3											
 1186 004a BFF36F8F 		isb														
 1187 004e BFF34F8F 		dsb														
 1188              	
 1189              	@ 0 "" 2
 1190              		.thumb
 1191              		.syntax unified
 1192 0052 0893     		str	r3, [sp, #32]
 1193              	.L86:
 1194              	.LBE124:
 1195              	.LBE123:
 1196              		.loc 1 964 0 discriminator 2
 1197 0054 FEE7     		b	.L86
 1198              	.L85:
 965:/home/rdu/Workspace/project_templates/mcu/stm32_ws/src/libraries/FreeRTOS/Source/queue.c **** 	configASSERT( !( ( xCopyPosition == queueOVERWRITE ) && ( pxQueue->uxLength != 1 ) ) );
 1199              		.loc 1 965 0
 1200 0056 009B     		ldr	r3, [sp]
 1201 0058 022B     		cmp	r3, #2
 1202 005a 03D1     		bne	.L87
 1203              		.loc 1 965 0 is_stmt 0 discriminator 2
 1204 005c 0C9B     		ldr	r3, [sp, #48]
 1205 005e DB6B     		ldr	r3, [r3, #60]
 1206 0060 012B     		cmp	r3, #1
 1207 0062 01D1     		bne	.L88
 1208              	.L87:
 1209              		.loc 1 965 0 discriminator 3
 1210 0064 0123     		movs	r3, #1
 1211 0066 00E0     		b	.L89
 1212              	.L88:
 1213              		.loc 1 965 0 discriminator 4
 1214 0068 0023     		movs	r3, #0
 1215              	.L89:
 1216              		.loc 1 965 0 discriminator 6
 1217 006a 002B     		cmp	r3, #0
 1218 006c 09D1     		bne	.L90
 1219              	.LBB125:
 1220              	.LBB126:
 1221              		.loc 2 195 0 is_stmt 1 discriminator 7
 1222              		.syntax unified
 1223              	@ 195 "/home/rdu/Workspace/project_templates/mcu/stm32_ws/src/libraries/FreeRTOS/Source/portable/GC
 1224 006e 4FF05003 			mov r3, #80												
 1225 0072 83F31188 		msr basepri, r3											
 1226 0076 BFF36F8F 		isb														
 1227 007a BFF34F8F 		dsb														
 1228              	
 1229              	@ 0 "" 2
 1230              		.thumb
 1231              		.syntax unified
 1232 007e 0793     		str	r3, [sp, #28]
 1233              	.L91:
 1234              	.LBE126:
 1235              	.LBE125:
 1236              		.loc 1 965 0 discriminator 3
 1237 0080 FEE7     		b	.L91
 1238              	.L90:
 966:/home/rdu/Workspace/project_templates/mcu/stm32_ws/src/libraries/FreeRTOS/Source/queue.c **** 
 967:/home/rdu/Workspace/project_templates/mcu/stm32_ws/src/libraries/FreeRTOS/Source/queue.c **** 	/* RTOS ports that support interrupt nesting have the concept of a maximum
 968:/home/rdu/Workspace/project_templates/mcu/stm32_ws/src/libraries/FreeRTOS/Source/queue.c **** 	system call (or maximum API call) interrupt priority.  Interrupts that are
 969:/home/rdu/Workspace/project_templates/mcu/stm32_ws/src/libraries/FreeRTOS/Source/queue.c **** 	above the maximum system call priority are kept permanently enabled, even
 970:/home/rdu/Workspace/project_templates/mcu/stm32_ws/src/libraries/FreeRTOS/Source/queue.c **** 	when the RTOS kernel is in a critical section, but cannot make any calls to
 971:/home/rdu/Workspace/project_templates/mcu/stm32_ws/src/libraries/FreeRTOS/Source/queue.c **** 	FreeRTOS API functions.  If configASSERT() is defined in FreeRTOSConfig.h
 972:/home/rdu/Workspace/project_templates/mcu/stm32_ws/src/libraries/FreeRTOS/Source/queue.c **** 	then portASSERT_IF_INTERRUPT_PRIORITY_INVALID() will result in an assertion
 973:/home/rdu/Workspace/project_templates/mcu/stm32_ws/src/libraries/FreeRTOS/Source/queue.c **** 	failure if a FreeRTOS API function is called from an interrupt that has been
 974:/home/rdu/Workspace/project_templates/mcu/stm32_ws/src/libraries/FreeRTOS/Source/queue.c **** 	assigned a priority above the configured maximum system call priority.
 975:/home/rdu/Workspace/project_templates/mcu/stm32_ws/src/libraries/FreeRTOS/Source/queue.c **** 	Only FreeRTOS functions that end in FromISR can be called from interrupts
 976:/home/rdu/Workspace/project_templates/mcu/stm32_ws/src/libraries/FreeRTOS/Source/queue.c **** 	that have been assigned a priority at or (logically) below the maximum
 977:/home/rdu/Workspace/project_templates/mcu/stm32_ws/src/libraries/FreeRTOS/Source/queue.c **** 	system call	interrupt priority.  FreeRTOS maintains a separate interrupt
 978:/home/rdu/Workspace/project_templates/mcu/stm32_ws/src/libraries/FreeRTOS/Source/queue.c **** 	safe API to ensure interrupt entry is as fast and as simple as possible.
 979:/home/rdu/Workspace/project_templates/mcu/stm32_ws/src/libraries/FreeRTOS/Source/queue.c **** 	More information (albeit Cortex-M specific) is provided on the following
 980:/home/rdu/Workspace/project_templates/mcu/stm32_ws/src/libraries/FreeRTOS/Source/queue.c **** 	link: http://www.freertos.org/RTOS-Cortex-M3-M4.html */
 981:/home/rdu/Workspace/project_templates/mcu/stm32_ws/src/libraries/FreeRTOS/Source/queue.c **** 	portASSERT_IF_INTERRUPT_PRIORITY_INVALID();
 1239              		.loc 1 981 0
 1240 0082 FFF7FEFF 		bl	vPortValidateInterruptPriority
 1241              	.LBB127:
 1242              	.LBB128:
 196:/home/rdu/Workspace/project_templates/mcu/stm32_ws/src/libraries/FreeRTOS/Source/portable/GCC/ARM_CM4F/portmacro.h **** 	(
 197:/home/rdu/Workspace/project_templates/mcu/stm32_ws/src/libraries/FreeRTOS/Source/portable/GCC/ARM_CM4F/portmacro.h **** 		"	mov %0, %1												\n"	\
 198:/home/rdu/Workspace/project_templates/mcu/stm32_ws/src/libraries/FreeRTOS/Source/portable/GCC/ARM_CM4F/portmacro.h **** 		"	msr basepri, %0											\n" \
 199:/home/rdu/Workspace/project_templates/mcu/stm32_ws/src/libraries/FreeRTOS/Source/portable/GCC/ARM_CM4F/portmacro.h **** 		"	isb														\n" \
 200:/home/rdu/Workspace/project_templates/mcu/stm32_ws/src/libraries/FreeRTOS/Source/portable/GCC/ARM_CM4F/portmacro.h **** 		"	dsb														\n" \
 201:/home/rdu/Workspace/project_templates/mcu/stm32_ws/src/libraries/FreeRTOS/Source/portable/GCC/ARM_CM4F/portmacro.h **** 		:"=r" (ulNewBASEPRI) : "i" ( configMAX_SYSCALL_INTERRUPT_PRIORITY ) : "memory"
 202:/home/rdu/Workspace/project_templates/mcu/stm32_ws/src/libraries/FreeRTOS/Source/portable/GCC/ARM_CM4F/portmacro.h **** 	);
 203:/home/rdu/Workspace/project_templates/mcu/stm32_ws/src/libraries/FreeRTOS/Source/portable/GCC/ARM_CM4F/portmacro.h **** }
 204:/home/rdu/Workspace/project_templates/mcu/stm32_ws/src/libraries/FreeRTOS/Source/portable/GCC/ARM_CM4F/portmacro.h **** 
 205:/home/rdu/Workspace/project_templates/mcu/stm32_ws/src/libraries/FreeRTOS/Source/portable/GCC/ARM_CM4F/portmacro.h **** /*-----------------------------------------------------------*/
 206:/home/rdu/Workspace/project_templates/mcu/stm32_ws/src/libraries/FreeRTOS/Source/portable/GCC/ARM_CM4F/portmacro.h **** 
 207:/home/rdu/Workspace/project_templates/mcu/stm32_ws/src/libraries/FreeRTOS/Source/portable/GCC/ARM_CM4F/portmacro.h **** portFORCE_INLINE static uint32_t ulPortRaiseBASEPRI( void )
 208:/home/rdu/Workspace/project_templates/mcu/stm32_ws/src/libraries/FreeRTOS/Source/portable/GCC/ARM_CM4F/portmacro.h **** {
 209:/home/rdu/Workspace/project_templates/mcu/stm32_ws/src/libraries/FreeRTOS/Source/portable/GCC/ARM_CM4F/portmacro.h **** uint32_t ulOriginalBASEPRI, ulNewBASEPRI;
 210:/home/rdu/Workspace/project_templates/mcu/stm32_ws/src/libraries/FreeRTOS/Source/portable/GCC/ARM_CM4F/portmacro.h **** 
 211:/home/rdu/Workspace/project_templates/mcu/stm32_ws/src/libraries/FreeRTOS/Source/portable/GCC/ARM_CM4F/portmacro.h **** 	__asm volatile
 1243              		.loc 2 211 0
 1244              		.syntax unified
 1245              	@ 211 "/home/rdu/Workspace/project_templates/mcu/stm32_ws/src/libraries/FreeRTOS/Source/portable/GC
 1246 0086 EFF31182 			mrs r2, basepri											
 1247 008a 4FF05003 		mov r3, #80												
 1248 008e 83F31188 		msr basepri, r3											
 1249 0092 BFF36F8F 		isb														
 1250 0096 BFF34F8F 		dsb														
 1251              	
 1252              	@ 0 "" 2
 1253              		.thumb
 1254              		.syntax unified
 1255 009a 0692     		str	r2, [sp, #24]
 1256 009c 0593     		str	r3, [sp, #20]
 212:/home/rdu/Workspace/project_templates/mcu/stm32_ws/src/libraries/FreeRTOS/Source/portable/GCC/ARM_CM4F/portmacro.h **** 	(
 213:/home/rdu/Workspace/project_templates/mcu/stm32_ws/src/libraries/FreeRTOS/Source/portable/GCC/ARM_CM4F/portmacro.h **** 		"	mrs %0, basepri											\n" \
 214:/home/rdu/Workspace/project_templates/mcu/stm32_ws/src/libraries/FreeRTOS/Source/portable/GCC/ARM_CM4F/portmacro.h **** 		"	mov %1, %2												\n"	\
 215:/home/rdu/Workspace/project_templates/mcu/stm32_ws/src/libraries/FreeRTOS/Source/portable/GCC/ARM_CM4F/portmacro.h **** 		"	msr basepri, %1											\n" \
 216:/home/rdu/Workspace/project_templates/mcu/stm32_ws/src/libraries/FreeRTOS/Source/portable/GCC/ARM_CM4F/portmacro.h **** 		"	isb														\n" \
 217:/home/rdu/Workspace/project_templates/mcu/stm32_ws/src/libraries/FreeRTOS/Source/portable/GCC/ARM_CM4F/portmacro.h **** 		"	dsb														\n" \
 218:/home/rdu/Workspace/project_templates/mcu/stm32_ws/src/libraries/FreeRTOS/Source/portable/GCC/ARM_CM4F/portmacro.h **** 		:"=r" (ulOriginalBASEPRI), "=r" (ulNewBASEPRI) : "i" ( configMAX_SYSCALL_INTERRUPT_PRIORITY ) : "
 219:/home/rdu/Workspace/project_templates/mcu/stm32_ws/src/libraries/FreeRTOS/Source/portable/GCC/ARM_CM4F/portmacro.h **** 	);
 220:/home/rdu/Workspace/project_templates/mcu/stm32_ws/src/libraries/FreeRTOS/Source/portable/GCC/ARM_CM4F/portmacro.h **** 
 221:/home/rdu/Workspace/project_templates/mcu/stm32_ws/src/libraries/FreeRTOS/Source/portable/GCC/ARM_CM4F/portmacro.h **** 	/* This return will not be reached but is necessary to prevent compiler
 222:/home/rdu/Workspace/project_templates/mcu/stm32_ws/src/libraries/FreeRTOS/Source/portable/GCC/ARM_CM4F/portmacro.h **** 	warnings. */
 223:/home/rdu/Workspace/project_templates/mcu/stm32_ws/src/libraries/FreeRTOS/Source/portable/GCC/ARM_CM4F/portmacro.h **** 	return ulOriginalBASEPRI;
 1257              		.loc 2 223 0
 1258 009e 069B     		ldr	r3, [sp, #24]
 1259              	.LBE128:
 1260              	.LBE127:
 982:/home/rdu/Workspace/project_templates/mcu/stm32_ws/src/libraries/FreeRTOS/Source/queue.c **** 
 983:/home/rdu/Workspace/project_templates/mcu/stm32_ws/src/libraries/FreeRTOS/Source/queue.c **** 	/* Similar to xQueueGenericSend, except without blocking if there is no room
 984:/home/rdu/Workspace/project_templates/mcu/stm32_ws/src/libraries/FreeRTOS/Source/queue.c **** 	in the queue.  Also don't directly wake a task that was blocked on a queue
 985:/home/rdu/Workspace/project_templates/mcu/stm32_ws/src/libraries/FreeRTOS/Source/queue.c **** 	read, instead return a flag to say whether a context switch is required or
 986:/home/rdu/Workspace/project_templates/mcu/stm32_ws/src/libraries/FreeRTOS/Source/queue.c **** 	not (i.e. has a task with a higher priority than us been woken by this
 987:/home/rdu/Workspace/project_templates/mcu/stm32_ws/src/libraries/FreeRTOS/Source/queue.c **** 	post). */
 988:/home/rdu/Workspace/project_templates/mcu/stm32_ws/src/libraries/FreeRTOS/Source/queue.c **** 	uxSavedInterruptStatus = portSET_INTERRUPT_MASK_FROM_ISR();
 1261              		.loc 1 988 0
 1262 00a0 0B93     		str	r3, [sp, #44]
 989:/home/rdu/Workspace/project_templates/mcu/stm32_ws/src/libraries/FreeRTOS/Source/queue.c **** 	{
 990:/home/rdu/Workspace/project_templates/mcu/stm32_ws/src/libraries/FreeRTOS/Source/queue.c **** 		if( ( pxQueue->uxMessagesWaiting < pxQueue->uxLength ) || ( xCopyPosition == queueOVERWRITE ) )
 1263              		.loc 1 990 0
 1264 00a2 0C9B     		ldr	r3, [sp, #48]
 1265 00a4 9A6B     		ldr	r2, [r3, #56]
 1266 00a6 0C9B     		ldr	r3, [sp, #48]
 1267 00a8 DB6B     		ldr	r3, [r3, #60]
 1268 00aa 9A42     		cmp	r2, r3
 1269 00ac 02D3     		bcc	.L93
 1270              		.loc 1 990 0 is_stmt 0 discriminator 1
 1271 00ae 009B     		ldr	r3, [sp]
 1272 00b0 022B     		cmp	r3, #2
 1273 00b2 2CD1     		bne	.L94
 1274              	.L93:
 1275              	.LBB129:
 991:/home/rdu/Workspace/project_templates/mcu/stm32_ws/src/libraries/FreeRTOS/Source/queue.c **** 		{
 992:/home/rdu/Workspace/project_templates/mcu/stm32_ws/src/libraries/FreeRTOS/Source/queue.c **** 			const int8_t cTxLock = pxQueue->cTxLock;
 1276              		.loc 1 992 0 is_stmt 1
 1277 00b4 0C9B     		ldr	r3, [sp, #48]
 1278 00b6 93F84530 		ldrb	r3, [r3, #69]
 1279 00ba 8DF82B30 		strb	r3, [sp, #43]
 993:/home/rdu/Workspace/project_templates/mcu/stm32_ws/src/libraries/FreeRTOS/Source/queue.c **** 
 994:/home/rdu/Workspace/project_templates/mcu/stm32_ws/src/libraries/FreeRTOS/Source/queue.c **** 			traceQUEUE_SEND_FROM_ISR( pxQueue );
 995:/home/rdu/Workspace/project_templates/mcu/stm32_ws/src/libraries/FreeRTOS/Source/queue.c **** 
 996:/home/rdu/Workspace/project_templates/mcu/stm32_ws/src/libraries/FreeRTOS/Source/queue.c **** 			/* Semaphores use xQueueGiveFromISR(), so pxQueue will not be a
 997:/home/rdu/Workspace/project_templates/mcu/stm32_ws/src/libraries/FreeRTOS/Source/queue.c **** 			semaphore or mutex.  That means prvCopyDataToQueue() cannot result
 998:/home/rdu/Workspace/project_templates/mcu/stm32_ws/src/libraries/FreeRTOS/Source/queue.c **** 			in a task disinheriting a priority and prvCopyDataToQueue() can be
 999:/home/rdu/Workspace/project_templates/mcu/stm32_ws/src/libraries/FreeRTOS/Source/queue.c **** 			called here even though the disinherit function does not check if
1000:/home/rdu/Workspace/project_templates/mcu/stm32_ws/src/libraries/FreeRTOS/Source/queue.c **** 			the scheduler is suspended before accessing the ready lists. */
1001:/home/rdu/Workspace/project_templates/mcu/stm32_ws/src/libraries/FreeRTOS/Source/queue.c **** 			( void ) prvCopyDataToQueue( pxQueue, pvItemToQueue, xCopyPosition );
 1280              		.loc 1 1001 0
 1281 00be 009A     		ldr	r2, [sp]
 1282 00c0 0299     		ldr	r1, [sp, #8]
 1283 00c2 0C98     		ldr	r0, [sp, #48]
 1284 00c4 FFF7FEFF 		bl	prvCopyDataToQueue
1002:/home/rdu/Workspace/project_templates/mcu/stm32_ws/src/libraries/FreeRTOS/Source/queue.c **** 
1003:/home/rdu/Workspace/project_templates/mcu/stm32_ws/src/libraries/FreeRTOS/Source/queue.c **** 			/* The event list is not altered if the queue is locked.  This will
1004:/home/rdu/Workspace/project_templates/mcu/stm32_ws/src/libraries/FreeRTOS/Source/queue.c **** 			be done when the queue is unlocked later. */
1005:/home/rdu/Workspace/project_templates/mcu/stm32_ws/src/libraries/FreeRTOS/Source/queue.c **** 			if( cTxLock == queueUNLOCKED )
 1285              		.loc 1 1005 0
 1286 00c8 9DF92B30 		ldrsb	r3, [sp, #43]
 1287 00cc B3F1FF3F 		cmp	r3, #-1
 1288 00d0 12D1     		bne	.L95
1006:/home/rdu/Workspace/project_templates/mcu/stm32_ws/src/libraries/FreeRTOS/Source/queue.c **** 			{
1007:/home/rdu/Workspace/project_templates/mcu/stm32_ws/src/libraries/FreeRTOS/Source/queue.c **** 				#if ( configUSE_QUEUE_SETS == 1 )
1008:/home/rdu/Workspace/project_templates/mcu/stm32_ws/src/libraries/FreeRTOS/Source/queue.c **** 				{
1009:/home/rdu/Workspace/project_templates/mcu/stm32_ws/src/libraries/FreeRTOS/Source/queue.c **** 					if( pxQueue->pxQueueSetContainer != NULL )
1010:/home/rdu/Workspace/project_templates/mcu/stm32_ws/src/libraries/FreeRTOS/Source/queue.c **** 					{
1011:/home/rdu/Workspace/project_templates/mcu/stm32_ws/src/libraries/FreeRTOS/Source/queue.c **** 						if( prvNotifyQueueSetContainer( pxQueue, xCopyPosition ) != pdFALSE )
1012:/home/rdu/Workspace/project_templates/mcu/stm32_ws/src/libraries/FreeRTOS/Source/queue.c **** 						{
1013:/home/rdu/Workspace/project_templates/mcu/stm32_ws/src/libraries/FreeRTOS/Source/queue.c **** 							/* The queue is a member of a queue set, and posting
1014:/home/rdu/Workspace/project_templates/mcu/stm32_ws/src/libraries/FreeRTOS/Source/queue.c **** 							to the queue set caused a higher priority task to
1015:/home/rdu/Workspace/project_templates/mcu/stm32_ws/src/libraries/FreeRTOS/Source/queue.c **** 							unblock.  A context switch is required. */
1016:/home/rdu/Workspace/project_templates/mcu/stm32_ws/src/libraries/FreeRTOS/Source/queue.c **** 							if( pxHigherPriorityTaskWoken != NULL )
1017:/home/rdu/Workspace/project_templates/mcu/stm32_ws/src/libraries/FreeRTOS/Source/queue.c **** 							{
1018:/home/rdu/Workspace/project_templates/mcu/stm32_ws/src/libraries/FreeRTOS/Source/queue.c **** 								*pxHigherPriorityTaskWoken = pdTRUE;
1019:/home/rdu/Workspace/project_templates/mcu/stm32_ws/src/libraries/FreeRTOS/Source/queue.c **** 							}
1020:/home/rdu/Workspace/project_templates/mcu/stm32_ws/src/libraries/FreeRTOS/Source/queue.c **** 							else
1021:/home/rdu/Workspace/project_templates/mcu/stm32_ws/src/libraries/FreeRTOS/Source/queue.c **** 							{
1022:/home/rdu/Workspace/project_templates/mcu/stm32_ws/src/libraries/FreeRTOS/Source/queue.c **** 								mtCOVERAGE_TEST_MARKER();
1023:/home/rdu/Workspace/project_templates/mcu/stm32_ws/src/libraries/FreeRTOS/Source/queue.c **** 							}
1024:/home/rdu/Workspace/project_templates/mcu/stm32_ws/src/libraries/FreeRTOS/Source/queue.c **** 						}
1025:/home/rdu/Workspace/project_templates/mcu/stm32_ws/src/libraries/FreeRTOS/Source/queue.c **** 						else
1026:/home/rdu/Workspace/project_templates/mcu/stm32_ws/src/libraries/FreeRTOS/Source/queue.c **** 						{
1027:/home/rdu/Workspace/project_templates/mcu/stm32_ws/src/libraries/FreeRTOS/Source/queue.c **** 							mtCOVERAGE_TEST_MARKER();
1028:/home/rdu/Workspace/project_templates/mcu/stm32_ws/src/libraries/FreeRTOS/Source/queue.c **** 						}
1029:/home/rdu/Workspace/project_templates/mcu/stm32_ws/src/libraries/FreeRTOS/Source/queue.c **** 					}
1030:/home/rdu/Workspace/project_templates/mcu/stm32_ws/src/libraries/FreeRTOS/Source/queue.c **** 					else
1031:/home/rdu/Workspace/project_templates/mcu/stm32_ws/src/libraries/FreeRTOS/Source/queue.c **** 					{
1032:/home/rdu/Workspace/project_templates/mcu/stm32_ws/src/libraries/FreeRTOS/Source/queue.c **** 						if( listLIST_IS_EMPTY( &( pxQueue->xTasksWaitingToReceive ) ) == pdFALSE )
1033:/home/rdu/Workspace/project_templates/mcu/stm32_ws/src/libraries/FreeRTOS/Source/queue.c **** 						{
1034:/home/rdu/Workspace/project_templates/mcu/stm32_ws/src/libraries/FreeRTOS/Source/queue.c **** 							if( xTaskRemoveFromEventList( &( pxQueue->xTasksWaitingToReceive ) ) != pdFALSE )
1035:/home/rdu/Workspace/project_templates/mcu/stm32_ws/src/libraries/FreeRTOS/Source/queue.c **** 							{
1036:/home/rdu/Workspace/project_templates/mcu/stm32_ws/src/libraries/FreeRTOS/Source/queue.c **** 								/* The task waiting has a higher priority so
1037:/home/rdu/Workspace/project_templates/mcu/stm32_ws/src/libraries/FreeRTOS/Source/queue.c **** 								record that a context switch is required. */
1038:/home/rdu/Workspace/project_templates/mcu/stm32_ws/src/libraries/FreeRTOS/Source/queue.c **** 								if( pxHigherPriorityTaskWoken != NULL )
1039:/home/rdu/Workspace/project_templates/mcu/stm32_ws/src/libraries/FreeRTOS/Source/queue.c **** 								{
1040:/home/rdu/Workspace/project_templates/mcu/stm32_ws/src/libraries/FreeRTOS/Source/queue.c **** 									*pxHigherPriorityTaskWoken = pdTRUE;
1041:/home/rdu/Workspace/project_templates/mcu/stm32_ws/src/libraries/FreeRTOS/Source/queue.c **** 								}
1042:/home/rdu/Workspace/project_templates/mcu/stm32_ws/src/libraries/FreeRTOS/Source/queue.c **** 								else
1043:/home/rdu/Workspace/project_templates/mcu/stm32_ws/src/libraries/FreeRTOS/Source/queue.c **** 								{
1044:/home/rdu/Workspace/project_templates/mcu/stm32_ws/src/libraries/FreeRTOS/Source/queue.c **** 									mtCOVERAGE_TEST_MARKER();
1045:/home/rdu/Workspace/project_templates/mcu/stm32_ws/src/libraries/FreeRTOS/Source/queue.c **** 								}
1046:/home/rdu/Workspace/project_templates/mcu/stm32_ws/src/libraries/FreeRTOS/Source/queue.c **** 							}
1047:/home/rdu/Workspace/project_templates/mcu/stm32_ws/src/libraries/FreeRTOS/Source/queue.c **** 							else
1048:/home/rdu/Workspace/project_templates/mcu/stm32_ws/src/libraries/FreeRTOS/Source/queue.c **** 							{
1049:/home/rdu/Workspace/project_templates/mcu/stm32_ws/src/libraries/FreeRTOS/Source/queue.c **** 								mtCOVERAGE_TEST_MARKER();
1050:/home/rdu/Workspace/project_templates/mcu/stm32_ws/src/libraries/FreeRTOS/Source/queue.c **** 							}
1051:/home/rdu/Workspace/project_templates/mcu/stm32_ws/src/libraries/FreeRTOS/Source/queue.c **** 						}
1052:/home/rdu/Workspace/project_templates/mcu/stm32_ws/src/libraries/FreeRTOS/Source/queue.c **** 						else
1053:/home/rdu/Workspace/project_templates/mcu/stm32_ws/src/libraries/FreeRTOS/Source/queue.c **** 						{
1054:/home/rdu/Workspace/project_templates/mcu/stm32_ws/src/libraries/FreeRTOS/Source/queue.c **** 							mtCOVERAGE_TEST_MARKER();
1055:/home/rdu/Workspace/project_templates/mcu/stm32_ws/src/libraries/FreeRTOS/Source/queue.c **** 						}
1056:/home/rdu/Workspace/project_templates/mcu/stm32_ws/src/libraries/FreeRTOS/Source/queue.c **** 					}
1057:/home/rdu/Workspace/project_templates/mcu/stm32_ws/src/libraries/FreeRTOS/Source/queue.c **** 				}
1058:/home/rdu/Workspace/project_templates/mcu/stm32_ws/src/libraries/FreeRTOS/Source/queue.c **** 				#else /* configUSE_QUEUE_SETS */
1059:/home/rdu/Workspace/project_templates/mcu/stm32_ws/src/libraries/FreeRTOS/Source/queue.c **** 				{
1060:/home/rdu/Workspace/project_templates/mcu/stm32_ws/src/libraries/FreeRTOS/Source/queue.c **** 					if( listLIST_IS_EMPTY( &( pxQueue->xTasksWaitingToReceive ) ) == pdFALSE )
 1289              		.loc 1 1060 0
 1290 00d2 0C9B     		ldr	r3, [sp, #48]
 1291 00d4 5B6A     		ldr	r3, [r3, #36]
 1292 00d6 002B     		cmp	r3, #0
 1293 00d8 16D0     		beq	.L96
1061:/home/rdu/Workspace/project_templates/mcu/stm32_ws/src/libraries/FreeRTOS/Source/queue.c **** 					{
1062:/home/rdu/Workspace/project_templates/mcu/stm32_ws/src/libraries/FreeRTOS/Source/queue.c **** 						if( xTaskRemoveFromEventList( &( pxQueue->xTasksWaitingToReceive ) ) != pdFALSE )
 1294              		.loc 1 1062 0
 1295 00da 0C9B     		ldr	r3, [sp, #48]
 1296 00dc 2433     		adds	r3, r3, #36
 1297 00de 1846     		mov	r0, r3
 1298 00e0 FFF7FEFF 		bl	xTaskRemoveFromEventList
 1299 00e4 0346     		mov	r3, r0
 1300 00e6 002B     		cmp	r3, #0
 1301 00e8 0ED0     		beq	.L96
1063:/home/rdu/Workspace/project_templates/mcu/stm32_ws/src/libraries/FreeRTOS/Source/queue.c **** 						{
1064:/home/rdu/Workspace/project_templates/mcu/stm32_ws/src/libraries/FreeRTOS/Source/queue.c **** 							/* The task waiting has a higher priority so record that a
1065:/home/rdu/Workspace/project_templates/mcu/stm32_ws/src/libraries/FreeRTOS/Source/queue.c **** 							context	switch is required. */
1066:/home/rdu/Workspace/project_templates/mcu/stm32_ws/src/libraries/FreeRTOS/Source/queue.c **** 							if( pxHigherPriorityTaskWoken != NULL )
 1302              		.loc 1 1066 0
 1303 00ea 019B     		ldr	r3, [sp, #4]
 1304 00ec 002B     		cmp	r3, #0
 1305 00ee 0BD0     		beq	.L96
1067:/home/rdu/Workspace/project_templates/mcu/stm32_ws/src/libraries/FreeRTOS/Source/queue.c **** 							{
1068:/home/rdu/Workspace/project_templates/mcu/stm32_ws/src/libraries/FreeRTOS/Source/queue.c **** 								*pxHigherPriorityTaskWoken = pdTRUE;
 1306              		.loc 1 1068 0
 1307 00f0 019B     		ldr	r3, [sp, #4]
 1308 00f2 0122     		movs	r2, #1
 1309 00f4 1A60     		str	r2, [r3]
 1310 00f6 07E0     		b	.L96
 1311              	.L95:
1069:/home/rdu/Workspace/project_templates/mcu/stm32_ws/src/libraries/FreeRTOS/Source/queue.c **** 							}
1070:/home/rdu/Workspace/project_templates/mcu/stm32_ws/src/libraries/FreeRTOS/Source/queue.c **** 							else
1071:/home/rdu/Workspace/project_templates/mcu/stm32_ws/src/libraries/FreeRTOS/Source/queue.c **** 							{
1072:/home/rdu/Workspace/project_templates/mcu/stm32_ws/src/libraries/FreeRTOS/Source/queue.c **** 								mtCOVERAGE_TEST_MARKER();
1073:/home/rdu/Workspace/project_templates/mcu/stm32_ws/src/libraries/FreeRTOS/Source/queue.c **** 							}
1074:/home/rdu/Workspace/project_templates/mcu/stm32_ws/src/libraries/FreeRTOS/Source/queue.c **** 						}
1075:/home/rdu/Workspace/project_templates/mcu/stm32_ws/src/libraries/FreeRTOS/Source/queue.c **** 						else
1076:/home/rdu/Workspace/project_templates/mcu/stm32_ws/src/libraries/FreeRTOS/Source/queue.c **** 						{
1077:/home/rdu/Workspace/project_templates/mcu/stm32_ws/src/libraries/FreeRTOS/Source/queue.c **** 							mtCOVERAGE_TEST_MARKER();
1078:/home/rdu/Workspace/project_templates/mcu/stm32_ws/src/libraries/FreeRTOS/Source/queue.c **** 						}
1079:/home/rdu/Workspace/project_templates/mcu/stm32_ws/src/libraries/FreeRTOS/Source/queue.c **** 					}
1080:/home/rdu/Workspace/project_templates/mcu/stm32_ws/src/libraries/FreeRTOS/Source/queue.c **** 					else
1081:/home/rdu/Workspace/project_templates/mcu/stm32_ws/src/libraries/FreeRTOS/Source/queue.c **** 					{
1082:/home/rdu/Workspace/project_templates/mcu/stm32_ws/src/libraries/FreeRTOS/Source/queue.c **** 						mtCOVERAGE_TEST_MARKER();
1083:/home/rdu/Workspace/project_templates/mcu/stm32_ws/src/libraries/FreeRTOS/Source/queue.c **** 					}
1084:/home/rdu/Workspace/project_templates/mcu/stm32_ws/src/libraries/FreeRTOS/Source/queue.c **** 				}
1085:/home/rdu/Workspace/project_templates/mcu/stm32_ws/src/libraries/FreeRTOS/Source/queue.c **** 				#endif /* configUSE_QUEUE_SETS */
1086:/home/rdu/Workspace/project_templates/mcu/stm32_ws/src/libraries/FreeRTOS/Source/queue.c **** 			}
1087:/home/rdu/Workspace/project_templates/mcu/stm32_ws/src/libraries/FreeRTOS/Source/queue.c **** 			else
1088:/home/rdu/Workspace/project_templates/mcu/stm32_ws/src/libraries/FreeRTOS/Source/queue.c **** 			{
1089:/home/rdu/Workspace/project_templates/mcu/stm32_ws/src/libraries/FreeRTOS/Source/queue.c **** 				/* Increment the lock count so the task that unlocks the queue
1090:/home/rdu/Workspace/project_templates/mcu/stm32_ws/src/libraries/FreeRTOS/Source/queue.c **** 				knows that data was posted while it was locked. */
1091:/home/rdu/Workspace/project_templates/mcu/stm32_ws/src/libraries/FreeRTOS/Source/queue.c **** 				pxQueue->cTxLock = ( int8_t ) ( cTxLock + 1 );
 1312              		.loc 1 1091 0
 1313 00f8 9DF82B30 		ldrb	r3, [sp, #43]	@ zero_extendqisi2
 1314 00fc 0133     		adds	r3, r3, #1
 1315 00fe DBB2     		uxtb	r3, r3
 1316 0100 5AB2     		sxtb	r2, r3
 1317 0102 0C9B     		ldr	r3, [sp, #48]
 1318 0104 83F84520 		strb	r2, [r3, #69]
 1319              	.L96:
1092:/home/rdu/Workspace/project_templates/mcu/stm32_ws/src/libraries/FreeRTOS/Source/queue.c **** 			}
1093:/home/rdu/Workspace/project_templates/mcu/stm32_ws/src/libraries/FreeRTOS/Source/queue.c **** 
1094:/home/rdu/Workspace/project_templates/mcu/stm32_ws/src/libraries/FreeRTOS/Source/queue.c **** 			xReturn = pdPASS;
 1320              		.loc 1 1094 0
 1321 0108 0123     		movs	r3, #1
 1322 010a 0D93     		str	r3, [sp, #52]
 1323              	.LBE129:
 991:/home/rdu/Workspace/project_templates/mcu/stm32_ws/src/libraries/FreeRTOS/Source/queue.c **** 			const int8_t cTxLock = pxQueue->cTxLock;
 1324              		.loc 1 991 0
 1325 010c 01E0     		b	.L97
 1326              	.L94:
1095:/home/rdu/Workspace/project_templates/mcu/stm32_ws/src/libraries/FreeRTOS/Source/queue.c **** 		}
1096:/home/rdu/Workspace/project_templates/mcu/stm32_ws/src/libraries/FreeRTOS/Source/queue.c **** 		else
1097:/home/rdu/Workspace/project_templates/mcu/stm32_ws/src/libraries/FreeRTOS/Source/queue.c **** 		{
1098:/home/rdu/Workspace/project_templates/mcu/stm32_ws/src/libraries/FreeRTOS/Source/queue.c **** 			traceQUEUE_SEND_FROM_ISR_FAILED( pxQueue );
1099:/home/rdu/Workspace/project_templates/mcu/stm32_ws/src/libraries/FreeRTOS/Source/queue.c **** 			xReturn = errQUEUE_FULL;
 1327              		.loc 1 1099 0
 1328 010e 0023     		movs	r3, #0
 1329 0110 0D93     		str	r3, [sp, #52]
 1330              	.L97:
 1331 0112 0B9B     		ldr	r3, [sp, #44]
 1332 0114 0493     		str	r3, [sp, #16]
 1333              	.LBB130:
 1334              	.LBB131:
 224:/home/rdu/Workspace/project_templates/mcu/stm32_ws/src/libraries/FreeRTOS/Source/portable/GCC/ARM_CM4F/portmacro.h **** }
 225:/home/rdu/Workspace/project_templates/mcu/stm32_ws/src/libraries/FreeRTOS/Source/portable/GCC/ARM_CM4F/portmacro.h **** /*-----------------------------------------------------------*/
 226:/home/rdu/Workspace/project_templates/mcu/stm32_ws/src/libraries/FreeRTOS/Source/portable/GCC/ARM_CM4F/portmacro.h **** 
 227:/home/rdu/Workspace/project_templates/mcu/stm32_ws/src/libraries/FreeRTOS/Source/portable/GCC/ARM_CM4F/portmacro.h **** portFORCE_INLINE static void vPortSetBASEPRI( uint32_t ulNewMaskValue )
 228:/home/rdu/Workspace/project_templates/mcu/stm32_ws/src/libraries/FreeRTOS/Source/portable/GCC/ARM_CM4F/portmacro.h **** {
 229:/home/rdu/Workspace/project_templates/mcu/stm32_ws/src/libraries/FreeRTOS/Source/portable/GCC/ARM_CM4F/portmacro.h **** 	__asm volatile
 1335              		.loc 2 229 0
 1336 0116 049B     		ldr	r3, [sp, #16]
 1337              		.syntax unified
 1338              	@ 229 "/home/rdu/Workspace/project_templates/mcu/stm32_ws/src/libraries/FreeRTOS/Source/portable/GC
 1339 0118 83F31188 			msr basepri, r3	
 1340              	@ 0 "" 2
 1341              		.thumb
 1342              		.syntax unified
 1343              	.LBE131:
 1344              	.LBE130:
1100:/home/rdu/Workspace/project_templates/mcu/stm32_ws/src/libraries/FreeRTOS/Source/queue.c **** 		}
1101:/home/rdu/Workspace/project_templates/mcu/stm32_ws/src/libraries/FreeRTOS/Source/queue.c **** 	}
1102:/home/rdu/Workspace/project_templates/mcu/stm32_ws/src/libraries/FreeRTOS/Source/queue.c **** 	portCLEAR_INTERRUPT_MASK_FROM_ISR( uxSavedInterruptStatus );
1103:/home/rdu/Workspace/project_templates/mcu/stm32_ws/src/libraries/FreeRTOS/Source/queue.c **** 
1104:/home/rdu/Workspace/project_templates/mcu/stm32_ws/src/libraries/FreeRTOS/Source/queue.c **** 	return xReturn;
 1345              		.loc 1 1104 0
 1346 011c 0D9B     		ldr	r3, [sp, #52]
1105:/home/rdu/Workspace/project_templates/mcu/stm32_ws/src/libraries/FreeRTOS/Source/queue.c **** }
 1347              		.loc 1 1105 0
 1348 011e 1846     		mov	r0, r3
 1349 0120 0FB0     		add	sp, sp, #60
 1350              	.LCFI29:
 1351              		.cfi_def_cfa_offset 4
 1352              		@ sp needed
 1353 0122 5DF804FB 		ldr	pc, [sp], #4
 1354              		.cfi_endproc
 1355              	.LFE14:
 1357              		.section	.text.xQueueGiveFromISR,"ax",%progbits
 1358              		.align	1
 1359              		.global	xQueueGiveFromISR
 1360              		.syntax unified
 1361              		.thumb
 1362              		.thumb_func
 1363              		.fpu fpv4-sp-d16
 1365              	xQueueGiveFromISR:
 1366              	.LFB15:
1106:/home/rdu/Workspace/project_templates/mcu/stm32_ws/src/libraries/FreeRTOS/Source/queue.c **** /*-----------------------------------------------------------*/
1107:/home/rdu/Workspace/project_templates/mcu/stm32_ws/src/libraries/FreeRTOS/Source/queue.c **** 
1108:/home/rdu/Workspace/project_templates/mcu/stm32_ws/src/libraries/FreeRTOS/Source/queue.c **** BaseType_t xQueueGiveFromISR( QueueHandle_t xQueue, BaseType_t * const pxHigherPriorityTaskWoken )
1109:/home/rdu/Workspace/project_templates/mcu/stm32_ws/src/libraries/FreeRTOS/Source/queue.c **** {
 1367              		.loc 1 1109 0
 1368              		.cfi_startproc
 1369              		@ args = 0, pretend = 0, frame = 56
 1370              		@ frame_needed = 0, uses_anonymous_args = 0
 1371 0000 00B5     		push	{lr}
 1372              	.LCFI30:
 1373              		.cfi_def_cfa_offset 4
 1374              		.cfi_offset 14, -4
 1375 0002 8FB0     		sub	sp, sp, #60
 1376              	.LCFI31:
 1377              		.cfi_def_cfa_offset 64
 1378 0004 0190     		str	r0, [sp, #4]
 1379 0006 0091     		str	r1, [sp]
1110:/home/rdu/Workspace/project_templates/mcu/stm32_ws/src/libraries/FreeRTOS/Source/queue.c **** BaseType_t xReturn;
1111:/home/rdu/Workspace/project_templates/mcu/stm32_ws/src/libraries/FreeRTOS/Source/queue.c **** UBaseType_t uxSavedInterruptStatus;
1112:/home/rdu/Workspace/project_templates/mcu/stm32_ws/src/libraries/FreeRTOS/Source/queue.c **** Queue_t * const pxQueue = xQueue;
 1380              		.loc 1 1112 0
 1381 0008 019B     		ldr	r3, [sp, #4]
 1382 000a 0C93     		str	r3, [sp, #48]
1113:/home/rdu/Workspace/project_templates/mcu/stm32_ws/src/libraries/FreeRTOS/Source/queue.c **** 
1114:/home/rdu/Workspace/project_templates/mcu/stm32_ws/src/libraries/FreeRTOS/Source/queue.c **** 	/* Similar to xQueueGenericSendFromISR() but used with semaphores where the
1115:/home/rdu/Workspace/project_templates/mcu/stm32_ws/src/libraries/FreeRTOS/Source/queue.c **** 	item size is 0.  Don't directly wake a task that was blocked on a queue
1116:/home/rdu/Workspace/project_templates/mcu/stm32_ws/src/libraries/FreeRTOS/Source/queue.c **** 	read, instead return a flag to say whether a context switch is required or
1117:/home/rdu/Workspace/project_templates/mcu/stm32_ws/src/libraries/FreeRTOS/Source/queue.c **** 	not (i.e. has a task with a higher priority than us been woken by this
1118:/home/rdu/Workspace/project_templates/mcu/stm32_ws/src/libraries/FreeRTOS/Source/queue.c **** 	post). */
1119:/home/rdu/Workspace/project_templates/mcu/stm32_ws/src/libraries/FreeRTOS/Source/queue.c **** 
1120:/home/rdu/Workspace/project_templates/mcu/stm32_ws/src/libraries/FreeRTOS/Source/queue.c **** 	configASSERT( pxQueue );
 1383              		.loc 1 1120 0
 1384 000c 0C9B     		ldr	r3, [sp, #48]
 1385 000e 002B     		cmp	r3, #0
 1386 0010 09D1     		bne	.L100
 1387              	.LBB132:
 1388              	.LBB133:
 195:/home/rdu/Workspace/project_templates/mcu/stm32_ws/src/libraries/FreeRTOS/Source/portable/GCC/ARM_CM4F/portmacro.h **** 	(
 1389              		.loc 2 195 0 discriminator 1
 1390              		.syntax unified
 1391              	@ 195 "/home/rdu/Workspace/project_templates/mcu/stm32_ws/src/libraries/FreeRTOS/Source/portable/GC
 1392 0012 4FF05003 			mov r3, #80												
 1393 0016 83F31188 		msr basepri, r3											
 1394 001a BFF36F8F 		isb														
 1395 001e BFF34F8F 		dsb														
 1396              	
 1397              	@ 0 "" 2
 1398              		.thumb
 1399              		.syntax unified
 1400 0022 0893     		str	r3, [sp, #32]
 1401              	.L101:
 1402              	.LBE133:
 1403              	.LBE132:
 1404              		.loc 1 1120 0 discriminator 1
 1405 0024 FEE7     		b	.L101
 1406              	.L100:
1121:/home/rdu/Workspace/project_templates/mcu/stm32_ws/src/libraries/FreeRTOS/Source/queue.c **** 
1122:/home/rdu/Workspace/project_templates/mcu/stm32_ws/src/libraries/FreeRTOS/Source/queue.c **** 	/* xQueueGenericSendFromISR() should be used instead of xQueueGiveFromISR()
1123:/home/rdu/Workspace/project_templates/mcu/stm32_ws/src/libraries/FreeRTOS/Source/queue.c **** 	if the item size is not 0. */
1124:/home/rdu/Workspace/project_templates/mcu/stm32_ws/src/libraries/FreeRTOS/Source/queue.c **** 	configASSERT( pxQueue->uxItemSize == 0 );
 1407              		.loc 1 1124 0
 1408 0026 0C9B     		ldr	r3, [sp, #48]
 1409 0028 1B6C     		ldr	r3, [r3, #64]
 1410 002a 002B     		cmp	r3, #0
 1411 002c 09D0     		beq	.L102
 1412              	.LBB134:
 1413              	.LBB135:
 195:/home/rdu/Workspace/project_templates/mcu/stm32_ws/src/libraries/FreeRTOS/Source/portable/GCC/ARM_CM4F/portmacro.h **** 	(
 1414              		.loc 2 195 0 discriminator 1
 1415              		.syntax unified
 1416              	@ 195 "/home/rdu/Workspace/project_templates/mcu/stm32_ws/src/libraries/FreeRTOS/Source/portable/GC
 1417 002e 4FF05003 			mov r3, #80												
 1418 0032 83F31188 		msr basepri, r3											
 1419 0036 BFF36F8F 		isb														
 1420 003a BFF34F8F 		dsb														
 1421              	
 1422              	@ 0 "" 2
 1423              		.thumb
 1424              		.syntax unified
 1425 003e 0793     		str	r3, [sp, #28]
 1426              	.L103:
 1427              	.LBE135:
 1428              	.LBE134:
 1429              		.loc 1 1124 0 discriminator 2
 1430 0040 FEE7     		b	.L103
 1431              	.L102:
1125:/home/rdu/Workspace/project_templates/mcu/stm32_ws/src/libraries/FreeRTOS/Source/queue.c **** 
1126:/home/rdu/Workspace/project_templates/mcu/stm32_ws/src/libraries/FreeRTOS/Source/queue.c **** 	/* Normally a mutex would not be given from an interrupt, especially if
1127:/home/rdu/Workspace/project_templates/mcu/stm32_ws/src/libraries/FreeRTOS/Source/queue.c **** 	there is a mutex holder, as priority inheritance makes no sense for an
1128:/home/rdu/Workspace/project_templates/mcu/stm32_ws/src/libraries/FreeRTOS/Source/queue.c **** 	interrupts, only tasks. */
1129:/home/rdu/Workspace/project_templates/mcu/stm32_ws/src/libraries/FreeRTOS/Source/queue.c **** 	configASSERT( !( ( pxQueue->uxQueueType == queueQUEUE_IS_MUTEX ) && ( pxQueue->u.xSemaphore.xMutex
 1432              		.loc 1 1129 0
 1433 0042 0C9B     		ldr	r3, [sp, #48]
 1434 0044 1B68     		ldr	r3, [r3]
 1435 0046 002B     		cmp	r3, #0
 1436 0048 03D1     		bne	.L104
 1437              		.loc 1 1129 0 is_stmt 0 discriminator 2
 1438 004a 0C9B     		ldr	r3, [sp, #48]
 1439 004c 9B68     		ldr	r3, [r3, #8]
 1440 004e 002B     		cmp	r3, #0
 1441 0050 01D1     		bne	.L105
 1442              	.L104:
 1443              		.loc 1 1129 0 discriminator 3
 1444 0052 0123     		movs	r3, #1
 1445 0054 00E0     		b	.L106
 1446              	.L105:
 1447              		.loc 1 1129 0 discriminator 4
 1448 0056 0023     		movs	r3, #0
 1449              	.L106:
 1450              		.loc 1 1129 0 discriminator 6
 1451 0058 002B     		cmp	r3, #0
 1452 005a 09D1     		bne	.L107
 1453              	.LBB136:
 1454              	.LBB137:
 195:/home/rdu/Workspace/project_templates/mcu/stm32_ws/src/libraries/FreeRTOS/Source/portable/GCC/ARM_CM4F/portmacro.h **** 	(
 1455              		.loc 2 195 0 is_stmt 1 discriminator 7
 1456              		.syntax unified
 1457              	@ 195 "/home/rdu/Workspace/project_templates/mcu/stm32_ws/src/libraries/FreeRTOS/Source/portable/GC
 1458 005c 4FF05003 			mov r3, #80												
 1459 0060 83F31188 		msr basepri, r3											
 1460 0064 BFF36F8F 		isb														
 1461 0068 BFF34F8F 		dsb														
 1462              	
 1463              	@ 0 "" 2
 1464              		.thumb
 1465              		.syntax unified
 1466 006c 0693     		str	r3, [sp, #24]
 1467              	.L108:
 1468              	.LBE137:
 1469              	.LBE136:
 1470              		.loc 1 1129 0 discriminator 3
 1471 006e FEE7     		b	.L108
 1472              	.L107:
1130:/home/rdu/Workspace/project_templates/mcu/stm32_ws/src/libraries/FreeRTOS/Source/queue.c **** 
1131:/home/rdu/Workspace/project_templates/mcu/stm32_ws/src/libraries/FreeRTOS/Source/queue.c **** 	/* RTOS ports that support interrupt nesting have the concept of a maximum
1132:/home/rdu/Workspace/project_templates/mcu/stm32_ws/src/libraries/FreeRTOS/Source/queue.c **** 	system call (or maximum API call) interrupt priority.  Interrupts that are
1133:/home/rdu/Workspace/project_templates/mcu/stm32_ws/src/libraries/FreeRTOS/Source/queue.c **** 	above the maximum system call priority are kept permanently enabled, even
1134:/home/rdu/Workspace/project_templates/mcu/stm32_ws/src/libraries/FreeRTOS/Source/queue.c **** 	when the RTOS kernel is in a critical section, but cannot make any calls to
1135:/home/rdu/Workspace/project_templates/mcu/stm32_ws/src/libraries/FreeRTOS/Source/queue.c **** 	FreeRTOS API functions.  If configASSERT() is defined in FreeRTOSConfig.h
1136:/home/rdu/Workspace/project_templates/mcu/stm32_ws/src/libraries/FreeRTOS/Source/queue.c **** 	then portASSERT_IF_INTERRUPT_PRIORITY_INVALID() will result in an assertion
1137:/home/rdu/Workspace/project_templates/mcu/stm32_ws/src/libraries/FreeRTOS/Source/queue.c **** 	failure if a FreeRTOS API function is called from an interrupt that has been
1138:/home/rdu/Workspace/project_templates/mcu/stm32_ws/src/libraries/FreeRTOS/Source/queue.c **** 	assigned a priority above the configured maximum system call priority.
1139:/home/rdu/Workspace/project_templates/mcu/stm32_ws/src/libraries/FreeRTOS/Source/queue.c **** 	Only FreeRTOS functions that end in FromISR can be called from interrupts
1140:/home/rdu/Workspace/project_templates/mcu/stm32_ws/src/libraries/FreeRTOS/Source/queue.c **** 	that have been assigned a priority at or (logically) below the maximum
1141:/home/rdu/Workspace/project_templates/mcu/stm32_ws/src/libraries/FreeRTOS/Source/queue.c **** 	system call	interrupt priority.  FreeRTOS maintains a separate interrupt
1142:/home/rdu/Workspace/project_templates/mcu/stm32_ws/src/libraries/FreeRTOS/Source/queue.c **** 	safe API to ensure interrupt entry is as fast and as simple as possible.
1143:/home/rdu/Workspace/project_templates/mcu/stm32_ws/src/libraries/FreeRTOS/Source/queue.c **** 	More information (albeit Cortex-M specific) is provided on the following
1144:/home/rdu/Workspace/project_templates/mcu/stm32_ws/src/libraries/FreeRTOS/Source/queue.c **** 	link: http://www.freertos.org/RTOS-Cortex-M3-M4.html */
1145:/home/rdu/Workspace/project_templates/mcu/stm32_ws/src/libraries/FreeRTOS/Source/queue.c **** 	portASSERT_IF_INTERRUPT_PRIORITY_INVALID();
 1473              		.loc 1 1145 0
 1474 0070 FFF7FEFF 		bl	vPortValidateInterruptPriority
 1475              	.LBB138:
 1476              	.LBB139:
 211:/home/rdu/Workspace/project_templates/mcu/stm32_ws/src/libraries/FreeRTOS/Source/portable/GCC/ARM_CM4F/portmacro.h **** 	(
 1477              		.loc 2 211 0
 1478              		.syntax unified
 1479              	@ 211 "/home/rdu/Workspace/project_templates/mcu/stm32_ws/src/libraries/FreeRTOS/Source/portable/GC
 1480 0074 EFF31182 			mrs r2, basepri											
 1481 0078 4FF05003 		mov r3, #80												
 1482 007c 83F31188 		msr basepri, r3											
 1483 0080 BFF36F8F 		isb														
 1484 0084 BFF34F8F 		dsb														
 1485              	
 1486              	@ 0 "" 2
 1487              		.thumb
 1488              		.syntax unified
 1489 0088 0592     		str	r2, [sp, #20]
 1490 008a 0493     		str	r3, [sp, #16]
 223:/home/rdu/Workspace/project_templates/mcu/stm32_ws/src/libraries/FreeRTOS/Source/portable/GCC/ARM_CM4F/portmacro.h **** }
 1491              		.loc 2 223 0
 1492 008c 059B     		ldr	r3, [sp, #20]
 1493              	.LBE139:
 1494              	.LBE138:
1146:/home/rdu/Workspace/project_templates/mcu/stm32_ws/src/libraries/FreeRTOS/Source/queue.c **** 
1147:/home/rdu/Workspace/project_templates/mcu/stm32_ws/src/libraries/FreeRTOS/Source/queue.c **** 	uxSavedInterruptStatus = portSET_INTERRUPT_MASK_FROM_ISR();
 1495              		.loc 1 1147 0
 1496 008e 0B93     		str	r3, [sp, #44]
 1497              	.LBB140:
1148:/home/rdu/Workspace/project_templates/mcu/stm32_ws/src/libraries/FreeRTOS/Source/queue.c **** 	{
1149:/home/rdu/Workspace/project_templates/mcu/stm32_ws/src/libraries/FreeRTOS/Source/queue.c **** 		const UBaseType_t uxMessagesWaiting = pxQueue->uxMessagesWaiting;
 1498              		.loc 1 1149 0
 1499 0090 0C9B     		ldr	r3, [sp, #48]
 1500 0092 9B6B     		ldr	r3, [r3, #56]
 1501 0094 0A93     		str	r3, [sp, #40]
1150:/home/rdu/Workspace/project_templates/mcu/stm32_ws/src/libraries/FreeRTOS/Source/queue.c **** 
1151:/home/rdu/Workspace/project_templates/mcu/stm32_ws/src/libraries/FreeRTOS/Source/queue.c **** 		/* When the queue is used to implement a semaphore no data is ever
1152:/home/rdu/Workspace/project_templates/mcu/stm32_ws/src/libraries/FreeRTOS/Source/queue.c **** 		moved through the queue but it is still valid to see if the queue 'has
1153:/home/rdu/Workspace/project_templates/mcu/stm32_ws/src/libraries/FreeRTOS/Source/queue.c **** 		space'. */
1154:/home/rdu/Workspace/project_templates/mcu/stm32_ws/src/libraries/FreeRTOS/Source/queue.c **** 		if( uxMessagesWaiting < pxQueue->uxLength )
 1502              		.loc 1 1154 0
 1503 0096 0C9B     		ldr	r3, [sp, #48]
 1504 0098 DB6B     		ldr	r3, [r3, #60]
 1505 009a 0A9A     		ldr	r2, [sp, #40]
 1506 009c 9A42     		cmp	r2, r3
 1507 009e 2BD2     		bcs	.L110
 1508              	.LBB141:
1155:/home/rdu/Workspace/project_templates/mcu/stm32_ws/src/libraries/FreeRTOS/Source/queue.c **** 		{
1156:/home/rdu/Workspace/project_templates/mcu/stm32_ws/src/libraries/FreeRTOS/Source/queue.c **** 			const int8_t cTxLock = pxQueue->cTxLock;
 1509              		.loc 1 1156 0
 1510 00a0 0C9B     		ldr	r3, [sp, #48]
 1511 00a2 93F84530 		ldrb	r3, [r3, #69]
 1512 00a6 8DF82730 		strb	r3, [sp, #39]
1157:/home/rdu/Workspace/project_templates/mcu/stm32_ws/src/libraries/FreeRTOS/Source/queue.c **** 
1158:/home/rdu/Workspace/project_templates/mcu/stm32_ws/src/libraries/FreeRTOS/Source/queue.c **** 			traceQUEUE_SEND_FROM_ISR( pxQueue );
1159:/home/rdu/Workspace/project_templates/mcu/stm32_ws/src/libraries/FreeRTOS/Source/queue.c **** 
1160:/home/rdu/Workspace/project_templates/mcu/stm32_ws/src/libraries/FreeRTOS/Source/queue.c **** 			/* A task can only have an inherited priority if it is a mutex
1161:/home/rdu/Workspace/project_templates/mcu/stm32_ws/src/libraries/FreeRTOS/Source/queue.c **** 			holder - and if there is a mutex holder then the mutex cannot be
1162:/home/rdu/Workspace/project_templates/mcu/stm32_ws/src/libraries/FreeRTOS/Source/queue.c **** 			given from an ISR.  As this is the ISR version of the function it
1163:/home/rdu/Workspace/project_templates/mcu/stm32_ws/src/libraries/FreeRTOS/Source/queue.c **** 			can be assumed there is no mutex holder and no need to determine if
1164:/home/rdu/Workspace/project_templates/mcu/stm32_ws/src/libraries/FreeRTOS/Source/queue.c **** 			priority disinheritance is needed.  Simply increase the count of
1165:/home/rdu/Workspace/project_templates/mcu/stm32_ws/src/libraries/FreeRTOS/Source/queue.c **** 			messages (semaphores) available. */
1166:/home/rdu/Workspace/project_templates/mcu/stm32_ws/src/libraries/FreeRTOS/Source/queue.c **** 			pxQueue->uxMessagesWaiting = uxMessagesWaiting + ( UBaseType_t ) 1;
 1513              		.loc 1 1166 0
 1514 00aa 0A9B     		ldr	r3, [sp, #40]
 1515 00ac 5A1C     		adds	r2, r3, #1
 1516 00ae 0C9B     		ldr	r3, [sp, #48]
 1517 00b0 9A63     		str	r2, [r3, #56]
1167:/home/rdu/Workspace/project_templates/mcu/stm32_ws/src/libraries/FreeRTOS/Source/queue.c **** 
1168:/home/rdu/Workspace/project_templates/mcu/stm32_ws/src/libraries/FreeRTOS/Source/queue.c **** 			/* The event list is not altered if the queue is locked.  This will
1169:/home/rdu/Workspace/project_templates/mcu/stm32_ws/src/libraries/FreeRTOS/Source/queue.c **** 			be done when the queue is unlocked later. */
1170:/home/rdu/Workspace/project_templates/mcu/stm32_ws/src/libraries/FreeRTOS/Source/queue.c **** 			if( cTxLock == queueUNLOCKED )
 1518              		.loc 1 1170 0
 1519 00b2 9DF92730 		ldrsb	r3, [sp, #39]
 1520 00b6 B3F1FF3F 		cmp	r3, #-1
 1521 00ba 12D1     		bne	.L111
1171:/home/rdu/Workspace/project_templates/mcu/stm32_ws/src/libraries/FreeRTOS/Source/queue.c **** 			{
1172:/home/rdu/Workspace/project_templates/mcu/stm32_ws/src/libraries/FreeRTOS/Source/queue.c **** 				#if ( configUSE_QUEUE_SETS == 1 )
1173:/home/rdu/Workspace/project_templates/mcu/stm32_ws/src/libraries/FreeRTOS/Source/queue.c **** 				{
