   1              		.cpu cortex-m4
   2              		.eabi_attribute 27, 1
   3              		.eabi_attribute 28, 1
   4              		.eabi_attribute 23, 1
   5              		.eabi_attribute 24, 1
   6              		.eabi_attribute 25, 1
   7              		.eabi_attribute 26, 1
   8              		.eabi_attribute 30, 6
   9              		.eabi_attribute 34, 1
  10              		.eabi_attribute 18, 4
  11              		.file	"racerio_timer.c"
  12              		.text
  13              	.Ltext0:
  14              		.cfi_sections	.debug_frame
  15              		.section	.text.RACERIO_InitTimerGPIO,"ax",%progbits
  16              		.align	1
  17              		.syntax unified
  18              		.thumb
  19              		.thumb_func
  20              		.fpu fpv4-sp-d16
  22              	RACERIO_InitTimerGPIO:
  23              	.LFB128:
  24              		.file 1 "/home/rdu/Workspace/project_templates/mcu/stm32_ws/src/targets/racer_core/firmware/driver
   1:/home/rdu/Workspace/project_templates/mcu/stm32_ws/src/targets/racer_core/firmware/driver/racerio_timer.c **** /* 
   2:/home/rdu/Workspace/project_templates/mcu/stm32_ws/src/targets/racer_core/firmware/driver/racerio_timer.c ****  * racerio_timer.c
   3:/home/rdu/Workspace/project_templates/mcu/stm32_ws/src/targets/racer_core/firmware/driver/racerio_timer.c ****  * 
   4:/home/rdu/Workspace/project_templates/mcu/stm32_ws/src/targets/racer_core/firmware/driver/racerio_timer.c ****  * Created on: Feb 17, 2018 23:45
   5:/home/rdu/Workspace/project_templates/mcu/stm32_ws/src/targets/racer_core/firmware/driver/racerio_timer.c ****  * Description: 
   6:/home/rdu/Workspace/project_templates/mcu/stm32_ws/src/targets/racer_core/firmware/driver/racerio_timer.c ****  * 
   7:/home/rdu/Workspace/project_templates/mcu/stm32_ws/src/targets/racer_core/firmware/driver/racerio_timer.c ****  * Copyright (c) 2018 Ruixiang Du (rdu)
   8:/home/rdu/Workspace/project_templates/mcu/stm32_ws/src/targets/racer_core/firmware/driver/racerio_timer.c ****  */
   9:/home/rdu/Workspace/project_templates/mcu/stm32_ws/src/targets/racer_core/firmware/driver/racerio_timer.c **** 
  10:/home/rdu/Workspace/project_templates/mcu/stm32_ws/src/targets/racer_core/firmware/driver/racerio_timer.c **** #include "racerio_timer.h"
  11:/home/rdu/Workspace/project_templates/mcu/stm32_ws/src/targets/racer_core/firmware/driver/racerio_timer.c **** 
  12:/home/rdu/Workspace/project_templates/mcu/stm32_ws/src/targets/racer_core/firmware/driver/racerio_timer.c **** #include "stm32f4xx_tim.h"
  13:/home/rdu/Workspace/project_templates/mcu/stm32_ws/src/targets/racer_core/firmware/driver/racerio_timer.c **** #include "misc.h"
  14:/home/rdu/Workspace/project_templates/mcu/stm32_ws/src/targets/racer_core/firmware/driver/racerio_timer.c **** 
  15:/home/rdu/Workspace/project_templates/mcu/stm32_ws/src/targets/racer_core/firmware/driver/racerio_timer.c **** #include "racerio.h"
  16:/home/rdu/Workspace/project_templates/mcu/stm32_ws/src/targets/racer_core/firmware/driver/racerio_timer.c **** #include "racerio_driver.h"
  17:/home/rdu/Workspace/project_templates/mcu/stm32_ws/src/targets/racer_core/firmware/driver/racerio_timer.c **** 
  18:/home/rdu/Workspace/project_templates/mcu/stm32_ws/src/targets/racer_core/firmware/driver/racerio_timer.c **** static void RACERIO_InitTimerGPIO();
  19:/home/rdu/Workspace/project_templates/mcu/stm32_ws/src/targets/racer_core/firmware/driver/racerio_timer.c **** static void RACERIO_InitTimerClock();
  20:/home/rdu/Workspace/project_templates/mcu/stm32_ws/src/targets/racer_core/firmware/driver/racerio_timer.c **** 
  21:/home/rdu/Workspace/project_templates/mcu/stm32_ws/src/targets/racer_core/firmware/driver/racerio_timer.c **** // Interrupt handler
  22:/home/rdu/Workspace/project_templates/mcu/stm32_ws/src/targets/racer_core/firmware/driver/racerio_timer.c **** void TIM5_IRQHandler(void);
  23:/home/rdu/Workspace/project_templates/mcu/stm32_ws/src/targets/racer_core/firmware/driver/racerio_timer.c **** 
  24:/home/rdu/Workspace/project_templates/mcu/stm32_ws/src/targets/racer_core/firmware/driver/racerio_timer.c **** void RACERIO_InitTimerGPIO()
  25:/home/rdu/Workspace/project_templates/mcu/stm32_ws/src/targets/racer_core/firmware/driver/racerio_timer.c **** {
  25              		.loc 1 25 0
  26              		.cfi_startproc
  27              		@ args = 0, pretend = 0, frame = 8
  28              		@ frame_needed = 0, uses_anonymous_args = 0
  29 0000 00B5     		push	{lr}
  30              	.LCFI0:
  31              		.cfi_def_cfa_offset 4
  32              		.cfi_offset 14, -4
  33 0002 83B0     		sub	sp, sp, #12
  34              	.LCFI1:
  35              		.cfi_def_cfa_offset 16
  26:/home/rdu/Workspace/project_templates/mcu/stm32_ws/src/targets/racer_core/firmware/driver/racerio_timer.c ****     /* Enable GPIO clock */
  27:/home/rdu/Workspace/project_templates/mcu/stm32_ws/src/targets/racer_core/firmware/driver/racerio_timer.c ****     RCC_AHB1PeriphClockCmd(RCC_AHB1Periph_GPIOA, ENABLE);
  36              		.loc 1 27 0
  37 0004 0121     		movs	r1, #1
  38 0006 0120     		movs	r0, #1
  39 0008 FFF7FEFF 		bl	RCC_AHB1PeriphClockCmd
  28:/home/rdu/Workspace/project_templates/mcu/stm32_ws/src/targets/racer_core/firmware/driver/racerio_timer.c **** 
  29:/home/rdu/Workspace/project_templates/mcu/stm32_ws/src/targets/racer_core/firmware/driver/racerio_timer.c ****     /* Configure timer GPIOs */
  30:/home/rdu/Workspace/project_templates/mcu/stm32_ws/src/targets/racer_core/firmware/driver/racerio_timer.c ****     GPIO_InitTypeDef encoder_gpio;
  31:/home/rdu/Workspace/project_templates/mcu/stm32_ws/src/targets/racer_core/firmware/driver/racerio_timer.c ****     encoder_gpio.GPIO_Pin = GPIO_Pin_0;
  40              		.loc 1 31 0
  41 000c 0123     		movs	r3, #1
  42 000e 0093     		str	r3, [sp]
  32:/home/rdu/Workspace/project_templates/mcu/stm32_ws/src/targets/racer_core/firmware/driver/racerio_timer.c ****     encoder_gpio.GPIO_Speed = GPIO_Speed_2MHz;
  43              		.loc 1 32 0
  44 0010 0023     		movs	r3, #0
  45 0012 8DF80530 		strb	r3, [sp, #5]
  33:/home/rdu/Workspace/project_templates/mcu/stm32_ws/src/targets/racer_core/firmware/driver/racerio_timer.c ****     encoder_gpio.GPIO_Mode = GPIO_Mode_AF;
  46              		.loc 1 33 0
  47 0016 0223     		movs	r3, #2
  48 0018 8DF80430 		strb	r3, [sp, #4]
  34:/home/rdu/Workspace/project_templates/mcu/stm32_ws/src/targets/racer_core/firmware/driver/racerio_timer.c ****     encoder_gpio.GPIO_OType = GPIO_OType_PP;
  49              		.loc 1 34 0
  50 001c 0023     		movs	r3, #0
  51 001e 8DF80630 		strb	r3, [sp, #6]
  35:/home/rdu/Workspace/project_templates/mcu/stm32_ws/src/targets/racer_core/firmware/driver/racerio_timer.c ****     encoder_gpio.GPIO_PuPd = GPIO_PuPd_UP;
  52              		.loc 1 35 0
  53 0022 0123     		movs	r3, #1
  54 0024 8DF80730 		strb	r3, [sp, #7]
  36:/home/rdu/Workspace/project_templates/mcu/stm32_ws/src/targets/racer_core/firmware/driver/racerio_timer.c ****     GPIO_Init(GPIOA, &encoder_gpio);
  55              		.loc 1 36 0
  56 0028 6B46     		mov	r3, sp
  57 002a 1946     		mov	r1, r3
  58 002c 1148     		ldr	r0, .L2
  59 002e FFF7FEFF 		bl	GPIO_Init
  37:/home/rdu/Workspace/project_templates/mcu/stm32_ws/src/targets/racer_core/firmware/driver/racerio_timer.c ****     GPIO_PinAFConfig(GPIOA, GPIO_PinSource0, GPIO_AF_TIM5);
  60              		.loc 1 37 0
  61 0032 0222     		movs	r2, #2
  62 0034 0021     		movs	r1, #0
  63 0036 0F48     		ldr	r0, .L2
  64 0038 FFF7FEFF 		bl	GPIO_PinAFConfig
  38:/home/rdu/Workspace/project_templates/mcu/stm32_ws/src/targets/racer_core/firmware/driver/racerio_timer.c **** 
  39:/home/rdu/Workspace/project_templates/mcu/stm32_ws/src/targets/racer_core/firmware/driver/racerio_timer.c ****     encoder_gpio.GPIO_Pin = GPIO_Pin_1;
  65              		.loc 1 39 0
  66 003c 0223     		movs	r3, #2
  67 003e 0093     		str	r3, [sp]
  40:/home/rdu/Workspace/project_templates/mcu/stm32_ws/src/targets/racer_core/firmware/driver/racerio_timer.c ****     GPIO_Init(GPIOA, &encoder_gpio);
  68              		.loc 1 40 0
  69 0040 6B46     		mov	r3, sp
  70 0042 1946     		mov	r1, r3
  71 0044 0B48     		ldr	r0, .L2
  72 0046 FFF7FEFF 		bl	GPIO_Init
  41:/home/rdu/Workspace/project_templates/mcu/stm32_ws/src/targets/racer_core/firmware/driver/racerio_timer.c ****     GPIO_PinAFConfig(GPIOA, GPIO_PinSource1, GPIO_AF_TIM5);
  73              		.loc 1 41 0
  74 004a 0222     		movs	r2, #2
  75 004c 0121     		movs	r1, #1
  76 004e 0948     		ldr	r0, .L2
  77 0050 FFF7FEFF 		bl	GPIO_PinAFConfig
  42:/home/rdu/Workspace/project_templates/mcu/stm32_ws/src/targets/racer_core/firmware/driver/racerio_timer.c **** 
  43:/home/rdu/Workspace/project_templates/mcu/stm32_ws/src/targets/racer_core/firmware/driver/racerio_timer.c ****     encoder_gpio.GPIO_Pin = GPIO_Pin_2;
  78              		.loc 1 43 0
  79 0054 0423     		movs	r3, #4
  80 0056 0093     		str	r3, [sp]
  44:/home/rdu/Workspace/project_templates/mcu/stm32_ws/src/targets/racer_core/firmware/driver/racerio_timer.c ****     GPIO_Init(GPIOA, &encoder_gpio);
  81              		.loc 1 44 0
  82 0058 6B46     		mov	r3, sp
  83 005a 1946     		mov	r1, r3
  84 005c 0548     		ldr	r0, .L2
  85 005e FFF7FEFF 		bl	GPIO_Init
  45:/home/rdu/Workspace/project_templates/mcu/stm32_ws/src/targets/racer_core/firmware/driver/racerio_timer.c ****     GPIO_PinAFConfig(GPIOA, GPIO_PinSource2, GPIO_AF_TIM5);
  86              		.loc 1 45 0
  87 0062 0222     		movs	r2, #2
  88 0064 0221     		movs	r1, #2
  89 0066 0348     		ldr	r0, .L2
  90 0068 FFF7FEFF 		bl	GPIO_PinAFConfig
  46:/home/rdu/Workspace/project_templates/mcu/stm32_ws/src/targets/racer_core/firmware/driver/racerio_timer.c **** }
  91              		.loc 1 46 0
  92 006c 00BF     		nop
  93 006e 03B0     		add	sp, sp, #12
  94              	.LCFI2:
  95              		.cfi_def_cfa_offset 4
  96              		@ sp needed
  97 0070 5DF804FB 		ldr	pc, [sp], #4
  98              	.L3:
  99              		.align	2
 100              	.L2:
 101 0074 00000240 		.word	1073872896
 102              		.cfi_endproc
 103              	.LFE128:
 105              		.section	.text.RACERIO_InitTimerClock,"ax",%progbits
 106              		.align	1
 107              		.syntax unified
 108              		.thumb
 109              		.thumb_func
 110              		.fpu fpv4-sp-d16
 112              	RACERIO_InitTimerClock:
 113              	.LFB129:
  47:/home/rdu/Workspace/project_templates/mcu/stm32_ws/src/targets/racer_core/firmware/driver/racerio_timer.c **** 
  48:/home/rdu/Workspace/project_templates/mcu/stm32_ws/src/targets/racer_core/firmware/driver/racerio_timer.c **** void RACERIO_InitTimerClock()
  49:/home/rdu/Workspace/project_templates/mcu/stm32_ws/src/targets/racer_core/firmware/driver/racerio_timer.c **** {
 114              		.loc 1 49 0
 115              		.cfi_startproc
 116              		@ args = 0, pretend = 0, frame = 16
 117              		@ frame_needed = 0, uses_anonymous_args = 0
 118 0000 00B5     		push	{lr}
 119              	.LCFI3:
 120              		.cfi_def_cfa_offset 4
 121              		.cfi_offset 14, -4
 122 0002 85B0     		sub	sp, sp, #20
 123              	.LCFI4:
 124              		.cfi_def_cfa_offset 24
  50:/home/rdu/Workspace/project_templates/mcu/stm32_ws/src/targets/racer_core/firmware/driver/racerio_timer.c ****     /* TIM3 clock enable */
  51:/home/rdu/Workspace/project_templates/mcu/stm32_ws/src/targets/racer_core/firmware/driver/racerio_timer.c ****     RCC_APB1PeriphClockCmd(RCC_APB1Periph_TIM5, ENABLE);
 125              		.loc 1 51 0
 126 0004 0121     		movs	r1, #1
 127 0006 0820     		movs	r0, #8
 128 0008 FFF7FEFF 		bl	RCC_APB1PeriphClockCmd
  52:/home/rdu/Workspace/project_templates/mcu/stm32_ws/src/targets/racer_core/firmware/driver/racerio_timer.c **** 
  53:/home/rdu/Workspace/project_templates/mcu/stm32_ws/src/targets/racer_core/firmware/driver/racerio_timer.c ****     /* Configure the dividers for this timer */
  54:/home/rdu/Workspace/project_templates/mcu/stm32_ws/src/targets/racer_core/firmware/driver/racerio_timer.c ****     TIM_TimeBaseInitTypeDef encoder_timer_base;
  55:/home/rdu/Workspace/project_templates/mcu/stm32_ws/src/targets/racer_core/firmware/driver/racerio_timer.c ****     encoder_timer_base.TIM_Prescaler = (uint16_t)((SystemCoreClock / 2) / 1000000) - 1;
 129              		.loc 1 55 0
 130 000c 194B     		ldr	r3, .L5
 131 000e 1B68     		ldr	r3, [r3]
 132 0010 194A     		ldr	r2, .L5+4
 133 0012 A2FB0323 		umull	r2, r3, r2, r3
 134 0016 DB0C     		lsrs	r3, r3, #19
 135 0018 9BB2     		uxth	r3, r3
 136 001a 013B     		subs	r3, r3, #1
 137 001c 9BB2     		uxth	r3, r3
 138 001e ADF80430 		strh	r3, [sp, #4]	@ movhi
  56:/home/rdu/Workspace/project_templates/mcu/stm32_ws/src/targets/racer_core/firmware/driver/racerio_timer.c ****     encoder_timer_base.TIM_CounterMode = TIM_CounterMode_Up;
 139              		.loc 1 56 0
 140 0022 0023     		movs	r3, #0
 141 0024 ADF80630 		strh	r3, [sp, #6]	@ movhi
  57:/home/rdu/Workspace/project_templates/mcu/stm32_ws/src/targets/racer_core/firmware/driver/racerio_timer.c ****     encoder_timer_base.TIM_Period = 0xFFFF;
 142              		.loc 1 57 0
 143 0028 4FF6FF73 		movw	r3, #65535
 144 002c 0293     		str	r3, [sp, #8]
  58:/home/rdu/Workspace/project_templates/mcu/stm32_ws/src/targets/racer_core/firmware/driver/racerio_timer.c ****     encoder_timer_base.TIM_ClockDivision = TIM_CKD_DIV1;
 145              		.loc 1 58 0
 146 002e 0023     		movs	r3, #0
 147 0030 ADF80C30 		strh	r3, [sp, #12]	@ movhi
  59:/home/rdu/Workspace/project_templates/mcu/stm32_ws/src/targets/racer_core/firmware/driver/racerio_timer.c ****     encoder_timer_base.TIM_RepetitionCounter = 0x0000;
 148              		.loc 1 59 0
 149 0034 0023     		movs	r3, #0
 150 0036 8DF80E30 		strb	r3, [sp, #14]
  60:/home/rdu/Workspace/project_templates/mcu/stm32_ws/src/targets/racer_core/firmware/driver/racerio_timer.c ****     TIM_TimeBaseInit(TIM5, &encoder_timer_base);
 151              		.loc 1 60 0
 152 003a 01AB     		add	r3, sp, #4
 153 003c 1946     		mov	r1, r3
 154 003e 0F48     		ldr	r0, .L5+8
 155 0040 FFF7FEFF 		bl	TIM_TimeBaseInit
  61:/home/rdu/Workspace/project_templates/mcu/stm32_ws/src/targets/racer_core/firmware/driver/racerio_timer.c **** 
  62:/home/rdu/Workspace/project_templates/mcu/stm32_ws/src/targets/racer_core/firmware/driver/racerio_timer.c ****     /* Configure internal timer clocks */
  63:/home/rdu/Workspace/project_templates/mcu/stm32_ws/src/targets/racer_core/firmware/driver/racerio_timer.c ****     TIM_InternalClockConfig(TIM5);
 156              		.loc 1 63 0
 157 0044 0D48     		ldr	r0, .L5+8
 158 0046 FFF7FEFF 		bl	TIM_InternalClockConfig
  64:/home/rdu/Workspace/project_templates/mcu/stm32_ws/src/targets/racer_core/firmware/driver/racerio_timer.c **** 
  65:/home/rdu/Workspace/project_templates/mcu/stm32_ws/src/targets/racer_core/firmware/driver/racerio_timer.c ****     /* Enable timers */
  66:/home/rdu/Workspace/project_templates/mcu/stm32_ws/src/targets/racer_core/firmware/driver/racerio_timer.c ****     // TIM_Cmd(TIM5, ENABLE);
  67:/home/rdu/Workspace/project_templates/mcu/stm32_ws/src/targets/racer_core/firmware/driver/racerio_timer.c **** 
  68:/home/rdu/Workspace/project_templates/mcu/stm32_ws/src/targets/racer_core/firmware/driver/racerio_timer.c ****     /* Enable Interrupts */
  69:/home/rdu/Workspace/project_templates/mcu/stm32_ws/src/targets/racer_core/firmware/driver/racerio_timer.c ****     NVIC_InitTypeDef encoder_nvic;
  70:/home/rdu/Workspace/project_templates/mcu/stm32_ws/src/targets/racer_core/firmware/driver/racerio_timer.c ****     encoder_nvic.NVIC_IRQChannel = TIM5_IRQn;
 159              		.loc 1 70 0
 160 004a 3223     		movs	r3, #50
 161 004c 8DF80030 		strb	r3, [sp]
  71:/home/rdu/Workspace/project_templates/mcu/stm32_ws/src/targets/racer_core/firmware/driver/racerio_timer.c ****     encoder_nvic.NVIC_IRQChannelPreemptionPriority = RACERIO_IRQ_PRIO_MID;
 162              		.loc 1 71 0
 163 0050 0823     		movs	r3, #8
 164 0052 8DF80130 		strb	r3, [sp, #1]
  72:/home/rdu/Workspace/project_templates/mcu/stm32_ws/src/targets/racer_core/firmware/driver/racerio_timer.c ****     encoder_nvic.NVIC_IRQChannelSubPriority = 0;
 165              		.loc 1 72 0
 166 0056 0023     		movs	r3, #0
 167 0058 8DF80230 		strb	r3, [sp, #2]
  73:/home/rdu/Workspace/project_templates/mcu/stm32_ws/src/targets/racer_core/firmware/driver/racerio_timer.c ****     encoder_nvic.NVIC_IRQChannelCmd = ENABLE;
 168              		.loc 1 73 0
 169 005c 0123     		movs	r3, #1
 170 005e 8DF80330 		strb	r3, [sp, #3]
  74:/home/rdu/Workspace/project_templates/mcu/stm32_ws/src/targets/racer_core/firmware/driver/racerio_timer.c ****     NVIC_Init(&encoder_nvic);
 171              		.loc 1 74 0
 172 0062 6B46     		mov	r3, sp
 173 0064 1846     		mov	r0, r3
 174 0066 FFF7FEFF 		bl	NVIC_Init
  75:/home/rdu/Workspace/project_templates/mcu/stm32_ws/src/targets/racer_core/firmware/driver/racerio_timer.c **** }
 175              		.loc 1 75 0
 176 006a 00BF     		nop
 177 006c 05B0     		add	sp, sp, #20
 178              	.LCFI5:
 179              		.cfi_def_cfa_offset 4
 180              		@ sp needed
 181 006e 5DF804FB 		ldr	pc, [sp], #4
 182              	.L6:
 183 0072 00BF     		.align	2
 184              	.L5:
 185 0074 00000000 		.word	SystemCoreClock
 186 0078 83DE1B43 		.word	1125899907
 187 007c 000C0040 		.word	1073744896
 188              		.cfi_endproc
 189              	.LFE129:
 191              		.section	.text.RACERIO_InitHallSensorInterface,"ax",%progbits
 192              		.align	1
 193              		.global	RACERIO_InitHallSensorInterface
 194              		.syntax unified
 195              		.thumb
 196              		.thumb_func
 197              		.fpu fpv4-sp-d16
 199              	RACERIO_InitHallSensorInterface:
 200              	.LFB130:
  76:/home/rdu/Workspace/project_templates/mcu/stm32_ws/src/targets/racer_core/firmware/driver/racerio_timer.c **** 
  77:/home/rdu/Workspace/project_templates/mcu/stm32_ws/src/targets/racer_core/firmware/driver/racerio_timer.c **** void RACERIO_InitHallSensorInterface()
  78:/home/rdu/Workspace/project_templates/mcu/stm32_ws/src/targets/racer_core/firmware/driver/racerio_timer.c **** {
 201              		.loc 1 78 0
 202              		.cfi_startproc
 203              		@ args = 0, pretend = 0, frame = 16
 204              		@ frame_needed = 0, uses_anonymous_args = 0
 205 0000 00B5     		push	{lr}
 206              	.LCFI6:
 207              		.cfi_def_cfa_offset 4
 208              		.cfi_offset 14, -4
 209 0002 85B0     		sub	sp, sp, #20
 210              	.LCFI7:
 211              		.cfi_def_cfa_offset 24
  79:/home/rdu/Workspace/project_templates/mcu/stm32_ws/src/targets/racer_core/firmware/driver/racerio_timer.c ****     /* Disable timer for more configurations */
  80:/home/rdu/Workspace/project_templates/mcu/stm32_ws/src/targets/racer_core/firmware/driver/racerio_timer.c ****     TIM_Cmd(TIM5, DISABLE);
 212              		.loc 1 80 0
 213 0004 0021     		movs	r1, #0
 214 0006 1A48     		ldr	r0, .L8
 215 0008 FFF7FEFF 		bl	TIM_Cmd
  81:/home/rdu/Workspace/project_templates/mcu/stm32_ws/src/targets/racer_core/firmware/driver/racerio_timer.c **** 
  82:/home/rdu/Workspace/project_templates/mcu/stm32_ws/src/targets/racer_core/firmware/driver/racerio_timer.c ****     /* Configure GPIO and Timer clock */
  83:/home/rdu/Workspace/project_templates/mcu/stm32_ws/src/targets/racer_core/firmware/driver/racerio_timer.c ****     RACERIO_InitTimerGPIO();
 216              		.loc 1 83 0
 217 000c FFF7FEFF 		bl	RACERIO_InitTimerGPIO
  84:/home/rdu/Workspace/project_templates/mcu/stm32_ws/src/targets/racer_core/firmware/driver/racerio_timer.c ****     RACERIO_InitTimerClock();
 218              		.loc 1 84 0
 219 0010 FFF7FEFF 		bl	RACERIO_InitTimerClock
  85:/home/rdu/Workspace/project_templates/mcu/stm32_ws/src/targets/racer_core/firmware/driver/racerio_timer.c **** 
  86:/home/rdu/Workspace/project_templates/mcu/stm32_ws/src/targets/racer_core/firmware/driver/racerio_timer.c ****     /* Enable hall sensor interface */
  87:/home/rdu/Workspace/project_templates/mcu/stm32_ws/src/targets/racer_core/firmware/driver/racerio_timer.c ****     TIM_SelectHallSensor(TIM5, ENABLE);
 220              		.loc 1 87 0
 221 0014 0121     		movs	r1, #1
 222 0016 1648     		ldr	r0, .L8
 223 0018 FFF7FEFF 		bl	TIM_SelectHallSensor
  88:/home/rdu/Workspace/project_templates/mcu/stm32_ws/src/targets/racer_core/firmware/driver/racerio_timer.c **** 
  89:/home/rdu/Workspace/project_templates/mcu/stm32_ws/src/targets/racer_core/firmware/driver/racerio_timer.c ****     /* Select slave input trigger */
  90:/home/rdu/Workspace/project_templates/mcu/stm32_ws/src/targets/racer_core/firmware/driver/racerio_timer.c ****     TIM_SelectInputTrigger(TIM5, TIM_TS_TI1F_ED);
 224              		.loc 1 90 0
 225 001c 4021     		movs	r1, #64
 226 001e 1448     		ldr	r0, .L8
 227 0020 FFF7FEFF 		bl	TIM_SelectInputTrigger
  91:/home/rdu/Workspace/project_templates/mcu/stm32_ws/src/targets/racer_core/firmware/driver/racerio_timer.c ****     TIM_SelectSlaveMode(TIM5, TIM_SlaveMode_Reset);
 228              		.loc 1 91 0
 229 0024 0421     		movs	r1, #4
 230 0026 1248     		ldr	r0, .L8
 231 0028 FFF7FEFF 		bl	TIM_SelectSlaveMode
  92:/home/rdu/Workspace/project_templates/mcu/stm32_ws/src/targets/racer_core/firmware/driver/racerio_timer.c **** 
  93:/home/rdu/Workspace/project_templates/mcu/stm32_ws/src/targets/racer_core/firmware/driver/racerio_timer.c ****     /* Config input capture channel */
  94:/home/rdu/Workspace/project_templates/mcu/stm32_ws/src/targets/racer_core/firmware/driver/racerio_timer.c ****     TIM_ICInitTypeDef encoder_ic;
  95:/home/rdu/Workspace/project_templates/mcu/stm32_ws/src/targets/racer_core/firmware/driver/racerio_timer.c ****     encoder_ic.TIM_ICPolarity = TIM_ICPolarity_BothEdge,
 232              		.loc 1 95 0
 233 002c 0A23     		movs	r3, #10
 234 002e ADF80630 		strh	r3, [sp, #6]	@ movhi
  96:/home/rdu/Workspace/project_templates/mcu/stm32_ws/src/targets/racer_core/firmware/driver/racerio_timer.c ****     encoder_ic.TIM_ICSelection = TIM_ICSelection_TRC,
 235              		.loc 1 96 0
 236 0032 0323     		movs	r3, #3
 237 0034 ADF80830 		strh	r3, [sp, #8]	@ movhi
  97:/home/rdu/Workspace/project_templates/mcu/stm32_ws/src/targets/racer_core/firmware/driver/racerio_timer.c ****     encoder_ic.TIM_ICPrescaler = TIM_ICPSC_DIV1,
 238              		.loc 1 97 0
 239 0038 0023     		movs	r3, #0
 240 003a ADF80A30 		strh	r3, [sp, #10]	@ movhi
  98:/home/rdu/Workspace/project_templates/mcu/stm32_ws/src/targets/racer_core/firmware/driver/racerio_timer.c ****     encoder_ic.TIM_ICFilter = 0x0,
 241              		.loc 1 98 0
 242 003e 0023     		movs	r3, #0
 243 0040 ADF80C30 		strh	r3, [sp, #12]	@ movhi
  99:/home/rdu/Workspace/project_templates/mcu/stm32_ws/src/targets/racer_core/firmware/driver/racerio_timer.c ****     encoder_ic.TIM_Channel = TIM_Channel_1,
 244              		.loc 1 99 0
 245 0044 0023     		movs	r3, #0
 246 0046 ADF80430 		strh	r3, [sp, #4]	@ movhi
 100:/home/rdu/Workspace/project_templates/mcu/stm32_ws/src/targets/racer_core/firmware/driver/racerio_timer.c ****     TIM_ICInit(TIM5, &encoder_ic);
 247              		.loc 1 100 0
 248 004a 01AB     		add	r3, sp, #4
 249 004c 1946     		mov	r1, r3
 250 004e 0848     		ldr	r0, .L8
 251 0050 FFF7FEFF 		bl	TIM_ICInit
 101:/home/rdu/Workspace/project_templates/mcu/stm32_ws/src/targets/racer_core/firmware/driver/racerio_timer.c **** 
 102:/home/rdu/Workspace/project_templates/mcu/stm32_ws/src/targets/racer_core/firmware/driver/racerio_timer.c ****     /* Enable the Capture Compare Interrupt Request */
 103:/home/rdu/Workspace/project_templates/mcu/stm32_ws/src/targets/racer_core/firmware/driver/racerio_timer.c ****     TIM_ITConfig(TIM5, TIM_IT_Trigger, ENABLE);
 252              		.loc 1 103 0
 253 0054 0122     		movs	r2, #1
 254 0056 4021     		movs	r1, #64
 255 0058 0548     		ldr	r0, .L8
 256 005a FFF7FEFF 		bl	TIM_ITConfig
 104:/home/rdu/Workspace/project_templates/mcu/stm32_ws/src/targets/racer_core/firmware/driver/racerio_timer.c ****     // TIM_ITConfig(TIM5, TIM_IT_Trigger | TIM_IT_Update, ENABLE);
 105:/home/rdu/Workspace/project_templates/mcu/stm32_ws/src/targets/racer_core/firmware/driver/racerio_timer.c ****     // TIM_ITConfig(TIM5, TIM_IT_CC1 | TIM_IT_Trigger | TIM_IT_Update, ENABLE);
 106:/home/rdu/Workspace/project_templates/mcu/stm32_ws/src/targets/racer_core/firmware/driver/racerio_timer.c **** 
 107:/home/rdu/Workspace/project_templates/mcu/stm32_ws/src/targets/racer_core/firmware/driver/racerio_timer.c ****     TIM_Cmd(TIM5, ENABLE);
 257              		.loc 1 107 0
 258 005e 0121     		movs	r1, #1
 259 0060 0348     		ldr	r0, .L8
 260 0062 FFF7FEFF 		bl	TIM_Cmd
 108:/home/rdu/Workspace/project_templates/mcu/stm32_ws/src/targets/racer_core/firmware/driver/racerio_timer.c **** }
 261              		.loc 1 108 0
 262 0066 00BF     		nop
 263 0068 05B0     		add	sp, sp, #20
 264              	.LCFI8:
 265              		.cfi_def_cfa_offset 4
 266              		@ sp needed
 267 006a 5DF804FB 		ldr	pc, [sp], #4
 268              	.L9:
 269 006e 00BF     		.align	2
 270              	.L8:
 271 0070 000C0040 		.word	1073744896
 272              		.cfi_endproc
 273              	.LFE130:
 275              		.section	.rodata
 276              		.align	2
 277              	.LC0:
 278 0000 43617074 		.ascii	"Capture: %d\012\000"
 278      7572653A 
 278      2025640A 
 278      00
 279              		.section	.text.TIM5_IRQHandler,"ax",%progbits
 280              		.align	1
 281              		.global	TIM5_IRQHandler
 282              		.syntax unified
 283              		.thumb
 284              		.thumb_func
 285              		.fpu fpv4-sp-d16
 287              	TIM5_IRQHandler:
 288              	.LFB131:
 109:/home/rdu/Workspace/project_templates/mcu/stm32_ws/src/targets/racer_core/firmware/driver/racerio_timer.c **** 
 110:/home/rdu/Workspace/project_templates/mcu/stm32_ws/src/targets/racer_core/firmware/driver/racerio_timer.c **** void TIM5_IRQHandler(void)
 111:/home/rdu/Workspace/project_templates/mcu/stm32_ws/src/targets/racer_core/firmware/driver/racerio_timer.c **** {
 289              		.loc 1 111 0
 290              		.cfi_startproc
 291              		@ args = 0, pretend = 0, frame = 0
 292              		@ frame_needed = 0, uses_anonymous_args = 0
 293 0000 08B5     		push	{r3, lr}
 294              	.LCFI9:
 295              		.cfi_def_cfa_offset 8
 296              		.cfi_offset 3, -8
 297              		.cfi_offset 14, -4
 112:/home/rdu/Workspace/project_templates/mcu/stm32_ws/src/targets/racer_core/firmware/driver/racerio_timer.c ****     // Encoder
 113:/home/rdu/Workspace/project_templates/mcu/stm32_ws/src/targets/racer_core/firmware/driver/racerio_timer.c ****     if (TIM_GetITStatus(TIM5, TIM_IT_Trigger) == SET)
 298              		.loc 1 113 0
 299 0002 4021     		movs	r1, #64
 300 0004 0A48     		ldr	r0, .L13
 301 0006 FFF7FEFF 		bl	TIM_GetITStatus
 302 000a 0346     		mov	r3, r0
 303 000c 012B     		cmp	r3, #1
 304 000e 0CD1     		bne	.L12
 114:/home/rdu/Workspace/project_templates/mcu/stm32_ws/src/targets/racer_core/firmware/driver/racerio_timer.c ****     {
 115:/home/rdu/Workspace/project_templates/mcu/stm32_ws/src/targets/racer_core/firmware/driver/racerio_timer.c ****         /* Read the current counter */
 116:/home/rdu/Workspace/project_templates/mcu/stm32_ws/src/targets/racer_core/firmware/driver/racerio_timer.c ****         TIM_ClearITPendingBit(TIM5, TIM_IT_Trigger);
 305              		.loc 1 116 0
 306 0010 4021     		movs	r1, #64
 307 0012 0748     		ldr	r0, .L13
 308 0014 FFF7FEFF 		bl	TIM_ClearITPendingBit
 117:/home/rdu/Workspace/project_templates/mcu/stm32_ws/src/targets/racer_core/firmware/driver/racerio_timer.c ****         // AutoCarUpdateHallsensorData(TIM_GetCapture1(timer));
 118:/home/rdu/Workspace/project_templates/mcu/stm32_ws/src/targets/racer_core/firmware/driver/racerio_timer.c ****         JLinkRTTPrintf(0, "Capture: %d\n", TIM_GetCapture1(TIM5));
 309              		.loc 1 118 0
 310 0018 0548     		ldr	r0, .L13
 311 001a FFF7FEFF 		bl	TIM_GetCapture1
 312 001e 0346     		mov	r3, r0
 313 0020 1A46     		mov	r2, r3
 314 0022 0449     		ldr	r1, .L13+4
 315 0024 0020     		movs	r0, #0
 316 0026 FFF7FEFF 		bl	SEGGER_RTT_printf
 317              	.L12:
 119:/home/rdu/Workspace/project_templates/mcu/stm32_ws/src/targets/racer_core/firmware/driver/racerio_timer.c ****     }
 120:/home/rdu/Workspace/project_templates/mcu/stm32_ws/src/targets/racer_core/firmware/driver/racerio_timer.c **** 
 121:/home/rdu/Workspace/project_templates/mcu/stm32_ws/src/targets/racer_core/firmware/driver/racerio_timer.c ****     // JLinkRTTPrintf(0, "TIM5 IT: %d\n", 0);
 122:/home/rdu/Workspace/project_templates/mcu/stm32_ws/src/targets/racer_core/firmware/driver/racerio_timer.c **** }...
 318              		.loc 1 122 0
 319 002a 00BF     		nop
 320 002c 08BD     		pop	{r3, pc}
 321              	.L14:
 322 002e 00BF     		.align	2
 323              	.L13:
 324 0030 000C0040 		.word	1073744896
 325 0034 00000000 		.word	.LC0
 326              		.cfi_endproc
 327              	.LFE131:
 329              		.text
 330              	.Letext0:
 331              		.file 2 "/home/rdu/Software/gcc-arm-none-eabi-7-2017-q4-major/arm-none-eabi/include/machine/_defau
 332              		.file 3 "/home/rdu/Software/gcc-arm-none-eabi-7-2017-q4-major/arm-none-eabi/include/sys/_stdint.h"
 333              		.file 4 "/home/rdu/Workspace/project_templates/mcu/stm32_ws/src/libraries/CMSIS/CMSIS_STM32F4/Incl
 334              		.file 5 "/home/rdu/Workspace/project_templates/mcu/stm32_ws/src/libraries/CMSIS/CMSIS_STM32F4/Devi
 335              		.file 6 "/home/rdu/Workspace/project_templates/mcu/stm32_ws/src/libraries/CMSIS/CMSIS_STM32F4/Devi
 336              		.file 7 "/home/rdu/Workspace/project_templates/mcu/stm32_ws/src/libraries/STM32F4xx_StdPeriph_Driv
 337              		.file 8 "/home/rdu/Workspace/project_templates/mcu/stm32_ws/src/libraries/STM32F4xx_StdPeriph_Driv
 338              		.file 9 "/home/rdu/Workspace/project_templates/mcu/stm32_ws/src/libraries/STM32F4xx_StdPeriph_Driv
 339              		.file 10 "/home/rdu/Workspace/project_templates/mcu/stm32_ws/src/modules/rtt/SEGGER_RTT.h"