   1              		.cpu cortex-m4
   2              		.eabi_attribute 27, 1
   3              		.eabi_attribute 28, 1
   4              		.eabi_attribute 23, 1
   5              		.eabi_attribute 24, 1
   6              		.eabi_attribute 25, 1
   7              		.eabi_attribute 26, 1
   8              		.eabi_attribute 30, 6
   9              		.eabi_attribute 34, 1
  10              		.eabi_attribute 18, 4
  11              		.file	"SEGGER_RTT.c"
  12              		.text
  13              	.Ltext0:
  14              		.cfi_sections	.debug_frame
  15              		.section	.data._aTerminalId,"aw",%progbits
  16              		.align	2
  19              	_aTerminalId:
  20 0000 30       		.byte	48
  21 0001 31       		.byte	49
  22 0002 32       		.byte	50
  23 0003 33       		.byte	51
  24 0004 34       		.byte	52
  25 0005 35       		.byte	53
  26 0006 36       		.byte	54
  27 0007 37       		.byte	55
  28 0008 38       		.byte	56
  29 0009 39       		.byte	57
  30 000a 41       		.byte	65
  31 000b 42       		.byte	66
  32 000c 43       		.byte	67
  33 000d 44       		.byte	68
  34 000e 45       		.byte	69
  35 000f 46       		.byte	70
  36              		.comm	_SEGGER_RTT,168,4
  37              		.section	.bss._acUpBuffer,"aw",%nobits
  38              		.align	2
  41              	_acUpBuffer:
  42 0000 00000000 		.space	1024
  42      00000000 
  42      00000000 
  42      00000000 
  42      00000000 
  43              		.section	.bss._acDownBuffer,"aw",%nobits
  44              		.align	2
  47              	_acDownBuffer:
  48 0000 00000000 		.space	16
  48      00000000 
  48      00000000 
  48      00000000 
  49              		.section	.bss._ActiveTerminal,"aw",%nobits
  52              	_ActiveTerminal:
  53 0000 00       		.space	1
  54              		.section	.rodata
  55              		.align	2
  56              	.LC0:
  57 0000 5465726D 		.ascii	"Terminal\000"
  57      696E616C 
  57      00
  58 0009 000000   		.align	2
  59              	.LC1:
  60 000c 52545400 		.ascii	"RTT\000"
  61              		.align	2
  62              	.LC2:
  63 0010 53454747 		.ascii	"SEGGER\000"
  63      455200
  64              		.section	.text._DoInit,"ax",%progbits
  65              		.align	1
  66              		.syntax unified
  67              		.thumb
  68              		.thumb_func
  69              		.fpu fpv4-sp-d16
  71              	_DoInit:
  72              	.LFB0:
  73              		.file 1 "/home/rdu/Workspace/project_templates/mcu/stm32_ws/src/modules/rtt/SEGGER_RTT.c"
   1:/home/rdu/Workspace/project_templates/mcu/stm32_ws/src/modules/rtt/SEGGER_RTT.c **** /*********************************************************************
   2:/home/rdu/Workspace/project_templates/mcu/stm32_ws/src/modules/rtt/SEGGER_RTT.c **** *               SEGGER MICROCONTROLLER GmbH & Co. KG                 *
   3:/home/rdu/Workspace/project_templates/mcu/stm32_ws/src/modules/rtt/SEGGER_RTT.c **** *       Solutions for real time microcontroller applications         *
   4:/home/rdu/Workspace/project_templates/mcu/stm32_ws/src/modules/rtt/SEGGER_RTT.c **** **********************************************************************
   5:/home/rdu/Workspace/project_templates/mcu/stm32_ws/src/modules/rtt/SEGGER_RTT.c **** *                                                                    *
   6:/home/rdu/Workspace/project_templates/mcu/stm32_ws/src/modules/rtt/SEGGER_RTT.c **** *       (c) 2014 - 2016  SEGGER Microcontroller GmbH & Co. KG        *
   7:/home/rdu/Workspace/project_templates/mcu/stm32_ws/src/modules/rtt/SEGGER_RTT.c **** *                                                                    *
   8:/home/rdu/Workspace/project_templates/mcu/stm32_ws/src/modules/rtt/SEGGER_RTT.c **** *       www.segger.com     Support: support@segger.com               *
   9:/home/rdu/Workspace/project_templates/mcu/stm32_ws/src/modules/rtt/SEGGER_RTT.c **** *                                                                    *
  10:/home/rdu/Workspace/project_templates/mcu/stm32_ws/src/modules/rtt/SEGGER_RTT.c **** **********************************************************************
  11:/home/rdu/Workspace/project_templates/mcu/stm32_ws/src/modules/rtt/SEGGER_RTT.c **** *                                                                    *
  12:/home/rdu/Workspace/project_templates/mcu/stm32_ws/src/modules/rtt/SEGGER_RTT.c **** *       SEGGER RTT * Real Time Transfer for embedded targets         *
  13:/home/rdu/Workspace/project_templates/mcu/stm32_ws/src/modules/rtt/SEGGER_RTT.c **** *                                                                    *
  14:/home/rdu/Workspace/project_templates/mcu/stm32_ws/src/modules/rtt/SEGGER_RTT.c **** **********************************************************************
  15:/home/rdu/Workspace/project_templates/mcu/stm32_ws/src/modules/rtt/SEGGER_RTT.c **** *                                                                    *
  16:/home/rdu/Workspace/project_templates/mcu/stm32_ws/src/modules/rtt/SEGGER_RTT.c **** * All rights reserved.                                               *
  17:/home/rdu/Workspace/project_templates/mcu/stm32_ws/src/modules/rtt/SEGGER_RTT.c **** *                                                                    *
  18:/home/rdu/Workspace/project_templates/mcu/stm32_ws/src/modules/rtt/SEGGER_RTT.c **** * SEGGER strongly recommends to not make any changes                 *
  19:/home/rdu/Workspace/project_templates/mcu/stm32_ws/src/modules/rtt/SEGGER_RTT.c **** * to or modify the source code of this software in order to stay     *
  20:/home/rdu/Workspace/project_templates/mcu/stm32_ws/src/modules/rtt/SEGGER_RTT.c **** * compatible with the RTT protocol and J-Link.                       *
  21:/home/rdu/Workspace/project_templates/mcu/stm32_ws/src/modules/rtt/SEGGER_RTT.c **** *                                                                    *
  22:/home/rdu/Workspace/project_templates/mcu/stm32_ws/src/modules/rtt/SEGGER_RTT.c **** * Redistribution and use in source and binary forms, with or         *
  23:/home/rdu/Workspace/project_templates/mcu/stm32_ws/src/modules/rtt/SEGGER_RTT.c **** * without modification, are permitted provided that the following    *
  24:/home/rdu/Workspace/project_templates/mcu/stm32_ws/src/modules/rtt/SEGGER_RTT.c **** * conditions are met:                                                *
  25:/home/rdu/Workspace/project_templates/mcu/stm32_ws/src/modules/rtt/SEGGER_RTT.c **** *                                                                    *
  26:/home/rdu/Workspace/project_templates/mcu/stm32_ws/src/modules/rtt/SEGGER_RTT.c **** * o Redistributions of source code must retain the above copyright   *
  27:/home/rdu/Workspace/project_templates/mcu/stm32_ws/src/modules/rtt/SEGGER_RTT.c **** *   notice, this list of conditions and the following disclaimer.    *
  28:/home/rdu/Workspace/project_templates/mcu/stm32_ws/src/modules/rtt/SEGGER_RTT.c **** *                                                                    *
  29:/home/rdu/Workspace/project_templates/mcu/stm32_ws/src/modules/rtt/SEGGER_RTT.c **** * o Redistributions in binary form must reproduce the above          *
  30:/home/rdu/Workspace/project_templates/mcu/stm32_ws/src/modules/rtt/SEGGER_RTT.c **** *   copyright notice, this list of conditions and the following      *
  31:/home/rdu/Workspace/project_templates/mcu/stm32_ws/src/modules/rtt/SEGGER_RTT.c **** *   disclaimer in the documentation and/or other materials provided  *
  32:/home/rdu/Workspace/project_templates/mcu/stm32_ws/src/modules/rtt/SEGGER_RTT.c **** *   with the distribution.                                           *
  33:/home/rdu/Workspace/project_templates/mcu/stm32_ws/src/modules/rtt/SEGGER_RTT.c **** *                                                                    *
  34:/home/rdu/Workspace/project_templates/mcu/stm32_ws/src/modules/rtt/SEGGER_RTT.c **** * o Neither the name of SEGGER Microcontroller GmbH & Co. KG         *
  35:/home/rdu/Workspace/project_templates/mcu/stm32_ws/src/modules/rtt/SEGGER_RTT.c **** *   nor the names of its contributors may be used to endorse or      *
  36:/home/rdu/Workspace/project_templates/mcu/stm32_ws/src/modules/rtt/SEGGER_RTT.c **** *   promote products derived from this software without specific     *
  37:/home/rdu/Workspace/project_templates/mcu/stm32_ws/src/modules/rtt/SEGGER_RTT.c **** *   prior written permission.                                        *
  38:/home/rdu/Workspace/project_templates/mcu/stm32_ws/src/modules/rtt/SEGGER_RTT.c **** *                                                                    *
  39:/home/rdu/Workspace/project_templates/mcu/stm32_ws/src/modules/rtt/SEGGER_RTT.c **** * THIS SOFTWARE IS PROVIDED BY THE COPYRIGHT HOLDERS AND             *
  40:/home/rdu/Workspace/project_templates/mcu/stm32_ws/src/modules/rtt/SEGGER_RTT.c **** * CONTRIBUTORS "AS IS" AND ANY EXPRESS OR IMPLIED WARRANTIES,        *
  41:/home/rdu/Workspace/project_templates/mcu/stm32_ws/src/modules/rtt/SEGGER_RTT.c **** * INCLUDING, BUT NOT LIMITED TO, THE IMPLIED WARRANTIES OF           *
  42:/home/rdu/Workspace/project_templates/mcu/stm32_ws/src/modules/rtt/SEGGER_RTT.c **** * MERCHANTABILITY AND FITNESS FOR A PARTICULAR PURPOSE ARE           *
  43:/home/rdu/Workspace/project_templates/mcu/stm32_ws/src/modules/rtt/SEGGER_RTT.c **** * DISCLAIMED. IN NO EVENT SHALL SEGGER Microcontroller BE LIABLE FOR *
  44:/home/rdu/Workspace/project_templates/mcu/stm32_ws/src/modules/rtt/SEGGER_RTT.c **** * ANY DIRECT, INDIRECT, INCIDENTAL, SPECIAL, EXEMPLARY, OR           *
  45:/home/rdu/Workspace/project_templates/mcu/stm32_ws/src/modules/rtt/SEGGER_RTT.c **** * CONSEQUENTIAL DAMAGES (INCLUDING, BUT NOT LIMITED TO, PROCUREMENT  *
  46:/home/rdu/Workspace/project_templates/mcu/stm32_ws/src/modules/rtt/SEGGER_RTT.c **** * OF SUBSTITUTE GOODS OR SERVICES; LOSS OF USE, DATA, OR PROFITS;    *
  47:/home/rdu/Workspace/project_templates/mcu/stm32_ws/src/modules/rtt/SEGGER_RTT.c **** * OR BUSINESS INTERRUPTION) HOWEVER CAUSED AND ON ANY THEORY OF      *
  48:/home/rdu/Workspace/project_templates/mcu/stm32_ws/src/modules/rtt/SEGGER_RTT.c **** * LIABILITY, WHETHER IN CONTRACT, STRICT LIABILITY, OR TORT          *
  49:/home/rdu/Workspace/project_templates/mcu/stm32_ws/src/modules/rtt/SEGGER_RTT.c **** * (INCLUDING NEGLIGENCE OR OTHERWISE) ARISING IN ANY WAY OUT OF THE  *
  50:/home/rdu/Workspace/project_templates/mcu/stm32_ws/src/modules/rtt/SEGGER_RTT.c **** * USE OF THIS SOFTWARE, EVEN IF ADVISED OF THE POSSIBILITY OF SUCH   *
  51:/home/rdu/Workspace/project_templates/mcu/stm32_ws/src/modules/rtt/SEGGER_RTT.c **** * DAMAGE.                                                            *
  52:/home/rdu/Workspace/project_templates/mcu/stm32_ws/src/modules/rtt/SEGGER_RTT.c **** *                                                                    *
  53:/home/rdu/Workspace/project_templates/mcu/stm32_ws/src/modules/rtt/SEGGER_RTT.c **** **********************************************************************
  54:/home/rdu/Workspace/project_templates/mcu/stm32_ws/src/modules/rtt/SEGGER_RTT.c **** ---------------------------END-OF-HEADER------------------------------
  55:/home/rdu/Workspace/project_templates/mcu/stm32_ws/src/modules/rtt/SEGGER_RTT.c **** File    : SEGGER_RTT.c
  56:/home/rdu/Workspace/project_templates/mcu/stm32_ws/src/modules/rtt/SEGGER_RTT.c **** Purpose : Implementation of SEGGER real-time transfer (RTT) which
  57:/home/rdu/Workspace/project_templates/mcu/stm32_ws/src/modules/rtt/SEGGER_RTT.c ****           allows real-time communication on targets which support
  58:/home/rdu/Workspace/project_templates/mcu/stm32_ws/src/modules/rtt/SEGGER_RTT.c ****           debugger memory accesses while the CPU is running.
  59:/home/rdu/Workspace/project_templates/mcu/stm32_ws/src/modules/rtt/SEGGER_RTT.c **** Revision: $Rev: 4351 $
  60:/home/rdu/Workspace/project_templates/mcu/stm32_ws/src/modules/rtt/SEGGER_RTT.c **** 
  61:/home/rdu/Workspace/project_templates/mcu/stm32_ws/src/modules/rtt/SEGGER_RTT.c **** Additional information:
  62:/home/rdu/Workspace/project_templates/mcu/stm32_ws/src/modules/rtt/SEGGER_RTT.c ****           Type "int" is assumed to be 32-bits in size
  63:/home/rdu/Workspace/project_templates/mcu/stm32_ws/src/modules/rtt/SEGGER_RTT.c ****           H->T    Host to target communication
  64:/home/rdu/Workspace/project_templates/mcu/stm32_ws/src/modules/rtt/SEGGER_RTT.c ****           T->H    Target to host communication
  65:/home/rdu/Workspace/project_templates/mcu/stm32_ws/src/modules/rtt/SEGGER_RTT.c **** 
  66:/home/rdu/Workspace/project_templates/mcu/stm32_ws/src/modules/rtt/SEGGER_RTT.c ****           RTT channel 0 is always present and reserved for Terminal usage.
  67:/home/rdu/Workspace/project_templates/mcu/stm32_ws/src/modules/rtt/SEGGER_RTT.c ****           Name is fixed to "Terminal"
  68:/home/rdu/Workspace/project_templates/mcu/stm32_ws/src/modules/rtt/SEGGER_RTT.c **** 
  69:/home/rdu/Workspace/project_templates/mcu/stm32_ws/src/modules/rtt/SEGGER_RTT.c ****           Effective buffer size: SizeOfBuffer - 1
  70:/home/rdu/Workspace/project_templates/mcu/stm32_ws/src/modules/rtt/SEGGER_RTT.c **** 
  71:/home/rdu/Workspace/project_templates/mcu/stm32_ws/src/modules/rtt/SEGGER_RTT.c ****           WrOff == RdOff:       Buffer is empty
  72:/home/rdu/Workspace/project_templates/mcu/stm32_ws/src/modules/rtt/SEGGER_RTT.c ****           WrOff == (RdOff - 1): Buffer is full
  73:/home/rdu/Workspace/project_templates/mcu/stm32_ws/src/modules/rtt/SEGGER_RTT.c ****           WrOff >  RdOff:       Free space includes wrap-around
  74:/home/rdu/Workspace/project_templates/mcu/stm32_ws/src/modules/rtt/SEGGER_RTT.c ****           WrOff <  RdOff:       Used space includes wrap-around
  75:/home/rdu/Workspace/project_templates/mcu/stm32_ws/src/modules/rtt/SEGGER_RTT.c ****           (WrOff == (SizeOfBuffer - 1)) && (RdOff == 0):  
  76:/home/rdu/Workspace/project_templates/mcu/stm32_ws/src/modules/rtt/SEGGER_RTT.c ****                                 Buffer full and wrap-around after next byte
  77:/home/rdu/Workspace/project_templates/mcu/stm32_ws/src/modules/rtt/SEGGER_RTT.c **** 
  78:/home/rdu/Workspace/project_templates/mcu/stm32_ws/src/modules/rtt/SEGGER_RTT.c **** 
  79:/home/rdu/Workspace/project_templates/mcu/stm32_ws/src/modules/rtt/SEGGER_RTT.c **** ----------------------------------------------------------------------
  80:/home/rdu/Workspace/project_templates/mcu/stm32_ws/src/modules/rtt/SEGGER_RTT.c **** */
  81:/home/rdu/Workspace/project_templates/mcu/stm32_ws/src/modules/rtt/SEGGER_RTT.c **** 
  82:/home/rdu/Workspace/project_templates/mcu/stm32_ws/src/modules/rtt/SEGGER_RTT.c **** #include "SEGGER_RTT.h"
  83:/home/rdu/Workspace/project_templates/mcu/stm32_ws/src/modules/rtt/SEGGER_RTT.c **** 
  84:/home/rdu/Workspace/project_templates/mcu/stm32_ws/src/modules/rtt/SEGGER_RTT.c **** #include <string.h>                 // for memcpy
  85:/home/rdu/Workspace/project_templates/mcu/stm32_ws/src/modules/rtt/SEGGER_RTT.c **** 
  86:/home/rdu/Workspace/project_templates/mcu/stm32_ws/src/modules/rtt/SEGGER_RTT.c **** /*********************************************************************
  87:/home/rdu/Workspace/project_templates/mcu/stm32_ws/src/modules/rtt/SEGGER_RTT.c **** *
  88:/home/rdu/Workspace/project_templates/mcu/stm32_ws/src/modules/rtt/SEGGER_RTT.c **** *       Configuration, default values
  89:/home/rdu/Workspace/project_templates/mcu/stm32_ws/src/modules/rtt/SEGGER_RTT.c **** *
  90:/home/rdu/Workspace/project_templates/mcu/stm32_ws/src/modules/rtt/SEGGER_RTT.c **** **********************************************************************
  91:/home/rdu/Workspace/project_templates/mcu/stm32_ws/src/modules/rtt/SEGGER_RTT.c **** */
  92:/home/rdu/Workspace/project_templates/mcu/stm32_ws/src/modules/rtt/SEGGER_RTT.c **** 
  93:/home/rdu/Workspace/project_templates/mcu/stm32_ws/src/modules/rtt/SEGGER_RTT.c **** #ifndef   BUFFER_SIZE_UP
  94:/home/rdu/Workspace/project_templates/mcu/stm32_ws/src/modules/rtt/SEGGER_RTT.c ****   #define BUFFER_SIZE_UP                                  1024  // Size of the buffer for terminal 
  95:/home/rdu/Workspace/project_templates/mcu/stm32_ws/src/modules/rtt/SEGGER_RTT.c **** #endif
  96:/home/rdu/Workspace/project_templates/mcu/stm32_ws/src/modules/rtt/SEGGER_RTT.c **** 
  97:/home/rdu/Workspace/project_templates/mcu/stm32_ws/src/modules/rtt/SEGGER_RTT.c **** #ifndef   BUFFER_SIZE_DOWN
  98:/home/rdu/Workspace/project_templates/mcu/stm32_ws/src/modules/rtt/SEGGER_RTT.c ****   #define BUFFER_SIZE_DOWN                                16    // Size of the buffer for terminal 
  99:/home/rdu/Workspace/project_templates/mcu/stm32_ws/src/modules/rtt/SEGGER_RTT.c **** #endif
 100:/home/rdu/Workspace/project_templates/mcu/stm32_ws/src/modules/rtt/SEGGER_RTT.c **** 
 101:/home/rdu/Workspace/project_templates/mcu/stm32_ws/src/modules/rtt/SEGGER_RTT.c **** #ifndef   SEGGER_RTT_MAX_NUM_UP_BUFFERS
 102:/home/rdu/Workspace/project_templates/mcu/stm32_ws/src/modules/rtt/SEGGER_RTT.c ****   #define SEGGER_RTT_MAX_NUM_UP_BUFFERS                    2    // Number of up-buffers (T->H) avai
 103:/home/rdu/Workspace/project_templates/mcu/stm32_ws/src/modules/rtt/SEGGER_RTT.c **** #endif
 104:/home/rdu/Workspace/project_templates/mcu/stm32_ws/src/modules/rtt/SEGGER_RTT.c **** 
 105:/home/rdu/Workspace/project_templates/mcu/stm32_ws/src/modules/rtt/SEGGER_RTT.c **** #ifndef   SEGGER_RTT_MAX_NUM_DOWN_BUFFERS
 106:/home/rdu/Workspace/project_templates/mcu/stm32_ws/src/modules/rtt/SEGGER_RTT.c ****   #define SEGGER_RTT_MAX_NUM_DOWN_BUFFERS                  2    // Number of down-buffers (H->T) av
 107:/home/rdu/Workspace/project_templates/mcu/stm32_ws/src/modules/rtt/SEGGER_RTT.c **** #endif
 108:/home/rdu/Workspace/project_templates/mcu/stm32_ws/src/modules/rtt/SEGGER_RTT.c **** 
 109:/home/rdu/Workspace/project_templates/mcu/stm32_ws/src/modules/rtt/SEGGER_RTT.c **** #ifndef SEGGER_RTT_BUFFER_SECTION
 110:/home/rdu/Workspace/project_templates/mcu/stm32_ws/src/modules/rtt/SEGGER_RTT.c ****   #if defined(SEGGER_RTT_SECTION)
 111:/home/rdu/Workspace/project_templates/mcu/stm32_ws/src/modules/rtt/SEGGER_RTT.c ****     #define SEGGER_RTT_BUFFER_SECTION SEGGER_RTT_SECTION
 112:/home/rdu/Workspace/project_templates/mcu/stm32_ws/src/modules/rtt/SEGGER_RTT.c ****   #endif
 113:/home/rdu/Workspace/project_templates/mcu/stm32_ws/src/modules/rtt/SEGGER_RTT.c **** #endif
 114:/home/rdu/Workspace/project_templates/mcu/stm32_ws/src/modules/rtt/SEGGER_RTT.c **** 
 115:/home/rdu/Workspace/project_templates/mcu/stm32_ws/src/modules/rtt/SEGGER_RTT.c **** #ifndef   SEGGER_RTT_ALIGNMENT
 116:/home/rdu/Workspace/project_templates/mcu/stm32_ws/src/modules/rtt/SEGGER_RTT.c ****   #define SEGGER_RTT_ALIGNMENT                            0
 117:/home/rdu/Workspace/project_templates/mcu/stm32_ws/src/modules/rtt/SEGGER_RTT.c **** #endif
 118:/home/rdu/Workspace/project_templates/mcu/stm32_ws/src/modules/rtt/SEGGER_RTT.c **** 
 119:/home/rdu/Workspace/project_templates/mcu/stm32_ws/src/modules/rtt/SEGGER_RTT.c **** #ifndef   SEGGER_RTT_BUFFER_ALIGNMENT
 120:/home/rdu/Workspace/project_templates/mcu/stm32_ws/src/modules/rtt/SEGGER_RTT.c ****   #define SEGGER_RTT_BUFFER_ALIGNMENT                     0
 121:/home/rdu/Workspace/project_templates/mcu/stm32_ws/src/modules/rtt/SEGGER_RTT.c **** #endif
 122:/home/rdu/Workspace/project_templates/mcu/stm32_ws/src/modules/rtt/SEGGER_RTT.c **** 
 123:/home/rdu/Workspace/project_templates/mcu/stm32_ws/src/modules/rtt/SEGGER_RTT.c **** #ifndef   SEGGER_RTT_MODE_DEFAULT
 124:/home/rdu/Workspace/project_templates/mcu/stm32_ws/src/modules/rtt/SEGGER_RTT.c ****   #define SEGGER_RTT_MODE_DEFAULT                         SEGGER_RTT_MODE_NO_BLOCK_SKIP
 125:/home/rdu/Workspace/project_templates/mcu/stm32_ws/src/modules/rtt/SEGGER_RTT.c **** #endif
 126:/home/rdu/Workspace/project_templates/mcu/stm32_ws/src/modules/rtt/SEGGER_RTT.c **** 
 127:/home/rdu/Workspace/project_templates/mcu/stm32_ws/src/modules/rtt/SEGGER_RTT.c **** #ifndef   SEGGER_RTT_LOCK
 128:/home/rdu/Workspace/project_templates/mcu/stm32_ws/src/modules/rtt/SEGGER_RTT.c ****   #define SEGGER_RTT_LOCK()
 129:/home/rdu/Workspace/project_templates/mcu/stm32_ws/src/modules/rtt/SEGGER_RTT.c **** #endif
 130:/home/rdu/Workspace/project_templates/mcu/stm32_ws/src/modules/rtt/SEGGER_RTT.c **** 
 131:/home/rdu/Workspace/project_templates/mcu/stm32_ws/src/modules/rtt/SEGGER_RTT.c **** #ifndef   SEGGER_RTT_UNLOCK
 132:/home/rdu/Workspace/project_templates/mcu/stm32_ws/src/modules/rtt/SEGGER_RTT.c ****   #define SEGGER_RTT_UNLOCK()
 133:/home/rdu/Workspace/project_templates/mcu/stm32_ws/src/modules/rtt/SEGGER_RTT.c **** #endif
 134:/home/rdu/Workspace/project_templates/mcu/stm32_ws/src/modules/rtt/SEGGER_RTT.c **** 
 135:/home/rdu/Workspace/project_templates/mcu/stm32_ws/src/modules/rtt/SEGGER_RTT.c **** #ifndef   STRLEN
 136:/home/rdu/Workspace/project_templates/mcu/stm32_ws/src/modules/rtt/SEGGER_RTT.c ****   #define STRLEN(a)                                       strlen((a))
 137:/home/rdu/Workspace/project_templates/mcu/stm32_ws/src/modules/rtt/SEGGER_RTT.c **** #endif
 138:/home/rdu/Workspace/project_templates/mcu/stm32_ws/src/modules/rtt/SEGGER_RTT.c **** 
 139:/home/rdu/Workspace/project_templates/mcu/stm32_ws/src/modules/rtt/SEGGER_RTT.c **** #ifndef   MEMCPY
 140:/home/rdu/Workspace/project_templates/mcu/stm32_ws/src/modules/rtt/SEGGER_RTT.c ****   #define MEMCPY(pDest, pSrc, NumBytes)                   memcpy((pDest), (pSrc), (NumBytes))
 141:/home/rdu/Workspace/project_templates/mcu/stm32_ws/src/modules/rtt/SEGGER_RTT.c **** #endif
 142:/home/rdu/Workspace/project_templates/mcu/stm32_ws/src/modules/rtt/SEGGER_RTT.c **** 
 143:/home/rdu/Workspace/project_templates/mcu/stm32_ws/src/modules/rtt/SEGGER_RTT.c **** #ifndef   MIN
 144:/home/rdu/Workspace/project_templates/mcu/stm32_ws/src/modules/rtt/SEGGER_RTT.c ****   #define MIN(a, b)         (((a) < (b)) ? (a) : (b))
 145:/home/rdu/Workspace/project_templates/mcu/stm32_ws/src/modules/rtt/SEGGER_RTT.c **** #endif
 146:/home/rdu/Workspace/project_templates/mcu/stm32_ws/src/modules/rtt/SEGGER_RTT.c **** 
 147:/home/rdu/Workspace/project_templates/mcu/stm32_ws/src/modules/rtt/SEGGER_RTT.c **** #ifndef   MAX
 148:/home/rdu/Workspace/project_templates/mcu/stm32_ws/src/modules/rtt/SEGGER_RTT.c ****   #define MAX(a, b)         (((a) > (b)) ? (a) : (b))
 149:/home/rdu/Workspace/project_templates/mcu/stm32_ws/src/modules/rtt/SEGGER_RTT.c **** #endif
 150:/home/rdu/Workspace/project_templates/mcu/stm32_ws/src/modules/rtt/SEGGER_RTT.c **** //
 151:/home/rdu/Workspace/project_templates/mcu/stm32_ws/src/modules/rtt/SEGGER_RTT.c **** // For some environments, NULL may not be defined until certain headers are included
 152:/home/rdu/Workspace/project_templates/mcu/stm32_ws/src/modules/rtt/SEGGER_RTT.c **** //
 153:/home/rdu/Workspace/project_templates/mcu/stm32_ws/src/modules/rtt/SEGGER_RTT.c **** #ifndef NULL
 154:/home/rdu/Workspace/project_templates/mcu/stm32_ws/src/modules/rtt/SEGGER_RTT.c ****   #define NULL 0
 155:/home/rdu/Workspace/project_templates/mcu/stm32_ws/src/modules/rtt/SEGGER_RTT.c **** #endif
 156:/home/rdu/Workspace/project_templates/mcu/stm32_ws/src/modules/rtt/SEGGER_RTT.c **** 
 157:/home/rdu/Workspace/project_templates/mcu/stm32_ws/src/modules/rtt/SEGGER_RTT.c **** /*********************************************************************
 158:/home/rdu/Workspace/project_templates/mcu/stm32_ws/src/modules/rtt/SEGGER_RTT.c **** *
 159:/home/rdu/Workspace/project_templates/mcu/stm32_ws/src/modules/rtt/SEGGER_RTT.c **** *       Defines, fixed
 160:/home/rdu/Workspace/project_templates/mcu/stm32_ws/src/modules/rtt/SEGGER_RTT.c **** *
 161:/home/rdu/Workspace/project_templates/mcu/stm32_ws/src/modules/rtt/SEGGER_RTT.c **** **********************************************************************
 162:/home/rdu/Workspace/project_templates/mcu/stm32_ws/src/modules/rtt/SEGGER_RTT.c **** */
 163:/home/rdu/Workspace/project_templates/mcu/stm32_ws/src/modules/rtt/SEGGER_RTT.c **** #if (defined __ICCARM__) || (defined __ICCRX__)
 164:/home/rdu/Workspace/project_templates/mcu/stm32_ws/src/modules/rtt/SEGGER_RTT.c ****   #define RTT_PRAGMA(P) _Pragma(#P)
 165:/home/rdu/Workspace/project_templates/mcu/stm32_ws/src/modules/rtt/SEGGER_RTT.c **** #endif
 166:/home/rdu/Workspace/project_templates/mcu/stm32_ws/src/modules/rtt/SEGGER_RTT.c **** 
 167:/home/rdu/Workspace/project_templates/mcu/stm32_ws/src/modules/rtt/SEGGER_RTT.c **** #if SEGGER_RTT_ALIGNMENT || SEGGER_RTT_BUFFER_ALIGNMENT
 168:/home/rdu/Workspace/project_templates/mcu/stm32_ws/src/modules/rtt/SEGGER_RTT.c ****   #if (defined __GNUC__)
 169:/home/rdu/Workspace/project_templates/mcu/stm32_ws/src/modules/rtt/SEGGER_RTT.c ****     #define SEGGER_RTT_ALIGN(Var, Alignment) Var __attribute__ ((aligned (Alignment)))
 170:/home/rdu/Workspace/project_templates/mcu/stm32_ws/src/modules/rtt/SEGGER_RTT.c ****   #elif (defined __ICCARM__) || (defined __ICCRX__)
 171:/home/rdu/Workspace/project_templates/mcu/stm32_ws/src/modules/rtt/SEGGER_RTT.c ****     #define PRAGMA(A) _Pragma(#A)
 172:/home/rdu/Workspace/project_templates/mcu/stm32_ws/src/modules/rtt/SEGGER_RTT.c **** #define SEGGER_RTT_ALIGN(Var, Alignment) RTT_PRAGMA(data_alignment=Alignment) \
 173:/home/rdu/Workspace/project_templates/mcu/stm32_ws/src/modules/rtt/SEGGER_RTT.c ****                                   Var
 174:/home/rdu/Workspace/project_templates/mcu/stm32_ws/src/modules/rtt/SEGGER_RTT.c ****   #elif (defined __CC_ARM__)
 175:/home/rdu/Workspace/project_templates/mcu/stm32_ws/src/modules/rtt/SEGGER_RTT.c ****     #define SEGGER_RTT_ALIGN(Var, Alignment) Var __attribute__ ((aligned (Alignment)))
 176:/home/rdu/Workspace/project_templates/mcu/stm32_ws/src/modules/rtt/SEGGER_RTT.c ****   #else
 177:/home/rdu/Workspace/project_templates/mcu/stm32_ws/src/modules/rtt/SEGGER_RTT.c ****     #error "Alignment not supported for this compiler."
 178:/home/rdu/Workspace/project_templates/mcu/stm32_ws/src/modules/rtt/SEGGER_RTT.c ****   #endif
 179:/home/rdu/Workspace/project_templates/mcu/stm32_ws/src/modules/rtt/SEGGER_RTT.c **** #else
 180:/home/rdu/Workspace/project_templates/mcu/stm32_ws/src/modules/rtt/SEGGER_RTT.c ****   #define SEGGER_RTT_ALIGN(Var, Alignment) Var
 181:/home/rdu/Workspace/project_templates/mcu/stm32_ws/src/modules/rtt/SEGGER_RTT.c **** #endif
 182:/home/rdu/Workspace/project_templates/mcu/stm32_ws/src/modules/rtt/SEGGER_RTT.c **** 
 183:/home/rdu/Workspace/project_templates/mcu/stm32_ws/src/modules/rtt/SEGGER_RTT.c **** #if defined(SEGGER_RTT_SECTION) || defined (SEGGER_RTT_BUFFER_SECTION)
 184:/home/rdu/Workspace/project_templates/mcu/stm32_ws/src/modules/rtt/SEGGER_RTT.c ****   #if (defined __GNUC__)
 185:/home/rdu/Workspace/project_templates/mcu/stm32_ws/src/modules/rtt/SEGGER_RTT.c ****     #define SEGGER_RTT_PUT_SECTION(Var, Section) __attribute__ ((section (Section))) Var
 186:/home/rdu/Workspace/project_templates/mcu/stm32_ws/src/modules/rtt/SEGGER_RTT.c ****   #elif (defined __ICCARM__) || (defined __ICCRX__)
 187:/home/rdu/Workspace/project_templates/mcu/stm32_ws/src/modules/rtt/SEGGER_RTT.c **** #define SEGGER_RTT_PUT_SECTION(Var, Section) RTT_PRAGMA(location=Section) \
 188:/home/rdu/Workspace/project_templates/mcu/stm32_ws/src/modules/rtt/SEGGER_RTT.c ****                                         Var
 189:/home/rdu/Workspace/project_templates/mcu/stm32_ws/src/modules/rtt/SEGGER_RTT.c ****   #elif (defined __CC_ARM__)
 190:/home/rdu/Workspace/project_templates/mcu/stm32_ws/src/modules/rtt/SEGGER_RTT.c ****     #define SEGGER_RTT_PUT_SECTION(Var, Section) __attribute__ ((section (Section), zero_init))  Va
 191:/home/rdu/Workspace/project_templates/mcu/stm32_ws/src/modules/rtt/SEGGER_RTT.c ****   #else
 192:/home/rdu/Workspace/project_templates/mcu/stm32_ws/src/modules/rtt/SEGGER_RTT.c ****     #error "Section placement not supported for this compiler."
 193:/home/rdu/Workspace/project_templates/mcu/stm32_ws/src/modules/rtt/SEGGER_RTT.c ****   #endif
 194:/home/rdu/Workspace/project_templates/mcu/stm32_ws/src/modules/rtt/SEGGER_RTT.c **** #else
 195:/home/rdu/Workspace/project_templates/mcu/stm32_ws/src/modules/rtt/SEGGER_RTT.c ****   #define SEGGER_RTT_PUT_SECTION(Var, Section) Var
 196:/home/rdu/Workspace/project_templates/mcu/stm32_ws/src/modules/rtt/SEGGER_RTT.c **** #endif
 197:/home/rdu/Workspace/project_templates/mcu/stm32_ws/src/modules/rtt/SEGGER_RTT.c **** 
 198:/home/rdu/Workspace/project_templates/mcu/stm32_ws/src/modules/rtt/SEGGER_RTT.c **** 
 199:/home/rdu/Workspace/project_templates/mcu/stm32_ws/src/modules/rtt/SEGGER_RTT.c **** #if SEGGER_RTT_ALIGNMENT
 200:/home/rdu/Workspace/project_templates/mcu/stm32_ws/src/modules/rtt/SEGGER_RTT.c ****   #define SEGGER_RTT_CB_ALIGN(Var)  SEGGER_RTT_ALIGN(Var, SEGGER_RTT_ALIGNMENT)
 201:/home/rdu/Workspace/project_templates/mcu/stm32_ws/src/modules/rtt/SEGGER_RTT.c **** #else
 202:/home/rdu/Workspace/project_templates/mcu/stm32_ws/src/modules/rtt/SEGGER_RTT.c ****   #define SEGGER_RTT_CB_ALIGN(Var)  Var
 203:/home/rdu/Workspace/project_templates/mcu/stm32_ws/src/modules/rtt/SEGGER_RTT.c **** #endif
 204:/home/rdu/Workspace/project_templates/mcu/stm32_ws/src/modules/rtt/SEGGER_RTT.c **** 
 205:/home/rdu/Workspace/project_templates/mcu/stm32_ws/src/modules/rtt/SEGGER_RTT.c **** #if SEGGER_RTT_BUFFER_ALIGNMENT
 206:/home/rdu/Workspace/project_templates/mcu/stm32_ws/src/modules/rtt/SEGGER_RTT.c ****   #define SEGGER_RTT_BUFFER_ALIGN(Var)  SEGGER_RTT_ALIGN(Var, SEGGER_RTT_BUFFER_ALIGNMENT)
 207:/home/rdu/Workspace/project_templates/mcu/stm32_ws/src/modules/rtt/SEGGER_RTT.c **** #else
 208:/home/rdu/Workspace/project_templates/mcu/stm32_ws/src/modules/rtt/SEGGER_RTT.c ****   #define SEGGER_RTT_BUFFER_ALIGN(Var)  Var
 209:/home/rdu/Workspace/project_templates/mcu/stm32_ws/src/modules/rtt/SEGGER_RTT.c **** #endif
 210:/home/rdu/Workspace/project_templates/mcu/stm32_ws/src/modules/rtt/SEGGER_RTT.c **** 
 211:/home/rdu/Workspace/project_templates/mcu/stm32_ws/src/modules/rtt/SEGGER_RTT.c **** 
 212:/home/rdu/Workspace/project_templates/mcu/stm32_ws/src/modules/rtt/SEGGER_RTT.c **** #if defined(SEGGER_RTT_SECTION)
 213:/home/rdu/Workspace/project_templates/mcu/stm32_ws/src/modules/rtt/SEGGER_RTT.c ****   #define SEGGER_RTT_PUT_CB_SECTION(Var) SEGGER_RTT_PUT_SECTION(Var, SEGGER_RTT_SECTION)
 214:/home/rdu/Workspace/project_templates/mcu/stm32_ws/src/modules/rtt/SEGGER_RTT.c **** #else
 215:/home/rdu/Workspace/project_templates/mcu/stm32_ws/src/modules/rtt/SEGGER_RTT.c ****   #define SEGGER_RTT_PUT_CB_SECTION(Var) Var
 216:/home/rdu/Workspace/project_templates/mcu/stm32_ws/src/modules/rtt/SEGGER_RTT.c **** #endif
 217:/home/rdu/Workspace/project_templates/mcu/stm32_ws/src/modules/rtt/SEGGER_RTT.c **** 
 218:/home/rdu/Workspace/project_templates/mcu/stm32_ws/src/modules/rtt/SEGGER_RTT.c **** #if defined(SEGGER_RTT_BUFFER_SECTION)
 219:/home/rdu/Workspace/project_templates/mcu/stm32_ws/src/modules/rtt/SEGGER_RTT.c ****   #define SEGGER_RTT_PUT_BUFFER_SECTION(Var) SEGGER_RTT_PUT_SECTION(Var, SEGGER_RTT_BUFFER_SECTION)
 220:/home/rdu/Workspace/project_templates/mcu/stm32_ws/src/modules/rtt/SEGGER_RTT.c **** #else
 221:/home/rdu/Workspace/project_templates/mcu/stm32_ws/src/modules/rtt/SEGGER_RTT.c ****   #define SEGGER_RTT_PUT_BUFFER_SECTION(Var) Var
 222:/home/rdu/Workspace/project_templates/mcu/stm32_ws/src/modules/rtt/SEGGER_RTT.c **** #endif
 223:/home/rdu/Workspace/project_templates/mcu/stm32_ws/src/modules/rtt/SEGGER_RTT.c **** 
 224:/home/rdu/Workspace/project_templates/mcu/stm32_ws/src/modules/rtt/SEGGER_RTT.c **** /*********************************************************************
 225:/home/rdu/Workspace/project_templates/mcu/stm32_ws/src/modules/rtt/SEGGER_RTT.c **** *
 226:/home/rdu/Workspace/project_templates/mcu/stm32_ws/src/modules/rtt/SEGGER_RTT.c **** *       Static const data
 227:/home/rdu/Workspace/project_templates/mcu/stm32_ws/src/modules/rtt/SEGGER_RTT.c **** *
 228:/home/rdu/Workspace/project_templates/mcu/stm32_ws/src/modules/rtt/SEGGER_RTT.c **** **********************************************************************
 229:/home/rdu/Workspace/project_templates/mcu/stm32_ws/src/modules/rtt/SEGGER_RTT.c **** */
 230:/home/rdu/Workspace/project_templates/mcu/stm32_ws/src/modules/rtt/SEGGER_RTT.c **** 
 231:/home/rdu/Workspace/project_templates/mcu/stm32_ws/src/modules/rtt/SEGGER_RTT.c **** static unsigned char _aTerminalId[16] = { '0', '1', '2', '3', '4', '5', '6', '7', '8', '9', 'A', 'B
 232:/home/rdu/Workspace/project_templates/mcu/stm32_ws/src/modules/rtt/SEGGER_RTT.c **** 
 233:/home/rdu/Workspace/project_templates/mcu/stm32_ws/src/modules/rtt/SEGGER_RTT.c **** /*********************************************************************
 234:/home/rdu/Workspace/project_templates/mcu/stm32_ws/src/modules/rtt/SEGGER_RTT.c **** *
 235:/home/rdu/Workspace/project_templates/mcu/stm32_ws/src/modules/rtt/SEGGER_RTT.c **** *       Static data
 236:/home/rdu/Workspace/project_templates/mcu/stm32_ws/src/modules/rtt/SEGGER_RTT.c **** *
 237:/home/rdu/Workspace/project_templates/mcu/stm32_ws/src/modules/rtt/SEGGER_RTT.c **** **********************************************************************
 238:/home/rdu/Workspace/project_templates/mcu/stm32_ws/src/modules/rtt/SEGGER_RTT.c **** */
 239:/home/rdu/Workspace/project_templates/mcu/stm32_ws/src/modules/rtt/SEGGER_RTT.c **** //
 240:/home/rdu/Workspace/project_templates/mcu/stm32_ws/src/modules/rtt/SEGGER_RTT.c **** // RTT Control Block and allocate buffers for channel 0
 241:/home/rdu/Workspace/project_templates/mcu/stm32_ws/src/modules/rtt/SEGGER_RTT.c **** //
 242:/home/rdu/Workspace/project_templates/mcu/stm32_ws/src/modules/rtt/SEGGER_RTT.c **** SEGGER_RTT_PUT_CB_SECTION(SEGGER_RTT_CB_ALIGN(SEGGER_RTT_CB _SEGGER_RTT));
 243:/home/rdu/Workspace/project_templates/mcu/stm32_ws/src/modules/rtt/SEGGER_RTT.c **** 
 244:/home/rdu/Workspace/project_templates/mcu/stm32_ws/src/modules/rtt/SEGGER_RTT.c **** SEGGER_RTT_PUT_BUFFER_SECTION(SEGGER_RTT_BUFFER_ALIGN(static char _acUpBuffer  [BUFFER_SIZE_UP]));
 245:/home/rdu/Workspace/project_templates/mcu/stm32_ws/src/modules/rtt/SEGGER_RTT.c **** SEGGER_RTT_PUT_BUFFER_SECTION(SEGGER_RTT_BUFFER_ALIGN(static char _acDownBuffer[BUFFER_SIZE_DOWN]))
 246:/home/rdu/Workspace/project_templates/mcu/stm32_ws/src/modules/rtt/SEGGER_RTT.c **** 
 247:/home/rdu/Workspace/project_templates/mcu/stm32_ws/src/modules/rtt/SEGGER_RTT.c **** static char _ActiveTerminal;
 248:/home/rdu/Workspace/project_templates/mcu/stm32_ws/src/modules/rtt/SEGGER_RTT.c **** 
 249:/home/rdu/Workspace/project_templates/mcu/stm32_ws/src/modules/rtt/SEGGER_RTT.c **** /*********************************************************************
 250:/home/rdu/Workspace/project_templates/mcu/stm32_ws/src/modules/rtt/SEGGER_RTT.c **** *
 251:/home/rdu/Workspace/project_templates/mcu/stm32_ws/src/modules/rtt/SEGGER_RTT.c **** *       Static functions
 252:/home/rdu/Workspace/project_templates/mcu/stm32_ws/src/modules/rtt/SEGGER_RTT.c **** *
 253:/home/rdu/Workspace/project_templates/mcu/stm32_ws/src/modules/rtt/SEGGER_RTT.c **** **********************************************************************
 254:/home/rdu/Workspace/project_templates/mcu/stm32_ws/src/modules/rtt/SEGGER_RTT.c **** */
 255:/home/rdu/Workspace/project_templates/mcu/stm32_ws/src/modules/rtt/SEGGER_RTT.c **** 
 256:/home/rdu/Workspace/project_templates/mcu/stm32_ws/src/modules/rtt/SEGGER_RTT.c **** /*********************************************************************
 257:/home/rdu/Workspace/project_templates/mcu/stm32_ws/src/modules/rtt/SEGGER_RTT.c **** *
 258:/home/rdu/Workspace/project_templates/mcu/stm32_ws/src/modules/rtt/SEGGER_RTT.c **** *       _DoInit()
 259:/home/rdu/Workspace/project_templates/mcu/stm32_ws/src/modules/rtt/SEGGER_RTT.c **** *
 260:/home/rdu/Workspace/project_templates/mcu/stm32_ws/src/modules/rtt/SEGGER_RTT.c **** *  Function description
 261:/home/rdu/Workspace/project_templates/mcu/stm32_ws/src/modules/rtt/SEGGER_RTT.c **** *    Initializes the control block an buffers.
 262:/home/rdu/Workspace/project_templates/mcu/stm32_ws/src/modules/rtt/SEGGER_RTT.c **** *    May only be called via INIT() to avoid overriding settings.
 263:/home/rdu/Workspace/project_templates/mcu/stm32_ws/src/modules/rtt/SEGGER_RTT.c **** *
 264:/home/rdu/Workspace/project_templates/mcu/stm32_ws/src/modules/rtt/SEGGER_RTT.c **** */
 265:/home/rdu/Workspace/project_templates/mcu/stm32_ws/src/modules/rtt/SEGGER_RTT.c **** #define INIT()  do {                                            \
 266:/home/rdu/Workspace/project_templates/mcu/stm32_ws/src/modules/rtt/SEGGER_RTT.c ****                   if (_SEGGER_RTT.acID[0] == '\0') { _DoInit(); }  \
 267:/home/rdu/Workspace/project_templates/mcu/stm32_ws/src/modules/rtt/SEGGER_RTT.c ****                 } while (0)
 268:/home/rdu/Workspace/project_templates/mcu/stm32_ws/src/modules/rtt/SEGGER_RTT.c **** static void _DoInit(void) {
  74              		.loc 1 268 0
  75              		.cfi_startproc
  76              		@ args = 0, pretend = 0, frame = 8
  77              		@ frame_needed = 0, uses_anonymous_args = 0
  78              		@ link register save eliminated.
  79 0000 82B0     		sub	sp, sp, #8
  80              	.LCFI0:
  81              		.cfi_def_cfa_offset 8
 269:/home/rdu/Workspace/project_templates/mcu/stm32_ws/src/modules/rtt/SEGGER_RTT.c ****   SEGGER_RTT_CB* p;
 270:/home/rdu/Workspace/project_templates/mcu/stm32_ws/src/modules/rtt/SEGGER_RTT.c ****   //
 271:/home/rdu/Workspace/project_templates/mcu/stm32_ws/src/modules/rtt/SEGGER_RTT.c ****   // Initialize control block
 272:/home/rdu/Workspace/project_templates/mcu/stm32_ws/src/modules/rtt/SEGGER_RTT.c ****   //
 273:/home/rdu/Workspace/project_templates/mcu/stm32_ws/src/modules/rtt/SEGGER_RTT.c ****   p = &_SEGGER_RTT;
  82              		.loc 1 273 0
  83 0002 204B     		ldr	r3, .L2
  84 0004 0193     		str	r3, [sp, #4]
 274:/home/rdu/Workspace/project_templates/mcu/stm32_ws/src/modules/rtt/SEGGER_RTT.c ****   p->MaxNumUpBuffers    = SEGGER_RTT_MAX_NUM_UP_BUFFERS;
  85              		.loc 1 274 0
  86 0006 019B     		ldr	r3, [sp, #4]
  87 0008 0322     		movs	r2, #3
  88 000a 1A61     		str	r2, [r3, #16]
 275:/home/rdu/Workspace/project_templates/mcu/stm32_ws/src/modules/rtt/SEGGER_RTT.c ****   p->MaxNumDownBuffers  = SEGGER_RTT_MAX_NUM_DOWN_BUFFERS;
  89              		.loc 1 275 0
  90 000c 019B     		ldr	r3, [sp, #4]
  91 000e 0322     		movs	r2, #3
  92 0010 5A61     		str	r2, [r3, #20]
 276:/home/rdu/Workspace/project_templates/mcu/stm32_ws/src/modules/rtt/SEGGER_RTT.c ****   //
 277:/home/rdu/Workspace/project_templates/mcu/stm32_ws/src/modules/rtt/SEGGER_RTT.c ****   // Initialize up buffer 0
 278:/home/rdu/Workspace/project_templates/mcu/stm32_ws/src/modules/rtt/SEGGER_RTT.c ****   //
 279:/home/rdu/Workspace/project_templates/mcu/stm32_ws/src/modules/rtt/SEGGER_RTT.c ****   p->aUp[0].sName         = "Terminal";
  93              		.loc 1 279 0
  94 0012 019B     		ldr	r3, [sp, #4]
  95 0014 1C4A     		ldr	r2, .L2+4
  96 0016 9A61     		str	r2, [r3, #24]
 280:/home/rdu/Workspace/project_templates/mcu/stm32_ws/src/modules/rtt/SEGGER_RTT.c ****   p->aUp[0].pBuffer       = _acUpBuffer;
  97              		.loc 1 280 0
  98 0018 019B     		ldr	r3, [sp, #4]
  99 001a 1C4A     		ldr	r2, .L2+8
 100 001c DA61     		str	r2, [r3, #28]
 281:/home/rdu/Workspace/project_templates/mcu/stm32_ws/src/modules/rtt/SEGGER_RTT.c ****   p->aUp[0].SizeOfBuffer  = sizeof(_acUpBuffer);
 101              		.loc 1 281 0
 102 001e 019B     		ldr	r3, [sp, #4]
 103 0020 4FF48062 		mov	r2, #1024
 104 0024 1A62     		str	r2, [r3, #32]
 282:/home/rdu/Workspace/project_templates/mcu/stm32_ws/src/modules/rtt/SEGGER_RTT.c ****   p->aUp[0].RdOff         = 0u;
 105              		.loc 1 282 0
 106 0026 019B     		ldr	r3, [sp, #4]
 107 0028 0022     		movs	r2, #0
 108 002a 9A62     		str	r2, [r3, #40]
 283:/home/rdu/Workspace/project_templates/mcu/stm32_ws/src/modules/rtt/SEGGER_RTT.c ****   p->aUp[0].WrOff         = 0u;
 109              		.loc 1 283 0
 110 002c 019B     		ldr	r3, [sp, #4]
 111 002e 0022     		movs	r2, #0
 112 0030 5A62     		str	r2, [r3, #36]
 284:/home/rdu/Workspace/project_templates/mcu/stm32_ws/src/modules/rtt/SEGGER_RTT.c ****   p->aUp[0].Flags         = SEGGER_RTT_MODE_DEFAULT;
 113              		.loc 1 284 0
 114 0032 019B     		ldr	r3, [sp, #4]
 115 0034 0022     		movs	r2, #0
 116 0036 DA62     		str	r2, [r3, #44]
 285:/home/rdu/Workspace/project_templates/mcu/stm32_ws/src/modules/rtt/SEGGER_RTT.c ****   //
 286:/home/rdu/Workspace/project_templates/mcu/stm32_ws/src/modules/rtt/SEGGER_RTT.c ****   // Initialize down buffer 0
 287:/home/rdu/Workspace/project_templates/mcu/stm32_ws/src/modules/rtt/SEGGER_RTT.c ****   //
 288:/home/rdu/Workspace/project_templates/mcu/stm32_ws/src/modules/rtt/SEGGER_RTT.c ****   p->aDown[0].sName         = "Terminal";
 117              		.loc 1 288 0
 118 0038 019B     		ldr	r3, [sp, #4]
 119 003a 134A     		ldr	r2, .L2+4
 120 003c 1A66     		str	r2, [r3, #96]
 289:/home/rdu/Workspace/project_templates/mcu/stm32_ws/src/modules/rtt/SEGGER_RTT.c ****   p->aDown[0].pBuffer       = _acDownBuffer;
 121              		.loc 1 289 0
 122 003e 019B     		ldr	r3, [sp, #4]
 123 0040 134A     		ldr	r2, .L2+12
 124 0042 5A66     		str	r2, [r3, #100]
 290:/home/rdu/Workspace/project_templates/mcu/stm32_ws/src/modules/rtt/SEGGER_RTT.c ****   p->aDown[0].SizeOfBuffer  = sizeof(_acDownBuffer);
 125              		.loc 1 290 0
 126 0044 019B     		ldr	r3, [sp, #4]
 127 0046 1022     		movs	r2, #16
 128 0048 9A66     		str	r2, [r3, #104]
 291:/home/rdu/Workspace/project_templates/mcu/stm32_ws/src/modules/rtt/SEGGER_RTT.c ****   p->aDown[0].RdOff         = 0u;
 129              		.loc 1 291 0
 130 004a 019B     		ldr	r3, [sp, #4]
 131 004c 0022     		movs	r2, #0
 132 004e 1A67     		str	r2, [r3, #112]
 292:/home/rdu/Workspace/project_templates/mcu/stm32_ws/src/modules/rtt/SEGGER_RTT.c ****   p->aDown[0].WrOff         = 0u;
 133              		.loc 1 292 0
 134 0050 019B     		ldr	r3, [sp, #4]
 135 0052 0022     		movs	r2, #0
 136 0054 DA66     		str	r2, [r3, #108]
 293:/home/rdu/Workspace/project_templates/mcu/stm32_ws/src/modules/rtt/SEGGER_RTT.c ****   p->aDown[0].Flags         = SEGGER_RTT_MODE_DEFAULT;
 137              		.loc 1 293 0
 138 0056 019B     		ldr	r3, [sp, #4]
 139 0058 0022     		movs	r2, #0
 140 005a 5A67     		str	r2, [r3, #116]
 294:/home/rdu/Workspace/project_templates/mcu/stm32_ws/src/modules/rtt/SEGGER_RTT.c ****   //
 295:/home/rdu/Workspace/project_templates/mcu/stm32_ws/src/modules/rtt/SEGGER_RTT.c ****   // Finish initialization of the control block.
 296:/home/rdu/Workspace/project_templates/mcu/stm32_ws/src/modules/rtt/SEGGER_RTT.c ****   // Copy Id string in three steps to make sure "SEGGER RTT" is not found
 297:/home/rdu/Workspace/project_templates/mcu/stm32_ws/src/modules/rtt/SEGGER_RTT.c ****   // in initializer memory (usually flash) by J-Link
 298:/home/rdu/Workspace/project_templates/mcu/stm32_ws/src/modules/rtt/SEGGER_RTT.c ****   //
 299:/home/rdu/Workspace/project_templates/mcu/stm32_ws/src/modules/rtt/SEGGER_RTT.c ****   strcpy(&p->acID[7], "RTT");
 141              		.loc 1 299 0
 142 005c 019B     		ldr	r3, [sp, #4]
 143 005e 0733     		adds	r3, r3, #7
 144 0060 0C4A     		ldr	r2, .L2+16
 145 0062 1068     		ldr	r0, [r2]
 146 0064 1860     		str	r0, [r3]	@ unaligned
 300:/home/rdu/Workspace/project_templates/mcu/stm32_ws/src/modules/rtt/SEGGER_RTT.c ****   strcpy(&p->acID[0], "SEGGER");
 147              		.loc 1 300 0
 148 0066 019B     		ldr	r3, [sp, #4]
 149 0068 0B4A     		ldr	r2, .L2+20
 150 006a 1068     		ldr	r0, [r2]
 151 006c 1860     		str	r0, [r3]	@ unaligned
 152 006e 9188     		ldrh	r1, [r2, #4]	@ unaligned
 153 0070 9279     		ldrb	r2, [r2, #6]
 154 0072 9980     		strh	r1, [r3, #4]	@ unaligned
 155 0074 9A71     		strb	r2, [r3, #6]
 301:/home/rdu/Workspace/project_templates/mcu/stm32_ws/src/modules/rtt/SEGGER_RTT.c ****   p->acID[6] = ' ';
 156              		.loc 1 301 0
 157 0076 019B     		ldr	r3, [sp, #4]
 158 0078 2022     		movs	r2, #32
 159 007a 9A71     		strb	r2, [r3, #6]
 302:/home/rdu/Workspace/project_templates/mcu/stm32_ws/src/modules/rtt/SEGGER_RTT.c **** }
 160              		.loc 1 302 0
 161 007c 00BF     		nop
 162 007e 02B0     		add	sp, sp, #8
 163              	.LCFI1:
 164              		.cfi_def_cfa_offset 0
 165              		@ sp needed
 166 0080 7047     		bx	lr
 167              	.L3:
 168 0082 00BF     		.align	2
 169              	.L2:
 170 0084 00000000 		.word	_SEGGER_RTT
 171 0088 00000000 		.word	.LC0
 172 008c 00000000 		.word	_acUpBuffer
 173 0090 00000000 		.word	_acDownBuffer
 174 0094 0C000000 		.word	.LC1
 175 0098 10000000 		.word	.LC2
 176              		.cfi_endproc
 177              	.LFE0:
 179              		.section	.text._WriteBlocking,"ax",%progbits
 180              		.align	1
 181              		.syntax unified
 182              		.thumb
 183              		.thumb_func
 184              		.fpu fpv4-sp-d16
 186              	_WriteBlocking:
 187              	.LFB1:
 303:/home/rdu/Workspace/project_templates/mcu/stm32_ws/src/modules/rtt/SEGGER_RTT.c **** 
 304:/home/rdu/Workspace/project_templates/mcu/stm32_ws/src/modules/rtt/SEGGER_RTT.c **** /*********************************************************************
 305:/home/rdu/Workspace/project_templates/mcu/stm32_ws/src/modules/rtt/SEGGER_RTT.c **** *
 306:/home/rdu/Workspace/project_templates/mcu/stm32_ws/src/modules/rtt/SEGGER_RTT.c **** *       _WriteBlocking()
 307:/home/rdu/Workspace/project_templates/mcu/stm32_ws/src/modules/rtt/SEGGER_RTT.c **** *
 308:/home/rdu/Workspace/project_templates/mcu/stm32_ws/src/modules/rtt/SEGGER_RTT.c **** *  Function description
 309:/home/rdu/Workspace/project_templates/mcu/stm32_ws/src/modules/rtt/SEGGER_RTT.c **** *    Stores a specified number of characters in SEGGER RTT ring buffer
 310:/home/rdu/Workspace/project_templates/mcu/stm32_ws/src/modules/rtt/SEGGER_RTT.c **** *    and updates the associated write pointer which is periodically
 311:/home/rdu/Workspace/project_templates/mcu/stm32_ws/src/modules/rtt/SEGGER_RTT.c **** *    read by the host.
 312:/home/rdu/Workspace/project_templates/mcu/stm32_ws/src/modules/rtt/SEGGER_RTT.c **** *    The caller is responsible for managing the write chunk sizes as
 313:/home/rdu/Workspace/project_templates/mcu/stm32_ws/src/modules/rtt/SEGGER_RTT.c **** *    _WriteBlocking() will block until all data has been posted successfully.
 314:/home/rdu/Workspace/project_templates/mcu/stm32_ws/src/modules/rtt/SEGGER_RTT.c **** *
 315:/home/rdu/Workspace/project_templates/mcu/stm32_ws/src/modules/rtt/SEGGER_RTT.c **** *  Parameters
 316:/home/rdu/Workspace/project_templates/mcu/stm32_ws/src/modules/rtt/SEGGER_RTT.c **** *    pRing        Ring buffer to post to.
 317:/home/rdu/Workspace/project_templates/mcu/stm32_ws/src/modules/rtt/SEGGER_RTT.c **** *    pBuffer      Pointer to character array. Does not need to point to a \0 terminated string.
 318:/home/rdu/Workspace/project_templates/mcu/stm32_ws/src/modules/rtt/SEGGER_RTT.c **** *    NumBytes     Number of bytes to be stored in the SEGGER RTT control block.
 319:/home/rdu/Workspace/project_templates/mcu/stm32_ws/src/modules/rtt/SEGGER_RTT.c **** *
 320:/home/rdu/Workspace/project_templates/mcu/stm32_ws/src/modules/rtt/SEGGER_RTT.c **** *  Return value
 321:/home/rdu/Workspace/project_templates/mcu/stm32_ws/src/modules/rtt/SEGGER_RTT.c **** *    >= 0 - Number of bytes written into buffer.
 322:/home/rdu/Workspace/project_templates/mcu/stm32_ws/src/modules/rtt/SEGGER_RTT.c **** */
 323:/home/rdu/Workspace/project_templates/mcu/stm32_ws/src/modules/rtt/SEGGER_RTT.c **** static unsigned _WriteBlocking(SEGGER_RTT_BUFFER_UP* pRing, const char* pBuffer, unsigned NumBytes)
 188              		.loc 1 323 0
 189              		.cfi_startproc
 190              		@ args = 0, pretend = 0, frame = 32
 191              		@ frame_needed = 0, uses_anonymous_args = 0
 192 0000 00B5     		push	{lr}
 193              	.LCFI2:
 194              		.cfi_def_cfa_offset 4
 195              		.cfi_offset 14, -4
 196 0002 89B0     		sub	sp, sp, #36
 197              	.LCFI3:
 198              		.cfi_def_cfa_offset 40
 199 0004 0390     		str	r0, [sp, #12]
 200 0006 0291     		str	r1, [sp, #8]
 201 0008 0192     		str	r2, [sp, #4]
 324:/home/rdu/Workspace/project_templates/mcu/stm32_ws/src/modules/rtt/SEGGER_RTT.c ****   unsigned NumBytesToWrite;
 325:/home/rdu/Workspace/project_templates/mcu/stm32_ws/src/modules/rtt/SEGGER_RTT.c ****   unsigned NumBytesWritten;
 326:/home/rdu/Workspace/project_templates/mcu/stm32_ws/src/modules/rtt/SEGGER_RTT.c ****   unsigned RdOff;
 327:/home/rdu/Workspace/project_templates/mcu/stm32_ws/src/modules/rtt/SEGGER_RTT.c ****   unsigned WrOff;
 328:/home/rdu/Workspace/project_templates/mcu/stm32_ws/src/modules/rtt/SEGGER_RTT.c ****   //
 329:/home/rdu/Workspace/project_templates/mcu/stm32_ws/src/modules/rtt/SEGGER_RTT.c ****   // Write data to buffer and handle wrap-around if necessary
 330:/home/rdu/Workspace/project_templates/mcu/stm32_ws/src/modules/rtt/SEGGER_RTT.c ****   //
 331:/home/rdu/Workspace/project_templates/mcu/stm32_ws/src/modules/rtt/SEGGER_RTT.c ****   NumBytesWritten = 0u;
 202              		.loc 1 331 0
 203 000a 0023     		movs	r3, #0
 204 000c 0693     		str	r3, [sp, #24]
 332:/home/rdu/Workspace/project_templates/mcu/stm32_ws/src/modules/rtt/SEGGER_RTT.c ****   WrOff = pRing->WrOff;
 205              		.loc 1 332 0
 206 000e 039B     		ldr	r3, [sp, #12]
 207 0010 DB68     		ldr	r3, [r3, #12]
 208 0012 0593     		str	r3, [sp, #20]
 209              	.L8:
 333:/home/rdu/Workspace/project_templates/mcu/stm32_ws/src/modules/rtt/SEGGER_RTT.c ****   do {
 334:/home/rdu/Workspace/project_templates/mcu/stm32_ws/src/modules/rtt/SEGGER_RTT.c ****     RdOff = pRing->RdOff;                         // May be changed by host (debug probe) in the me
 210              		.loc 1 334 0
 211 0014 039B     		ldr	r3, [sp, #12]
 212 0016 1B69     		ldr	r3, [r3, #16]
 213 0018 0493     		str	r3, [sp, #16]
 335:/home/rdu/Workspace/project_templates/mcu/stm32_ws/src/modules/rtt/SEGGER_RTT.c ****     if (RdOff > WrOff) {
 214              		.loc 1 335 0
 215 001a 049A     		ldr	r2, [sp, #16]
 216 001c 059B     		ldr	r3, [sp, #20]
 217 001e 9A42     		cmp	r2, r3
 218 0020 05D9     		bls	.L5
 336:/home/rdu/Workspace/project_templates/mcu/stm32_ws/src/modules/rtt/SEGGER_RTT.c ****       NumBytesToWrite = RdOff - WrOff - 1u;
 219              		.loc 1 336 0
 220 0022 049A     		ldr	r2, [sp, #16]
 221 0024 059B     		ldr	r3, [sp, #20]
 222 0026 D31A     		subs	r3, r2, r3
 223 0028 013B     		subs	r3, r3, #1
 224 002a 0793     		str	r3, [sp, #28]
 225 002c 07E0     		b	.L6
 226              	.L5:
 337:/home/rdu/Workspace/project_templates/mcu/stm32_ws/src/modules/rtt/SEGGER_RTT.c ****     } else {
 338:/home/rdu/Workspace/project_templates/mcu/stm32_ws/src/modules/rtt/SEGGER_RTT.c ****       NumBytesToWrite = pRing->SizeOfBuffer - (WrOff - RdOff + 1u);
 227              		.loc 1 338 0
 228 002e 039B     		ldr	r3, [sp, #12]
 229 0030 9A68     		ldr	r2, [r3, #8]
 230 0032 0499     		ldr	r1, [sp, #16]
 231 0034 059B     		ldr	r3, [sp, #20]
 232 0036 CB1A     		subs	r3, r1, r3
 233 0038 1344     		add	r3, r3, r2
 234 003a 013B     		subs	r3, r3, #1
 235 003c 0793     		str	r3, [sp, #28]
 236              	.L6:
 339:/home/rdu/Workspace/project_templates/mcu/stm32_ws/src/modules/rtt/SEGGER_RTT.c ****     }
 340:/home/rdu/Workspace/project_templates/mcu/stm32_ws/src/modules/rtt/SEGGER_RTT.c ****     NumBytesToWrite = MIN(NumBytesToWrite, (pRing->SizeOfBuffer - WrOff));      // Number of bytes 
 237              		.loc 1 340 0
 238 003e 039B     		ldr	r3, [sp, #12]
 239 0040 9A68     		ldr	r2, [r3, #8]
 240 0042 059B     		ldr	r3, [sp, #20]
 241 0044 D31A     		subs	r3, r2, r3
 242 0046 079A     		ldr	r2, [sp, #28]
 243 0048 9342     		cmp	r3, r2
 244 004a 28BF     		it	cs
 245 004c 1346     		movcs	r3, r2
 246 004e 0793     		str	r3, [sp, #28]
 341:/home/rdu/Workspace/project_templates/mcu/stm32_ws/src/modules/rtt/SEGGER_RTT.c ****     NumBytesToWrite = MIN(NumBytesToWrite, NumBytes);
 247              		.loc 1 341 0
 248 0050 079A     		ldr	r2, [sp, #28]
 249 0052 019B     		ldr	r3, [sp, #4]
 250 0054 9342     		cmp	r3, r2
 251 0056 28BF     		it	cs
 252 0058 1346     		movcs	r3, r2
 253 005a 0793     		str	r3, [sp, #28]
 342:/home/rdu/Workspace/project_templates/mcu/stm32_ws/src/modules/rtt/SEGGER_RTT.c ****     memcpy(pRing->pBuffer + WrOff, pBuffer, NumBytesToWrite);
 254              		.loc 1 342 0
 255 005c 039B     		ldr	r3, [sp, #12]
 256 005e 5A68     		ldr	r2, [r3, #4]
 257 0060 059B     		ldr	r3, [sp, #20]
 258 0062 1344     		add	r3, r3, r2
 259 0064 079A     		ldr	r2, [sp, #28]
 260 0066 0299     		ldr	r1, [sp, #8]
 261 0068 1846     		mov	r0, r3
 262 006a FFF7FEFF 		bl	memcpy
 343:/home/rdu/Workspace/project_templates/mcu/stm32_ws/src/modules/rtt/SEGGER_RTT.c ****     NumBytesWritten += NumBytesToWrite;
 263              		.loc 1 343 0
 264 006e 069A     		ldr	r2, [sp, #24]
 265 0070 079B     		ldr	r3, [sp, #28]
 266 0072 1344     		add	r3, r3, r2
 267 0074 0693     		str	r3, [sp, #24]
 344:/home/rdu/Workspace/project_templates/mcu/stm32_ws/src/modules/rtt/SEGGER_RTT.c ****     pBuffer         += NumBytesToWrite;
 268              		.loc 1 344 0
 269 0076 029A     		ldr	r2, [sp, #8]
 270 0078 079B     		ldr	r3, [sp, #28]
 271 007a 1344     		add	r3, r3, r2
 272 007c 0293     		str	r3, [sp, #8]
 345:/home/rdu/Workspace/project_templates/mcu/stm32_ws/src/modules/rtt/SEGGER_RTT.c ****     NumBytes        -= NumBytesToWrite;
 273              		.loc 1 345 0
 274 007e 019A     		ldr	r2, [sp, #4]
 275 0080 079B     		ldr	r3, [sp, #28]
 276 0082 D31A     		subs	r3, r2, r3
 277 0084 0193     		str	r3, [sp, #4]
 346:/home/rdu/Workspace/project_templates/mcu/stm32_ws/src/modules/rtt/SEGGER_RTT.c ****     WrOff           += NumBytesToWrite;
 278              		.loc 1 346 0
 279 0086 059A     		ldr	r2, [sp, #20]
 280 0088 079B     		ldr	r3, [sp, #28]
 281 008a 1344     		add	r3, r3, r2
 282 008c 0593     		str	r3, [sp, #20]
 347:/home/rdu/Workspace/project_templates/mcu/stm32_ws/src/modules/rtt/SEGGER_RTT.c ****     if (WrOff == pRing->SizeOfBuffer) {
 283              		.loc 1 347 0
 284 008e 039B     		ldr	r3, [sp, #12]
 285 0090 9B68     		ldr	r3, [r3, #8]
 286 0092 059A     		ldr	r2, [sp, #20]
 287 0094 9A42     		cmp	r2, r3
 288 0096 01D1     		bne	.L7
 348:/home/rdu/Workspace/project_templates/mcu/stm32_ws/src/modules/rtt/SEGGER_RTT.c ****       WrOff = 0u;
 289              		.loc 1 348 0
 290 0098 0023     		movs	r3, #0
 291 009a 0593     		str	r3, [sp, #20]
 292              	.L7:
 349:/home/rdu/Workspace/project_templates/mcu/stm32_ws/src/modules/rtt/SEGGER_RTT.c ****     }
 350:/home/rdu/Workspace/project_templates/mcu/stm32_ws/src/modules/rtt/SEGGER_RTT.c ****     pRing->WrOff = WrOff;
 293              		.loc 1 350 0
 294 009c 039B     		ldr	r3, [sp, #12]
 295 009e 059A     		ldr	r2, [sp, #20]
 296 00a0 DA60     		str	r2, [r3, #12]
 351:/home/rdu/Workspace/project_templates/mcu/stm32_ws/src/modules/rtt/SEGGER_RTT.c ****   } while (NumBytes);
 297              		.loc 1 351 0
 298 00a2 019B     		ldr	r3, [sp, #4]
 299 00a4 002B     		cmp	r3, #0
 300 00a6 B5D1     		bne	.L8
 352:/home/rdu/Workspace/project_templates/mcu/stm32_ws/src/modules/rtt/SEGGER_RTT.c ****   //
 353:/home/rdu/Workspace/project_templates/mcu/stm32_ws/src/modules/rtt/SEGGER_RTT.c ****   return NumBytesWritten;
 301              		.loc 1 353 0
 302 00a8 069B     		ldr	r3, [sp, #24]
 354:/home/rdu/Workspace/project_templates/mcu/stm32_ws/src/modules/rtt/SEGGER_RTT.c **** }
 303              		.loc 1 354 0
 304 00aa 1846     		mov	r0, r3
 305 00ac 09B0     		add	sp, sp, #36
 306              	.LCFI4:
 307              		.cfi_def_cfa_offset 4
 308              		@ sp needed
 309 00ae 5DF804FB 		ldr	pc, [sp], #4
 310              		.cfi_endproc
 311              	.LFE1:
 313              		.section	.text._WriteNoCheck,"ax",%progbits
 314              		.align	1
 315              		.syntax unified
 316              		.thumb
 317              		.thumb_func
 318              		.fpu fpv4-sp-d16
 320              	_WriteNoCheck:
 321              	.LFB2:
 355:/home/rdu/Workspace/project_templates/mcu/stm32_ws/src/modules/rtt/SEGGER_RTT.c **** 
 356:/home/rdu/Workspace/project_templates/mcu/stm32_ws/src/modules/rtt/SEGGER_RTT.c **** /*********************************************************************
 357:/home/rdu/Workspace/project_templates/mcu/stm32_ws/src/modules/rtt/SEGGER_RTT.c **** *
 358:/home/rdu/Workspace/project_templates/mcu/stm32_ws/src/modules/rtt/SEGGER_RTT.c **** *       _WriteNoCheck()
 359:/home/rdu/Workspace/project_templates/mcu/stm32_ws/src/modules/rtt/SEGGER_RTT.c **** *
 360:/home/rdu/Workspace/project_templates/mcu/stm32_ws/src/modules/rtt/SEGGER_RTT.c **** *  Function description
 361:/home/rdu/Workspace/project_templates/mcu/stm32_ws/src/modules/rtt/SEGGER_RTT.c **** *    Stores a specified number of characters in SEGGER RTT ring buffer
 362:/home/rdu/Workspace/project_templates/mcu/stm32_ws/src/modules/rtt/SEGGER_RTT.c **** *    and updates the associated write pointer which is periodically
 363:/home/rdu/Workspace/project_templates/mcu/stm32_ws/src/modules/rtt/SEGGER_RTT.c **** *    read by the host.
 364:/home/rdu/Workspace/project_templates/mcu/stm32_ws/src/modules/rtt/SEGGER_RTT.c **** *    It is callers responsibility to make sure data actually fits in buffer.
 365:/home/rdu/Workspace/project_templates/mcu/stm32_ws/src/modules/rtt/SEGGER_RTT.c **** *
 366:/home/rdu/Workspace/project_templates/mcu/stm32_ws/src/modules/rtt/SEGGER_RTT.c **** *  Parameters
 367:/home/rdu/Workspace/project_templates/mcu/stm32_ws/src/modules/rtt/SEGGER_RTT.c **** *    pRing        Ring buffer to post to.
 368:/home/rdu/Workspace/project_templates/mcu/stm32_ws/src/modules/rtt/SEGGER_RTT.c **** *    pBuffer      Pointer to character array. Does not need to point to a \0 terminated string.
 369:/home/rdu/Workspace/project_templates/mcu/stm32_ws/src/modules/rtt/SEGGER_RTT.c **** *    NumBytes     Number of bytes to be stored in the SEGGER RTT control block.
 370:/home/rdu/Workspace/project_templates/mcu/stm32_ws/src/modules/rtt/SEGGER_RTT.c **** *
 371:/home/rdu/Workspace/project_templates/mcu/stm32_ws/src/modules/rtt/SEGGER_RTT.c **** *  Notes
 372:/home/rdu/Workspace/project_templates/mcu/stm32_ws/src/modules/rtt/SEGGER_RTT.c **** *    (1) If there might not be enough space in the "Up"-buffer, call _WriteBlocking
 373:/home/rdu/Workspace/project_templates/mcu/stm32_ws/src/modules/rtt/SEGGER_RTT.c **** */
 374:/home/rdu/Workspace/project_templates/mcu/stm32_ws/src/modules/rtt/SEGGER_RTT.c **** static void _WriteNoCheck(SEGGER_RTT_BUFFER_UP* pRing, const char* pData, unsigned NumBytes) {
 322              		.loc 1 374 0
 323              		.cfi_startproc
 324              		@ args = 0, pretend = 0, frame = 32
 325              		@ frame_needed = 0, uses_anonymous_args = 0
 326 0000 00B5     		push	{lr}
 327              	.LCFI5:
 328              		.cfi_def_cfa_offset 4
 329              		.cfi_offset 14, -4
 330 0002 89B0     		sub	sp, sp, #36
 331              	.LCFI6:
 332              		.cfi_def_cfa_offset 40
 333 0004 0390     		str	r0, [sp, #12]
 334 0006 0291     		str	r1, [sp, #8]
 335 0008 0192     		str	r2, [sp, #4]
 375:/home/rdu/Workspace/project_templates/mcu/stm32_ws/src/modules/rtt/SEGGER_RTT.c ****   unsigned NumBytesAtOnce;
 376:/home/rdu/Workspace/project_templates/mcu/stm32_ws/src/modules/rtt/SEGGER_RTT.c ****   unsigned WrOff;
 377:/home/rdu/Workspace/project_templates/mcu/stm32_ws/src/modules/rtt/SEGGER_RTT.c ****   unsigned Rem;
 378:/home/rdu/Workspace/project_templates/mcu/stm32_ws/src/modules/rtt/SEGGER_RTT.c **** 
 379:/home/rdu/Workspace/project_templates/mcu/stm32_ws/src/modules/rtt/SEGGER_RTT.c ****   WrOff = pRing->WrOff;
 336              		.loc 1 379 0
 337 000a 039B     		ldr	r3, [sp, #12]
 338 000c DB68     		ldr	r3, [r3, #12]
 339 000e 0793     		str	r3, [sp, #28]
 380:/home/rdu/Workspace/project_templates/mcu/stm32_ws/src/modules/rtt/SEGGER_RTT.c ****   Rem = pRing->SizeOfBuffer - WrOff;
 340              		.loc 1 380 0
 341 0010 039B     		ldr	r3, [sp, #12]
 342 0012 9A68     		ldr	r2, [r3, #8]
 343 0014 079B     		ldr	r3, [sp, #28]
 344 0016 D31A     		subs	r3, r2, r3
 345 0018 0693     		str	r3, [sp, #24]
 381:/home/rdu/Workspace/project_templates/mcu/stm32_ws/src/modules/rtt/SEGGER_RTT.c ****   if (Rem > NumBytes) {
 346              		.loc 1 381 0
 347 001a 069A     		ldr	r2, [sp, #24]
 348 001c 019B     		ldr	r3, [sp, #4]
 349 001e 9A42     		cmp	r2, r3
 350 0020 0ED9     		bls	.L11
 382:/home/rdu/Workspace/project_templates/mcu/stm32_ws/src/modules/rtt/SEGGER_RTT.c ****     //
 383:/home/rdu/Workspace/project_templates/mcu/stm32_ws/src/modules/rtt/SEGGER_RTT.c ****     // All data fits before wrap around
 384:/home/rdu/Workspace/project_templates/mcu/stm32_ws/src/modules/rtt/SEGGER_RTT.c ****     //
 385:/home/rdu/Workspace/project_templates/mcu/stm32_ws/src/modules/rtt/SEGGER_RTT.c ****     memcpy(pRing->pBuffer + WrOff, pData, NumBytes);
 351              		.loc 1 385 0
 352 0022 039B     		ldr	r3, [sp, #12]
 353 0024 5A68     		ldr	r2, [r3, #4]
 354 0026 079B     		ldr	r3, [sp, #28]
 355 0028 1344     		add	r3, r3, r2
 356 002a 019A     		ldr	r2, [sp, #4]
 357 002c 0299     		ldr	r1, [sp, #8]
 358 002e 1846     		mov	r0, r3
 359 0030 FFF7FEFF 		bl	memcpy
 386:/home/rdu/Workspace/project_templates/mcu/stm32_ws/src/modules/rtt/SEGGER_RTT.c ****     pRing->WrOff = WrOff + NumBytes;
 360              		.loc 1 386 0
 361 0034 079A     		ldr	r2, [sp, #28]
 362 0036 019B     		ldr	r3, [sp, #4]
 363 0038 1A44     		add	r2, r2, r3
 364 003a 039B     		ldr	r3, [sp, #12]
 365 003c DA60     		str	r2, [r3, #12]
 387:/home/rdu/Workspace/project_templates/mcu/stm32_ws/src/modules/rtt/SEGGER_RTT.c ****   } else {
 388:/home/rdu/Workspace/project_templates/mcu/stm32_ws/src/modules/rtt/SEGGER_RTT.c ****     //
 389:/home/rdu/Workspace/project_templates/mcu/stm32_ws/src/modules/rtt/SEGGER_RTT.c ****     // We reach the end of the buffer, so need to wrap around
 390:/home/rdu/Workspace/project_templates/mcu/stm32_ws/src/modules/rtt/SEGGER_RTT.c ****     //
 391:/home/rdu/Workspace/project_templates/mcu/stm32_ws/src/modules/rtt/SEGGER_RTT.c ****     NumBytesAtOnce = Rem;
 392:/home/rdu/Workspace/project_templates/mcu/stm32_ws/src/modules/rtt/SEGGER_RTT.c ****     memcpy(pRing->pBuffer + WrOff, pData, NumBytesAtOnce);
 393:/home/rdu/Workspace/project_templates/mcu/stm32_ws/src/modules/rtt/SEGGER_RTT.c ****     NumBytesAtOnce = NumBytes - Rem;
 394:/home/rdu/Workspace/project_templates/mcu/stm32_ws/src/modules/rtt/SEGGER_RTT.c ****     memcpy(pRing->pBuffer, pData + Rem, NumBytesAtOnce);
 395:/home/rdu/Workspace/project_templates/mcu/stm32_ws/src/modules/rtt/SEGGER_RTT.c ****     pRing->WrOff = NumBytesAtOnce;
 396:/home/rdu/Workspace/project_templates/mcu/stm32_ws/src/modules/rtt/SEGGER_RTT.c ****   }
 397:/home/rdu/Workspace/project_templates/mcu/stm32_ws/src/modules/rtt/SEGGER_RTT.c **** }
 366              		.loc 1 397 0
 367 003e 1AE0     		b	.L13
 368              	.L11:
 391:/home/rdu/Workspace/project_templates/mcu/stm32_ws/src/modules/rtt/SEGGER_RTT.c ****     memcpy(pRing->pBuffer + WrOff, pData, NumBytesAtOnce);
 369              		.loc 1 391 0
 370 0040 069B     		ldr	r3, [sp, #24]
 371 0042 0593     		str	r3, [sp, #20]
 392:/home/rdu/Workspace/project_templates/mcu/stm32_ws/src/modules/rtt/SEGGER_RTT.c ****     NumBytesAtOnce = NumBytes - Rem;
 372              		.loc 1 392 0
 373 0044 039B     		ldr	r3, [sp, #12]
 374 0046 5A68     		ldr	r2, [r3, #4]
 375 0048 079B     		ldr	r3, [sp, #28]
 376 004a 1344     		add	r3, r3, r2
 377 004c 059A     		ldr	r2, [sp, #20]
 378 004e 0299     		ldr	r1, [sp, #8]
 379 0050 1846     		mov	r0, r3
 380 0052 FFF7FEFF 		bl	memcpy
 393:/home/rdu/Workspace/project_templates/mcu/stm32_ws/src/modules/rtt/SEGGER_RTT.c ****     memcpy(pRing->pBuffer, pData + Rem, NumBytesAtOnce);
 381              		.loc 1 393 0
 382 0056 019A     		ldr	r2, [sp, #4]
 383 0058 069B     		ldr	r3, [sp, #24]
 384 005a D31A     		subs	r3, r2, r3
 385 005c 0593     		str	r3, [sp, #20]
 394:/home/rdu/Workspace/project_templates/mcu/stm32_ws/src/modules/rtt/SEGGER_RTT.c ****     pRing->WrOff = NumBytesAtOnce;
 386              		.loc 1 394 0
 387 005e 039B     		ldr	r3, [sp, #12]
 388 0060 5868     		ldr	r0, [r3, #4]
 389 0062 029A     		ldr	r2, [sp, #8]
 390 0064 069B     		ldr	r3, [sp, #24]
 391 0066 1344     		add	r3, r3, r2
 392 0068 059A     		ldr	r2, [sp, #20]
 393 006a 1946     		mov	r1, r3
 394 006c FFF7FEFF 		bl	memcpy
 395:/home/rdu/Workspace/project_templates/mcu/stm32_ws/src/modules/rtt/SEGGER_RTT.c ****   }
 395              		.loc 1 395 0
 396 0070 039B     		ldr	r3, [sp, #12]
 397 0072 059A     		ldr	r2, [sp, #20]
 398 0074 DA60     		str	r2, [r3, #12]
 399              	.L13:
 400              		.loc 1 397 0
 401 0076 00BF     		nop
 402 0078 09B0     		add	sp, sp, #36
 403              	.LCFI7:
 404              		.cfi_def_cfa_offset 4
 405              		@ sp needed
 406 007a 5DF804FB 		ldr	pc, [sp], #4
 407              		.cfi_endproc
 408              	.LFE2:
 410              		.section	.text._PostTerminalSwitch,"ax",%progbits
 411              		.align	1
 412              		.syntax unified
 413              		.thumb
 414              		.thumb_func
 415              		.fpu fpv4-sp-d16
 417              	_PostTerminalSwitch:
 418              	.LFB3:
 398:/home/rdu/Workspace/project_templates/mcu/stm32_ws/src/modules/rtt/SEGGER_RTT.c **** 
 399:/home/rdu/Workspace/project_templates/mcu/stm32_ws/src/modules/rtt/SEGGER_RTT.c **** /*********************************************************************
 400:/home/rdu/Workspace/project_templates/mcu/stm32_ws/src/modules/rtt/SEGGER_RTT.c **** *
 401:/home/rdu/Workspace/project_templates/mcu/stm32_ws/src/modules/rtt/SEGGER_RTT.c **** *       _PostTerminalSwitch()
 402:/home/rdu/Workspace/project_templates/mcu/stm32_ws/src/modules/rtt/SEGGER_RTT.c **** *
 403:/home/rdu/Workspace/project_templates/mcu/stm32_ws/src/modules/rtt/SEGGER_RTT.c **** *  Function description
 404:/home/rdu/Workspace/project_templates/mcu/stm32_ws/src/modules/rtt/SEGGER_RTT.c **** *    Switch terminal to the given terminal ID.  It is the caller's
 405:/home/rdu/Workspace/project_templates/mcu/stm32_ws/src/modules/rtt/SEGGER_RTT.c **** *    responsibility to ensure the terminal ID is correct and there is
 406:/home/rdu/Workspace/project_templates/mcu/stm32_ws/src/modules/rtt/SEGGER_RTT.c **** *    enough space in the buffer for this to complete successfully.
 407:/home/rdu/Workspace/project_templates/mcu/stm32_ws/src/modules/rtt/SEGGER_RTT.c **** *
 408:/home/rdu/Workspace/project_templates/mcu/stm32_ws/src/modules/rtt/SEGGER_RTT.c **** *  Parameters
 409:/home/rdu/Workspace/project_templates/mcu/stm32_ws/src/modules/rtt/SEGGER_RTT.c **** *    pRing        Ring buffer to post to.
 410:/home/rdu/Workspace/project_templates/mcu/stm32_ws/src/modules/rtt/SEGGER_RTT.c **** *    TerminalId   Terminal ID to switch to.
 411:/home/rdu/Workspace/project_templates/mcu/stm32_ws/src/modules/rtt/SEGGER_RTT.c **** */
 412:/home/rdu/Workspace/project_templates/mcu/stm32_ws/src/modules/rtt/SEGGER_RTT.c **** static void _PostTerminalSwitch(SEGGER_RTT_BUFFER_UP* pRing, unsigned char TerminalId) {
 419              		.loc 1 412 0
 420              		.cfi_startproc
 421              		@ args = 0, pretend = 0, frame = 16
 422              		@ frame_needed = 0, uses_anonymous_args = 0
 423 0000 00B5     		push	{lr}
 424              	.LCFI8:
 425              		.cfi_def_cfa_offset 4
 426              		.cfi_offset 14, -4
 427 0002 85B0     		sub	sp, sp, #20
 428              	.LCFI9:
 429              		.cfi_def_cfa_offset 24
 430 0004 0190     		str	r0, [sp, #4]
 431 0006 0B46     		mov	r3, r1
 432 0008 8DF80330 		strb	r3, [sp, #3]
 413:/home/rdu/Workspace/project_templates/mcu/stm32_ws/src/modules/rtt/SEGGER_RTT.c ****   char ac[2];
 414:/home/rdu/Workspace/project_templates/mcu/stm32_ws/src/modules/rtt/SEGGER_RTT.c **** 
 415:/home/rdu/Workspace/project_templates/mcu/stm32_ws/src/modules/rtt/SEGGER_RTT.c ****   ac[0] = 0xFFu;
 433              		.loc 1 415 0
 434 000c FF23     		movs	r3, #255
 435 000e 8DF80C30 		strb	r3, [sp, #12]
 416:/home/rdu/Workspace/project_templates/mcu/stm32_ws/src/modules/rtt/SEGGER_RTT.c ****   ac[1] = _aTerminalId[TerminalId];  // Caller made already sure that TerminalId does not exceed ou
 436              		.loc 1 416 0
 437 0012 9DF80330 		ldrb	r3, [sp, #3]	@ zero_extendqisi2
 438 0016 074A     		ldr	r2, .L15
 439 0018 D35C     		ldrb	r3, [r2, r3]	@ zero_extendqisi2
 440 001a 8DF80D30 		strb	r3, [sp, #13]
 417:/home/rdu/Workspace/project_templates/mcu/stm32_ws/src/modules/rtt/SEGGER_RTT.c ****   _WriteBlocking(pRing, ac, 2u);
 441              		.loc 1 417 0
 442 001e 03AB     		add	r3, sp, #12
 443 0020 0222     		movs	r2, #2
 444 0022 1946     		mov	r1, r3
 445 0024 0198     		ldr	r0, [sp, #4]
 446 0026 FFF7FEFF 		bl	_WriteBlocking
 418:/home/rdu/Workspace/project_templates/mcu/stm32_ws/src/modules/rtt/SEGGER_RTT.c **** }
 447              		.loc 1 418 0
 448 002a 00BF     		nop
 449 002c 05B0     		add	sp, sp, #20
 450              	.LCFI10:
 451              		.cfi_def_cfa_offset 4
 452              		@ sp needed
 453 002e 5DF804FB 		ldr	pc, [sp], #4
 454              	.L16:
 455 0032 00BF     		.align	2
 456              	.L15:
 457 0034 00000000 		.word	_aTerminalId
 458              		.cfi_endproc
 459              	.LFE3:
 461              		.section	.text._GetAvailWriteSpace,"ax",%progbits
 462              		.align	1
 463              		.syntax unified
 464              		.thumb
 465              		.thumb_func
 466              		.fpu fpv4-sp-d16
 468              	_GetAvailWriteSpace:
 469              	.LFB4:
 419:/home/rdu/Workspace/project_templates/mcu/stm32_ws/src/modules/rtt/SEGGER_RTT.c **** 
 420:/home/rdu/Workspace/project_templates/mcu/stm32_ws/src/modules/rtt/SEGGER_RTT.c **** /*********************************************************************
 421:/home/rdu/Workspace/project_templates/mcu/stm32_ws/src/modules/rtt/SEGGER_RTT.c **** *
 422:/home/rdu/Workspace/project_templates/mcu/stm32_ws/src/modules/rtt/SEGGER_RTT.c **** *       _GetAvailWriteSpace()
 423:/home/rdu/Workspace/project_templates/mcu/stm32_ws/src/modules/rtt/SEGGER_RTT.c **** *
 424:/home/rdu/Workspace/project_templates/mcu/stm32_ws/src/modules/rtt/SEGGER_RTT.c **** *  Function description
 425:/home/rdu/Workspace/project_templates/mcu/stm32_ws/src/modules/rtt/SEGGER_RTT.c **** *    Returns the number of bytes that can be written to the ring
 426:/home/rdu/Workspace/project_templates/mcu/stm32_ws/src/modules/rtt/SEGGER_RTT.c **** *    buffer without blocking.
 427:/home/rdu/Workspace/project_templates/mcu/stm32_ws/src/modules/rtt/SEGGER_RTT.c **** *
 428:/home/rdu/Workspace/project_templates/mcu/stm32_ws/src/modules/rtt/SEGGER_RTT.c **** *  Parameters
 429:/home/rdu/Workspace/project_templates/mcu/stm32_ws/src/modules/rtt/SEGGER_RTT.c **** *    pRing        Ring buffer to check.
 430:/home/rdu/Workspace/project_templates/mcu/stm32_ws/src/modules/rtt/SEGGER_RTT.c **** *
 431:/home/rdu/Workspace/project_templates/mcu/stm32_ws/src/modules/rtt/SEGGER_RTT.c **** *  Return value
 432:/home/rdu/Workspace/project_templates/mcu/stm32_ws/src/modules/rtt/SEGGER_RTT.c **** *    Number of bytes that are free in the buffer.
 433:/home/rdu/Workspace/project_templates/mcu/stm32_ws/src/modules/rtt/SEGGER_RTT.c **** */
 434:/home/rdu/Workspace/project_templates/mcu/stm32_ws/src/modules/rtt/SEGGER_RTT.c **** static unsigned _GetAvailWriteSpace(SEGGER_RTT_BUFFER_UP* pRing) {
 470              		.loc 1 434 0
 471              		.cfi_startproc
 472              		@ args = 0, pretend = 0, frame = 24
 473              		@ frame_needed = 0, uses_anonymous_args = 0
 474              		@ link register save eliminated.
 475 0000 86B0     		sub	sp, sp, #24
 476              	.LCFI11:
 477              		.cfi_def_cfa_offset 24
 478 0002 0190     		str	r0, [sp, #4]
 435:/home/rdu/Workspace/project_templates/mcu/stm32_ws/src/modules/rtt/SEGGER_RTT.c ****   unsigned RdOff;
 436:/home/rdu/Workspace/project_templates/mcu/stm32_ws/src/modules/rtt/SEGGER_RTT.c ****   unsigned WrOff;
 437:/home/rdu/Workspace/project_templates/mcu/stm32_ws/src/modules/rtt/SEGGER_RTT.c ****   unsigned r;
 438:/home/rdu/Workspace/project_templates/mcu/stm32_ws/src/modules/rtt/SEGGER_RTT.c ****   //
 439:/home/rdu/Workspace/project_templates/mcu/stm32_ws/src/modules/rtt/SEGGER_RTT.c ****   // Avoid warnings regarding volatile access order.  It's not a problem
 440:/home/rdu/Workspace/project_templates/mcu/stm32_ws/src/modules/rtt/SEGGER_RTT.c ****   // in this case, but dampen compiler enthusiasm.
 441:/home/rdu/Workspace/project_templates/mcu/stm32_ws/src/modules/rtt/SEGGER_RTT.c ****   //
 442:/home/rdu/Workspace/project_templates/mcu/stm32_ws/src/modules/rtt/SEGGER_RTT.c ****   RdOff = pRing->RdOff;
 479              		.loc 1 442 0
 480 0004 019B     		ldr	r3, [sp, #4]
 481 0006 1B69     		ldr	r3, [r3, #16]
 482 0008 0493     		str	r3, [sp, #16]
 443:/home/rdu/Workspace/project_templates/mcu/stm32_ws/src/modules/rtt/SEGGER_RTT.c ****   WrOff = pRing->WrOff;
 483              		.loc 1 443 0
 484 000a 019B     		ldr	r3, [sp, #4]
 485 000c DB68     		ldr	r3, [r3, #12]
 486 000e 0393     		str	r3, [sp, #12]
 444:/home/rdu/Workspace/project_templates/mcu/stm32_ws/src/modules/rtt/SEGGER_RTT.c ****   if (RdOff <= WrOff) {
 487              		.loc 1 444 0
 488 0010 049A     		ldr	r2, [sp, #16]
 489 0012 039B     		ldr	r3, [sp, #12]
 490 0014 9A42     		cmp	r2, r3
 491 0016 08D8     		bhi	.L18
 445:/home/rdu/Workspace/project_templates/mcu/stm32_ws/src/modules/rtt/SEGGER_RTT.c ****     r = pRing->SizeOfBuffer - 1u - WrOff + RdOff;
 492              		.loc 1 445 0
 493 0018 019B     		ldr	r3, [sp, #4]
 494 001a 9A68     		ldr	r2, [r3, #8]
 495 001c 039B     		ldr	r3, [sp, #12]
 496 001e D21A     		subs	r2, r2, r3
 497 0020 049B     		ldr	r3, [sp, #16]
 498 0022 1344     		add	r3, r3, r2
 499 0024 013B     		subs	r3, r3, #1
 500 0026 0593     		str	r3, [sp, #20]
 501 0028 04E0     		b	.L19
 502              	.L18:
 446:/home/rdu/Workspace/project_templates/mcu/stm32_ws/src/modules/rtt/SEGGER_RTT.c ****   } else {
 447:/home/rdu/Workspace/project_templates/mcu/stm32_ws/src/modules/rtt/SEGGER_RTT.c ****     r = RdOff - WrOff - 1u;
 503              		.loc 1 447 0
 504 002a 049A     		ldr	r2, [sp, #16]
 505 002c 039B     		ldr	r3, [sp, #12]
 506 002e D31A     		subs	r3, r2, r3
 507 0030 013B     		subs	r3, r3, #1
 508 0032 0593     		str	r3, [sp, #20]
 509              	.L19:
 448:/home/rdu/Workspace/project_templates/mcu/stm32_ws/src/modules/rtt/SEGGER_RTT.c ****   }
 449:/home/rdu/Workspace/project_templates/mcu/stm32_ws/src/modules/rtt/SEGGER_RTT.c ****   return r;
 510              		.loc 1 449 0
 511 0034 059B     		ldr	r3, [sp, #20]
 450:/home/rdu/Workspace/project_templates/mcu/stm32_ws/src/modules/rtt/SEGGER_RTT.c **** }
 512              		.loc 1 450 0
 513 0036 1846     		mov	r0, r3
 514 0038 06B0     		add	sp, sp, #24
 515              	.LCFI12:
 516              		.cfi_def_cfa_offset 0
 517              		@ sp needed
 518 003a 7047     		bx	lr
 519              		.cfi_endproc
 520              	.LFE4:
 522              		.section	.text.SEGGER_RTT_ReadNoLock,"ax",%progbits
 523              		.align	1
 524              		.global	SEGGER_RTT_ReadNoLock
 525              		.syntax unified
 526              		.thumb
 527              		.thumb_func
 528              		.fpu fpv4-sp-d16
 530              	SEGGER_RTT_ReadNoLock:
 531              	.LFB5:
 451:/home/rdu/Workspace/project_templates/mcu/stm32_ws/src/modules/rtt/SEGGER_RTT.c **** 
 452:/home/rdu/Workspace/project_templates/mcu/stm32_ws/src/modules/rtt/SEGGER_RTT.c **** /*********************************************************************
 453:/home/rdu/Workspace/project_templates/mcu/stm32_ws/src/modules/rtt/SEGGER_RTT.c **** *
 454:/home/rdu/Workspace/project_templates/mcu/stm32_ws/src/modules/rtt/SEGGER_RTT.c **** *       Public code
 455:/home/rdu/Workspace/project_templates/mcu/stm32_ws/src/modules/rtt/SEGGER_RTT.c **** *
 456:/home/rdu/Workspace/project_templates/mcu/stm32_ws/src/modules/rtt/SEGGER_RTT.c **** **********************************************************************
 457:/home/rdu/Workspace/project_templates/mcu/stm32_ws/src/modules/rtt/SEGGER_RTT.c **** */
 458:/home/rdu/Workspace/project_templates/mcu/stm32_ws/src/modules/rtt/SEGGER_RTT.c **** /*********************************************************************
 459:/home/rdu/Workspace/project_templates/mcu/stm32_ws/src/modules/rtt/SEGGER_RTT.c **** *
 460:/home/rdu/Workspace/project_templates/mcu/stm32_ws/src/modules/rtt/SEGGER_RTT.c **** *       SEGGER_RTT_ReadNoLock()
 461:/home/rdu/Workspace/project_templates/mcu/stm32_ws/src/modules/rtt/SEGGER_RTT.c **** *
 462:/home/rdu/Workspace/project_templates/mcu/stm32_ws/src/modules/rtt/SEGGER_RTT.c **** *  Function description
 463:/home/rdu/Workspace/project_templates/mcu/stm32_ws/src/modules/rtt/SEGGER_RTT.c **** *    Reads characters from SEGGER real-time-terminal control block
 464:/home/rdu/Workspace/project_templates/mcu/stm32_ws/src/modules/rtt/SEGGER_RTT.c **** *    which have been previously stored by the host.
 465:/home/rdu/Workspace/project_templates/mcu/stm32_ws/src/modules/rtt/SEGGER_RTT.c **** *    Do not lock against interrupts and multiple access.
 466:/home/rdu/Workspace/project_templates/mcu/stm32_ws/src/modules/rtt/SEGGER_RTT.c **** *
 467:/home/rdu/Workspace/project_templates/mcu/stm32_ws/src/modules/rtt/SEGGER_RTT.c **** *  Parameters
 468:/home/rdu/Workspace/project_templates/mcu/stm32_ws/src/modules/rtt/SEGGER_RTT.c **** *    BufferIndex  Index of Down-buffer to be used (e.g. 0 for "Terminal").
 469:/home/rdu/Workspace/project_templates/mcu/stm32_ws/src/modules/rtt/SEGGER_RTT.c **** *    pBuffer      Pointer to buffer provided by target application, to copy characters from RTT-dow
 470:/home/rdu/Workspace/project_templates/mcu/stm32_ws/src/modules/rtt/SEGGER_RTT.c **** *    BufferSize   Size of the target application buffer.
 471:/home/rdu/Workspace/project_templates/mcu/stm32_ws/src/modules/rtt/SEGGER_RTT.c **** *
 472:/home/rdu/Workspace/project_templates/mcu/stm32_ws/src/modules/rtt/SEGGER_RTT.c **** *  Return value
 473:/home/rdu/Workspace/project_templates/mcu/stm32_ws/src/modules/rtt/SEGGER_RTT.c **** *    Number of bytes that have been read.
 474:/home/rdu/Workspace/project_templates/mcu/stm32_ws/src/modules/rtt/SEGGER_RTT.c **** */
 475:/home/rdu/Workspace/project_templates/mcu/stm32_ws/src/modules/rtt/SEGGER_RTT.c **** unsigned SEGGER_RTT_ReadNoLock(unsigned BufferIndex, void* pData, unsigned BufferSize) {
 532              		.loc 1 475 0
 533              		.cfi_startproc
 534              		@ args = 0, pretend = 0, frame = 40
 535              		@ frame_needed = 0, uses_anonymous_args = 0
 536 0000 00B5     		push	{lr}
 537              	.LCFI13:
 538              		.cfi_def_cfa_offset 4
 539              		.cfi_offset 14, -4
 540 0002 8BB0     		sub	sp, sp, #44
 541              	.LCFI14:
 542              		.cfi_def_cfa_offset 48
 543 0004 0390     		str	r0, [sp, #12]
 544 0006 0291     		str	r1, [sp, #8]
 545 0008 0192     		str	r2, [sp, #4]
 476:/home/rdu/Workspace/project_templates/mcu/stm32_ws/src/modules/rtt/SEGGER_RTT.c ****   unsigned                NumBytesRem;
 477:/home/rdu/Workspace/project_templates/mcu/stm32_ws/src/modules/rtt/SEGGER_RTT.c ****   unsigned                NumBytesRead;
 478:/home/rdu/Workspace/project_templates/mcu/stm32_ws/src/modules/rtt/SEGGER_RTT.c ****   unsigned                RdOff;
 479:/home/rdu/Workspace/project_templates/mcu/stm32_ws/src/modules/rtt/SEGGER_RTT.c ****   unsigned                WrOff;
 480:/home/rdu/Workspace/project_templates/mcu/stm32_ws/src/modules/rtt/SEGGER_RTT.c ****   unsigned char*          pBuffer;
 481:/home/rdu/Workspace/project_templates/mcu/stm32_ws/src/modules/rtt/SEGGER_RTT.c ****   SEGGER_RTT_BUFFER_DOWN* pRing;
 482:/home/rdu/Workspace/project_templates/mcu/stm32_ws/src/modules/rtt/SEGGER_RTT.c ****   //
 483:/home/rdu/Workspace/project_templates/mcu/stm32_ws/src/modules/rtt/SEGGER_RTT.c ****   INIT();
 546              		.loc 1 483 0
 547 000a 3C4B     		ldr	r3, .L27
 548 000c 1B78     		ldrb	r3, [r3]	@ zero_extendqisi2
 549 000e 002B     		cmp	r3, #0
 550 0010 01D1     		bne	.L22
 551              		.loc 1 483 0 is_stmt 0 discriminator 1
 552 0012 FFF7FEFF 		bl	_DoInit
 553              	.L22:
 484:/home/rdu/Workspace/project_templates/mcu/stm32_ws/src/modules/rtt/SEGGER_RTT.c ****   pRing = &_SEGGER_RTT.aDown[BufferIndex];
 554              		.loc 1 484 0 is_stmt 1
 555 0016 039A     		ldr	r2, [sp, #12]
 556 0018 1346     		mov	r3, r2
 557 001a 5B00     		lsls	r3, r3, #1
 558 001c 1344     		add	r3, r3, r2
 559 001e DB00     		lsls	r3, r3, #3
 560 0020 6033     		adds	r3, r3, #96
 561 0022 364A     		ldr	r2, .L27
 562 0024 1344     		add	r3, r3, r2
 563 0026 0693     		str	r3, [sp, #24]
 485:/home/rdu/Workspace/project_templates/mcu/stm32_ws/src/modules/rtt/SEGGER_RTT.c ****   pBuffer = (unsigned char*)pData;
 564              		.loc 1 485 0
 565 0028 029B     		ldr	r3, [sp, #8]
 566 002a 0793     		str	r3, [sp, #28]
 486:/home/rdu/Workspace/project_templates/mcu/stm32_ws/src/modules/rtt/SEGGER_RTT.c ****   RdOff = pRing->RdOff;
 567              		.loc 1 486 0
 568 002c 069B     		ldr	r3, [sp, #24]
 569 002e 1B69     		ldr	r3, [r3, #16]
 570 0030 0893     		str	r3, [sp, #32]
 487:/home/rdu/Workspace/project_templates/mcu/stm32_ws/src/modules/rtt/SEGGER_RTT.c ****   WrOff = pRing->WrOff;
 571              		.loc 1 487 0
 572 0032 069B     		ldr	r3, [sp, #24]
 573 0034 DB68     		ldr	r3, [r3, #12]
 574 0036 0593     		str	r3, [sp, #20]
 488:/home/rdu/Workspace/project_templates/mcu/stm32_ws/src/modules/rtt/SEGGER_RTT.c ****   NumBytesRead = 0u;
 575              		.loc 1 488 0
 576 0038 0023     		movs	r3, #0
 577 003a 0993     		str	r3, [sp, #36]
 489:/home/rdu/Workspace/project_templates/mcu/stm32_ws/src/modules/rtt/SEGGER_RTT.c ****   //
 490:/home/rdu/Workspace/project_templates/mcu/stm32_ws/src/modules/rtt/SEGGER_RTT.c ****   // Read from current read position to wrap-around of buffer, first
 491:/home/rdu/Workspace/project_templates/mcu/stm32_ws/src/modules/rtt/SEGGER_RTT.c ****   //
 492:/home/rdu/Workspace/project_templates/mcu/stm32_ws/src/modules/rtt/SEGGER_RTT.c ****   if (RdOff > WrOff) {
 578              		.loc 1 492 0
 579 003c 089A     		ldr	r2, [sp, #32]
 580 003e 059B     		ldr	r3, [sp, #20]
 581 0040 9A42     		cmp	r2, r3
 582 0042 2AD9     		bls	.L23
 493:/home/rdu/Workspace/project_templates/mcu/stm32_ws/src/modules/rtt/SEGGER_RTT.c ****     NumBytesRem = pRing->SizeOfBuffer - RdOff;
 583              		.loc 1 493 0
 584 0044 069B     		ldr	r3, [sp, #24]
 585 0046 9A68     		ldr	r2, [r3, #8]
 586 0048 089B     		ldr	r3, [sp, #32]
 587 004a D31A     		subs	r3, r2, r3
 588 004c 0493     		str	r3, [sp, #16]
 494:/home/rdu/Workspace/project_templates/mcu/stm32_ws/src/modules/rtt/SEGGER_RTT.c ****     NumBytesRem = MIN(NumBytesRem, BufferSize);
 589              		.loc 1 494 0
 590 004e 049A     		ldr	r2, [sp, #16]
 591 0050 019B     		ldr	r3, [sp, #4]
 592 0052 9342     		cmp	r3, r2
 593 0054 28BF     		it	cs
 594 0056 1346     		movcs	r3, r2
 595 0058 0493     		str	r3, [sp, #16]
 495:/home/rdu/Workspace/project_templates/mcu/stm32_ws/src/modules/rtt/SEGGER_RTT.c ****     memcpy(pBuffer, pRing->pBuffer + RdOff, NumBytesRem);
 596              		.loc 1 495 0
 597 005a 069B     		ldr	r3, [sp, #24]
 598 005c 5A68     		ldr	r2, [r3, #4]
 599 005e 089B     		ldr	r3, [sp, #32]
 600 0060 1344     		add	r3, r3, r2
 601 0062 049A     		ldr	r2, [sp, #16]
 602 0064 1946     		mov	r1, r3
 603 0066 0798     		ldr	r0, [sp, #28]
 604 0068 FFF7FEFF 		bl	memcpy
 496:/home/rdu/Workspace/project_templates/mcu/stm32_ws/src/modules/rtt/SEGGER_RTT.c ****     NumBytesRead += NumBytesRem;
 605              		.loc 1 496 0
 606 006c 099A     		ldr	r2, [sp, #36]
 607 006e 049B     		ldr	r3, [sp, #16]
 608 0070 1344     		add	r3, r3, r2
 609 0072 0993     		str	r3, [sp, #36]
 497:/home/rdu/Workspace/project_templates/mcu/stm32_ws/src/modules/rtt/SEGGER_RTT.c ****     pBuffer      += NumBytesRem;
 610              		.loc 1 497 0
 611 0074 079A     		ldr	r2, [sp, #28]
 612 0076 049B     		ldr	r3, [sp, #16]
 613 0078 1344     		add	r3, r3, r2
 614 007a 0793     		str	r3, [sp, #28]
 498:/home/rdu/Workspace/project_templates/mcu/stm32_ws/src/modules/rtt/SEGGER_RTT.c ****     BufferSize   -= NumBytesRem;
 615              		.loc 1 498 0
 616 007c 019A     		ldr	r2, [sp, #4]
 617 007e 049B     		ldr	r3, [sp, #16]
 618 0080 D31A     		subs	r3, r2, r3
 619 0082 0193     		str	r3, [sp, #4]
 499:/home/rdu/Workspace/project_templates/mcu/stm32_ws/src/modules/rtt/SEGGER_RTT.c ****     RdOff        += NumBytesRem;
 620              		.loc 1 499 0
 621 0084 089A     		ldr	r2, [sp, #32]
 622 0086 049B     		ldr	r3, [sp, #16]
 623 0088 1344     		add	r3, r3, r2
 624 008a 0893     		str	r3, [sp, #32]
 500:/home/rdu/Workspace/project_templates/mcu/stm32_ws/src/modules/rtt/SEGGER_RTT.c ****     //
 501:/home/rdu/Workspace/project_templates/mcu/stm32_ws/src/modules/rtt/SEGGER_RTT.c ****     // Handle wrap-around of buffer
 502:/home/rdu/Workspace/project_templates/mcu/stm32_ws/src/modules/rtt/SEGGER_RTT.c ****     //
 503:/home/rdu/Workspace/project_templates/mcu/stm32_ws/src/modules/rtt/SEGGER_RTT.c ****     if (RdOff == pRing->SizeOfBuffer) {
 625              		.loc 1 503 0
 626 008c 069B     		ldr	r3, [sp, #24]
 627 008e 9B68     		ldr	r3, [r3, #8]
 628 0090 089A     		ldr	r2, [sp, #32]
 629 0092 9A42     		cmp	r2, r3
 630 0094 01D1     		bne	.L23
 504:/home/rdu/Workspace/project_templates/mcu/stm32_ws/src/modules/rtt/SEGGER_RTT.c ****       RdOff = 0u;
 631              		.loc 1 504 0
 632 0096 0023     		movs	r3, #0
 633 0098 0893     		str	r3, [sp, #32]
 634              	.L23:
 505:/home/rdu/Workspace/project_templates/mcu/stm32_ws/src/modules/rtt/SEGGER_RTT.c ****     }
 506:/home/rdu/Workspace/project_templates/mcu/stm32_ws/src/modules/rtt/SEGGER_RTT.c ****   }
 507:/home/rdu/Workspace/project_templates/mcu/stm32_ws/src/modules/rtt/SEGGER_RTT.c ****   //
 508:/home/rdu/Workspace/project_templates/mcu/stm32_ws/src/modules/rtt/SEGGER_RTT.c ****   // Read remaining items of buffer
 509:/home/rdu/Workspace/project_templates/mcu/stm32_ws/src/modules/rtt/SEGGER_RTT.c ****   //
 510:/home/rdu/Workspace/project_templates/mcu/stm32_ws/src/modules/rtt/SEGGER_RTT.c ****   NumBytesRem = WrOff - RdOff;
 635              		.loc 1 510 0
 636 009a 059A     		ldr	r2, [sp, #20]
 637 009c 089B     		ldr	r3, [sp, #32]
 638 009e D31A     		subs	r3, r2, r3
 639 00a0 0493     		str	r3, [sp, #16]
 511:/home/rdu/Workspace/project_templates/mcu/stm32_ws/src/modules/rtt/SEGGER_RTT.c ****   NumBytesRem = MIN(NumBytesRem, BufferSize);
 640              		.loc 1 511 0
 641 00a2 049A     		ldr	r2, [sp, #16]
 642 00a4 019B     		ldr	r3, [sp, #4]
 643 00a6 9342     		cmp	r3, r2
 644 00a8 28BF     		it	cs
 645 00aa 1346     		movcs	r3, r2
 646 00ac 0493     		str	r3, [sp, #16]
 512:/home/rdu/Workspace/project_templates/mcu/stm32_ws/src/modules/rtt/SEGGER_RTT.c ****   if (NumBytesRem > 0u) {
 647              		.loc 1 512 0
 648 00ae 049B     		ldr	r3, [sp, #16]
 649 00b0 002B     		cmp	r3, #0
 650 00b2 18D0     		beq	.L24
 513:/home/rdu/Workspace/project_templates/mcu/stm32_ws/src/modules/rtt/SEGGER_RTT.c ****     memcpy(pBuffer, pRing->pBuffer + RdOff, NumBytesRem);
 651              		.loc 1 513 0
 652 00b4 069B     		ldr	r3, [sp, #24]
 653 00b6 5A68     		ldr	r2, [r3, #4]
 654 00b8 089B     		ldr	r3, [sp, #32]
 655 00ba 1344     		add	r3, r3, r2
 656 00bc 049A     		ldr	r2, [sp, #16]
 657 00be 1946     		mov	r1, r3
 658 00c0 0798     		ldr	r0, [sp, #28]
 659 00c2 FFF7FEFF 		bl	memcpy
 514:/home/rdu/Workspace/project_templates/mcu/stm32_ws/src/modules/rtt/SEGGER_RTT.c ****     NumBytesRead += NumBytesRem;
 660              		.loc 1 514 0
 661 00c6 099A     		ldr	r2, [sp, #36]
 662 00c8 049B     		ldr	r3, [sp, #16]
 663 00ca 1344     		add	r3, r3, r2
 664 00cc 0993     		str	r3, [sp, #36]
 515:/home/rdu/Workspace/project_templates/mcu/stm32_ws/src/modules/rtt/SEGGER_RTT.c ****     pBuffer      += NumBytesRem;
 665              		.loc 1 515 0
 666 00ce 079A     		ldr	r2, [sp, #28]
 667 00d0 049B     		ldr	r3, [sp, #16]
 668 00d2 1344     		add	r3, r3, r2
 669 00d4 0793     		str	r3, [sp, #28]
 516:/home/rdu/Workspace/project_templates/mcu/stm32_ws/src/modules/rtt/SEGGER_RTT.c ****     BufferSize   -= NumBytesRem;
 670              		.loc 1 516 0
 671 00d6 019A     		ldr	r2, [sp, #4]
 672 00d8 049B     		ldr	r3, [sp, #16]
 673 00da D31A     		subs	r3, r2, r3
 674 00dc 0193     		str	r3, [sp, #4]
 517:/home/rdu/Workspace/project_templates/mcu/stm32_ws/src/modules/rtt/SEGGER_RTT.c ****     RdOff        += NumBytesRem;
 675              		.loc 1 517 0
 676 00de 089A     		ldr	r2, [sp, #32]
 677 00e0 049B     		ldr	r3, [sp, #16]
 678 00e2 1344     		add	r3, r3, r2
 679 00e4 0893     		str	r3, [sp, #32]
 680              	.L24:
 518:/home/rdu/Workspace/project_templates/mcu/stm32_ws/src/modules/rtt/SEGGER_RTT.c ****   }
 519:/home/rdu/Workspace/project_templates/mcu/stm32_ws/src/modules/rtt/SEGGER_RTT.c ****   if (NumBytesRead) {
 681              		.loc 1 519 0
 682 00e6 099B     		ldr	r3, [sp, #36]
 683 00e8 002B     		cmp	r3, #0
 684 00ea 02D0     		beq	.L25
 520:/home/rdu/Workspace/project_templates/mcu/stm32_ws/src/modules/rtt/SEGGER_RTT.c ****     pRing->RdOff = RdOff;
 685              		.loc 1 520 0
 686 00ec 069B     		ldr	r3, [sp, #24]
 687 00ee 089A     		ldr	r2, [sp, #32]
 688 00f0 1A61     		str	r2, [r3, #16]
 689              	.L25:
 521:/home/rdu/Workspace/project_templates/mcu/stm32_ws/src/modules/rtt/SEGGER_RTT.c ****   }
 522:/home/rdu/Workspace/project_templates/mcu/stm32_ws/src/modules/rtt/SEGGER_RTT.c ****   //
 523:/home/rdu/Workspace/project_templates/mcu/stm32_ws/src/modules/rtt/SEGGER_RTT.c ****   return NumBytesRead;
 690              		.loc 1 523 0
 691 00f2 099B     		ldr	r3, [sp, #36]
 524:/home/rdu/Workspace/project_templates/mcu/stm32_ws/src/modules/rtt/SEGGER_RTT.c **** }
 692              		.loc 1 524 0
 693 00f4 1846     		mov	r0, r3
 694 00f6 0BB0     		add	sp, sp, #44
 695              	.LCFI15:
 696              		.cfi_def_cfa_offset 4
 697              		@ sp needed
 698 00f8 5DF804FB 		ldr	pc, [sp], #4
 699              	.L28:
 700              		.align	2
 701              	.L27:
 702 00fc 00000000 		.word	_SEGGER_RTT
 703              		.cfi_endproc
 704              	.LFE5:
 706              		.section	.text.SEGGER_RTT_Read,"ax",%progbits
 707              		.align	1
 708              		.global	SEGGER_RTT_Read
 709              		.syntax unified
 710              		.thumb
 711              		.thumb_func
 712              		.fpu fpv4-sp-d16
 714              	SEGGER_RTT_Read:
 715              	.LFB6:
 525:/home/rdu/Workspace/project_templates/mcu/stm32_ws/src/modules/rtt/SEGGER_RTT.c **** 
 526:/home/rdu/Workspace/project_templates/mcu/stm32_ws/src/modules/rtt/SEGGER_RTT.c **** /*********************************************************************
 527:/home/rdu/Workspace/project_templates/mcu/stm32_ws/src/modules/rtt/SEGGER_RTT.c **** *
 528:/home/rdu/Workspace/project_templates/mcu/stm32_ws/src/modules/rtt/SEGGER_RTT.c **** *       SEGGER_RTT_Read
 529:/home/rdu/Workspace/project_templates/mcu/stm32_ws/src/modules/rtt/SEGGER_RTT.c **** *
 530:/home/rdu/Workspace/project_templates/mcu/stm32_ws/src/modules/rtt/SEGGER_RTT.c **** *  Function description
 531:/home/rdu/Workspace/project_templates/mcu/stm32_ws/src/modules/rtt/SEGGER_RTT.c **** *    Reads characters from SEGGER real-time-terminal control block
 532:/home/rdu/Workspace/project_templates/mcu/stm32_ws/src/modules/rtt/SEGGER_RTT.c **** *    which have been previously stored by the host.
 533:/home/rdu/Workspace/project_templates/mcu/stm32_ws/src/modules/rtt/SEGGER_RTT.c **** *
 534:/home/rdu/Workspace/project_templates/mcu/stm32_ws/src/modules/rtt/SEGGER_RTT.c **** *  Parameters
 535:/home/rdu/Workspace/project_templates/mcu/stm32_ws/src/modules/rtt/SEGGER_RTT.c **** *    BufferIndex  Index of Down-buffer to be used (e.g. 0 for "Terminal").
 536:/home/rdu/Workspace/project_templates/mcu/stm32_ws/src/modules/rtt/SEGGER_RTT.c **** *    pBuffer      Pointer to buffer provided by target application, to copy characters from RTT-dow
 537:/home/rdu/Workspace/project_templates/mcu/stm32_ws/src/modules/rtt/SEGGER_RTT.c **** *    BufferSize   Size of the target application buffer.
 538:/home/rdu/Workspace/project_templates/mcu/stm32_ws/src/modules/rtt/SEGGER_RTT.c **** *
 539:/home/rdu/Workspace/project_templates/mcu/stm32_ws/src/modules/rtt/SEGGER_RTT.c **** *  Return value
 540:/home/rdu/Workspace/project_templates/mcu/stm32_ws/src/modules/rtt/SEGGER_RTT.c **** *    Number of bytes that have been read.
 541:/home/rdu/Workspace/project_templates/mcu/stm32_ws/src/modules/rtt/SEGGER_RTT.c **** */
 542:/home/rdu/Workspace/project_templates/mcu/stm32_ws/src/modules/rtt/SEGGER_RTT.c **** unsigned SEGGER_RTT_Read(unsigned BufferIndex, void* pBuffer, unsigned BufferSize) {
 716              		.loc 1 542 0
 717              		.cfi_startproc
 718              		@ args = 0, pretend = 0, frame = 24
 719              		@ frame_needed = 0, uses_anonymous_args = 0
 720 0000 00B5     		push	{lr}
 721              	.LCFI16:
 722              		.cfi_def_cfa_offset 4
 723              		.cfi_offset 14, -4
 724 0002 87B0     		sub	sp, sp, #28
 725              	.LCFI17:
 726              		.cfi_def_cfa_offset 32
 727 0004 0390     		str	r0, [sp, #12]
 728 0006 0291     		str	r1, [sp, #8]
 729 0008 0192     		str	r2, [sp, #4]
 730              	.LBB2:
 543:/home/rdu/Workspace/project_templates/mcu/stm32_ws/src/modules/rtt/SEGGER_RTT.c ****   unsigned NumBytesRead;
 544:/home/rdu/Workspace/project_templates/mcu/stm32_ws/src/modules/rtt/SEGGER_RTT.c ****   //
 545:/home/rdu/Workspace/project_templates/mcu/stm32_ws/src/modules/rtt/SEGGER_RTT.c ****   SEGGER_RTT_LOCK();
 731              		.loc 1 545 0
 732              		.syntax unified
 733              	@ 545 "/home/rdu/Workspace/project_templates/mcu/stm32_ws/src/modules/rtt/SEGGER_RTT.c" 1
 734 000a EFF31183 		mrs   r3, basepri  
 735 000e 4FF02001 		mov   r1, #32       
 736 0012 81F31188 		msr   basepri, r1  
 737              		
 738              	@ 0 "" 2
 739              		.thumb
 740              		.syntax unified
 741 0016 0593     		str	r3, [sp, #20]
 546:/home/rdu/Workspace/project_templates/mcu/stm32_ws/src/modules/rtt/SEGGER_RTT.c ****   //
 547:/home/rdu/Workspace/project_templates/mcu/stm32_ws/src/modules/rtt/SEGGER_RTT.c ****   // Call the non-locking read function
 548:/home/rdu/Workspace/project_templates/mcu/stm32_ws/src/modules/rtt/SEGGER_RTT.c ****   //
 549:/home/rdu/Workspace/project_templates/mcu/stm32_ws/src/modules/rtt/SEGGER_RTT.c ****   NumBytesRead = SEGGER_RTT_ReadNoLock(BufferIndex, pBuffer, BufferSize);
 742              		.loc 1 549 0
 743 0018 019A     		ldr	r2, [sp, #4]
 744 001a 0299     		ldr	r1, [sp, #8]
 745 001c 0398     		ldr	r0, [sp, #12]
 746 001e FFF7FEFF 		bl	SEGGER_RTT_ReadNoLock
 747 0022 0490     		str	r0, [sp, #16]
 550:/home/rdu/Workspace/project_templates/mcu/stm32_ws/src/modules/rtt/SEGGER_RTT.c ****   //
 551:/home/rdu/Workspace/project_templates/mcu/stm32_ws/src/modules/rtt/SEGGER_RTT.c ****   // Finish up.
 552:/home/rdu/Workspace/project_templates/mcu/stm32_ws/src/modules/rtt/SEGGER_RTT.c ****   //
 553:/home/rdu/Workspace/project_templates/mcu/stm32_ws/src/modules/rtt/SEGGER_RTT.c ****   SEGGER_RTT_UNLOCK();
 748              		.loc 1 553 0
 749 0024 059B     		ldr	r3, [sp, #20]
 750              		.syntax unified
 751              	@ 553 "/home/rdu/Workspace/project_templates/mcu/stm32_ws/src/modules/rtt/SEGGER_RTT.c" 1
 752 0026 83F31188 		msr   basepri, r3  
 753              		
 754              	@ 0 "" 2
 755              		.thumb
 756              		.syntax unified
 757              	.LBE2:
 554:/home/rdu/Workspace/project_templates/mcu/stm32_ws/src/modules/rtt/SEGGER_RTT.c ****   //
 555:/home/rdu/Workspace/project_templates/mcu/stm32_ws/src/modules/rtt/SEGGER_RTT.c ****   return NumBytesRead;
 758              		.loc 1 555 0
 759 002a 049B     		ldr	r3, [sp, #16]
 556:/home/rdu/Workspace/project_templates/mcu/stm32_ws/src/modules/rtt/SEGGER_RTT.c **** }
 760              		.loc 1 556 0
 761 002c 1846     		mov	r0, r3
 762 002e 07B0     		add	sp, sp, #28
 763              	.LCFI18:
 764              		.cfi_def_cfa_offset 4
 765              		@ sp needed
 766 0030 5DF804FB 		ldr	pc, [sp], #4
 767              		.cfi_endproc
 768              	.LFE6:
 770              		.section	.text.SEGGER_RTT_WriteWithOverwriteNoLock,"ax",%progbits
 771              		.align	1
 772              		.global	SEGGER_RTT_WriteWithOverwriteNoLock
 773              		.syntax unified
 774              		.thumb
 775              		.thumb_func
 776              		.fpu fpv4-sp-d16
 778              	SEGGER_RTT_WriteWithOverwriteNoLock:
 779              	.LFB7:
 557:/home/rdu/Workspace/project_templates/mcu/stm32_ws/src/modules/rtt/SEGGER_RTT.c **** 
 558:/home/rdu/Workspace/project_templates/mcu/stm32_ws/src/modules/rtt/SEGGER_RTT.c **** /*********************************************************************
 559:/home/rdu/Workspace/project_templates/mcu/stm32_ws/src/modules/rtt/SEGGER_RTT.c **** *
 560:/home/rdu/Workspace/project_templates/mcu/stm32_ws/src/modules/rtt/SEGGER_RTT.c **** *       SEGGER_RTT_WriteWithOverwriteNoLock
 561:/home/rdu/Workspace/project_templates/mcu/stm32_ws/src/modules/rtt/SEGGER_RTT.c **** *
 562:/home/rdu/Workspace/project_templates/mcu/stm32_ws/src/modules/rtt/SEGGER_RTT.c **** *  Function description
 563:/home/rdu/Workspace/project_templates/mcu/stm32_ws/src/modules/rtt/SEGGER_RTT.c **** *    Stores a specified number of characters in SEGGER RTT
 564:/home/rdu/Workspace/project_templates/mcu/stm32_ws/src/modules/rtt/SEGGER_RTT.c **** *    control block.
 565:/home/rdu/Workspace/project_templates/mcu/stm32_ws/src/modules/rtt/SEGGER_RTT.c **** *    SEGGER_RTT_WriteWithOverwriteNoLock does not lock the application 
 566:/home/rdu/Workspace/project_templates/mcu/stm32_ws/src/modules/rtt/SEGGER_RTT.c **** *    and overwrites data if the data does not fit into the buffer.
 567:/home/rdu/Workspace/project_templates/mcu/stm32_ws/src/modules/rtt/SEGGER_RTT.c **** *
 568:/home/rdu/Workspace/project_templates/mcu/stm32_ws/src/modules/rtt/SEGGER_RTT.c **** *  Parameters
 569:/home/rdu/Workspace/project_templates/mcu/stm32_ws/src/modules/rtt/SEGGER_RTT.c **** *    BufferIndex  Index of "Up"-buffer to be used (e.g. 0 for "Terminal").
 570:/home/rdu/Workspace/project_templates/mcu/stm32_ws/src/modules/rtt/SEGGER_RTT.c **** *    pBuffer      Pointer to character array. Does not need to point to a \0 terminated string.
 571:/home/rdu/Workspace/project_templates/mcu/stm32_ws/src/modules/rtt/SEGGER_RTT.c **** *    NumBytes     Number of bytes to be stored in the SEGGER RTT control block.
 572:/home/rdu/Workspace/project_templates/mcu/stm32_ws/src/modules/rtt/SEGGER_RTT.c **** *
 573:/home/rdu/Workspace/project_templates/mcu/stm32_ws/src/modules/rtt/SEGGER_RTT.c **** *  Notes
 574:/home/rdu/Workspace/project_templates/mcu/stm32_ws/src/modules/rtt/SEGGER_RTT.c **** *    (1) If there is not enough space in the "Up"-buffer, data is overwritten.
 575:/home/rdu/Workspace/project_templates/mcu/stm32_ws/src/modules/rtt/SEGGER_RTT.c **** *    (2) For performance reasons this function does not call Init()
 576:/home/rdu/Workspace/project_templates/mcu/stm32_ws/src/modules/rtt/SEGGER_RTT.c **** *        and may only be called after RTT has been initialized.
 577:/home/rdu/Workspace/project_templates/mcu/stm32_ws/src/modules/rtt/SEGGER_RTT.c **** *        Either by calling SEGGER_RTT_Init() or calling another RTT API function first.
 578:/home/rdu/Workspace/project_templates/mcu/stm32_ws/src/modules/rtt/SEGGER_RTT.c **** *    (3) Do not use SEGGER_RTT_WriteWithOverwriteNoLock if a J-Link 
 579:/home/rdu/Workspace/project_templates/mcu/stm32_ws/src/modules/rtt/SEGGER_RTT.c **** *        connection reads RTT data.
 580:/home/rdu/Workspace/project_templates/mcu/stm32_ws/src/modules/rtt/SEGGER_RTT.c **** */
 581:/home/rdu/Workspace/project_templates/mcu/stm32_ws/src/modules/rtt/SEGGER_RTT.c **** void SEGGER_RTT_WriteWithOverwriteNoLock(unsigned BufferIndex, const void* pBuffer, unsigned NumByt
 780              		.loc 1 581 0
 781              		.cfi_startproc
 782              		@ args = 0, pretend = 0, frame = 32
 783              		@ frame_needed = 0, uses_anonymous_args = 0
 784 0000 00B5     		push	{lr}
 785              	.LCFI19:
 786              		.cfi_def_cfa_offset 4
 787              		.cfi_offset 14, -4
 788 0002 89B0     		sub	sp, sp, #36
 789              	.LCFI20:
 790              		.cfi_def_cfa_offset 40
 791 0004 0390     		str	r0, [sp, #12]
 792 0006 0291     		str	r1, [sp, #8]
 793 0008 0192     		str	r2, [sp, #4]
 582:/home/rdu/Workspace/project_templates/mcu/stm32_ws/src/modules/rtt/SEGGER_RTT.c ****   const char*           pData;
 583:/home/rdu/Workspace/project_templates/mcu/stm32_ws/src/modules/rtt/SEGGER_RTT.c ****   SEGGER_RTT_BUFFER_UP* pRing;
 584:/home/rdu/Workspace/project_templates/mcu/stm32_ws/src/modules/rtt/SEGGER_RTT.c ****   unsigned              Avail;
 585:/home/rdu/Workspace/project_templates/mcu/stm32_ws/src/modules/rtt/SEGGER_RTT.c **** 
 586:/home/rdu/Workspace/project_templates/mcu/stm32_ws/src/modules/rtt/SEGGER_RTT.c ****   pData = (const char *)pBuffer;
 794              		.loc 1 586 0
 795 000a 029B     		ldr	r3, [sp, #8]
 796 000c 0793     		str	r3, [sp, #28]
 587:/home/rdu/Workspace/project_templates/mcu/stm32_ws/src/modules/rtt/SEGGER_RTT.c ****   //
 588:/home/rdu/Workspace/project_templates/mcu/stm32_ws/src/modules/rtt/SEGGER_RTT.c ****   // Get "to-host" ring buffer and copy some elements into local variables.
 589:/home/rdu/Workspace/project_templates/mcu/stm32_ws/src/modules/rtt/SEGGER_RTT.c ****   //
 590:/home/rdu/Workspace/project_templates/mcu/stm32_ws/src/modules/rtt/SEGGER_RTT.c ****   pRing = &_SEGGER_RTT.aUp[BufferIndex];
 797              		.loc 1 590 0
 798 000e 039B     		ldr	r3, [sp, #12]
 799 0010 5A1C     		adds	r2, r3, #1
 800 0012 1346     		mov	r3, r2
 801 0014 5B00     		lsls	r3, r3, #1
 802 0016 1344     		add	r3, r3, r2
 803 0018 DB00     		lsls	r3, r3, #3
 804 001a 424A     		ldr	r2, .L42
 805 001c 1344     		add	r3, r3, r2
 806 001e 0493     		str	r3, [sp, #16]
 591:/home/rdu/Workspace/project_templates/mcu/stm32_ws/src/modules/rtt/SEGGER_RTT.c ****   //
 592:/home/rdu/Workspace/project_templates/mcu/stm32_ws/src/modules/rtt/SEGGER_RTT.c ****   // Check if we will overwrite data and need to adjust the RdOff.
 593:/home/rdu/Workspace/project_templates/mcu/stm32_ws/src/modules/rtt/SEGGER_RTT.c ****   //
 594:/home/rdu/Workspace/project_templates/mcu/stm32_ws/src/modules/rtt/SEGGER_RTT.c ****   if (pRing->WrOff == pRing->RdOff) {
 807              		.loc 1 594 0
 808 0020 049B     		ldr	r3, [sp, #16]
 809 0022 DA68     		ldr	r2, [r3, #12]
 810 0024 049B     		ldr	r3, [sp, #16]
 811 0026 1B69     		ldr	r3, [r3, #16]
 812 0028 9A42     		cmp	r2, r3
 813 002a 04D1     		bne	.L32
 595:/home/rdu/Workspace/project_templates/mcu/stm32_ws/src/modules/rtt/SEGGER_RTT.c ****     Avail = pRing->SizeOfBuffer - 1u;
 814              		.loc 1 595 0
 815 002c 049B     		ldr	r3, [sp, #16]
 816 002e 9B68     		ldr	r3, [r3, #8]
 817 0030 013B     		subs	r3, r3, #1
 818 0032 0693     		str	r3, [sp, #24]
 819 0034 17E0     		b	.L33
 820              	.L32:
 596:/home/rdu/Workspace/project_templates/mcu/stm32_ws/src/modules/rtt/SEGGER_RTT.c ****   } else if ( pRing->WrOff < pRing->RdOff) {
 821              		.loc 1 596 0
 822 0036 049B     		ldr	r3, [sp, #16]
 823 0038 DA68     		ldr	r2, [r3, #12]
 824 003a 049B     		ldr	r3, [sp, #16]
 825 003c 1B69     		ldr	r3, [r3, #16]
 826 003e 9A42     		cmp	r2, r3
 827 0040 07D2     		bcs	.L34
 597:/home/rdu/Workspace/project_templates/mcu/stm32_ws/src/modules/rtt/SEGGER_RTT.c ****     Avail = pRing->RdOff - pRing->WrOff - 1u;
 828              		.loc 1 597 0
 829 0042 049B     		ldr	r3, [sp, #16]
 830 0044 1A69     		ldr	r2, [r3, #16]
 831 0046 049B     		ldr	r3, [sp, #16]
 832 0048 DB68     		ldr	r3, [r3, #12]
 833 004a D31A     		subs	r3, r2, r3
 834 004c 013B     		subs	r3, r3, #1
 835 004e 0693     		str	r3, [sp, #24]
 836 0050 09E0     		b	.L33
 837              	.L34:
 598:/home/rdu/Workspace/project_templates/mcu/stm32_ws/src/modules/rtt/SEGGER_RTT.c ****   } else {
 599:/home/rdu/Workspace/project_templates/mcu/stm32_ws/src/modules/rtt/SEGGER_RTT.c ****     Avail = pRing->RdOff - pRing->WrOff - 1u + pRing->SizeOfBuffer;
 838              		.loc 1 599 0
 839 0052 049B     		ldr	r3, [sp, #16]
 840 0054 1A69     		ldr	r2, [r3, #16]
 841 0056 049B     		ldr	r3, [sp, #16]
 842 0058 DB68     		ldr	r3, [r3, #12]
 843 005a D21A     		subs	r2, r2, r3
 844 005c 049B     		ldr	r3, [sp, #16]
 845 005e 9B68     		ldr	r3, [r3, #8]
 846 0060 1344     		add	r3, r3, r2
 847 0062 013B     		subs	r3, r3, #1
 848 0064 0693     		str	r3, [sp, #24]
 849              	.L33:
 600:/home/rdu/Workspace/project_templates/mcu/stm32_ws/src/modules/rtt/SEGGER_RTT.c ****   }
 601:/home/rdu/Workspace/project_templates/mcu/stm32_ws/src/modules/rtt/SEGGER_RTT.c ****   if (NumBytes > Avail) {
 850              		.loc 1 601 0
 851 0066 019A     		ldr	r2, [sp, #4]
 852 0068 069B     		ldr	r3, [sp, #24]
 853 006a 9A42     		cmp	r2, r3
 854 006c 15D9     		bls	.L35
 602:/home/rdu/Workspace/project_templates/mcu/stm32_ws/src/modules/rtt/SEGGER_RTT.c ****     pRing->RdOff += (NumBytes - Avail);
 855              		.loc 1 602 0
 856 006e 049B     		ldr	r3, [sp, #16]
 857 0070 1A69     		ldr	r2, [r3, #16]
 858 0072 0199     		ldr	r1, [sp, #4]
 859 0074 069B     		ldr	r3, [sp, #24]
 860 0076 CB1A     		subs	r3, r1, r3
 861 0078 1A44     		add	r2, r2, r3
 862 007a 049B     		ldr	r3, [sp, #16]
 863 007c 1A61     		str	r2, [r3, #16]
 603:/home/rdu/Workspace/project_templates/mcu/stm32_ws/src/modules/rtt/SEGGER_RTT.c ****     while (pRing->RdOff >= pRing->SizeOfBuffer) {
 864              		.loc 1 603 0
 865 007e 06E0     		b	.L36
 866              	.L37:
 604:/home/rdu/Workspace/project_templates/mcu/stm32_ws/src/modules/rtt/SEGGER_RTT.c ****       pRing->RdOff -= pRing->SizeOfBuffer;
 867              		.loc 1 604 0
 868 0080 049B     		ldr	r3, [sp, #16]
 869 0082 1A69     		ldr	r2, [r3, #16]
 870 0084 049B     		ldr	r3, [sp, #16]
 871 0086 9B68     		ldr	r3, [r3, #8]
 872 0088 D21A     		subs	r2, r2, r3
 873 008a 049B     		ldr	r3, [sp, #16]
 874 008c 1A61     		str	r2, [r3, #16]
 875              	.L36:
 603:/home/rdu/Workspace/project_templates/mcu/stm32_ws/src/modules/rtt/SEGGER_RTT.c ****     while (pRing->RdOff >= pRing->SizeOfBuffer) {
 876              		.loc 1 603 0
 877 008e 049B     		ldr	r3, [sp, #16]
 878 0090 1A69     		ldr	r2, [r3, #16]
 879 0092 049B     		ldr	r3, [sp, #16]
 880 0094 9B68     		ldr	r3, [r3, #8]
 881 0096 9A42     		cmp	r2, r3
 882 0098 F2D2     		bcs	.L37
 883              	.L35:
 605:/home/rdu/Workspace/project_templates/mcu/stm32_ws/src/modules/rtt/SEGGER_RTT.c ****     }
 606:/home/rdu/Workspace/project_templates/mcu/stm32_ws/src/modules/rtt/SEGGER_RTT.c ****   }
 607:/home/rdu/Workspace/project_templates/mcu/stm32_ws/src/modules/rtt/SEGGER_RTT.c ****   //
 608:/home/rdu/Workspace/project_templates/mcu/stm32_ws/src/modules/rtt/SEGGER_RTT.c ****   // Write all data, no need to check the RdOff, but possibly handle multiple wrap-arounds
 609:/home/rdu/Workspace/project_templates/mcu/stm32_ws/src/modules/rtt/SEGGER_RTT.c ****   //
 610:/home/rdu/Workspace/project_templates/mcu/stm32_ws/src/modules/rtt/SEGGER_RTT.c ****   Avail = pRing->SizeOfBuffer - pRing->WrOff;
 884              		.loc 1 610 0
 885 009a 049B     		ldr	r3, [sp, #16]
 886 009c 9A68     		ldr	r2, [r3, #8]
 887 009e 049B     		ldr	r3, [sp, #16]
 888 00a0 DB68     		ldr	r3, [r3, #12]
 889 00a2 D31A     		subs	r3, r2, r3
 890 00a4 0693     		str	r3, [sp, #24]
 891              	.L41:
 611:/home/rdu/Workspace/project_templates/mcu/stm32_ws/src/modules/rtt/SEGGER_RTT.c ****   do {
 612:/home/rdu/Workspace/project_templates/mcu/stm32_ws/src/modules/rtt/SEGGER_RTT.c ****     if (Avail > NumBytes) {
 892              		.loc 1 612 0
 893 00a6 069A     		ldr	r2, [sp, #24]
 894 00a8 019B     		ldr	r3, [sp, #4]
 895 00aa 9A42     		cmp	r2, r3
 896 00ac 1AD9     		bls	.L38
 897              	.LBB3:
 613:/home/rdu/Workspace/project_templates/mcu/stm32_ws/src/modules/rtt/SEGGER_RTT.c ****       //
 614:/home/rdu/Workspace/project_templates/mcu/stm32_ws/src/modules/rtt/SEGGER_RTT.c ****       // Last round
 615:/home/rdu/Workspace/project_templates/mcu/stm32_ws/src/modules/rtt/SEGGER_RTT.c ****       //
 616:/home/rdu/Workspace/project_templates/mcu/stm32_ws/src/modules/rtt/SEGGER_RTT.c **** #if 1 // memcpy() is good for large amounts of data, but the overhead is too big for small amounts.
 617:/home/rdu/Workspace/project_templates/mcu/stm32_ws/src/modules/rtt/SEGGER_RTT.c ****       char* pDst;
 618:/home/rdu/Workspace/project_templates/mcu/stm32_ws/src/modules/rtt/SEGGER_RTT.c ****       pDst = pRing->pBuffer + pRing->WrOff;
 898              		.loc 1 618 0
 899 00ae 049B     		ldr	r3, [sp, #16]
 900 00b0 5A68     		ldr	r2, [r3, #4]
 901 00b2 049B     		ldr	r3, [sp, #16]
 902 00b4 DB68     		ldr	r3, [r3, #12]
 903 00b6 1344     		add	r3, r3, r2
 904 00b8 0593     		str	r3, [sp, #20]
 619:/home/rdu/Workspace/project_templates/mcu/stm32_ws/src/modules/rtt/SEGGER_RTT.c ****       pRing->WrOff += NumBytes;
 905              		.loc 1 619 0
 906 00ba 049B     		ldr	r3, [sp, #16]
 907 00bc DA68     		ldr	r2, [r3, #12]
 908 00be 019B     		ldr	r3, [sp, #4]
 909 00c0 1A44     		add	r2, r2, r3
 910 00c2 049B     		ldr	r3, [sp, #16]
 911 00c4 DA60     		str	r2, [r3, #12]
 912              	.L39:
 620:/home/rdu/Workspace/project_templates/mcu/stm32_ws/src/modules/rtt/SEGGER_RTT.c ****       do {
 621:/home/rdu/Workspace/project_templates/mcu/stm32_ws/src/modules/rtt/SEGGER_RTT.c ****         *pDst++ = *pData++;
 913              		.loc 1 621 0 discriminator 1
 914 00c6 079A     		ldr	r2, [sp, #28]
 915 00c8 531C     		adds	r3, r2, #1
 916 00ca 0793     		str	r3, [sp, #28]
 917 00cc 059B     		ldr	r3, [sp, #20]
 918 00ce 591C     		adds	r1, r3, #1
 919 00d0 0591     		str	r1, [sp, #20]
 920 00d2 1278     		ldrb	r2, [r2]	@ zero_extendqisi2
 921 00d4 1A70     		strb	r2, [r3]
 622:/home/rdu/Workspace/project_templates/mcu/stm32_ws/src/modules/rtt/SEGGER_RTT.c ****       } while (--NumBytes);
 922              		.loc 1 622 0 discriminator 1
 923 00d6 019B     		ldr	r3, [sp, #4]
 924 00d8 013B     		subs	r3, r3, #1
 925 00da 0193     		str	r3, [sp, #4]
 926 00dc 019B     		ldr	r3, [sp, #4]
 927 00de 002B     		cmp	r3, #0
 928 00e0 F1D1     		bne	.L39
 623:/home/rdu/Workspace/project_templates/mcu/stm32_ws/src/modules/rtt/SEGGER_RTT.c **** #else
 624:/home/rdu/Workspace/project_templates/mcu/stm32_ws/src/modules/rtt/SEGGER_RTT.c ****       memcpy(pRing->pBuffer + WrOff, pData, NumBytes);
 625:/home/rdu/Workspace/project_templates/mcu/stm32_ws/src/modules/rtt/SEGGER_RTT.c ****       pRing->WrOff += NumBytes;
 626:/home/rdu/Workspace/project_templates/mcu/stm32_ws/src/modules/rtt/SEGGER_RTT.c **** #endif
 627:/home/rdu/Workspace/project_templates/mcu/stm32_ws/src/modules/rtt/SEGGER_RTT.c ****       break;  //Alternatively: NumBytes = 0;
 929              		.loc 1 627 0
 930 00e2 1BE0     		b	.L40
 931              	.L38:
 932              	.LBE3:
 628:/home/rdu/Workspace/project_templates/mcu/stm32_ws/src/modules/rtt/SEGGER_RTT.c ****     } else {
 629:/home/rdu/Workspace/project_templates/mcu/stm32_ws/src/modules/rtt/SEGGER_RTT.c ****       //
 630:/home/rdu/Workspace/project_templates/mcu/stm32_ws/src/modules/rtt/SEGGER_RTT.c ****       //  Wrap-around necessary, write until wrap-around and reset WrOff
 631:/home/rdu/Workspace/project_templates/mcu/stm32_ws/src/modules/rtt/SEGGER_RTT.c ****       //
 632:/home/rdu/Workspace/project_templates/mcu/stm32_ws/src/modules/rtt/SEGGER_RTT.c ****       memcpy(pRing->pBuffer + pRing->WrOff, pData, Avail);
 933              		.loc 1 632 0
 934 00e4 049B     		ldr	r3, [sp, #16]
 935 00e6 5A68     		ldr	r2, [r3, #4]
 936 00e8 049B     		ldr	r3, [sp, #16]
 937 00ea DB68     		ldr	r3, [r3, #12]
 938 00ec 1344     		add	r3, r3, r2
 939 00ee 069A     		ldr	r2, [sp, #24]
 940 00f0 0799     		ldr	r1, [sp, #28]
 941 00f2 1846     		mov	r0, r3
 942 00f4 FFF7FEFF 		bl	memcpy
 633:/home/rdu/Workspace/project_templates/mcu/stm32_ws/src/modules/rtt/SEGGER_RTT.c ****       pData += Avail;
 943              		.loc 1 633 0
 944 00f8 079A     		ldr	r2, [sp, #28]
 945 00fa 069B     		ldr	r3, [sp, #24]
 946 00fc 1344     		add	r3, r3, r2
 947 00fe 0793     		str	r3, [sp, #28]
 634:/home/rdu/Workspace/project_templates/mcu/stm32_ws/src/modules/rtt/SEGGER_RTT.c ****       pRing->WrOff = 0;
 948              		.loc 1 634 0
 949 0100 049B     		ldr	r3, [sp, #16]
 950 0102 0022     		movs	r2, #0
 951 0104 DA60     		str	r2, [r3, #12]
 635:/home/rdu/Workspace/project_templates/mcu/stm32_ws/src/modules/rtt/SEGGER_RTT.c ****       NumBytes -= Avail;
 952              		.loc 1 635 0
 953 0106 019A     		ldr	r2, [sp, #4]
 954 0108 069B     		ldr	r3, [sp, #24]
 955 010a D31A     		subs	r3, r2, r3
 956 010c 0193     		str	r3, [sp, #4]
 636:/home/rdu/Workspace/project_templates/mcu/stm32_ws/src/modules/rtt/SEGGER_RTT.c ****       Avail = (pRing->SizeOfBuffer - 1);
 957              		.loc 1 636 0
 958 010e 049B     		ldr	r3, [sp, #16]
 959 0110 9B68     		ldr	r3, [r3, #8]
 960 0112 013B     		subs	r3, r3, #1
 961 0114 0693     		str	r3, [sp, #24]
 637:/home/rdu/Workspace/project_templates/mcu/stm32_ws/src/modules/rtt/SEGGER_RTT.c ****     }
 638:/home/rdu/Workspace/project_templates/mcu/stm32_ws/src/modules/rtt/SEGGER_RTT.c ****   } while (NumBytes);
 962              		.loc 1 638 0
 963 0116 019B     		ldr	r3, [sp, #4]
 964 0118 002B     		cmp	r3, #0
 965 011a C4D1     		bne	.L41
 966              	.L40:
 639:/home/rdu/Workspace/project_templates/mcu/stm32_ws/src/modules/rtt/SEGGER_RTT.c **** }
 967              		.loc 1 639 0
 968 011c 00BF     		nop
 969 011e 09B0     		add	sp, sp, #36
 970              	.LCFI21:
 971              		.cfi_def_cfa_offset 4
 972              		@ sp needed
 973 0120 5DF804FB 		ldr	pc, [sp], #4
 974              	.L43:
 975              		.align	2
 976              	.L42:
 977 0124 00000000 		.word	_SEGGER_RTT
 978              		.cfi_endproc
 979              	.LFE7:
 981              		.section	.text.SEGGER_RTT_WriteSkipNoLock,"ax",%progbits
 982              		.align	1
 983              		.global	SEGGER_RTT_WriteSkipNoLock
 984              		.syntax unified
 985              		.thumb
 986              		.thumb_func
 987              		.fpu fpv4-sp-d16
 989              	SEGGER_RTT_WriteSkipNoLock:
 990              	.LFB8:
 640:/home/rdu/Workspace/project_templates/mcu/stm32_ws/src/modules/rtt/SEGGER_RTT.c **** 
 641:/home/rdu/Workspace/project_templates/mcu/stm32_ws/src/modules/rtt/SEGGER_RTT.c **** /*********************************************************************
 642:/home/rdu/Workspace/project_templates/mcu/stm32_ws/src/modules/rtt/SEGGER_RTT.c **** *
 643:/home/rdu/Workspace/project_templates/mcu/stm32_ws/src/modules/rtt/SEGGER_RTT.c **** *       SEGGER_RTT_WriteSkipNoLock
 644:/home/rdu/Workspace/project_templates/mcu/stm32_ws/src/modules/rtt/SEGGER_RTT.c **** *
 645:/home/rdu/Workspace/project_templates/mcu/stm32_ws/src/modules/rtt/SEGGER_RTT.c **** *  Function description
 646:/home/rdu/Workspace/project_templates/mcu/stm32_ws/src/modules/rtt/SEGGER_RTT.c **** *    Stores a specified number of characters in SEGGER RTT
 647:/home/rdu/Workspace/project_templates/mcu/stm32_ws/src/modules/rtt/SEGGER_RTT.c **** *    control block which is then read by the host.
 648:/home/rdu/Workspace/project_templates/mcu/stm32_ws/src/modules/rtt/SEGGER_RTT.c **** *    SEGGER_RTT_WriteSkipNoLock does not lock the application and
 649:/home/rdu/Workspace/project_templates/mcu/stm32_ws/src/modules/rtt/SEGGER_RTT.c **** *    skips all data, if the data does not fit into the buffer.
 650:/home/rdu/Workspace/project_templates/mcu/stm32_ws/src/modules/rtt/SEGGER_RTT.c **** *
 651:/home/rdu/Workspace/project_templates/mcu/stm32_ws/src/modules/rtt/SEGGER_RTT.c **** *  Parameters
 652:/home/rdu/Workspace/project_templates/mcu/stm32_ws/src/modules/rtt/SEGGER_RTT.c **** *    BufferIndex  Index of "Up"-buffer to be used (e.g. 0 for "Terminal").
 653:/home/rdu/Workspace/project_templates/mcu/stm32_ws/src/modules/rtt/SEGGER_RTT.c **** *    pBuffer      Pointer to character array. Does not need to point to a \0 terminated string.
 654:/home/rdu/Workspace/project_templates/mcu/stm32_ws/src/modules/rtt/SEGGER_RTT.c **** *    NumBytes     Number of bytes to be stored in the SEGGER RTT control block.
 655:/home/rdu/Workspace/project_templates/mcu/stm32_ws/src/modules/rtt/SEGGER_RTT.c **** *
 656:/home/rdu/Workspace/project_templates/mcu/stm32_ws/src/modules/rtt/SEGGER_RTT.c **** *  Return value
 657:/home/rdu/Workspace/project_templates/mcu/stm32_ws/src/modules/rtt/SEGGER_RTT.c **** *    Number of bytes which have been stored in the "Up"-buffer.
 658:/home/rdu/Workspace/project_templates/mcu/stm32_ws/src/modules/rtt/SEGGER_RTT.c **** *
 659:/home/rdu/Workspace/project_templates/mcu/stm32_ws/src/modules/rtt/SEGGER_RTT.c **** *  Notes
 660:/home/rdu/Workspace/project_templates/mcu/stm32_ws/src/modules/rtt/SEGGER_RTT.c **** *    (1) If there is not enough space in the "Up"-buffer, all data is dropped.
 661:/home/rdu/Workspace/project_templates/mcu/stm32_ws/src/modules/rtt/SEGGER_RTT.c **** *    (2) For performance reasons this function does not call Init()
 662:/home/rdu/Workspace/project_templates/mcu/stm32_ws/src/modules/rtt/SEGGER_RTT.c **** *        and may only be called after RTT has been initialized.
 663:/home/rdu/Workspace/project_templates/mcu/stm32_ws/src/modules/rtt/SEGGER_RTT.c **** *        Either by calling SEGGER_RTT_Init() or calling another RTT API function first.
 664:/home/rdu/Workspace/project_templates/mcu/stm32_ws/src/modules/rtt/SEGGER_RTT.c **** */
 665:/home/rdu/Workspace/project_templates/mcu/stm32_ws/src/modules/rtt/SEGGER_RTT.c **** unsigned SEGGER_RTT_WriteSkipNoLock(unsigned BufferIndex, const void* pBuffer, unsigned NumBytes) {
 991              		.loc 1 665 0
 992              		.cfi_startproc
 993              		@ args = 0, pretend = 0, frame = 48
 994              		@ frame_needed = 0, uses_anonymous_args = 0
 995 0000 00B5     		push	{lr}
 996              	.LCFI22:
 997              		.cfi_def_cfa_offset 4
 998              		.cfi_offset 14, -4
 999 0002 8DB0     		sub	sp, sp, #52
 1000              	.LCFI23:
 1001              		.cfi_def_cfa_offset 56
 1002 0004 0390     		str	r0, [sp, #12]
 1003 0006 0291     		str	r1, [sp, #8]
 1004 0008 0192     		str	r2, [sp, #4]
 666:/home/rdu/Workspace/project_templates/mcu/stm32_ws/src/modules/rtt/SEGGER_RTT.c ****   const char*           pData;
 667:/home/rdu/Workspace/project_templates/mcu/stm32_ws/src/modules/rtt/SEGGER_RTT.c ****   SEGGER_RTT_BUFFER_UP* pRing;
 668:/home/rdu/Workspace/project_templates/mcu/stm32_ws/src/modules/rtt/SEGGER_RTT.c ****   unsigned              Avail;
 669:/home/rdu/Workspace/project_templates/mcu/stm32_ws/src/modules/rtt/SEGGER_RTT.c ****   unsigned              RdOff;
 670:/home/rdu/Workspace/project_templates/mcu/stm32_ws/src/modules/rtt/SEGGER_RTT.c ****   unsigned              WrOff;
 671:/home/rdu/Workspace/project_templates/mcu/stm32_ws/src/modules/rtt/SEGGER_RTT.c ****   unsigned              Rem;
 672:/home/rdu/Workspace/project_templates/mcu/stm32_ws/src/modules/rtt/SEGGER_RTT.c **** 
 673:/home/rdu/Workspace/project_templates/mcu/stm32_ws/src/modules/rtt/SEGGER_RTT.c ****   pData = (const char *)pBuffer;
 1005              		.loc 1 673 0
 1006 000a 029B     		ldr	r3, [sp, #8]
 1007 000c 0B93     		str	r3, [sp, #44]
 674:/home/rdu/Workspace/project_templates/mcu/stm32_ws/src/modules/rtt/SEGGER_RTT.c ****   //
 675:/home/rdu/Workspace/project_templates/mcu/stm32_ws/src/modules/rtt/SEGGER_RTT.c ****   // Get "to-host" ring buffer and copy some elements into local variables.
 676:/home/rdu/Workspace/project_templates/mcu/stm32_ws/src/modules/rtt/SEGGER_RTT.c ****   //
 677:/home/rdu/Workspace/project_templates/mcu/stm32_ws/src/modules/rtt/SEGGER_RTT.c ****   pRing = &_SEGGER_RTT.aUp[BufferIndex];
 1008              		.loc 1 677 0
 1009 000e 039B     		ldr	r3, [sp, #12]
 1010 0010 5A1C     		adds	r2, r3, #1
 1011 0012 1346     		mov	r3, r2
 1012 0014 5B00     		lsls	r3, r3, #1
 1013 0016 1344     		add	r3, r3, r2
 1014 0018 DB00     		lsls	r3, r3, #3
 1015 001a 474A     		ldr	r2, .L52
 1016 001c 1344     		add	r3, r3, r2
 1017 001e 0993     		str	r3, [sp, #36]
 678:/home/rdu/Workspace/project_templates/mcu/stm32_ws/src/modules/rtt/SEGGER_RTT.c ****   RdOff = pRing->RdOff;
 1018              		.loc 1 678 0
 1019 0020 099B     		ldr	r3, [sp, #36]
 1020 0022 1B69     		ldr	r3, [r3, #16]
 1021 0024 0893     		str	r3, [sp, #32]
 679:/home/rdu/Workspace/project_templates/mcu/stm32_ws/src/modules/rtt/SEGGER_RTT.c ****   WrOff = pRing->WrOff;
 1022              		.loc 1 679 0
 1023 0026 099B     		ldr	r3, [sp, #36]
 1024 0028 DB68     		ldr	r3, [r3, #12]
 1025 002a 0793     		str	r3, [sp, #28]
 680:/home/rdu/Workspace/project_templates/mcu/stm32_ws/src/modules/rtt/SEGGER_RTT.c ****   //
 681:/home/rdu/Workspace/project_templates/mcu/stm32_ws/src/modules/rtt/SEGGER_RTT.c ****   // Handle the most common cases fastest.
 682:/home/rdu/Workspace/project_templates/mcu/stm32_ws/src/modules/rtt/SEGGER_RTT.c ****   // Which is:
 683:/home/rdu/Workspace/project_templates/mcu/stm32_ws/src/modules/rtt/SEGGER_RTT.c ****   //    RdOff <= WrOff -> Space until wrap around is free.
 684:/home/rdu/Workspace/project_templates/mcu/stm32_ws/src/modules/rtt/SEGGER_RTT.c ****   //  AND
 685:/home/rdu/Workspace/project_templates/mcu/stm32_ws/src/modules/rtt/SEGGER_RTT.c ****   //    WrOff + NumBytes < SizeOfBuffer -> No Wrap around necessary.
 686:/home/rdu/Workspace/project_templates/mcu/stm32_ws/src/modules/rtt/SEGGER_RTT.c ****   //
 687:/home/rdu/Workspace/project_templates/mcu/stm32_ws/src/modules/rtt/SEGGER_RTT.c ****   //  OR
 688:/home/rdu/Workspace/project_templates/mcu/stm32_ws/src/modules/rtt/SEGGER_RTT.c ****   //
 689:/home/rdu/Workspace/project_templates/mcu/stm32_ws/src/modules/rtt/SEGGER_RTT.c ****   //    RdOff > WrOff -> Space until RdOff - 1 is free.
 690:/home/rdu/Workspace/project_templates/mcu/stm32_ws/src/modules/rtt/SEGGER_RTT.c ****   //  AND
 691:/home/rdu/Workspace/project_templates/mcu/stm32_ws/src/modules/rtt/SEGGER_RTT.c ****   //    WrOff + NumBytes < RdOff -> Data fits into buffer
 692:/home/rdu/Workspace/project_templates/mcu/stm32_ws/src/modules/rtt/SEGGER_RTT.c ****   //
 693:/home/rdu/Workspace/project_templates/mcu/stm32_ws/src/modules/rtt/SEGGER_RTT.c ****   if (RdOff <= WrOff) {
 1026              		.loc 1 693 0
 1027 002c 089A     		ldr	r2, [sp, #32]
 1028 002e 079B     		ldr	r3, [sp, #28]
 1029 0030 9A42     		cmp	r2, r3
 1030 0032 62D8     		bhi	.L45
 694:/home/rdu/Workspace/project_templates/mcu/stm32_ws/src/modules/rtt/SEGGER_RTT.c ****     //
 695:/home/rdu/Workspace/project_templates/mcu/stm32_ws/src/modules/rtt/SEGGER_RTT.c ****     // Get space until WrOff will be at wrap around.
 696:/home/rdu/Workspace/project_templates/mcu/stm32_ws/src/modules/rtt/SEGGER_RTT.c ****     //
 697:/home/rdu/Workspace/project_templates/mcu/stm32_ws/src/modules/rtt/SEGGER_RTT.c ****     Avail = pRing->SizeOfBuffer - 1u - WrOff ;
 1031              		.loc 1 697 0
 1032 0034 099B     		ldr	r3, [sp, #36]
 1033 0036 9A68     		ldr	r2, [r3, #8]
 1034 0038 079B     		ldr	r3, [sp, #28]
 1035 003a D31A     		subs	r3, r2, r3
 1036 003c 013B     		subs	r3, r3, #1
 1037 003e 0693     		str	r3, [sp, #24]
 698:/home/rdu/Workspace/project_templates/mcu/stm32_ws/src/modules/rtt/SEGGER_RTT.c ****     if (Avail >= NumBytes) {
 1038              		.loc 1 698 0
 1039 0040 069A     		ldr	r2, [sp, #24]
 1040 0042 019B     		ldr	r3, [sp, #4]
 1041 0044 9A42     		cmp	r2, r3
 1042 0046 1DD3     		bcc	.L46
 1043              	.LBB4:
 699:/home/rdu/Workspace/project_templates/mcu/stm32_ws/src/modules/rtt/SEGGER_RTT.c **** #if 1 // memcpy() is good for large amounts of data, but the overhead is too big for small amounts.
 700:/home/rdu/Workspace/project_templates/mcu/stm32_ws/src/modules/rtt/SEGGER_RTT.c ****       char* pDst;
 701:/home/rdu/Workspace/project_templates/mcu/stm32_ws/src/modules/rtt/SEGGER_RTT.c ****       pDst = pRing->pBuffer + WrOff;
 1044              		.loc 1 701 0
 1045 0048 099B     		ldr	r3, [sp, #36]
 1046 004a 5A68     		ldr	r2, [r3, #4]
 1047 004c 079B     		ldr	r3, [sp, #28]
 1048 004e 1344     		add	r3, r3, r2
 1049 0050 0A93     		str	r3, [sp, #40]
 702:/home/rdu/Workspace/project_templates/mcu/stm32_ws/src/modules/rtt/SEGGER_RTT.c ****       WrOff += NumBytes;
 1050              		.loc 1 702 0
 1051 0052 079A     		ldr	r2, [sp, #28]
 1052 0054 019B     		ldr	r3, [sp, #4]
 1053 0056 1344     		add	r3, r3, r2
 1054 0058 0793     		str	r3, [sp, #28]
 1055              	.L47:
 703:/home/rdu/Workspace/project_templates/mcu/stm32_ws/src/modules/rtt/SEGGER_RTT.c ****       do {
 704:/home/rdu/Workspace/project_templates/mcu/stm32_ws/src/modules/rtt/SEGGER_RTT.c ****         *pDst++ = *pData++;
 1056              		.loc 1 704 0 discriminator 1
 1057 005a 0B9A     		ldr	r2, [sp, #44]
 1058 005c 531C     		adds	r3, r2, #1
 1059 005e 0B93     		str	r3, [sp, #44]
 1060 0060 0A9B     		ldr	r3, [sp, #40]
 1061 0062 591C     		adds	r1, r3, #1
 1062 0064 0A91     		str	r1, [sp, #40]
 1063 0066 1278     		ldrb	r2, [r2]	@ zero_extendqisi2
 1064 0068 1A70     		strb	r2, [r3]
 705:/home/rdu/Workspace/project_templates/mcu/stm32_ws/src/modules/rtt/SEGGER_RTT.c ****       } while (--NumBytes);
 1065              		.loc 1 705 0 discriminator 1
 1066 006a 019B     		ldr	r3, [sp, #4]
 1067 006c 013B     		subs	r3, r3, #1
 1068 006e 0193     		str	r3, [sp, #4]
 1069 0070 019B     		ldr	r3, [sp, #4]
 1070 0072 002B     		cmp	r3, #0
 1071 0074 F1D1     		bne	.L47
 706:/home/rdu/Workspace/project_templates/mcu/stm32_ws/src/modules/rtt/SEGGER_RTT.c ****       pRing->WrOff = WrOff + NumBytes;
 1072              		.loc 1 706 0
 1073 0076 079A     		ldr	r2, [sp, #28]
 1074 0078 019B     		ldr	r3, [sp, #4]
 1075 007a 1A44     		add	r2, r2, r3
 1076 007c 099B     		ldr	r3, [sp, #36]
 1077 007e DA60     		str	r2, [r3, #12]
 707:/home/rdu/Workspace/project_templates/mcu/stm32_ws/src/modules/rtt/SEGGER_RTT.c **** #else
 708:/home/rdu/Workspace/project_templates/mcu/stm32_ws/src/modules/rtt/SEGGER_RTT.c ****       memcpy(pRing->pBuffer + WrOff, pData, NumBytes);
 709:/home/rdu/Workspace/project_templates/mcu/stm32_ws/src/modules/rtt/SEGGER_RTT.c ****       pRing->WrOff = WrOff + NumBytes;
 710:/home/rdu/Workspace/project_templates/mcu/stm32_ws/src/modules/rtt/SEGGER_RTT.c **** #endif
 711:/home/rdu/Workspace/project_templates/mcu/stm32_ws/src/modules/rtt/SEGGER_RTT.c ****       return 1;
 1078              		.loc 1 711 0
 1079 0080 0123     		movs	r3, #1
 1080 0082 54E0     		b	.L48
 1081              	.L46:
 1082              	.LBE4:
 712:/home/rdu/Workspace/project_templates/mcu/stm32_ws/src/modules/rtt/SEGGER_RTT.c ****     }
 713:/home/rdu/Workspace/project_templates/mcu/stm32_ws/src/modules/rtt/SEGGER_RTT.c ****     //
 714:/home/rdu/Workspace/project_templates/mcu/stm32_ws/src/modules/rtt/SEGGER_RTT.c ****     // If data did not fit into space until wrap around calculate complete space in buffer.
 715:/home/rdu/Workspace/project_templates/mcu/stm32_ws/src/modules/rtt/SEGGER_RTT.c ****     //
 716:/home/rdu/Workspace/project_templates/mcu/stm32_ws/src/modules/rtt/SEGGER_RTT.c ****     Avail += RdOff;
 1083              		.loc 1 716 0
 1084 0084 069A     		ldr	r2, [sp, #24]
 1085 0086 089B     		ldr	r3, [sp, #32]
 1086 0088 1344     		add	r3, r3, r2
 1087 008a 0693     		str	r3, [sp, #24]
 717:/home/rdu/Workspace/project_templates/mcu/stm32_ws/src/modules/rtt/SEGGER_RTT.c ****     //
 718:/home/rdu/Workspace/project_templates/mcu/stm32_ws/src/modules/rtt/SEGGER_RTT.c ****     // If there is still no space for the whole of this output, don't bother.
 719:/home/rdu/Workspace/project_templates/mcu/stm32_ws/src/modules/rtt/SEGGER_RTT.c ****     //
 720:/home/rdu/Workspace/project_templates/mcu/stm32_ws/src/modules/rtt/SEGGER_RTT.c ****     if (Avail >= NumBytes) {
 1088              		.loc 1 720 0
 1089 008c 069A     		ldr	r2, [sp, #24]
 1090 008e 019B     		ldr	r3, [sp, #4]
 1091 0090 9A42     		cmp	r2, r3
 1092 0092 4BD3     		bcc	.L49
 721:/home/rdu/Workspace/project_templates/mcu/stm32_ws/src/modules/rtt/SEGGER_RTT.c ****       //
 722:/home/rdu/Workspace/project_templates/mcu/stm32_ws/src/modules/rtt/SEGGER_RTT.c ****       //  OK, we have enough space in buffer. Copy in one or 2 chunks
 723:/home/rdu/Workspace/project_templates/mcu/stm32_ws/src/modules/rtt/SEGGER_RTT.c ****       //
 724:/home/rdu/Workspace/project_templates/mcu/stm32_ws/src/modules/rtt/SEGGER_RTT.c ****       Rem = pRing->SizeOfBuffer - WrOff;      // Space until end of buffer
 1093              		.loc 1 724 0
 1094 0094 099B     		ldr	r3, [sp, #36]
 1095 0096 9A68     		ldr	r2, [r3, #8]
 1096 0098 079B     		ldr	r3, [sp, #28]
 1097 009a D31A     		subs	r3, r2, r3
 1098 009c 0593     		str	r3, [sp, #20]
 725:/home/rdu/Workspace/project_templates/mcu/stm32_ws/src/modules/rtt/SEGGER_RTT.c ****       if (Rem > NumBytes) {
 1099              		.loc 1 725 0
 1100 009e 059A     		ldr	r2, [sp, #20]
 1101 00a0 019B     		ldr	r3, [sp, #4]
 1102 00a2 9A42     		cmp	r2, r3
 1103 00a4 0ED9     		bls	.L50
 726:/home/rdu/Workspace/project_templates/mcu/stm32_ws/src/modules/rtt/SEGGER_RTT.c ****         memcpy(pRing->pBuffer + WrOff, pData, NumBytes);
 1104              		.loc 1 726 0
 1105 00a6 099B     		ldr	r3, [sp, #36]
 1106 00a8 5A68     		ldr	r2, [r3, #4]
 1107 00aa 079B     		ldr	r3, [sp, #28]
 1108 00ac 1344     		add	r3, r3, r2
 1109 00ae 019A     		ldr	r2, [sp, #4]
 1110 00b0 0B99     		ldr	r1, [sp, #44]
 1111 00b2 1846     		mov	r0, r3
 1112 00b4 FFF7FEFF 		bl	memcpy
 727:/home/rdu/Workspace/project_templates/mcu/stm32_ws/src/modules/rtt/SEGGER_RTT.c ****         pRing->WrOff = WrOff + NumBytes;
 1113              		.loc 1 727 0
 1114 00b8 079A     		ldr	r2, [sp, #28]
 1115 00ba 019B     		ldr	r3, [sp, #4]
 1116 00bc 1A44     		add	r2, r2, r3
 1117 00be 099B     		ldr	r3, [sp, #36]
 1118 00c0 DA60     		str	r2, [r3, #12]
 1119 00c2 18E0     		b	.L51
 1120              	.L50:
 728:/home/rdu/Workspace/project_templates/mcu/stm32_ws/src/modules/rtt/SEGGER_RTT.c ****       } else {
 729:/home/rdu/Workspace/project_templates/mcu/stm32_ws/src/modules/rtt/SEGGER_RTT.c ****         //
 730:/home/rdu/Workspace/project_templates/mcu/stm32_ws/src/modules/rtt/SEGGER_RTT.c ****         // We reach the end of the buffer, so need to wrap around
 731:/home/rdu/Workspace/project_templates/mcu/stm32_ws/src/modules/rtt/SEGGER_RTT.c ****         //
 732:/home/rdu/Workspace/project_templates/mcu/stm32_ws/src/modules/rtt/SEGGER_RTT.c ****         memcpy(pRing->pBuffer + WrOff, pData, Rem);
 1121              		.loc 1 732 0
 1122 00c4 099B     		ldr	r3, [sp, #36]
 1123 00c6 5A68     		ldr	r2, [r3, #4]
 1124 00c8 079B     		ldr	r3, [sp, #28]
 1125 00ca 1344     		add	r3, r3, r2
 1126 00cc 059A     		ldr	r2, [sp, #20]
 1127 00ce 0B99     		ldr	r1, [sp, #44]
 1128 00d0 1846     		mov	r0, r3
 1129 00d2 FFF7FEFF 		bl	memcpy
 733:/home/rdu/Workspace/project_templates/mcu/stm32_ws/src/modules/rtt/SEGGER_RTT.c ****         memcpy(pRing->pBuffer, pData + Rem, NumBytes - Rem);
 1130              		.loc 1 733 0
 1131 00d6 099B     		ldr	r3, [sp, #36]
 1132 00d8 5868     		ldr	r0, [r3, #4]
 1133 00da 0B9A     		ldr	r2, [sp, #44]
 1134 00dc 059B     		ldr	r3, [sp, #20]
 1135 00de D118     		adds	r1, r2, r3
 1136 00e0 019A     		ldr	r2, [sp, #4]
 1137 00e2 059B     		ldr	r3, [sp, #20]
 1138 00e4 D31A     		subs	r3, r2, r3
 1139 00e6 1A46     		mov	r2, r3
 1140 00e8 FFF7FEFF 		bl	memcpy
 734:/home/rdu/Workspace/project_templates/mcu/stm32_ws/src/modules/rtt/SEGGER_RTT.c ****         pRing->WrOff = NumBytes - Rem;
 1141              		.loc 1 734 0
 1142 00ec 019A     		ldr	r2, [sp, #4]
 1143 00ee 059B     		ldr	r3, [sp, #20]
 1144 00f0 D21A     		subs	r2, r2, r3
 1145 00f2 099B     		ldr	r3, [sp, #36]
 1146 00f4 DA60     		str	r2, [r3, #12]
 1147              	.L51:
 735:/home/rdu/Workspace/project_templates/mcu/stm32_ws/src/modules/rtt/SEGGER_RTT.c ****       }
 736:/home/rdu/Workspace/project_templates/mcu/stm32_ws/src/modules/rtt/SEGGER_RTT.c ****       return 1;
 1148              		.loc 1 736 0
 1149 00f6 0123     		movs	r3, #1
 1150 00f8 19E0     		b	.L48
 1151              	.L45:
 737:/home/rdu/Workspace/project_templates/mcu/stm32_ws/src/modules/rtt/SEGGER_RTT.c ****     }
 738:/home/rdu/Workspace/project_templates/mcu/stm32_ws/src/modules/rtt/SEGGER_RTT.c ****   } else {
 739:/home/rdu/Workspace/project_templates/mcu/stm32_ws/src/modules/rtt/SEGGER_RTT.c ****     Avail = RdOff - WrOff - 1u;
 1152              		.loc 1 739 0
 1153 00fa 089A     		ldr	r2, [sp, #32]
 1154 00fc 079B     		ldr	r3, [sp, #28]
 1155 00fe D31A     		subs	r3, r2, r3
 1156 0100 013B     		subs	r3, r3, #1
 1157 0102 0693     		str	r3, [sp, #24]
 740:/home/rdu/Workspace/project_templates/mcu/stm32_ws/src/modules/rtt/SEGGER_RTT.c ****     if (Avail >= NumBytes) {
 1158              		.loc 1 740 0
 1159 0104 069A     		ldr	r2, [sp, #24]
 1160 0106 019B     		ldr	r3, [sp, #4]
 1161 0108 9A42     		cmp	r2, r3
 1162 010a 0FD3     		bcc	.L49
 741:/home/rdu/Workspace/project_templates/mcu/stm32_ws/src/modules/rtt/SEGGER_RTT.c ****       memcpy(pRing->pBuffer + WrOff, pData, NumBytes);
 1163              		.loc 1 741 0
 1164 010c 099B     		ldr	r3, [sp, #36]
 1165 010e 5A68     		ldr	r2, [r3, #4]
 1166 0110 079B     		ldr	r3, [sp, #28]
 1167 0112 1344     		add	r3, r3, r2
 1168 0114 019A     		ldr	r2, [sp, #4]
 1169 0116 0B99     		ldr	r1, [sp, #44]
 1170 0118 1846     		mov	r0, r3
 1171 011a FFF7FEFF 		bl	memcpy
 742:/home/rdu/Workspace/project_templates/mcu/stm32_ws/src/modules/rtt/SEGGER_RTT.c ****       pRing->WrOff = WrOff + NumBytes;
 1172              		.loc 1 742 0
 1173 011e 079A     		ldr	r2, [sp, #28]
 1174 0120 019B     		ldr	r3, [sp, #4]
 1175 0122 1A44     		add	r2, r2, r3
 1176 0124 099B     		ldr	r3, [sp, #36]
 1177 0126 DA60     		str	r2, [r3, #12]
 743:/home/rdu/Workspace/project_templates/mcu/stm32_ws/src/modules/rtt/SEGGER_RTT.c ****       return 1;
 1178              		.loc 1 743 0
 1179 0128 0123     		movs	r3, #1
 1180 012a 00E0     		b	.L48
 1181              	.L49:
 744:/home/rdu/Workspace/project_templates/mcu/stm32_ws/src/modules/rtt/SEGGER_RTT.c ****     }
 745:/home/rdu/Workspace/project_templates/mcu/stm32_ws/src/modules/rtt/SEGGER_RTT.c ****   }
 746:/home/rdu/Workspace/project_templates/mcu/stm32_ws/src/modules/rtt/SEGGER_RTT.c ****   //
 747:/home/rdu/Workspace/project_templates/mcu/stm32_ws/src/modules/rtt/SEGGER_RTT.c ****   // If we reach this point no data has been written
 748:/home/rdu/Workspace/project_templates/mcu/stm32_ws/src/modules/rtt/SEGGER_RTT.c ****   //
 749:/home/rdu/Workspace/project_templates/mcu/stm32_ws/src/modules/rtt/SEGGER_RTT.c ****   return 0;
 1182              		.loc 1 749 0
 1183 012c 0023     		movs	r3, #0
 1184              	.L48:
 750:/home/rdu/Workspace/project_templates/mcu/stm32_ws/src/modules/rtt/SEGGER_RTT.c **** }
 1185              		.loc 1 750 0
 1186 012e 1846     		mov	r0, r3
 1187 0130 0DB0     		add	sp, sp, #52
 1188              	.LCFI24:
 1189              		.cfi_def_cfa_offset 4
 1190              		@ sp needed
 1191 0132 5DF804FB 		ldr	pc, [sp], #4
 1192              	.L53:
 1193 0136 00BF     		.align	2
 1194              	.L52:
 1195 0138 00000000 		.word	_SEGGER_RTT
 1196              		.cfi_endproc
 1197              	.LFE8:
 1199              		.section	.text.SEGGER_RTT_WriteNoLock,"ax",%progbits
 1200              		.align	1
 1201              		.global	SEGGER_RTT_WriteNoLock
 1202              		.syntax unified
 1203              		.thumb
 1204              		.thumb_func
 1205              		.fpu fpv4-sp-d16
 1207              	SEGGER_RTT_WriteNoLock:
 1208              	.LFB9:
 751:/home/rdu/Workspace/project_templates/mcu/stm32_ws/src/modules/rtt/SEGGER_RTT.c **** 
 752:/home/rdu/Workspace/project_templates/mcu/stm32_ws/src/modules/rtt/SEGGER_RTT.c **** /*********************************************************************
 753:/home/rdu/Workspace/project_templates/mcu/stm32_ws/src/modules/rtt/SEGGER_RTT.c **** *
 754:/home/rdu/Workspace/project_templates/mcu/stm32_ws/src/modules/rtt/SEGGER_RTT.c **** *       SEGGER_RTT_WriteNoLock
 755:/home/rdu/Workspace/project_templates/mcu/stm32_ws/src/modules/rtt/SEGGER_RTT.c **** *
 756:/home/rdu/Workspace/project_templates/mcu/stm32_ws/src/modules/rtt/SEGGER_RTT.c **** *  Function description
 757:/home/rdu/Workspace/project_templates/mcu/stm32_ws/src/modules/rtt/SEGGER_RTT.c **** *    Stores a specified number of characters in SEGGER RTT
 758:/home/rdu/Workspace/project_templates/mcu/stm32_ws/src/modules/rtt/SEGGER_RTT.c **** *    control block which is then read by the host.
 759:/home/rdu/Workspace/project_templates/mcu/stm32_ws/src/modules/rtt/SEGGER_RTT.c **** *    SEGGER_RTT_WriteNoLock does not lock the application.
 760:/home/rdu/Workspace/project_templates/mcu/stm32_ws/src/modules/rtt/SEGGER_RTT.c **** *
 761:/home/rdu/Workspace/project_templates/mcu/stm32_ws/src/modules/rtt/SEGGER_RTT.c **** *  Parameters
 762:/home/rdu/Workspace/project_templates/mcu/stm32_ws/src/modules/rtt/SEGGER_RTT.c **** *    BufferIndex  Index of "Up"-buffer to be used (e.g. 0 for "Terminal").
 763:/home/rdu/Workspace/project_templates/mcu/stm32_ws/src/modules/rtt/SEGGER_RTT.c **** *    pBuffer      Pointer to character array. Does not need to point to a \0 terminated string.
 764:/home/rdu/Workspace/project_templates/mcu/stm32_ws/src/modules/rtt/SEGGER_RTT.c **** *    NumBytes     Number of bytes to be stored in the SEGGER RTT control block.
 765:/home/rdu/Workspace/project_templates/mcu/stm32_ws/src/modules/rtt/SEGGER_RTT.c **** *
 766:/home/rdu/Workspace/project_templates/mcu/stm32_ws/src/modules/rtt/SEGGER_RTT.c **** *  Return value
 767:/home/rdu/Workspace/project_templates/mcu/stm32_ws/src/modules/rtt/SEGGER_RTT.c **** *    Number of bytes which have been stored in the "Up"-buffer.
 768:/home/rdu/Workspace/project_templates/mcu/stm32_ws/src/modules/rtt/SEGGER_RTT.c **** *
 769:/home/rdu/Workspace/project_templates/mcu/stm32_ws/src/modules/rtt/SEGGER_RTT.c **** *  Notes
 770:/home/rdu/Workspace/project_templates/mcu/stm32_ws/src/modules/rtt/SEGGER_RTT.c **** *    (1) If there is not enough space in the "Up"-buffer, remaining characters of pBuffer are dropp
 771:/home/rdu/Workspace/project_templates/mcu/stm32_ws/src/modules/rtt/SEGGER_RTT.c **** *    (2) For performance reasons this function does not call Init()
 772:/home/rdu/Workspace/project_templates/mcu/stm32_ws/src/modules/rtt/SEGGER_RTT.c **** *        and may only be called after RTT has been initialized.
 773:/home/rdu/Workspace/project_templates/mcu/stm32_ws/src/modules/rtt/SEGGER_RTT.c **** *        Either by calling SEGGER_RTT_Init() or calling another RTT API function first.
 774:/home/rdu/Workspace/project_templates/mcu/stm32_ws/src/modules/rtt/SEGGER_RTT.c **** */
 775:/home/rdu/Workspace/project_templates/mcu/stm32_ws/src/modules/rtt/SEGGER_RTT.c **** unsigned SEGGER_RTT_WriteNoLock(unsigned BufferIndex, const void* pBuffer, unsigned NumBytes) {
 1209              		.loc 1 775 0
 1210              		.cfi_startproc
 1211              		@ args = 0, pretend = 0, frame = 32
 1212              		@ frame_needed = 0, uses_anonymous_args = 0
 1213 0000 00B5     		push	{lr}
 1214              	.LCFI25:
 1215              		.cfi_def_cfa_offset 4
 1216              		.cfi_offset 14, -4
 1217 0002 89B0     		sub	sp, sp, #36
 1218              	.LCFI26:
 1219              		.cfi_def_cfa_offset 40
 1220 0004 0390     		str	r0, [sp, #12]
 1221 0006 0291     		str	r1, [sp, #8]
 1222 0008 0192     		str	r2, [sp, #4]
 776:/home/rdu/Workspace/project_templates/mcu/stm32_ws/src/modules/rtt/SEGGER_RTT.c ****   unsigned              Status;
 777:/home/rdu/Workspace/project_templates/mcu/stm32_ws/src/modules/rtt/SEGGER_RTT.c ****   unsigned              Avail;
 778:/home/rdu/Workspace/project_templates/mcu/stm32_ws/src/modules/rtt/SEGGER_RTT.c ****   const char*           pData;
 779:/home/rdu/Workspace/project_templates/mcu/stm32_ws/src/modules/rtt/SEGGER_RTT.c ****   SEGGER_RTT_BUFFER_UP* pRing;
 780:/home/rdu/Workspace/project_templates/mcu/stm32_ws/src/modules/rtt/SEGGER_RTT.c **** 
 781:/home/rdu/Workspace/project_templates/mcu/stm32_ws/src/modules/rtt/SEGGER_RTT.c ****   pData = (const char *)pBuffer;
 1223              		.loc 1 781 0
 1224 000a 029B     		ldr	r3, [sp, #8]
 1225 000c 0693     		str	r3, [sp, #24]
 782:/home/rdu/Workspace/project_templates/mcu/stm32_ws/src/modules/rtt/SEGGER_RTT.c ****   //
 783:/home/rdu/Workspace/project_templates/mcu/stm32_ws/src/modules/rtt/SEGGER_RTT.c ****   // Get "to-host" ring buffer.
 784:/home/rdu/Workspace/project_templates/mcu/stm32_ws/src/modules/rtt/SEGGER_RTT.c ****   //
 785:/home/rdu/Workspace/project_templates/mcu/stm32_ws/src/modules/rtt/SEGGER_RTT.c ****   pRing = &_SEGGER_RTT.aUp[BufferIndex];
 1226              		.loc 1 785 0
 1227 000e 039B     		ldr	r3, [sp, #12]
 1228 0010 5A1C     		adds	r2, r3, #1
 1229 0012 1346     		mov	r3, r2
 1230 0014 5B00     		lsls	r3, r3, #1
 1231 0016 1344     		add	r3, r3, r2
 1232 0018 DB00     		lsls	r3, r3, #3
 1233 001a 1F4A     		ldr	r2, .L64
 1234 001c 1344     		add	r3, r3, r2
 1235 001e 0593     		str	r3, [sp, #20]
 786:/home/rdu/Workspace/project_templates/mcu/stm32_ws/src/modules/rtt/SEGGER_RTT.c ****   //
 787:/home/rdu/Workspace/project_templates/mcu/stm32_ws/src/modules/rtt/SEGGER_RTT.c ****   // How we output depends upon the mode...
 788:/home/rdu/Workspace/project_templates/mcu/stm32_ws/src/modules/rtt/SEGGER_RTT.c ****   //
 789:/home/rdu/Workspace/project_templates/mcu/stm32_ws/src/modules/rtt/SEGGER_RTT.c ****   switch (pRing->Flags) {
 1236              		.loc 1 789 0
 1237 0020 059B     		ldr	r3, [sp, #20]
 1238 0022 5B69     		ldr	r3, [r3, #20]
 1239 0024 012B     		cmp	r3, #1
 1240 0026 17D0     		beq	.L56
 1241 0028 012B     		cmp	r3, #1
 1242 002a 02D3     		bcc	.L57
 1243 002c 022B     		cmp	r3, #2
 1244 002e 23D0     		beq	.L58
 1245 0030 29E0     		b	.L63
 1246              	.L57:
 790:/home/rdu/Workspace/project_templates/mcu/stm32_ws/src/modules/rtt/SEGGER_RTT.c ****   case SEGGER_RTT_MODE_NO_BLOCK_SKIP:
 791:/home/rdu/Workspace/project_templates/mcu/stm32_ws/src/modules/rtt/SEGGER_RTT.c ****     //
 792:/home/rdu/Workspace/project_templates/mcu/stm32_ws/src/modules/rtt/SEGGER_RTT.c ****     // If we are in skip mode and there is no space for the whole
 793:/home/rdu/Workspace/project_templates/mcu/stm32_ws/src/modules/rtt/SEGGER_RTT.c ****     // of this output, don't bother.
 794:/home/rdu/Workspace/project_templates/mcu/stm32_ws/src/modules/rtt/SEGGER_RTT.c ****     //
 795:/home/rdu/Workspace/project_templates/mcu/stm32_ws/src/modules/rtt/SEGGER_RTT.c ****     Avail = _GetAvailWriteSpace(pRing);
 1247              		.loc 1 795 0
 1248 0032 0598     		ldr	r0, [sp, #20]
 1249 0034 FFF7FEFF 		bl	_GetAvailWriteSpace
 1250 0038 0490     		str	r0, [sp, #16]
 796:/home/rdu/Workspace/project_templates/mcu/stm32_ws/src/modules/rtt/SEGGER_RTT.c ****     if (Avail < NumBytes) {
 1251              		.loc 1 796 0
 1252 003a 049A     		ldr	r2, [sp, #16]
 1253 003c 019B     		ldr	r3, [sp, #4]
 1254 003e 9A42     		cmp	r2, r3
 1255 0040 02D2     		bcs	.L59
 797:/home/rdu/Workspace/project_templates/mcu/stm32_ws/src/modules/rtt/SEGGER_RTT.c ****       Status = 0u;
 1256              		.loc 1 797 0
 1257 0042 0023     		movs	r3, #0
 1258 0044 0793     		str	r3, [sp, #28]
 798:/home/rdu/Workspace/project_templates/mcu/stm32_ws/src/modules/rtt/SEGGER_RTT.c ****     } else {
 799:/home/rdu/Workspace/project_templates/mcu/stm32_ws/src/modules/rtt/SEGGER_RTT.c ****       Status = NumBytes;
 800:/home/rdu/Workspace/project_templates/mcu/stm32_ws/src/modules/rtt/SEGGER_RTT.c ****       _WriteNoCheck(pRing, pData, NumBytes);
 801:/home/rdu/Workspace/project_templates/mcu/stm32_ws/src/modules/rtt/SEGGER_RTT.c ****     }
 802:/home/rdu/Workspace/project_templates/mcu/stm32_ws/src/modules/rtt/SEGGER_RTT.c ****     break;
 1259              		.loc 1 802 0
 1260 0046 21E0     		b	.L61
 1261              	.L59:
 799:/home/rdu/Workspace/project_templates/mcu/stm32_ws/src/modules/rtt/SEGGER_RTT.c ****       _WriteNoCheck(pRing, pData, NumBytes);
 1262              		.loc 1 799 0
 1263 0048 019B     		ldr	r3, [sp, #4]
 1264 004a 0793     		str	r3, [sp, #28]
 800:/home/rdu/Workspace/project_templates/mcu/stm32_ws/src/modules/rtt/SEGGER_RTT.c ****     }
 1265              		.loc 1 800 0
 1266 004c 019A     		ldr	r2, [sp, #4]
 1267 004e 0699     		ldr	r1, [sp, #24]
 1268 0050 0598     		ldr	r0, [sp, #20]
 1269 0052 FFF7FEFF 		bl	_WriteNoCheck
 1270              		.loc 1 802 0
 1271 0056 19E0     		b	.L61
 1272              	.L56:
 803:/home/rdu/Workspace/project_templates/mcu/stm32_ws/src/modules/rtt/SEGGER_RTT.c ****   case SEGGER_RTT_MODE_NO_BLOCK_TRIM:
 804:/home/rdu/Workspace/project_templates/mcu/stm32_ws/src/modules/rtt/SEGGER_RTT.c ****     //
 805:/home/rdu/Workspace/project_templates/mcu/stm32_ws/src/modules/rtt/SEGGER_RTT.c ****     // If we are in trim mode, trim to what we can output without blocking.
 806:/home/rdu/Workspace/project_templates/mcu/stm32_ws/src/modules/rtt/SEGGER_RTT.c ****     //
 807:/home/rdu/Workspace/project_templates/mcu/stm32_ws/src/modules/rtt/SEGGER_RTT.c ****     Avail = _GetAvailWriteSpace(pRing);
 1273              		.loc 1 807 0
 1274 0058 0598     		ldr	r0, [sp, #20]
 1275 005a FFF7FEFF 		bl	_GetAvailWriteSpace
 1276 005e 0490     		str	r0, [sp, #16]
 808:/home/rdu/Workspace/project_templates/mcu/stm32_ws/src/modules/rtt/SEGGER_RTT.c ****     Status = Avail < NumBytes ? Avail : NumBytes;
 1277              		.loc 1 808 0
 1278 0060 019A     		ldr	r2, [sp, #4]
 1279 0062 049B     		ldr	r3, [sp, #16]
 1280 0064 9342     		cmp	r3, r2
 1281 0066 28BF     		it	cs
 1282 0068 1346     		movcs	r3, r2
 1283 006a 0793     		str	r3, [sp, #28]
 809:/home/rdu/Workspace/project_templates/mcu/stm32_ws/src/modules/rtt/SEGGER_RTT.c ****     _WriteNoCheck(pRing, pData, Status);
 1284              		.loc 1 809 0
 1285 006c 079A     		ldr	r2, [sp, #28]
 1286 006e 0699     		ldr	r1, [sp, #24]
 1287 0070 0598     		ldr	r0, [sp, #20]
 1288 0072 FFF7FEFF 		bl	_WriteNoCheck
 810:/home/rdu/Workspace/project_templates/mcu/stm32_ws/src/modules/rtt/SEGGER_RTT.c ****     break;
 1289              		.loc 1 810 0
 1290 0076 09E0     		b	.L61
 1291              	.L58:
 811:/home/rdu/Workspace/project_templates/mcu/stm32_ws/src/modules/rtt/SEGGER_RTT.c ****   case SEGGER_RTT_MODE_BLOCK_IF_FIFO_FULL:
 812:/home/rdu/Workspace/project_templates/mcu/stm32_ws/src/modules/rtt/SEGGER_RTT.c ****     //
 813:/home/rdu/Workspace/project_templates/mcu/stm32_ws/src/modules/rtt/SEGGER_RTT.c ****     // If we are in blocking mode, output everything.
 814:/home/rdu/Workspace/project_templates/mcu/stm32_ws/src/modules/rtt/SEGGER_RTT.c ****     //
 815:/home/rdu/Workspace/project_templates/mcu/stm32_ws/src/modules/rtt/SEGGER_RTT.c ****     Status = _WriteBlocking(pRing, pData, NumBytes);
 1292              		.loc 1 815 0
 1293 0078 019A     		ldr	r2, [sp, #4]
 1294 007a 0699     		ldr	r1, [sp, #24]
 1295 007c 0598     		ldr	r0, [sp, #20]
 1296 007e FFF7FEFF 		bl	_WriteBlocking
 1297 0082 0790     		str	r0, [sp, #28]
 816:/home/rdu/Workspace/project_templates/mcu/stm32_ws/src/modules/rtt/SEGGER_RTT.c ****     break;
 1298              		.loc 1 816 0
 1299 0084 02E0     		b	.L61
 1300              	.L63:
 817:/home/rdu/Workspace/project_templates/mcu/stm32_ws/src/modules/rtt/SEGGER_RTT.c ****   default:
 818:/home/rdu/Workspace/project_templates/mcu/stm32_ws/src/modules/rtt/SEGGER_RTT.c ****     Status = 0u;
 1301              		.loc 1 818 0
 1302 0086 0023     		movs	r3, #0
 1303 0088 0793     		str	r3, [sp, #28]
 819:/home/rdu/Workspace/project_templates/mcu/stm32_ws/src/modules/rtt/SEGGER_RTT.c ****     break;
 1304              		.loc 1 819 0
 1305 008a 00BF     		nop
 1306              	.L61:
 820:/home/rdu/Workspace/project_templates/mcu/stm32_ws/src/modules/rtt/SEGGER_RTT.c ****   }
 821:/home/rdu/Workspace/project_templates/mcu/stm32_ws/src/modules/rtt/SEGGER_RTT.c ****   //
 822:/home/rdu/Workspace/project_templates/mcu/stm32_ws/src/modules/rtt/SEGGER_RTT.c ****   // Finish up.
 823:/home/rdu/Workspace/project_templates/mcu/stm32_ws/src/modules/rtt/SEGGER_RTT.c ****   //
 824:/home/rdu/Workspace/project_templates/mcu/stm32_ws/src/modules/rtt/SEGGER_RTT.c ****   return Status;
 1307              		.loc 1 824 0
 1308 008c 079B     		ldr	r3, [sp, #28]
 825:/home/rdu/Workspace/project_templates/mcu/stm32_ws/src/modules/rtt/SEGGER_RTT.c **** }
 1309              		.loc 1 825 0
 1310 008e 1846     		mov	r0, r3
 1311 0090 09B0     		add	sp, sp, #36
 1312              	.LCFI27:
 1313              		.cfi_def_cfa_offset 4
 1314              		@ sp needed
 1315 0092 5DF804FB 		ldr	pc, [sp], #4
 1316              	.L65:
 1317 0096 00BF     		.align	2
 1318              	.L64:
 1319 0098 00000000 		.word	_SEGGER_RTT
 1320              		.cfi_endproc
 1321              	.LFE9:
 1323              		.section	.text.SEGGER_RTT_Write,"ax",%progbits
 1324              		.align	1
 1325              		.global	SEGGER_RTT_Write
 1326              		.syntax unified
 1327              		.thumb
 1328              		.thumb_func
 1329              		.fpu fpv4-sp-d16
 1331              	SEGGER_RTT_Write:
 1332              	.LFB10:
 826:/home/rdu/Workspace/project_templates/mcu/stm32_ws/src/modules/rtt/SEGGER_RTT.c **** 
 827:/home/rdu/Workspace/project_templates/mcu/stm32_ws/src/modules/rtt/SEGGER_RTT.c **** /*********************************************************************
 828:/home/rdu/Workspace/project_templates/mcu/stm32_ws/src/modules/rtt/SEGGER_RTT.c **** *
 829:/home/rdu/Workspace/project_templates/mcu/stm32_ws/src/modules/rtt/SEGGER_RTT.c **** *       SEGGER_RTT_Write
 830:/home/rdu/Workspace/project_templates/mcu/stm32_ws/src/modules/rtt/SEGGER_RTT.c **** *
 831:/home/rdu/Workspace/project_templates/mcu/stm32_ws/src/modules/rtt/SEGGER_RTT.c **** *  Function description
 832:/home/rdu/Workspace/project_templates/mcu/stm32_ws/src/modules/rtt/SEGGER_RTT.c **** *    Stores a specified number of characters in SEGGER RTT
 833:/home/rdu/Workspace/project_templates/mcu/stm32_ws/src/modules/rtt/SEGGER_RTT.c **** *    control block which is then read by the host.
 834:/home/rdu/Workspace/project_templates/mcu/stm32_ws/src/modules/rtt/SEGGER_RTT.c **** *
 835:/home/rdu/Workspace/project_templates/mcu/stm32_ws/src/modules/rtt/SEGGER_RTT.c **** *  Parameters
 836:/home/rdu/Workspace/project_templates/mcu/stm32_ws/src/modules/rtt/SEGGER_RTT.c **** *    BufferIndex  Index of "Up"-buffer to be used (e.g. 0 for "Terminal").
 837:/home/rdu/Workspace/project_templates/mcu/stm32_ws/src/modules/rtt/SEGGER_RTT.c **** *    pBuffer      Pointer to character array. Does not need to point to a \0 terminated string.
 838:/home/rdu/Workspace/project_templates/mcu/stm32_ws/src/modules/rtt/SEGGER_RTT.c **** *    NumBytes     Number of bytes to be stored in the SEGGER RTT control block.
 839:/home/rdu/Workspace/project_templates/mcu/stm32_ws/src/modules/rtt/SEGGER_RTT.c **** *
 840:/home/rdu/Workspace/project_templates/mcu/stm32_ws/src/modules/rtt/SEGGER_RTT.c **** *  Return value
 841:/home/rdu/Workspace/project_templates/mcu/stm32_ws/src/modules/rtt/SEGGER_RTT.c **** *    Number of bytes which have been stored in the "Up"-buffer.
 842:/home/rdu/Workspace/project_templates/mcu/stm32_ws/src/modules/rtt/SEGGER_RTT.c **** *
 843:/home/rdu/Workspace/project_templates/mcu/stm32_ws/src/modules/rtt/SEGGER_RTT.c **** *  Notes
 844:/home/rdu/Workspace/project_templates/mcu/stm32_ws/src/modules/rtt/SEGGER_RTT.c **** *    (1) If there is not enough space in the "Up"-buffer, remaining characters of pBuffer are dropp
 845:/home/rdu/Workspace/project_templates/mcu/stm32_ws/src/modules/rtt/SEGGER_RTT.c **** */
 846:/home/rdu/Workspace/project_templates/mcu/stm32_ws/src/modules/rtt/SEGGER_RTT.c **** unsigned SEGGER_RTT_Write(unsigned BufferIndex, const void* pBuffer, unsigned NumBytes) {
 1333              		.loc 1 846 0
 1334              		.cfi_startproc
 1335              		@ args = 0, pretend = 0, frame = 24
 1336              		@ frame_needed = 0, uses_anonymous_args = 0
 1337 0000 00B5     		push	{lr}
 1338              	.LCFI28:
 1339              		.cfi_def_cfa_offset 4
 1340              		.cfi_offset 14, -4
 1341 0002 87B0     		sub	sp, sp, #28
 1342              	.LCFI29:
 1343              		.cfi_def_cfa_offset 32
 1344 0004 0390     		str	r0, [sp, #12]
 1345 0006 0291     		str	r1, [sp, #8]
 1346 0008 0192     		str	r2, [sp, #4]
 847:/home/rdu/Workspace/project_templates/mcu/stm32_ws/src/modules/rtt/SEGGER_RTT.c ****   unsigned Status;
 848:/home/rdu/Workspace/project_templates/mcu/stm32_ws/src/modules/rtt/SEGGER_RTT.c ****   //
 849:/home/rdu/Workspace/project_templates/mcu/stm32_ws/src/modules/rtt/SEGGER_RTT.c ****   INIT();
 1347              		.loc 1 849 0
 1348 000a 0D4B     		ldr	r3, .L69
 1349 000c 1B78     		ldrb	r3, [r3]	@ zero_extendqisi2
 1350 000e 002B     		cmp	r3, #0
 1351 0010 01D1     		bne	.L67
 1352              		.loc 1 849 0 is_stmt 0 discriminator 1
 1353 0012 FFF7FEFF 		bl	_DoInit
 1354              	.L67:
 1355              	.LBB5:
 850:/home/rdu/Workspace/project_templates/mcu/stm32_ws/src/modules/rtt/SEGGER_RTT.c ****   SEGGER_RTT_LOCK();
 1356              		.loc 1 850 0 is_stmt 1
 1357              		.syntax unified
 1358              	@ 850 "/home/rdu/Workspace/project_templates/mcu/stm32_ws/src/modules/rtt/SEGGER_RTT.c" 1
 1359 0016 EFF31183 		mrs   r3, basepri  
 1360 001a 4FF02001 		mov   r1, #32       
 1361 001e 81F31188 		msr   basepri, r1  
 1362              		
 1363              	@ 0 "" 2
 1364              		.thumb
 1365              		.syntax unified
 1366 0022 0593     		str	r3, [sp, #20]
 851:/home/rdu/Workspace/project_templates/mcu/stm32_ws/src/modules/rtt/SEGGER_RTT.c ****   //
 852:/home/rdu/Workspace/project_templates/mcu/stm32_ws/src/modules/rtt/SEGGER_RTT.c ****   // Call the non-locking write function
 853:/home/rdu/Workspace/project_templates/mcu/stm32_ws/src/modules/rtt/SEGGER_RTT.c ****   //
 854:/home/rdu/Workspace/project_templates/mcu/stm32_ws/src/modules/rtt/SEGGER_RTT.c ****   Status = SEGGER_RTT_WriteNoLock(BufferIndex, pBuffer, NumBytes);
 1367              		.loc 1 854 0
 1368 0024 019A     		ldr	r2, [sp, #4]
 1369 0026 0299     		ldr	r1, [sp, #8]
 1370 0028 0398     		ldr	r0, [sp, #12]
 1371 002a FFF7FEFF 		bl	SEGGER_RTT_WriteNoLock
 1372 002e 0490     		str	r0, [sp, #16]
 855:/home/rdu/Workspace/project_templates/mcu/stm32_ws/src/modules/rtt/SEGGER_RTT.c ****   //
 856:/home/rdu/Workspace/project_templates/mcu/stm32_ws/src/modules/rtt/SEGGER_RTT.c ****   // Finish up.
 857:/home/rdu/Workspace/project_templates/mcu/stm32_ws/src/modules/rtt/SEGGER_RTT.c ****   //
 858:/home/rdu/Workspace/project_templates/mcu/stm32_ws/src/modules/rtt/SEGGER_RTT.c ****   SEGGER_RTT_UNLOCK();
 1373              		.loc 1 858 0
 1374 0030 059B     		ldr	r3, [sp, #20]
 1375              		.syntax unified
 1376              	@ 858 "/home/rdu/Workspace/project_templates/mcu/stm32_ws/src/modules/rtt/SEGGER_RTT.c" 1
 1377 0032 83F31188 		msr   basepri, r3  
 1378              		
 1379              	@ 0 "" 2
 1380              		.thumb
 1381              		.syntax unified
 1382              	.LBE5:
 859:/home/rdu/Workspace/project_templates/mcu/stm32_ws/src/modules/rtt/SEGGER_RTT.c ****   //
 860:/home/rdu/Workspace/project_templates/mcu/stm32_ws/src/modules/rtt/SEGGER_RTT.c ****   return Status;
 1383              		.loc 1 860 0
 1384 0036 049B     		ldr	r3, [sp, #16]
 861:/home/rdu/Workspace/project_templates/mcu/stm32_ws/src/modules/rtt/SEGGER_RTT.c **** }
 1385              		.loc 1 861 0
 1386 0038 1846     		mov	r0, r3
 1387 003a 07B0     		add	sp, sp, #28
 1388              	.LCFI30:
 1389              		.cfi_def_cfa_offset 4
 1390              		@ sp needed
 1391 003c 5DF804FB 		ldr	pc, [sp], #4
 1392              	.L70:
 1393              		.align	2
 1394              	.L69:
 1395 0040 00000000 		.word	_SEGGER_RTT
 1396              		.cfi_endproc
 1397              	.LFE10:
 1399              		.section	.text.SEGGER_RTT_WriteString,"ax",%progbits
 1400              		.align	1
 1401              		.global	SEGGER_RTT_WriteString
 1402              		.syntax unified
 1403              		.thumb
 1404              		.thumb_func
 1405              		.fpu fpv4-sp-d16
 1407              	SEGGER_RTT_WriteString:
 1408              	.LFB11:
 862:/home/rdu/Workspace/project_templates/mcu/stm32_ws/src/modules/rtt/SEGGER_RTT.c **** 
 863:/home/rdu/Workspace/project_templates/mcu/stm32_ws/src/modules/rtt/SEGGER_RTT.c **** /*********************************************************************
 864:/home/rdu/Workspace/project_templates/mcu/stm32_ws/src/modules/rtt/SEGGER_RTT.c **** *
 865:/home/rdu/Workspace/project_templates/mcu/stm32_ws/src/modules/rtt/SEGGER_RTT.c **** *       SEGGER_RTT_WriteString
 866:/home/rdu/Workspace/project_templates/mcu/stm32_ws/src/modules/rtt/SEGGER_RTT.c **** *
 867:/home/rdu/Workspace/project_templates/mcu/stm32_ws/src/modules/rtt/SEGGER_RTT.c **** *  Function description
 868:/home/rdu/Workspace/project_templates/mcu/stm32_ws/src/modules/rtt/SEGGER_RTT.c **** *    Stores string in SEGGER RTT control block.
 869:/home/rdu/Workspace/project_templates/mcu/stm32_ws/src/modules/rtt/SEGGER_RTT.c **** *    This data is read by the host.
 870:/home/rdu/Workspace/project_templates/mcu/stm32_ws/src/modules/rtt/SEGGER_RTT.c **** *
 871:/home/rdu/Workspace/project_templates/mcu/stm32_ws/src/modules/rtt/SEGGER_RTT.c **** *  Parameters
 872:/home/rdu/Workspace/project_templates/mcu/stm32_ws/src/modules/rtt/SEGGER_RTT.c **** *    BufferIndex  Index of "Up"-buffer to be used (e.g. 0 for "Terminal").
 873:/home/rdu/Workspace/project_templates/mcu/stm32_ws/src/modules/rtt/SEGGER_RTT.c **** *    s            Pointer to string.
 874:/home/rdu/Workspace/project_templates/mcu/stm32_ws/src/modules/rtt/SEGGER_RTT.c **** *
 875:/home/rdu/Workspace/project_templates/mcu/stm32_ws/src/modules/rtt/SEGGER_RTT.c **** *  Return value
 876:/home/rdu/Workspace/project_templates/mcu/stm32_ws/src/modules/rtt/SEGGER_RTT.c **** *    Number of bytes which have been stored in the "Up"-buffer.
 877:/home/rdu/Workspace/project_templates/mcu/stm32_ws/src/modules/rtt/SEGGER_RTT.c **** *
 878:/home/rdu/Workspace/project_templates/mcu/stm32_ws/src/modules/rtt/SEGGER_RTT.c **** *  Notes
 879:/home/rdu/Workspace/project_templates/mcu/stm32_ws/src/modules/rtt/SEGGER_RTT.c **** *    (1) If there is not enough space in the "Up"-buffer, depending on configuration,
 880:/home/rdu/Workspace/project_templates/mcu/stm32_ws/src/modules/rtt/SEGGER_RTT.c **** *        remaining characters may be dropped or RTT module waits until there is more space in the b
 881:/home/rdu/Workspace/project_templates/mcu/stm32_ws/src/modules/rtt/SEGGER_RTT.c **** *    (2) String passed to this function has to be \0 terminated
 882:/home/rdu/Workspace/project_templates/mcu/stm32_ws/src/modules/rtt/SEGGER_RTT.c **** *    (3) \0 termination character is *not* stored in RTT buffer
 883:/home/rdu/Workspace/project_templates/mcu/stm32_ws/src/modules/rtt/SEGGER_RTT.c **** */
 884:/home/rdu/Workspace/project_templates/mcu/stm32_ws/src/modules/rtt/SEGGER_RTT.c **** unsigned SEGGER_RTT_WriteString(unsigned BufferIndex, const char* s) {
 1409              		.loc 1 884 0
 1410              		.cfi_startproc
 1411              		@ args = 0, pretend = 0, frame = 16
 1412              		@ frame_needed = 0, uses_anonymous_args = 0
 1413 0000 00B5     		push	{lr}
 1414              	.LCFI31:
 1415              		.cfi_def_cfa_offset 4
 1416              		.cfi_offset 14, -4
 1417 0002 85B0     		sub	sp, sp, #20
 1418              	.LCFI32:
 1419              		.cfi_def_cfa_offset 24
 1420 0004 0190     		str	r0, [sp, #4]
 1421 0006 0091     		str	r1, [sp]
 885:/home/rdu/Workspace/project_templates/mcu/stm32_ws/src/modules/rtt/SEGGER_RTT.c ****   unsigned Len;
 886:/home/rdu/Workspace/project_templates/mcu/stm32_ws/src/modules/rtt/SEGGER_RTT.c **** 
 887:/home/rdu/Workspace/project_templates/mcu/stm32_ws/src/modules/rtt/SEGGER_RTT.c ****   Len = STRLEN(s);
 1422              		.loc 1 887 0
 1423 0008 0098     		ldr	r0, [sp]
 1424 000a FFF7FEFF 		bl	strlen
 1425 000e 0390     		str	r0, [sp, #12]
 888:/home/rdu/Workspace/project_templates/mcu/stm32_ws/src/modules/rtt/SEGGER_RTT.c ****   return SEGGER_RTT_Write(BufferIndex, s, Len);
 1426              		.loc 1 888 0
 1427 0010 039A     		ldr	r2, [sp, #12]
 1428 0012 0099     		ldr	r1, [sp]
 1429 0014 0198     		ldr	r0, [sp, #4]
 1430 0016 FFF7FEFF 		bl	SEGGER_RTT_Write
 1431 001a 0346     		mov	r3, r0
 889:/home/rdu/Workspace/project_templates/mcu/stm32_ws/src/modules/rtt/SEGGER_RTT.c **** }
 1432              		.loc 1 889 0
 1433 001c 1846     		mov	r0, r3
 1434 001e 05B0     		add	sp, sp, #20
 1435              	.LCFI33:
 1436              		.cfi_def_cfa_offset 4
 1437              		@ sp needed
 1438 0020 5DF804FB 		ldr	pc, [sp], #4
 1439              		.cfi_endproc
 1440              	.LFE11:
 1442              		.section	.text.SEGGER_RTT_GetKey,"ax",%progbits
 1443              		.align	1
 1444              		.global	SEGGER_RTT_GetKey
 1445              		.syntax unified
 1446              		.thumb
 1447              		.thumb_func
 1448              		.fpu fpv4-sp-d16
 1450              	SEGGER_RTT_GetKey:
 1451              	.LFB12:
 890:/home/rdu/Workspace/project_templates/mcu/stm32_ws/src/modules/rtt/SEGGER_RTT.c **** 
 891:/home/rdu/Workspace/project_templates/mcu/stm32_ws/src/modules/rtt/SEGGER_RTT.c **** /*********************************************************************
 892:/home/rdu/Workspace/project_templates/mcu/stm32_ws/src/modules/rtt/SEGGER_RTT.c **** *
 893:/home/rdu/Workspace/project_templates/mcu/stm32_ws/src/modules/rtt/SEGGER_RTT.c **** *       SEGGER_RTT_GetKey
 894:/home/rdu/Workspace/project_templates/mcu/stm32_ws/src/modules/rtt/SEGGER_RTT.c **** *
 895:/home/rdu/Workspace/project_templates/mcu/stm32_ws/src/modules/rtt/SEGGER_RTT.c **** *  Function description
 896:/home/rdu/Workspace/project_templates/mcu/stm32_ws/src/modules/rtt/SEGGER_RTT.c **** *    Reads one character from the SEGGER RTT buffer.
 897:/home/rdu/Workspace/project_templates/mcu/stm32_ws/src/modules/rtt/SEGGER_RTT.c **** *    Host has previously stored data there.
 898:/home/rdu/Workspace/project_templates/mcu/stm32_ws/src/modules/rtt/SEGGER_RTT.c **** *
 899:/home/rdu/Workspace/project_templates/mcu/stm32_ws/src/modules/rtt/SEGGER_RTT.c **** *  Return value
 900:/home/rdu/Workspace/project_templates/mcu/stm32_ws/src/modules/rtt/SEGGER_RTT.c **** *    <  0 -   No character available (buffer empty).
 901:/home/rdu/Workspace/project_templates/mcu/stm32_ws/src/modules/rtt/SEGGER_RTT.c **** *    >= 0 -   Character which has been read. (Possible values: 0 - 255)
 902:/home/rdu/Workspace/project_templates/mcu/stm32_ws/src/modules/rtt/SEGGER_RTT.c **** *
 903:/home/rdu/Workspace/project_templates/mcu/stm32_ws/src/modules/rtt/SEGGER_RTT.c **** *  Notes
 904:/home/rdu/Workspace/project_templates/mcu/stm32_ws/src/modules/rtt/SEGGER_RTT.c **** *    (1) This function is only specified for accesses to RTT buffer 0.
 905:/home/rdu/Workspace/project_templates/mcu/stm32_ws/src/modules/rtt/SEGGER_RTT.c **** */
 906:/home/rdu/Workspace/project_templates/mcu/stm32_ws/src/modules/rtt/SEGGER_RTT.c **** int SEGGER_RTT_GetKey(void) {
 1452              		.loc 1 906 0
 1453              		.cfi_startproc
 1454              		@ args = 0, pretend = 0, frame = 8
 1455              		@ frame_needed = 0, uses_anonymous_args = 0
 1456 0000 00B5     		push	{lr}
 1457              	.LCFI34:
 1458              		.cfi_def_cfa_offset 4
 1459              		.cfi_offset 14, -4
 1460 0002 83B0     		sub	sp, sp, #12
 1461              	.LCFI35:
 1462              		.cfi_def_cfa_offset 16
 907:/home/rdu/Workspace/project_templates/mcu/stm32_ws/src/modules/rtt/SEGGER_RTT.c ****   char c;
 908:/home/rdu/Workspace/project_templates/mcu/stm32_ws/src/modules/rtt/SEGGER_RTT.c ****   int r;
 909:/home/rdu/Workspace/project_templates/mcu/stm32_ws/src/modules/rtt/SEGGER_RTT.c **** 
 910:/home/rdu/Workspace/project_templates/mcu/stm32_ws/src/modules/rtt/SEGGER_RTT.c ****   r = (int)SEGGER_RTT_Read(0u, &c, 1u);
 1463              		.loc 1 910 0
 1464 0004 0DF10303 		add	r3, sp, #3
 1465 0008 0122     		movs	r2, #1
 1466 000a 1946     		mov	r1, r3
 1467 000c 0020     		movs	r0, #0
 1468 000e FFF7FEFF 		bl	SEGGER_RTT_Read
 1469 0012 0346     		mov	r3, r0
 1470 0014 0193     		str	r3, [sp, #4]
 911:/home/rdu/Workspace/project_templates/mcu/stm32_ws/src/modules/rtt/SEGGER_RTT.c ****   if (r == 1) {
 1471              		.loc 1 911 0
 1472 0016 019B     		ldr	r3, [sp, #4]
 1473 0018 012B     		cmp	r3, #1
 1474 001a 03D1     		bne	.L74
 912:/home/rdu/Workspace/project_templates/mcu/stm32_ws/src/modules/rtt/SEGGER_RTT.c ****     r = (int)(unsigned char)c;
 1475              		.loc 1 912 0
 1476 001c 9DF80330 		ldrb	r3, [sp, #3]	@ zero_extendqisi2
 1477 0020 0193     		str	r3, [sp, #4]
 1478 0022 02E0     		b	.L75
 1479              	.L74:
 913:/home/rdu/Workspace/project_templates/mcu/stm32_ws/src/modules/rtt/SEGGER_RTT.c ****   } else {
 914:/home/rdu/Workspace/project_templates/mcu/stm32_ws/src/modules/rtt/SEGGER_RTT.c ****     r = -1;
 1480              		.loc 1 914 0
 1481 0024 4FF0FF33 		mov	r3, #-1
 1482 0028 0193     		str	r3, [sp, #4]
 1483              	.L75:
 915:/home/rdu/Workspace/project_templates/mcu/stm32_ws/src/modules/rtt/SEGGER_RTT.c ****   }
 916:/home/rdu/Workspace/project_templates/mcu/stm32_ws/src/modules/rtt/SEGGER_RTT.c ****   return r;
 1484              		.loc 1 916 0
 1485 002a 019B     		ldr	r3, [sp, #4]
 917:/home/rdu/Workspace/project_templates/mcu/stm32_ws/src/modules/rtt/SEGGER_RTT.c **** }
 1486              		.loc 1 917 0
 1487 002c 1846     		mov	r0, r3
 1488 002e 03B0     		add	sp, sp, #12
 1489              	.LCFI36:
 1490              		.cfi_def_cfa_offset 4
 1491              		@ sp needed
 1492 0030 5DF804FB 		ldr	pc, [sp], #4
 1493              		.cfi_endproc
 1494              	.LFE12:
 1496              		.section	.text.SEGGER_RTT_WaitKey,"ax",%progbits
 1497              		.align	1
 1498              		.global	SEGGER_RTT_WaitKey
 1499              		.syntax unified
 1500              		.thumb
 1501              		.thumb_func
 1502              		.fpu fpv4-sp-d16
 1504              	SEGGER_RTT_WaitKey:
 1505              	.LFB13:
 918:/home/rdu/Workspace/project_templates/mcu/stm32_ws/src/modules/rtt/SEGGER_RTT.c **** 
 919:/home/rdu/Workspace/project_templates/mcu/stm32_ws/src/modules/rtt/SEGGER_RTT.c **** /*********************************************************************
 920:/home/rdu/Workspace/project_templates/mcu/stm32_ws/src/modules/rtt/SEGGER_RTT.c **** *
 921:/home/rdu/Workspace/project_templates/mcu/stm32_ws/src/modules/rtt/SEGGER_RTT.c **** *       SEGGER_RTT_WaitKey
 922:/home/rdu/Workspace/project_templates/mcu/stm32_ws/src/modules/rtt/SEGGER_RTT.c **** *
 923:/home/rdu/Workspace/project_templates/mcu/stm32_ws/src/modules/rtt/SEGGER_RTT.c **** *  Function description
 924:/home/rdu/Workspace/project_templates/mcu/stm32_ws/src/modules/rtt/SEGGER_RTT.c **** *    Waits until at least one character is avaible in the SEGGER RTT buffer.
 925:/home/rdu/Workspace/project_templates/mcu/stm32_ws/src/modules/rtt/SEGGER_RTT.c **** *    Once a character is available, it is read and this function returns.
 926:/home/rdu/Workspace/project_templates/mcu/stm32_ws/src/modules/rtt/SEGGER_RTT.c **** *
 927:/home/rdu/Workspace/project_templates/mcu/stm32_ws/src/modules/rtt/SEGGER_RTT.c **** *  Return value
 928:/home/rdu/Workspace/project_templates/mcu/stm32_ws/src/modules/rtt/SEGGER_RTT.c **** *    >=0 -   Character which has been read.
 929:/home/rdu/Workspace/project_templates/mcu/stm32_ws/src/modules/rtt/SEGGER_RTT.c **** *
 930:/home/rdu/Workspace/project_templates/mcu/stm32_ws/src/modules/rtt/SEGGER_RTT.c **** *  Notes
 931:/home/rdu/Workspace/project_templates/mcu/stm32_ws/src/modules/rtt/SEGGER_RTT.c **** *    (1) This function is only specified for accesses to RTT buffer 0
 932:/home/rdu/Workspace/project_templates/mcu/stm32_ws/src/modules/rtt/SEGGER_RTT.c **** *    (2) This function is blocking if no character is present in RTT buffer
 933:/home/rdu/Workspace/project_templates/mcu/stm32_ws/src/modules/rtt/SEGGER_RTT.c **** */
 934:/home/rdu/Workspace/project_templates/mcu/stm32_ws/src/modules/rtt/SEGGER_RTT.c **** int SEGGER_RTT_WaitKey(void) {
 1506              		.loc 1 934 0
 1507              		.cfi_startproc
 1508              		@ args = 0, pretend = 0, frame = 8
 1509              		@ frame_needed = 0, uses_anonymous_args = 0
 1510 0000 00B5     		push	{lr}
 1511              	.LCFI37:
 1512              		.cfi_def_cfa_offset 4
 1513              		.cfi_offset 14, -4
 1514 0002 83B0     		sub	sp, sp, #12
 1515              	.LCFI38:
 1516              		.cfi_def_cfa_offset 16
 1517              	.L78:
 935:/home/rdu/Workspace/project_templates/mcu/stm32_ws/src/modules/rtt/SEGGER_RTT.c ****   int r;
 936:/home/rdu/Workspace/project_templates/mcu/stm32_ws/src/modules/rtt/SEGGER_RTT.c **** 
 937:/home/rdu/Workspace/project_templates/mcu/stm32_ws/src/modules/rtt/SEGGER_RTT.c ****   do {
 938:/home/rdu/Workspace/project_templates/mcu/stm32_ws/src/modules/rtt/SEGGER_RTT.c ****     r = SEGGER_RTT_GetKey();
 1518              		.loc 1 938 0 discriminator 1
 1519 0004 FFF7FEFF 		bl	SEGGER_RTT_GetKey
 1520 0008 0190     		str	r0, [sp, #4]
 939:/home/rdu/Workspace/project_templates/mcu/stm32_ws/src/modules/rtt/SEGGER_RTT.c ****   } while (r < 0);
 1521              		.loc 1 939 0 discriminator 1
 1522 000a 019B     		ldr	r3, [sp, #4]
 1523 000c 002B     		cmp	r3, #0
 1524 000e F9DB     		blt	.L78
 940:/home/rdu/Workspace/project_templates/mcu/stm32_ws/src/modules/rtt/SEGGER_RTT.c ****   return r;
 1525              		.loc 1 940 0
 1526 0010 019B     		ldr	r3, [sp, #4]
 941:/home/rdu/Workspace/project_templates/mcu/stm32_ws/src/modules/rtt/SEGGER_RTT.c **** }
 1527              		.loc 1 941 0
 1528 0012 1846     		mov	r0, r3
 1529 0014 03B0     		add	sp, sp, #12
 1530              	.LCFI39:
 1531              		.cfi_def_cfa_offset 4
 1532              		@ sp needed
 1533 0016 5DF804FB 		ldr	pc, [sp], #4
 1534              		.cfi_endproc
 1535              	.LFE13:
 1537              		.section	.text.SEGGER_RTT_HasKey,"ax",%progbits
 1538              		.align	1
 1539              		.global	SEGGER_RTT_HasKey
 1540              		.syntax unified
 1541              		.thumb
 1542              		.thumb_func
 1543              		.fpu fpv4-sp-d16
 1545              	SEGGER_RTT_HasKey:
 1546              	.LFB14:
 942:/home/rdu/Workspace/project_templates/mcu/stm32_ws/src/modules/rtt/SEGGER_RTT.c **** 
 943:/home/rdu/Workspace/project_templates/mcu/stm32_ws/src/modules/rtt/SEGGER_RTT.c **** /*********************************************************************
 944:/home/rdu/Workspace/project_templates/mcu/stm32_ws/src/modules/rtt/SEGGER_RTT.c **** *
 945:/home/rdu/Workspace/project_templates/mcu/stm32_ws/src/modules/rtt/SEGGER_RTT.c **** *       SEGGER_RTT_HasKey
 946:/home/rdu/Workspace/project_templates/mcu/stm32_ws/src/modules/rtt/SEGGER_RTT.c **** *
 947:/home/rdu/Workspace/project_templates/mcu/stm32_ws/src/modules/rtt/SEGGER_RTT.c **** *  Function description
 948:/home/rdu/Workspace/project_templates/mcu/stm32_ws/src/modules/rtt/SEGGER_RTT.c **** *    Checks if at least one character for reading is available in the SEGGER RTT buffer.
 949:/home/rdu/Workspace/project_templates/mcu/stm32_ws/src/modules/rtt/SEGGER_RTT.c **** *
 950:/home/rdu/Workspace/project_templates/mcu/stm32_ws/src/modules/rtt/SEGGER_RTT.c **** *  Return value
 951:/home/rdu/Workspace/project_templates/mcu/stm32_ws/src/modules/rtt/SEGGER_RTT.c **** *    == 0 -     No characters are available to read.
 952:/home/rdu/Workspace/project_templates/mcu/stm32_ws/src/modules/rtt/SEGGER_RTT.c **** *    == 1 -     At least one character is available.
 953:/home/rdu/Workspace/project_templates/mcu/stm32_ws/src/modules/rtt/SEGGER_RTT.c **** *
 954:/home/rdu/Workspace/project_templates/mcu/stm32_ws/src/modules/rtt/SEGGER_RTT.c **** *  Notes
 955:/home/rdu/Workspace/project_templates/mcu/stm32_ws/src/modules/rtt/SEGGER_RTT.c **** *    (1) This function is only specified for accesses to RTT buffer 0
 956:/home/rdu/Workspace/project_templates/mcu/stm32_ws/src/modules/rtt/SEGGER_RTT.c **** */
 957:/home/rdu/Workspace/project_templates/mcu/stm32_ws/src/modules/rtt/SEGGER_RTT.c **** int SEGGER_RTT_HasKey(void) {
 1547              		.loc 1 957 0
 1548              		.cfi_startproc
 1549              		@ args = 0, pretend = 0, frame = 8
 1550              		@ frame_needed = 0, uses_anonymous_args = 0
 1551 0000 00B5     		push	{lr}
 1552              	.LCFI40:
 1553              		.cfi_def_cfa_offset 4
 1554              		.cfi_offset 14, -4
 1555 0002 83B0     		sub	sp, sp, #12
 1556              	.LCFI41:
 1557              		.cfi_def_cfa_offset 16
 958:/home/rdu/Workspace/project_templates/mcu/stm32_ws/src/modules/rtt/SEGGER_RTT.c ****   unsigned RdOff;
 959:/home/rdu/Workspace/project_templates/mcu/stm32_ws/src/modules/rtt/SEGGER_RTT.c ****   int r;
 960:/home/rdu/Workspace/project_templates/mcu/stm32_ws/src/modules/rtt/SEGGER_RTT.c **** 
 961:/home/rdu/Workspace/project_templates/mcu/stm32_ws/src/modules/rtt/SEGGER_RTT.c ****   INIT();
 1558              		.loc 1 961 0
 1559 0004 0B4B     		ldr	r3, .L85
 1560 0006 1B78     		ldrb	r3, [r3]	@ zero_extendqisi2
 1561 0008 002B     		cmp	r3, #0
 1562 000a 01D1     		bne	.L81
 1563              		.loc 1 961 0 is_stmt 0 discriminator 1
 1564 000c FFF7FEFF 		bl	_DoInit
 1565              	.L81:
 962:/home/rdu/Workspace/project_templates/mcu/stm32_ws/src/modules/rtt/SEGGER_RTT.c ****   RdOff = _SEGGER_RTT.aDown[0].RdOff;
 1566              		.loc 1 962 0 is_stmt 1
 1567 0010 084B     		ldr	r3, .L85
 1568 0012 1B6F     		ldr	r3, [r3, #112]
 1569 0014 0093     		str	r3, [sp]
 963:/home/rdu/Workspace/project_templates/mcu/stm32_ws/src/modules/rtt/SEGGER_RTT.c ****   if (RdOff != _SEGGER_RTT.aDown[0].WrOff) {
 1570              		.loc 1 963 0
 1571 0016 074B     		ldr	r3, .L85
 1572 0018 DB6E     		ldr	r3, [r3, #108]
 1573 001a 009A     		ldr	r2, [sp]
 1574 001c 9A42     		cmp	r2, r3
 1575 001e 02D0     		beq	.L82
 964:/home/rdu/Workspace/project_templates/mcu/stm32_ws/src/modules/rtt/SEGGER_RTT.c ****     r = 1;
 1576              		.loc 1 964 0
 1577 0020 0123     		movs	r3, #1
 1578 0022 0193     		str	r3, [sp, #4]
 1579 0024 01E0     		b	.L83
 1580              	.L82:
 965:/home/rdu/Workspace/project_templates/mcu/stm32_ws/src/modules/rtt/SEGGER_RTT.c ****   } else {
 966:/home/rdu/Workspace/project_templates/mcu/stm32_ws/src/modules/rtt/SEGGER_RTT.c ****     r = 0;
 1581              		.loc 1 966 0
 1582 0026 0023     		movs	r3, #0
 1583 0028 0193     		str	r3, [sp, #4]
 1584              	.L83:
 967:/home/rdu/Workspace/project_templates/mcu/stm32_ws/src/modules/rtt/SEGGER_RTT.c ****   }
 968:/home/rdu/Workspace/project_templates/mcu/stm32_ws/src/modules/rtt/SEGGER_RTT.c ****   return r;
 1585              		.loc 1 968 0
 1586 002a 019B     		ldr	r3, [sp, #4]
 969:/home/rdu/Workspace/project_templates/mcu/stm32_ws/src/modules/rtt/SEGGER_RTT.c **** }
 1587              		.loc 1 969 0
 1588 002c 1846     		mov	r0, r3
 1589 002e 03B0     		add	sp, sp, #12
 1590              	.LCFI42:
 1591              		.cfi_def_cfa_offset 4
 1592              		@ sp needed
 1593 0030 5DF804FB 		ldr	pc, [sp], #4
 1594              	.L86:
 1595              		.align	2
 1596              	.L85:
 1597 0034 00000000 		.word	_SEGGER_RTT
 1598              		.cfi_endproc
 1599              	.LFE14:
 1601              		.section	.text.SEGGER_RTT_HasData,"ax",%progbits
 1602              		.align	1
 1603              		.global	SEGGER_RTT_HasData
 1604              		.syntax unified
 1605              		.thumb
 1606              		.thumb_func
 1607              		.fpu fpv4-sp-d16
 1609              	SEGGER_RTT_HasData:
 1610              	.LFB15:
 970:/home/rdu/Workspace/project_templates/mcu/stm32_ws/src/modules/rtt/SEGGER_RTT.c **** 
 971:/home/rdu/Workspace/project_templates/mcu/stm32_ws/src/modules/rtt/SEGGER_RTT.c **** /*********************************************************************
 972:/home/rdu/Workspace/project_templates/mcu/stm32_ws/src/modules/rtt/SEGGER_RTT.c **** *
 973:/home/rdu/Workspace/project_templates/mcu/stm32_ws/src/modules/rtt/SEGGER_RTT.c **** *       SEGGER_RTT_HasData
 974:/home/rdu/Workspace/project_templates/mcu/stm32_ws/src/modules/rtt/SEGGER_RTT.c **** *
 975:/home/rdu/Workspace/project_templates/mcu/stm32_ws/src/modules/rtt/SEGGER_RTT.c **** *  Function description
 976:/home/rdu/Workspace/project_templates/mcu/stm32_ws/src/modules/rtt/SEGGER_RTT.c **** *    Check if there is data from the host in the given buffer.
 977:/home/rdu/Workspace/project_templates/mcu/stm32_ws/src/modules/rtt/SEGGER_RTT.c **** *
 978:/home/rdu/Workspace/project_templates/mcu/stm32_ws/src/modules/rtt/SEGGER_RTT.c **** *  Return value:
 979:/home/rdu/Workspace/project_templates/mcu/stm32_ws/src/modules/rtt/SEGGER_RTT.c **** *  ==0:  No data
 980:/home/rdu/Workspace/project_templates/mcu/stm32_ws/src/modules/rtt/SEGGER_RTT.c **** *  !=0:  Data in buffer
 981:/home/rdu/Workspace/project_templates/mcu/stm32_ws/src/modules/rtt/SEGGER_RTT.c **** *
 982:/home/rdu/Workspace/project_templates/mcu/stm32_ws/src/modules/rtt/SEGGER_RTT.c **** */
 983:/home/rdu/Workspace/project_templates/mcu/stm32_ws/src/modules/rtt/SEGGER_RTT.c **** unsigned SEGGER_RTT_HasData(unsigned BufferIndex) {
 1611              		.loc 1 983 0
 1612              		.cfi_startproc
 1613              		@ args = 0, pretend = 0, frame = 16
 1614              		@ frame_needed = 0, uses_anonymous_args = 0
 1615              		@ link register save eliminated.
 1616 0000 84B0     		sub	sp, sp, #16
 1617              	.LCFI43:
 1618              		.cfi_def_cfa_offset 16
 1619 0002 0190     		str	r0, [sp, #4]
 984:/home/rdu/Workspace/project_templates/mcu/stm32_ws/src/modules/rtt/SEGGER_RTT.c ****   SEGGER_RTT_BUFFER_DOWN* pRing;
 985:/home/rdu/Workspace/project_templates/mcu/stm32_ws/src/modules/rtt/SEGGER_RTT.c ****   unsigned                v;
 986:/home/rdu/Workspace/project_templates/mcu/stm32_ws/src/modules/rtt/SEGGER_RTT.c **** 
 987:/home/rdu/Workspace/project_templates/mcu/stm32_ws/src/modules/rtt/SEGGER_RTT.c ****   pRing = &_SEGGER_RTT.aDown[BufferIndex];
 1620              		.loc 1 987 0
 1621 0004 019A     		ldr	r2, [sp, #4]
 1622 0006 1346     		mov	r3, r2
 1623 0008 5B00     		lsls	r3, r3, #1
 1624 000a 1344     		add	r3, r3, r2
 1625 000c DB00     		lsls	r3, r3, #3
 1626 000e 6033     		adds	r3, r3, #96
 1627 0010 064A     		ldr	r2, .L89
 1628 0012 1344     		add	r3, r3, r2
 1629 0014 0393     		str	r3, [sp, #12]
 988:/home/rdu/Workspace/project_templates/mcu/stm32_ws/src/modules/rtt/SEGGER_RTT.c ****   v = pRing->WrOff;
 1630              		.loc 1 988 0
 1631 0016 039B     		ldr	r3, [sp, #12]
 1632 0018 DB68     		ldr	r3, [r3, #12]
 1633 001a 0293     		str	r3, [sp, #8]
 989:/home/rdu/Workspace/project_templates/mcu/stm32_ws/src/modules/rtt/SEGGER_RTT.c ****   return v - pRing->RdOff;
 1634              		.loc 1 989 0
 1635 001c 039B     		ldr	r3, [sp, #12]
 1636 001e 1B69     		ldr	r3, [r3, #16]
 1637 0020 029A     		ldr	r2, [sp, #8]
 1638 0022 D31A     		subs	r3, r2, r3
 990:/home/rdu/Workspace/project_templates/mcu/stm32_ws/src/modules/rtt/SEGGER_RTT.c **** }
 1639              		.loc 1 990 0
 1640 0024 1846     		mov	r0, r3
 1641 0026 04B0     		add	sp, sp, #16
 1642              	.LCFI44:
 1643              		.cfi_def_cfa_offset 0
 1644              		@ sp needed
 1645 0028 7047     		bx	lr
 1646              	.L90:
 1647 002a 00BF     		.align	2
 1648              	.L89:
 1649 002c 00000000 		.word	_SEGGER_RTT
 1650              		.cfi_endproc
 1651              	.LFE15:
 1653              		.section	.text.SEGGER_RTT_AllocDownBuffer,"ax",%progbits
 1654              		.align	1
 1655              		.global	SEGGER_RTT_AllocDownBuffer
 1656              		.syntax unified
 1657              		.thumb
 1658              		.thumb_func
 1659              		.fpu fpv4-sp-d16
 1661              	SEGGER_RTT_AllocDownBuffer:
 1662              	.LFB16:
 991:/home/rdu/Workspace/project_templates/mcu/stm32_ws/src/modules/rtt/SEGGER_RTT.c **** 
 992:/home/rdu/Workspace/project_templates/mcu/stm32_ws/src/modules/rtt/SEGGER_RTT.c **** /*********************************************************************
 993:/home/rdu/Workspace/project_templates/mcu/stm32_ws/src/modules/rtt/SEGGER_RTT.c **** *
 994:/home/rdu/Workspace/project_templates/mcu/stm32_ws/src/modules/rtt/SEGGER_RTT.c **** *       SEGGER_RTT_AllocDownBuffer
 995:/home/rdu/Workspace/project_templates/mcu/stm32_ws/src/modules/rtt/SEGGER_RTT.c **** *
 996:/home/rdu/Workspace/project_templates/mcu/stm32_ws/src/modules/rtt/SEGGER_RTT.c **** *  Function description
 997:/home/rdu/Workspace/project_templates/mcu/stm32_ws/src/modules/rtt/SEGGER_RTT.c **** *    Run-time configuration of the next down-buffer (H->T).
 998:/home/rdu/Workspace/project_templates/mcu/stm32_ws/src/modules/rtt/SEGGER_RTT.c **** *    The next buffer, which is not used yet is configured.
 999:/home/rdu/Workspace/project_templates/mcu/stm32_ws/src/modules/rtt/SEGGER_RTT.c **** *    This includes: Buffer address, size, name, flags, ...
1000:/home/rdu/Workspace/project_templates/mcu/stm32_ws/src/modules/rtt/SEGGER_RTT.c **** *
1001:/home/rdu/Workspace/project_templates/mcu/stm32_ws/src/modules/rtt/SEGGER_RTT.c **** *  Parameters
1002:/home/rdu/Workspace/project_templates/mcu/stm32_ws/src/modules/rtt/SEGGER_RTT.c **** *    sName        Pointer to a constant name string.
1003:/home/rdu/Workspace/project_templates/mcu/stm32_ws/src/modules/rtt/SEGGER_RTT.c **** *    pBuffer      Pointer to a buffer to be used.
1004:/home/rdu/Workspace/project_templates/mcu/stm32_ws/src/modules/rtt/SEGGER_RTT.c **** *    BufferSize   Size of the buffer.
1005:/home/rdu/Workspace/project_templates/mcu/stm32_ws/src/modules/rtt/SEGGER_RTT.c **** *    Flags        Operating modes. Define behavior if buffer is full (not enough space for entire m
1006:/home/rdu/Workspace/project_templates/mcu/stm32_ws/src/modules/rtt/SEGGER_RTT.c **** *
1007:/home/rdu/Workspace/project_templates/mcu/stm32_ws/src/modules/rtt/SEGGER_RTT.c **** *  Return value
1008:/home/rdu/Workspace/project_templates/mcu/stm32_ws/src/modules/rtt/SEGGER_RTT.c **** *    >= 0 - O.K. Buffer Index
1009:/home/rdu/Workspace/project_templates/mcu/stm32_ws/src/modules/rtt/SEGGER_RTT.c **** *     < 0 - Error
1010:/home/rdu/Workspace/project_templates/mcu/stm32_ws/src/modules/rtt/SEGGER_RTT.c **** */
1011:/home/rdu/Workspace/project_templates/mcu/stm32_ws/src/modules/rtt/SEGGER_RTT.c **** int SEGGER_RTT_AllocDownBuffer(const char* sName, void* pBuffer, unsigned BufferSize, unsigned Flag
 1663              		.loc 1 1011 0
 1664              		.cfi_startproc
 1665              		@ args = 0, pretend = 0, frame = 24
 1666              		@ frame_needed = 0, uses_anonymous_args = 0
 1667 0000 00B5     		push	{lr}
 1668              	.LCFI45:
 1669              		.cfi_def_cfa_offset 4
 1670              		.cfi_offset 14, -4
 1671 0002 87B0     		sub	sp, sp, #28
 1672              	.LCFI46:
 1673              		.cfi_def_cfa_offset 32
 1674 0004 0390     		str	r0, [sp, #12]
 1675 0006 0291     		str	r1, [sp, #8]
 1676 0008 0192     		str	r2, [sp, #4]
 1677 000a 0093     		str	r3, [sp]
1012:/home/rdu/Workspace/project_templates/mcu/stm32_ws/src/modules/rtt/SEGGER_RTT.c ****   int BufferIndex;
1013:/home/rdu/Workspace/project_templates/mcu/stm32_ws/src/modules/rtt/SEGGER_RTT.c **** 
1014:/home/rdu/Workspace/project_templates/mcu/stm32_ws/src/modules/rtt/SEGGER_RTT.c ****   INIT();
 1678              		.loc 1 1014 0
 1679 000c 384B     		ldr	r3, .L100
 1680 000e 1B78     		ldrb	r3, [r3]	@ zero_extendqisi2
 1681 0010 002B     		cmp	r3, #0
 1682 0012 01D1     		bne	.L92
 1683              		.loc 1 1014 0 is_stmt 0 discriminator 1
 1684 0014 FFF7FEFF 		bl	_DoInit
 1685              	.L92:
 1686              	.LBB6:
1015:/home/rdu/Workspace/project_templates/mcu/stm32_ws/src/modules/rtt/SEGGER_RTT.c ****   SEGGER_RTT_LOCK();
 1687              		.loc 1 1015 0 is_stmt 1
 1688              		.syntax unified
 1689              	@ 1015 "/home/rdu/Workspace/project_templates/mcu/stm32_ws/src/modules/rtt/SEGGER_RTT.c" 1
 1690 0018 EFF31183 		mrs   r3, basepri  
 1691 001c 4FF02001 		mov   r1, #32       
 1692 0020 81F31188 		msr   basepri, r1  
 1693              		
 1694              	@ 0 "" 2
 1695              		.thumb
 1696              		.syntax unified
 1697 0024 0493     		str	r3, [sp, #16]
1016:/home/rdu/Workspace/project_templates/mcu/stm32_ws/src/modules/rtt/SEGGER_RTT.c ****   BufferIndex = 0;
 1698              		.loc 1 1016 0
 1699 0026 0023     		movs	r3, #0
 1700 0028 0593     		str	r3, [sp, #20]
 1701              	.L95:
1017:/home/rdu/Workspace/project_templates/mcu/stm32_ws/src/modules/rtt/SEGGER_RTT.c ****   do {
1018:/home/rdu/Workspace/project_templates/mcu/stm32_ws/src/modules/rtt/SEGGER_RTT.c ****     if (_SEGGER_RTT.aDown[BufferIndex].pBuffer == NULL) {
 1702              		.loc 1 1018 0
 1703 002a 3149     		ldr	r1, .L100
 1704 002c 059A     		ldr	r2, [sp, #20]
 1705 002e 1346     		mov	r3, r2
 1706 0030 5B00     		lsls	r3, r3, #1
 1707 0032 1344     		add	r3, r3, r2
 1708 0034 DB00     		lsls	r3, r3, #3
 1709 0036 0B44     		add	r3, r3, r1
 1710 0038 6433     		adds	r3, r3, #100
 1711 003a 1B68     		ldr	r3, [r3]
 1712 003c 002B     		cmp	r3, #0
 1713 003e 08D0     		beq	.L99
1019:/home/rdu/Workspace/project_templates/mcu/stm32_ws/src/modules/rtt/SEGGER_RTT.c ****       break;
1020:/home/rdu/Workspace/project_templates/mcu/stm32_ws/src/modules/rtt/SEGGER_RTT.c ****     }
1021:/home/rdu/Workspace/project_templates/mcu/stm32_ws/src/modules/rtt/SEGGER_RTT.c ****     BufferIndex++;
 1714              		.loc 1 1021 0
 1715 0040 059B     		ldr	r3, [sp, #20]
 1716 0042 0133     		adds	r3, r3, #1
 1717 0044 0593     		str	r3, [sp, #20]
1022:/home/rdu/Workspace/project_templates/mcu/stm32_ws/src/modules/rtt/SEGGER_RTT.c ****   } while (BufferIndex < _SEGGER_RTT.MaxNumDownBuffers);
 1718              		.loc 1 1022 0
 1719 0046 2A4B     		ldr	r3, .L100
 1720 0048 5B69     		ldr	r3, [r3, #20]
 1721 004a 059A     		ldr	r2, [sp, #20]
 1722 004c 9A42     		cmp	r2, r3
 1723 004e ECDB     		blt	.L95
 1724 0050 00E0     		b	.L94
 1725              	.L99:
1019:/home/rdu/Workspace/project_templates/mcu/stm32_ws/src/modules/rtt/SEGGER_RTT.c ****       break;
 1726              		.loc 1 1019 0
 1727 0052 00BF     		nop
 1728              	.L94:
1023:/home/rdu/Workspace/project_templates/mcu/stm32_ws/src/modules/rtt/SEGGER_RTT.c ****   if (BufferIndex < _SEGGER_RTT.MaxNumDownBuffers) {
 1729              		.loc 1 1023 0
 1730 0054 264B     		ldr	r3, .L100
 1731 0056 5B69     		ldr	r3, [r3, #20]
 1732 0058 059A     		ldr	r2, [sp, #20]
 1733 005a 9A42     		cmp	r2, r3
 1734 005c 3CDA     		bge	.L96
1024:/home/rdu/Workspace/project_templates/mcu/stm32_ws/src/modules/rtt/SEGGER_RTT.c ****     _SEGGER_RTT.aDown[BufferIndex].sName        = sName;
 1735              		.loc 1 1024 0
 1736 005e 2449     		ldr	r1, .L100
 1737 0060 059A     		ldr	r2, [sp, #20]
 1738 0062 1346     		mov	r3, r2
 1739 0064 5B00     		lsls	r3, r3, #1
 1740 0066 1344     		add	r3, r3, r2
 1741 0068 DB00     		lsls	r3, r3, #3
 1742 006a 0B44     		add	r3, r3, r1
 1743 006c 6033     		adds	r3, r3, #96
 1744 006e 039A     		ldr	r2, [sp, #12]
 1745 0070 1A60     		str	r2, [r3]
1025:/home/rdu/Workspace/project_templates/mcu/stm32_ws/src/modules/rtt/SEGGER_RTT.c ****     _SEGGER_RTT.aDown[BufferIndex].pBuffer      = (char*)pBuffer;
 1746              		.loc 1 1025 0
 1747 0072 1F49     		ldr	r1, .L100
 1748 0074 059A     		ldr	r2, [sp, #20]
 1749 0076 1346     		mov	r3, r2
 1750 0078 5B00     		lsls	r3, r3, #1
 1751 007a 1344     		add	r3, r3, r2
 1752 007c DB00     		lsls	r3, r3, #3
 1753 007e 0B44     		add	r3, r3, r1
 1754 0080 6433     		adds	r3, r3, #100
 1755 0082 029A     		ldr	r2, [sp, #8]
 1756 0084 1A60     		str	r2, [r3]
1026:/home/rdu/Workspace/project_templates/mcu/stm32_ws/src/modules/rtt/SEGGER_RTT.c ****     _SEGGER_RTT.aDown[BufferIndex].SizeOfBuffer = BufferSize;
 1757              		.loc 1 1026 0
 1758 0086 1A49     		ldr	r1, .L100
 1759 0088 059A     		ldr	r2, [sp, #20]
 1760 008a 1346     		mov	r3, r2
 1761 008c 5B00     		lsls	r3, r3, #1
 1762 008e 1344     		add	r3, r3, r2
 1763 0090 DB00     		lsls	r3, r3, #3
 1764 0092 0B44     		add	r3, r3, r1
 1765 0094 6833     		adds	r3, r3, #104
 1766 0096 019A     		ldr	r2, [sp, #4]
 1767 0098 1A60     		str	r2, [r3]
1027:/home/rdu/Workspace/project_templates/mcu/stm32_ws/src/modules/rtt/SEGGER_RTT.c ****     _SEGGER_RTT.aDown[BufferIndex].RdOff        = 0u;
 1768              		.loc 1 1027 0
 1769 009a 1549     		ldr	r1, .L100
 1770 009c 059A     		ldr	r2, [sp, #20]
 1771 009e 1346     		mov	r3, r2
 1772 00a0 5B00     		lsls	r3, r3, #1
 1773 00a2 1344     		add	r3, r3, r2
 1774 00a4 DB00     		lsls	r3, r3, #3
 1775 00a6 0B44     		add	r3, r3, r1
 1776 00a8 7033     		adds	r3, r3, #112
 1777 00aa 0022     		movs	r2, #0
 1778 00ac 1A60     		str	r2, [r3]
1028:/home/rdu/Workspace/project_templates/mcu/stm32_ws/src/modules/rtt/SEGGER_RTT.c ****     _SEGGER_RTT.aDown[BufferIndex].WrOff        = 0u;
 1779              		.loc 1 1028 0
 1780 00ae 1049     		ldr	r1, .L100
 1781 00b0 059A     		ldr	r2, [sp, #20]
 1782 00b2 1346     		mov	r3, r2
 1783 00b4 5B00     		lsls	r3, r3, #1
 1784 00b6 1344     		add	r3, r3, r2
 1785 00b8 DB00     		lsls	r3, r3, #3
 1786 00ba 0B44     		add	r3, r3, r1
 1787 00bc 6C33     		adds	r3, r3, #108
 1788 00be 0022     		movs	r2, #0
 1789 00c0 1A60     		str	r2, [r3]
1029:/home/rdu/Workspace/project_templates/mcu/stm32_ws/src/modules/rtt/SEGGER_RTT.c ****     _SEGGER_RTT.aDown[BufferIndex].Flags        = Flags;
 1790              		.loc 1 1029 0
 1791 00c2 0B49     		ldr	r1, .L100
 1792 00c4 059A     		ldr	r2, [sp, #20]
 1793 00c6 1346     		mov	r3, r2
 1794 00c8 5B00     		lsls	r3, r3, #1
 1795 00ca 1344     		add	r3, r3, r2
 1796 00cc DB00     		lsls	r3, r3, #3
 1797 00ce 0B44     		add	r3, r3, r1
 1798 00d0 7433     		adds	r3, r3, #116
 1799 00d2 009A     		ldr	r2, [sp]
 1800 00d4 1A60     		str	r2, [r3]
 1801 00d6 02E0     		b	.L97
 1802              	.L96:
1030:/home/rdu/Workspace/project_templates/mcu/stm32_ws/src/modules/rtt/SEGGER_RTT.c ****   } else {
1031:/home/rdu/Workspace/project_templates/mcu/stm32_ws/src/modules/rtt/SEGGER_RTT.c ****     BufferIndex = -1;
 1803              		.loc 1 1031 0
 1804 00d8 4FF0FF33 		mov	r3, #-1
 1805 00dc 0593     		str	r3, [sp, #20]
 1806              	.L97:
1032:/home/rdu/Workspace/project_templates/mcu/stm32_ws/src/modules/rtt/SEGGER_RTT.c ****   }
1033:/home/rdu/Workspace/project_templates/mcu/stm32_ws/src/modules/rtt/SEGGER_RTT.c ****   SEGGER_RTT_UNLOCK();
 1807              		.loc 1 1033 0
 1808 00de 049B     		ldr	r3, [sp, #16]
 1809              		.syntax unified
 1810              	@ 1033 "/home/rdu/Workspace/project_templates/mcu/stm32_ws/src/modules/rtt/SEGGER_RTT.c" 1
 1811 00e0 83F31188 		msr   basepri, r3  
 1812              		
 1813              	@ 0 "" 2
 1814              		.thumb
 1815              		.syntax unified
 1816              	.LBE6:
1034:/home/rdu/Workspace/project_templates/mcu/stm32_ws/src/modules/rtt/SEGGER_RTT.c ****   return BufferIndex;
 1817              		.loc 1 1034 0
 1818 00e4 059B     		ldr	r3, [sp, #20]
1035:/home/rdu/Workspace/project_templates/mcu/stm32_ws/src/modules/rtt/SEGGER_RTT.c **** }
 1819              		.loc 1 1035 0
 1820 00e6 1846     		mov	r0, r3
 1821 00e8 07B0     		add	sp, sp, #28
 1822              	.LCFI47:
 1823              		.cfi_def_cfa_offset 4
 1824              		@ sp needed
 1825 00ea 5DF804FB 		ldr	pc, [sp], #4
 1826              	.L101:
 1827 00ee 00BF     		.align	2
 1828              	.L100:
 1829 00f0 00000000 		.word	_SEGGER_RTT
 1830              		.cfi_endproc
 1831              	.LFE16:
 1833              		.section	.text.SEGGER_RTT_AllocUpBuffer,"ax",%progbits
 1834              		.align	1
 1835              		.global	SEGGER_RTT_AllocUpBuffer
 1836              		.syntax unified
 1837              		.thumb
 1838              		.thumb_func
 1839              		.fpu fpv4-sp-d16
 1841              	SEGGER_RTT_AllocUpBuffer:
 1842              	.LFB17:
1036:/home/rdu/Workspace/project_templates/mcu/stm32_ws/src/modules/rtt/SEGGER_RTT.c **** 
1037:/home/rdu/Workspace/project_templates/mcu/stm32_ws/src/modules/rtt/SEGGER_RTT.c **** /*********************************************************************
1038:/home/rdu/Workspace/project_templates/mcu/stm32_ws/src/modules/rtt/SEGGER_RTT.c **** *
1039:/home/rdu/Workspace/project_templates/mcu/stm32_ws/src/modules/rtt/SEGGER_RTT.c **** *       SEGGER_RTT_AllocUpBuffer
1040:/home/rdu/Workspace/project_templates/mcu/stm32_ws/src/modules/rtt/SEGGER_RTT.c **** *
1041:/home/rdu/Workspace/project_templates/mcu/stm32_ws/src/modules/rtt/SEGGER_RTT.c **** *  Function description
1042:/home/rdu/Workspace/project_templates/mcu/stm32_ws/src/modules/rtt/SEGGER_RTT.c **** *    Run-time configuration of the next up-buffer (T->H).
1043:/home/rdu/Workspace/project_templates/mcu/stm32_ws/src/modules/rtt/SEGGER_RTT.c **** *    The next buffer, which is not used yet is configured.
1044:/home/rdu/Workspace/project_templates/mcu/stm32_ws/src/modules/rtt/SEGGER_RTT.c **** *    This includes: Buffer address, size, name, flags, ...
1045:/home/rdu/Workspace/project_templates/mcu/stm32_ws/src/modules/rtt/SEGGER_RTT.c **** *
1046:/home/rdu/Workspace/project_templates/mcu/stm32_ws/src/modules/rtt/SEGGER_RTT.c **** *  Parameters
1047:/home/rdu/Workspace/project_templates/mcu/stm32_ws/src/modules/rtt/SEGGER_RTT.c **** *    sName        Pointer to a constant name string.
1048:/home/rdu/Workspace/project_templates/mcu/stm32_ws/src/modules/rtt/SEGGER_RTT.c **** *    pBuffer      Pointer to a buffer to be used.
1049:/home/rdu/Workspace/project_templates/mcu/stm32_ws/src/modules/rtt/SEGGER_RTT.c **** *    BufferSize   Size of the buffer.
1050:/home/rdu/Workspace/project_templates/mcu/stm32_ws/src/modules/rtt/SEGGER_RTT.c **** *    Flags        Operating modes. Define behavior if buffer is full (not enough space for entire m
1051:/home/rdu/Workspace/project_templates/mcu/stm32_ws/src/modules/rtt/SEGGER_RTT.c **** *
1052:/home/rdu/Workspace/project_templates/mcu/stm32_ws/src/modules/rtt/SEGGER_RTT.c **** *  Return value
1053:/home/rdu/Workspace/project_templates/mcu/stm32_ws/src/modules/rtt/SEGGER_RTT.c **** *    >= 0 - O.K. Buffer Index
1054:/home/rdu/Workspace/project_templates/mcu/stm32_ws/src/modules/rtt/SEGGER_RTT.c **** *     < 0 - Error
1055:/home/rdu/Workspace/project_templates/mcu/stm32_ws/src/modules/rtt/SEGGER_RTT.c **** */
1056:/home/rdu/Workspace/project_templates/mcu/stm32_ws/src/modules/rtt/SEGGER_RTT.c **** int SEGGER_RTT_AllocUpBuffer(const char* sName, void* pBuffer, unsigned BufferSize, unsigned Flags)
 1843              		.loc 1 1056 0
 1844              		.cfi_startproc
 1845              		@ args = 0, pretend = 0, frame = 24
 1846              		@ frame_needed = 0, uses_anonymous_args = 0
 1847 0000 00B5     		push	{lr}
 1848              	.LCFI48:
 1849              		.cfi_def_cfa_offset 4
 1850              		.cfi_offset 14, -4
 1851 0002 87B0     		sub	sp, sp, #28
 1852              	.LCFI49:
 1853              		.cfi_def_cfa_offset 32
 1854 0004 0390     		str	r0, [sp, #12]
 1855 0006 0291     		str	r1, [sp, #8]
 1856 0008 0192     		str	r2, [sp, #4]
 1857 000a 0093     		str	r3, [sp]
1057:/home/rdu/Workspace/project_templates/mcu/stm32_ws/src/modules/rtt/SEGGER_RTT.c ****   int BufferIndex;
1058:/home/rdu/Workspace/project_templates/mcu/stm32_ws/src/modules/rtt/SEGGER_RTT.c **** 
1059:/home/rdu/Workspace/project_templates/mcu/stm32_ws/src/modules/rtt/SEGGER_RTT.c ****   INIT();
 1858              		.loc 1 1059 0
 1859 000c 394B     		ldr	r3, .L111
 1860 000e 1B78     		ldrb	r3, [r3]	@ zero_extendqisi2
 1861 0010 002B     		cmp	r3, #0
 1862 0012 01D1     		bne	.L103
 1863              		.loc 1 1059 0 is_stmt 0 discriminator 1
 1864 0014 FFF7FEFF 		bl	_DoInit
 1865              	.L103:
 1866              	.LBB7:
1060:/home/rdu/Workspace/project_templates/mcu/stm32_ws/src/modules/rtt/SEGGER_RTT.c ****   SEGGER_RTT_LOCK();
 1867              		.loc 1 1060 0 is_stmt 1
 1868              		.syntax unified
 1869              	@ 1060 "/home/rdu/Workspace/project_templates/mcu/stm32_ws/src/modules/rtt/SEGGER_RTT.c" 1
 1870 0018 EFF31183 		mrs   r3, basepri  
 1871 001c 4FF02001 		mov   r1, #32       
 1872 0020 81F31188 		msr   basepri, r1  
 1873              		
 1874              	@ 0 "" 2
 1875              		.thumb
 1876              		.syntax unified
 1877 0024 0493     		str	r3, [sp, #16]
1061:/home/rdu/Workspace/project_templates/mcu/stm32_ws/src/modules/rtt/SEGGER_RTT.c ****   BufferIndex = 0;
 1878              		.loc 1 1061 0
 1879 0026 0023     		movs	r3, #0
 1880 0028 0593     		str	r3, [sp, #20]
 1881              	.L106:
1062:/home/rdu/Workspace/project_templates/mcu/stm32_ws/src/modules/rtt/SEGGER_RTT.c ****   do {
1063:/home/rdu/Workspace/project_templates/mcu/stm32_ws/src/modules/rtt/SEGGER_RTT.c ****     if (_SEGGER_RTT.aUp[BufferIndex].pBuffer == NULL) {
 1882              		.loc 1 1063 0
 1883 002a 3249     		ldr	r1, .L111
 1884 002c 059B     		ldr	r3, [sp, #20]
 1885 002e 5A1C     		adds	r2, r3, #1
 1886 0030 1346     		mov	r3, r2
 1887 0032 5B00     		lsls	r3, r3, #1
 1888 0034 1344     		add	r3, r3, r2
 1889 0036 DB00     		lsls	r3, r3, #3
 1890 0038 0B44     		add	r3, r3, r1
 1891 003a 0433     		adds	r3, r3, #4
 1892 003c 1B68     		ldr	r3, [r3]
 1893 003e 002B     		cmp	r3, #0
 1894 0040 08D0     		beq	.L110
1064:/home/rdu/Workspace/project_templates/mcu/stm32_ws/src/modules/rtt/SEGGER_RTT.c ****       break;
1065:/home/rdu/Workspace/project_templates/mcu/stm32_ws/src/modules/rtt/SEGGER_RTT.c ****     }
1066:/home/rdu/Workspace/project_templates/mcu/stm32_ws/src/modules/rtt/SEGGER_RTT.c ****     BufferIndex++;
 1895              		.loc 1 1066 0
 1896 0042 059B     		ldr	r3, [sp, #20]
 1897 0044 0133     		adds	r3, r3, #1
 1898 0046 0593     		str	r3, [sp, #20]
1067:/home/rdu/Workspace/project_templates/mcu/stm32_ws/src/modules/rtt/SEGGER_RTT.c ****   } while (BufferIndex < _SEGGER_RTT.MaxNumUpBuffers);
 1899              		.loc 1 1067 0
 1900 0048 2A4B     		ldr	r3, .L111
 1901 004a 1B69     		ldr	r3, [r3, #16]
 1902 004c 059A     		ldr	r2, [sp, #20]
 1903 004e 9A42     		cmp	r2, r3
 1904 0050 EBDB     		blt	.L106
 1905 0052 00E0     		b	.L105
 1906              	.L110:
1064:/home/rdu/Workspace/project_templates/mcu/stm32_ws/src/modules/rtt/SEGGER_RTT.c ****       break;
 1907              		.loc 1 1064 0
 1908 0054 00BF     		nop
 1909              	.L105:
1068:/home/rdu/Workspace/project_templates/mcu/stm32_ws/src/modules/rtt/SEGGER_RTT.c ****   if (BufferIndex < _SEGGER_RTT.MaxNumUpBuffers) {
 1910              		.loc 1 1068 0
 1911 0056 274B     		ldr	r3, .L111
 1912 0058 1B69     		ldr	r3, [r3, #16]
 1913 005a 059A     		ldr	r2, [sp, #20]
 1914 005c 9A42     		cmp	r2, r3
 1915 005e 3DDA     		bge	.L107
1069:/home/rdu/Workspace/project_templates/mcu/stm32_ws/src/modules/rtt/SEGGER_RTT.c ****     _SEGGER_RTT.aUp[BufferIndex].sName        = sName;
 1916              		.loc 1 1069 0
 1917 0060 2449     		ldr	r1, .L111
 1918 0062 059B     		ldr	r3, [sp, #20]
 1919 0064 5A1C     		adds	r2, r3, #1
 1920 0066 1346     		mov	r3, r2
 1921 0068 5B00     		lsls	r3, r3, #1
 1922 006a 1344     		add	r3, r3, r2
 1923 006c DB00     		lsls	r3, r3, #3
 1924 006e 0B44     		add	r3, r3, r1
 1925 0070 039A     		ldr	r2, [sp, #12]
 1926 0072 1A60     		str	r2, [r3]
1070:/home/rdu/Workspace/project_templates/mcu/stm32_ws/src/modules/rtt/SEGGER_RTT.c ****     _SEGGER_RTT.aUp[BufferIndex].pBuffer      = (char*)pBuffer;
 1927              		.loc 1 1070 0
 1928 0074 1F49     		ldr	r1, .L111
 1929 0076 059B     		ldr	r3, [sp, #20]
 1930 0078 5A1C     		adds	r2, r3, #1
 1931 007a 1346     		mov	r3, r2
 1932 007c 5B00     		lsls	r3, r3, #1
 1933 007e 1344     		add	r3, r3, r2
 1934 0080 DB00     		lsls	r3, r3, #3
 1935 0082 0B44     		add	r3, r3, r1
 1936 0084 0433     		adds	r3, r3, #4
 1937 0086 029A     		ldr	r2, [sp, #8]
 1938 0088 1A60     		str	r2, [r3]
1071:/home/rdu/Workspace/project_templates/mcu/stm32_ws/src/modules/rtt/SEGGER_RTT.c ****     _SEGGER_RTT.aUp[BufferIndex].SizeOfBuffer = BufferSize;
 1939              		.loc 1 1071 0
 1940 008a 1A49     		ldr	r1, .L111
 1941 008c 059A     		ldr	r2, [sp, #20]
 1942 008e 1346     		mov	r3, r2
 1943 0090 5B00     		lsls	r3, r3, #1
 1944 0092 1344     		add	r3, r3, r2
 1945 0094 DB00     		lsls	r3, r3, #3
 1946 0096 0B44     		add	r3, r3, r1
 1947 0098 2033     		adds	r3, r3, #32
 1948 009a 019A     		ldr	r2, [sp, #4]
 1949 009c 1A60     		str	r2, [r3]
1072:/home/rdu/Workspace/project_templates/mcu/stm32_ws/src/modules/rtt/SEGGER_RTT.c ****     _SEGGER_RTT.aUp[BufferIndex].RdOff        = 0u;
 1950              		.loc 1 1072 0
 1951 009e 1549     		ldr	r1, .L111
 1952 00a0 059A     		ldr	r2, [sp, #20]
 1953 00a2 1346     		mov	r3, r2
 1954 00a4 5B00     		lsls	r3, r3, #1
 1955 00a6 1344     		add	r3, r3, r2
 1956 00a8 DB00     		lsls	r3, r3, #3
 1957 00aa 0B44     		add	r3, r3, r1
 1958 00ac 2833     		adds	r3, r3, #40
 1959 00ae 0022     		movs	r2, #0
 1960 00b0 1A60     		str	r2, [r3]
1073:/home/rdu/Workspace/project_templates/mcu/stm32_ws/src/modules/rtt/SEGGER_RTT.c ****     _SEGGER_RTT.aUp[BufferIndex].WrOff        = 0u;
 1961              		.loc 1 1073 0
 1962 00b2 1049     		ldr	r1, .L111
 1963 00b4 059A     		ldr	r2, [sp, #20]
 1964 00b6 1346     		mov	r3, r2
 1965 00b8 5B00     		lsls	r3, r3, #1
 1966 00ba 1344     		add	r3, r3, r2
 1967 00bc DB00     		lsls	r3, r3, #3
 1968 00be 0B44     		add	r3, r3, r1
 1969 00c0 2433     		adds	r3, r3, #36
 1970 00c2 0022     		movs	r2, #0
 1971 00c4 1A60     		str	r2, [r3]
1074:/home/rdu/Workspace/project_templates/mcu/stm32_ws/src/modules/rtt/SEGGER_RTT.c ****     _SEGGER_RTT.aUp[BufferIndex].Flags        = Flags;
 1972              		.loc 1 1074 0
 1973 00c6 0B49     		ldr	r1, .L111
 1974 00c8 059A     		ldr	r2, [sp, #20]
 1975 00ca 1346     		mov	r3, r2
 1976 00cc 5B00     		lsls	r3, r3, #1
 1977 00ce 1344     		add	r3, r3, r2
 1978 00d0 DB00     		lsls	r3, r3, #3
 1979 00d2 0B44     		add	r3, r3, r1
 1980 00d4 2C33     		adds	r3, r3, #44
 1981 00d6 009A     		ldr	r2, [sp]
 1982 00d8 1A60     		str	r2, [r3]
 1983 00da 02E0     		b	.L108
 1984              	.L107:
1075:/home/rdu/Workspace/project_templates/mcu/stm32_ws/src/modules/rtt/SEGGER_RTT.c ****   } else {
1076:/home/rdu/Workspace/project_templates/mcu/stm32_ws/src/modules/rtt/SEGGER_RTT.c ****     BufferIndex = -1;
 1985              		.loc 1 1076 0
 1986 00dc 4FF0FF33 		mov	r3, #-1
 1987 00e0 0593     		str	r3, [sp, #20]
 1988              	.L108:
1077:/home/rdu/Workspace/project_templates/mcu/stm32_ws/src/modules/rtt/SEGGER_RTT.c ****   }
1078:/home/rdu/Workspace/project_templates/mcu/stm32_ws/src/modules/rtt/SEGGER_RTT.c ****   SEGGER_RTT_UNLOCK();
 1989              		.loc 1 1078 0
 1990 00e2 049B     		ldr	r3, [sp, #16]
 1991              		.syntax unified
 1992              	@ 1078 "/home/rdu/Workspace/project_templates/mcu/stm32_ws/src/modules/rtt/SEGGER_RTT.c" 1
 1993 00e4 83F31188 		msr   basepri, r3  
 1994              		
 1995              	@ 0 "" 2
 1996              		.thumb
 1997              		.syntax unified
 1998              	.LBE7:
1079:/home/rdu/Workspace/project_templates/mcu/stm32_ws/src/modules/rtt/SEGGER_RTT.c ****   return BufferIndex;
 1999              		.loc 1 1079 0
 2000 00e8 059B     		ldr	r3, [sp, #20]
1080:/home/rdu/Workspace/project_templates/mcu/stm32_ws/src/modules/rtt/SEGGER_RTT.c **** }
 2001              		.loc 1 1080 0
 2002 00ea 1846     		mov	r0, r3
 2003 00ec 07B0     		add	sp, sp, #28
 2004              	.LCFI50:
 2005              		.cfi_def_cfa_offset 4
 2006              		@ sp needed
 2007 00ee 5DF804FB 		ldr	pc, [sp], #4
 2008              	.L112:
 2009 00f2 00BF     		.align	2
 2010              	.L111:
 2011 00f4 00000000 		.word	_SEGGER_RTT
 2012              		.cfi_endproc
 2013              	.LFE17:
 2015              		.section	.text.SEGGER_RTT_ConfigUpBuffer,"ax",%progbits
 2016              		.align	1
 2017              		.global	SEGGER_RTT_ConfigUpBuffer
 2018              		.syntax unified
 2019              		.thumb
 2020              		.thumb_func
 2021              		.fpu fpv4-sp-d16
 2023              	SEGGER_RTT_ConfigUpBuffer:
 2024              	.LFB18:
1081:/home/rdu/Workspace/project_templates/mcu/stm32_ws/src/modules/rtt/SEGGER_RTT.c **** 
1082:/home/rdu/Workspace/project_templates/mcu/stm32_ws/src/modules/rtt/SEGGER_RTT.c **** /*********************************************************************
1083:/home/rdu/Workspace/project_templates/mcu/stm32_ws/src/modules/rtt/SEGGER_RTT.c **** *
1084:/home/rdu/Workspace/project_templates/mcu/stm32_ws/src/modules/rtt/SEGGER_RTT.c **** *       SEGGER_RTT_ConfigUpBuffer
1085:/home/rdu/Workspace/project_templates/mcu/stm32_ws/src/modules/rtt/SEGGER_RTT.c **** *
1086:/home/rdu/Workspace/project_templates/mcu/stm32_ws/src/modules/rtt/SEGGER_RTT.c **** *  Function description
1087:/home/rdu/Workspace/project_templates/mcu/stm32_ws/src/modules/rtt/SEGGER_RTT.c **** *    Run-time configuration of a specific up-buffer (T->H).
1088:/home/rdu/Workspace/project_templates/mcu/stm32_ws/src/modules/rtt/SEGGER_RTT.c **** *    Buffer to be configured is specified by index.
1089:/home/rdu/Workspace/project_templates/mcu/stm32_ws/src/modules/rtt/SEGGER_RTT.c **** *    This includes: Buffer address, size, name, flags, ...
1090:/home/rdu/Workspace/project_templates/mcu/stm32_ws/src/modules/rtt/SEGGER_RTT.c **** *
1091:/home/rdu/Workspace/project_templates/mcu/stm32_ws/src/modules/rtt/SEGGER_RTT.c **** *  Parameters
1092:/home/rdu/Workspace/project_templates/mcu/stm32_ws/src/modules/rtt/SEGGER_RTT.c **** *    BufferIndex  Index of the buffer to configure.
1093:/home/rdu/Workspace/project_templates/mcu/stm32_ws/src/modules/rtt/SEGGER_RTT.c **** *    sName        Pointer to a constant name string.
1094:/home/rdu/Workspace/project_templates/mcu/stm32_ws/src/modules/rtt/SEGGER_RTT.c **** *    pBuffer      Pointer to a buffer to be used.
1095:/home/rdu/Workspace/project_templates/mcu/stm32_ws/src/modules/rtt/SEGGER_RTT.c **** *    BufferSize   Size of the buffer.
1096:/home/rdu/Workspace/project_templates/mcu/stm32_ws/src/modules/rtt/SEGGER_RTT.c **** *    Flags        Operating modes. Define behavior if buffer is full (not enough space for entire m
1097:/home/rdu/Workspace/project_templates/mcu/stm32_ws/src/modules/rtt/SEGGER_RTT.c **** *
1098:/home/rdu/Workspace/project_templates/mcu/stm32_ws/src/modules/rtt/SEGGER_RTT.c **** *  Return value
1099:/home/rdu/Workspace/project_templates/mcu/stm32_ws/src/modules/rtt/SEGGER_RTT.c **** *    >= 0 - O.K.
1100:/home/rdu/Workspace/project_templates/mcu/stm32_ws/src/modules/rtt/SEGGER_RTT.c **** *     < 0 - Error
1101:/home/rdu/Workspace/project_templates/mcu/stm32_ws/src/modules/rtt/SEGGER_RTT.c **** *
1102:/home/rdu/Workspace/project_templates/mcu/stm32_ws/src/modules/rtt/SEGGER_RTT.c **** *  Additional information
1103:/home/rdu/Workspace/project_templates/mcu/stm32_ws/src/modules/rtt/SEGGER_RTT.c **** *    Buffer 0 is configured on compile-time.
1104:/home/rdu/Workspace/project_templates/mcu/stm32_ws/src/modules/rtt/SEGGER_RTT.c **** *    May only be called once per buffer.
1105:/home/rdu/Workspace/project_templates/mcu/stm32_ws/src/modules/rtt/SEGGER_RTT.c **** *    Buffer name and flags can be reconfigured using the appropriate functions.
1106:/home/rdu/Workspace/project_templates/mcu/stm32_ws/src/modules/rtt/SEGGER_RTT.c **** */
1107:/home/rdu/Workspace/project_templates/mcu/stm32_ws/src/modules/rtt/SEGGER_RTT.c **** int SEGGER_RTT_ConfigUpBuffer(unsigned BufferIndex, const char* sName, void* pBuffer, unsigned Buff
 2025              		.loc 1 1107 0
 2026              		.cfi_startproc
 2027              		@ args = 4, pretend = 0, frame = 24
 2028              		@ frame_needed = 0, uses_anonymous_args = 0
 2029 0000 00B5     		push	{lr}
 2030              	.LCFI51:
 2031              		.cfi_def_cfa_offset 4
 2032              		.cfi_offset 14, -4
 2033 0002 87B0     		sub	sp, sp, #28
 2034              	.LCFI52:
 2035              		.cfi_def_cfa_offset 32
 2036 0004 0390     		str	r0, [sp, #12]
 2037 0006 0291     		str	r1, [sp, #8]
 2038 0008 0192     		str	r2, [sp, #4]
 2039 000a 0093     		str	r3, [sp]
1108:/home/rdu/Workspace/project_templates/mcu/stm32_ws/src/modules/rtt/SEGGER_RTT.c ****   int r;
1109:/home/rdu/Workspace/project_templates/mcu/stm32_ws/src/modules/rtt/SEGGER_RTT.c **** 
1110:/home/rdu/Workspace/project_templates/mcu/stm32_ws/src/modules/rtt/SEGGER_RTT.c ****   INIT();
 2040              		.loc 1 1110 0
 2041 000c 304B     		ldr	r3, .L119
 2042 000e 1B78     		ldrb	r3, [r3]	@ zero_extendqisi2
 2043 0010 002B     		cmp	r3, #0
 2044 0012 01D1     		bne	.L114
 2045              		.loc 1 1110 0 is_stmt 0 discriminator 1
 2046 0014 FFF7FEFF 		bl	_DoInit
 2047              	.L114:
1111:/home/rdu/Workspace/project_templates/mcu/stm32_ws/src/modules/rtt/SEGGER_RTT.c ****   if (BufferIndex < (unsigned)_SEGGER_RTT.MaxNumUpBuffers) {
 2048              		.loc 1 1111 0 is_stmt 1
 2049 0018 2D4B     		ldr	r3, .L119
 2050 001a 1B69     		ldr	r3, [r3, #16]
 2051 001c 1A46     		mov	r2, r3
 2052 001e 039B     		ldr	r3, [sp, #12]
 2053 0020 9342     		cmp	r3, r2
 2054 0022 4CD2     		bcs	.L115
 2055              	.LBB8:
1112:/home/rdu/Workspace/project_templates/mcu/stm32_ws/src/modules/rtt/SEGGER_RTT.c ****     SEGGER_RTT_LOCK();
 2056              		.loc 1 1112 0
 2057              		.syntax unified
 2058              	@ 1112 "/home/rdu/Workspace/project_templates/mcu/stm32_ws/src/modules/rtt/SEGGER_RTT.c" 1
 2059 0024 EFF31183 		mrs   r3, basepri  
 2060 0028 4FF02001 		mov   r1, #32       
 2061 002c 81F31188 		msr   basepri, r1  
 2062              		
 2063              	@ 0 "" 2
 2064              		.thumb
 2065              		.syntax unified
 2066 0030 0493     		str	r3, [sp, #16]
1113:/home/rdu/Workspace/project_templates/mcu/stm32_ws/src/modules/rtt/SEGGER_RTT.c ****     if (BufferIndex > 0u) {
 2067              		.loc 1 1113 0
 2068 0032 039B     		ldr	r3, [sp, #12]
 2069 0034 002B     		cmp	r3, #0
 2070 0036 32D0     		beq	.L116
1114:/home/rdu/Workspace/project_templates/mcu/stm32_ws/src/modules/rtt/SEGGER_RTT.c ****       _SEGGER_RTT.aUp[BufferIndex].sName        = sName;
 2071              		.loc 1 1114 0
 2072 0038 2549     		ldr	r1, .L119
 2073 003a 039B     		ldr	r3, [sp, #12]
 2074 003c 5A1C     		adds	r2, r3, #1
 2075 003e 1346     		mov	r3, r2
 2076 0040 5B00     		lsls	r3, r3, #1
 2077 0042 1344     		add	r3, r3, r2
 2078 0044 DB00     		lsls	r3, r3, #3
 2079 0046 0B44     		add	r3, r3, r1
 2080 0048 029A     		ldr	r2, [sp, #8]
 2081 004a 1A60     		str	r2, [r3]
1115:/home/rdu/Workspace/project_templates/mcu/stm32_ws/src/modules/rtt/SEGGER_RTT.c ****       _SEGGER_RTT.aUp[BufferIndex].pBuffer      = (char*)pBuffer;
 2082              		.loc 1 1115 0
 2083 004c 2049     		ldr	r1, .L119
 2084 004e 039B     		ldr	r3, [sp, #12]
 2085 0050 5A1C     		adds	r2, r3, #1
 2086 0052 1346     		mov	r3, r2
 2087 0054 5B00     		lsls	r3, r3, #1
 2088 0056 1344     		add	r3, r3, r2
 2089 0058 DB00     		lsls	r3, r3, #3
 2090 005a 0B44     		add	r3, r3, r1
 2091 005c 0433     		adds	r3, r3, #4
 2092 005e 019A     		ldr	r2, [sp, #4]
 2093 0060 1A60     		str	r2, [r3]
1116:/home/rdu/Workspace/project_templates/mcu/stm32_ws/src/modules/rtt/SEGGER_RTT.c ****       _SEGGER_RTT.aUp[BufferIndex].SizeOfBuffer = BufferSize;
 2094              		.loc 1 1116 0
 2095 0062 1B49     		ldr	r1, .L119
 2096 0064 039A     		ldr	r2, [sp, #12]
 2097 0066 1346     		mov	r3, r2
 2098 0068 5B00     		lsls	r3, r3, #1
 2099 006a 1344     		add	r3, r3, r2
 2100 006c DB00     		lsls	r3, r3, #3
 2101 006e 0B44     		add	r3, r3, r1
 2102 0070 2033     		adds	r3, r3, #32
 2103 0072 009A     		ldr	r2, [sp]
 2104 0074 1A60     		str	r2, [r3]
1117:/home/rdu/Workspace/project_templates/mcu/stm32_ws/src/modules/rtt/SEGGER_RTT.c ****       _SEGGER_RTT.aUp[BufferIndex].RdOff        = 0u;
 2105              		.loc 1 1117 0
 2106 0076 1649     		ldr	r1, .L119
 2107 0078 039A     		ldr	r2, [sp, #12]
 2108 007a 1346     		mov	r3, r2
 2109 007c 5B00     		lsls	r3, r3, #1
 2110 007e 1344     		add	r3, r3, r2
 2111 0080 DB00     		lsls	r3, r3, #3
 2112 0082 0B44     		add	r3, r3, r1
 2113 0084 2833     		adds	r3, r3, #40
 2114 0086 0022     		movs	r2, #0
 2115 0088 1A60     		str	r2, [r3]
1118:/home/rdu/Workspace/project_templates/mcu/stm32_ws/src/modules/rtt/SEGGER_RTT.c ****       _SEGGER_RTT.aUp[BufferIndex].WrOff        = 0u;
 2116              		.loc 1 1118 0
 2117 008a 1149     		ldr	r1, .L119
 2118 008c 039A     		ldr	r2, [sp, #12]
 2119 008e 1346     		mov	r3, r2
 2120 0090 5B00     		lsls	r3, r3, #1
 2121 0092 1344     		add	r3, r3, r2
 2122 0094 DB00     		lsls	r3, r3, #3
 2123 0096 0B44     		add	r3, r3, r1
 2124 0098 2433     		adds	r3, r3, #36
 2125 009a 0022     		movs	r2, #0
 2126 009c 1A60     		str	r2, [r3]
 2127              	.L116:
1119:/home/rdu/Workspace/project_templates/mcu/stm32_ws/src/modules/rtt/SEGGER_RTT.c ****     }
1120:/home/rdu/Workspace/project_templates/mcu/stm32_ws/src/modules/rtt/SEGGER_RTT.c ****     _SEGGER_RTT.aUp[BufferIndex].Flags          = Flags;
 2128              		.loc 1 1120 0
 2129 009e 0C49     		ldr	r1, .L119
 2130 00a0 039A     		ldr	r2, [sp, #12]
 2131 00a2 1346     		mov	r3, r2
 2132 00a4 5B00     		lsls	r3, r3, #1
 2133 00a6 1344     		add	r3, r3, r2
 2134 00a8 DB00     		lsls	r3, r3, #3
 2135 00aa 0B44     		add	r3, r3, r1
 2136 00ac 2C33     		adds	r3, r3, #44
 2137 00ae 089A     		ldr	r2, [sp, #32]
 2138 00b0 1A60     		str	r2, [r3]
1121:/home/rdu/Workspace/project_templates/mcu/stm32_ws/src/modules/rtt/SEGGER_RTT.c ****     SEGGER_RTT_UNLOCK();
 2139              		.loc 1 1121 0
 2140 00b2 049B     		ldr	r3, [sp, #16]
 2141              		.syntax unified
 2142              	@ 1121 "/home/rdu/Workspace/project_templates/mcu/stm32_ws/src/modules/rtt/SEGGER_RTT.c" 1
 2143 00b4 83F31188 		msr   basepri, r3  
 2144              		
 2145              	@ 0 "" 2
 2146              		.thumb
 2147              		.syntax unified
 2148              	.LBE8:
1122:/home/rdu/Workspace/project_templates/mcu/stm32_ws/src/modules/rtt/SEGGER_RTT.c ****     r =  0;
 2149              		.loc 1 1122 0
 2150 00b8 0023     		movs	r3, #0
 2151 00ba 0593     		str	r3, [sp, #20]
 2152 00bc 02E0     		b	.L117
 2153              	.L115:
1123:/home/rdu/Workspace/project_templates/mcu/stm32_ws/src/modules/rtt/SEGGER_RTT.c ****   } else {
1124:/home/rdu/Workspace/project_templates/mcu/stm32_ws/src/modules/rtt/SEGGER_RTT.c ****     r = -1;
 2154              		.loc 1 1124 0
 2155 00be 4FF0FF33 		mov	r3, #-1
 2156 00c2 0593     		str	r3, [sp, #20]
 2157              	.L117:
1125:/home/rdu/Workspace/project_templates/mcu/stm32_ws/src/modules/rtt/SEGGER_RTT.c ****   }
1126:/home/rdu/Workspace/project_templates/mcu/stm32_ws/src/modules/rtt/SEGGER_RTT.c ****   return r;
 2158              		.loc 1 1126 0
 2159 00c4 059B     		ldr	r3, [sp, #20]
1127:/home/rdu/Workspace/project_templates/mcu/stm32_ws/src/modules/rtt/SEGGER_RTT.c **** }
 2160              		.loc 1 1127 0
 2161 00c6 1846     		mov	r0, r3
 2162 00c8 07B0     		add	sp, sp, #28
 2163              	.LCFI53:
 2164              		.cfi_def_cfa_offset 4
 2165              		@ sp needed
 2166 00ca 5DF804FB 		ldr	pc, [sp], #4
 2167              	.L120:
 2168 00ce 00BF     		.align	2
 2169              	.L119:
 2170 00d0 00000000 		.word	_SEGGER_RTT
 2171              		.cfi_endproc
 2172              	.LFE18:
 2174              		.section	.text.SEGGER_RTT_ConfigDownBuffer,"ax",%progbits
 2175              		.align	1
 2176              		.global	SEGGER_RTT_ConfigDownBuffer
 2177              		.syntax unified
 2178              		.thumb
 2179              		.thumb_func
 2180              		.fpu fpv4-sp-d16
 2182              	SEGGER_RTT_ConfigDownBuffer:
 2183              	.LFB19:
1128:/home/rdu/Workspace/project_templates/mcu/stm32_ws/src/modules/rtt/SEGGER_RTT.c **** 
1129:/home/rdu/Workspace/project_templates/mcu/stm32_ws/src/modules/rtt/SEGGER_RTT.c **** /*********************************************************************
1130:/home/rdu/Workspace/project_templates/mcu/stm32_ws/src/modules/rtt/SEGGER_RTT.c **** *
1131:/home/rdu/Workspace/project_templates/mcu/stm32_ws/src/modules/rtt/SEGGER_RTT.c **** *       SEGGER_RTT_ConfigDownBuffer
1132:/home/rdu/Workspace/project_templates/mcu/stm32_ws/src/modules/rtt/SEGGER_RTT.c **** *
1133:/home/rdu/Workspace/project_templates/mcu/stm32_ws/src/modules/rtt/SEGGER_RTT.c **** *  Function description
1134:/home/rdu/Workspace/project_templates/mcu/stm32_ws/src/modules/rtt/SEGGER_RTT.c **** *    Run-time configuration of a specific down-buffer (H->T).
1135:/home/rdu/Workspace/project_templates/mcu/stm32_ws/src/modules/rtt/SEGGER_RTT.c **** *    Buffer to be configured is specified by index.
1136:/home/rdu/Workspace/project_templates/mcu/stm32_ws/src/modules/rtt/SEGGER_RTT.c **** *    This includes: Buffer address, size, name, flags, ...
1137:/home/rdu/Workspace/project_templates/mcu/stm32_ws/src/modules/rtt/SEGGER_RTT.c **** *
1138:/home/rdu/Workspace/project_templates/mcu/stm32_ws/src/modules/rtt/SEGGER_RTT.c **** *  Parameters
1139:/home/rdu/Workspace/project_templates/mcu/stm32_ws/src/modules/rtt/SEGGER_RTT.c **** *    BufferIndex  Index of the buffer to configure.
1140:/home/rdu/Workspace/project_templates/mcu/stm32_ws/src/modules/rtt/SEGGER_RTT.c **** *    sName        Pointer to a constant name string.
1141:/home/rdu/Workspace/project_templates/mcu/stm32_ws/src/modules/rtt/SEGGER_RTT.c **** *    pBuffer      Pointer to a buffer to be used.
1142:/home/rdu/Workspace/project_templates/mcu/stm32_ws/src/modules/rtt/SEGGER_RTT.c **** *    BufferSize   Size of the buffer.
1143:/home/rdu/Workspace/project_templates/mcu/stm32_ws/src/modules/rtt/SEGGER_RTT.c **** *    Flags        Operating modes. Define behavior if buffer is full (not enough space for entire m
1144:/home/rdu/Workspace/project_templates/mcu/stm32_ws/src/modules/rtt/SEGGER_RTT.c **** *
1145:/home/rdu/Workspace/project_templates/mcu/stm32_ws/src/modules/rtt/SEGGER_RTT.c **** *  Return value
1146:/home/rdu/Workspace/project_templates/mcu/stm32_ws/src/modules/rtt/SEGGER_RTT.c **** *    >= 0  O.K.
1147:/home/rdu/Workspace/project_templates/mcu/stm32_ws/src/modules/rtt/SEGGER_RTT.c **** *     < 0  Error
1148:/home/rdu/Workspace/project_templates/mcu/stm32_ws/src/modules/rtt/SEGGER_RTT.c **** *
1149:/home/rdu/Workspace/project_templates/mcu/stm32_ws/src/modules/rtt/SEGGER_RTT.c **** *  Additional information
1150:/home/rdu/Workspace/project_templates/mcu/stm32_ws/src/modules/rtt/SEGGER_RTT.c **** *    Buffer 0 is configured on compile-time.
1151:/home/rdu/Workspace/project_templates/mcu/stm32_ws/src/modules/rtt/SEGGER_RTT.c **** *    May only be called once per buffer.
1152:/home/rdu/Workspace/project_templates/mcu/stm32_ws/src/modules/rtt/SEGGER_RTT.c **** *    Buffer name and flags can be reconfigured using the appropriate functions.
1153:/home/rdu/Workspace/project_templates/mcu/stm32_ws/src/modules/rtt/SEGGER_RTT.c **** */
1154:/home/rdu/Workspace/project_templates/mcu/stm32_ws/src/modules/rtt/SEGGER_RTT.c **** int SEGGER_RTT_ConfigDownBuffer(unsigned BufferIndex, const char* sName, void* pBuffer, unsigned Bu
 2184              		.loc 1 1154 0
 2185              		.cfi_startproc
 2186              		@ args = 4, pretend = 0, frame = 24
 2187              		@ frame_needed = 0, uses_anonymous_args = 0
 2188 0000 00B5     		push	{lr}
 2189              	.LCFI54:
 2190              		.cfi_def_cfa_offset 4
 2191              		.cfi_offset 14, -4
 2192 0002 87B0     		sub	sp, sp, #28
 2193              	.LCFI55:
 2194              		.cfi_def_cfa_offset 32
 2195 0004 0390     		str	r0, [sp, #12]
 2196 0006 0291     		str	r1, [sp, #8]
 2197 0008 0192     		str	r2, [sp, #4]
 2198 000a 0093     		str	r3, [sp]
1155:/home/rdu/Workspace/project_templates/mcu/stm32_ws/src/modules/rtt/SEGGER_RTT.c ****   int r;
1156:/home/rdu/Workspace/project_templates/mcu/stm32_ws/src/modules/rtt/SEGGER_RTT.c **** 
1157:/home/rdu/Workspace/project_templates/mcu/stm32_ws/src/modules/rtt/SEGGER_RTT.c ****   INIT();
 2199              		.loc 1 1157 0
 2200 000c 2F4B     		ldr	r3, .L127
 2201 000e 1B78     		ldrb	r3, [r3]	@ zero_extendqisi2
 2202 0010 002B     		cmp	r3, #0
 2203 0012 01D1     		bne	.L122
 2204              		.loc 1 1157 0 is_stmt 0 discriminator 1
 2205 0014 FFF7FEFF 		bl	_DoInit
 2206              	.L122:
1158:/home/rdu/Workspace/project_templates/mcu/stm32_ws/src/modules/rtt/SEGGER_RTT.c ****   if (BufferIndex < (unsigned)_SEGGER_RTT.MaxNumDownBuffers) {
 2207              		.loc 1 1158 0 is_stmt 1
 2208 0018 2C4B     		ldr	r3, .L127
 2209 001a 5B69     		ldr	r3, [r3, #20]
 2210 001c 1A46     		mov	r2, r3
 2211 001e 039B     		ldr	r3, [sp, #12]
 2212 0020 9342     		cmp	r3, r2
 2213 0022 4BD2     		bcs	.L123
 2214              	.LBB9:
1159:/home/rdu/Workspace/project_templates/mcu/stm32_ws/src/modules/rtt/SEGGER_RTT.c ****     SEGGER_RTT_LOCK();
 2215              		.loc 1 1159 0
 2216              		.syntax unified
 2217              	@ 1159 "/home/rdu/Workspace/project_templates/mcu/stm32_ws/src/modules/rtt/SEGGER_RTT.c" 1
 2218 0024 EFF31183 		mrs   r3, basepri  
 2219 0028 4FF02001 		mov   r1, #32       
 2220 002c 81F31188 		msr   basepri, r1  
 2221              		
 2222              	@ 0 "" 2
 2223              		.thumb
 2224              		.syntax unified
 2225 0030 0493     		str	r3, [sp, #16]
1160:/home/rdu/Workspace/project_templates/mcu/stm32_ws/src/modules/rtt/SEGGER_RTT.c ****     if (BufferIndex > 0u) {
 2226              		.loc 1 1160 0
 2227 0032 039B     		ldr	r3, [sp, #12]
 2228 0034 002B     		cmp	r3, #0
 2229 0036 31D0     		beq	.L124
1161:/home/rdu/Workspace/project_templates/mcu/stm32_ws/src/modules/rtt/SEGGER_RTT.c ****       _SEGGER_RTT.aDown[BufferIndex].sName        = sName;
 2230              		.loc 1 1161 0
 2231 0038 2449     		ldr	r1, .L127
 2232 003a 039A     		ldr	r2, [sp, #12]
 2233 003c 1346     		mov	r3, r2
 2234 003e 5B00     		lsls	r3, r3, #1
 2235 0040 1344     		add	r3, r3, r2
 2236 0042 DB00     		lsls	r3, r3, #3
 2237 0044 0B44     		add	r3, r3, r1
 2238 0046 6033     		adds	r3, r3, #96
 2239 0048 029A     		ldr	r2, [sp, #8]
 2240 004a 1A60     		str	r2, [r3]
1162:/home/rdu/Workspace/project_templates/mcu/stm32_ws/src/modules/rtt/SEGGER_RTT.c ****       _SEGGER_RTT.aDown[BufferIndex].pBuffer      = (char*)pBuffer;
 2241              		.loc 1 1162 0
 2242 004c 1F49     		ldr	r1, .L127
 2243 004e 039A     		ldr	r2, [sp, #12]
 2244 0050 1346     		mov	r3, r2
 2245 0052 5B00     		lsls	r3, r3, #1
 2246 0054 1344     		add	r3, r3, r2
 2247 0056 DB00     		lsls	r3, r3, #3
 2248 0058 0B44     		add	r3, r3, r1
 2249 005a 6433     		adds	r3, r3, #100
 2250 005c 019A     		ldr	r2, [sp, #4]
 2251 005e 1A60     		str	r2, [r3]
1163:/home/rdu/Workspace/project_templates/mcu/stm32_ws/src/modules/rtt/SEGGER_RTT.c ****       _SEGGER_RTT.aDown[BufferIndex].SizeOfBuffer = BufferSize;
 2252              		.loc 1 1163 0
 2253 0060 1A49     		ldr	r1, .L127
 2254 0062 039A     		ldr	r2, [sp, #12]
 2255 0064 1346     		mov	r3, r2
 2256 0066 5B00     		lsls	r3, r3, #1
 2257 0068 1344     		add	r3, r3, r2
 2258 006a DB00     		lsls	r3, r3, #3
 2259 006c 0B44     		add	r3, r3, r1
 2260 006e 6833     		adds	r3, r3, #104
 2261 0070 009A     		ldr	r2, [sp]
 2262 0072 1A60     		str	r2, [r3]
1164:/home/rdu/Workspace/project_templates/mcu/stm32_ws/src/modules/rtt/SEGGER_RTT.c ****       _SEGGER_RTT.aDown[BufferIndex].RdOff        = 0u;
 2263              		.loc 1 1164 0
 2264 0074 1549     		ldr	r1, .L127
 2265 0076 039A     		ldr	r2, [sp, #12]
 2266 0078 1346     		mov	r3, r2
 2267 007a 5B00     		lsls	r3, r3, #1
 2268 007c 1344     		add	r3, r3, r2
 2269 007e DB00     		lsls	r3, r3, #3
 2270 0080 0B44     		add	r3, r3, r1
 2271 0082 7033     		adds	r3, r3, #112
 2272 0084 0022     		movs	r2, #0
 2273 0086 1A60     		str	r2, [r3]
1165:/home/rdu/Workspace/project_templates/mcu/stm32_ws/src/modules/rtt/SEGGER_RTT.c ****       _SEGGER_RTT.aDown[BufferIndex].WrOff        = 0u;
 2274              		.loc 1 1165 0
 2275 0088 1049     		ldr	r1, .L127
 2276 008a 039A     		ldr	r2, [sp, #12]
 2277 008c 1346     		mov	r3, r2
 2278 008e 5B00     		lsls	r3, r3, #1
 2279 0090 1344     		add	r3, r3, r2
 2280 0092 DB00     		lsls	r3, r3, #3
 2281 0094 0B44     		add	r3, r3, r1
 2282 0096 6C33     		adds	r3, r3, #108
 2283 0098 0022     		movs	r2, #0
 2284 009a 1A60     		str	r2, [r3]
 2285              	.L124:
1166:/home/rdu/Workspace/project_templates/mcu/stm32_ws/src/modules/rtt/SEGGER_RTT.c ****     }
1167:/home/rdu/Workspace/project_templates/mcu/stm32_ws/src/modules/rtt/SEGGER_RTT.c ****     _SEGGER_RTT.aDown[BufferIndex].Flags          = Flags;
 2286              		.loc 1 1167 0
 2287 009c 0B49     		ldr	r1, .L127
 2288 009e 039A     		ldr	r2, [sp, #12]
 2289 00a0 1346     		mov	r3, r2
 2290 00a2 5B00     		lsls	r3, r3, #1
 2291 00a4 1344     		add	r3, r3, r2
 2292 00a6 DB00     		lsls	r3, r3, #3
 2293 00a8 0B44     		add	r3, r3, r1
 2294 00aa 7433     		adds	r3, r3, #116
 2295 00ac 089A     		ldr	r2, [sp, #32]
 2296 00ae 1A60     		str	r2, [r3]
1168:/home/rdu/Workspace/project_templates/mcu/stm32_ws/src/modules/rtt/SEGGER_RTT.c ****     SEGGER_RTT_UNLOCK();
 2297              		.loc 1 1168 0
 2298 00b0 049B     		ldr	r3, [sp, #16]
 2299              		.syntax unified
 2300              	@ 1168 "/home/rdu/Workspace/project_templates/mcu/stm32_ws/src/modules/rtt/SEGGER_RTT.c" 1
 2301 00b2 83F31188 		msr   basepri, r3  
 2302              		
 2303              	@ 0 "" 2
 2304              		.thumb
 2305              		.syntax unified
 2306              	.LBE9:
1169:/home/rdu/Workspace/project_templates/mcu/stm32_ws/src/modules/rtt/SEGGER_RTT.c ****     r =  0;
 2307              		.loc 1 1169 0
 2308 00b6 0023     		movs	r3, #0
 2309 00b8 0593     		str	r3, [sp, #20]
 2310 00ba 02E0     		b	.L125
 2311              	.L123:
1170:/home/rdu/Workspace/project_templates/mcu/stm32_ws/src/modules/rtt/SEGGER_RTT.c ****   } else {
1171:/home/rdu/Workspace/project_templates/mcu/stm32_ws/src/modules/rtt/SEGGER_RTT.c ****     r = -1;
 2312              		.loc 1 1171 0
 2313 00bc 4FF0FF33 		mov	r3, #-1
 2314 00c0 0593     		str	r3, [sp, #20]
 2315              	.L125:
1172:/home/rdu/Workspace/project_templates/mcu/stm32_ws/src/modules/rtt/SEGGER_RTT.c ****   }
1173:/home/rdu/Workspace/project_templates/mcu/stm32_ws/src/modules/rtt/SEGGER_RTT.c ****   return r;
 2316              		.loc 1 1173 0
 2317 00c2 059B     		ldr	r3, [sp, #20]
1174:/home/rdu/Workspace/project_templates/mcu/stm32_ws/src/modules/rtt/SEGGER_RTT.c **** }
 2318              		.loc 1 1174 0
 2319 00c4 1846     		mov	r0, r3
 2320 00c6 07B0     		add	sp, sp, #28
 2321              	.LCFI56:
 2322              		.cfi_def_cfa_offset 4
 2323              		@ sp needed
 2324 00c8 5DF804FB 		ldr	pc, [sp], #4
 2325              	.L128:
 2326              		.align	2
 2327              	.L127:
 2328 00cc 00000000 		.word	_SEGGER_RTT
 2329              		.cfi_endproc
 2330              	.LFE19:
 2332              		.section	.text.SEGGER_RTT_SetNameUpBuffer,"ax",%progbits
 2333              		.align	1
 2334              		.global	SEGGER_RTT_SetNameUpBuffer
 2335              		.syntax unified
 2336              		.thumb
 2337              		.thumb_func
 2338              		.fpu fpv4-sp-d16
 2340              	SEGGER_RTT_SetNameUpBuffer:
 2341              	.LFB20:
1175:/home/rdu/Workspace/project_templates/mcu/stm32_ws/src/modules/rtt/SEGGER_RTT.c **** 
1176:/home/rdu/Workspace/project_templates/mcu/stm32_ws/src/modules/rtt/SEGGER_RTT.c **** /*********************************************************************
1177:/home/rdu/Workspace/project_templates/mcu/stm32_ws/src/modules/rtt/SEGGER_RTT.c **** *
1178:/home/rdu/Workspace/project_templates/mcu/stm32_ws/src/modules/rtt/SEGGER_RTT.c **** *       SEGGER_RTT_SetNameUpBuffer
1179:/home/rdu/Workspace/project_templates/mcu/stm32_ws/src/modules/rtt/SEGGER_RTT.c **** *
1180:/home/rdu/Workspace/project_templates/mcu/stm32_ws/src/modules/rtt/SEGGER_RTT.c **** *  Function description
1181:/home/rdu/Workspace/project_templates/mcu/stm32_ws/src/modules/rtt/SEGGER_RTT.c **** *    Run-time configuration of a specific up-buffer name (T->H).
1182:/home/rdu/Workspace/project_templates/mcu/stm32_ws/src/modules/rtt/SEGGER_RTT.c **** *    Buffer to be configured is specified by index.
1183:/home/rdu/Workspace/project_templates/mcu/stm32_ws/src/modules/rtt/SEGGER_RTT.c **** *
1184:/home/rdu/Workspace/project_templates/mcu/stm32_ws/src/modules/rtt/SEGGER_RTT.c **** *  Parameters
1185:/home/rdu/Workspace/project_templates/mcu/stm32_ws/src/modules/rtt/SEGGER_RTT.c **** *    BufferIndex  Index of the buffer to renamed.
1186:/home/rdu/Workspace/project_templates/mcu/stm32_ws/src/modules/rtt/SEGGER_RTT.c **** *    sName        Pointer to a constant name string.
1187:/home/rdu/Workspace/project_templates/mcu/stm32_ws/src/modules/rtt/SEGGER_RTT.c **** *
1188:/home/rdu/Workspace/project_templates/mcu/stm32_ws/src/modules/rtt/SEGGER_RTT.c **** *  Return value
1189:/home/rdu/Workspace/project_templates/mcu/stm32_ws/src/modules/rtt/SEGGER_RTT.c **** *    >= 0  O.K.
1190:/home/rdu/Workspace/project_templates/mcu/stm32_ws/src/modules/rtt/SEGGER_RTT.c **** *     < 0  Error
1191:/home/rdu/Workspace/project_templates/mcu/stm32_ws/src/modules/rtt/SEGGER_RTT.c **** */
1192:/home/rdu/Workspace/project_templates/mcu/stm32_ws/src/modules/rtt/SEGGER_RTT.c **** int SEGGER_RTT_SetNameUpBuffer(unsigned BufferIndex, const char* sName) {
 2342              		.loc 1 1192 0
 2343              		.cfi_startproc
 2344              		@ args = 0, pretend = 0, frame = 16
 2345              		@ frame_needed = 0, uses_anonymous_args = 0
 2346 0000 00B5     		push	{lr}
 2347              	.LCFI57:
 2348              		.cfi_def_cfa_offset 4
 2349              		.cfi_offset 14, -4
 2350 0002 85B0     		sub	sp, sp, #20
 2351              	.LCFI58:
 2352              		.cfi_def_cfa_offset 24
 2353 0004 0190     		str	r0, [sp, #4]
 2354 0006 0091     		str	r1, [sp]
1193:/home/rdu/Workspace/project_templates/mcu/stm32_ws/src/modules/rtt/SEGGER_RTT.c ****   int r;
1194:/home/rdu/Workspace/project_templates/mcu/stm32_ws/src/modules/rtt/SEGGER_RTT.c **** 
1195:/home/rdu/Workspace/project_templates/mcu/stm32_ws/src/modules/rtt/SEGGER_RTT.c ****   INIT();
 2355              		.loc 1 1195 0
 2356 0008 154B     		ldr	r3, .L134
 2357 000a 1B78     		ldrb	r3, [r3]	@ zero_extendqisi2
 2358 000c 002B     		cmp	r3, #0
 2359 000e 01D1     		bne	.L130
 2360              		.loc 1 1195 0 is_stmt 0 discriminator 1
 2361 0010 FFF7FEFF 		bl	_DoInit
 2362              	.L130:
1196:/home/rdu/Workspace/project_templates/mcu/stm32_ws/src/modules/rtt/SEGGER_RTT.c ****   if (BufferIndex < (unsigned)_SEGGER_RTT.MaxNumUpBuffers) {
 2363              		.loc 1 1196 0 is_stmt 1
 2364 0014 124B     		ldr	r3, .L134
 2365 0016 1B69     		ldr	r3, [r3, #16]
 2366 0018 1A46     		mov	r2, r3
 2367 001a 019B     		ldr	r3, [sp, #4]
 2368 001c 9342     		cmp	r3, r2
 2369 001e 16D2     		bcs	.L131
 2370              	.LBB10:
1197:/home/rdu/Workspace/project_templates/mcu/stm32_ws/src/modules/rtt/SEGGER_RTT.c ****     SEGGER_RTT_LOCK();
 2371              		.loc 1 1197 0
 2372              		.syntax unified
 2373              	@ 1197 "/home/rdu/Workspace/project_templates/mcu/stm32_ws/src/modules/rtt/SEGGER_RTT.c" 1
 2374 0020 EFF31183 		mrs   r3, basepri  
 2375 0024 4FF02001 		mov   r1, #32       
 2376 0028 81F31188 		msr   basepri, r1  
 2377              		
 2378              	@ 0 "" 2
 2379              		.thumb
 2380              		.syntax unified
 2381 002c 0293     		str	r3, [sp, #8]
1198:/home/rdu/Workspace/project_templates/mcu/stm32_ws/src/modules/rtt/SEGGER_RTT.c ****     _SEGGER_RTT.aUp[BufferIndex].sName = sName;
 2382              		.loc 1 1198 0
 2383 002e 0C49     		ldr	r1, .L134
 2384 0030 019B     		ldr	r3, [sp, #4]
 2385 0032 5A1C     		adds	r2, r3, #1
 2386 0034 1346     		mov	r3, r2
 2387 0036 5B00     		lsls	r3, r3, #1
 2388 0038 1344     		add	r3, r3, r2
 2389 003a DB00     		lsls	r3, r3, #3
 2390 003c 0B44     		add	r3, r3, r1
 2391 003e 009A     		ldr	r2, [sp]
 2392 0040 1A60     		str	r2, [r3]
1199:/home/rdu/Workspace/project_templates/mcu/stm32_ws/src/modules/rtt/SEGGER_RTT.c ****     SEGGER_RTT_UNLOCK();
 2393              		.loc 1 1199 0
 2394 0042 029B     		ldr	r3, [sp, #8]
 2395              		.syntax unified
 2396              	@ 1199 "/home/rdu/Workspace/project_templates/mcu/stm32_ws/src/modules/rtt/SEGGER_RTT.c" 1
 2397 0044 83F31188 		msr   basepri, r3  
 2398              		
 2399              	@ 0 "" 2
 2400              		.thumb
 2401              		.syntax unified
 2402              	.LBE10:
1200:/home/rdu/Workspace/project_templates/mcu/stm32_ws/src/modules/rtt/SEGGER_RTT.c ****     r =  0;
 2403              		.loc 1 1200 0
 2404 0048 0023     		movs	r3, #0
 2405 004a 0393     		str	r3, [sp, #12]
 2406 004c 02E0     		b	.L132
 2407              	.L131:
1201:/home/rdu/Workspace/project_templates/mcu/stm32_ws/src/modules/rtt/SEGGER_RTT.c ****   } else {
1202:/home/rdu/Workspace/project_templates/mcu/stm32_ws/src/modules/rtt/SEGGER_RTT.c ****     r = -1;
 2408              		.loc 1 1202 0
 2409 004e 4FF0FF33 		mov	r3, #-1
 2410 0052 0393     		str	r3, [sp, #12]
 2411              	.L132:
1203:/home/rdu/Workspace/project_templates/mcu/stm32_ws/src/modules/rtt/SEGGER_RTT.c ****   }
1204:/home/rdu/Workspace/project_templates/mcu/stm32_ws/src/modules/rtt/SEGGER_RTT.c ****   return r;
 2412              		.loc 1 1204 0
 2413 0054 039B     		ldr	r3, [sp, #12]
1205:/home/rdu/Workspace/project_templates/mcu/stm32_ws/src/modules/rtt/SEGGER_RTT.c **** }
 2414              		.loc 1 1205 0
 2415 0056 1846     		mov	r0, r3
 2416 0058 05B0     		add	sp, sp, #20
 2417              	.LCFI59:
 2418              		.cfi_def_cfa_offset 4
 2419              		@ sp needed
 2420 005a 5DF804FB 		ldr	pc, [sp], #4
 2421              	.L135:
 2422 005e 00BF     		.align	2
 2423              	.L134:
 2424 0060 00000000 		.word	_SEGGER_RTT
 2425              		.cfi_endproc
 2426              	.LFE20:
 2428              		.section	.text.SEGGER_RTT_SetNameDownBuffer,"ax",%progbits
 2429              		.align	1
 2430              		.global	SEGGER_RTT_SetNameDownBuffer
 2431              		.syntax unified
 2432              		.thumb
 2433              		.thumb_func
 2434              		.fpu fpv4-sp-d16
 2436              	SEGGER_RTT_SetNameDownBuffer:
 2437              	.LFB21:
1206:/home/rdu/Workspace/project_templates/mcu/stm32_ws/src/modules/rtt/SEGGER_RTT.c **** 
1207:/home/rdu/Workspace/project_templates/mcu/stm32_ws/src/modules/rtt/SEGGER_RTT.c **** /*********************************************************************
1208:/home/rdu/Workspace/project_templates/mcu/stm32_ws/src/modules/rtt/SEGGER_RTT.c **** *
1209:/home/rdu/Workspace/project_templates/mcu/stm32_ws/src/modules/rtt/SEGGER_RTT.c **** *       SEGGER_RTT_SetNameDownBuffer
1210:/home/rdu/Workspace/project_templates/mcu/stm32_ws/src/modules/rtt/SEGGER_RTT.c **** *
1211:/home/rdu/Workspace/project_templates/mcu/stm32_ws/src/modules/rtt/SEGGER_RTT.c **** *  Function description
1212:/home/rdu/Workspace/project_templates/mcu/stm32_ws/src/modules/rtt/SEGGER_RTT.c **** *    Run-time configuration of a specific Down-buffer name (T->H).
1213:/home/rdu/Workspace/project_templates/mcu/stm32_ws/src/modules/rtt/SEGGER_RTT.c **** *    Buffer to be configured is specified by index.
1214:/home/rdu/Workspace/project_templates/mcu/stm32_ws/src/modules/rtt/SEGGER_RTT.c **** *
1215:/home/rdu/Workspace/project_templates/mcu/stm32_ws/src/modules/rtt/SEGGER_RTT.c **** *  Parameters
1216:/home/rdu/Workspace/project_templates/mcu/stm32_ws/src/modules/rtt/SEGGER_RTT.c **** *    BufferIndex  Index of the buffer to renamed.
1217:/home/rdu/Workspace/project_templates/mcu/stm32_ws/src/modules/rtt/SEGGER_RTT.c **** *    sName        Pointer to a constant name string.
1218:/home/rdu/Workspace/project_templates/mcu/stm32_ws/src/modules/rtt/SEGGER_RTT.c **** *
1219:/home/rdu/Workspace/project_templates/mcu/stm32_ws/src/modules/rtt/SEGGER_RTT.c **** *  Return value
1220:/home/rdu/Workspace/project_templates/mcu/stm32_ws/src/modules/rtt/SEGGER_RTT.c **** *    >= 0  O.K.
1221:/home/rdu/Workspace/project_templates/mcu/stm32_ws/src/modules/rtt/SEGGER_RTT.c **** *     < 0  Error
1222:/home/rdu/Workspace/project_templates/mcu/stm32_ws/src/modules/rtt/SEGGER_RTT.c **** */
1223:/home/rdu/Workspace/project_templates/mcu/stm32_ws/src/modules/rtt/SEGGER_RTT.c **** int SEGGER_RTT_SetNameDownBuffer(unsigned BufferIndex, const char* sName) {
 2438              		.loc 1 1223 0
 2439              		.cfi_startproc
 2440              		@ args = 0, pretend = 0, frame = 16
 2441              		@ frame_needed = 0, uses_anonymous_args = 0
 2442 0000 00B5     		push	{lr}
 2443              	.LCFI60:
 2444              		.cfi_def_cfa_offset 4
 2445              		.cfi_offset 14, -4
 2446 0002 85B0     		sub	sp, sp, #20
 2447              	.LCFI61:
 2448              		.cfi_def_cfa_offset 24
 2449 0004 0190     		str	r0, [sp, #4]
 2450 0006 0091     		str	r1, [sp]
1224:/home/rdu/Workspace/project_templates/mcu/stm32_ws/src/modules/rtt/SEGGER_RTT.c ****   int r;
1225:/home/rdu/Workspace/project_templates/mcu/stm32_ws/src/modules/rtt/SEGGER_RTT.c **** 
1226:/home/rdu/Workspace/project_templates/mcu/stm32_ws/src/modules/rtt/SEGGER_RTT.c ****   INIT();
 2451              		.loc 1 1226 0
 2452 0008 154B     		ldr	r3, .L141
 2453 000a 1B78     		ldrb	r3, [r3]	@ zero_extendqisi2
 2454 000c 002B     		cmp	r3, #0
 2455 000e 01D1     		bne	.L137
 2456              		.loc 1 1226 0 is_stmt 0 discriminator 1
 2457 0010 FFF7FEFF 		bl	_DoInit
 2458              	.L137:
1227:/home/rdu/Workspace/project_templates/mcu/stm32_ws/src/modules/rtt/SEGGER_RTT.c ****   if (BufferIndex < (unsigned)_SEGGER_RTT.MaxNumDownBuffers) {
 2459              		.loc 1 1227 0 is_stmt 1
 2460 0014 124B     		ldr	r3, .L141
 2461 0016 5B69     		ldr	r3, [r3, #20]
 2462 0018 1A46     		mov	r2, r3
 2463 001a 019B     		ldr	r3, [sp, #4]
 2464 001c 9342     		cmp	r3, r2
 2465 001e 16D2     		bcs	.L138
 2466              	.LBB11:
1228:/home/rdu/Workspace/project_templates/mcu/stm32_ws/src/modules/rtt/SEGGER_RTT.c ****     SEGGER_RTT_LOCK();
 2467              		.loc 1 1228 0
 2468              		.syntax unified
 2469              	@ 1228 "/home/rdu/Workspace/project_templates/mcu/stm32_ws/src/modules/rtt/SEGGER_RTT.c" 1
 2470 0020 EFF31183 		mrs   r3, basepri  
 2471 0024 4FF02001 		mov   r1, #32       
 2472 0028 81F31188 		msr   basepri, r1  
 2473              		
 2474              	@ 0 "" 2
 2475              		.thumb
 2476              		.syntax unified
 2477 002c 0293     		str	r3, [sp, #8]
1229:/home/rdu/Workspace/project_templates/mcu/stm32_ws/src/modules/rtt/SEGGER_RTT.c ****     _SEGGER_RTT.aDown[BufferIndex].sName = sName;
 2478              		.loc 1 1229 0
 2479 002e 0C49     		ldr	r1, .L141
 2480 0030 019A     		ldr	r2, [sp, #4]
 2481 0032 1346     		mov	r3, r2
 2482 0034 5B00     		lsls	r3, r3, #1
 2483 0036 1344     		add	r3, r3, r2
 2484 0038 DB00     		lsls	r3, r3, #3
 2485 003a 0B44     		add	r3, r3, r1
 2486 003c 6033     		adds	r3, r3, #96
 2487 003e 009A     		ldr	r2, [sp]
 2488 0040 1A60     		str	r2, [r3]
1230:/home/rdu/Workspace/project_templates/mcu/stm32_ws/src/modules/rtt/SEGGER_RTT.c ****     SEGGER_RTT_UNLOCK();
 2489              		.loc 1 1230 0
 2490 0042 029B     		ldr	r3, [sp, #8]
 2491              		.syntax unified
 2492              	@ 1230 "/home/rdu/Workspace/project_templates/mcu/stm32_ws/src/modules/rtt/SEGGER_RTT.c" 1
 2493 0044 83F31188 		msr   basepri, r3  
 2494              		
 2495              	@ 0 "" 2
 2496              		.thumb
 2497              		.syntax unified
 2498              	.LBE11:
1231:/home/rdu/Workspace/project_templates/mcu/stm32_ws/src/modules/rtt/SEGGER_RTT.c ****     r =  0;
 2499              		.loc 1 1231 0
 2500 0048 0023     		movs	r3, #0
 2501 004a 0393     		str	r3, [sp, #12]
 2502 004c 02E0     		b	.L139
 2503              	.L138:
1232:/home/rdu/Workspace/project_templates/mcu/stm32_ws/src/modules/rtt/SEGGER_RTT.c ****   } else {
1233:/home/rdu/Workspace/project_templates/mcu/stm32_ws/src/modules/rtt/SEGGER_RTT.c ****     r = -1;
 2504              		.loc 1 1233 0
 2505 004e 4FF0FF33 		mov	r3, #-1
 2506 0052 0393     		str	r3, [sp, #12]
 2507              	.L139:
1234:/home/rdu/Workspace/project_templates/mcu/stm32_ws/src/modules/rtt/SEGGER_RTT.c ****   }
1235:/home/rdu/Workspace/project_templates/mcu/stm32_ws/src/modules/rtt/SEGGER_RTT.c ****   return r;
 2508              		.loc 1 1235 0
 2509 0054 039B     		ldr	r3, [sp, #12]
1236:/home/rdu/Workspace/project_templates/mcu/stm32_ws/src/modules/rtt/SEGGER_RTT.c **** }
 2510              		.loc 1 1236 0
 2511 0056 1846     		mov	r0, r3
 2512 0058 05B0     		add	sp, sp, #20
 2513              	.LCFI62:
 2514              		.cfi_def_cfa_offset 4
 2515              		@ sp needed
 2516 005a 5DF804FB 		ldr	pc, [sp], #4
 2517              	.L142:
 2518 005e 00BF     		.align	2
 2519              	.L141:
 2520 0060 00000000 		.word	_SEGGER_RTT
 2521              		.cfi_endproc
 2522              	.LFE21:
 2524              		.section	.text.SEGGER_RTT_SetFlagsUpBuffer,"ax",%progbits
 2525              		.align	1
 2526              		.global	SEGGER_RTT_SetFlagsUpBuffer
 2527              		.syntax unified
 2528              		.thumb
 2529              		.thumb_func
 2530              		.fpu fpv4-sp-d16
 2532              	SEGGER_RTT_SetFlagsUpBuffer:
 2533              	.LFB22:
1237:/home/rdu/Workspace/project_templates/mcu/stm32_ws/src/modules/rtt/SEGGER_RTT.c **** 
1238:/home/rdu/Workspace/project_templates/mcu/stm32_ws/src/modules/rtt/SEGGER_RTT.c **** /*********************************************************************
1239:/home/rdu/Workspace/project_templates/mcu/stm32_ws/src/modules/rtt/SEGGER_RTT.c **** *
1240:/home/rdu/Workspace/project_templates/mcu/stm32_ws/src/modules/rtt/SEGGER_RTT.c **** *       SEGGER_RTT_SetFlagsUpBuffer
1241:/home/rdu/Workspace/project_templates/mcu/stm32_ws/src/modules/rtt/SEGGER_RTT.c **** *
1242:/home/rdu/Workspace/project_templates/mcu/stm32_ws/src/modules/rtt/SEGGER_RTT.c **** *  Function description
1243:/home/rdu/Workspace/project_templates/mcu/stm32_ws/src/modules/rtt/SEGGER_RTT.c **** *    Run-time configuration of specific up-buffer flags (T->H).
1244:/home/rdu/Workspace/project_templates/mcu/stm32_ws/src/modules/rtt/SEGGER_RTT.c **** *    Buffer to be configured is specified by index.
1245:/home/rdu/Workspace/project_templates/mcu/stm32_ws/src/modules/rtt/SEGGER_RTT.c **** *
1246:/home/rdu/Workspace/project_templates/mcu/stm32_ws/src/modules/rtt/SEGGER_RTT.c **** *  Parameters
1247:/home/rdu/Workspace/project_templates/mcu/stm32_ws/src/modules/rtt/SEGGER_RTT.c **** *    BufferIndex  Index of the buffer.
1248:/home/rdu/Workspace/project_templates/mcu/stm32_ws/src/modules/rtt/SEGGER_RTT.c **** *    Flags        Flags to set for the buffer.
1249:/home/rdu/Workspace/project_templates/mcu/stm32_ws/src/modules/rtt/SEGGER_RTT.c **** *
1250:/home/rdu/Workspace/project_templates/mcu/stm32_ws/src/modules/rtt/SEGGER_RTT.c **** *  Return value
1251:/home/rdu/Workspace/project_templates/mcu/stm32_ws/src/modules/rtt/SEGGER_RTT.c **** *    >= 0  O.K.
1252:/home/rdu/Workspace/project_templates/mcu/stm32_ws/src/modules/rtt/SEGGER_RTT.c **** *     < 0  Error
1253:/home/rdu/Workspace/project_templates/mcu/stm32_ws/src/modules/rtt/SEGGER_RTT.c **** */
1254:/home/rdu/Workspace/project_templates/mcu/stm32_ws/src/modules/rtt/SEGGER_RTT.c **** int SEGGER_RTT_SetFlagsUpBuffer(unsigned BufferIndex, unsigned Flags) {
 2534              		.loc 1 1254 0
 2535              		.cfi_startproc
 2536              		@ args = 0, pretend = 0, frame = 16
 2537              		@ frame_needed = 0, uses_anonymous_args = 0
 2538 0000 00B5     		push	{lr}
 2539              	.LCFI63:
 2540              		.cfi_def_cfa_offset 4
 2541              		.cfi_offset 14, -4
 2542 0002 85B0     		sub	sp, sp, #20
 2543              	.LCFI64:
 2544              		.cfi_def_cfa_offset 24
 2545 0004 0190     		str	r0, [sp, #4]
 2546 0006 0091     		str	r1, [sp]
1255:/home/rdu/Workspace/project_templates/mcu/stm32_ws/src/modules/rtt/SEGGER_RTT.c ****   int r;
1256:/home/rdu/Workspace/project_templates/mcu/stm32_ws/src/modules/rtt/SEGGER_RTT.c **** 
1257:/home/rdu/Workspace/project_templates/mcu/stm32_ws/src/modules/rtt/SEGGER_RTT.c ****   INIT();
 2547              		.loc 1 1257 0
 2548 0008 154B     		ldr	r3, .L148
 2549 000a 1B78     		ldrb	r3, [r3]	@ zero_extendqisi2
 2550 000c 002B     		cmp	r3, #0
 2551 000e 01D1     		bne	.L144
 2552              		.loc 1 1257 0 is_stmt 0 discriminator 1
 2553 0010 FFF7FEFF 		bl	_DoInit
 2554              	.L144:
1258:/home/rdu/Workspace/project_templates/mcu/stm32_ws/src/modules/rtt/SEGGER_RTT.c ****   if (BufferIndex < (unsigned)_SEGGER_RTT.MaxNumUpBuffers) {
 2555              		.loc 1 1258 0 is_stmt 1
 2556 0014 124B     		ldr	r3, .L148
 2557 0016 1B69     		ldr	r3, [r3, #16]
 2558 0018 1A46     		mov	r2, r3
 2559 001a 019B     		ldr	r3, [sp, #4]
 2560 001c 9342     		cmp	r3, r2
 2561 001e 16D2     		bcs	.L145
 2562              	.LBB12:
1259:/home/rdu/Workspace/project_templates/mcu/stm32_ws/src/modules/rtt/SEGGER_RTT.c ****     SEGGER_RTT_LOCK();
 2563              		.loc 1 1259 0
 2564              		.syntax unified
 2565              	@ 1259 "/home/rdu/Workspace/project_templates/mcu/stm32_ws/src/modules/rtt/SEGGER_RTT.c" 1
 2566 0020 EFF31183 		mrs   r3, basepri  
 2567 0024 4FF02001 		mov   r1, #32       
 2568 0028 81F31188 		msr   basepri, r1  
 2569              		
 2570              	@ 0 "" 2
 2571              		.thumb
 2572              		.syntax unified
 2573 002c 0293     		str	r3, [sp, #8]
1260:/home/rdu/Workspace/project_templates/mcu/stm32_ws/src/modules/rtt/SEGGER_RTT.c ****     _SEGGER_RTT.aUp[BufferIndex].Flags = Flags;
 2574              		.loc 1 1260 0
 2575 002e 0C49     		ldr	r1, .L148
 2576 0030 019A     		ldr	r2, [sp, #4]
 2577 0032 1346     		mov	r3, r2
 2578 0034 5B00     		lsls	r3, r3, #1
 2579 0036 1344     		add	r3, r3, r2
 2580 0038 DB00     		lsls	r3, r3, #3
 2581 003a 0B44     		add	r3, r3, r1
 2582 003c 2C33     		adds	r3, r3, #44
 2583 003e 009A     		ldr	r2, [sp]
 2584 0040 1A60     		str	r2, [r3]
1261:/home/rdu/Workspace/project_templates/mcu/stm32_ws/src/modules/rtt/SEGGER_RTT.c ****     SEGGER_RTT_UNLOCK();
 2585              		.loc 1 1261 0
 2586 0042 029B     		ldr	r3, [sp, #8]
 2587              		.syntax unified
 2588              	@ 1261 "/home/rdu/Workspace/project_templates/mcu/stm32_ws/src/modules/rtt/SEGGER_RTT.c" 1
 2589 0044 83F31188 		msr   basepri, r3  
 2590              		
 2591              	@ 0 "" 2
 2592              		.thumb
 2593              		.syntax unified
 2594              	.LBE12:
1262:/home/rdu/Workspace/project_templates/mcu/stm32_ws/src/modules/rtt/SEGGER_RTT.c ****     r =  0;
 2595              		.loc 1 1262 0
 2596 0048 0023     		movs	r3, #0
 2597 004a 0393     		str	r3, [sp, #12]
 2598 004c 02E0     		b	.L146
 2599              	.L145:
1263:/home/rdu/Workspace/project_templates/mcu/stm32_ws/src/modules/rtt/SEGGER_RTT.c ****   } else {
1264:/home/rdu/Workspace/project_templates/mcu/stm32_ws/src/modules/rtt/SEGGER_RTT.c ****     r = -1;
 2600              		.loc 1 1264 0
 2601 004e 4FF0FF33 		mov	r3, #-1
 2602 0052 0393     		str	r3, [sp, #12]
 2603              	.L146:
