   1              		.cpu cortex-m4
   2              		.eabi_attribute 27, 1
   3              		.eabi_attribute 28, 1
   4              		.eabi_attribute 23, 1
   5              		.eabi_attribute 24, 1
   6              		.eabi_attribute 25, 1
   7              		.eabi_attribute 26, 1
   8              		.eabi_attribute 30, 6
   9              		.eabi_attribute 34, 1
  10              		.eabi_attribute 18, 4
  11              		.file	"stm32f4xx_flash.c"
  12              		.text
  13              	.Ltext0:
  14              		.cfi_sections	.debug_frame
  15              		.section	.text.FLASH_SetLatency,"ax",%progbits
  16              		.align	1
  17              		.global	FLASH_SetLatency
  18              		.syntax unified
  19              		.thumb
  20              		.thumb_func
  21              		.fpu fpv4-sp-d16
  23              	FLASH_SetLatency:
  24              	.LFB123:
  25              		.file 1 "/home/rdu/Workspace/project_templates/mcu/stm32_ws/src/libraries/STM32F4xx_StdPeriph_Driv
   1:/home/rdu/Workspace/project_templates/mcu/stm32_ws/src/libraries/STM32F4xx_StdPeriph_Driver/src/stm32f4xx_flash.c **** /**
   2:/home/rdu/Workspace/project_templates/mcu/stm32_ws/src/libraries/STM32F4xx_StdPeriph_Driver/src/stm32f4xx_flash.c ****   ******************************************************************************
   3:/home/rdu/Workspace/project_templates/mcu/stm32_ws/src/libraries/STM32F4xx_StdPeriph_Driver/src/stm32f4xx_flash.c ****   * @file    stm32f4xx_flash.c
   4:/home/rdu/Workspace/project_templates/mcu/stm32_ws/src/libraries/STM32F4xx_StdPeriph_Driver/src/stm32f4xx_flash.c ****   * @author  MCD Application Team
   5:/home/rdu/Workspace/project_templates/mcu/stm32_ws/src/libraries/STM32F4xx_StdPeriph_Driver/src/stm32f4xx_flash.c ****   * @version V1.8.0
   6:/home/rdu/Workspace/project_templates/mcu/stm32_ws/src/libraries/STM32F4xx_StdPeriph_Driver/src/stm32f4xx_flash.c ****   * @date    04-November-2016
   7:/home/rdu/Workspace/project_templates/mcu/stm32_ws/src/libraries/STM32F4xx_StdPeriph_Driver/src/stm32f4xx_flash.c ****   * @brief   This file provides firmware functions to manage the following 
   8:/home/rdu/Workspace/project_templates/mcu/stm32_ws/src/libraries/STM32F4xx_StdPeriph_Driver/src/stm32f4xx_flash.c ****   *          functionalities of the FLASH peripheral:
   9:/home/rdu/Workspace/project_templates/mcu/stm32_ws/src/libraries/STM32F4xx_StdPeriph_Driver/src/stm32f4xx_flash.c ****   *            + FLASH Interface configuration
  10:/home/rdu/Workspace/project_templates/mcu/stm32_ws/src/libraries/STM32F4xx_StdPeriph_Driver/src/stm32f4xx_flash.c ****   *            + FLASH Memory Programming
  11:/home/rdu/Workspace/project_templates/mcu/stm32_ws/src/libraries/STM32F4xx_StdPeriph_Driver/src/stm32f4xx_flash.c ****   *            + Option Bytes Programming
  12:/home/rdu/Workspace/project_templates/mcu/stm32_ws/src/libraries/STM32F4xx_StdPeriph_Driver/src/stm32f4xx_flash.c ****   *            + Interrupts and flags management
  13:/home/rdu/Workspace/project_templates/mcu/stm32_ws/src/libraries/STM32F4xx_StdPeriph_Driver/src/stm32f4xx_flash.c ****   *  
  14:/home/rdu/Workspace/project_templates/mcu/stm32_ws/src/libraries/STM32F4xx_StdPeriph_Driver/src/stm32f4xx_flash.c ****  @verbatim    
  15:/home/rdu/Workspace/project_templates/mcu/stm32_ws/src/libraries/STM32F4xx_StdPeriph_Driver/src/stm32f4xx_flash.c ****  ===============================================================================
  16:/home/rdu/Workspace/project_templates/mcu/stm32_ws/src/libraries/STM32F4xx_StdPeriph_Driver/src/stm32f4xx_flash.c ****                         ##### How to use this driver #####
  17:/home/rdu/Workspace/project_templates/mcu/stm32_ws/src/libraries/STM32F4xx_StdPeriph_Driver/src/stm32f4xx_flash.c ****  ===============================================================================
  18:/home/rdu/Workspace/project_templates/mcu/stm32_ws/src/libraries/STM32F4xx_StdPeriph_Driver/src/stm32f4xx_flash.c ****     [..]                             
  19:/home/rdu/Workspace/project_templates/mcu/stm32_ws/src/libraries/STM32F4xx_StdPeriph_Driver/src/stm32f4xx_flash.c ****       This driver provides functions to configure and program the FLASH memory 
  20:/home/rdu/Workspace/project_templates/mcu/stm32_ws/src/libraries/STM32F4xx_StdPeriph_Driver/src/stm32f4xx_flash.c ****       of all STM32F4xx devices. These functions are split in 4 groups:
  21:/home/rdu/Workspace/project_templates/mcu/stm32_ws/src/libraries/STM32F4xx_StdPeriph_Driver/src/stm32f4xx_flash.c ****    
  22:/home/rdu/Workspace/project_templates/mcu/stm32_ws/src/libraries/STM32F4xx_StdPeriph_Driver/src/stm32f4xx_flash.c ****       (#) FLASH Interface configuration functions: this group includes the
  23:/home/rdu/Workspace/project_templates/mcu/stm32_ws/src/libraries/STM32F4xx_StdPeriph_Driver/src/stm32f4xx_flash.c ****           management of the following features:
  24:/home/rdu/Workspace/project_templates/mcu/stm32_ws/src/libraries/STM32F4xx_StdPeriph_Driver/src/stm32f4xx_flash.c ****         (++) Set the latency
  25:/home/rdu/Workspace/project_templates/mcu/stm32_ws/src/libraries/STM32F4xx_StdPeriph_Driver/src/stm32f4xx_flash.c ****         (++) Enable/Disable the prefetch buffer
  26:/home/rdu/Workspace/project_templates/mcu/stm32_ws/src/libraries/STM32F4xx_StdPeriph_Driver/src/stm32f4xx_flash.c ****         (++) Enable/Disable the Instruction cache and the Data cache
  27:/home/rdu/Workspace/project_templates/mcu/stm32_ws/src/libraries/STM32F4xx_StdPeriph_Driver/src/stm32f4xx_flash.c ****         (++) Reset the Instruction cache and the Data cache
  28:/home/rdu/Workspace/project_templates/mcu/stm32_ws/src/libraries/STM32F4xx_StdPeriph_Driver/src/stm32f4xx_flash.c ****     
  29:/home/rdu/Workspace/project_templates/mcu/stm32_ws/src/libraries/STM32F4xx_StdPeriph_Driver/src/stm32f4xx_flash.c ****       (#) FLASH Memory Programming functions: this group includes all needed
  30:/home/rdu/Workspace/project_templates/mcu/stm32_ws/src/libraries/STM32F4xx_StdPeriph_Driver/src/stm32f4xx_flash.c ****           functions to erase and program the main memory:
  31:/home/rdu/Workspace/project_templates/mcu/stm32_ws/src/libraries/STM32F4xx_StdPeriph_Driver/src/stm32f4xx_flash.c ****         (++) Lock and Unlock the FLASH interface
  32:/home/rdu/Workspace/project_templates/mcu/stm32_ws/src/libraries/STM32F4xx_StdPeriph_Driver/src/stm32f4xx_flash.c ****         (++) Erase function: Erase sector, erase all sectors
  33:/home/rdu/Workspace/project_templates/mcu/stm32_ws/src/libraries/STM32F4xx_StdPeriph_Driver/src/stm32f4xx_flash.c ****         (++) Program functions: byte, half word, word and double word
  34:/home/rdu/Workspace/project_templates/mcu/stm32_ws/src/libraries/STM32F4xx_StdPeriph_Driver/src/stm32f4xx_flash.c ****     
  35:/home/rdu/Workspace/project_templates/mcu/stm32_ws/src/libraries/STM32F4xx_StdPeriph_Driver/src/stm32f4xx_flash.c ****       (#) Option Bytes Programming functions: this group includes all needed
  36:/home/rdu/Workspace/project_templates/mcu/stm32_ws/src/libraries/STM32F4xx_StdPeriph_Driver/src/stm32f4xx_flash.c ****           functions to manage the Option Bytes:
  37:/home/rdu/Workspace/project_templates/mcu/stm32_ws/src/libraries/STM32F4xx_StdPeriph_Driver/src/stm32f4xx_flash.c ****         (++) Set/Reset the write protection
  38:/home/rdu/Workspace/project_templates/mcu/stm32_ws/src/libraries/STM32F4xx_StdPeriph_Driver/src/stm32f4xx_flash.c ****         (++) Set the Read protection Level
  39:/home/rdu/Workspace/project_templates/mcu/stm32_ws/src/libraries/STM32F4xx_StdPeriph_Driver/src/stm32f4xx_flash.c ****         (++) Set the BOR level
  40:/home/rdu/Workspace/project_templates/mcu/stm32_ws/src/libraries/STM32F4xx_StdPeriph_Driver/src/stm32f4xx_flash.c ****         (++) Program the user Option Bytes
  41:/home/rdu/Workspace/project_templates/mcu/stm32_ws/src/libraries/STM32F4xx_StdPeriph_Driver/src/stm32f4xx_flash.c ****         (++) Launch the Option Bytes loader
  42:/home/rdu/Workspace/project_templates/mcu/stm32_ws/src/libraries/STM32F4xx_StdPeriph_Driver/src/stm32f4xx_flash.c ****     
  43:/home/rdu/Workspace/project_templates/mcu/stm32_ws/src/libraries/STM32F4xx_StdPeriph_Driver/src/stm32f4xx_flash.c ****       (#) Interrupts and flags management functions: this group 
  44:/home/rdu/Workspace/project_templates/mcu/stm32_ws/src/libraries/STM32F4xx_StdPeriph_Driver/src/stm32f4xx_flash.c ****           includes all needed functions to:
  45:/home/rdu/Workspace/project_templates/mcu/stm32_ws/src/libraries/STM32F4xx_StdPeriph_Driver/src/stm32f4xx_flash.c ****         (++) Enable/Disable the FLASH interrupt sources
  46:/home/rdu/Workspace/project_templates/mcu/stm32_ws/src/libraries/STM32F4xx_StdPeriph_Driver/src/stm32f4xx_flash.c ****         (++) Get flags status
  47:/home/rdu/Workspace/project_templates/mcu/stm32_ws/src/libraries/STM32F4xx_StdPeriph_Driver/src/stm32f4xx_flash.c ****         (++) Clear flags
  48:/home/rdu/Workspace/project_templates/mcu/stm32_ws/src/libraries/STM32F4xx_StdPeriph_Driver/src/stm32f4xx_flash.c ****         (++) Get FLASH operation status
  49:/home/rdu/Workspace/project_templates/mcu/stm32_ws/src/libraries/STM32F4xx_StdPeriph_Driver/src/stm32f4xx_flash.c ****         (++) Wait for last FLASH operation   
  50:/home/rdu/Workspace/project_templates/mcu/stm32_ws/src/libraries/STM32F4xx_StdPeriph_Driver/src/stm32f4xx_flash.c ****  @endverbatim
  51:/home/rdu/Workspace/project_templates/mcu/stm32_ws/src/libraries/STM32F4xx_StdPeriph_Driver/src/stm32f4xx_flash.c ****   ******************************************************************************
  52:/home/rdu/Workspace/project_templates/mcu/stm32_ws/src/libraries/STM32F4xx_StdPeriph_Driver/src/stm32f4xx_flash.c ****   * @attention
  53:/home/rdu/Workspace/project_templates/mcu/stm32_ws/src/libraries/STM32F4xx_StdPeriph_Driver/src/stm32f4xx_flash.c ****   *
  54:/home/rdu/Workspace/project_templates/mcu/stm32_ws/src/libraries/STM32F4xx_StdPeriph_Driver/src/stm32f4xx_flash.c ****   * <h2><center>&copy; COPYRIGHT 2016 STMicroelectronics</center></h2>
  55:/home/rdu/Workspace/project_templates/mcu/stm32_ws/src/libraries/STM32F4xx_StdPeriph_Driver/src/stm32f4xx_flash.c ****   *
  56:/home/rdu/Workspace/project_templates/mcu/stm32_ws/src/libraries/STM32F4xx_StdPeriph_Driver/src/stm32f4xx_flash.c ****   * Licensed under MCD-ST Liberty SW License Agreement V2, (the "License");
  57:/home/rdu/Workspace/project_templates/mcu/stm32_ws/src/libraries/STM32F4xx_StdPeriph_Driver/src/stm32f4xx_flash.c ****   * You may not use this file except in compliance with the License.
  58:/home/rdu/Workspace/project_templates/mcu/stm32_ws/src/libraries/STM32F4xx_StdPeriph_Driver/src/stm32f4xx_flash.c ****   * You may obtain a copy of the License at:
  59:/home/rdu/Workspace/project_templates/mcu/stm32_ws/src/libraries/STM32F4xx_StdPeriph_Driver/src/stm32f4xx_flash.c ****   *
  60:/home/rdu/Workspace/project_templates/mcu/stm32_ws/src/libraries/STM32F4xx_StdPeriph_Driver/src/stm32f4xx_flash.c ****   *        http://www.st.com/software_license_agreement_liberty_v2
  61:/home/rdu/Workspace/project_templates/mcu/stm32_ws/src/libraries/STM32F4xx_StdPeriph_Driver/src/stm32f4xx_flash.c ****   *
  62:/home/rdu/Workspace/project_templates/mcu/stm32_ws/src/libraries/STM32F4xx_StdPeriph_Driver/src/stm32f4xx_flash.c ****   * Unless required by applicable law or agreed to in writing, software 
  63:/home/rdu/Workspace/project_templates/mcu/stm32_ws/src/libraries/STM32F4xx_StdPeriph_Driver/src/stm32f4xx_flash.c ****   * distributed under the License is distributed on an "AS IS" BASIS, 
  64:/home/rdu/Workspace/project_templates/mcu/stm32_ws/src/libraries/STM32F4xx_StdPeriph_Driver/src/stm32f4xx_flash.c ****   * WITHOUT WARRANTIES OR CONDITIONS OF ANY KIND, either express or implied.
  65:/home/rdu/Workspace/project_templates/mcu/stm32_ws/src/libraries/STM32F4xx_StdPeriph_Driver/src/stm32f4xx_flash.c ****   * See the License for the specific language governing permissions and
  66:/home/rdu/Workspace/project_templates/mcu/stm32_ws/src/libraries/STM32F4xx_StdPeriph_Driver/src/stm32f4xx_flash.c ****   * limitations under the License.
  67:/home/rdu/Workspace/project_templates/mcu/stm32_ws/src/libraries/STM32F4xx_StdPeriph_Driver/src/stm32f4xx_flash.c ****   *
  68:/home/rdu/Workspace/project_templates/mcu/stm32_ws/src/libraries/STM32F4xx_StdPeriph_Driver/src/stm32f4xx_flash.c ****   ******************************************************************************
  69:/home/rdu/Workspace/project_templates/mcu/stm32_ws/src/libraries/STM32F4xx_StdPeriph_Driver/src/stm32f4xx_flash.c ****   */
  70:/home/rdu/Workspace/project_templates/mcu/stm32_ws/src/libraries/STM32F4xx_StdPeriph_Driver/src/stm32f4xx_flash.c **** 
  71:/home/rdu/Workspace/project_templates/mcu/stm32_ws/src/libraries/STM32F4xx_StdPeriph_Driver/src/stm32f4xx_flash.c **** /* Includes ------------------------------------------------------------------*/
  72:/home/rdu/Workspace/project_templates/mcu/stm32_ws/src/libraries/STM32F4xx_StdPeriph_Driver/src/stm32f4xx_flash.c **** #include "stm32f4xx_flash.h"
  73:/home/rdu/Workspace/project_templates/mcu/stm32_ws/src/libraries/STM32F4xx_StdPeriph_Driver/src/stm32f4xx_flash.c **** 
  74:/home/rdu/Workspace/project_templates/mcu/stm32_ws/src/libraries/STM32F4xx_StdPeriph_Driver/src/stm32f4xx_flash.c **** /** @addtogroup STM32F4xx_StdPeriph_Driver
  75:/home/rdu/Workspace/project_templates/mcu/stm32_ws/src/libraries/STM32F4xx_StdPeriph_Driver/src/stm32f4xx_flash.c ****   * @{
  76:/home/rdu/Workspace/project_templates/mcu/stm32_ws/src/libraries/STM32F4xx_StdPeriph_Driver/src/stm32f4xx_flash.c ****   */
  77:/home/rdu/Workspace/project_templates/mcu/stm32_ws/src/libraries/STM32F4xx_StdPeriph_Driver/src/stm32f4xx_flash.c **** 
  78:/home/rdu/Workspace/project_templates/mcu/stm32_ws/src/libraries/STM32F4xx_StdPeriph_Driver/src/stm32f4xx_flash.c **** /** @defgroup FLASH 
  79:/home/rdu/Workspace/project_templates/mcu/stm32_ws/src/libraries/STM32F4xx_StdPeriph_Driver/src/stm32f4xx_flash.c ****   * @brief FLASH driver modules
  80:/home/rdu/Workspace/project_templates/mcu/stm32_ws/src/libraries/STM32F4xx_StdPeriph_Driver/src/stm32f4xx_flash.c ****   * @{
  81:/home/rdu/Workspace/project_templates/mcu/stm32_ws/src/libraries/STM32F4xx_StdPeriph_Driver/src/stm32f4xx_flash.c ****   */ 
  82:/home/rdu/Workspace/project_templates/mcu/stm32_ws/src/libraries/STM32F4xx_StdPeriph_Driver/src/stm32f4xx_flash.c **** 
  83:/home/rdu/Workspace/project_templates/mcu/stm32_ws/src/libraries/STM32F4xx_StdPeriph_Driver/src/stm32f4xx_flash.c **** /* Private typedef -----------------------------------------------------------*/
  84:/home/rdu/Workspace/project_templates/mcu/stm32_ws/src/libraries/STM32F4xx_StdPeriph_Driver/src/stm32f4xx_flash.c **** /* Private define ------------------------------------------------------------*/ 
  85:/home/rdu/Workspace/project_templates/mcu/stm32_ws/src/libraries/STM32F4xx_StdPeriph_Driver/src/stm32f4xx_flash.c **** #define SECTOR_MASK               ((uint32_t)0xFFFFFF07)
  86:/home/rdu/Workspace/project_templates/mcu/stm32_ws/src/libraries/STM32F4xx_StdPeriph_Driver/src/stm32f4xx_flash.c **** 
  87:/home/rdu/Workspace/project_templates/mcu/stm32_ws/src/libraries/STM32F4xx_StdPeriph_Driver/src/stm32f4xx_flash.c **** /* Private macro -------------------------------------------------------------*/
  88:/home/rdu/Workspace/project_templates/mcu/stm32_ws/src/libraries/STM32F4xx_StdPeriph_Driver/src/stm32f4xx_flash.c **** /* Private variables ---------------------------------------------------------*/
  89:/home/rdu/Workspace/project_templates/mcu/stm32_ws/src/libraries/STM32F4xx_StdPeriph_Driver/src/stm32f4xx_flash.c **** /* Private function prototypes -----------------------------------------------*/
  90:/home/rdu/Workspace/project_templates/mcu/stm32_ws/src/libraries/STM32F4xx_StdPeriph_Driver/src/stm32f4xx_flash.c **** /* Private functions ---------------------------------------------------------*/
  91:/home/rdu/Workspace/project_templates/mcu/stm32_ws/src/libraries/STM32F4xx_StdPeriph_Driver/src/stm32f4xx_flash.c **** 
  92:/home/rdu/Workspace/project_templates/mcu/stm32_ws/src/libraries/STM32F4xx_StdPeriph_Driver/src/stm32f4xx_flash.c **** /** @defgroup FLASH_Private_Functions
  93:/home/rdu/Workspace/project_templates/mcu/stm32_ws/src/libraries/STM32F4xx_StdPeriph_Driver/src/stm32f4xx_flash.c ****   * @{
  94:/home/rdu/Workspace/project_templates/mcu/stm32_ws/src/libraries/STM32F4xx_StdPeriph_Driver/src/stm32f4xx_flash.c ****   */ 
  95:/home/rdu/Workspace/project_templates/mcu/stm32_ws/src/libraries/STM32F4xx_StdPeriph_Driver/src/stm32f4xx_flash.c **** 
  96:/home/rdu/Workspace/project_templates/mcu/stm32_ws/src/libraries/STM32F4xx_StdPeriph_Driver/src/stm32f4xx_flash.c **** /** @defgroup FLASH_Group1 FLASH Interface configuration functions
  97:/home/rdu/Workspace/project_templates/mcu/stm32_ws/src/libraries/STM32F4xx_StdPeriph_Driver/src/stm32f4xx_flash.c ****   *  @brief   FLASH Interface configuration functions 
  98:/home/rdu/Workspace/project_templates/mcu/stm32_ws/src/libraries/STM32F4xx_StdPeriph_Driver/src/stm32f4xx_flash.c ****  *
  99:/home/rdu/Workspace/project_templates/mcu/stm32_ws/src/libraries/STM32F4xx_StdPeriph_Driver/src/stm32f4xx_flash.c **** 
 100:/home/rdu/Workspace/project_templates/mcu/stm32_ws/src/libraries/STM32F4xx_StdPeriph_Driver/src/stm32f4xx_flash.c **** @verbatim   
 101:/home/rdu/Workspace/project_templates/mcu/stm32_ws/src/libraries/STM32F4xx_StdPeriph_Driver/src/stm32f4xx_flash.c ****  ===============================================================================
 102:/home/rdu/Workspace/project_templates/mcu/stm32_ws/src/libraries/STM32F4xx_StdPeriph_Driver/src/stm32f4xx_flash.c ****               ##### FLASH Interface configuration functions #####
 103:/home/rdu/Workspace/project_templates/mcu/stm32_ws/src/libraries/STM32F4xx_StdPeriph_Driver/src/stm32f4xx_flash.c ****  ===============================================================================
 104:/home/rdu/Workspace/project_templates/mcu/stm32_ws/src/libraries/STM32F4xx_StdPeriph_Driver/src/stm32f4xx_flash.c ****     [..]
 105:/home/rdu/Workspace/project_templates/mcu/stm32_ws/src/libraries/STM32F4xx_StdPeriph_Driver/src/stm32f4xx_flash.c ****       This group includes the following functions:
 106:/home/rdu/Workspace/project_templates/mcu/stm32_ws/src/libraries/STM32F4xx_StdPeriph_Driver/src/stm32f4xx_flash.c ****       (+) void FLASH_SetLatency(uint32_t FLASH_Latency)
 107:/home/rdu/Workspace/project_templates/mcu/stm32_ws/src/libraries/STM32F4xx_StdPeriph_Driver/src/stm32f4xx_flash.c ****           To correctly read data from FLASH memory, the number of wait states (LATENCY) 
 108:/home/rdu/Workspace/project_templates/mcu/stm32_ws/src/libraries/STM32F4xx_StdPeriph_Driver/src/stm32f4xx_flash.c ****           must be correctly programmed according to the frequency of the CPU clock 
 109:/home/rdu/Workspace/project_templates/mcu/stm32_ws/src/libraries/STM32F4xx_StdPeriph_Driver/src/stm32f4xx_flash.c ****           (HCLK) and the supply voltage of the device.
 110:/home/rdu/Workspace/project_templates/mcu/stm32_ws/src/libraries/STM32F4xx_StdPeriph_Driver/src/stm32f4xx_flash.c ****     [..]      
 111:/home/rdu/Workspace/project_templates/mcu/stm32_ws/src/libraries/STM32F4xx_StdPeriph_Driver/src/stm32f4xx_flash.c ****       For STM32F405xx/07xx and STM32F415xx/17xx devices
 112:/home/rdu/Workspace/project_templates/mcu/stm32_ws/src/libraries/STM32F4xx_StdPeriph_Driver/src/stm32f4xx_flash.c ****  +-------------------------------------------------------------------------------------+
 113:/home/rdu/Workspace/project_templates/mcu/stm32_ws/src/libraries/STM32F4xx_StdPeriph_Driver/src/stm32f4xx_flash.c ****  | Latency       |                HCLK clock frequency (MHz)                           |
 114:/home/rdu/Workspace/project_templates/mcu/stm32_ws/src/libraries/STM32F4xx_StdPeriph_Driver/src/stm32f4xx_flash.c ****  |               |---------------------------------------------------------------------|
 115:/home/rdu/Workspace/project_templates/mcu/stm32_ws/src/libraries/STM32F4xx_StdPeriph_Driver/src/stm32f4xx_flash.c ****  |               | voltage range  | voltage range  | voltage range   | voltage range   |
 116:/home/rdu/Workspace/project_templates/mcu/stm32_ws/src/libraries/STM32F4xx_StdPeriph_Driver/src/stm32f4xx_flash.c ****  |               | 2.7 V - 3.6 V  | 2.4 V - 2.7 V  | 2.1 V - 2.4 V   | 1.8 V - 2.1 V   |
 117:/home/rdu/Workspace/project_templates/mcu/stm32_ws/src/libraries/STM32F4xx_StdPeriph_Driver/src/stm32f4xx_flash.c ****  |---------------|----------------|----------------|-----------------|-----------------|
 118:/home/rdu/Workspace/project_templates/mcu/stm32_ws/src/libraries/STM32F4xx_StdPeriph_Driver/src/stm32f4xx_flash.c ****  |0WS(1CPU cycle)|0 < HCLK <= 30  |0 < HCLK <= 24  |0 < HCLK <= 22   |0 < HCLK <= 20   |
 119:/home/rdu/Workspace/project_templates/mcu/stm32_ws/src/libraries/STM32F4xx_StdPeriph_Driver/src/stm32f4xx_flash.c ****  |---------------|----------------|----------------|-----------------|-----------------|
 120:/home/rdu/Workspace/project_templates/mcu/stm32_ws/src/libraries/STM32F4xx_StdPeriph_Driver/src/stm32f4xx_flash.c ****  |1WS(2CPU cycle)|30 < HCLK <= 60 |24 < HCLK <= 48 |22 < HCLK <= 44  |20 < HCLK <= 40  |
 121:/home/rdu/Workspace/project_templates/mcu/stm32_ws/src/libraries/STM32F4xx_StdPeriph_Driver/src/stm32f4xx_flash.c ****  |---------------|----------------|----------------|-----------------|-----------------|
 122:/home/rdu/Workspace/project_templates/mcu/stm32_ws/src/libraries/STM32F4xx_StdPeriph_Driver/src/stm32f4xx_flash.c ****  |2WS(3CPU cycle)|60 < HCLK <= 90 |48 < HCLK <= 72 |44 < HCLK <= 66  |40 < HCLK <= 60  |
 123:/home/rdu/Workspace/project_templates/mcu/stm32_ws/src/libraries/STM32F4xx_StdPeriph_Driver/src/stm32f4xx_flash.c ****  |---------------|----------------|----------------|-----------------|-----------------|
 124:/home/rdu/Workspace/project_templates/mcu/stm32_ws/src/libraries/STM32F4xx_StdPeriph_Driver/src/stm32f4xx_flash.c ****  |3WS(4CPU cycle)|90 < HCLK <= 120|72 < HCLK <= 96 |66 < HCLK <= 88  |60 < HCLK <= 80  |
 125:/home/rdu/Workspace/project_templates/mcu/stm32_ws/src/libraries/STM32F4xx_StdPeriph_Driver/src/stm32f4xx_flash.c ****  |---------------|----------------|----------------|-----------------|-----------------|
 126:/home/rdu/Workspace/project_templates/mcu/stm32_ws/src/libraries/STM32F4xx_StdPeriph_Driver/src/stm32f4xx_flash.c ****  |4WS(5CPU cycle)|120< HCLK <= 150|96 < HCLK <= 120|88 < HCLK <= 110 |80 < HCLK <= 100 |
 127:/home/rdu/Workspace/project_templates/mcu/stm32_ws/src/libraries/STM32F4xx_StdPeriph_Driver/src/stm32f4xx_flash.c ****  |---------------|----------------|----------------|-----------------|-----------------|
 128:/home/rdu/Workspace/project_templates/mcu/stm32_ws/src/libraries/STM32F4xx_StdPeriph_Driver/src/stm32f4xx_flash.c ****  |5WS(6CPU cycle)|150< HCLK <= 168|120< HCLK <= 144|110 < HCLK <= 132|100 < HCLK <= 120|
 129:/home/rdu/Workspace/project_templates/mcu/stm32_ws/src/libraries/STM32F4xx_StdPeriph_Driver/src/stm32f4xx_flash.c ****  |---------------|----------------|----------------|-----------------|-----------------|
 130:/home/rdu/Workspace/project_templates/mcu/stm32_ws/src/libraries/STM32F4xx_StdPeriph_Driver/src/stm32f4xx_flash.c ****  |6WS(7CPU cycle)|      NA        |144< HCLK <= 168|132 < HCLK <= 154|120 < HCLK <= 140|
 131:/home/rdu/Workspace/project_templates/mcu/stm32_ws/src/libraries/STM32F4xx_StdPeriph_Driver/src/stm32f4xx_flash.c ****  |---------------|----------------|----------------|-----------------|-----------------|
 132:/home/rdu/Workspace/project_templates/mcu/stm32_ws/src/libraries/STM32F4xx_StdPeriph_Driver/src/stm32f4xx_flash.c ****  |7WS(8CPU cycle)|      NA        |      NA        |154 < HCLK <= 168|140 < HCLK <= 160|
 133:/home/rdu/Workspace/project_templates/mcu/stm32_ws/src/libraries/STM32F4xx_StdPeriph_Driver/src/stm32f4xx_flash.c ****  +---------------|----------------|----------------|-----------------|-----------------+
 134:/home/rdu/Workspace/project_templates/mcu/stm32_ws/src/libraries/STM32F4xx_StdPeriph_Driver/src/stm32f4xx_flash.c **** 
 135:/home/rdu/Workspace/project_templates/mcu/stm32_ws/src/libraries/STM32F4xx_StdPeriph_Driver/src/stm32f4xx_flash.c ****     [..]      
 136:/home/rdu/Workspace/project_templates/mcu/stm32_ws/src/libraries/STM32F4xx_StdPeriph_Driver/src/stm32f4xx_flash.c ****       For STM32F42xxx/43xxx devices
 137:/home/rdu/Workspace/project_templates/mcu/stm32_ws/src/libraries/STM32F4xx_StdPeriph_Driver/src/stm32f4xx_flash.c ****  +-------------------------------------------------------------------------------------+
 138:/home/rdu/Workspace/project_templates/mcu/stm32_ws/src/libraries/STM32F4xx_StdPeriph_Driver/src/stm32f4xx_flash.c ****  | Latency       |                HCLK clock frequency (MHz)                           |
 139:/home/rdu/Workspace/project_templates/mcu/stm32_ws/src/libraries/STM32F4xx_StdPeriph_Driver/src/stm32f4xx_flash.c ****  |               |---------------------------------------------------------------------|
 140:/home/rdu/Workspace/project_templates/mcu/stm32_ws/src/libraries/STM32F4xx_StdPeriph_Driver/src/stm32f4xx_flash.c ****  |               | voltage range  | voltage range  | voltage range   | voltage range   |
 141:/home/rdu/Workspace/project_templates/mcu/stm32_ws/src/libraries/STM32F4xx_StdPeriph_Driver/src/stm32f4xx_flash.c ****  |               | 2.7 V - 3.6 V  | 2.4 V - 2.7 V  | 2.1 V - 2.4 V   | 1.8 V - 2.1 V   |
 142:/home/rdu/Workspace/project_templates/mcu/stm32_ws/src/libraries/STM32F4xx_StdPeriph_Driver/src/stm32f4xx_flash.c ****  |---------------|----------------|----------------|-----------------|-----------------|
 143:/home/rdu/Workspace/project_templates/mcu/stm32_ws/src/libraries/STM32F4xx_StdPeriph_Driver/src/stm32f4xx_flash.c ****  |0WS(1CPU cycle)|0 < HCLK <= 30  |0 < HCLK <= 24  |0 < HCLK <= 22   |0 < HCLK <= 20   |
 144:/home/rdu/Workspace/project_templates/mcu/stm32_ws/src/libraries/STM32F4xx_StdPeriph_Driver/src/stm32f4xx_flash.c ****  |---------------|----------------|----------------|-----------------|-----------------|
 145:/home/rdu/Workspace/project_templates/mcu/stm32_ws/src/libraries/STM32F4xx_StdPeriph_Driver/src/stm32f4xx_flash.c ****  |1WS(2CPU cycle)|30 < HCLK <= 60 |24 < HCLK <= 48 |22 < HCLK <= 44  |20 < HCLK <= 40  |
 146:/home/rdu/Workspace/project_templates/mcu/stm32_ws/src/libraries/STM32F4xx_StdPeriph_Driver/src/stm32f4xx_flash.c ****  |---------------|----------------|----------------|-----------------|-----------------|
 147:/home/rdu/Workspace/project_templates/mcu/stm32_ws/src/libraries/STM32F4xx_StdPeriph_Driver/src/stm32f4xx_flash.c ****  |2WS(3CPU cycle)|60 < HCLK <= 90 |48 < HCLK <= 72 |44 < HCLK <= 66  |40 < HCLK <= 60  |
 148:/home/rdu/Workspace/project_templates/mcu/stm32_ws/src/libraries/STM32F4xx_StdPeriph_Driver/src/stm32f4xx_flash.c ****  |---------------|----------------|----------------|-----------------|-----------------|
 149:/home/rdu/Workspace/project_templates/mcu/stm32_ws/src/libraries/STM32F4xx_StdPeriph_Driver/src/stm32f4xx_flash.c ****  |3WS(4CPU cycle)|90 < HCLK <= 120|72 < HCLK <= 96 |66 < HCLK <= 88  |60 < HCLK <= 80  |
 150:/home/rdu/Workspace/project_templates/mcu/stm32_ws/src/libraries/STM32F4xx_StdPeriph_Driver/src/stm32f4xx_flash.c ****  |---------------|----------------|----------------|-----------------|-----------------|
 151:/home/rdu/Workspace/project_templates/mcu/stm32_ws/src/libraries/STM32F4xx_StdPeriph_Driver/src/stm32f4xx_flash.c ****  |4WS(5CPU cycle)|120< HCLK <= 150|96 < HCLK <= 120|88 < HCLK <= 110 |80 < HCLK <= 100 |
 152:/home/rdu/Workspace/project_templates/mcu/stm32_ws/src/libraries/STM32F4xx_StdPeriph_Driver/src/stm32f4xx_flash.c ****  |---------------|----------------|----------------|-----------------|-----------------|
 153:/home/rdu/Workspace/project_templates/mcu/stm32_ws/src/libraries/STM32F4xx_StdPeriph_Driver/src/stm32f4xx_flash.c ****  |5WS(6CPU cycle)|120< HCLK <= 180|120< HCLK <= 144|110 < HCLK <= 132|100 < HCLK <= 120|
 154:/home/rdu/Workspace/project_templates/mcu/stm32_ws/src/libraries/STM32F4xx_StdPeriph_Driver/src/stm32f4xx_flash.c ****  |---------------|----------------|----------------|-----------------|-----------------|
 155:/home/rdu/Workspace/project_templates/mcu/stm32_ws/src/libraries/STM32F4xx_StdPeriph_Driver/src/stm32f4xx_flash.c ****  |6WS(7CPU cycle)|      NA        |144< HCLK <= 168|132 < HCLK <= 154|120 < HCLK <= 140|
 156:/home/rdu/Workspace/project_templates/mcu/stm32_ws/src/libraries/STM32F4xx_StdPeriph_Driver/src/stm32f4xx_flash.c ****  |---------------|----------------|----------------|-----------------|-----------------|
 157:/home/rdu/Workspace/project_templates/mcu/stm32_ws/src/libraries/STM32F4xx_StdPeriph_Driver/src/stm32f4xx_flash.c ****  |7WS(8CPU cycle)|      NA        |168< HCLK <= 180|154 < HCLK <= 176|140 < HCLK <= 160|
 158:/home/rdu/Workspace/project_templates/mcu/stm32_ws/src/libraries/STM32F4xx_StdPeriph_Driver/src/stm32f4xx_flash.c ****  |---------------|----------------|----------------|-----------------|-----------------|
 159:/home/rdu/Workspace/project_templates/mcu/stm32_ws/src/libraries/STM32F4xx_StdPeriph_Driver/src/stm32f4xx_flash.c ****  |8WS(9CPU cycle)|      NA        |      NA        |176 < HCLK <= 180|160 < HCLK <= 168|
 160:/home/rdu/Workspace/project_templates/mcu/stm32_ws/src/libraries/STM32F4xx_StdPeriph_Driver/src/stm32f4xx_flash.c ****  +-------------------------------------------------------------------------------------+
 161:/home/rdu/Workspace/project_templates/mcu/stm32_ws/src/libraries/STM32F4xx_StdPeriph_Driver/src/stm32f4xx_flash.c ****    
 162:/home/rdu/Workspace/project_templates/mcu/stm32_ws/src/libraries/STM32F4xx_StdPeriph_Driver/src/stm32f4xx_flash.c ****     [..]
 163:/home/rdu/Workspace/project_templates/mcu/stm32_ws/src/libraries/STM32F4xx_StdPeriph_Driver/src/stm32f4xx_flash.c ****     For STM32F401x devices
 164:/home/rdu/Workspace/project_templates/mcu/stm32_ws/src/libraries/STM32F4xx_StdPeriph_Driver/src/stm32f4xx_flash.c ****  +-------------------------------------------------------------------------------------+
 165:/home/rdu/Workspace/project_templates/mcu/stm32_ws/src/libraries/STM32F4xx_StdPeriph_Driver/src/stm32f4xx_flash.c ****  | Latency       |                HCLK clock frequency (MHz)                           |
 166:/home/rdu/Workspace/project_templates/mcu/stm32_ws/src/libraries/STM32F4xx_StdPeriph_Driver/src/stm32f4xx_flash.c ****  |               |---------------------------------------------------------------------|
 167:/home/rdu/Workspace/project_templates/mcu/stm32_ws/src/libraries/STM32F4xx_StdPeriph_Driver/src/stm32f4xx_flash.c ****  |               | voltage range  | voltage range  | voltage range   | voltage range   |
 168:/home/rdu/Workspace/project_templates/mcu/stm32_ws/src/libraries/STM32F4xx_StdPeriph_Driver/src/stm32f4xx_flash.c ****  |               | 2.7 V - 3.6 V  | 2.4 V - 2.7 V  | 2.1 V - 2.4 V   | 1.8 V - 2.1 V   |
 169:/home/rdu/Workspace/project_templates/mcu/stm32_ws/src/libraries/STM32F4xx_StdPeriph_Driver/src/stm32f4xx_flash.c ****  |---------------|----------------|----------------|-----------------|-----------------|
 170:/home/rdu/Workspace/project_templates/mcu/stm32_ws/src/libraries/STM32F4xx_StdPeriph_Driver/src/stm32f4xx_flash.c ****  |0WS(1CPU cycle)|0 < HCLK <= 30  |0 < HCLK <= 24  |0 < HCLK <= 22   |0 < HCLK <= 20   |
 171:/home/rdu/Workspace/project_templates/mcu/stm32_ws/src/libraries/STM32F4xx_StdPeriph_Driver/src/stm32f4xx_flash.c ****  |---------------|----------------|----------------|-----------------|-----------------|
 172:/home/rdu/Workspace/project_templates/mcu/stm32_ws/src/libraries/STM32F4xx_StdPeriph_Driver/src/stm32f4xx_flash.c ****  |1WS(2CPU cycle)|30 < HCLK <= 60 |24 < HCLK <= 48 |22 < HCLK <= 44  |20 < HCLK <= 40  |
 173:/home/rdu/Workspace/project_templates/mcu/stm32_ws/src/libraries/STM32F4xx_StdPeriph_Driver/src/stm32f4xx_flash.c ****  |---------------|----------------|----------------|-----------------|-----------------|
 174:/home/rdu/Workspace/project_templates/mcu/stm32_ws/src/libraries/STM32F4xx_StdPeriph_Driver/src/stm32f4xx_flash.c ****  |2WS(3CPU cycle)|60 < HCLK <= 84 |48 < HCLK <= 72 |44 < HCLK <= 66  |40 < HCLK <= 60  |
 175:/home/rdu/Workspace/project_templates/mcu/stm32_ws/src/libraries/STM32F4xx_StdPeriph_Driver/src/stm32f4xx_flash.c ****  |---------------|----------------|----------------|-----------------|-----------------|
 176:/home/rdu/Workspace/project_templates/mcu/stm32_ws/src/libraries/STM32F4xx_StdPeriph_Driver/src/stm32f4xx_flash.c ****  |3WS(4CPU cycle)|      NA        |72 < HCLK <= 84 |66 < HCLK <= 84  |60 < HCLK <= 80  |
 177:/home/rdu/Workspace/project_templates/mcu/stm32_ws/src/libraries/STM32F4xx_StdPeriph_Driver/src/stm32f4xx_flash.c ****  |---------------|----------------|----------------|-----------------|-----------------|
 178:/home/rdu/Workspace/project_templates/mcu/stm32_ws/src/libraries/STM32F4xx_StdPeriph_Driver/src/stm32f4xx_flash.c ****  |4WS(5CPU cycle)|      NA        |      NA        |      NA         |80 < HCLK <= 84  |
 179:/home/rdu/Workspace/project_templates/mcu/stm32_ws/src/libraries/STM32F4xx_StdPeriph_Driver/src/stm32f4xx_flash.c ****  +-------------------------------------------------------------------------------------+
 180:/home/rdu/Workspace/project_templates/mcu/stm32_ws/src/libraries/STM32F4xx_StdPeriph_Driver/src/stm32f4xx_flash.c **** 
 181:/home/rdu/Workspace/project_templates/mcu/stm32_ws/src/libraries/STM32F4xx_StdPeriph_Driver/src/stm32f4xx_flash.c ****     [..]
 182:/home/rdu/Workspace/project_templates/mcu/stm32_ws/src/libraries/STM32F4xx_StdPeriph_Driver/src/stm32f4xx_flash.c ****     For STM32F410xx/STM32F411xE devices
 183:/home/rdu/Workspace/project_templates/mcu/stm32_ws/src/libraries/STM32F4xx_StdPeriph_Driver/src/stm32f4xx_flash.c ****  +-------------------------------------------------------------------------------------+
 184:/home/rdu/Workspace/project_templates/mcu/stm32_ws/src/libraries/STM32F4xx_StdPeriph_Driver/src/stm32f4xx_flash.c ****  | Latency       |                HCLK clock frequency (MHz)                           |
 185:/home/rdu/Workspace/project_templates/mcu/stm32_ws/src/libraries/STM32F4xx_StdPeriph_Driver/src/stm32f4xx_flash.c ****  |               |---------------------------------------------------------------------|
 186:/home/rdu/Workspace/project_templates/mcu/stm32_ws/src/libraries/STM32F4xx_StdPeriph_Driver/src/stm32f4xx_flash.c ****  |               | voltage range  | voltage range  | voltage range   | voltage range   |
 187:/home/rdu/Workspace/project_templates/mcu/stm32_ws/src/libraries/STM32F4xx_StdPeriph_Driver/src/stm32f4xx_flash.c ****  |               | 2.7 V - 3.6 V  | 2.4 V - 2.7 V  | 2.1 V - 2.4 V   | 1.8 V - 2.1 V   |
 188:/home/rdu/Workspace/project_templates/mcu/stm32_ws/src/libraries/STM32F4xx_StdPeriph_Driver/src/stm32f4xx_flash.c ****  |---------------|----------------|----------------|-----------------|-----------------|
 189:/home/rdu/Workspace/project_templates/mcu/stm32_ws/src/libraries/STM32F4xx_StdPeriph_Driver/src/stm32f4xx_flash.c ****  |0WS(1CPU cycle)|0 < HCLK <= 30  |0 < HCLK <= 24  |0 < HCLK <= 18   |0 < HCLK <= 16   |
 190:/home/rdu/Workspace/project_templates/mcu/stm32_ws/src/libraries/STM32F4xx_StdPeriph_Driver/src/stm32f4xx_flash.c ****  |---------------|----------------|----------------|-----------------|-----------------|
 191:/home/rdu/Workspace/project_templates/mcu/stm32_ws/src/libraries/STM32F4xx_StdPeriph_Driver/src/stm32f4xx_flash.c ****  |1WS(2CPU cycle)|30 < HCLK <= 64 |24 < HCLK <= 48 |18 < HCLK <= 36  |16 < HCLK <= 32  |
 192:/home/rdu/Workspace/project_templates/mcu/stm32_ws/src/libraries/STM32F4xx_StdPeriph_Driver/src/stm32f4xx_flash.c ****  |---------------|----------------|----------------|-----------------|-----------------|
 193:/home/rdu/Workspace/project_templates/mcu/stm32_ws/src/libraries/STM32F4xx_StdPeriph_Driver/src/stm32f4xx_flash.c ****  |2WS(3CPU cycle)|64 < HCLK <= 90 |48 < HCLK <= 72 |36 < HCLK <= 54  |32 < HCLK <= 48  |
 194:/home/rdu/Workspace/project_templates/mcu/stm32_ws/src/libraries/STM32F4xx_StdPeriph_Driver/src/stm32f4xx_flash.c ****  |---------------|----------------|----------------|-----------------|-----------------|
 195:/home/rdu/Workspace/project_templates/mcu/stm32_ws/src/libraries/STM32F4xx_StdPeriph_Driver/src/stm32f4xx_flash.c ****  |3WS(4CPU cycle)|90 < HCLK <= 100|72 < HCLK <= 96 |54 < HCLK <= 72  |48 < HCLK <= 64  |
 196:/home/rdu/Workspace/project_templates/mcu/stm32_ws/src/libraries/STM32F4xx_StdPeriph_Driver/src/stm32f4xx_flash.c ****  |---------------|----------------|----------------|-----------------|-----------------|
 197:/home/rdu/Workspace/project_templates/mcu/stm32_ws/src/libraries/STM32F4xx_StdPeriph_Driver/src/stm32f4xx_flash.c ****  |4WS(5CPU cycle)|      NA        |96 < HCLK <= 100|72 < HCLK <= 90  |64 < HCLK <= 80  |
 198:/home/rdu/Workspace/project_templates/mcu/stm32_ws/src/libraries/STM32F4xx_StdPeriph_Driver/src/stm32f4xx_flash.c ****  |---------------|----------------|----------------|-----------------|-----------------|
 199:/home/rdu/Workspace/project_templates/mcu/stm32_ws/src/libraries/STM32F4xx_StdPeriph_Driver/src/stm32f4xx_flash.c ****  |5WS(6CPU cycle)|      NA        |       NA       |90 < HCLK <= 100 |80 < HCLK <= 96  |
 200:/home/rdu/Workspace/project_templates/mcu/stm32_ws/src/libraries/STM32F4xx_StdPeriph_Driver/src/stm32f4xx_flash.c ****  |---------------|----------------|----------------|-----------------|-----------------|
 201:/home/rdu/Workspace/project_templates/mcu/stm32_ws/src/libraries/STM32F4xx_StdPeriph_Driver/src/stm32f4xx_flash.c ****  |6WS(7CPU cycle)|      NA        |       NA       |        NA       |96 < HCLK <= 100 |
 202:/home/rdu/Workspace/project_templates/mcu/stm32_ws/src/libraries/STM32F4xx_StdPeriph_Driver/src/stm32f4xx_flash.c ****  +-------------------------------------------------------------------------------------+
 203:/home/rdu/Workspace/project_templates/mcu/stm32_ws/src/libraries/STM32F4xx_StdPeriph_Driver/src/stm32f4xx_flash.c ****  
 204:/home/rdu/Workspace/project_templates/mcu/stm32_ws/src/libraries/STM32F4xx_StdPeriph_Driver/src/stm32f4xx_flash.c ****  [..]
 205:/home/rdu/Workspace/project_templates/mcu/stm32_ws/src/libraries/STM32F4xx_StdPeriph_Driver/src/stm32f4xx_flash.c ****  +-------------------------------------------------------------------------------------------------
 206:/home/rdu/Workspace/project_templates/mcu/stm32_ws/src/libraries/STM32F4xx_StdPeriph_Driver/src/stm32f4xx_flash.c ****  |               | voltage range  | voltage range  | voltage range   | voltage range   | voltage ra
 207:/home/rdu/Workspace/project_templates/mcu/stm32_ws/src/libraries/STM32F4xx_StdPeriph_Driver/src/stm32f4xx_flash.c ****  |               | 2.7 V - 3.6 V  | 2.4 V - 2.7 V  | 2.1 V - 2.4 V   | 1.8 V - 2.1 V   | with Exter
 208:/home/rdu/Workspace/project_templates/mcu/stm32_ws/src/libraries/STM32F4xx_StdPeriph_Driver/src/stm32f4xx_flash.c ****  |---------------|----------------|----------------|-----------------|-----------------|-----------
 209:/home/rdu/Workspace/project_templates/mcu/stm32_ws/src/libraries/STM32F4xx_StdPeriph_Driver/src/stm32f4xx_flash.c ****  |Max Parallelism|      x32       |               x16                |       x8        |          x
 210:/home/rdu/Workspace/project_templates/mcu/stm32_ws/src/libraries/STM32F4xx_StdPeriph_Driver/src/stm32f4xx_flash.c ****  |---------------|----------------|----------------|-----------------|-----------------|-----------
 211:/home/rdu/Workspace/project_templates/mcu/stm32_ws/src/libraries/STM32F4xx_StdPeriph_Driver/src/stm32f4xx_flash.c ****  |PSIZE[1:0]     |      10        |               01                 |       00        |           
 212:/home/rdu/Workspace/project_templates/mcu/stm32_ws/src/libraries/STM32F4xx_StdPeriph_Driver/src/stm32f4xx_flash.c ****  +-------------------------------------------------------------------------------------------------
 213:/home/rdu/Workspace/project_templates/mcu/stm32_ws/src/libraries/STM32F4xx_StdPeriph_Driver/src/stm32f4xx_flash.c **** 
 214:/home/rdu/Workspace/project_templates/mcu/stm32_ws/src/libraries/STM32F4xx_StdPeriph_Driver/src/stm32f4xx_flash.c ****       -@- On STM32F405xx/407xx and STM32F415xx/417xx devices: 
 215:/home/rdu/Workspace/project_templates/mcu/stm32_ws/src/libraries/STM32F4xx_StdPeriph_Driver/src/stm32f4xx_flash.c ****            (++) when VOS = '0' Scale 2 mode, the maximum value of fHCLK = 144MHz. 
 216:/home/rdu/Workspace/project_templates/mcu/stm32_ws/src/libraries/STM32F4xx_StdPeriph_Driver/src/stm32f4xx_flash.c ****            (++) when VOS = '1' Scale 1 mode, the maximum value of fHCLK = 168MHz. 
 217:/home/rdu/Workspace/project_templates/mcu/stm32_ws/src/libraries/STM32F4xx_StdPeriph_Driver/src/stm32f4xx_flash.c ****           [..] 
 218:/home/rdu/Workspace/project_templates/mcu/stm32_ws/src/libraries/STM32F4xx_StdPeriph_Driver/src/stm32f4xx_flash.c ****           On STM32F42xxx/43xxx devices:
 219:/home/rdu/Workspace/project_templates/mcu/stm32_ws/src/libraries/STM32F4xx_StdPeriph_Driver/src/stm32f4xx_flash.c ****            (++) when VOS[1:0] = '0x01' Scale 3 mode, the maximum value of fHCLK is 120MHz.
 220:/home/rdu/Workspace/project_templates/mcu/stm32_ws/src/libraries/STM32F4xx_StdPeriph_Driver/src/stm32f4xx_flash.c ****            (++) when VOS[1:0] = '0x10' Scale 2 mode, the maximum value of fHCLK is 144MHz if OverDr
 221:/home/rdu/Workspace/project_templates/mcu/stm32_ws/src/libraries/STM32F4xx_StdPeriph_Driver/src/stm32f4xx_flash.c ****            (++) when VOS[1:0] = '0x11' Scale 1 mode, the maximum value of fHCLK is 168MHz if OverDr
 222:/home/rdu/Workspace/project_templates/mcu/stm32_ws/src/libraries/STM32F4xx_StdPeriph_Driver/src/stm32f4xx_flash.c ****           [..]
 223:/home/rdu/Workspace/project_templates/mcu/stm32_ws/src/libraries/STM32F4xx_StdPeriph_Driver/src/stm32f4xx_flash.c ****           On STM32F401x devices:
 224:/home/rdu/Workspace/project_templates/mcu/stm32_ws/src/libraries/STM32F4xx_StdPeriph_Driver/src/stm32f4xx_flash.c ****            (++) when VOS[1:0] = '0x01' Scale 3 mode, the maximum value of fHCLK is 60MHz.
 225:/home/rdu/Workspace/project_templates/mcu/stm32_ws/src/libraries/STM32F4xx_StdPeriph_Driver/src/stm32f4xx_flash.c ****            (++) when VOS[1:0] = '0x10' Scale 2 mode, the maximum value of fHCLK is 84MHz.
 226:/home/rdu/Workspace/project_templates/mcu/stm32_ws/src/libraries/STM32F4xx_StdPeriph_Driver/src/stm32f4xx_flash.c ****           [..]  
 227:/home/rdu/Workspace/project_templates/mcu/stm32_ws/src/libraries/STM32F4xx_StdPeriph_Driver/src/stm32f4xx_flash.c ****           On STM32F410xx/STM32F411xE devices:
 228:/home/rdu/Workspace/project_templates/mcu/stm32_ws/src/libraries/STM32F4xx_StdPeriph_Driver/src/stm32f4xx_flash.c ****            (++) when VOS[1:0] = '0x01' Scale 3 mode, the maximum value of fHCLK is 64MHz.
 229:/home/rdu/Workspace/project_templates/mcu/stm32_ws/src/libraries/STM32F4xx_StdPeriph_Driver/src/stm32f4xx_flash.c ****            (++) when VOS[1:0] = '0x10' Scale 2 mode, the maximum value of fHCLK is 84MHz.
 230:/home/rdu/Workspace/project_templates/mcu/stm32_ws/src/libraries/STM32F4xx_StdPeriph_Driver/src/stm32f4xx_flash.c ****            (++) when VOS[1:0] = '0x11' Scale 1 mode, the maximum value of fHCLK is 100MHz.
 231:/home/rdu/Workspace/project_templates/mcu/stm32_ws/src/libraries/STM32F4xx_StdPeriph_Driver/src/stm32f4xx_flash.c **** 
 232:/home/rdu/Workspace/project_templates/mcu/stm32_ws/src/libraries/STM32F4xx_StdPeriph_Driver/src/stm32f4xx_flash.c ****         For more details please refer product DataSheet 
 233:/home/rdu/Workspace/project_templates/mcu/stm32_ws/src/libraries/STM32F4xx_StdPeriph_Driver/src/stm32f4xx_flash.c ****            You can use PWR_MainRegulatorModeConfig() function to control VOS bits.
 234:/home/rdu/Workspace/project_templates/mcu/stm32_ws/src/libraries/STM32F4xx_StdPeriph_Driver/src/stm32f4xx_flash.c **** 
 235:/home/rdu/Workspace/project_templates/mcu/stm32_ws/src/libraries/STM32F4xx_StdPeriph_Driver/src/stm32f4xx_flash.c ****       (+) void FLASH_PrefetchBufferCmd(FunctionalState NewState)
 236:/home/rdu/Workspace/project_templates/mcu/stm32_ws/src/libraries/STM32F4xx_StdPeriph_Driver/src/stm32f4xx_flash.c ****       (+) void FLASH_InstructionCacheCmd(FunctionalState NewState)
 237:/home/rdu/Workspace/project_templates/mcu/stm32_ws/src/libraries/STM32F4xx_StdPeriph_Driver/src/stm32f4xx_flash.c ****       (+) void FLASH_DataCacheCmd(FunctionalState NewState)
 238:/home/rdu/Workspace/project_templates/mcu/stm32_ws/src/libraries/STM32F4xx_StdPeriph_Driver/src/stm32f4xx_flash.c ****       (+) void FLASH_InstructionCacheReset(void)
 239:/home/rdu/Workspace/project_templates/mcu/stm32_ws/src/libraries/STM32F4xx_StdPeriph_Driver/src/stm32f4xx_flash.c ****       (+) void FLASH_DataCacheReset(void)
 240:/home/rdu/Workspace/project_templates/mcu/stm32_ws/src/libraries/STM32F4xx_StdPeriph_Driver/src/stm32f4xx_flash.c ****       
 241:/home/rdu/Workspace/project_templates/mcu/stm32_ws/src/libraries/STM32F4xx_StdPeriph_Driver/src/stm32f4xx_flash.c ****     [..]   
 242:/home/rdu/Workspace/project_templates/mcu/stm32_ws/src/libraries/STM32F4xx_StdPeriph_Driver/src/stm32f4xx_flash.c ****       The unlock sequence is not needed for these functions.
 243:/home/rdu/Workspace/project_templates/mcu/stm32_ws/src/libraries/STM32F4xx_StdPeriph_Driver/src/stm32f4xx_flash.c ****  
 244:/home/rdu/Workspace/project_templates/mcu/stm32_ws/src/libraries/STM32F4xx_StdPeriph_Driver/src/stm32f4xx_flash.c **** @endverbatim
 245:/home/rdu/Workspace/project_templates/mcu/stm32_ws/src/libraries/STM32F4xx_StdPeriph_Driver/src/stm32f4xx_flash.c ****   * @{
 246:/home/rdu/Workspace/project_templates/mcu/stm32_ws/src/libraries/STM32F4xx_StdPeriph_Driver/src/stm32f4xx_flash.c ****   */
 247:/home/rdu/Workspace/project_templates/mcu/stm32_ws/src/libraries/STM32F4xx_StdPeriph_Driver/src/stm32f4xx_flash.c ****  
 248:/home/rdu/Workspace/project_templates/mcu/stm32_ws/src/libraries/STM32F4xx_StdPeriph_Driver/src/stm32f4xx_flash.c **** /**
 249:/home/rdu/Workspace/project_templates/mcu/stm32_ws/src/libraries/STM32F4xx_StdPeriph_Driver/src/stm32f4xx_flash.c ****   * @brief  Sets the code latency value.  
 250:/home/rdu/Workspace/project_templates/mcu/stm32_ws/src/libraries/STM32F4xx_StdPeriph_Driver/src/stm32f4xx_flash.c ****   * @param  FLASH_Latency: specifies the FLASH Latency value.
 251:/home/rdu/Workspace/project_templates/mcu/stm32_ws/src/libraries/STM32F4xx_StdPeriph_Driver/src/stm32f4xx_flash.c ****   *          This parameter can be one of the following values:
 252:/home/rdu/Workspace/project_templates/mcu/stm32_ws/src/libraries/STM32F4xx_StdPeriph_Driver/src/stm32f4xx_flash.c ****   *            @arg FLASH_Latency_0: FLASH Zero Latency cycle
 253:/home/rdu/Workspace/project_templates/mcu/stm32_ws/src/libraries/STM32F4xx_StdPeriph_Driver/src/stm32f4xx_flash.c ****   *            @arg FLASH_Latency_1: FLASH One Latency cycle
 254:/home/rdu/Workspace/project_templates/mcu/stm32_ws/src/libraries/STM32F4xx_StdPeriph_Driver/src/stm32f4xx_flash.c ****   *            @arg FLASH_Latency_2: FLASH Two Latency cycles
 255:/home/rdu/Workspace/project_templates/mcu/stm32_ws/src/libraries/STM32F4xx_StdPeriph_Driver/src/stm32f4xx_flash.c ****   *            @arg FLASH_Latency_3: FLASH Three Latency cycles
 256:/home/rdu/Workspace/project_templates/mcu/stm32_ws/src/libraries/STM32F4xx_StdPeriph_Driver/src/stm32f4xx_flash.c ****   *            @arg FLASH_Latency_4: FLASH Four Latency cycles 
 257:/home/rdu/Workspace/project_templates/mcu/stm32_ws/src/libraries/STM32F4xx_StdPeriph_Driver/src/stm32f4xx_flash.c ****   *            @arg FLASH_Latency_5: FLASH Five Latency cycles 
 258:/home/rdu/Workspace/project_templates/mcu/stm32_ws/src/libraries/STM32F4xx_StdPeriph_Driver/src/stm32f4xx_flash.c ****   *            @arg FLASH_Latency_6: FLASH Six Latency cycles
 259:/home/rdu/Workspace/project_templates/mcu/stm32_ws/src/libraries/STM32F4xx_StdPeriph_Driver/src/stm32f4xx_flash.c ****   *            @arg FLASH_Latency_7: FLASH Seven Latency cycles 
 260:/home/rdu/Workspace/project_templates/mcu/stm32_ws/src/libraries/STM32F4xx_StdPeriph_Driver/src/stm32f4xx_flash.c ****   *            @arg FLASH_Latency_8: FLASH Eight Latency cycles
 261:/home/rdu/Workspace/project_templates/mcu/stm32_ws/src/libraries/STM32F4xx_StdPeriph_Driver/src/stm32f4xx_flash.c ****   *            @arg FLASH_Latency_9: FLASH Nine Latency cycles
 262:/home/rdu/Workspace/project_templates/mcu/stm32_ws/src/libraries/STM32F4xx_StdPeriph_Driver/src/stm32f4xx_flash.c ****   *            @arg FLASH_Latency_10: FLASH Teen Latency cycles 
 263:/home/rdu/Workspace/project_templates/mcu/stm32_ws/src/libraries/STM32F4xx_StdPeriph_Driver/src/stm32f4xx_flash.c ****   *            @arg FLASH_Latency_11: FLASH Eleven Latency cycles 
 264:/home/rdu/Workspace/project_templates/mcu/stm32_ws/src/libraries/STM32F4xx_StdPeriph_Driver/src/stm32f4xx_flash.c ****   *            @arg FLASH_Latency_12: FLASH Twelve Latency cycles
 265:/home/rdu/Workspace/project_templates/mcu/stm32_ws/src/libraries/STM32F4xx_StdPeriph_Driver/src/stm32f4xx_flash.c ****   *            @arg FLASH_Latency_13: FLASH Thirteen Latency cycles
 266:/home/rdu/Workspace/project_templates/mcu/stm32_ws/src/libraries/STM32F4xx_StdPeriph_Driver/src/stm32f4xx_flash.c ****   *            @arg FLASH_Latency_14: FLASH Fourteen Latency cycles
 267:/home/rdu/Workspace/project_templates/mcu/stm32_ws/src/libraries/STM32F4xx_StdPeriph_Driver/src/stm32f4xx_flash.c ****   *            @arg FLASH_Latency_15: FLASH Fifteen Latency cycles 
 268:/home/rdu/Workspace/project_templates/mcu/stm32_ws/src/libraries/STM32F4xx_StdPeriph_Driver/src/stm32f4xx_flash.c ****   *              
 269:/home/rdu/Workspace/project_templates/mcu/stm32_ws/src/libraries/STM32F4xx_StdPeriph_Driver/src/stm32f4xx_flash.c ****   * @note For STM32F405xx/407xx, STM32F415xx/417xx, STM32F401xx/411xE/STM32F412xG and STM32F413_423
 270:/home/rdu/Workspace/project_templates/mcu/stm32_ws/src/libraries/STM32F4xx_StdPeriph_Driver/src/stm32f4xx_flash.c ****   *       this parameter can be a value between FLASH_Latency_0 and FLASH_Latency_7.
 271:/home/rdu/Workspace/project_templates/mcu/stm32_ws/src/libraries/STM32F4xx_StdPeriph_Driver/src/stm32f4xx_flash.c ****   *
 272:/home/rdu/Workspace/project_templates/mcu/stm32_ws/src/libraries/STM32F4xx_StdPeriph_Driver/src/stm32f4xx_flash.c ****   * @note For STM32F42xxx/43xxx devices this parameter can be a value between 
 273:/home/rdu/Workspace/project_templates/mcu/stm32_ws/src/libraries/STM32F4xx_StdPeriph_Driver/src/stm32f4xx_flash.c ****   *       FLASH_Latency_0 and FLASH_Latency_15. 
 274:/home/rdu/Workspace/project_templates/mcu/stm32_ws/src/libraries/STM32F4xx_StdPeriph_Driver/src/stm32f4xx_flash.c ****   *         
 275:/home/rdu/Workspace/project_templates/mcu/stm32_ws/src/libraries/STM32F4xx_StdPeriph_Driver/src/stm32f4xx_flash.c ****   * @retval None
 276:/home/rdu/Workspace/project_templates/mcu/stm32_ws/src/libraries/STM32F4xx_StdPeriph_Driver/src/stm32f4xx_flash.c ****   */
 277:/home/rdu/Workspace/project_templates/mcu/stm32_ws/src/libraries/STM32F4xx_StdPeriph_Driver/src/stm32f4xx_flash.c **** void FLASH_SetLatency(uint32_t FLASH_Latency)
 278:/home/rdu/Workspace/project_templates/mcu/stm32_ws/src/libraries/STM32F4xx_StdPeriph_Driver/src/stm32f4xx_flash.c **** {
  26              		.loc 1 278 0
  27              		.cfi_startproc
  28              		@ args = 0, pretend = 0, frame = 8
  29              		@ frame_needed = 0, uses_anonymous_args = 0
  30              		@ link register save eliminated.
  31 0000 82B0     		sub	sp, sp, #8
  32              	.LCFI0:
  33              		.cfi_def_cfa_offset 8
  34 0002 0190     		str	r0, [sp, #4]
 279:/home/rdu/Workspace/project_templates/mcu/stm32_ws/src/libraries/STM32F4xx_StdPeriph_Driver/src/stm32f4xx_flash.c ****   /* Check the parameters */
 280:/home/rdu/Workspace/project_templates/mcu/stm32_ws/src/libraries/STM32F4xx_StdPeriph_Driver/src/stm32f4xx_flash.c ****   assert_param(IS_FLASH_LATENCY(FLASH_Latency));
 281:/home/rdu/Workspace/project_templates/mcu/stm32_ws/src/libraries/STM32F4xx_StdPeriph_Driver/src/stm32f4xx_flash.c ****   
 282:/home/rdu/Workspace/project_templates/mcu/stm32_ws/src/libraries/STM32F4xx_StdPeriph_Driver/src/stm32f4xx_flash.c ****   /* Perform Byte access to FLASH_ACR[8:0] to set the Latency value */
 283:/home/rdu/Workspace/project_templates/mcu/stm32_ws/src/libraries/STM32F4xx_StdPeriph_Driver/src/stm32f4xx_flash.c ****   *(__IO uint8_t *)ACR_BYTE0_ADDRESS = (uint8_t)FLASH_Latency;
  35              		.loc 1 283 0
  36 0004 034B     		ldr	r3, .L2
  37 0006 019A     		ldr	r2, [sp, #4]
  38 0008 D2B2     		uxtb	r2, r2
  39 000a 1A70     		strb	r2, [r3]
 284:/home/rdu/Workspace/project_templates/mcu/stm32_ws/src/libraries/STM32F4xx_StdPeriph_Driver/src/stm32f4xx_flash.c **** }
  40              		.loc 1 284 0
  41 000c 00BF     		nop
  42 000e 02B0     		add	sp, sp, #8
  43              	.LCFI1:
  44              		.cfi_def_cfa_offset 0
  45              		@ sp needed
  46 0010 7047     		bx	lr
  47              	.L3:
  48 0012 00BF     		.align	2
  49              	.L2:
  50 0014 003C0240 		.word	1073888256
  51              		.cfi_endproc
  52              	.LFE123:
  54              		.section	.text.FLASH_PrefetchBufferCmd,"ax",%progbits
  55              		.align	1
  56              		.global	FLASH_PrefetchBufferCmd
  57              		.syntax unified
  58              		.thumb
  59              		.thumb_func
  60              		.fpu fpv4-sp-d16
  62              	FLASH_PrefetchBufferCmd:
  63              	.LFB124:
 285:/home/rdu/Workspace/project_templates/mcu/stm32_ws/src/libraries/STM32F4xx_StdPeriph_Driver/src/stm32f4xx_flash.c **** 
 286:/home/rdu/Workspace/project_templates/mcu/stm32_ws/src/libraries/STM32F4xx_StdPeriph_Driver/src/stm32f4xx_flash.c **** /**
 287:/home/rdu/Workspace/project_templates/mcu/stm32_ws/src/libraries/STM32F4xx_StdPeriph_Driver/src/stm32f4xx_flash.c ****   * @brief  Enables or disables the Prefetch Buffer.
 288:/home/rdu/Workspace/project_templates/mcu/stm32_ws/src/libraries/STM32F4xx_StdPeriph_Driver/src/stm32f4xx_flash.c ****   * @param  NewState: new state of the Prefetch Buffer.
 289:/home/rdu/Workspace/project_templates/mcu/stm32_ws/src/libraries/STM32F4xx_StdPeriph_Driver/src/stm32f4xx_flash.c ****   *          This parameter  can be: ENABLE or DISABLE.
 290:/home/rdu/Workspace/project_templates/mcu/stm32_ws/src/libraries/STM32F4xx_StdPeriph_Driver/src/stm32f4xx_flash.c ****   * @retval None
 291:/home/rdu/Workspace/project_templates/mcu/stm32_ws/src/libraries/STM32F4xx_StdPeriph_Driver/src/stm32f4xx_flash.c ****   */
 292:/home/rdu/Workspace/project_templates/mcu/stm32_ws/src/libraries/STM32F4xx_StdPeriph_Driver/src/stm32f4xx_flash.c **** void FLASH_PrefetchBufferCmd(FunctionalState NewState)
 293:/home/rdu/Workspace/project_templates/mcu/stm32_ws/src/libraries/STM32F4xx_StdPeriph_Driver/src/stm32f4xx_flash.c **** {
  64              		.loc 1 293 0
  65              		.cfi_startproc
  66              		@ args = 0, pretend = 0, frame = 8
  67              		@ frame_needed = 0, uses_anonymous_args = 0
  68              		@ link register save eliminated.
  69 0000 82B0     		sub	sp, sp, #8
  70              	.LCFI2:
  71              		.cfi_def_cfa_offset 8
  72 0002 0346     		mov	r3, r0
  73 0004 8DF80730 		strb	r3, [sp, #7]
 294:/home/rdu/Workspace/project_templates/mcu/stm32_ws/src/libraries/STM32F4xx_StdPeriph_Driver/src/stm32f4xx_flash.c ****   /* Check the parameters */
 295:/home/rdu/Workspace/project_templates/mcu/stm32_ws/src/libraries/STM32F4xx_StdPeriph_Driver/src/stm32f4xx_flash.c ****   assert_param(IS_FUNCTIONAL_STATE(NewState));
 296:/home/rdu/Workspace/project_templates/mcu/stm32_ws/src/libraries/STM32F4xx_StdPeriph_Driver/src/stm32f4xx_flash.c ****   
 297:/home/rdu/Workspace/project_templates/mcu/stm32_ws/src/libraries/STM32F4xx_StdPeriph_Driver/src/stm32f4xx_flash.c ****   /* Enable or disable the Prefetch Buffer */
 298:/home/rdu/Workspace/project_templates/mcu/stm32_ws/src/libraries/STM32F4xx_StdPeriph_Driver/src/stm32f4xx_flash.c ****   if(NewState != DISABLE)
  74              		.loc 1 298 0
  75 0008 9DF80730 		ldrb	r3, [sp, #7]	@ zero_extendqisi2
  76 000c 002B     		cmp	r3, #0
  77 000e 06D0     		beq	.L5
 299:/home/rdu/Workspace/project_templates/mcu/stm32_ws/src/libraries/STM32F4xx_StdPeriph_Driver/src/stm32f4xx_flash.c ****   {
 300:/home/rdu/Workspace/project_templates/mcu/stm32_ws/src/libraries/STM32F4xx_StdPeriph_Driver/src/stm32f4xx_flash.c ****     FLASH->ACR |= FLASH_ACR_PRFTEN;
  78              		.loc 1 300 0
  79 0010 074B     		ldr	r3, .L8
  80 0012 1B68     		ldr	r3, [r3]
  81 0014 064A     		ldr	r2, .L8
  82 0016 43F48073 		orr	r3, r3, #256
  83 001a 1360     		str	r3, [r2]
 301:/home/rdu/Workspace/project_templates/mcu/stm32_ws/src/libraries/STM32F4xx_StdPeriph_Driver/src/stm32f4xx_flash.c ****   }
 302:/home/rdu/Workspace/project_templates/mcu/stm32_ws/src/libraries/STM32F4xx_StdPeriph_Driver/src/stm32f4xx_flash.c ****   else
 303:/home/rdu/Workspace/project_templates/mcu/stm32_ws/src/libraries/STM32F4xx_StdPeriph_Driver/src/stm32f4xx_flash.c ****   {
 304:/home/rdu/Workspace/project_templates/mcu/stm32_ws/src/libraries/STM32F4xx_StdPeriph_Driver/src/stm32f4xx_flash.c ****     FLASH->ACR &= (~FLASH_ACR_PRFTEN);
 305:/home/rdu/Workspace/project_templates/mcu/stm32_ws/src/libraries/STM32F4xx_StdPeriph_Driver/src/stm32f4xx_flash.c ****   }
 306:/home/rdu/Workspace/project_templates/mcu/stm32_ws/src/libraries/STM32F4xx_StdPeriph_Driver/src/stm32f4xx_flash.c **** }
  84              		.loc 1 306 0
  85 001c 05E0     		b	.L7
  86              	.L5:
 304:/home/rdu/Workspace/project_templates/mcu/stm32_ws/src/libraries/STM32F4xx_StdPeriph_Driver/src/stm32f4xx_flash.c ****   }
  87              		.loc 1 304 0
  88 001e 044B     		ldr	r3, .L8
  89 0020 1B68     		ldr	r3, [r3]
  90 0022 034A     		ldr	r2, .L8
  91 0024 23F48073 		bic	r3, r3, #256
  92 0028 1360     		str	r3, [r2]
  93              	.L7:
  94              		.loc 1 306 0
  95 002a 00BF     		nop
  96 002c 02B0     		add	sp, sp, #8
  97              	.LCFI3:
  98              		.cfi_def_cfa_offset 0
  99              		@ sp needed
 100 002e 7047     		bx	lr
 101              	.L9:
 102              		.align	2
 103              	.L8:
 104 0030 003C0240 		.word	1073888256
 105              		.cfi_endproc
 106              	.LFE124:
 108              		.section	.text.FLASH_InstructionCacheCmd,"ax",%progbits
 109              		.align	1
 110              		.global	FLASH_InstructionCacheCmd
 111              		.syntax unified
 112              		.thumb
 113              		.thumb_func
 114              		.fpu fpv4-sp-d16
 116              	FLASH_InstructionCacheCmd:
 117              	.LFB125:
 307:/home/rdu/Workspace/project_templates/mcu/stm32_ws/src/libraries/STM32F4xx_StdPeriph_Driver/src/stm32f4xx_flash.c **** 
 308:/home/rdu/Workspace/project_templates/mcu/stm32_ws/src/libraries/STM32F4xx_StdPeriph_Driver/src/stm32f4xx_flash.c **** /**
 309:/home/rdu/Workspace/project_templates/mcu/stm32_ws/src/libraries/STM32F4xx_StdPeriph_Driver/src/stm32f4xx_flash.c ****   * @brief  Enables or disables the Instruction Cache feature.
 310:/home/rdu/Workspace/project_templates/mcu/stm32_ws/src/libraries/STM32F4xx_StdPeriph_Driver/src/stm32f4xx_flash.c ****   * @param  NewState: new state of the Instruction Cache.
 311:/home/rdu/Workspace/project_templates/mcu/stm32_ws/src/libraries/STM32F4xx_StdPeriph_Driver/src/stm32f4xx_flash.c ****   *          This parameter  can be: ENABLE or DISABLE.
 312:/home/rdu/Workspace/project_templates/mcu/stm32_ws/src/libraries/STM32F4xx_StdPeriph_Driver/src/stm32f4xx_flash.c ****   * @retval None
 313:/home/rdu/Workspace/project_templates/mcu/stm32_ws/src/libraries/STM32F4xx_StdPeriph_Driver/src/stm32f4xx_flash.c ****   */
 314:/home/rdu/Workspace/project_templates/mcu/stm32_ws/src/libraries/STM32F4xx_StdPeriph_Driver/src/stm32f4xx_flash.c **** void FLASH_InstructionCacheCmd(FunctionalState NewState)
 315:/home/rdu/Workspace/project_templates/mcu/stm32_ws/src/libraries/STM32F4xx_StdPeriph_Driver/src/stm32f4xx_flash.c **** {
 118              		.loc 1 315 0
 119              		.cfi_startproc
 120              		@ args = 0, pretend = 0, frame = 8
 121              		@ frame_needed = 0, uses_anonymous_args = 0
 122              		@ link register save eliminated.
 123 0000 82B0     		sub	sp, sp, #8
 124              	.LCFI4:
 125              		.cfi_def_cfa_offset 8
 126 0002 0346     		mov	r3, r0
 127 0004 8DF80730 		strb	r3, [sp, #7]
 316:/home/rdu/Workspace/project_templates/mcu/stm32_ws/src/libraries/STM32F4xx_StdPeriph_Driver/src/stm32f4xx_flash.c ****   /* Check the parameters */
 317:/home/rdu/Workspace/project_templates/mcu/stm32_ws/src/libraries/STM32F4xx_StdPeriph_Driver/src/stm32f4xx_flash.c ****   assert_param(IS_FUNCTIONAL_STATE(NewState));
 318:/home/rdu/Workspace/project_templates/mcu/stm32_ws/src/libraries/STM32F4xx_StdPeriph_Driver/src/stm32f4xx_flash.c ****   
 319:/home/rdu/Workspace/project_templates/mcu/stm32_ws/src/libraries/STM32F4xx_StdPeriph_Driver/src/stm32f4xx_flash.c ****   if(NewState != DISABLE)
 128              		.loc 1 319 0
 129 0008 9DF80730 		ldrb	r3, [sp, #7]	@ zero_extendqisi2
 130 000c 002B     		cmp	r3, #0
 131 000e 06D0     		beq	.L11
 320:/home/rdu/Workspace/project_templates/mcu/stm32_ws/src/libraries/STM32F4xx_StdPeriph_Driver/src/stm32f4xx_flash.c ****   {
 321:/home/rdu/Workspace/project_templates/mcu/stm32_ws/src/libraries/STM32F4xx_StdPeriph_Driver/src/stm32f4xx_flash.c ****     FLASH->ACR |= FLASH_ACR_ICEN;
 132              		.loc 1 321 0
 133 0010 074B     		ldr	r3, .L14
 134 0012 1B68     		ldr	r3, [r3]
 135 0014 064A     		ldr	r2, .L14
 136 0016 43F40073 		orr	r3, r3, #512
 137 001a 1360     		str	r3, [r2]
 322:/home/rdu/Workspace/project_templates/mcu/stm32_ws/src/libraries/STM32F4xx_StdPeriph_Driver/src/stm32f4xx_flash.c ****   }
 323:/home/rdu/Workspace/project_templates/mcu/stm32_ws/src/libraries/STM32F4xx_StdPeriph_Driver/src/stm32f4xx_flash.c ****   else
 324:/home/rdu/Workspace/project_templates/mcu/stm32_ws/src/libraries/STM32F4xx_StdPeriph_Driver/src/stm32f4xx_flash.c ****   {
 325:/home/rdu/Workspace/project_templates/mcu/stm32_ws/src/libraries/STM32F4xx_StdPeriph_Driver/src/stm32f4xx_flash.c ****     FLASH->ACR &= (~FLASH_ACR_ICEN);
 326:/home/rdu/Workspace/project_templates/mcu/stm32_ws/src/libraries/STM32F4xx_StdPeriph_Driver/src/stm32f4xx_flash.c ****   }
 327:/home/rdu/Workspace/project_templates/mcu/stm32_ws/src/libraries/STM32F4xx_StdPeriph_Driver/src/stm32f4xx_flash.c **** }
 138              		.loc 1 327 0
 139 001c 05E0     		b	.L13
 140              	.L11:
 325:/home/rdu/Workspace/project_templates/mcu/stm32_ws/src/libraries/STM32F4xx_StdPeriph_Driver/src/stm32f4xx_flash.c ****   }
 141              		.loc 1 325 0
 142 001e 044B     		ldr	r3, .L14
 143 0020 1B68     		ldr	r3, [r3]
 144 0022 034A     		ldr	r2, .L14
 145 0024 23F40073 		bic	r3, r3, #512
 146 0028 1360     		str	r3, [r2]
 147              	.L13:
 148              		.loc 1 327 0
 149 002a 00BF     		nop
 150 002c 02B0     		add	sp, sp, #8
 151              	.LCFI5:
 152              		.cfi_def_cfa_offset 0
 153              		@ sp needed
 154 002e 7047     		bx	lr
 155              	.L15:
 156              		.align	2
 157              	.L14:
 158 0030 003C0240 		.word	1073888256
 159              		.cfi_endproc
 160              	.LFE125:
 162              		.section	.text.FLASH_DataCacheCmd,"ax",%progbits
 163              		.align	1
 164              		.global	FLASH_DataCacheCmd
 165              		.syntax unified
 166              		.thumb
 167              		.thumb_func
 168              		.fpu fpv4-sp-d16
 170              	FLASH_DataCacheCmd:
 171              	.LFB126:
 328:/home/rdu/Workspace/project_templates/mcu/stm32_ws/src/libraries/STM32F4xx_StdPeriph_Driver/src/stm32f4xx_flash.c **** 
 329:/home/rdu/Workspace/project_templates/mcu/stm32_ws/src/libraries/STM32F4xx_StdPeriph_Driver/src/stm32f4xx_flash.c **** /**
 330:/home/rdu/Workspace/project_templates/mcu/stm32_ws/src/libraries/STM32F4xx_StdPeriph_Driver/src/stm32f4xx_flash.c ****   * @brief  Enables or disables the Data Cache feature.
 331:/home/rdu/Workspace/project_templates/mcu/stm32_ws/src/libraries/STM32F4xx_StdPeriph_Driver/src/stm32f4xx_flash.c ****   * @param  NewState: new state of the Data Cache.
 332:/home/rdu/Workspace/project_templates/mcu/stm32_ws/src/libraries/STM32F4xx_StdPeriph_Driver/src/stm32f4xx_flash.c ****   *          This parameter  can be: ENABLE or DISABLE.
 333:/home/rdu/Workspace/project_templates/mcu/stm32_ws/src/libraries/STM32F4xx_StdPeriph_Driver/src/stm32f4xx_flash.c ****   * @retval None
 334:/home/rdu/Workspace/project_templates/mcu/stm32_ws/src/libraries/STM32F4xx_StdPeriph_Driver/src/stm32f4xx_flash.c ****   */
 335:/home/rdu/Workspace/project_templates/mcu/stm32_ws/src/libraries/STM32F4xx_StdPeriph_Driver/src/stm32f4xx_flash.c **** void FLASH_DataCacheCmd(FunctionalState NewState)
 336:/home/rdu/Workspace/project_templates/mcu/stm32_ws/src/libraries/STM32F4xx_StdPeriph_Driver/src/stm32f4xx_flash.c **** {
 172              		.loc 1 336 0
 173              		.cfi_startproc
 174              		@ args = 0, pretend = 0, frame = 8
 175              		@ frame_needed = 0, uses_anonymous_args = 0
 176              		@ link register save eliminated.
 177 0000 82B0     		sub	sp, sp, #8
 178              	.LCFI6:
 179              		.cfi_def_cfa_offset 8
 180 0002 0346     		mov	r3, r0
 181 0004 8DF80730 		strb	r3, [sp, #7]
 337:/home/rdu/Workspace/project_templates/mcu/stm32_ws/src/libraries/STM32F4xx_StdPeriph_Driver/src/stm32f4xx_flash.c ****   /* Check the parameters */
 338:/home/rdu/Workspace/project_templates/mcu/stm32_ws/src/libraries/STM32F4xx_StdPeriph_Driver/src/stm32f4xx_flash.c ****   assert_param(IS_FUNCTIONAL_STATE(NewState));
 339:/home/rdu/Workspace/project_templates/mcu/stm32_ws/src/libraries/STM32F4xx_StdPeriph_Driver/src/stm32f4xx_flash.c ****   
 340:/home/rdu/Workspace/project_templates/mcu/stm32_ws/src/libraries/STM32F4xx_StdPeriph_Driver/src/stm32f4xx_flash.c ****   if(NewState != DISABLE)
 182              		.loc 1 340 0
 183 0008 9DF80730 		ldrb	r3, [sp, #7]	@ zero_extendqisi2
 184 000c 002B     		cmp	r3, #0
 185 000e 06D0     		beq	.L17
 341:/home/rdu/Workspace/project_templates/mcu/stm32_ws/src/libraries/STM32F4xx_StdPeriph_Driver/src/stm32f4xx_flash.c ****   {
 342:/home/rdu/Workspace/project_templates/mcu/stm32_ws/src/libraries/STM32F4xx_StdPeriph_Driver/src/stm32f4xx_flash.c ****     FLASH->ACR |= FLASH_ACR_DCEN;
 186              		.loc 1 342 0
 187 0010 074B     		ldr	r3, .L20
 188 0012 1B68     		ldr	r3, [r3]
 189 0014 064A     		ldr	r2, .L20
 190 0016 43F48063 		orr	r3, r3, #1024
 191 001a 1360     		str	r3, [r2]
 343:/home/rdu/Workspace/project_templates/mcu/stm32_ws/src/libraries/STM32F4xx_StdPeriph_Driver/src/stm32f4xx_flash.c ****   }
 344:/home/rdu/Workspace/project_templates/mcu/stm32_ws/src/libraries/STM32F4xx_StdPeriph_Driver/src/stm32f4xx_flash.c ****   else
 345:/home/rdu/Workspace/project_templates/mcu/stm32_ws/src/libraries/STM32F4xx_StdPeriph_Driver/src/stm32f4xx_flash.c ****   {
 346:/home/rdu/Workspace/project_templates/mcu/stm32_ws/src/libraries/STM32F4xx_StdPeriph_Driver/src/stm32f4xx_flash.c ****     FLASH->ACR &= (~FLASH_ACR_DCEN);
 347:/home/rdu/Workspace/project_templates/mcu/stm32_ws/src/libraries/STM32F4xx_StdPeriph_Driver/src/stm32f4xx_flash.c ****   }
 348:/home/rdu/Workspace/project_templates/mcu/stm32_ws/src/libraries/STM32F4xx_StdPeriph_Driver/src/stm32f4xx_flash.c **** }
 192              		.loc 1 348 0
 193 001c 05E0     		b	.L19
 194              	.L17:
 346:/home/rdu/Workspace/project_templates/mcu/stm32_ws/src/libraries/STM32F4xx_StdPeriph_Driver/src/stm32f4xx_flash.c ****   }
 195              		.loc 1 346 0
 196 001e 044B     		ldr	r3, .L20
 197 0020 1B68     		ldr	r3, [r3]
 198 0022 034A     		ldr	r2, .L20
 199 0024 23F48063 		bic	r3, r3, #1024
 200 0028 1360     		str	r3, [r2]
 201              	.L19:
 202              		.loc 1 348 0
 203 002a 00BF     		nop
 204 002c 02B0     		add	sp, sp, #8
 205              	.LCFI7:
 206              		.cfi_def_cfa_offset 0
 207              		@ sp needed
 208 002e 7047     		bx	lr
 209              	.L21:
 210              		.align	2
 211              	.L20:
 212 0030 003C0240 		.word	1073888256
 213              		.cfi_endproc
 214              	.LFE126:
 216              		.section	.text.FLASH_InstructionCacheReset,"ax",%progbits
 217              		.align	1
 218              		.global	FLASH_InstructionCacheReset
 219              		.syntax unified
 220              		.thumb
 221              		.thumb_func
 222              		.fpu fpv4-sp-d16
 224              	FLASH_InstructionCacheReset:
 225              	.LFB127:
 349:/home/rdu/Workspace/project_templates/mcu/stm32_ws/src/libraries/STM32F4xx_StdPeriph_Driver/src/stm32f4xx_flash.c **** 
 350:/home/rdu/Workspace/project_templates/mcu/stm32_ws/src/libraries/STM32F4xx_StdPeriph_Driver/src/stm32f4xx_flash.c **** /**
 351:/home/rdu/Workspace/project_templates/mcu/stm32_ws/src/libraries/STM32F4xx_StdPeriph_Driver/src/stm32f4xx_flash.c ****   * @brief  Resets the Instruction Cache.
 352:/home/rdu/Workspace/project_templates/mcu/stm32_ws/src/libraries/STM32F4xx_StdPeriph_Driver/src/stm32f4xx_flash.c ****   * @note   This function must be used only when the Instruction Cache is disabled.  
 353:/home/rdu/Workspace/project_templates/mcu/stm32_ws/src/libraries/STM32F4xx_StdPeriph_Driver/src/stm32f4xx_flash.c ****   * @param  None
 354:/home/rdu/Workspace/project_templates/mcu/stm32_ws/src/libraries/STM32F4xx_StdPeriph_Driver/src/stm32f4xx_flash.c ****   * @retval None
 355:/home/rdu/Workspace/project_templates/mcu/stm32_ws/src/libraries/STM32F4xx_StdPeriph_Driver/src/stm32f4xx_flash.c ****   */
 356:/home/rdu/Workspace/project_templates/mcu/stm32_ws/src/libraries/STM32F4xx_StdPeriph_Driver/src/stm32f4xx_flash.c **** void FLASH_InstructionCacheReset(void)
 357:/home/rdu/Workspace/project_templates/mcu/stm32_ws/src/libraries/STM32F4xx_StdPeriph_Driver/src/stm32f4xx_flash.c **** {
 226              		.loc 1 357 0
 227              		.cfi_startproc
 228              		@ args = 0, pretend = 0, frame = 0
 229              		@ frame_needed = 0, uses_anonymous_args = 0
 230              		@ link register save eliminated.
 358:/home/rdu/Workspace/project_templates/mcu/stm32_ws/src/libraries/STM32F4xx_StdPeriph_Driver/src/stm32f4xx_flash.c ****   FLASH->ACR |= FLASH_ACR_ICRST;
 231              		.loc 1 358 0
 232 0000 034B     		ldr	r3, .L23
 233 0002 1B68     		ldr	r3, [r3]
 234 0004 024A     		ldr	r2, .L23
 235 0006 43F40063 		orr	r3, r3, #2048
 236 000a 1360     		str	r3, [r2]
 359:/home/rdu/Workspace/project_templates/mcu/stm32_ws/src/libraries/STM32F4xx_StdPeriph_Driver/src/stm32f4xx_flash.c **** }
 237              		.loc 1 359 0
 238 000c 00BF     		nop
 239 000e 7047     		bx	lr
 240              	.L24:
 241              		.align	2
 242              	.L23:
 243 0010 003C0240 		.word	1073888256
 244              		.cfi_endproc
 245              	.LFE127:
 247              		.section	.text.FLASH_DataCacheReset,"ax",%progbits
 248              		.align	1
 249              		.global	FLASH_DataCacheReset
 250              		.syntax unified
 251              		.thumb
 252              		.thumb_func
 253              		.fpu fpv4-sp-d16
 255              	FLASH_DataCacheReset:
 256              	.LFB128:
 360:/home/rdu/Workspace/project_templates/mcu/stm32_ws/src/libraries/STM32F4xx_StdPeriph_Driver/src/stm32f4xx_flash.c **** 
 361:/home/rdu/Workspace/project_templates/mcu/stm32_ws/src/libraries/STM32F4xx_StdPeriph_Driver/src/stm32f4xx_flash.c **** /**
 362:/home/rdu/Workspace/project_templates/mcu/stm32_ws/src/libraries/STM32F4xx_StdPeriph_Driver/src/stm32f4xx_flash.c ****   * @brief  Resets the Data Cache.
 363:/home/rdu/Workspace/project_templates/mcu/stm32_ws/src/libraries/STM32F4xx_StdPeriph_Driver/src/stm32f4xx_flash.c ****   * @note   This function must be used only when the Data Cache is disabled.  
 364:/home/rdu/Workspace/project_templates/mcu/stm32_ws/src/libraries/STM32F4xx_StdPeriph_Driver/src/stm32f4xx_flash.c ****   * @param  None
 365:/home/rdu/Workspace/project_templates/mcu/stm32_ws/src/libraries/STM32F4xx_StdPeriph_Driver/src/stm32f4xx_flash.c ****   * @retval None
 366:/home/rdu/Workspace/project_templates/mcu/stm32_ws/src/libraries/STM32F4xx_StdPeriph_Driver/src/stm32f4xx_flash.c ****   */
 367:/home/rdu/Workspace/project_templates/mcu/stm32_ws/src/libraries/STM32F4xx_StdPeriph_Driver/src/stm32f4xx_flash.c **** void FLASH_DataCacheReset(void)
 368:/home/rdu/Workspace/project_templates/mcu/stm32_ws/src/libraries/STM32F4xx_StdPeriph_Driver/src/stm32f4xx_flash.c **** {
 257              		.loc 1 368 0
 258              		.cfi_startproc
 259              		@ args = 0, pretend = 0, frame = 0
 260              		@ frame_needed = 0, uses_anonymous_args = 0
 261              		@ link register save eliminated.
 369:/home/rdu/Workspace/project_templates/mcu/stm32_ws/src/libraries/STM32F4xx_StdPeriph_Driver/src/stm32f4xx_flash.c ****   FLASH->ACR |= FLASH_ACR_DCRST;
 262              		.loc 1 369 0
 263 0000 034B     		ldr	r3, .L26
 264 0002 1B68     		ldr	r3, [r3]
 265 0004 024A     		ldr	r2, .L26
 266 0006 43F48053 		orr	r3, r3, #4096
 267 000a 1360     		str	r3, [r2]
 370:/home/rdu/Workspace/project_templates/mcu/stm32_ws/src/libraries/STM32F4xx_StdPeriph_Driver/src/stm32f4xx_flash.c **** }
 268              		.loc 1 370 0
 269 000c 00BF     		nop
 270 000e 7047     		bx	lr
 271              	.L27:
 272              		.align	2
 273              	.L26:
 274 0010 003C0240 		.word	1073888256
 275              		.cfi_endproc
 276              	.LFE128:
 278              		.section	.text.FLASH_Unlock,"ax",%progbits
 279              		.align	1
 280              		.global	FLASH_Unlock
 281              		.syntax unified
 282              		.thumb
 283              		.thumb_func
 284              		.fpu fpv4-sp-d16
 286              	FLASH_Unlock:
 287              	.LFB129:
 371:/home/rdu/Workspace/project_templates/mcu/stm32_ws/src/libraries/STM32F4xx_StdPeriph_Driver/src/stm32f4xx_flash.c **** 
 372:/home/rdu/Workspace/project_templates/mcu/stm32_ws/src/libraries/STM32F4xx_StdPeriph_Driver/src/stm32f4xx_flash.c **** /**
 373:/home/rdu/Workspace/project_templates/mcu/stm32_ws/src/libraries/STM32F4xx_StdPeriph_Driver/src/stm32f4xx_flash.c ****   * @}
 374:/home/rdu/Workspace/project_templates/mcu/stm32_ws/src/libraries/STM32F4xx_StdPeriph_Driver/src/stm32f4xx_flash.c ****   */
 375:/home/rdu/Workspace/project_templates/mcu/stm32_ws/src/libraries/STM32F4xx_StdPeriph_Driver/src/stm32f4xx_flash.c **** 
 376:/home/rdu/Workspace/project_templates/mcu/stm32_ws/src/libraries/STM32F4xx_StdPeriph_Driver/src/stm32f4xx_flash.c **** /** @defgroup FLASH_Group2 FLASH Memory Programming functions
 377:/home/rdu/Workspace/project_templates/mcu/stm32_ws/src/libraries/STM32F4xx_StdPeriph_Driver/src/stm32f4xx_flash.c ****  *  @brief   FLASH Memory Programming functions
 378:/home/rdu/Workspace/project_templates/mcu/stm32_ws/src/libraries/STM32F4xx_StdPeriph_Driver/src/stm32f4xx_flash.c ****  *
 379:/home/rdu/Workspace/project_templates/mcu/stm32_ws/src/libraries/STM32F4xx_StdPeriph_Driver/src/stm32f4xx_flash.c **** @verbatim   
 380:/home/rdu/Workspace/project_templates/mcu/stm32_ws/src/libraries/STM32F4xx_StdPeriph_Driver/src/stm32f4xx_flash.c ****  ===============================================================================
 381:/home/rdu/Workspace/project_templates/mcu/stm32_ws/src/libraries/STM32F4xx_StdPeriph_Driver/src/stm32f4xx_flash.c ****                 ##### FLASH Memory Programming functions #####
 382:/home/rdu/Workspace/project_templates/mcu/stm32_ws/src/libraries/STM32F4xx_StdPeriph_Driver/src/stm32f4xx_flash.c ****  ===============================================================================   
 383:/home/rdu/Workspace/project_templates/mcu/stm32_ws/src/libraries/STM32F4xx_StdPeriph_Driver/src/stm32f4xx_flash.c ****     [..]
 384:/home/rdu/Workspace/project_templates/mcu/stm32_ws/src/libraries/STM32F4xx_StdPeriph_Driver/src/stm32f4xx_flash.c ****       This group includes the following functions:
 385:/home/rdu/Workspace/project_templates/mcu/stm32_ws/src/libraries/STM32F4xx_StdPeriph_Driver/src/stm32f4xx_flash.c ****       (+) void FLASH_Unlock(void)
 386:/home/rdu/Workspace/project_templates/mcu/stm32_ws/src/libraries/STM32F4xx_StdPeriph_Driver/src/stm32f4xx_flash.c ****       (+) void FLASH_Lock(void)
 387:/home/rdu/Workspace/project_templates/mcu/stm32_ws/src/libraries/STM32F4xx_StdPeriph_Driver/src/stm32f4xx_flash.c ****       (+) FLASH_Status FLASH_EraseSector(uint32_t FLASH_Sector, uint8_t VoltageRange)
 388:/home/rdu/Workspace/project_templates/mcu/stm32_ws/src/libraries/STM32F4xx_StdPeriph_Driver/src/stm32f4xx_flash.c ****       (+) FLASH_Status FLASH_EraseAllSectors(uint8_t VoltageRange)       
 389:/home/rdu/Workspace/project_templates/mcu/stm32_ws/src/libraries/STM32F4xx_StdPeriph_Driver/src/stm32f4xx_flash.c ****       (+) FLASH_Status FLASH_ProgramDoubleWord(uint32_t Address, uint64_t Data)
 390:/home/rdu/Workspace/project_templates/mcu/stm32_ws/src/libraries/STM32F4xx_StdPeriph_Driver/src/stm32f4xx_flash.c ****       (+) FLASH_Status FLASH_ProgramWord(uint32_t Address, uint32_t Data)
 391:/home/rdu/Workspace/project_templates/mcu/stm32_ws/src/libraries/STM32F4xx_StdPeriph_Driver/src/stm32f4xx_flash.c ****       (+) FLASH_Status FLASH_ProgramHalfWord(uint32_t Address, uint16_t Data)
 392:/home/rdu/Workspace/project_templates/mcu/stm32_ws/src/libraries/STM32F4xx_StdPeriph_Driver/src/stm32f4xx_flash.c ****       (+) FLASH_Status FLASH_ProgramByte(uint32_t Address, uint8_t Data)
 393:/home/rdu/Workspace/project_templates/mcu/stm32_ws/src/libraries/STM32F4xx_StdPeriph_Driver/src/stm32f4xx_flash.c ****           The following functions can be used only for STM32F42xxx/43xxx devices. 
 394:/home/rdu/Workspace/project_templates/mcu/stm32_ws/src/libraries/STM32F4xx_StdPeriph_Driver/src/stm32f4xx_flash.c ****       (+) FLASH_Status FLASH_EraseAllBank1Sectors(uint8_t VoltageRange)
 395:/home/rdu/Workspace/project_templates/mcu/stm32_ws/src/libraries/STM32F4xx_StdPeriph_Driver/src/stm32f4xx_flash.c ****       (+) FLASH_Status FLASH_EraseAllBank2Sectors(uint8_t VoltageRange)    
 396:/home/rdu/Workspace/project_templates/mcu/stm32_ws/src/libraries/STM32F4xx_StdPeriph_Driver/src/stm32f4xx_flash.c ****     [..]   
 397:/home/rdu/Workspace/project_templates/mcu/stm32_ws/src/libraries/STM32F4xx_StdPeriph_Driver/src/stm32f4xx_flash.c ****       Any operation of erase or program should follow these steps:
 398:/home/rdu/Workspace/project_templates/mcu/stm32_ws/src/libraries/STM32F4xx_StdPeriph_Driver/src/stm32f4xx_flash.c ****       (#) Call the FLASH_Unlock() function to enable the FLASH control register access
 399:/home/rdu/Workspace/project_templates/mcu/stm32_ws/src/libraries/STM32F4xx_StdPeriph_Driver/src/stm32f4xx_flash.c **** 
 400:/home/rdu/Workspace/project_templates/mcu/stm32_ws/src/libraries/STM32F4xx_StdPeriph_Driver/src/stm32f4xx_flash.c ****       (#) Call the desired function to erase sector(s) or program data
 401:/home/rdu/Workspace/project_templates/mcu/stm32_ws/src/libraries/STM32F4xx_StdPeriph_Driver/src/stm32f4xx_flash.c **** 
 402:/home/rdu/Workspace/project_templates/mcu/stm32_ws/src/libraries/STM32F4xx_StdPeriph_Driver/src/stm32f4xx_flash.c ****       (#) Call the FLASH_Lock() function to disable the FLASH control register access
 403:/home/rdu/Workspace/project_templates/mcu/stm32_ws/src/libraries/STM32F4xx_StdPeriph_Driver/src/stm32f4xx_flash.c ****           (recommended to protect the FLASH memory against possible unwanted operation)
 404:/home/rdu/Workspace/project_templates/mcu/stm32_ws/src/libraries/STM32F4xx_StdPeriph_Driver/src/stm32f4xx_flash.c ****     
 405:/home/rdu/Workspace/project_templates/mcu/stm32_ws/src/libraries/STM32F4xx_StdPeriph_Driver/src/stm32f4xx_flash.c **** @endverbatim
 406:/home/rdu/Workspace/project_templates/mcu/stm32_ws/src/libraries/STM32F4xx_StdPeriph_Driver/src/stm32f4xx_flash.c ****   * @{
 407:/home/rdu/Workspace/project_templates/mcu/stm32_ws/src/libraries/STM32F4xx_StdPeriph_Driver/src/stm32f4xx_flash.c ****   */
 408:/home/rdu/Workspace/project_templates/mcu/stm32_ws/src/libraries/STM32F4xx_StdPeriph_Driver/src/stm32f4xx_flash.c **** 
 409:/home/rdu/Workspace/project_templates/mcu/stm32_ws/src/libraries/STM32F4xx_StdPeriph_Driver/src/stm32f4xx_flash.c **** /**
 410:/home/rdu/Workspace/project_templates/mcu/stm32_ws/src/libraries/STM32F4xx_StdPeriph_Driver/src/stm32f4xx_flash.c ****   * @brief  Unlocks the FLASH control register access
 411:/home/rdu/Workspace/project_templates/mcu/stm32_ws/src/libraries/STM32F4xx_StdPeriph_Driver/src/stm32f4xx_flash.c ****   * @param  None
 412:/home/rdu/Workspace/project_templates/mcu/stm32_ws/src/libraries/STM32F4xx_StdPeriph_Driver/src/stm32f4xx_flash.c ****   * @retval None
 413:/home/rdu/Workspace/project_templates/mcu/stm32_ws/src/libraries/STM32F4xx_StdPeriph_Driver/src/stm32f4xx_flash.c ****   */
 414:/home/rdu/Workspace/project_templates/mcu/stm32_ws/src/libraries/STM32F4xx_StdPeriph_Driver/src/stm32f4xx_flash.c **** void FLASH_Unlock(void)
 415:/home/rdu/Workspace/project_templates/mcu/stm32_ws/src/libraries/STM32F4xx_StdPeriph_Driver/src/stm32f4xx_flash.c **** {
 288              		.loc 1 415 0
 289              		.cfi_startproc
 290              		@ args = 0, pretend = 0, frame = 0
 291              		@ frame_needed = 0, uses_anonymous_args = 0
 292              		@ link register save eliminated.
 416:/home/rdu/Workspace/project_templates/mcu/stm32_ws/src/libraries/STM32F4xx_StdPeriph_Driver/src/stm32f4xx_flash.c ****   if((FLASH->CR & FLASH_CR_LOCK) != RESET)
 293              		.loc 1 416 0
 294 0000 054B     		ldr	r3, .L31
 295 0002 1B69     		ldr	r3, [r3, #16]
 296 0004 002B     		cmp	r3, #0
 297 0006 05DA     		bge	.L30
 417:/home/rdu/Workspace/project_templates/mcu/stm32_ws/src/libraries/STM32F4xx_StdPeriph_Driver/src/stm32f4xx_flash.c ****   {
 418:/home/rdu/Workspace/project_templates/mcu/stm32_ws/src/libraries/STM32F4xx_StdPeriph_Driver/src/stm32f4xx_flash.c ****     /* Authorize the FLASH Registers access */
 419:/home/rdu/Workspace/project_templates/mcu/stm32_ws/src/libraries/STM32F4xx_StdPeriph_Driver/src/stm32f4xx_flash.c ****     FLASH->KEYR = FLASH_KEY1;
 298              		.loc 1 419 0
 299 0008 034B     		ldr	r3, .L31
 300 000a 044A     		ldr	r2, .L31+4
 301 000c 5A60     		str	r2, [r3, #4]
 420:/home/rdu/Workspace/project_templates/mcu/stm32_ws/src/libraries/STM32F4xx_StdPeriph_Driver/src/stm32f4xx_flash.c ****     FLASH->KEYR = FLASH_KEY2;
 302              		.loc 1 420 0
 303 000e 024B     		ldr	r3, .L31
 304 0010 034A     		ldr	r2, .L31+8
 305 0012 5A60     		str	r2, [r3, #4]
 306              	.L30:
 421:/home/rdu/Workspace/project_templates/mcu/stm32_ws/src/libraries/STM32F4xx_StdPeriph_Driver/src/stm32f4xx_flash.c ****   }  
 422:/home/rdu/Workspace/project_templates/mcu/stm32_ws/src/libraries/STM32F4xx_StdPeriph_Driver/src/stm32f4xx_flash.c **** }
 307              		.loc 1 422 0
 308 0014 00BF     		nop
 309 0016 7047     		bx	lr
 310              	.L32:
 311              		.align	2
 312              	.L31:
 313 0018 003C0240 		.word	1073888256
 314 001c 23016745 		.word	1164378403
 315 0020 AB89EFCD 		.word	-839939669
 316              		.cfi_endproc
 317              	.LFE129:
 319              		.section	.text.FLASH_Lock,"ax",%progbits
 320              		.align	1
 321              		.global	FLASH_Lock
 322              		.syntax unified
 323              		.thumb
 324              		.thumb_func
 325              		.fpu fpv4-sp-d16
 327              	FLASH_Lock:
 328              	.LFB130:
 423:/home/rdu/Workspace/project_templates/mcu/stm32_ws/src/libraries/STM32F4xx_StdPeriph_Driver/src/stm32f4xx_flash.c **** 
 424:/home/rdu/Workspace/project_templates/mcu/stm32_ws/src/libraries/STM32F4xx_StdPeriph_Driver/src/stm32f4xx_flash.c **** /**
 425:/home/rdu/Workspace/project_templates/mcu/stm32_ws/src/libraries/STM32F4xx_StdPeriph_Driver/src/stm32f4xx_flash.c ****   * @brief  Locks the FLASH control register access
 426:/home/rdu/Workspace/project_templates/mcu/stm32_ws/src/libraries/STM32F4xx_StdPeriph_Driver/src/stm32f4xx_flash.c ****   * @param  None
 427:/home/rdu/Workspace/project_templates/mcu/stm32_ws/src/libraries/STM32F4xx_StdPeriph_Driver/src/stm32f4xx_flash.c ****   * @retval None
 428:/home/rdu/Workspace/project_templates/mcu/stm32_ws/src/libraries/STM32F4xx_StdPeriph_Driver/src/stm32f4xx_flash.c ****   */
 429:/home/rdu/Workspace/project_templates/mcu/stm32_ws/src/libraries/STM32F4xx_StdPeriph_Driver/src/stm32f4xx_flash.c **** void FLASH_Lock(void)
 430:/home/rdu/Workspace/project_templates/mcu/stm32_ws/src/libraries/STM32F4xx_StdPeriph_Driver/src/stm32f4xx_flash.c **** {
 329              		.loc 1 430 0
 330              		.cfi_startproc
 331              		@ args = 0, pretend = 0, frame = 0
 332              		@ frame_needed = 0, uses_anonymous_args = 0
 333              		@ link register save eliminated.
 431:/home/rdu/Workspace/project_templates/mcu/stm32_ws/src/libraries/STM32F4xx_StdPeriph_Driver/src/stm32f4xx_flash.c ****   /* Set the LOCK Bit to lock the FLASH Registers access */
 432:/home/rdu/Workspace/project_templates/mcu/stm32_ws/src/libraries/STM32F4xx_StdPeriph_Driver/src/stm32f4xx_flash.c ****   FLASH->CR |= FLASH_CR_LOCK;
 334              		.loc 1 432 0
 335 0000 034B     		ldr	r3, .L34
 336 0002 1B69     		ldr	r3, [r3, #16]
 337 0004 024A     		ldr	r2, .L34
 338 0006 43F00043 		orr	r3, r3, #-2147483648
 339 000a 1361     		str	r3, [r2, #16]
 433:/home/rdu/Workspace/project_templates/mcu/stm32_ws/src/libraries/STM32F4xx_StdPeriph_Driver/src/stm32f4xx_flash.c **** }
 340              		.loc 1 433 0
 341 000c 00BF     		nop
 342 000e 7047     		bx	lr
 343              	.L35:
 344              		.align	2
 345              	.L34:
 346 0010 003C0240 		.word	1073888256
 347              		.cfi_endproc
 348              	.LFE130:
 350              		.section	.text.FLASH_EraseSector,"ax",%progbits
 351              		.align	1
 352              		.global	FLASH_EraseSector
 353              		.syntax unified
 354              		.thumb
 355              		.thumb_func
 356              		.fpu fpv4-sp-d16
 358              	FLASH_EraseSector:
 359              	.LFB131:
 434:/home/rdu/Workspace/project_templates/mcu/stm32_ws/src/libraries/STM32F4xx_StdPeriph_Driver/src/stm32f4xx_flash.c **** 
 435:/home/rdu/Workspace/project_templates/mcu/stm32_ws/src/libraries/STM32F4xx_StdPeriph_Driver/src/stm32f4xx_flash.c **** /**
 436:/home/rdu/Workspace/project_templates/mcu/stm32_ws/src/libraries/STM32F4xx_StdPeriph_Driver/src/stm32f4xx_flash.c ****   * @brief  Erases a specified FLASH Sector.
 437:/home/rdu/Workspace/project_templates/mcu/stm32_ws/src/libraries/STM32F4xx_StdPeriph_Driver/src/stm32f4xx_flash.c ****   *
 438:/home/rdu/Workspace/project_templates/mcu/stm32_ws/src/libraries/STM32F4xx_StdPeriph_Driver/src/stm32f4xx_flash.c ****   * @note   If an erase and a program operations are requested simultaneously,    
 439:/home/rdu/Workspace/project_templates/mcu/stm32_ws/src/libraries/STM32F4xx_StdPeriph_Driver/src/stm32f4xx_flash.c ****   *         the erase operation is performed before the program one.
 440:/home/rdu/Workspace/project_templates/mcu/stm32_ws/src/libraries/STM32F4xx_StdPeriph_Driver/src/stm32f4xx_flash.c ****   *
 441:/home/rdu/Workspace/project_templates/mcu/stm32_ws/src/libraries/STM32F4xx_StdPeriph_Driver/src/stm32f4xx_flash.c ****   * @param  FLASH_Sector: The Sector number to be erased.
 442:/home/rdu/Workspace/project_templates/mcu/stm32_ws/src/libraries/STM32F4xx_StdPeriph_Driver/src/stm32f4xx_flash.c ****   *
 443:/home/rdu/Workspace/project_templates/mcu/stm32_ws/src/libraries/STM32F4xx_StdPeriph_Driver/src/stm32f4xx_flash.c ****   *  @note  For STM32F405xx/407xx and STM32F415xx/417xx devices this parameter can 
 444:/home/rdu/Workspace/project_templates/mcu/stm32_ws/src/libraries/STM32F4xx_StdPeriph_Driver/src/stm32f4xx_flash.c ****   *         be a value between FLASH_Sector_0 and FLASH_Sector_11.
 445:/home/rdu/Workspace/project_templates/mcu/stm32_ws/src/libraries/STM32F4xx_StdPeriph_Driver/src/stm32f4xx_flash.c ****   *
 446:/home/rdu/Workspace/project_templates/mcu/stm32_ws/src/libraries/STM32F4xx_StdPeriph_Driver/src/stm32f4xx_flash.c ****   *         For STM32F42xxx/43xxx devices this parameter can be a value between 
 447:/home/rdu/Workspace/project_templates/mcu/stm32_ws/src/libraries/STM32F4xx_StdPeriph_Driver/src/stm32f4xx_flash.c ****   *         FLASH_Sector_0 and FLASH_Sector_23.
 448:/home/rdu/Workspace/project_templates/mcu/stm32_ws/src/libraries/STM32F4xx_StdPeriph_Driver/src/stm32f4xx_flash.c ****   *
 449:/home/rdu/Workspace/project_templates/mcu/stm32_ws/src/libraries/STM32F4xx_StdPeriph_Driver/src/stm32f4xx_flash.c ****   *         For STM32F401xx devices this parameter can be a value between 
 450:/home/rdu/Workspace/project_templates/mcu/stm32_ws/src/libraries/STM32F4xx_StdPeriph_Driver/src/stm32f4xx_flash.c ****   *         FLASH_Sector_0 and FLASH_Sector_5.
 451:/home/rdu/Workspace/project_templates/mcu/stm32_ws/src/libraries/STM32F4xx_StdPeriph_Driver/src/stm32f4xx_flash.c ****   *
 452:/home/rdu/Workspace/project_templates/mcu/stm32_ws/src/libraries/STM32F4xx_StdPeriph_Driver/src/stm32f4xx_flash.c ****   *         For STM32F411xE and STM32F412xG devices this parameter can be a value between 
 453:/home/rdu/Workspace/project_templates/mcu/stm32_ws/src/libraries/STM32F4xx_StdPeriph_Driver/src/stm32f4xx_flash.c ****   *         FLASH_Sector_0 and FLASH_Sector_7.
 454:/home/rdu/Workspace/project_templates/mcu/stm32_ws/src/libraries/STM32F4xx_StdPeriph_Driver/src/stm32f4xx_flash.c ****   *
 455:/home/rdu/Workspace/project_templates/mcu/stm32_ws/src/libraries/STM32F4xx_StdPeriph_Driver/src/stm32f4xx_flash.c ****   *         For STM32F410xx devices this parameter can be a value between 
 456:/home/rdu/Workspace/project_templates/mcu/stm32_ws/src/libraries/STM32F4xx_StdPeriph_Driver/src/stm32f4xx_flash.c ****   *         FLASH_Sector_0 and FLASH_Sector_4.
 457:/home/rdu/Workspace/project_templates/mcu/stm32_ws/src/libraries/STM32F4xx_StdPeriph_Driver/src/stm32f4xx_flash.c ****   *
 458:/home/rdu/Workspace/project_templates/mcu/stm32_ws/src/libraries/STM32F4xx_StdPeriph_Driver/src/stm32f4xx_flash.c ****   *         For STM32F413_423xx devices this parameter can be a value between 
 459:/home/rdu/Workspace/project_templates/mcu/stm32_ws/src/libraries/STM32F4xx_StdPeriph_Driver/src/stm32f4xx_flash.c ****   *         FLASH_Sector_0 and FLASH_Sector_15.
 460:/home/rdu/Workspace/project_templates/mcu/stm32_ws/src/libraries/STM32F4xx_StdPeriph_Driver/src/stm32f4xx_flash.c ****   *
 461:/home/rdu/Workspace/project_templates/mcu/stm32_ws/src/libraries/STM32F4xx_StdPeriph_Driver/src/stm32f4xx_flash.c ****   * @param  VoltageRange: The device voltage range which defines the erase parallelism.  
 462:/home/rdu/Workspace/project_templates/mcu/stm32_ws/src/libraries/STM32F4xx_StdPeriph_Driver/src/stm32f4xx_flash.c ****   *          This parameter can be one of the following values:
 463:/home/rdu/Workspace/project_templates/mcu/stm32_ws/src/libraries/STM32F4xx_StdPeriph_Driver/src/stm32f4xx_flash.c ****   *            @arg VoltageRange_1: when the device voltage range is 1.8V to 2.1V, 
 464:/home/rdu/Workspace/project_templates/mcu/stm32_ws/src/libraries/STM32F4xx_StdPeriph_Driver/src/stm32f4xx_flash.c ****   *                                  the operation will be done by byte (8-bit) 
 465:/home/rdu/Workspace/project_templates/mcu/stm32_ws/src/libraries/STM32F4xx_StdPeriph_Driver/src/stm32f4xx_flash.c ****   *            @arg VoltageRange_2: when the device voltage range is 2.1V to 2.7V,
 466:/home/rdu/Workspace/project_templates/mcu/stm32_ws/src/libraries/STM32F4xx_StdPeriph_Driver/src/stm32f4xx_flash.c ****   *                                  the operation will be done by half word (16-bit)
 467:/home/rdu/Workspace/project_templates/mcu/stm32_ws/src/libraries/STM32F4xx_StdPeriph_Driver/src/stm32f4xx_flash.c ****   *            @arg VoltageRange_3: when the device voltage range is 2.7V to 3.6V,
 468:/home/rdu/Workspace/project_templates/mcu/stm32_ws/src/libraries/STM32F4xx_StdPeriph_Driver/src/stm32f4xx_flash.c ****   *                                  the operation will be done by word (32-bit)
 469:/home/rdu/Workspace/project_templates/mcu/stm32_ws/src/libraries/STM32F4xx_StdPeriph_Driver/src/stm32f4xx_flash.c ****   *            @arg VoltageRange_4: when the device voltage range is 2.7V to 3.6V + External Vpp, 
 470:/home/rdu/Workspace/project_templates/mcu/stm32_ws/src/libraries/STM32F4xx_StdPeriph_Driver/src/stm32f4xx_flash.c ****   *                                  the operation will be done by double word (64-bit)
 471:/home/rdu/Workspace/project_templates/mcu/stm32_ws/src/libraries/STM32F4xx_StdPeriph_Driver/src/stm32f4xx_flash.c ****   *       
 472:/home/rdu/Workspace/project_templates/mcu/stm32_ws/src/libraries/STM32F4xx_StdPeriph_Driver/src/stm32f4xx_flash.c ****   * @retval FLASH Status: The returned value can be: FLASH_BUSY, FLASH_ERROR_PROGRAM,
 473:/home/rdu/Workspace/project_templates/mcu/stm32_ws/src/libraries/STM32F4xx_StdPeriph_Driver/src/stm32f4xx_flash.c ****   *                       FLASH_ERROR_WRP, FLASH_ERROR_OPERATION or FLASH_COMPLETE.
 474:/home/rdu/Workspace/project_templates/mcu/stm32_ws/src/libraries/STM32F4xx_StdPeriph_Driver/src/stm32f4xx_flash.c ****   */
 475:/home/rdu/Workspace/project_templates/mcu/stm32_ws/src/libraries/STM32F4xx_StdPeriph_Driver/src/stm32f4xx_flash.c **** FLASH_Status FLASH_EraseSector(uint32_t FLASH_Sector, uint8_t VoltageRange)
 476:/home/rdu/Workspace/project_templates/mcu/stm32_ws/src/libraries/STM32F4xx_StdPeriph_Driver/src/stm32f4xx_flash.c **** {
 360              		.loc 1 476 0
 361              		.cfi_startproc
 362              		@ args = 0, pretend = 0, frame = 16
 363              		@ frame_needed = 0, uses_anonymous_args = 0
 364 0000 00B5     		push	{lr}
 365              	.LCFI8:
 366              		.cfi_def_cfa_offset 4
 367              		.cfi_offset 14, -4
 368 0002 85B0     		sub	sp, sp, #20
 369              	.LCFI9:
 370              		.cfi_def_cfa_offset 24
 371 0004 0190     		str	r0, [sp, #4]
 372 0006 0B46     		mov	r3, r1
 373 0008 8DF80330 		strb	r3, [sp, #3]
 477:/home/rdu/Workspace/project_templates/mcu/stm32_ws/src/libraries/STM32F4xx_StdPeriph_Driver/src/stm32f4xx_flash.c ****   uint32_t tmp_psize = 0x0;
 374              		.loc 1 477 0
 375 000c 0023     		movs	r3, #0
 376 000e 0393     		str	r3, [sp, #12]
 478:/home/rdu/Workspace/project_templates/mcu/stm32_ws/src/libraries/STM32F4xx_StdPeriph_Driver/src/stm32f4xx_flash.c ****   FLASH_Status status = FLASH_COMPLETE;
 377              		.loc 1 478 0
 378 0010 0923     		movs	r3, #9
 379 0012 8DF80B30 		strb	r3, [sp, #11]
 479:/home/rdu/Workspace/project_templates/mcu/stm32_ws/src/libraries/STM32F4xx_StdPeriph_Driver/src/stm32f4xx_flash.c **** 
 480:/home/rdu/Workspace/project_templates/mcu/stm32_ws/src/libraries/STM32F4xx_StdPeriph_Driver/src/stm32f4xx_flash.c ****   /* Check the parameters */
 481:/home/rdu/Workspace/project_templates/mcu/stm32_ws/src/libraries/STM32F4xx_StdPeriph_Driver/src/stm32f4xx_flash.c ****   assert_param(IS_FLASH_SECTOR(FLASH_Sector));
 482:/home/rdu/Workspace/project_templates/mcu/stm32_ws/src/libraries/STM32F4xx_StdPeriph_Driver/src/stm32f4xx_flash.c ****   assert_param(IS_VOLTAGERANGE(VoltageRange));
 483:/home/rdu/Workspace/project_templates/mcu/stm32_ws/src/libraries/STM32F4xx_StdPeriph_Driver/src/stm32f4xx_flash.c ****   
 484:/home/rdu/Workspace/project_templates/mcu/stm32_ws/src/libraries/STM32F4xx_StdPeriph_Driver/src/stm32f4xx_flash.c ****   if(VoltageRange == VoltageRange_1)
 380              		.loc 1 484 0
 381 0016 9DF80330 		ldrb	r3, [sp, #3]	@ zero_extendqisi2
 382 001a 002B     		cmp	r3, #0
 383 001c 02D1     		bne	.L37
 485:/home/rdu/Workspace/project_templates/mcu/stm32_ws/src/libraries/STM32F4xx_StdPeriph_Driver/src/stm32f4xx_flash.c ****   {
 486:/home/rdu/Workspace/project_templates/mcu/stm32_ws/src/libraries/STM32F4xx_StdPeriph_Driver/src/stm32f4xx_flash.c ****      tmp_psize = FLASH_PSIZE_BYTE;
 384              		.loc 1 486 0
 385 001e 0023     		movs	r3, #0
 386 0020 0393     		str	r3, [sp, #12]
 387 0022 12E0     		b	.L38
 388              	.L37:
 487:/home/rdu/Workspace/project_templates/mcu/stm32_ws/src/libraries/STM32F4xx_StdPeriph_Driver/src/stm32f4xx_flash.c ****   }
 488:/home/rdu/Workspace/project_templates/mcu/stm32_ws/src/libraries/STM32F4xx_StdPeriph_Driver/src/stm32f4xx_flash.c ****   else if(VoltageRange == VoltageRange_2)
 389              		.loc 1 488 0
 390 0024 9DF80330 		ldrb	r3, [sp, #3]	@ zero_extendqisi2
 391 0028 012B     		cmp	r3, #1
 392 002a 03D1     		bne	.L39
 489:/home/rdu/Workspace/project_templates/mcu/stm32_ws/src/libraries/STM32F4xx_StdPeriph_Driver/src/stm32f4xx_flash.c ****   {
 490:/home/rdu/Workspace/project_templates/mcu/stm32_ws/src/libraries/STM32F4xx_StdPeriph_Driver/src/stm32f4xx_flash.c ****     tmp_psize = FLASH_PSIZE_HALF_WORD;
 393              		.loc 1 490 0
 394 002c 4FF48073 		mov	r3, #256
 395 0030 0393     		str	r3, [sp, #12]
 396 0032 0AE0     		b	.L38
 397              	.L39:
 491:/home/rdu/Workspace/project_templates/mcu/stm32_ws/src/libraries/STM32F4xx_StdPeriph_Driver/src/stm32f4xx_flash.c ****   }
 492:/home/rdu/Workspace/project_templates/mcu/stm32_ws/src/libraries/STM32F4xx_StdPeriph_Driver/src/stm32f4xx_flash.c ****   else if(VoltageRange == VoltageRange_3)
 398              		.loc 1 492 0
 399 0034 9DF80330 		ldrb	r3, [sp, #3]	@ zero_extendqisi2
 400 0038 022B     		cmp	r3, #2
 401 003a 03D1     		bne	.L40
 493:/home/rdu/Workspace/project_templates/mcu/stm32_ws/src/libraries/STM32F4xx_StdPeriph_Driver/src/stm32f4xx_flash.c ****   {
 494:/home/rdu/Workspace/project_templates/mcu/stm32_ws/src/libraries/STM32F4xx_StdPeriph_Driver/src/stm32f4xx_flash.c ****     tmp_psize = FLASH_PSIZE_WORD;
 402              		.loc 1 494 0
 403 003c 4FF40073 		mov	r3, #512
 404 0040 0393     		str	r3, [sp, #12]
 405 0042 02E0     		b	.L38
 406              	.L40:
 495:/home/rdu/Workspace/project_templates/mcu/stm32_ws/src/libraries/STM32F4xx_StdPeriph_Driver/src/stm32f4xx_flash.c ****   }
 496:/home/rdu/Workspace/project_templates/mcu/stm32_ws/src/libraries/STM32F4xx_StdPeriph_Driver/src/stm32f4xx_flash.c ****   else
 497:/home/rdu/Workspace/project_templates/mcu/stm32_ws/src/libraries/STM32F4xx_StdPeriph_Driver/src/stm32f4xx_flash.c ****   {
 498:/home/rdu/Workspace/project_templates/mcu/stm32_ws/src/libraries/STM32F4xx_StdPeriph_Driver/src/stm32f4xx_flash.c ****     tmp_psize = FLASH_PSIZE_DOUBLE_WORD;
 407              		.loc 1 498 0
 408 0044 4FF44073 		mov	r3, #768
 409 0048 0393     		str	r3, [sp, #12]
 410              	.L38:
 499:/home/rdu/Workspace/project_templates/mcu/stm32_ws/src/libraries/STM32F4xx_StdPeriph_Driver/src/stm32f4xx_flash.c ****   }
 500:/home/rdu/Workspace/project_templates/mcu/stm32_ws/src/libraries/STM32F4xx_StdPeriph_Driver/src/stm32f4xx_flash.c ****   /* Wait for last operation to be completed */
 501:/home/rdu/Workspace/project_templates/mcu/stm32_ws/src/libraries/STM32F4xx_StdPeriph_Driver/src/stm32f4xx_flash.c ****   status = FLASH_WaitForLastOperation();
 411              		.loc 1 501 0
 412 004a FFF7FEFF 		bl	FLASH_WaitForLastOperation
 413 004e 0346     		mov	r3, r0
 414 0050 8DF80B30 		strb	r3, [sp, #11]
 502:/home/rdu/Workspace/project_templates/mcu/stm32_ws/src/libraries/STM32F4xx_StdPeriph_Driver/src/stm32f4xx_flash.c ****   
 503:/home/rdu/Workspace/project_templates/mcu/stm32_ws/src/libraries/STM32F4xx_StdPeriph_Driver/src/stm32f4xx_flash.c ****   if(status == FLASH_COMPLETE)
 415              		.loc 1 503 0
 416 0054 9DF80B30 		ldrb	r3, [sp, #11]	@ zero_extendqisi2
 417 0058 092B     		cmp	r3, #9
 418 005a 30D1     		bne	.L41
 504:/home/rdu/Workspace/project_templates/mcu/stm32_ws/src/libraries/STM32F4xx_StdPeriph_Driver/src/stm32f4xx_flash.c ****   { 
 505:/home/rdu/Workspace/project_templates/mcu/stm32_ws/src/libraries/STM32F4xx_StdPeriph_Driver/src/stm32f4xx_flash.c ****     /* if the previous operation is completed, proceed to erase the sector */
 506:/home/rdu/Workspace/project_templates/mcu/stm32_ws/src/libraries/STM32F4xx_StdPeriph_Driver/src/stm32f4xx_flash.c ****     FLASH->CR &= CR_PSIZE_MASK;
 419              		.loc 1 506 0
 420 005c 1B4B     		ldr	r3, .L43
 421 005e 1B69     		ldr	r3, [r3, #16]
 422 0060 1A4A     		ldr	r2, .L43
 423 0062 23F44073 		bic	r3, r3, #768
 424 0066 1361     		str	r3, [r2, #16]
 507:/home/rdu/Workspace/project_templates/mcu/stm32_ws/src/libraries/STM32F4xx_StdPeriph_Driver/src/stm32f4xx_flash.c ****     FLASH->CR |= tmp_psize;
 425              		.loc 1 507 0
 426 0068 184B     		ldr	r3, .L43
 427 006a 1A69     		ldr	r2, [r3, #16]
 428 006c 1749     		ldr	r1, .L43
 429 006e 039B     		ldr	r3, [sp, #12]
 430 0070 1343     		orrs	r3, r3, r2
 431 0072 0B61     		str	r3, [r1, #16]
 508:/home/rdu/Workspace/project_templates/mcu/stm32_ws/src/libraries/STM32F4xx_StdPeriph_Driver/src/stm32f4xx_flash.c ****     FLASH->CR &= SECTOR_MASK;
 432              		.loc 1 508 0
 433 0074 154B     		ldr	r3, .L43
 434 0076 1B69     		ldr	r3, [r3, #16]
 435 0078 144A     		ldr	r2, .L43
 436 007a 23F0F803 		bic	r3, r3, #248
 437 007e 1361     		str	r3, [r2, #16]
 509:/home/rdu/Workspace/project_templates/mcu/stm32_ws/src/libraries/STM32F4xx_StdPeriph_Driver/src/stm32f4xx_flash.c ****     FLASH->CR |= FLASH_CR_SER | FLASH_Sector;
 438              		.loc 1 509 0
 439 0080 124B     		ldr	r3, .L43
 440 0082 1A69     		ldr	r2, [r3, #16]
 441 0084 019B     		ldr	r3, [sp, #4]
 442 0086 1343     		orrs	r3, r3, r2
 443 0088 104A     		ldr	r2, .L43
 444 008a 43F00203 		orr	r3, r3, #2
 445 008e 1361     		str	r3, [r2, #16]
 510:/home/rdu/Workspace/project_templates/mcu/stm32_ws/src/libraries/STM32F4xx_StdPeriph_Driver/src/stm32f4xx_flash.c ****     FLASH->CR |= FLASH_CR_STRT;
 446              		.loc 1 510 0
 447 0090 0E4B     		ldr	r3, .L43
 448 0092 1B69     		ldr	r3, [r3, #16]
 449 0094 0D4A     		ldr	r2, .L43
 450 0096 43F48033 		orr	r3, r3, #65536
 451 009a 1361     		str	r3, [r2, #16]
 511:/home/rdu/Workspace/project_templates/mcu/stm32_ws/src/libraries/STM32F4xx_StdPeriph_Driver/src/stm32f4xx_flash.c ****     
 512:/home/rdu/Workspace/project_templates/mcu/stm32_ws/src/libraries/STM32F4xx_StdPeriph_Driver/src/stm32f4xx_flash.c ****     /* Wait for last operation to be completed */
 513:/home/rdu/Workspace/project_templates/mcu/stm32_ws/src/libraries/STM32F4xx_StdPeriph_Driver/src/stm32f4xx_flash.c ****     status = FLASH_WaitForLastOperation();
 452              		.loc 1 513 0
 453 009c FFF7FEFF 		bl	FLASH_WaitForLastOperation
 454 00a0 0346     		mov	r3, r0
 455 00a2 8DF80B30 		strb	r3, [sp, #11]
 514:/home/rdu/Workspace/project_templates/mcu/stm32_ws/src/libraries/STM32F4xx_StdPeriph_Driver/src/stm32f4xx_flash.c ****     
 515:/home/rdu/Workspace/project_templates/mcu/stm32_ws/src/libraries/STM32F4xx_StdPeriph_Driver/src/stm32f4xx_flash.c ****     /* if the erase operation is completed, disable the SER Bit */
 516:/home/rdu/Workspace/project_templates/mcu/stm32_ws/src/libraries/STM32F4xx_StdPeriph_Driver/src/stm32f4xx_flash.c ****     FLASH->CR &= (~FLASH_CR_SER);
 456              		.loc 1 516 0
 457 00a6 094B     		ldr	r3, .L43
 458 00a8 1B69     		ldr	r3, [r3, #16]
 459 00aa 084A     		ldr	r2, .L43
 460 00ac 23F00203 		bic	r3, r3, #2
 461 00b0 1361     		str	r3, [r2, #16]
 517:/home/rdu/Workspace/project_templates/mcu/stm32_ws/src/libraries/STM32F4xx_StdPeriph_Driver/src/stm32f4xx_flash.c ****     FLASH->CR &= SECTOR_MASK; 
 462              		.loc 1 517 0
 463 00b2 064B     		ldr	r3, .L43
 464 00b4 1B69     		ldr	r3, [r3, #16]
 465 00b6 054A     		ldr	r2, .L43
 466 00b8 23F0F803 		bic	r3, r3, #248
 467 00bc 1361     		str	r3, [r2, #16]
 468              	.L41:
 518:/home/rdu/Workspace/project_templates/mcu/stm32_ws/src/libraries/STM32F4xx_StdPeriph_Driver/src/stm32f4xx_flash.c ****   }
 519:/home/rdu/Workspace/project_templates/mcu/stm32_ws/src/libraries/STM32F4xx_StdPeriph_Driver/src/stm32f4xx_flash.c ****   /* Return the Erase Status */
 520:/home/rdu/Workspace/project_templates/mcu/stm32_ws/src/libraries/STM32F4xx_StdPeriph_Driver/src/stm32f4xx_flash.c ****   return status;
 469              		.loc 1 520 0
 470 00be 9DF80B30 		ldrb	r3, [sp, #11]	@ zero_extendqisi2
 521:/home/rdu/Workspace/project_templates/mcu/stm32_ws/src/libraries/STM32F4xx_StdPeriph_Driver/src/stm32f4xx_flash.c **** }
 471              		.loc 1 521 0
 472 00c2 1846     		mov	r0, r3
 473 00c4 05B0     		add	sp, sp, #20
 474              	.LCFI10:
 475              		.cfi_def_cfa_offset 4
 476              		@ sp needed
 477 00c6 5DF804FB 		ldr	pc, [sp], #4
 478              	.L44:
 479 00ca 00BF     		.align	2
 480              	.L43:
 481 00cc 003C0240 		.word	1073888256
 482              		.cfi_endproc
 483              	.LFE131:
 485              		.section	.text.FLASH_EraseAllSectors,"ax",%progbits
 486              		.align	1
 487              		.global	FLASH_EraseAllSectors
 488              		.syntax unified
 489              		.thumb
 490              		.thumb_func
 491              		.fpu fpv4-sp-d16
 493              	FLASH_EraseAllSectors:
 494              	.LFB132:
 522:/home/rdu/Workspace/project_templates/mcu/stm32_ws/src/libraries/STM32F4xx_StdPeriph_Driver/src/stm32f4xx_flash.c **** 
 523:/home/rdu/Workspace/project_templates/mcu/stm32_ws/src/libraries/STM32F4xx_StdPeriph_Driver/src/stm32f4xx_flash.c **** /**
 524:/home/rdu/Workspace/project_templates/mcu/stm32_ws/src/libraries/STM32F4xx_StdPeriph_Driver/src/stm32f4xx_flash.c ****   * @brief  Erases all FLASH Sectors.
 525:/home/rdu/Workspace/project_templates/mcu/stm32_ws/src/libraries/STM32F4xx_StdPeriph_Driver/src/stm32f4xx_flash.c ****   *
 526:/home/rdu/Workspace/project_templates/mcu/stm32_ws/src/libraries/STM32F4xx_StdPeriph_Driver/src/stm32f4xx_flash.c ****   * @note   If an erase and a program operations are requested simultaneously,    
 527:/home/rdu/Workspace/project_templates/mcu/stm32_ws/src/libraries/STM32F4xx_StdPeriph_Driver/src/stm32f4xx_flash.c ****   *         the erase operation is performed before the program one.
 528:/home/rdu/Workspace/project_templates/mcu/stm32_ws/src/libraries/STM32F4xx_StdPeriph_Driver/src/stm32f4xx_flash.c ****   *  
 529:/home/rdu/Workspace/project_templates/mcu/stm32_ws/src/libraries/STM32F4xx_StdPeriph_Driver/src/stm32f4xx_flash.c ****   * @param  VoltageRange: The device voltage range which defines the erase parallelism.  
 530:/home/rdu/Workspace/project_templates/mcu/stm32_ws/src/libraries/STM32F4xx_StdPeriph_Driver/src/stm32f4xx_flash.c ****   *          This parameter can be one of the following values:
 531:/home/rdu/Workspace/project_templates/mcu/stm32_ws/src/libraries/STM32F4xx_StdPeriph_Driver/src/stm32f4xx_flash.c ****   *            @arg VoltageRange_1: when the device voltage range is 1.8V to 2.1V, 
 532:/home/rdu/Workspace/project_templates/mcu/stm32_ws/src/libraries/STM32F4xx_StdPeriph_Driver/src/stm32f4xx_flash.c ****   *                                  the operation will be done by byte (8-bit) 
 533:/home/rdu/Workspace/project_templates/mcu/stm32_ws/src/libraries/STM32F4xx_StdPeriph_Driver/src/stm32f4xx_flash.c ****   *            @arg VoltageRange_2: when the device voltage range is 2.1V to 2.7V,
 534:/home/rdu/Workspace/project_templates/mcu/stm32_ws/src/libraries/STM32F4xx_StdPeriph_Driver/src/stm32f4xx_flash.c ****   *                                  the operation will be done by half word (16-bit)
 535:/home/rdu/Workspace/project_templates/mcu/stm32_ws/src/libraries/STM32F4xx_StdPeriph_Driver/src/stm32f4xx_flash.c ****   *            @arg VoltageRange_3: when the device voltage range is 2.7V to 3.6V,
 536:/home/rdu/Workspace/project_templates/mcu/stm32_ws/src/libraries/STM32F4xx_StdPeriph_Driver/src/stm32f4xx_flash.c ****   *                                  the operation will be done by word (32-bit)
 537:/home/rdu/Workspace/project_templates/mcu/stm32_ws/src/libraries/STM32F4xx_StdPeriph_Driver/src/stm32f4xx_flash.c ****   *            @arg VoltageRange_4: when the device voltage range is 2.7V to 3.6V + External Vpp, 
 538:/home/rdu/Workspace/project_templates/mcu/stm32_ws/src/libraries/STM32F4xx_StdPeriph_Driver/src/stm32f4xx_flash.c ****   *                                  the operation will be done by double word (64-bit)
 539:/home/rdu/Workspace/project_templates/mcu/stm32_ws/src/libraries/STM32F4xx_StdPeriph_Driver/src/stm32f4xx_flash.c ****   *       
 540:/home/rdu/Workspace/project_templates/mcu/stm32_ws/src/libraries/STM32F4xx_StdPeriph_Driver/src/stm32f4xx_flash.c ****   * @retval FLASH Status: The returned value can be: FLASH_BUSY, FLASH_ERROR_PROGRAM,
 541:/home/rdu/Workspace/project_templates/mcu/stm32_ws/src/libraries/STM32F4xx_StdPeriph_Driver/src/stm32f4xx_flash.c ****   *                       FLASH_ERROR_WRP, FLASH_ERROR_OPERATION or FLASH_COMPLETE.
 542:/home/rdu/Workspace/project_templates/mcu/stm32_ws/src/libraries/STM32F4xx_StdPeriph_Driver/src/stm32f4xx_flash.c ****   */
 543:/home/rdu/Workspace/project_templates/mcu/stm32_ws/src/libraries/STM32F4xx_StdPeriph_Driver/src/stm32f4xx_flash.c **** FLASH_Status FLASH_EraseAllSectors(uint8_t VoltageRange)
 544:/home/rdu/Workspace/project_templates/mcu/stm32_ws/src/libraries/STM32F4xx_StdPeriph_Driver/src/stm32f4xx_flash.c **** {
 495              		.loc 1 544 0
 496              		.cfi_startproc
 497              		@ args = 0, pretend = 0, frame = 16
 498              		@ frame_needed = 0, uses_anonymous_args = 0
 499 0000 00B5     		push	{lr}
 500              	.LCFI11:
 501              		.cfi_def_cfa_offset 4
 502              		.cfi_offset 14, -4
 503 0002 85B0     		sub	sp, sp, #20
 504              	.LCFI12:
 505              		.cfi_def_cfa_offset 24
 506 0004 0346     		mov	r3, r0
 507 0006 8DF80730 		strb	r3, [sp, #7]
 545:/home/rdu/Workspace/project_templates/mcu/stm32_ws/src/libraries/STM32F4xx_StdPeriph_Driver/src/stm32f4xx_flash.c ****   uint32_t tmp_psize = 0x0;
 508              		.loc 1 545 0
 509 000a 0023     		movs	r3, #0
 510 000c 0393     		str	r3, [sp, #12]
 546:/home/rdu/Workspace/project_templates/mcu/stm32_ws/src/libraries/STM32F4xx_StdPeriph_Driver/src/stm32f4xx_flash.c ****   FLASH_Status status = FLASH_COMPLETE;
 511              		.loc 1 546 0
 512 000e 0923     		movs	r3, #9
 513 0010 8DF80B30 		strb	r3, [sp, #11]
 547:/home/rdu/Workspace/project_templates/mcu/stm32_ws/src/libraries/STM32F4xx_StdPeriph_Driver/src/stm32f4xx_flash.c ****   
 548:/home/rdu/Workspace/project_templates/mcu/stm32_ws/src/libraries/STM32F4xx_StdPeriph_Driver/src/stm32f4xx_flash.c ****   /* Wait for last operation to be completed */
 549:/home/rdu/Workspace/project_templates/mcu/stm32_ws/src/libraries/STM32F4xx_StdPeriph_Driver/src/stm32f4xx_flash.c ****   status = FLASH_WaitForLastOperation();
 514              		.loc 1 549 0
 515 0014 FFF7FEFF 		bl	FLASH_WaitForLastOperation
 516 0018 0346     		mov	r3, r0
 517 001a 8DF80B30 		strb	r3, [sp, #11]
 550:/home/rdu/Workspace/project_templates/mcu/stm32_ws/src/libraries/STM32F4xx_StdPeriph_Driver/src/stm32f4xx_flash.c ****   assert_param(IS_VOLTAGERANGE(VoltageRange));
 551:/home/rdu/Workspace/project_templates/mcu/stm32_ws/src/libraries/STM32F4xx_StdPeriph_Driver/src/stm32f4xx_flash.c ****   
 552:/home/rdu/Workspace/project_templates/mcu/stm32_ws/src/libraries/STM32F4xx_StdPeriph_Driver/src/stm32f4xx_flash.c ****   if(VoltageRange == VoltageRange_1)
 518              		.loc 1 552 0
 519 001e 9DF80730 		ldrb	r3, [sp, #7]	@ zero_extendqisi2
 520 0022 002B     		cmp	r3, #0
 521 0024 02D1     		bne	.L46
 553:/home/rdu/Workspace/project_templates/mcu/stm32_ws/src/libraries/STM32F4xx_StdPeriph_Driver/src/stm32f4xx_flash.c ****   {
 554:/home/rdu/Workspace/project_templates/mcu/stm32_ws/src/libraries/STM32F4xx_StdPeriph_Driver/src/stm32f4xx_flash.c ****      tmp_psize = FLASH_PSIZE_BYTE;
 522              		.loc 1 554 0
 523 0026 0023     		movs	r3, #0
 524 0028 0393     		str	r3, [sp, #12]
 525 002a 12E0     		b	.L47
 526              	.L46:
 555:/home/rdu/Workspace/project_templates/mcu/stm32_ws/src/libraries/STM32F4xx_StdPeriph_Driver/src/stm32f4xx_flash.c ****   }
 556:/home/rdu/Workspace/project_templates/mcu/stm32_ws/src/libraries/STM32F4xx_StdPeriph_Driver/src/stm32f4xx_flash.c ****   else if(VoltageRange == VoltageRange_2)
 527              		.loc 1 556 0
 528 002c 9DF80730 		ldrb	r3, [sp, #7]	@ zero_extendqisi2
 529 0030 012B     		cmp	r3, #1
 530 0032 03D1     		bne	.L48
 557:/home/rdu/Workspace/project_templates/mcu/stm32_ws/src/libraries/STM32F4xx_StdPeriph_Driver/src/stm32f4xx_flash.c ****   {
 558:/home/rdu/Workspace/project_templates/mcu/stm32_ws/src/libraries/STM32F4xx_StdPeriph_Driver/src/stm32f4xx_flash.c ****     tmp_psize = FLASH_PSIZE_HALF_WORD;
 531              		.loc 1 558 0
 532 0034 4FF48073 		mov	r3, #256
 533 0038 0393     		str	r3, [sp, #12]
 534 003a 0AE0     		b	.L47
 535              	.L48:
 559:/home/rdu/Workspace/project_templates/mcu/stm32_ws/src/libraries/STM32F4xx_StdPeriph_Driver/src/stm32f4xx_flash.c ****   }
 560:/home/rdu/Workspace/project_templates/mcu/stm32_ws/src/libraries/STM32F4xx_StdPeriph_Driver/src/stm32f4xx_flash.c ****   else if(VoltageRange == VoltageRange_3)
 536              		.loc 1 560 0
 537 003c 9DF80730 		ldrb	r3, [sp, #7]	@ zero_extendqisi2
 538 0040 022B     		cmp	r3, #2
 539 0042 03D1     		bne	.L49
 561:/home/rdu/Workspace/project_templates/mcu/stm32_ws/src/libraries/STM32F4xx_StdPeriph_Driver/src/stm32f4xx_flash.c ****   {
 562:/home/rdu/Workspace/project_templates/mcu/stm32_ws/src/libraries/STM32F4xx_StdPeriph_Driver/src/stm32f4xx_flash.c ****     tmp_psize = FLASH_PSIZE_WORD;
 540              		.loc 1 562 0
 541 0044 4FF40073 		mov	r3, #512
 542 0048 0393     		str	r3, [sp, #12]
 543 004a 02E0     		b	.L47
 544              	.L49:
 563:/home/rdu/Workspace/project_templates/mcu/stm32_ws/src/libraries/STM32F4xx_StdPeriph_Driver/src/stm32f4xx_flash.c ****   }
 564:/home/rdu/Workspace/project_templates/mcu/stm32_ws/src/libraries/STM32F4xx_StdPeriph_Driver/src/stm32f4xx_flash.c ****   else
 565:/home/rdu/Workspace/project_templates/mcu/stm32_ws/src/libraries/STM32F4xx_StdPeriph_Driver/src/stm32f4xx_flash.c ****   {
 566:/home/rdu/Workspace/project_templates/mcu/stm32_ws/src/libraries/STM32F4xx_StdPeriph_Driver/src/stm32f4xx_flash.c ****     tmp_psize = FLASH_PSIZE_DOUBLE_WORD;
 545              		.loc 1 566 0
 546 004c 4FF44073 		mov	r3, #768
 547 0050 0393     		str	r3, [sp, #12]
 548              	.L47:
 567:/home/rdu/Workspace/project_templates/mcu/stm32_ws/src/libraries/STM32F4xx_StdPeriph_Driver/src/stm32f4xx_flash.c ****   }  
 568:/home/rdu/Workspace/project_templates/mcu/stm32_ws/src/libraries/STM32F4xx_StdPeriph_Driver/src/stm32f4xx_flash.c ****   if(status == FLASH_COMPLETE)
 549              		.loc 1 568 0
 550 0052 9DF80B30 		ldrb	r3, [sp, #11]	@ zero_extendqisi2
 551 0056 092B     		cmp	r3, #9
 552 0058 22D1     		bne	.L50
 569:/home/rdu/Workspace/project_templates/mcu/stm32_ws/src/libraries/STM32F4xx_StdPeriph_Driver/src/stm32f4xx_flash.c ****   {
 570:/home/rdu/Workspace/project_templates/mcu/stm32_ws/src/libraries/STM32F4xx_StdPeriph_Driver/src/stm32f4xx_flash.c ****     /* if the previous operation is completed, proceed to erase all sectors */
 571:/home/rdu/Workspace/project_templates/mcu/stm32_ws/src/libraries/STM32F4xx_StdPeriph_Driver/src/stm32f4xx_flash.c **** #if defined(STM32F427_437xx) || defined(STM32F429_439xx) || defined(STM32F469_479xx)
 572:/home/rdu/Workspace/project_templates/mcu/stm32_ws/src/libraries/STM32F4xx_StdPeriph_Driver/src/stm32f4xx_flash.c ****     FLASH->CR &= CR_PSIZE_MASK;
 573:/home/rdu/Workspace/project_templates/mcu/stm32_ws/src/libraries/STM32F4xx_StdPeriph_Driver/src/stm32f4xx_flash.c ****     FLASH->CR |= tmp_psize;
 574:/home/rdu/Workspace/project_templates/mcu/stm32_ws/src/libraries/STM32F4xx_StdPeriph_Driver/src/stm32f4xx_flash.c ****     FLASH->CR |= (FLASH_CR_MER1 | FLASH_CR_MER2);
 575:/home/rdu/Workspace/project_templates/mcu/stm32_ws/src/libraries/STM32F4xx_StdPeriph_Driver/src/stm32f4xx_flash.c ****     FLASH->CR |= FLASH_CR_STRT;
 576:/home/rdu/Workspace/project_templates/mcu/stm32_ws/src/libraries/STM32F4xx_StdPeriph_Driver/src/stm32f4xx_flash.c ****     
 577:/home/rdu/Workspace/project_templates/mcu/stm32_ws/src/libraries/STM32F4xx_StdPeriph_Driver/src/stm32f4xx_flash.c ****     /* Wait for last operation to be completed */
 578:/home/rdu/Workspace/project_templates/mcu/stm32_ws/src/libraries/STM32F4xx_StdPeriph_Driver/src/stm32f4xx_flash.c ****     status = FLASH_WaitForLastOperation();
 579:/home/rdu/Workspace/project_templates/mcu/stm32_ws/src/libraries/STM32F4xx_StdPeriph_Driver/src/stm32f4xx_flash.c **** 
 580:/home/rdu/Workspace/project_templates/mcu/stm32_ws/src/libraries/STM32F4xx_StdPeriph_Driver/src/stm32f4xx_flash.c ****     /* if the erase operation is completed, disable the MER Bit */
 581:/home/rdu/Workspace/project_templates/mcu/stm32_ws/src/libraries/STM32F4xx_StdPeriph_Driver/src/stm32f4xx_flash.c ****     FLASH->CR &= ~(FLASH_CR_MER1 | FLASH_CR_MER2);
 582:/home/rdu/Workspace/project_templates/mcu/stm32_ws/src/libraries/STM32F4xx_StdPeriph_Driver/src/stm32f4xx_flash.c **** #endif /* STM32F427_437xx ||  STM32F429_439xx ||  STM32F469_479xx */
 583:/home/rdu/Workspace/project_templates/mcu/stm32_ws/src/libraries/STM32F4xx_StdPeriph_Driver/src/stm32f4xx_flash.c **** 
 584:/home/rdu/Workspace/project_templates/mcu/stm32_ws/src/libraries/STM32F4xx_StdPeriph_Driver/src/stm32f4xx_flash.c **** #if defined(STM32F40_41xxx) || defined(STM32F401xx) || defined(STM32F410xx) || defined(STM32F411xE)
 585:/home/rdu/Workspace/project_templates/mcu/stm32_ws/src/libraries/STM32F4xx_StdPeriph_Driver/src/stm32f4xx_flash.c ****     FLASH->CR &= CR_PSIZE_MASK;
 553              		.loc 1 585 0
 554 005a 144B     		ldr	r3, .L52
 555 005c 1B69     		ldr	r3, [r3, #16]
 556 005e 134A     		ldr	r2, .L52
 557 0060 23F44073 		bic	r3, r3, #768
 558 0064 1361     		str	r3, [r2, #16]
 586:/home/rdu/Workspace/project_templates/mcu/stm32_ws/src/libraries/STM32F4xx_StdPeriph_Driver/src/stm32f4xx_flash.c ****     FLASH->CR |= tmp_psize;
 559              		.loc 1 586 0
 560 0066 114B     		ldr	r3, .L52
 561 0068 1A69     		ldr	r2, [r3, #16]
 562 006a 1049     		ldr	r1, .L52
 563 006c 039B     		ldr	r3, [sp, #12]
 564 006e 1343     		orrs	r3, r3, r2
 565 0070 0B61     		str	r3, [r1, #16]
 587:/home/rdu/Workspace/project_templates/mcu/stm32_ws/src/libraries/STM32F4xx_StdPeriph_Driver/src/stm32f4xx_flash.c ****     FLASH->CR |= FLASH_CR_MER;
 566              		.loc 1 587 0
 567 0072 0E4B     		ldr	r3, .L52
 568 0074 1B69     		ldr	r3, [r3, #16]
 569 0076 0D4A     		ldr	r2, .L52
 570 0078 43F00403 		orr	r3, r3, #4
 571 007c 1361     		str	r3, [r2, #16]
 588:/home/rdu/Workspace/project_templates/mcu/stm32_ws/src/libraries/STM32F4xx_StdPeriph_Driver/src/stm32f4xx_flash.c ****     FLASH->CR |= FLASH_CR_STRT;
 572              		.loc 1 588 0
 573 007e 0B4B     		ldr	r3, .L52
 574 0080 1B69     		ldr	r3, [r3, #16]
 575 0082 0A4A     		ldr	r2, .L52
 576 0084 43F48033 		orr	r3, r3, #65536
 577 0088 1361     		str	r3, [r2, #16]
 589:/home/rdu/Workspace/project_templates/mcu/stm32_ws/src/libraries/STM32F4xx_StdPeriph_Driver/src/stm32f4xx_flash.c ****     
 590:/home/rdu/Workspace/project_templates/mcu/stm32_ws/src/libraries/STM32F4xx_StdPeriph_Driver/src/stm32f4xx_flash.c ****     /* Wait for last operation to be completed */
 591:/home/rdu/Workspace/project_templates/mcu/stm32_ws/src/libraries/STM32F4xx_StdPeriph_Driver/src/stm32f4xx_flash.c ****     status = FLASH_WaitForLastOperation();
 578              		.loc 1 591 0
 579 008a FFF7FEFF 		bl	FLASH_WaitForLastOperation
 580 008e 0346     		mov	r3, r0
 581 0090 8DF80B30 		strb	r3, [sp, #11]
 592:/home/rdu/Workspace/project_templates/mcu/stm32_ws/src/libraries/STM32F4xx_StdPeriph_Driver/src/stm32f4xx_flash.c **** 
 593:/home/rdu/Workspace/project_templates/mcu/stm32_ws/src/libraries/STM32F4xx_StdPeriph_Driver/src/stm32f4xx_flash.c ****     /* if the erase operation is completed, disable the MER Bit */
 594:/home/rdu/Workspace/project_templates/mcu/stm32_ws/src/libraries/STM32F4xx_StdPeriph_Driver/src/stm32f4xx_flash.c ****     FLASH->CR &= (~FLASH_CR_MER);
 582              		.loc 1 594 0
 583 0094 054B     		ldr	r3, .L52
 584 0096 1B69     		ldr	r3, [r3, #16]
 585 0098 044A     		ldr	r2, .L52
 586 009a 23F00403 		bic	r3, r3, #4
 587 009e 1361     		str	r3, [r2, #16]
 588              	.L50:
 595:/home/rdu/Workspace/project_templates/mcu/stm32_ws/src/libraries/STM32F4xx_StdPeriph_Driver/src/stm32f4xx_flash.c **** #endif /* STM32F40_41xxx || STM32F401xx || STM32F410xx || STM32F411xE || STM32F412xG || STM32F413_4
 596:/home/rdu/Workspace/project_templates/mcu/stm32_ws/src/libraries/STM32F4xx_StdPeriph_Driver/src/stm32f4xx_flash.c **** 
 597:/home/rdu/Workspace/project_templates/mcu/stm32_ws/src/libraries/STM32F4xx_StdPeriph_Driver/src/stm32f4xx_flash.c ****   }   
 598:/home/rdu/Workspace/project_templates/mcu/stm32_ws/src/libraries/STM32F4xx_StdPeriph_Driver/src/stm32f4xx_flash.c ****   /* Return the Erase Status */
 599:/home/rdu/Workspace/project_templates/mcu/stm32_ws/src/libraries/STM32F4xx_StdPeriph_Driver/src/stm32f4xx_flash.c ****   return status;
 589              		.loc 1 599 0
 590 00a0 9DF80B30 		ldrb	r3, [sp, #11]	@ zero_extendqisi2
 600:/home/rdu/Workspace/project_templates/mcu/stm32_ws/src/libraries/STM32F4xx_StdPeriph_Driver/src/stm32f4xx_flash.c **** }
 591              		.loc 1 600 0
 592 00a4 1846     		mov	r0, r3
 593 00a6 05B0     		add	sp, sp, #20
 594              	.LCFI13:
 595              		.cfi_def_cfa_offset 4
 596              		@ sp needed
 597 00a8 5DF804FB 		ldr	pc, [sp], #4
 598              	.L53:
 599              		.align	2
 600              	.L52:
 601 00ac 003C0240 		.word	1073888256
 602              		.cfi_endproc
 603              	.LFE132:
 605              		.section	.text.FLASH_EraseAllBank1Sectors,"ax",%progbits
 606              		.align	1
 607              		.global	FLASH_EraseAllBank1Sectors
 608              		.syntax unified
 609              		.thumb
 610              		.thumb_func
 611              		.fpu fpv4-sp-d16
 613              	FLASH_EraseAllBank1Sectors:
 614              	.LFB133:
 601:/home/rdu/Workspace/project_templates/mcu/stm32_ws/src/libraries/STM32F4xx_StdPeriph_Driver/src/stm32f4xx_flash.c **** 
 602:/home/rdu/Workspace/project_templates/mcu/stm32_ws/src/libraries/STM32F4xx_StdPeriph_Driver/src/stm32f4xx_flash.c **** /**
 603:/home/rdu/Workspace/project_templates/mcu/stm32_ws/src/libraries/STM32F4xx_StdPeriph_Driver/src/stm32f4xx_flash.c ****   * @brief  Erases all FLASH Sectors in Bank 1.
 604:/home/rdu/Workspace/project_templates/mcu/stm32_ws/src/libraries/STM32F4xx_StdPeriph_Driver/src/stm32f4xx_flash.c ****   *
 605:/home/rdu/Workspace/project_templates/mcu/stm32_ws/src/libraries/STM32F4xx_StdPeriph_Driver/src/stm32f4xx_flash.c ****   * @note   This function can be used only for STM32F42xxx/43xxx devices.
 606:/home/rdu/Workspace/project_templates/mcu/stm32_ws/src/libraries/STM32F4xx_StdPeriph_Driver/src/stm32f4xx_flash.c ****   *      
 607:/home/rdu/Workspace/project_templates/mcu/stm32_ws/src/libraries/STM32F4xx_StdPeriph_Driver/src/stm32f4xx_flash.c ****   * @note   If an erase and a program operations are requested simultaneously,    
 608:/home/rdu/Workspace/project_templates/mcu/stm32_ws/src/libraries/STM32F4xx_StdPeriph_Driver/src/stm32f4xx_flash.c ****   *         the erase operation is performed before the program one. 
 609:/home/rdu/Workspace/project_templates/mcu/stm32_ws/src/libraries/STM32F4xx_StdPeriph_Driver/src/stm32f4xx_flash.c ****   *  
 610:/home/rdu/Workspace/project_templates/mcu/stm32_ws/src/libraries/STM32F4xx_StdPeriph_Driver/src/stm32f4xx_flash.c ****   * @param  VoltageRange: The device voltage range which defines the erase parallelism.  
 611:/home/rdu/Workspace/project_templates/mcu/stm32_ws/src/libraries/STM32F4xx_StdPeriph_Driver/src/stm32f4xx_flash.c ****   *          This parameter can be one of the following values:
 612:/home/rdu/Workspace/project_templates/mcu/stm32_ws/src/libraries/STM32F4xx_StdPeriph_Driver/src/stm32f4xx_flash.c ****   *            @arg VoltageRange_1: when the device voltage range is 1.8V to 2.1V, 
 613:/home/rdu/Workspace/project_templates/mcu/stm32_ws/src/libraries/STM32F4xx_StdPeriph_Driver/src/stm32f4xx_flash.c ****   *                                  the operation will be done by byte (8-bit) 
 614:/home/rdu/Workspace/project_templates/mcu/stm32_ws/src/libraries/STM32F4xx_StdPeriph_Driver/src/stm32f4xx_flash.c ****   *            @arg VoltageRange_2: when the device voltage range is 2.1V to 2.7V,
 615:/home/rdu/Workspace/project_templates/mcu/stm32_ws/src/libraries/STM32F4xx_StdPeriph_Driver/src/stm32f4xx_flash.c ****   *                                  the operation will be done by half word (16-bit)
 616:/home/rdu/Workspace/project_templates/mcu/stm32_ws/src/libraries/STM32F4xx_StdPeriph_Driver/src/stm32f4xx_flash.c ****   *            @arg VoltageRange_3: when the device voltage range is 2.7V to 3.6V,
 617:/home/rdu/Workspace/project_templates/mcu/stm32_ws/src/libraries/STM32F4xx_StdPeriph_Driver/src/stm32f4xx_flash.c ****   *                                  the operation will be done by word (32-bit)
 618:/home/rdu/Workspace/project_templates/mcu/stm32_ws/src/libraries/STM32F4xx_StdPeriph_Driver/src/stm32f4xx_flash.c ****   *            @arg VoltageRange_4: when the device voltage range is 2.7V to 3.6V + External Vpp, 
 619:/home/rdu/Workspace/project_templates/mcu/stm32_ws/src/libraries/STM32F4xx_StdPeriph_Driver/src/stm32f4xx_flash.c ****   *                                  the operation will be done by double word (64-bit)
 620:/home/rdu/Workspace/project_templates/mcu/stm32_ws/src/libraries/STM32F4xx_StdPeriph_Driver/src/stm32f4xx_flash.c ****   *       
 621:/home/rdu/Workspace/project_templates/mcu/stm32_ws/src/libraries/STM32F4xx_StdPeriph_Driver/src/stm32f4xx_flash.c ****   * @retval FLASH Status: The returned value can be: FLASH_BUSY, FLASH_ERROR_PROGRAM,
 622:/home/rdu/Workspace/project_templates/mcu/stm32_ws/src/libraries/STM32F4xx_StdPeriph_Driver/src/stm32f4xx_flash.c ****   *                       FLASH_ERROR_WRP, FLASH_ERROR_OPERATION or FLASH_COMPLETE.
 623:/home/rdu/Workspace/project_templates/mcu/stm32_ws/src/libraries/STM32F4xx_StdPeriph_Driver/src/stm32f4xx_flash.c ****   */
 624:/home/rdu/Workspace/project_templates/mcu/stm32_ws/src/libraries/STM32F4xx_StdPeriph_Driver/src/stm32f4xx_flash.c **** FLASH_Status FLASH_EraseAllBank1Sectors(uint8_t VoltageRange)
 625:/home/rdu/Workspace/project_templates/mcu/stm32_ws/src/libraries/STM32F4xx_StdPeriph_Driver/src/stm32f4xx_flash.c **** {
 615              		.loc 1 625 0
 616              		.cfi_startproc
 617              		@ args = 0, pretend = 0, frame = 16
 618              		@ frame_needed = 0, uses_anonymous_args = 0
 619 0000 00B5     		push	{lr}
 620              	.LCFI14:
 621              		.cfi_def_cfa_offset 4
 622              		.cfi_offset 14, -4
 623 0002 85B0     		sub	sp, sp, #20
 624              	.LCFI15:
 625              		.cfi_def_cfa_offset 24
 626 0004 0346     		mov	r3, r0
 627 0006 8DF80730 		strb	r3, [sp, #7]
 626:/home/rdu/Workspace/project_templates/mcu/stm32_ws/src/libraries/STM32F4xx_StdPeriph_Driver/src/stm32f4xx_flash.c ****   uint32_t tmp_psize = 0x0;
 628              		.loc 1 626 0
 629 000a 0023     		movs	r3, #0
 630 000c 0393     		str	r3, [sp, #12]
 627:/home/rdu/Workspace/project_templates/mcu/stm32_ws/src/libraries/STM32F4xx_StdPeriph_Driver/src/stm32f4xx_flash.c ****   FLASH_Status status = FLASH_COMPLETE;
 631              		.loc 1 627 0
 632 000e 0923     		movs	r3, #9
 633 0010 8DF80B30 		strb	r3, [sp, #11]
 628:/home/rdu/Workspace/project_templates/mcu/stm32_ws/src/libraries/STM32F4xx_StdPeriph_Driver/src/stm32f4xx_flash.c ****   
 629:/home/rdu/Workspace/project_templates/mcu/stm32_ws/src/libraries/STM32F4xx_StdPeriph_Driver/src/stm32f4xx_flash.c ****   /* Wait for last operation to be completed */
 630:/home/rdu/Workspace/project_templates/mcu/stm32_ws/src/libraries/STM32F4xx_StdPeriph_Driver/src/stm32f4xx_flash.c ****   status = FLASH_WaitForLastOperation();
 634              		.loc 1 630 0
 635 0014 FFF7FEFF 		bl	FLASH_WaitForLastOperation
 636 0018 0346     		mov	r3, r0
 637 001a 8DF80B30 		strb	r3, [sp, #11]
 631:/home/rdu/Workspace/project_templates/mcu/stm32_ws/src/libraries/STM32F4xx_StdPeriph_Driver/src/stm32f4xx_flash.c ****   assert_param(IS_VOLTAGERANGE(VoltageRange));
 632:/home/rdu/Workspace/project_templates/mcu/stm32_ws/src/libraries/STM32F4xx_StdPeriph_Driver/src/stm32f4xx_flash.c ****   
 633:/home/rdu/Workspace/project_templates/mcu/stm32_ws/src/libraries/STM32F4xx_StdPeriph_Driver/src/stm32f4xx_flash.c ****   if(VoltageRange == VoltageRange_1)
 638              		.loc 1 633 0
 639 001e 9DF80730 		ldrb	r3, [sp, #7]	@ zero_extendqisi2
 640 0022 002B     		cmp	r3, #0
 641 0024 02D1     		bne	.L55
 634:/home/rdu/Workspace/project_templates/mcu/stm32_ws/src/libraries/STM32F4xx_StdPeriph_Driver/src/stm32f4xx_flash.c ****   {
 635:/home/rdu/Workspace/project_templates/mcu/stm32_ws/src/libraries/STM32F4xx_StdPeriph_Driver/src/stm32f4xx_flash.c ****      tmp_psize = FLASH_PSIZE_BYTE;
 642              		.loc 1 635 0
 643 0026 0023     		movs	r3, #0
 644 0028 0393     		str	r3, [sp, #12]
 645 002a 12E0     		b	.L56
 646              	.L55:
 636:/home/rdu/Workspace/project_templates/mcu/stm32_ws/src/libraries/STM32F4xx_StdPeriph_Driver/src/stm32f4xx_flash.c ****   }
 637:/home/rdu/Workspace/project_templates/mcu/stm32_ws/src/libraries/STM32F4xx_StdPeriph_Driver/src/stm32f4xx_flash.c ****   else if(VoltageRange == VoltageRange_2)
 647              		.loc 1 637 0
 648 002c 9DF80730 		ldrb	r3, [sp, #7]	@ zero_extendqisi2
 649 0030 012B     		cmp	r3, #1
 650 0032 03D1     		bne	.L57
 638:/home/rdu/Workspace/project_templates/mcu/stm32_ws/src/libraries/STM32F4xx_StdPeriph_Driver/src/stm32f4xx_flash.c ****   {
 639:/home/rdu/Workspace/project_templates/mcu/stm32_ws/src/libraries/STM32F4xx_StdPeriph_Driver/src/stm32f4xx_flash.c ****     tmp_psize = FLASH_PSIZE_HALF_WORD;
 651              		.loc 1 639 0
 652 0034 4FF48073 		mov	r3, #256
 653 0038 0393     		str	r3, [sp, #12]
 654 003a 0AE0     		b	.L56
 655              	.L57:
 640:/home/rdu/Workspace/project_templates/mcu/stm32_ws/src/libraries/STM32F4xx_StdPeriph_Driver/src/stm32f4xx_flash.c ****   }
 641:/home/rdu/Workspace/project_templates/mcu/stm32_ws/src/libraries/STM32F4xx_StdPeriph_Driver/src/stm32f4xx_flash.c ****   else if(VoltageRange == VoltageRange_3)
 656              		.loc 1 641 0
 657 003c 9DF80730 		ldrb	r3, [sp, #7]	@ zero_extendqisi2
 658 0040 022B     		cmp	r3, #2
 659 0042 03D1     		bne	.L58
 642:/home/rdu/Workspace/project_templates/mcu/stm32_ws/src/libraries/STM32F4xx_StdPeriph_Driver/src/stm32f4xx_flash.c ****   {
 643:/home/rdu/Workspace/project_templates/mcu/stm32_ws/src/libraries/STM32F4xx_StdPeriph_Driver/src/stm32f4xx_flash.c ****     tmp_psize = FLASH_PSIZE_WORD;
 660              		.loc 1 643 0
 661 0044 4FF40073 		mov	r3, #512
 662 0048 0393     		str	r3, [sp, #12]
 663 004a 02E0     		b	.L56
 664              	.L58:
 644:/home/rdu/Workspace/project_templates/mcu/stm32_ws/src/libraries/STM32F4xx_StdPeriph_Driver/src/stm32f4xx_flash.c ****   }
 645:/home/rdu/Workspace/project_templates/mcu/stm32_ws/src/libraries/STM32F4xx_StdPeriph_Driver/src/stm32f4xx_flash.c ****   else
 646:/home/rdu/Workspace/project_templates/mcu/stm32_ws/src/libraries/STM32F4xx_StdPeriph_Driver/src/stm32f4xx_flash.c ****   {
 647:/home/rdu/Workspace/project_templates/mcu/stm32_ws/src/libraries/STM32F4xx_StdPeriph_Driver/src/stm32f4xx_flash.c ****     tmp_psize = FLASH_PSIZE_DOUBLE_WORD;
 665              		.loc 1 647 0
 666 004c 4FF44073 		mov	r3, #768
 667 0050 0393     		str	r3, [sp, #12]
 668              	.L56:
 648:/home/rdu/Workspace/project_templates/mcu/stm32_ws/src/libraries/STM32F4xx_StdPeriph_Driver/src/stm32f4xx_flash.c ****   }  
 649:/home/rdu/Workspace/project_templates/mcu/stm32_ws/src/libraries/STM32F4xx_StdPeriph_Driver/src/stm32f4xx_flash.c ****   if(status == FLASH_COMPLETE)
 669              		.loc 1 649 0
 670 0052 9DF80B30 		ldrb	r3, [sp, #11]	@ zero_extendqisi2
 671 0056 092B     		cmp	r3, #9
 672 0058 22D1     		bne	.L59
 650:/home/rdu/Workspace/project_templates/mcu/stm32_ws/src/libraries/STM32F4xx_StdPeriph_Driver/src/stm32f4xx_flash.c ****   {
 651:/home/rdu/Workspace/project_templates/mcu/stm32_ws/src/libraries/STM32F4xx_StdPeriph_Driver/src/stm32f4xx_flash.c ****     /* if the previous operation is completed, proceed to erase all sectors */
 652:/home/rdu/Workspace/project_templates/mcu/stm32_ws/src/libraries/STM32F4xx_StdPeriph_Driver/src/stm32f4xx_flash.c ****      FLASH->CR &= CR_PSIZE_MASK;
 673              		.loc 1 652 0
 674 005a 144B     		ldr	r3, .L61
 675 005c 1B69     		ldr	r3, [r3, #16]
 676 005e 134A     		ldr	r2, .L61
 677 0060 23F44073 		bic	r3, r3, #768
 678 0064 1361     		str	r3, [r2, #16]
 653:/home/rdu/Workspace/project_templates/mcu/stm32_ws/src/libraries/STM32F4xx_StdPeriph_Driver/src/stm32f4xx_flash.c ****      FLASH->CR |= tmp_psize;
 679              		.loc 1 653 0
 680 0066 114B     		ldr	r3, .L61
 681 0068 1A69     		ldr	r2, [r3, #16]
 682 006a 1049     		ldr	r1, .L61
 683 006c 039B     		ldr	r3, [sp, #12]
 684 006e 1343     		orrs	r3, r3, r2
 685 0070 0B61     		str	r3, [r1, #16]
 654:/home/rdu/Workspace/project_templates/mcu/stm32_ws/src/libraries/STM32F4xx_StdPeriph_Driver/src/stm32f4xx_flash.c ****      FLASH->CR |= FLASH_CR_MER1;
 686              		.loc 1 654 0
 687 0072 0E4B     		ldr	r3, .L61
 688 0074 1B69     		ldr	r3, [r3, #16]
 689 0076 0D4A     		ldr	r2, .L61
 690 0078 43F00403 		orr	r3, r3, #4
 691 007c 1361     		str	r3, [r2, #16]
 655:/home/rdu/Workspace/project_templates/mcu/stm32_ws/src/libraries/STM32F4xx_StdPeriph_Driver/src/stm32f4xx_flash.c ****      FLASH->CR |= FLASH_CR_STRT;
 692              		.loc 1 655 0
 693 007e 0B4B     		ldr	r3, .L61
 694 0080 1B69     		ldr	r3, [r3, #16]
 695 0082 0A4A     		ldr	r2, .L61
 696 0084 43F48033 		orr	r3, r3, #65536
 697 0088 1361     		str	r3, [r2, #16]
 656:/home/rdu/Workspace/project_templates/mcu/stm32_ws/src/libraries/STM32F4xx_StdPeriph_Driver/src/stm32f4xx_flash.c ****     
 657:/home/rdu/Workspace/project_templates/mcu/stm32_ws/src/libraries/STM32F4xx_StdPeriph_Driver/src/stm32f4xx_flash.c ****     /* Wait for last operation to be completed */
 658:/home/rdu/Workspace/project_templates/mcu/stm32_ws/src/libraries/STM32F4xx_StdPeriph_Driver/src/stm32f4xx_flash.c ****     status = FLASH_WaitForLastOperation();
 698              		.loc 1 658 0
 699 008a FFF7FEFF 		bl	FLASH_WaitForLastOperation
 700 008e 0346     		mov	r3, r0
 701 0090 8DF80B30 		strb	r3, [sp, #11]
 659:/home/rdu/Workspace/project_templates/mcu/stm32_ws/src/libraries/STM32F4xx_StdPeriph_Driver/src/stm32f4xx_flash.c **** 
 660:/home/rdu/Workspace/project_templates/mcu/stm32_ws/src/libraries/STM32F4xx_StdPeriph_Driver/src/stm32f4xx_flash.c ****     /* if the erase operation is completed, disable the MER Bit */
 661:/home/rdu/Workspace/project_templates/mcu/stm32_ws/src/libraries/STM32F4xx_StdPeriph_Driver/src/stm32f4xx_flash.c ****     FLASH->CR &= (~FLASH_CR_MER1);
 702              		.loc 1 661 0
 703 0094 054B     		ldr	r3, .L61
 704 0096 1B69     		ldr	r3, [r3, #16]
 705 0098 044A     		ldr	r2, .L61
 706 009a 23F00403 		bic	r3, r3, #4
 707 009e 1361     		str	r3, [r2, #16]
 708              	.L59:
 662:/home/rdu/Workspace/project_templates/mcu/stm32_ws/src/libraries/STM32F4xx_StdPeriph_Driver/src/stm32f4xx_flash.c **** 
 663:/home/rdu/Workspace/project_templates/mcu/stm32_ws/src/libraries/STM32F4xx_StdPeriph_Driver/src/stm32f4xx_flash.c ****   }   
 664:/home/rdu/Workspace/project_templates/mcu/stm32_ws/src/libraries/STM32F4xx_StdPeriph_Driver/src/stm32f4xx_flash.c ****   /* Return the Erase Status */
 665:/home/rdu/Workspace/project_templates/mcu/stm32_ws/src/libraries/STM32F4xx_StdPeriph_Driver/src/stm32f4xx_flash.c ****   return status;
 709              		.loc 1 665 0
 710 00a0 9DF80B30 		ldrb	r3, [sp, #11]	@ zero_extendqisi2
 666:/home/rdu/Workspace/project_templates/mcu/stm32_ws/src/libraries/STM32F4xx_StdPeriph_Driver/src/stm32f4xx_flash.c **** }
 711              		.loc 1 666 0
 712 00a4 1846     		mov	r0, r3
 713 00a6 05B0     		add	sp, sp, #20
 714              	.LCFI16:
 715              		.cfi_def_cfa_offset 4
 716              		@ sp needed
 717 00a8 5DF804FB 		ldr	pc, [sp], #4
 718              	.L62:
 719              		.align	2
 720              	.L61:
 721 00ac 003C0240 		.word	1073888256
 722              		.cfi_endproc
 723              	.LFE133:
 725              		.section	.text.FLASH_EraseAllBank2Sectors,"ax",%progbits
 726              		.align	1
 727              		.global	FLASH_EraseAllBank2Sectors
 728              		.syntax unified
 729              		.thumb
 730              		.thumb_func
 731              		.fpu fpv4-sp-d16
 733              	FLASH_EraseAllBank2Sectors:
 734              	.LFB134:
 667:/home/rdu/Workspace/project_templates/mcu/stm32_ws/src/libraries/STM32F4xx_StdPeriph_Driver/src/stm32f4xx_flash.c **** 
 668:/home/rdu/Workspace/project_templates/mcu/stm32_ws/src/libraries/STM32F4xx_StdPeriph_Driver/src/stm32f4xx_flash.c **** 
 669:/home/rdu/Workspace/project_templates/mcu/stm32_ws/src/libraries/STM32F4xx_StdPeriph_Driver/src/stm32f4xx_flash.c **** /**
 670:/home/rdu/Workspace/project_templates/mcu/stm32_ws/src/libraries/STM32F4xx_StdPeriph_Driver/src/stm32f4xx_flash.c ****   * @brief  Erases all FLASH Sectors in Bank 2.
 671:/home/rdu/Workspace/project_templates/mcu/stm32_ws/src/libraries/STM32F4xx_StdPeriph_Driver/src/stm32f4xx_flash.c ****   *
 672:/home/rdu/Workspace/project_templates/mcu/stm32_ws/src/libraries/STM32F4xx_StdPeriph_Driver/src/stm32f4xx_flash.c ****   * @note   This function can be used only for STM32F42xxx/43xxx devices.
 673:/home/rdu/Workspace/project_templates/mcu/stm32_ws/src/libraries/STM32F4xx_StdPeriph_Driver/src/stm32f4xx_flash.c ****   *     
 674:/home/rdu/Workspace/project_templates/mcu/stm32_ws/src/libraries/STM32F4xx_StdPeriph_Driver/src/stm32f4xx_flash.c ****   * @note   If an erase and a program operations are requested simultaneously,    
 675:/home/rdu/Workspace/project_templates/mcu/stm32_ws/src/libraries/STM32F4xx_StdPeriph_Driver/src/stm32f4xx_flash.c ****   *         the erase operation is performed before the program one.
 676:/home/rdu/Workspace/project_templates/mcu/stm32_ws/src/libraries/STM32F4xx_StdPeriph_Driver/src/stm32f4xx_flash.c ****   *     
 677:/home/rdu/Workspace/project_templates/mcu/stm32_ws/src/libraries/STM32F4xx_StdPeriph_Driver/src/stm32f4xx_flash.c ****   * @param  VoltageRange: The device voltage range which defines the erase parallelism.  
 678:/home/rdu/Workspace/project_templates/mcu/stm32_ws/src/libraries/STM32F4xx_StdPeriph_Driver/src/stm32f4xx_flash.c ****   *          This parameter can be one of the following values:
 679:/home/rdu/Workspace/project_templates/mcu/stm32_ws/src/libraries/STM32F4xx_StdPeriph_Driver/src/stm32f4xx_flash.c ****   *            @arg VoltageRange_1: when the device voltage range is 1.8V to 2.1V, 
 680:/home/rdu/Workspace/project_templates/mcu/stm32_ws/src/libraries/STM32F4xx_StdPeriph_Driver/src/stm32f4xx_flash.c ****   *                                  the operation will be done by byte (8-bit) 
 681:/home/rdu/Workspace/project_templates/mcu/stm32_ws/src/libraries/STM32F4xx_StdPeriph_Driver/src/stm32f4xx_flash.c ****   *            @arg VoltageRange_2: when the device voltage range is 2.1V to 2.7V,
 682:/home/rdu/Workspace/project_templates/mcu/stm32_ws/src/libraries/STM32F4xx_StdPeriph_Driver/src/stm32f4xx_flash.c ****   *                                  the operation will be done by half word (16-bit)
 683:/home/rdu/Workspace/project_templates/mcu/stm32_ws/src/libraries/STM32F4xx_StdPeriph_Driver/src/stm32f4xx_flash.c ****   *            @arg VoltageRange_3: when the device voltage range is 2.7V to 3.6V,
 684:/home/rdu/Workspace/project_templates/mcu/stm32_ws/src/libraries/STM32F4xx_StdPeriph_Driver/src/stm32f4xx_flash.c ****   *                                  the operation will be done by word (32-bit)
 685:/home/rdu/Workspace/project_templates/mcu/stm32_ws/src/libraries/STM32F4xx_StdPeriph_Driver/src/stm32f4xx_flash.c ****   *            @arg VoltageRange_4: when the device voltage range is 2.7V to 3.6V + External Vpp, 
 686:/home/rdu/Workspace/project_templates/mcu/stm32_ws/src/libraries/STM32F4xx_StdPeriph_Driver/src/stm32f4xx_flash.c ****   *                                  the operation will be done by double word (64-bit)
 687:/home/rdu/Workspace/project_templates/mcu/stm32_ws/src/libraries/STM32F4xx_StdPeriph_Driver/src/stm32f4xx_flash.c ****   *       
 688:/home/rdu/Workspace/project_templates/mcu/stm32_ws/src/libraries/STM32F4xx_StdPeriph_Driver/src/stm32f4xx_flash.c ****   * @retval FLASH Status: The returned value can be: FLASH_BUSY, FLASH_ERROR_PROGRAM,
 689:/home/rdu/Workspace/project_templates/mcu/stm32_ws/src/libraries/STM32F4xx_StdPeriph_Driver/src/stm32f4xx_flash.c ****   *                       FLASH_ERROR_WRP, FLASH_ERROR_OPERATION or FLASH_COMPLETE.
 690:/home/rdu/Workspace/project_templates/mcu/stm32_ws/src/libraries/STM32F4xx_StdPeriph_Driver/src/stm32f4xx_flash.c ****   */
 691:/home/rdu/Workspace/project_templates/mcu/stm32_ws/src/libraries/STM32F4xx_StdPeriph_Driver/src/stm32f4xx_flash.c **** FLASH_Status FLASH_EraseAllBank2Sectors(uint8_t VoltageRange)
 692:/home/rdu/Workspace/project_templates/mcu/stm32_ws/src/libraries/STM32F4xx_StdPeriph_Driver/src/stm32f4xx_flash.c **** {
 735              		.loc 1 692 0
 736              		.cfi_startproc
 737              		@ args = 0, pretend = 0, frame = 16
 738              		@ frame_needed = 0, uses_anonymous_args = 0
 739 0000 00B5     		push	{lr}
 740              	.LCFI17:
 741              		.cfi_def_cfa_offset 4
 742              		.cfi_offset 14, -4
 743 0002 85B0     		sub	sp, sp, #20
 744              	.LCFI18:
 745              		.cfi_def_cfa_offset 24
 746 0004 0346     		mov	r3, r0
 747 0006 8DF80730 		strb	r3, [sp, #7]
 693:/home/rdu/Workspace/project_templates/mcu/stm32_ws/src/libraries/STM32F4xx_StdPeriph_Driver/src/stm32f4xx_flash.c ****   uint32_t tmp_psize = 0x0;
 748              		.loc 1 693 0
 749 000a 0023     		movs	r3, #0
 750 000c 0393     		str	r3, [sp, #12]
 694:/home/rdu/Workspace/project_templates/mcu/stm32_ws/src/libraries/STM32F4xx_StdPeriph_Driver/src/stm32f4xx_flash.c ****   FLASH_Status status = FLASH_COMPLETE;
 751              		.loc 1 694 0
 752 000e 0923     		movs	r3, #9
 753 0010 8DF80B30 		strb	r3, [sp, #11]
 695:/home/rdu/Workspace/project_templates/mcu/stm32_ws/src/libraries/STM32F4xx_StdPeriph_Driver/src/stm32f4xx_flash.c ****   
 696:/home/rdu/Workspace/project_templates/mcu/stm32_ws/src/libraries/STM32F4xx_StdPeriph_Driver/src/stm32f4xx_flash.c ****   /* Wait for last operation to be completed */
 697:/home/rdu/Workspace/project_templates/mcu/stm32_ws/src/libraries/STM32F4xx_StdPeriph_Driver/src/stm32f4xx_flash.c ****   status = FLASH_WaitForLastOperation();
 754              		.loc 1 697 0
 755 0014 FFF7FEFF 		bl	FLASH_WaitForLastOperation
 756 0018 0346     		mov	r3, r0
 757 001a 8DF80B30 		strb	r3, [sp, #11]
 698:/home/rdu/Workspace/project_templates/mcu/stm32_ws/src/libraries/STM32F4xx_StdPeriph_Driver/src/stm32f4xx_flash.c ****   assert_param(IS_VOLTAGERANGE(VoltageRange));
 699:/home/rdu/Workspace/project_templates/mcu/stm32_ws/src/libraries/STM32F4xx_StdPeriph_Driver/src/stm32f4xx_flash.c ****   
 700:/home/rdu/Workspace/project_templates/mcu/stm32_ws/src/libraries/STM32F4xx_StdPeriph_Driver/src/stm32f4xx_flash.c ****   if(VoltageRange == VoltageRange_1)
 758              		.loc 1 700 0
 759 001e 9DF80730 		ldrb	r3, [sp, #7]	@ zero_extendqisi2
 760 0022 002B     		cmp	r3, #0
 761 0024 02D1     		bne	.L64
 701:/home/rdu/Workspace/project_templates/mcu/stm32_ws/src/libraries/STM32F4xx_StdPeriph_Driver/src/stm32f4xx_flash.c ****   {
 702:/home/rdu/Workspace/project_templates/mcu/stm32_ws/src/libraries/STM32F4xx_StdPeriph_Driver/src/stm32f4xx_flash.c ****      tmp_psize = FLASH_PSIZE_BYTE;
 762              		.loc 1 702 0
 763 0026 0023     		movs	r3, #0
 764 0028 0393     		str	r3, [sp, #12]
 765 002a 12E0     		b	.L65
 766              	.L64:
 703:/home/rdu/Workspace/project_templates/mcu/stm32_ws/src/libraries/STM32F4xx_StdPeriph_Driver/src/stm32f4xx_flash.c ****   }
 704:/home/rdu/Workspace/project_templates/mcu/stm32_ws/src/libraries/STM32F4xx_StdPeriph_Driver/src/stm32f4xx_flash.c ****   else if(VoltageRange == VoltageRange_2)
 767              		.loc 1 704 0
 768 002c 9DF80730 		ldrb	r3, [sp, #7]	@ zero_extendqisi2
 769 0030 012B     		cmp	r3, #1
 770 0032 03D1     		bne	.L66
 705:/home/rdu/Workspace/project_templates/mcu/stm32_ws/src/libraries/STM32F4xx_StdPeriph_Driver/src/stm32f4xx_flash.c ****   {
 706:/home/rdu/Workspace/project_templates/mcu/stm32_ws/src/libraries/STM32F4xx_StdPeriph_Driver/src/stm32f4xx_flash.c ****     tmp_psize = FLASH_PSIZE_HALF_WORD;
 771              		.loc 1 706 0
 772 0034 4FF48073 		mov	r3, #256
 773 0038 0393     		str	r3, [sp, #12]
 774 003a 0AE0     		b	.L65
 775              	.L66:
 707:/home/rdu/Workspace/project_templates/mcu/stm32_ws/src/libraries/STM32F4xx_StdPeriph_Driver/src/stm32f4xx_flash.c ****   }
 708:/home/rdu/Workspace/project_templates/mcu/stm32_ws/src/libraries/STM32F4xx_StdPeriph_Driver/src/stm32f4xx_flash.c ****   else if(VoltageRange == VoltageRange_3)
 776              		.loc 1 708 0
 777 003c 9DF80730 		ldrb	r3, [sp, #7]	@ zero_extendqisi2
 778 0040 022B     		cmp	r3, #2
 779 0042 03D1     		bne	.L67
 709:/home/rdu/Workspace/project_templates/mcu/stm32_ws/src/libraries/STM32F4xx_StdPeriph_Driver/src/stm32f4xx_flash.c ****   {
 710:/home/rdu/Workspace/project_templates/mcu/stm32_ws/src/libraries/STM32F4xx_StdPeriph_Driver/src/stm32f4xx_flash.c ****     tmp_psize = FLASH_PSIZE_WORD;
 780              		.loc 1 710 0
 781 0044 4FF40073 		mov	r3, #512
 782 0048 0393     		str	r3, [sp, #12]
 783 004a 02E0     		b	.L65
 784              	.L67:
 711:/home/rdu/Workspace/project_templates/mcu/stm32_ws/src/libraries/STM32F4xx_StdPeriph_Driver/src/stm32f4xx_flash.c ****   }
 712:/home/rdu/Workspace/project_templates/mcu/stm32_ws/src/libraries/STM32F4xx_StdPeriph_Driver/src/stm32f4xx_flash.c ****   else
 713:/home/rdu/Workspace/project_templates/mcu/stm32_ws/src/libraries/STM32F4xx_StdPeriph_Driver/src/stm32f4xx_flash.c ****   {
 714:/home/rdu/Workspace/project_templates/mcu/stm32_ws/src/libraries/STM32F4xx_StdPeriph_Driver/src/stm32f4xx_flash.c ****     tmp_psize = FLASH_PSIZE_DOUBLE_WORD;
 785              		.loc 1 714 0
 786 004c 4FF44073 		mov	r3, #768
 787 0050 0393     		str	r3, [sp, #12]
 788              	.L65:
 715:/home/rdu/Workspace/project_templates/mcu/stm32_ws/src/libraries/STM32F4xx_StdPeriph_Driver/src/stm32f4xx_flash.c ****   }  
 716:/home/rdu/Workspace/project_templates/mcu/stm32_ws/src/libraries/STM32F4xx_StdPeriph_Driver/src/stm32f4xx_flash.c ****   if(status == FLASH_COMPLETE)
 789              		.loc 1 716 0
 790 0052 9DF80B30 		ldrb	r3, [sp, #11]	@ zero_extendqisi2
 791 0056 092B     		cmp	r3, #9
 792 0058 22D1     		bne	.L68
 717:/home/rdu/Workspace/project_templates/mcu/stm32_ws/src/libraries/STM32F4xx_StdPeriph_Driver/src/stm32f4xx_flash.c ****   {
 718:/home/rdu/Workspace/project_templates/mcu/stm32_ws/src/libraries/STM32F4xx_StdPeriph_Driver/src/stm32f4xx_flash.c ****     /* if the previous operation is completed, proceed to erase all sectors */
 719:/home/rdu/Workspace/project_templates/mcu/stm32_ws/src/libraries/STM32F4xx_StdPeriph_Driver/src/stm32f4xx_flash.c ****      FLASH->CR &= CR_PSIZE_MASK;
 793              		.loc 1 719 0
 794 005a 144B     		ldr	r3, .L70
 795 005c 1B69     		ldr	r3, [r3, #16]
 796 005e 134A     		ldr	r2, .L70
 797 0060 23F44073 		bic	r3, r3, #768
 798 0064 1361     		str	r3, [r2, #16]
 720:/home/rdu/Workspace/project_templates/mcu/stm32_ws/src/libraries/STM32F4xx_StdPeriph_Driver/src/stm32f4xx_flash.c ****      FLASH->CR |= tmp_psize;
 799              		.loc 1 720 0
 800 0066 114B     		ldr	r3, .L70
 801 0068 1A69     		ldr	r2, [r3, #16]
 802 006a 1049     		ldr	r1, .L70
 803 006c 039B     		ldr	r3, [sp, #12]
 804 006e 1343     		orrs	r3, r3, r2
 805 0070 0B61     		str	r3, [r1, #16]
 721:/home/rdu/Workspace/project_templates/mcu/stm32_ws/src/libraries/STM32F4xx_StdPeriph_Driver/src/stm32f4xx_flash.c ****      FLASH->CR |= FLASH_CR_MER2;
 806              		.loc 1 721 0
 807 0072 0E4B     		ldr	r3, .L70
 808 0074 1B69     		ldr	r3, [r3, #16]
 809 0076 0D4A     		ldr	r2, .L70
 810 0078 43F40043 		orr	r3, r3, #32768
 811 007c 1361     		str	r3, [r2, #16]
 722:/home/rdu/Workspace/project_templates/mcu/stm32_ws/src/libraries/STM32F4xx_StdPeriph_Driver/src/stm32f4xx_flash.c ****      FLASH->CR |= FLASH_CR_STRT;
 812              		.loc 1 722 0
 813 007e 0B4B     		ldr	r3, .L70
 814 0080 1B69     		ldr	r3, [r3, #16]
 815 0082 0A4A     		ldr	r2, .L70
 816 0084 43F48033 		orr	r3, r3, #65536
 817 0088 1361     		str	r3, [r2, #16]
 723:/home/rdu/Workspace/project_templates/mcu/stm32_ws/src/libraries/STM32F4xx_StdPeriph_Driver/src/stm32f4xx_flash.c ****     
 724:/home/rdu/Workspace/project_templates/mcu/stm32_ws/src/libraries/STM32F4xx_StdPeriph_Driver/src/stm32f4xx_flash.c ****     /* Wait for last operation to be completed */
 725:/home/rdu/Workspace/project_templates/mcu/stm32_ws/src/libraries/STM32F4xx_StdPeriph_Driver/src/stm32f4xx_flash.c ****     status = FLASH_WaitForLastOperation();
 818              		.loc 1 725 0
 819 008a FFF7FEFF 		bl	FLASH_WaitForLastOperation
 820 008e 0346     		mov	r3, r0
 821 0090 8DF80B30 		strb	r3, [sp, #11]
 726:/home/rdu/Workspace/project_templates/mcu/stm32_ws/src/libraries/STM32F4xx_StdPeriph_Driver/src/stm32f4xx_flash.c **** 
 727:/home/rdu/Workspace/project_templates/mcu/stm32_ws/src/libraries/STM32F4xx_StdPeriph_Driver/src/stm32f4xx_flash.c ****     /* if the erase operation is completed, disable the MER Bit */
 728:/home/rdu/Workspace/project_templates/mcu/stm32_ws/src/libraries/STM32F4xx_StdPeriph_Driver/src/stm32f4xx_flash.c ****     FLASH->CR &= (~FLASH_CR_MER2);
 822              		.loc 1 728 0
 823 0094 054B     		ldr	r3, .L70
 824 0096 1B69     		ldr	r3, [r3, #16]
 825 0098 044A     		ldr	r2, .L70
 826 009a 23F40043 		bic	r3, r3, #32768
 827 009e 1361     		str	r3, [r2, #16]
 828              	.L68:
 729:/home/rdu/Workspace/project_templates/mcu/stm32_ws/src/libraries/STM32F4xx_StdPeriph_Driver/src/stm32f4xx_flash.c **** 
 730:/home/rdu/Workspace/project_templates/mcu/stm32_ws/src/libraries/STM32F4xx_StdPeriph_Driver/src/stm32f4xx_flash.c ****   }   
 731:/home/rdu/Workspace/project_templates/mcu/stm32_ws/src/libraries/STM32F4xx_StdPeriph_Driver/src/stm32f4xx_flash.c ****   /* Return the Erase Status */
 732:/home/rdu/Workspace/project_templates/mcu/stm32_ws/src/libraries/STM32F4xx_StdPeriph_Driver/src/stm32f4xx_flash.c ****   return status;
 829              		.loc 1 732 0
 830 00a0 9DF80B30 		ldrb	r3, [sp, #11]	@ zero_extendqisi2
 733:/home/rdu/Workspace/project_templates/mcu/stm32_ws/src/libraries/STM32F4xx_StdPeriph_Driver/src/stm32f4xx_flash.c **** }
 831              		.loc 1 733 0
 832 00a4 1846     		mov	r0, r3
 833 00a6 05B0     		add	sp, sp, #20
 834              	.LCFI19:
 835              		.cfi_def_cfa_offset 4
 836              		@ sp needed
 837 00a8 5DF804FB 		ldr	pc, [sp], #4
 838              	.L71:
 839              		.align	2
 840              	.L70:
 841 00ac 003C0240 		.word	1073888256
 842              		.cfi_endproc
 843              	.LFE134:
 845              		.section	.text.FLASH_ProgramDoubleWord,"ax",%progbits
 846              		.align	1
 847              		.global	FLASH_ProgramDoubleWord
 848              		.syntax unified
 849              		.thumb
 850              		.thumb_func
 851              		.fpu fpv4-sp-d16
 853              	FLASH_ProgramDoubleWord:
 854              	.LFB135:
 734:/home/rdu/Workspace/project_templates/mcu/stm32_ws/src/libraries/STM32F4xx_StdPeriph_Driver/src/stm32f4xx_flash.c **** 
 735:/home/rdu/Workspace/project_templates/mcu/stm32_ws/src/libraries/STM32F4xx_StdPeriph_Driver/src/stm32f4xx_flash.c **** /**
 736:/home/rdu/Workspace/project_templates/mcu/stm32_ws/src/libraries/STM32F4xx_StdPeriph_Driver/src/stm32f4xx_flash.c ****   * @brief  Programs a double word (64-bit) at a specified address.
 737:/home/rdu/Workspace/project_templates/mcu/stm32_ws/src/libraries/STM32F4xx_StdPeriph_Driver/src/stm32f4xx_flash.c ****   * @note   This function must be used when the device voltage range is from
 738:/home/rdu/Workspace/project_templates/mcu/stm32_ws/src/libraries/STM32F4xx_StdPeriph_Driver/src/stm32f4xx_flash.c ****   *         2.7V to 3.6V and an External Vpp is present.
 739:/home/rdu/Workspace/project_templates/mcu/stm32_ws/src/libraries/STM32F4xx_StdPeriph_Driver/src/stm32f4xx_flash.c ****   *
 740:/home/rdu/Workspace/project_templates/mcu/stm32_ws/src/libraries/STM32F4xx_StdPeriph_Driver/src/stm32f4xx_flash.c ****   * @note   If an erase and a program operations are requested simultaneously,    
 741:/home/rdu/Workspace/project_templates/mcu/stm32_ws/src/libraries/STM32F4xx_StdPeriph_Driver/src/stm32f4xx_flash.c ****   *         the erase operation is performed before the program one.
 742:/home/rdu/Workspace/project_templates/mcu/stm32_ws/src/libraries/STM32F4xx_StdPeriph_Driver/src/stm32f4xx_flash.c ****   *  
 743:/home/rdu/Workspace/project_templates/mcu/stm32_ws/src/libraries/STM32F4xx_StdPeriph_Driver/src/stm32f4xx_flash.c ****   * @param  Address: specifies the address to be programmed.
 744:/home/rdu/Workspace/project_templates/mcu/stm32_ws/src/libraries/STM32F4xx_StdPeriph_Driver/src/stm32f4xx_flash.c ****   * @param  Data: specifies the data to be programmed.
 745:/home/rdu/Workspace/project_templates/mcu/stm32_ws/src/libraries/STM32F4xx_StdPeriph_Driver/src/stm32f4xx_flash.c ****   * @retval FLASH Status: The returned value can be: FLASH_BUSY, FLASH_ERROR_PROGRAM,
 746:/home/rdu/Workspace/project_templates/mcu/stm32_ws/src/libraries/STM32F4xx_StdPeriph_Driver/src/stm32f4xx_flash.c ****   *                       FLASH_ERROR_WRP, FLASH_ERROR_OPERATION or FLASH_COMPLETE.
 747:/home/rdu/Workspace/project_templates/mcu/stm32_ws/src/libraries/STM32F4xx_StdPeriph_Driver/src/stm32f4xx_flash.c ****   */
 748:/home/rdu/Workspace/project_templates/mcu/stm32_ws/src/libraries/STM32F4xx_StdPeriph_Driver/src/stm32f4xx_flash.c **** FLASH_Status FLASH_ProgramDoubleWord(uint32_t Address, uint64_t Data)
 749:/home/rdu/Workspace/project_templates/mcu/stm32_ws/src/libraries/STM32F4xx_StdPeriph_Driver/src/stm32f4xx_flash.c **** {
 855              		.loc 1 749 0
 856              		.cfi_startproc
 857              		@ args = 0, pretend = 0, frame = 24
 858              		@ frame_needed = 0, uses_anonymous_args = 0
 859 0000 10B5     		push	{r4, lr}
 860              	.LCFI20:
 861              		.cfi_def_cfa_offset 8
 862              		.cfi_offset 4, -8
 863              		.cfi_offset 14, -4
 864 0002 86B0     		sub	sp, sp, #24
 865              	.LCFI21:
 866              		.cfi_def_cfa_offset 32
 867 0004 0390     		str	r0, [sp, #12]
 868 0006 CDE90023 		strd	r2, [sp]
 750:/home/rdu/Workspace/project_templates/mcu/stm32_ws/src/libraries/STM32F4xx_StdPeriph_Driver/src/stm32f4xx_flash.c ****   FLASH_Status status = FLASH_COMPLETE;
 869              		.loc 1 750 0
 870 000a 0923     		movs	r3, #9
 871 000c 8DF81730 		strb	r3, [sp, #23]
 751:/home/rdu/Workspace/project_templates/mcu/stm32_ws/src/libraries/STM32F4xx_StdPeriph_Driver/src/stm32f4xx_flash.c **** 
 752:/home/rdu/Workspace/project_templates/mcu/stm32_ws/src/libraries/STM32F4xx_StdPeriph_Driver/src/stm32f4xx_flash.c ****   /* Check the parameters */
 753:/home/rdu/Workspace/project_templates/mcu/stm32_ws/src/libraries/STM32F4xx_StdPeriph_Driver/src/stm32f4xx_flash.c ****   assert_param(IS_FLASH_ADDRESS(Address));
 754:/home/rdu/Workspace/project_templates/mcu/stm32_ws/src/libraries/STM32F4xx_StdPeriph_Driver/src/stm32f4xx_flash.c **** 
 755:/home/rdu/Workspace/project_templates/mcu/stm32_ws/src/libraries/STM32F4xx_StdPeriph_Driver/src/stm32f4xx_flash.c ****   /* Wait for last operation to be completed */
 756:/home/rdu/Workspace/project_templates/mcu/stm32_ws/src/libraries/STM32F4xx_StdPeriph_Driver/src/stm32f4xx_flash.c ****   status = FLASH_WaitForLastOperation();
 872              		.loc 1 756 0
 873 0010 FFF7FEFF 		bl	FLASH_WaitForLastOperation
 874 0014 0346     		mov	r3, r0
 875 0016 8DF81730 		strb	r3, [sp, #23]
 757:/home/rdu/Workspace/project_templates/mcu/stm32_ws/src/libraries/STM32F4xx_StdPeriph_Driver/src/stm32f4xx_flash.c ****   
 758:/home/rdu/Workspace/project_templates/mcu/stm32_ws/src/libraries/STM32F4xx_StdPeriph_Driver/src/stm32f4xx_flash.c ****   if(status == FLASH_COMPLETE)
 876              		.loc 1 758 0
 877 001a 9DF81730 		ldrb	r3, [sp, #23]	@ zero_extendqisi2
 878 001e 092B     		cmp	r3, #9
 879 0020 21D1     		bne	.L73
 759:/home/rdu/Workspace/project_templates/mcu/stm32_ws/src/libraries/STM32F4xx_StdPeriph_Driver/src/stm32f4xx_flash.c ****   {
 760:/home/rdu/Workspace/project_templates/mcu/stm32_ws/src/libraries/STM32F4xx_StdPeriph_Driver/src/stm32f4xx_flash.c ****     /* if the previous operation is completed, proceed to program the new data */
 761:/home/rdu/Workspace/project_templates/mcu/stm32_ws/src/libraries/STM32F4xx_StdPeriph_Driver/src/stm32f4xx_flash.c ****     FLASH->CR &= CR_PSIZE_MASK;
 880              		.loc 1 761 0
 881 0022 134B     		ldr	r3, .L75
 882 0024 1B69     		ldr	r3, [r3, #16]
 883 0026 124A     		ldr	r2, .L75
 884 0028 23F44073 		bic	r3, r3, #768
 885 002c 1361     		str	r3, [r2, #16]
 762:/home/rdu/Workspace/project_templates/mcu/stm32_ws/src/libraries/STM32F4xx_StdPeriph_Driver/src/stm32f4xx_flash.c ****     FLASH->CR |= FLASH_PSIZE_DOUBLE_WORD;
 886              		.loc 1 762 0
 887 002e 104B     		ldr	r3, .L75
 888 0030 1B69     		ldr	r3, [r3, #16]
 889 0032 0F4A     		ldr	r2, .L75
 890 0034 43F44073 		orr	r3, r3, #768
 891 0038 1361     		str	r3, [r2, #16]
 763:/home/rdu/Workspace/project_templates/mcu/stm32_ws/src/libraries/STM32F4xx_StdPeriph_Driver/src/stm32f4xx_flash.c ****     FLASH->CR |= FLASH_CR_PG;
 892              		.loc 1 763 0
 893 003a 0D4B     		ldr	r3, .L75
 894 003c 1B69     		ldr	r3, [r3, #16]
 895 003e 0C4A     		ldr	r2, .L75
 896 0040 43F00103 		orr	r3, r3, #1
 897 0044 1361     		str	r3, [r2, #16]
 764:/home/rdu/Workspace/project_templates/mcu/stm32_ws/src/libraries/STM32F4xx_StdPeriph_Driver/src/stm32f4xx_flash.c ****   
 765:/home/rdu/Workspace/project_templates/mcu/stm32_ws/src/libraries/STM32F4xx_StdPeriph_Driver/src/stm32f4xx_flash.c ****     *(__IO uint64_t*)Address = Data;
 898              		.loc 1 765 0
 899 0046 039A     		ldr	r2, [sp, #12]
 900 0048 DDE90034 		ldrd	r3, [sp]
 901 004c C2E90034 		strd	r3, [r2]
 766:/home/rdu/Workspace/project_templates/mcu/stm32_ws/src/libraries/STM32F4xx_StdPeriph_Driver/src/stm32f4xx_flash.c ****         
 767:/home/rdu/Workspace/project_templates/mcu/stm32_ws/src/libraries/STM32F4xx_StdPeriph_Driver/src/stm32f4xx_flash.c ****     /* Wait for last operation to be completed */
 768:/home/rdu/Workspace/project_templates/mcu/stm32_ws/src/libraries/STM32F4xx_StdPeriph_Driver/src/stm32f4xx_flash.c ****     status = FLASH_WaitForLastOperation();
 902              		.loc 1 768 0
 903 0050 FFF7FEFF 		bl	FLASH_WaitForLastOperation
 904 0054 0346     		mov	r3, r0
 905 0056 8DF81730 		strb	r3, [sp, #23]
 769:/home/rdu/Workspace/project_templates/mcu/stm32_ws/src/libraries/STM32F4xx_StdPeriph_Driver/src/stm32f4xx_flash.c **** 
 770:/home/rdu/Workspace/project_templates/mcu/stm32_ws/src/libraries/STM32F4xx_StdPeriph_Driver/src/stm32f4xx_flash.c ****     /* if the program operation is completed, disable the PG Bit */
 771:/home/rdu/Workspace/project_templates/mcu/stm32_ws/src/libraries/STM32F4xx_StdPeriph_Driver/src/stm32f4xx_flash.c ****     FLASH->CR &= (~FLASH_CR_PG);
 906              		.loc 1 771 0
 907 005a 054B     		ldr	r3, .L75
 908 005c 1B69     		ldr	r3, [r3, #16]
 909 005e 044A     		ldr	r2, .L75
 910 0060 23F00103 		bic	r3, r3, #1
 911 0064 1361     		str	r3, [r2, #16]
 912              	.L73:
 772:/home/rdu/Workspace/project_templates/mcu/stm32_ws/src/libraries/STM32F4xx_StdPeriph_Driver/src/stm32f4xx_flash.c ****   } 
 773:/home/rdu/Workspace/project_templates/mcu/stm32_ws/src/libraries/STM32F4xx_StdPeriph_Driver/src/stm32f4xx_flash.c ****   /* Return the Program Status */
 774:/home/rdu/Workspace/project_templates/mcu/stm32_ws/src/libraries/STM32F4xx_StdPeriph_Driver/src/stm32f4xx_flash.c ****   return status;
 913              		.loc 1 774 0
 914 0066 9DF81730 		ldrb	r3, [sp, #23]	@ zero_extendqisi2
 775:/home/rdu/Workspace/project_templates/mcu/stm32_ws/src/libraries/STM32F4xx_StdPeriph_Driver/src/stm32f4xx_flash.c **** }
 915              		.loc 1 775 0
 916 006a 1846     		mov	r0, r3
 917 006c 06B0     		add	sp, sp, #24
 918              	.LCFI22:
 919              		.cfi_def_cfa_offset 8
 920              		@ sp needed
 921 006e 10BD     		pop	{r4, pc}
 922              	.L76:
 923              		.align	2
 924              	.L75:
 925 0070 003C0240 		.word	1073888256
 926              		.cfi_endproc
 927              	.LFE135:
 929              		.section	.text.FLASH_ProgramWord,"ax",%progbits
 930              		.align	1
 931              		.global	FLASH_ProgramWord
 932              		.syntax unified
 933              		.thumb
 934              		.thumb_func
 935              		.fpu fpv4-sp-d16
 937              	FLASH_ProgramWord:
 938              	.LFB136:
 776:/home/rdu/Workspace/project_templates/mcu/stm32_ws/src/libraries/STM32F4xx_StdPeriph_Driver/src/stm32f4xx_flash.c **** 
 777:/home/rdu/Workspace/project_templates/mcu/stm32_ws/src/libraries/STM32F4xx_StdPeriph_Driver/src/stm32f4xx_flash.c **** /**
 778:/home/rdu/Workspace/project_templates/mcu/stm32_ws/src/libraries/STM32F4xx_StdPeriph_Driver/src/stm32f4xx_flash.c ****   * @brief  Programs a word (32-bit) at a specified address.
 779:/home/rdu/Workspace/project_templates/mcu/stm32_ws/src/libraries/STM32F4xx_StdPeriph_Driver/src/stm32f4xx_flash.c ****   *
 780:/home/rdu/Workspace/project_templates/mcu/stm32_ws/src/libraries/STM32F4xx_StdPeriph_Driver/src/stm32f4xx_flash.c ****   * @note   This function must be used when the device voltage range is from 2.7V to 3.6V. 
 781:/home/rdu/Workspace/project_templates/mcu/stm32_ws/src/libraries/STM32F4xx_StdPeriph_Driver/src/stm32f4xx_flash.c ****   *
 782:/home/rdu/Workspace/project_templates/mcu/stm32_ws/src/libraries/STM32F4xx_StdPeriph_Driver/src/stm32f4xx_flash.c ****   * @note   If an erase and a program operations are requested simultaneously,    
 783:/home/rdu/Workspace/project_templates/mcu/stm32_ws/src/libraries/STM32F4xx_StdPeriph_Driver/src/stm32f4xx_flash.c ****   *         the erase operation is performed before the program one.
 784:/home/rdu/Workspace/project_templates/mcu/stm32_ws/src/libraries/STM32F4xx_StdPeriph_Driver/src/stm32f4xx_flash.c ****   *  
 785:/home/rdu/Workspace/project_templates/mcu/stm32_ws/src/libraries/STM32F4xx_StdPeriph_Driver/src/stm32f4xx_flash.c ****   * @param  Address: specifies the address to be programmed.
 786:/home/rdu/Workspace/project_templates/mcu/stm32_ws/src/libraries/STM32F4xx_StdPeriph_Driver/src/stm32f4xx_flash.c ****   *         This parameter can be any address in Program memory zone or in OTP zone.  
 787:/home/rdu/Workspace/project_templates/mcu/stm32_ws/src/libraries/STM32F4xx_StdPeriph_Driver/src/stm32f4xx_flash.c ****   * @param  Data: specifies the data to be programmed.
 788:/home/rdu/Workspace/project_templates/mcu/stm32_ws/src/libraries/STM32F4xx_StdPeriph_Driver/src/stm32f4xx_flash.c ****   * @retval FLASH Status: The returned value can be: FLASH_BUSY, FLASH_ERROR_PROGRAM,
 789:/home/rdu/Workspace/project_templates/mcu/stm32_ws/src/libraries/STM32F4xx_StdPeriph_Driver/src/stm32f4xx_flash.c ****   *                       FLASH_ERROR_WRP, FLASH_ERROR_OPERATION or FLASH_COMPLETE.
 790:/home/rdu/Workspace/project_templates/mcu/stm32_ws/src/libraries/STM32F4xx_StdPeriph_Driver/src/stm32f4xx_flash.c ****   */
 791:/home/rdu/Workspace/project_templates/mcu/stm32_ws/src/libraries/STM32F4xx_StdPeriph_Driver/src/stm32f4xx_flash.c **** FLASH_Status FLASH_ProgramWord(uint32_t Address, uint32_t Data)
 792:/home/rdu/Workspace/project_templates/mcu/stm32_ws/src/libraries/STM32F4xx_StdPeriph_Driver/src/stm32f4xx_flash.c **** {
 939              		.loc 1 792 0
 940              		.cfi_startproc
 941              		@ args = 0, pretend = 0, frame = 16
 942              		@ frame_needed = 0, uses_anonymous_args = 0
 943 0000 00B5     		push	{lr}
 944              	.LCFI23:
 945              		.cfi_def_cfa_offset 4
 946              		.cfi_offset 14, -4
 947 0002 85B0     		sub	sp, sp, #20
 948              	.LCFI24:
 949              		.cfi_def_cfa_offset 24
 950 0004 0190     		str	r0, [sp, #4]
 951 0006 0091     		str	r1, [sp]
 793:/home/rdu/Workspace/project_templates/mcu/stm32_ws/src/libraries/STM32F4xx_StdPeriph_Driver/src/stm32f4xx_flash.c ****   FLASH_Status status = FLASH_COMPLETE;
 952              		.loc 1 793 0
 953 0008 0923     		movs	r3, #9
 954 000a 8DF80F30 		strb	r3, [sp, #15]
 794:/home/rdu/Workspace/project_templates/mcu/stm32_ws/src/libraries/STM32F4xx_StdPeriph_Driver/src/stm32f4xx_flash.c **** 
 795:/home/rdu/Workspace/project_templates/mcu/stm32_ws/src/libraries/STM32F4xx_StdPeriph_Driver/src/stm32f4xx_flash.c ****   /* Check the parameters */
 796:/home/rdu/Workspace/project_templates/mcu/stm32_ws/src/libraries/STM32F4xx_StdPeriph_Driver/src/stm32f4xx_flash.c ****   assert_param(IS_FLASH_ADDRESS(Address));
 797:/home/rdu/Workspace/project_templates/mcu/stm32_ws/src/libraries/STM32F4xx_StdPeriph_Driver/src/stm32f4xx_flash.c **** 
 798:/home/rdu/Workspace/project_templates/mcu/stm32_ws/src/libraries/STM32F4xx_StdPeriph_Driver/src/stm32f4xx_flash.c ****   /* Wait for last operation to be completed */
 799:/home/rdu/Workspace/project_templates/mcu/stm32_ws/src/libraries/STM32F4xx_StdPeriph_Driver/src/stm32f4xx_flash.c ****   status = FLASH_WaitForLastOperation();
 955              		.loc 1 799 0
 956 000e FFF7FEFF 		bl	FLASH_WaitForLastOperation
 957 0012 0346     		mov	r3, r0
 958 0014 8DF80F30 		strb	r3, [sp, #15]
 800:/home/rdu/Workspace/project_templates/mcu/stm32_ws/src/libraries/STM32F4xx_StdPeriph_Driver/src/stm32f4xx_flash.c ****   
 801:/home/rdu/Workspace/project_templates/mcu/stm32_ws/src/libraries/STM32F4xx_StdPeriph_Driver/src/stm32f4xx_flash.c ****   if(status == FLASH_COMPLETE)
 959              		.loc 1 801 0
 960 0018 9DF80F30 		ldrb	r3, [sp, #15]	@ zero_extendqisi2
 961 001c 092B     		cmp	r3, #9
 962 001e 1FD1     		bne	.L78
 802:/home/rdu/Workspace/project_templates/mcu/stm32_ws/src/libraries/STM32F4xx_StdPeriph_Driver/src/stm32f4xx_flash.c ****   {
 803:/home/rdu/Workspace/project_templates/mcu/stm32_ws/src/libraries/STM32F4xx_StdPeriph_Driver/src/stm32f4xx_flash.c ****     /* if the previous operation is completed, proceed to program the new data */
 804:/home/rdu/Workspace/project_templates/mcu/stm32_ws/src/libraries/STM32F4xx_StdPeriph_Driver/src/stm32f4xx_flash.c ****     FLASH->CR &= CR_PSIZE_MASK;
 963              		.loc 1 804 0
 964 0020 124B     		ldr	r3, .L80
 965 0022 1B69     		ldr	r3, [r3, #16]
 966 0024 114A     		ldr	r2, .L80
 967 0026 23F44073 		bic	r3, r3, #768
 968 002a 1361     		str	r3, [r2, #16]
 805:/home/rdu/Workspace/project_templates/mcu/stm32_ws/src/libraries/STM32F4xx_StdPeriph_Driver/src/stm32f4xx_flash.c ****     FLASH->CR |= FLASH_PSIZE_WORD;
 969              		.loc 1 805 0
 970 002c 0F4B     		ldr	r3, .L80
 971 002e 1B69     		ldr	r3, [r3, #16]
 972 0030 0E4A     		ldr	r2, .L80
 973 0032 43F40073 		orr	r3, r3, #512
 974 0036 1361     		str	r3, [r2, #16]
 806:/home/rdu/Workspace/project_templates/mcu/stm32_ws/src/libraries/STM32F4xx_StdPeriph_Driver/src/stm32f4xx_flash.c ****     FLASH->CR |= FLASH_CR_PG;
 975              		.loc 1 806 0
 976 0038 0C4B     		ldr	r3, .L80
 977 003a 1B69     		ldr	r3, [r3, #16]
 978 003c 0B4A     		ldr	r2, .L80
 979 003e 43F00103 		orr	r3, r3, #1
 980 0042 1361     		str	r3, [r2, #16]
 807:/home/rdu/Workspace/project_templates/mcu/stm32_ws/src/libraries/STM32F4xx_StdPeriph_Driver/src/stm32f4xx_flash.c ****   
 808:/home/rdu/Workspace/project_templates/mcu/stm32_ws/src/libraries/STM32F4xx_StdPeriph_Driver/src/stm32f4xx_flash.c ****     *(__IO uint32_t*)Address = Data;
 981              		.loc 1 808 0
 982 0044 019B     		ldr	r3, [sp, #4]
 983 0046 009A     		ldr	r2, [sp]
 984 0048 1A60     		str	r2, [r3]
 809:/home/rdu/Workspace/project_templates/mcu/stm32_ws/src/libraries/STM32F4xx_StdPeriph_Driver/src/stm32f4xx_flash.c ****         
 810:/home/rdu/Workspace/project_templates/mcu/stm32_ws/src/libraries/STM32F4xx_StdPeriph_Driver/src/stm32f4xx_flash.c ****     /* Wait for last operation to be completed */
 811:/home/rdu/Workspace/project_templates/mcu/stm32_ws/src/libraries/STM32F4xx_StdPeriph_Driver/src/stm32f4xx_flash.c ****     status = FLASH_WaitForLastOperation();
 985              		.loc 1 811 0
 986 004a FFF7FEFF 		bl	FLASH_WaitForLastOperation
 987 004e 0346     		mov	r3, r0
 988 0050 8DF80F30 		strb	r3, [sp, #15]
 812:/home/rdu/Workspace/project_templates/mcu/stm32_ws/src/libraries/STM32F4xx_StdPeriph_Driver/src/stm32f4xx_flash.c **** 
 813:/home/rdu/Workspace/project_templates/mcu/stm32_ws/src/libraries/STM32F4xx_StdPeriph_Driver/src/stm32f4xx_flash.c ****     /* if the program operation is completed, disable the PG Bit */
 814:/home/rdu/Workspace/project_templates/mcu/stm32_ws/src/libraries/STM32F4xx_StdPeriph_Driver/src/stm32f4xx_flash.c ****     FLASH->CR &= (~FLASH_CR_PG);
 989              		.loc 1 814 0
 990 0054 054B     		ldr	r3, .L80
 991 0056 1B69     		ldr	r3, [r3, #16]
 992 0058 044A     		ldr	r2, .L80
 993 005a 23F00103 		bic	r3, r3, #1
 994 005e 1361     		str	r3, [r2, #16]
 995              	.L78:
 815:/home/rdu/Workspace/project_templates/mcu/stm32_ws/src/libraries/STM32F4xx_StdPeriph_Driver/src/stm32f4xx_flash.c ****   } 
 816:/home/rdu/Workspace/project_templates/mcu/stm32_ws/src/libraries/STM32F4xx_StdPeriph_Driver/src/stm32f4xx_flash.c ****   /* Return the Program Status */
 817:/home/rdu/Workspace/project_templates/mcu/stm32_ws/src/libraries/STM32F4xx_StdPeriph_Driver/src/stm32f4xx_flash.c ****   return status;
 996              		.loc 1 817 0
 997 0060 9DF80F30 		ldrb	r3, [sp, #15]	@ zero_extendqisi2
 818:/home/rdu/Workspace/project_templates/mcu/stm32_ws/src/libraries/STM32F4xx_StdPeriph_Driver/src/stm32f4xx_flash.c **** }
 998              		.loc 1 818 0
 999 0064 1846     		mov	r0, r3
 1000 0066 05B0     		add	sp, sp, #20
 1001              	.LCFI25:
 1002              		.cfi_def_cfa_offset 4
 1003              		@ sp needed
 1004 0068 5DF804FB 		ldr	pc, [sp], #4
 1005              	.L81:
 1006              		.align	2
 1007              	.L80:
 1008 006c 003C0240 		.word	1073888256
 1009              		.cfi_endproc
 1010              	.LFE136:
 1012              		.section	.text.FLASH_ProgramHalfWord,"ax",%progbits
 1013              		.align	1
 1014              		.global	FLASH_ProgramHalfWord
 1015              		.syntax unified
 1016              		.thumb
 1017              		.thumb_func
 1018              		.fpu fpv4-sp-d16
 1020              	FLASH_ProgramHalfWord:
 1021              	.LFB137:
 819:/home/rdu/Workspace/project_templates/mcu/stm32_ws/src/libraries/STM32F4xx_StdPeriph_Driver/src/stm32f4xx_flash.c **** 
 820:/home/rdu/Workspace/project_templates/mcu/stm32_ws/src/libraries/STM32F4xx_StdPeriph_Driver/src/stm32f4xx_flash.c **** /**
 821:/home/rdu/Workspace/project_templates/mcu/stm32_ws/src/libraries/STM32F4xx_StdPeriph_Driver/src/stm32f4xx_flash.c ****   * @brief  Programs a half word (16-bit) at a specified address. 
 822:/home/rdu/Workspace/project_templates/mcu/stm32_ws/src/libraries/STM32F4xx_StdPeriph_Driver/src/stm32f4xx_flash.c ****   * @note   This function must be used when the device voltage range is from 2.1V to 3.6V. 
 823:/home/rdu/Workspace/project_templates/mcu/stm32_ws/src/libraries/STM32F4xx_StdPeriph_Driver/src/stm32f4xx_flash.c ****   *
 824:/home/rdu/Workspace/project_templates/mcu/stm32_ws/src/libraries/STM32F4xx_StdPeriph_Driver/src/stm32f4xx_flash.c ****   * @note   If an erase and a program operations are requested simultaneously,    
 825:/home/rdu/Workspace/project_templates/mcu/stm32_ws/src/libraries/STM32F4xx_StdPeriph_Driver/src/stm32f4xx_flash.c ****   *         the erase operation is performed before the program one.
 826:/home/rdu/Workspace/project_templates/mcu/stm32_ws/src/libraries/STM32F4xx_StdPeriph_Driver/src/stm32f4xx_flash.c ****   * 
 827:/home/rdu/Workspace/project_templates/mcu/stm32_ws/src/libraries/STM32F4xx_StdPeriph_Driver/src/stm32f4xx_flash.c ****   * @param  Address: specifies the address to be programmed.
 828:/home/rdu/Workspace/project_templates/mcu/stm32_ws/src/libraries/STM32F4xx_StdPeriph_Driver/src/stm32f4xx_flash.c ****   *         This parameter can be any address in Program memory zone or in OTP zone.  
 829:/home/rdu/Workspace/project_templates/mcu/stm32_ws/src/libraries/STM32F4xx_StdPeriph_Driver/src/stm32f4xx_flash.c ****   * @param  Data: specifies the data to be programmed.
 830:/home/rdu/Workspace/project_templates/mcu/stm32_ws/src/libraries/STM32F4xx_StdPeriph_Driver/src/stm32f4xx_flash.c ****   * @retval FLASH Status: The returned value can be: FLASH_BUSY, FLASH_ERROR_PROGRAM,
 831:/home/rdu/Workspace/project_templates/mcu/stm32_ws/src/libraries/STM32F4xx_StdPeriph_Driver/src/stm32f4xx_flash.c ****   *                       FLASH_ERROR_WRP, FLASH_ERROR_OPERATION or FLASH_COMPLETE.
 832:/home/rdu/Workspace/project_templates/mcu/stm32_ws/src/libraries/STM32F4xx_StdPeriph_Driver/src/stm32f4xx_flash.c ****   */
 833:/home/rdu/Workspace/project_templates/mcu/stm32_ws/src/libraries/STM32F4xx_StdPeriph_Driver/src/stm32f4xx_flash.c **** FLASH_Status FLASH_ProgramHalfWord(uint32_t Address, uint16_t Data)
 834:/home/rdu/Workspace/project_templates/mcu/stm32_ws/src/libraries/STM32F4xx_StdPeriph_Driver/src/stm32f4xx_flash.c **** {
 1022              		.loc 1 834 0
 1023              		.cfi_startproc
 1024              		@ args = 0, pretend = 0, frame = 16
 1025              		@ frame_needed = 0, uses_anonymous_args = 0
 1026 0000 00B5     		push	{lr}
 1027              	.LCFI26:
 1028              		.cfi_def_cfa_offset 4
 1029              		.cfi_offset 14, -4
 1030 0002 85B0     		sub	sp, sp, #20
 1031              	.LCFI27:
 1032              		.cfi_def_cfa_offset 24
 1033 0004 0190     		str	r0, [sp, #4]
 1034 0006 0B46     		mov	r3, r1
 1035 0008 ADF80230 		strh	r3, [sp, #2]	@ movhi
 835:/home/rdu/Workspace/project_templates/mcu/stm32_ws/src/libraries/STM32F4xx_StdPeriph_Driver/src/stm32f4xx_flash.c ****   FLASH_Status status = FLASH_COMPLETE;
 1036              		.loc 1 835 0
 1037 000c 0923     		movs	r3, #9
 1038 000e 8DF80F30 		strb	r3, [sp, #15]
 836:/home/rdu/Workspace/project_templates/mcu/stm32_ws/src/libraries/STM32F4xx_StdPeriph_Driver/src/stm32f4xx_flash.c **** 
 837:/home/rdu/Workspace/project_templates/mcu/stm32_ws/src/libraries/STM32F4xx_StdPeriph_Driver/src/stm32f4xx_flash.c ****   /* Check the parameters */
 838:/home/rdu/Workspace/project_templates/mcu/stm32_ws/src/libraries/STM32F4xx_StdPeriph_Driver/src/stm32f4xx_flash.c ****   assert_param(IS_FLASH_ADDRESS(Address));
 839:/home/rdu/Workspace/project_templates/mcu/stm32_ws/src/libraries/STM32F4xx_StdPeriph_Driver/src/stm32f4xx_flash.c **** 
 840:/home/rdu/Workspace/project_templates/mcu/stm32_ws/src/libraries/STM32F4xx_StdPeriph_Driver/src/stm32f4xx_flash.c ****   /* Wait for last operation to be completed */
 841:/home/rdu/Workspace/project_templates/mcu/stm32_ws/src/libraries/STM32F4xx_StdPeriph_Driver/src/stm32f4xx_flash.c ****   status = FLASH_WaitForLastOperation();
 1039              		.loc 1 841 0
 1040 0012 FFF7FEFF 		bl	FLASH_WaitForLastOperation
 1041 0016 0346     		mov	r3, r0
 1042 0018 8DF80F30 		strb	r3, [sp, #15]
 842:/home/rdu/Workspace/project_templates/mcu/stm32_ws/src/libraries/STM32F4xx_StdPeriph_Driver/src/stm32f4xx_flash.c ****   
 843:/home/rdu/Workspace/project_templates/mcu/stm32_ws/src/libraries/STM32F4xx_StdPeriph_Driver/src/stm32f4xx_flash.c ****   if(status == FLASH_COMPLETE)
 1043              		.loc 1 843 0
 1044 001c 9DF80F30 		ldrb	r3, [sp, #15]	@ zero_extendqisi2
 1045 0020 092B     		cmp	r3, #9
 1046 0022 20D1     		bne	.L83
 844:/home/rdu/Workspace/project_templates/mcu/stm32_ws/src/libraries/STM32F4xx_StdPeriph_Driver/src/stm32f4xx_flash.c ****   {
 845:/home/rdu/Workspace/project_templates/mcu/stm32_ws/src/libraries/STM32F4xx_StdPeriph_Driver/src/stm32f4xx_flash.c ****     /* if the previous operation is completed, proceed to program the new data */
 846:/home/rdu/Workspace/project_templates/mcu/stm32_ws/src/libraries/STM32F4xx_StdPeriph_Driver/src/stm32f4xx_flash.c ****     FLASH->CR &= CR_PSIZE_MASK;
 1047              		.loc 1 846 0
 1048 0024 134B     		ldr	r3, .L85
 1049 0026 1B69     		ldr	r3, [r3, #16]
 1050 0028 124A     		ldr	r2, .L85
 1051 002a 23F44073 		bic	r3, r3, #768
 1052 002e 1361     		str	r3, [r2, #16]
 847:/home/rdu/Workspace/project_templates/mcu/stm32_ws/src/libraries/STM32F4xx_StdPeriph_Driver/src/stm32f4xx_flash.c ****     FLASH->CR |= FLASH_PSIZE_HALF_WORD;
 1053              		.loc 1 847 0
 1054 0030 104B     		ldr	r3, .L85
 1055 0032 1B69     		ldr	r3, [r3, #16]
 1056 0034 0F4A     		ldr	r2, .L85
 1057 0036 43F48073 		orr	r3, r3, #256
 1058 003a 1361     		str	r3, [r2, #16]
 848:/home/rdu/Workspace/project_templates/mcu/stm32_ws/src/libraries/STM32F4xx_StdPeriph_Driver/src/stm32f4xx_flash.c ****     FLASH->CR |= FLASH_CR_PG;
 1059              		.loc 1 848 0
 1060 003c 0D4B     		ldr	r3, .L85
 1061 003e 1B69     		ldr	r3, [r3, #16]
 1062 0040 0C4A     		ldr	r2, .L85
 1063 0042 43F00103 		orr	r3, r3, #1
 1064 0046 1361     		str	r3, [r2, #16]
 849:/home/rdu/Workspace/project_templates/mcu/stm32_ws/src/libraries/STM32F4xx_StdPeriph_Driver/src/stm32f4xx_flash.c ****   
 850:/home/rdu/Workspace/project_templates/mcu/stm32_ws/src/libraries/STM32F4xx_StdPeriph_Driver/src/stm32f4xx_flash.c ****     *(__IO uint16_t*)Address = Data;
 1065              		.loc 1 850 0
 1066 0048 019B     		ldr	r3, [sp, #4]
 1067 004a BDF80220 		ldrh	r2, [sp, #2]	@ movhi
 1068 004e 1A80     		strh	r2, [r3]	@ movhi
 851:/home/rdu/Workspace/project_templates/mcu/stm32_ws/src/libraries/STM32F4xx_StdPeriph_Driver/src/stm32f4xx_flash.c ****         
 852:/home/rdu/Workspace/project_templates/mcu/stm32_ws/src/libraries/STM32F4xx_StdPeriph_Driver/src/stm32f4xx_flash.c ****     /* Wait for last operation to be completed */
 853:/home/rdu/Workspace/project_templates/mcu/stm32_ws/src/libraries/STM32F4xx_StdPeriph_Driver/src/stm32f4xx_flash.c ****     status = FLASH_WaitForLastOperation();
 1069              		.loc 1 853 0
 1070 0050 FFF7FEFF 		bl	FLASH_WaitForLastOperation
 1071 0054 0346     		mov	r3, r0
 1072 0056 8DF80F30 		strb	r3, [sp, #15]
 854:/home/rdu/Workspace/project_templates/mcu/stm32_ws/src/libraries/STM32F4xx_StdPeriph_Driver/src/stm32f4xx_flash.c **** 
 855:/home/rdu/Workspace/project_templates/mcu/stm32_ws/src/libraries/STM32F4xx_StdPeriph_Driver/src/stm32f4xx_flash.c ****     /* if the program operation is completed, disable the PG Bit */
 856:/home/rdu/Workspace/project_templates/mcu/stm32_ws/src/libraries/STM32F4xx_StdPeriph_Driver/src/stm32f4xx_flash.c ****     FLASH->CR &= (~FLASH_CR_PG);
 1073              		.loc 1 856 0
 1074 005a 064B     		ldr	r3, .L85
 1075 005c 1B69     		ldr	r3, [r3, #16]
 1076 005e 054A     		ldr	r2, .L85
 1077 0060 23F00103 		bic	r3, r3, #1
 1078 0064 1361     		str	r3, [r2, #16]
 1079              	.L83:
 857:/home/rdu/Workspace/project_templates/mcu/stm32_ws/src/libraries/STM32F4xx_StdPeriph_Driver/src/stm32f4xx_flash.c ****   } 
 858:/home/rdu/Workspace/project_templates/mcu/stm32_ws/src/libraries/STM32F4xx_StdPeriph_Driver/src/stm32f4xx_flash.c ****   /* Return the Program Status */
 859:/home/rdu/Workspace/project_templates/mcu/stm32_ws/src/libraries/STM32F4xx_StdPeriph_Driver/src/stm32f4xx_flash.c ****   return status;
 1080              		.loc 1 859 0
 1081 0066 9DF80F30 		ldrb	r3, [sp, #15]	@ zero_extendqisi2
 860:/home/rdu/Workspace/project_templates/mcu/stm32_ws/src/libraries/STM32F4xx_StdPeriph_Driver/src/stm32f4xx_flash.c **** }
 1082              		.loc 1 860 0
 1083 006a 1846     		mov	r0, r3
 1084 006c 05B0     		add	sp, sp, #20
 1085              	.LCFI28:
 1086              		.cfi_def_cfa_offset 4
 1087              		@ sp needed
 1088 006e 5DF804FB 		ldr	pc, [sp], #4
 1089              	.L86:
 1090 0072 00BF     		.align	2
 1091              	.L85:
 1092 0074 003C0240 		.word	1073888256
 1093              		.cfi_endproc
 1094              	.LFE137:
 1096              		.section	.text.FLASH_ProgramByte,"ax",%progbits
 1097              		.align	1
 1098              		.global	FLASH_ProgramByte
 1099              		.syntax unified
 1100              		.thumb
 1101              		.thumb_func
 1102              		.fpu fpv4-sp-d16
 1104              	FLASH_ProgramByte:
 1105              	.LFB138:
 861:/home/rdu/Workspace/project_templates/mcu/stm32_ws/src/libraries/STM32F4xx_StdPeriph_Driver/src/stm32f4xx_flash.c **** 
 862:/home/rdu/Workspace/project_templates/mcu/stm32_ws/src/libraries/STM32F4xx_StdPeriph_Driver/src/stm32f4xx_flash.c **** /**
 863:/home/rdu/Workspace/project_templates/mcu/stm32_ws/src/libraries/STM32F4xx_StdPeriph_Driver/src/stm32f4xx_flash.c ****   * @brief  Programs a byte (8-bit) at a specified address.
 864:/home/rdu/Workspace/project_templates/mcu/stm32_ws/src/libraries/STM32F4xx_StdPeriph_Driver/src/stm32f4xx_flash.c ****   * @note   This function can be used within all the device supply voltage ranges.  
 865:/home/rdu/Workspace/project_templates/mcu/stm32_ws/src/libraries/STM32F4xx_StdPeriph_Driver/src/stm32f4xx_flash.c ****   *
 866:/home/rdu/Workspace/project_templates/mcu/stm32_ws/src/libraries/STM32F4xx_StdPeriph_Driver/src/stm32f4xx_flash.c ****   * @note   If an erase and a program operations are requested simultaneously,    
 867:/home/rdu/Workspace/project_templates/mcu/stm32_ws/src/libraries/STM32F4xx_StdPeriph_Driver/src/stm32f4xx_flash.c ****   *         the erase operation is performed before the program one.
 868:/home/rdu/Workspace/project_templates/mcu/stm32_ws/src/libraries/STM32F4xx_StdPeriph_Driver/src/stm32f4xx_flash.c ****   * 
 869:/home/rdu/Workspace/project_templates/mcu/stm32_ws/src/libraries/STM32F4xx_StdPeriph_Driver/src/stm32f4xx_flash.c ****   * @param  Address: specifies the address to be programmed.
 870:/home/rdu/Workspace/project_templates/mcu/stm32_ws/src/libraries/STM32F4xx_StdPeriph_Driver/src/stm32f4xx_flash.c ****   *         This parameter can be any address in Program memory zone or in OTP zone.  
 871:/home/rdu/Workspace/project_templates/mcu/stm32_ws/src/libraries/STM32F4xx_StdPeriph_Driver/src/stm32f4xx_flash.c ****   * @param  Data: specifies the data to be programmed.
 872:/home/rdu/Workspace/project_templates/mcu/stm32_ws/src/libraries/STM32F4xx_StdPeriph_Driver/src/stm32f4xx_flash.c ****   * @retval FLASH Status: The returned value can be: FLASH_BUSY, FLASH_ERROR_PROGRAM,
 873:/home/rdu/Workspace/project_templates/mcu/stm32_ws/src/libraries/STM32F4xx_StdPeriph_Driver/src/stm32f4xx_flash.c ****   *                       FLASH_ERROR_WRP, FLASH_ERROR_OPERATION or FLASH_COMPLETE.
 874:/home/rdu/Workspace/project_templates/mcu/stm32_ws/src/libraries/STM32F4xx_StdPeriph_Driver/src/stm32f4xx_flash.c ****   */
 875:/home/rdu/Workspace/project_templates/mcu/stm32_ws/src/libraries/STM32F4xx_StdPeriph_Driver/src/stm32f4xx_flash.c **** FLASH_Status FLASH_ProgramByte(uint32_t Address, uint8_t Data)
 876:/home/rdu/Workspace/project_templates/mcu/stm32_ws/src/libraries/STM32F4xx_StdPeriph_Driver/src/stm32f4xx_flash.c **** {
 1106              		.loc 1 876 0
 1107              		.cfi_startproc
 1108              		@ args = 0, pretend = 0, frame = 16
 1109              		@ frame_needed = 0, uses_anonymous_args = 0
 1110 0000 00B5     		push	{lr}
 1111              	.LCFI29:
 1112              		.cfi_def_cfa_offset 4
 1113              		.cfi_offset 14, -4
 1114 0002 85B0     		sub	sp, sp, #20
 1115              	.LCFI30:
 1116              		.cfi_def_cfa_offset 24
 1117 0004 0190     		str	r0, [sp, #4]
 1118 0006 0B46     		mov	r3, r1
 1119 0008 8DF80330 		strb	r3, [sp, #3]
 877:/home/rdu/Workspace/project_templates/mcu/stm32_ws/src/libraries/STM32F4xx_StdPeriph_Driver/src/stm32f4xx_flash.c ****   FLASH_Status status = FLASH_COMPLETE;
 1120              		.loc 1 877 0
 1121 000c 0923     		movs	r3, #9
 1122 000e 8DF80F30 		strb	r3, [sp, #15]
 878:/home/rdu/Workspace/project_templates/mcu/stm32_ws/src/libraries/STM32F4xx_StdPeriph_Driver/src/stm32f4xx_flash.c **** 
 879:/home/rdu/Workspace/project_templates/mcu/stm32_ws/src/libraries/STM32F4xx_StdPeriph_Driver/src/stm32f4xx_flash.c ****   /* Check the parameters */
 880:/home/rdu/Workspace/project_templates/mcu/stm32_ws/src/libraries/STM32F4xx_StdPeriph_Driver/src/stm32f4xx_flash.c ****   assert_param(IS_FLASH_ADDRESS(Address));
 881:/home/rdu/Workspace/project_templates/mcu/stm32_ws/src/libraries/STM32F4xx_StdPeriph_Driver/src/stm32f4xx_flash.c **** 
 882:/home/rdu/Workspace/project_templates/mcu/stm32_ws/src/libraries/STM32F4xx_StdPeriph_Driver/src/stm32f4xx_flash.c ****   /* Wait for last operation to be completed */
 883:/home/rdu/Workspace/project_templates/mcu/stm32_ws/src/libraries/STM32F4xx_StdPeriph_Driver/src/stm32f4xx_flash.c ****   status = FLASH_WaitForLastOperation();
 1123              		.loc 1 883 0
 1124 0012 FFF7FEFF 		bl	FLASH_WaitForLastOperation
 1125 0016 0346     		mov	r3, r0
 1126 0018 8DF80F30 		strb	r3, [sp, #15]
 884:/home/rdu/Workspace/project_templates/mcu/stm32_ws/src/libraries/STM32F4xx_StdPeriph_Driver/src/stm32f4xx_flash.c ****   
 885:/home/rdu/Workspace/project_templates/mcu/stm32_ws/src/libraries/STM32F4xx_StdPeriph_Driver/src/stm32f4xx_flash.c ****   if(status == FLASH_COMPLETE)
 1127              		.loc 1 885 0
 1128 001c 9DF80F30 		ldrb	r3, [sp, #15]	@ zero_extendqisi2
 1129 0020 092B     		cmp	r3, #9
 1130 0022 1ED1     		bne	.L88
 886:/home/rdu/Workspace/project_templates/mcu/stm32_ws/src/libraries/STM32F4xx_StdPeriph_Driver/src/stm32f4xx_flash.c ****   {
 887:/home/rdu/Workspace/project_templates/mcu/stm32_ws/src/libraries/STM32F4xx_StdPeriph_Driver/src/stm32f4xx_flash.c ****     /* if the previous operation is completed, proceed to program the new data */
 888:/home/rdu/Workspace/project_templates/mcu/stm32_ws/src/libraries/STM32F4xx_StdPeriph_Driver/src/stm32f4xx_flash.c ****     FLASH->CR &= CR_PSIZE_MASK;
 1131              		.loc 1 888 0
 1132 0024 124B     		ldr	r3, .L90
 1133 0026 1B69     		ldr	r3, [r3, #16]
 1134 0028 114A     		ldr	r2, .L90
 1135 002a 23F44073 		bic	r3, r3, #768
 1136 002e 1361     		str	r3, [r2, #16]
 889:/home/rdu/Workspace/project_templates/mcu/stm32_ws/src/libraries/STM32F4xx_StdPeriph_Driver/src/stm32f4xx_flash.c ****     FLASH->CR |= FLASH_PSIZE_BYTE;
 1137              		.loc 1 889 0
 1138 0030 0F4B     		ldr	r3, .L90
 1139 0032 0F4A     		ldr	r2, .L90
 1140 0034 1B69     		ldr	r3, [r3, #16]
 1141 0036 1361     		str	r3, [r2, #16]
 890:/home/rdu/Workspace/project_templates/mcu/stm32_ws/src/libraries/STM32F4xx_StdPeriph_Driver/src/stm32f4xx_flash.c ****     FLASH->CR |= FLASH_CR_PG;
 1142              		.loc 1 890 0
 1143 0038 0D4B     		ldr	r3, .L90
 1144 003a 1B69     		ldr	r3, [r3, #16]
 1145 003c 0C4A     		ldr	r2, .L90
 1146 003e 43F00103 		orr	r3, r3, #1
 1147 0042 1361     		str	r3, [r2, #16]
 891:/home/rdu/Workspace/project_templates/mcu/stm32_ws/src/libraries/STM32F4xx_StdPeriph_Driver/src/stm32f4xx_flash.c ****   
 892:/home/rdu/Workspace/project_templates/mcu/stm32_ws/src/libraries/STM32F4xx_StdPeriph_Driver/src/stm32f4xx_flash.c ****     *(__IO uint8_t*)Address = Data;
 1148              		.loc 1 892 0
 1149 0044 019B     		ldr	r3, [sp, #4]
 1150 0046 9DF80320 		ldrb	r2, [sp, #3]
 1151 004a 1A70     		strb	r2, [r3]
 893:/home/rdu/Workspace/project_templates/mcu/stm32_ws/src/libraries/STM32F4xx_StdPeriph_Driver/src/stm32f4xx_flash.c ****         
 894:/home/rdu/Workspace/project_templates/mcu/stm32_ws/src/libraries/STM32F4xx_StdPeriph_Driver/src/stm32f4xx_flash.c ****     /* Wait for last operation to be completed */
 895:/home/rdu/Workspace/project_templates/mcu/stm32_ws/src/libraries/STM32F4xx_StdPeriph_Driver/src/stm32f4xx_flash.c ****     status = FLASH_WaitForLastOperation();
 1152              		.loc 1 895 0
 1153 004c FFF7FEFF 		bl	FLASH_WaitForLastOperation
 1154 0050 0346     		mov	r3, r0
 1155 0052 8DF80F30 		strb	r3, [sp, #15]
 896:/home/rdu/Workspace/project_templates/mcu/stm32_ws/src/libraries/STM32F4xx_StdPeriph_Driver/src/stm32f4xx_flash.c **** 
 897:/home/rdu/Workspace/project_templates/mcu/stm32_ws/src/libraries/STM32F4xx_StdPeriph_Driver/src/stm32f4xx_flash.c ****     /* if the program operation is completed, disable the PG Bit */
 898:/home/rdu/Workspace/project_templates/mcu/stm32_ws/src/libraries/STM32F4xx_StdPeriph_Driver/src/stm32f4xx_flash.c ****     FLASH->CR &= (~FLASH_CR_PG);
 1156              		.loc 1 898 0
 1157 0056 064B     		ldr	r3, .L90
 1158 0058 1B69     		ldr	r3, [r3, #16]
 1159 005a 054A     		ldr	r2, .L90
 1160 005c 23F00103 		bic	r3, r3, #1
 1161 0060 1361     		str	r3, [r2, #16]
 1162              	.L88:
 899:/home/rdu/Workspace/project_templates/mcu/stm32_ws/src/libraries/STM32F4xx_StdPeriph_Driver/src/stm32f4xx_flash.c ****   } 
 900:/home/rdu/Workspace/project_templates/mcu/stm32_ws/src/libraries/STM32F4xx_StdPeriph_Driver/src/stm32f4xx_flash.c **** 
 901:/home/rdu/Workspace/project_templates/mcu/stm32_ws/src/libraries/STM32F4xx_StdPeriph_Driver/src/stm32f4xx_flash.c ****   /* Return the Program Status */
 902:/home/rdu/Workspace/project_templates/mcu/stm32_ws/src/libraries/STM32F4xx_StdPeriph_Driver/src/stm32f4xx_flash.c ****   return status;
 1163              		.loc 1 902 0
 1164 0062 9DF80F30 		ldrb	r3, [sp, #15]	@ zero_extendqisi2
 903:/home/rdu/Workspace/project_templates/mcu/stm32_ws/src/libraries/STM32F4xx_StdPeriph_Driver/src/stm32f4xx_flash.c **** }
 1165              		.loc 1 903 0
 1166 0066 1846     		mov	r0, r3
 1167 0068 05B0     		add	sp, sp, #20
 1168              	.LCFI31:
 1169              		.cfi_def_cfa_offset 4
 1170              		@ sp needed
 1171 006a 5DF804FB 		ldr	pc, [sp], #4
 1172              	.L91:
 1173 006e 00BF     		.align	2
 1174              	.L90:
 1175 0070 003C0240 		.word	1073888256
 1176              		.cfi_endproc
 1177              	.LFE138:
 1179              		.section	.text.FLASH_OB_Unlock,"ax",%progbits
 1180              		.align	1
 1181              		.global	FLASH_OB_Unlock
 1182              		.syntax unified
 1183              		.thumb
 1184              		.thumb_func
 1185              		.fpu fpv4-sp-d16
 1187              	FLASH_OB_Unlock:
 1188              	.LFB139:
 904:/home/rdu/Workspace/project_templates/mcu/stm32_ws/src/libraries/STM32F4xx_StdPeriph_Driver/src/stm32f4xx_flash.c **** 
 905:/home/rdu/Workspace/project_templates/mcu/stm32_ws/src/libraries/STM32F4xx_StdPeriph_Driver/src/stm32f4xx_flash.c **** /**
 906:/home/rdu/Workspace/project_templates/mcu/stm32_ws/src/libraries/STM32F4xx_StdPeriph_Driver/src/stm32f4xx_flash.c ****   * @}
 907:/home/rdu/Workspace/project_templates/mcu/stm32_ws/src/libraries/STM32F4xx_StdPeriph_Driver/src/stm32f4xx_flash.c ****   */
 908:/home/rdu/Workspace/project_templates/mcu/stm32_ws/src/libraries/STM32F4xx_StdPeriph_Driver/src/stm32f4xx_flash.c **** 
 909:/home/rdu/Workspace/project_templates/mcu/stm32_ws/src/libraries/STM32F4xx_StdPeriph_Driver/src/stm32f4xx_flash.c **** /** @defgroup FLASH_Group3 Option Bytes Programming functions
 910:/home/rdu/Workspace/project_templates/mcu/stm32_ws/src/libraries/STM32F4xx_StdPeriph_Driver/src/stm32f4xx_flash.c ****  *  @brief   Option Bytes Programming functions 
 911:/home/rdu/Workspace/project_templates/mcu/stm32_ws/src/libraries/STM32F4xx_StdPeriph_Driver/src/stm32f4xx_flash.c ****  *
 912:/home/rdu/Workspace/project_templates/mcu/stm32_ws/src/libraries/STM32F4xx_StdPeriph_Driver/src/stm32f4xx_flash.c **** @verbatim   
 913:/home/rdu/Workspace/project_templates/mcu/stm32_ws/src/libraries/STM32F4xx_StdPeriph_Driver/src/stm32f4xx_flash.c ****  ===============================================================================
 914:/home/rdu/Workspace/project_templates/mcu/stm32_ws/src/libraries/STM32F4xx_StdPeriph_Driver/src/stm32f4xx_flash.c ****                 ##### Option Bytes Programming functions #####
 915:/home/rdu/Workspace/project_templates/mcu/stm32_ws/src/libraries/STM32F4xx_StdPeriph_Driver/src/stm32f4xx_flash.c ****  ===============================================================================  
 916:/home/rdu/Workspace/project_templates/mcu/stm32_ws/src/libraries/STM32F4xx_StdPeriph_Driver/src/stm32f4xx_flash.c ****     [..]
 917:/home/rdu/Workspace/project_templates/mcu/stm32_ws/src/libraries/STM32F4xx_StdPeriph_Driver/src/stm32f4xx_flash.c ****       This group includes the following functions:
 918:/home/rdu/Workspace/project_templates/mcu/stm32_ws/src/libraries/STM32F4xx_StdPeriph_Driver/src/stm32f4xx_flash.c ****       (+) void FLASH_OB_Unlock(void)
 919:/home/rdu/Workspace/project_templates/mcu/stm32_ws/src/libraries/STM32F4xx_StdPeriph_Driver/src/stm32f4xx_flash.c ****       (+) void FLASH_OB_Lock(void)
 920:/home/rdu/Workspace/project_templates/mcu/stm32_ws/src/libraries/STM32F4xx_StdPeriph_Driver/src/stm32f4xx_flash.c ****       (+) void FLASH_OB_WRPConfig(uint32_t OB_WRP, FunctionalState NewState)
 921:/home/rdu/Workspace/project_templates/mcu/stm32_ws/src/libraries/STM32F4xx_StdPeriph_Driver/src/stm32f4xx_flash.c ****       (+) void FLASH_OB_WRP1Config(uint32_t OB_WRP, FunctionalState NewState)  
 922:/home/rdu/Workspace/project_templates/mcu/stm32_ws/src/libraries/STM32F4xx_StdPeriph_Driver/src/stm32f4xx_flash.c ****       (+) void FLASH_OB_PCROPSelectionConfig(uint8_t OB_PCROPSelect)
 923:/home/rdu/Workspace/project_templates/mcu/stm32_ws/src/libraries/STM32F4xx_StdPeriph_Driver/src/stm32f4xx_flash.c ****       (+) void FLASH_OB_PCROPConfig(uint32_t OB_PCROP, FunctionalState NewState)
 924:/home/rdu/Workspace/project_templates/mcu/stm32_ws/src/libraries/STM32F4xx_StdPeriph_Driver/src/stm32f4xx_flash.c ****       (+) void FLASH_OB_PCROP1Config(uint32_t OB_PCROP, FunctionalState NewState) 
 925:/home/rdu/Workspace/project_templates/mcu/stm32_ws/src/libraries/STM32F4xx_StdPeriph_Driver/src/stm32f4xx_flash.c ****       (+) void FLASH_OB_RDPConfig(uint8_t OB_RDP)
 926:/home/rdu/Workspace/project_templates/mcu/stm32_ws/src/libraries/STM32F4xx_StdPeriph_Driver/src/stm32f4xx_flash.c ****       (+) void FLASH_OB_UserConfig(uint8_t OB_IWDG, uint8_t OB_STOP, uint8_t OB_STDBY)
 927:/home/rdu/Workspace/project_templates/mcu/stm32_ws/src/libraries/STM32F4xx_StdPeriph_Driver/src/stm32f4xx_flash.c ****       (+) void FLASH_OB_BORConfig(uint8_t OB_BOR)
 928:/home/rdu/Workspace/project_templates/mcu/stm32_ws/src/libraries/STM32F4xx_StdPeriph_Driver/src/stm32f4xx_flash.c ****       (+) FLASH_Status FLASH_ProgramOTP(uint32_t Address, uint32_t Data)
 929:/home/rdu/Workspace/project_templates/mcu/stm32_ws/src/libraries/STM32F4xx_StdPeriph_Driver/src/stm32f4xx_flash.c ****       (+) FLASH_Status FLASH_OB_Launch(void)
 930:/home/rdu/Workspace/project_templates/mcu/stm32_ws/src/libraries/STM32F4xx_StdPeriph_Driver/src/stm32f4xx_flash.c ****       (+) uint32_t FLASH_OB_GetUser(void)
 931:/home/rdu/Workspace/project_templates/mcu/stm32_ws/src/libraries/STM32F4xx_StdPeriph_Driver/src/stm32f4xx_flash.c ****       (+) uint8_t FLASH_OB_GetWRP(void)
 932:/home/rdu/Workspace/project_templates/mcu/stm32_ws/src/libraries/STM32F4xx_StdPeriph_Driver/src/stm32f4xx_flash.c ****       (+) uint8_t FLASH_OB_GetWRP1(void)
 933:/home/rdu/Workspace/project_templates/mcu/stm32_ws/src/libraries/STM32F4xx_StdPeriph_Driver/src/stm32f4xx_flash.c ****       (+) uint8_t FLASH_OB_GetPCROP(void)
 934:/home/rdu/Workspace/project_templates/mcu/stm32_ws/src/libraries/STM32F4xx_StdPeriph_Driver/src/stm32f4xx_flash.c ****       (+) uint8_t FLASH_OB_GetPCROP1(void)
 935:/home/rdu/Workspace/project_templates/mcu/stm32_ws/src/libraries/STM32F4xx_StdPeriph_Driver/src/stm32f4xx_flash.c ****       (+) uint8_t FLASH_OB_GetRDP(void)
 936:/home/rdu/Workspace/project_templates/mcu/stm32_ws/src/libraries/STM32F4xx_StdPeriph_Driver/src/stm32f4xx_flash.c ****       (+) uint8_t FLASH_OB_GetBOR(void)
 937:/home/rdu/Workspace/project_templates/mcu/stm32_ws/src/libraries/STM32F4xx_StdPeriph_Driver/src/stm32f4xx_flash.c ****     [..]  
 938:/home/rdu/Workspace/project_templates/mcu/stm32_ws/src/libraries/STM32F4xx_StdPeriph_Driver/src/stm32f4xx_flash.c ****       The following function can be used only for STM32F42xxx/43xxx devices. 
 939:/home/rdu/Workspace/project_templates/mcu/stm32_ws/src/libraries/STM32F4xx_StdPeriph_Driver/src/stm32f4xx_flash.c ****       (+) void FLASH_OB_BootConfig(uint8_t OB_BOOT)
 940:/home/rdu/Workspace/project_templates/mcu/stm32_ws/src/libraries/STM32F4xx_StdPeriph_Driver/src/stm32f4xx_flash.c ****     [..]   
 941:/home/rdu/Workspace/project_templates/mcu/stm32_ws/src/libraries/STM32F4xx_StdPeriph_Driver/src/stm32f4xx_flash.c ****      Any operation of erase or program should follow these steps:
 942:/home/rdu/Workspace/project_templates/mcu/stm32_ws/src/libraries/STM32F4xx_StdPeriph_Driver/src/stm32f4xx_flash.c ****       (#) Call the FLASH_OB_Unlock() function to enable the FLASH option control 
 943:/home/rdu/Workspace/project_templates/mcu/stm32_ws/src/libraries/STM32F4xx_StdPeriph_Driver/src/stm32f4xx_flash.c ****           register access
 944:/home/rdu/Workspace/project_templates/mcu/stm32_ws/src/libraries/STM32F4xx_StdPeriph_Driver/src/stm32f4xx_flash.c **** 
 945:/home/rdu/Workspace/project_templates/mcu/stm32_ws/src/libraries/STM32F4xx_StdPeriph_Driver/src/stm32f4xx_flash.c ****       (#) Call one or several functions to program the desired Option Bytes:
 946:/home/rdu/Workspace/project_templates/mcu/stm32_ws/src/libraries/STM32F4xx_StdPeriph_Driver/src/stm32f4xx_flash.c ****         (++) void FLASH_OB_WRPConfig(uint32_t OB_WRP, FunctionalState NewState) 
 947:/home/rdu/Workspace/project_templates/mcu/stm32_ws/src/libraries/STM32F4xx_StdPeriph_Driver/src/stm32f4xx_flash.c ****              => to Enable/Disable the desired sector write protection
 948:/home/rdu/Workspace/project_templates/mcu/stm32_ws/src/libraries/STM32F4xx_StdPeriph_Driver/src/stm32f4xx_flash.c ****         (++) void FLASH_OB_RDPConfig(uint8_t OB_RDP) => to set the desired read 
 949:/home/rdu/Workspace/project_templates/mcu/stm32_ws/src/libraries/STM32F4xx_StdPeriph_Driver/src/stm32f4xx_flash.c ****              Protection Level
 950:/home/rdu/Workspace/project_templates/mcu/stm32_ws/src/libraries/STM32F4xx_StdPeriph_Driver/src/stm32f4xx_flash.c ****         (++) void FLASH_OB_UserConfig(uint8_t OB_IWDG, uint8_t OB_STOP, uint8_t OB_STDBY) 
 951:/home/rdu/Workspace/project_templates/mcu/stm32_ws/src/libraries/STM32F4xx_StdPeriph_Driver/src/stm32f4xx_flash.c ****              => to configure the user Option Bytes.
 952:/home/rdu/Workspace/project_templates/mcu/stm32_ws/src/libraries/STM32F4xx_StdPeriph_Driver/src/stm32f4xx_flash.c ****         (++) void FLASH_OB_BORConfig(uint8_t OB_BOR) => to set the BOR Level 			 
 953:/home/rdu/Workspace/project_templates/mcu/stm32_ws/src/libraries/STM32F4xx_StdPeriph_Driver/src/stm32f4xx_flash.c **** 
 954:/home/rdu/Workspace/project_templates/mcu/stm32_ws/src/libraries/STM32F4xx_StdPeriph_Driver/src/stm32f4xx_flash.c ****       (#) Once all needed Option Bytes to be programmed are correctly written, 
 955:/home/rdu/Workspace/project_templates/mcu/stm32_ws/src/libraries/STM32F4xx_StdPeriph_Driver/src/stm32f4xx_flash.c ****           call the FLASH_OB_Launch() function to launch the Option Bytes 
 956:/home/rdu/Workspace/project_templates/mcu/stm32_ws/src/libraries/STM32F4xx_StdPeriph_Driver/src/stm32f4xx_flash.c ****           programming process.
 957:/home/rdu/Workspace/project_templates/mcu/stm32_ws/src/libraries/STM32F4xx_StdPeriph_Driver/src/stm32f4xx_flash.c ****      
 958:/home/rdu/Workspace/project_templates/mcu/stm32_ws/src/libraries/STM32F4xx_StdPeriph_Driver/src/stm32f4xx_flash.c ****       -@- When changing the IWDG mode from HW to SW or from SW to HW, a system 
 959:/home/rdu/Workspace/project_templates/mcu/stm32_ws/src/libraries/STM32F4xx_StdPeriph_Driver/src/stm32f4xx_flash.c ****           reset is needed to make the change effective.  
 960:/home/rdu/Workspace/project_templates/mcu/stm32_ws/src/libraries/STM32F4xx_StdPeriph_Driver/src/stm32f4xx_flash.c **** 
 961:/home/rdu/Workspace/project_templates/mcu/stm32_ws/src/libraries/STM32F4xx_StdPeriph_Driver/src/stm32f4xx_flash.c ****       (#) Call the FLASH_OB_Lock() function to disable the FLASH option control 
 962:/home/rdu/Workspace/project_templates/mcu/stm32_ws/src/libraries/STM32F4xx_StdPeriph_Driver/src/stm32f4xx_flash.c ****           register access (recommended to protect the Option Bytes against 
 963:/home/rdu/Workspace/project_templates/mcu/stm32_ws/src/libraries/STM32F4xx_StdPeriph_Driver/src/stm32f4xx_flash.c ****           possible unwanted operations)
 964:/home/rdu/Workspace/project_templates/mcu/stm32_ws/src/libraries/STM32F4xx_StdPeriph_Driver/src/stm32f4xx_flash.c ****     
 965:/home/rdu/Workspace/project_templates/mcu/stm32_ws/src/libraries/STM32F4xx_StdPeriph_Driver/src/stm32f4xx_flash.c **** @endverbatim
 966:/home/rdu/Workspace/project_templates/mcu/stm32_ws/src/libraries/STM32F4xx_StdPeriph_Driver/src/stm32f4xx_flash.c ****   * @{
 967:/home/rdu/Workspace/project_templates/mcu/stm32_ws/src/libraries/STM32F4xx_StdPeriph_Driver/src/stm32f4xx_flash.c ****   */
 968:/home/rdu/Workspace/project_templates/mcu/stm32_ws/src/libraries/STM32F4xx_StdPeriph_Driver/src/stm32f4xx_flash.c **** 
 969:/home/rdu/Workspace/project_templates/mcu/stm32_ws/src/libraries/STM32F4xx_StdPeriph_Driver/src/stm32f4xx_flash.c **** /**
 970:/home/rdu/Workspace/project_templates/mcu/stm32_ws/src/libraries/STM32F4xx_StdPeriph_Driver/src/stm32f4xx_flash.c ****   * @brief  Unlocks the FLASH Option Control Registers access.
 971:/home/rdu/Workspace/project_templates/mcu/stm32_ws/src/libraries/STM32F4xx_StdPeriph_Driver/src/stm32f4xx_flash.c ****   * @param  None
 972:/home/rdu/Workspace/project_templates/mcu/stm32_ws/src/libraries/STM32F4xx_StdPeriph_Driver/src/stm32f4xx_flash.c ****   * @retval None
 973:/home/rdu/Workspace/project_templates/mcu/stm32_ws/src/libraries/STM32F4xx_StdPeriph_Driver/src/stm32f4xx_flash.c ****   */
 974:/home/rdu/Workspace/project_templates/mcu/stm32_ws/src/libraries/STM32F4xx_StdPeriph_Driver/src/stm32f4xx_flash.c **** void FLASH_OB_Unlock(void)
 975:/home/rdu/Workspace/project_templates/mcu/stm32_ws/src/libraries/STM32F4xx_StdPeriph_Driver/src/stm32f4xx_flash.c **** {
 1189              		.loc 1 975 0
 1190              		.cfi_startproc
 1191              		@ args = 0, pretend = 0, frame = 0
 1192              		@ frame_needed = 0, uses_anonymous_args = 0
 1193              		@ link register save eliminated.
 976:/home/rdu/Workspace/project_templates/mcu/stm32_ws/src/libraries/STM32F4xx_StdPeriph_Driver/src/stm32f4xx_flash.c ****   if((FLASH->OPTCR & FLASH_OPTCR_OPTLOCK) != RESET)
 1194              		.loc 1 976 0
 1195 0000 064B     		ldr	r3, .L95
 1196 0002 5B69     		ldr	r3, [r3, #20]
 1197 0004 03F00103 		and	r3, r3, #1
 1198 0008 002B     		cmp	r3, #0
 1199 000a 05D0     		beq	.L94
 977:/home/rdu/Workspace/project_templates/mcu/stm32_ws/src/libraries/STM32F4xx_StdPeriph_Driver/src/stm32f4xx_flash.c ****   {
 978:/home/rdu/Workspace/project_templates/mcu/stm32_ws/src/libraries/STM32F4xx_StdPeriph_Driver/src/stm32f4xx_flash.c ****     /* Authorizes the Option Byte register programming */
 979:/home/rdu/Workspace/project_templates/mcu/stm32_ws/src/libraries/STM32F4xx_StdPeriph_Driver/src/stm32f4xx_flash.c ****     FLASH->OPTKEYR = FLASH_OPT_KEY1;
 1200              		.loc 1 979 0
 1201 000c 034B     		ldr	r3, .L95
 1202 000e 044A     		ldr	r2, .L95+4
 1203 0010 9A60     		str	r2, [r3, #8]
 980:/home/rdu/Workspace/project_templates/mcu/stm32_ws/src/libraries/STM32F4xx_StdPeriph_Driver/src/stm32f4xx_flash.c ****     FLASH->OPTKEYR = FLASH_OPT_KEY2;
 1204              		.loc 1 980 0
 1205 0012 024B     		ldr	r3, .L95
 1206 0014 034A     		ldr	r2, .L95+8
 1207 0016 9A60     		str	r2, [r3, #8]
 1208              	.L94:
 981:/home/rdu/Workspace/project_templates/mcu/stm32_ws/src/libraries/STM32F4xx_StdPeriph_Driver/src/stm32f4xx_flash.c ****   }  
 982:/home/rdu/Workspace/project_templates/mcu/stm32_ws/src/libraries/STM32F4xx_StdPeriph_Driver/src/stm32f4xx_flash.c **** }
 1209              		.loc 1 982 0
 1210 0018 00BF     		nop
 1211 001a 7047     		bx	lr
 1212              	.L96:
 1213              		.align	2
 1214              	.L95:
 1215 001c 003C0240 		.word	1073888256
 1216 0020 3B2A1908 		.word	135866939
 1217 0024 7F6E5D4C 		.word	1281191551
 1218              		.cfi_endproc
 1219              	.LFE139:
 1221              		.section	.text.FLASH_OB_Lock,"ax",%progbits
 1222              		.align	1
 1223              		.global	FLASH_OB_Lock
 1224              		.syntax unified
 1225              		.thumb
 1226              		.thumb_func
 1227              		.fpu fpv4-sp-d16
 1229              	FLASH_OB_Lock:
 1230              	.LFB140:
 983:/home/rdu/Workspace/project_templates/mcu/stm32_ws/src/libraries/STM32F4xx_StdPeriph_Driver/src/stm32f4xx_flash.c **** 
 984:/home/rdu/Workspace/project_templates/mcu/stm32_ws/src/libraries/STM32F4xx_StdPeriph_Driver/src/stm32f4xx_flash.c **** /**
 985:/home/rdu/Workspace/project_templates/mcu/stm32_ws/src/libraries/STM32F4xx_StdPeriph_Driver/src/stm32f4xx_flash.c ****   * @brief  Locks the FLASH Option Control Registers access.
 986:/home/rdu/Workspace/project_templates/mcu/stm32_ws/src/libraries/STM32F4xx_StdPeriph_Driver/src/stm32f4xx_flash.c ****   * @param  None
 987:/home/rdu/Workspace/project_templates/mcu/stm32_ws/src/libraries/STM32F4xx_StdPeriph_Driver/src/stm32f4xx_flash.c ****   * @retval None
 988:/home/rdu/Workspace/project_templates/mcu/stm32_ws/src/libraries/STM32F4xx_StdPeriph_Driver/src/stm32f4xx_flash.c ****   */
 989:/home/rdu/Workspace/project_templates/mcu/stm32_ws/src/libraries/STM32F4xx_StdPeriph_Driver/src/stm32f4xx_flash.c **** void FLASH_OB_Lock(void)
 990:/home/rdu/Workspace/project_templates/mcu/stm32_ws/src/libraries/STM32F4xx_StdPeriph_Driver/src/stm32f4xx_flash.c **** {
 1231              		.loc 1 990 0
 1232              		.cfi_startproc
 1233              		@ args = 0, pretend = 0, frame = 0
 1234              		@ frame_needed = 0, uses_anonymous_args = 0
 1235              		@ link register save eliminated.
 991:/home/rdu/Workspace/project_templates/mcu/stm32_ws/src/libraries/STM32F4xx_StdPeriph_Driver/src/stm32f4xx_flash.c ****   /* Set the OPTLOCK Bit to lock the FLASH Option Byte Registers access */
 992:/home/rdu/Workspace/project_templates/mcu/stm32_ws/src/libraries/STM32F4xx_StdPeriph_Driver/src/stm32f4xx_flash.c ****   FLASH->OPTCR |= FLASH_OPTCR_OPTLOCK;
 1236              		.loc 1 992 0
 1237 0000 034B     		ldr	r3, .L98
 1238 0002 5B69     		ldr	r3, [r3, #20]
 1239 0004 024A     		ldr	r2, .L98
 1240 0006 43F00103 		orr	r3, r3, #1
 1241 000a 5361     		str	r3, [r2, #20]
 993:/home/rdu/Workspace/project_templates/mcu/stm32_ws/src/libraries/STM32F4xx_StdPeriph_Driver/src/stm32f4xx_flash.c **** }
 1242              		.loc 1 993 0
 1243 000c 00BF     		nop
 1244 000e 7047     		bx	lr
 1245              	.L99:
 1246              		.align	2
 1247              	.L98:
 1248 0010 003C0240 		.word	1073888256
 1249              		.cfi_endproc
 1250              	.LFE140:
 1252              		.section	.text.FLASH_OB_WRPConfig,"ax",%progbits
 1253              		.align	1
 1254              		.global	FLASH_OB_WRPConfig
 1255              		.syntax unified
 1256              		.thumb
 1257              		.thumb_func
 1258              		.fpu fpv4-sp-d16
 1260              	FLASH_OB_WRPConfig:
 1261              	.LFB141:
 994:/home/rdu/Workspace/project_templates/mcu/stm32_ws/src/libraries/STM32F4xx_StdPeriph_Driver/src/stm32f4xx_flash.c **** 
 995:/home/rdu/Workspace/project_templates/mcu/stm32_ws/src/libraries/STM32F4xx_StdPeriph_Driver/src/stm32f4xx_flash.c **** /**
 996:/home/rdu/Workspace/project_templates/mcu/stm32_ws/src/libraries/STM32F4xx_StdPeriph_Driver/src/stm32f4xx_flash.c ****   * @brief  Enables or disables the write protection of the desired sectors, for the first
 997:/home/rdu/Workspace/project_templates/mcu/stm32_ws/src/libraries/STM32F4xx_StdPeriph_Driver/src/stm32f4xx_flash.c ****   *         1 Mb of the Flash  
 998:/home/rdu/Workspace/project_templates/mcu/stm32_ws/src/libraries/STM32F4xx_StdPeriph_Driver/src/stm32f4xx_flash.c ****   *
 999:/home/rdu/Workspace/project_templates/mcu/stm32_ws/src/libraries/STM32F4xx_StdPeriph_Driver/src/stm32f4xx_flash.c ****   * @note   When the memory read protection level is selected (RDP level = 1), 
1000:/home/rdu/Workspace/project_templates/mcu/stm32_ws/src/libraries/STM32F4xx_StdPeriph_Driver/src/stm32f4xx_flash.c ****   *         it is not possible to program or erase the flash sector i if CortexM4  
1001:/home/rdu/Workspace/project_templates/mcu/stm32_ws/src/libraries/STM32F4xx_StdPeriph_Driver/src/stm32f4xx_flash.c ****   *         debug features are connected or boot code is executed in RAM, even if nWRPi = 1 
1002:/home/rdu/Workspace/project_templates/mcu/stm32_ws/src/libraries/STM32F4xx_StdPeriph_Driver/src/stm32f4xx_flash.c ****   * @note   Active value of nWRPi bits is inverted when PCROP mode is active (SPRMOD =1).   
1003:/home/rdu/Workspace/project_templates/mcu/stm32_ws/src/libraries/STM32F4xx_StdPeriph_Driver/src/stm32f4xx_flash.c ****   * 
1004:/home/rdu/Workspace/project_templates/mcu/stm32_ws/src/libraries/STM32F4xx_StdPeriph_Driver/src/stm32f4xx_flash.c ****   * @param  OB_WRP: specifies the sector(s) to be write protected or unprotected.
1005:/home/rdu/Workspace/project_templates/mcu/stm32_ws/src/libraries/STM32F4xx_StdPeriph_Driver/src/stm32f4xx_flash.c ****   *          This parameter can be one of the following values:
1006:/home/rdu/Workspace/project_templates/mcu/stm32_ws/src/libraries/STM32F4xx_StdPeriph_Driver/src/stm32f4xx_flash.c ****   *            @arg OB_WRP: A value between OB_WRP_Sector0 and OB_WRP_Sector11                     
1007:/home/rdu/Workspace/project_templates/mcu/stm32_ws/src/libraries/STM32F4xx_StdPeriph_Driver/src/stm32f4xx_flash.c ****   *            @arg OB_WRP_Sector_All
1008:/home/rdu/Workspace/project_templates/mcu/stm32_ws/src/libraries/STM32F4xx_StdPeriph_Driver/src/stm32f4xx_flash.c ****   * @param  Newstate: new state of the Write Protection.
1009:/home/rdu/Workspace/project_templates/mcu/stm32_ws/src/libraries/STM32F4xx_StdPeriph_Driver/src/stm32f4xx_flash.c ****   *          This parameter can be: ENABLE or DISABLE.
1010:/home/rdu/Workspace/project_templates/mcu/stm32_ws/src/libraries/STM32F4xx_StdPeriph_Driver/src/stm32f4xx_flash.c ****   * @retval None  
1011:/home/rdu/Workspace/project_templates/mcu/stm32_ws/src/libraries/STM32F4xx_StdPeriph_Driver/src/stm32f4xx_flash.c ****   */
1012:/home/rdu/Workspace/project_templates/mcu/stm32_ws/src/libraries/STM32F4xx_StdPeriph_Driver/src/stm32f4xx_flash.c **** void FLASH_OB_WRPConfig(uint32_t OB_WRP, FunctionalState NewState)
1013:/home/rdu/Workspace/project_templates/mcu/stm32_ws/src/libraries/STM32F4xx_StdPeriph_Driver/src/stm32f4xx_flash.c **** { 
 1262              		.loc 1 1013 0
 1263              		.cfi_startproc
 1264              		@ args = 0, pretend = 0, frame = 16
 1265              		@ frame_needed = 0, uses_anonymous_args = 0
 1266 0000 00B5     		push	{lr}
 1267              	.LCFI32:
 1268              		.cfi_def_cfa_offset 4
 1269              		.cfi_offset 14, -4
 1270 0002 85B0     		sub	sp, sp, #20
 1271              	.LCFI33:
 1272              		.cfi_def_cfa_offset 24
 1273 0004 0190     		str	r0, [sp, #4]
 1274 0006 0B46     		mov	r3, r1
 1275 0008 8DF80330 		strb	r3, [sp, #3]
1014:/home/rdu/Workspace/project_templates/mcu/stm32_ws/src/libraries/STM32F4xx_StdPeriph_Driver/src/stm32f4xx_flash.c ****   FLASH_Status status = FLASH_COMPLETE;
 1276              		.loc 1 1014 0
 1277 000c 0923     		movs	r3, #9
 1278 000e 8DF80F30 		strb	r3, [sp, #15]
1015:/home/rdu/Workspace/project_templates/mcu/stm32_ws/src/libraries/STM32F4xx_StdPeriph_Driver/src/stm32f4xx_flash.c ****   
1016:/home/rdu/Workspace/project_templates/mcu/stm32_ws/src/libraries/STM32F4xx_StdPeriph_Driver/src/stm32f4xx_flash.c ****   /* Check the parameters */
1017:/home/rdu/Workspace/project_templates/mcu/stm32_ws/src/libraries/STM32F4xx_StdPeriph_Driver/src/stm32f4xx_flash.c ****   assert_param(IS_OB_WRP(OB_WRP));
1018:/home/rdu/Workspace/project_templates/mcu/stm32_ws/src/libraries/STM32F4xx_StdPeriph_Driver/src/stm32f4xx_flash.c ****   assert_param(IS_FUNCTIONAL_STATE(NewState));
1019:/home/rdu/Workspace/project_templates/mcu/stm32_ws/src/libraries/STM32F4xx_StdPeriph_Driver/src/stm32f4xx_flash.c ****     
1020:/home/rdu/Workspace/project_templates/mcu/stm32_ws/src/libraries/STM32F4xx_StdPeriph_Driver/src/stm32f4xx_flash.c ****   status = FLASH_WaitForLastOperation();
 1279              		.loc 1 1020 0
 1280 0012 FFF7FEFF 		bl	FLASH_WaitForLastOperation
 1281 0016 0346     		mov	r3, r0
 1282 0018 8DF80F30 		strb	r3, [sp, #15]
1021:/home/rdu/Workspace/project_templates/mcu/stm32_ws/src/libraries/STM32F4xx_StdPeriph_Driver/src/stm32f4xx_flash.c **** 
1022:/home/rdu/Workspace/project_templates/mcu/stm32_ws/src/libraries/STM32F4xx_StdPeriph_Driver/src/stm32f4xx_flash.c ****   if(status == FLASH_COMPLETE)
 1283              		.loc 1 1022 0
 1284 001c 9DF80F30 		ldrb	r3, [sp, #15]	@ zero_extendqisi2
 1285 0020 092B     		cmp	r3, #9
 1286 0022 18D1     		bne	.L103
1023:/home/rdu/Workspace/project_templates/mcu/stm32_ws/src/libraries/STM32F4xx_StdPeriph_Driver/src/stm32f4xx_flash.c ****   { 
1024:/home/rdu/Workspace/project_templates/mcu/stm32_ws/src/libraries/STM32F4xx_StdPeriph_Driver/src/stm32f4xx_flash.c ****     if(NewState != DISABLE)
 1287              		.loc 1 1024 0
 1288 0024 9DF80330 		ldrb	r3, [sp, #3]	@ zero_extendqisi2
 1289 0028 002B     		cmp	r3, #0
 1290 002a 0BD0     		beq	.L102
1025:/home/rdu/Workspace/project_templates/mcu/stm32_ws/src/libraries/STM32F4xx_StdPeriph_Driver/src/stm32f4xx_flash.c ****     {
1026:/home/rdu/Workspace/project_templates/mcu/stm32_ws/src/libraries/STM32F4xx_StdPeriph_Driver/src/stm32f4xx_flash.c ****       *(__IO uint16_t*)OPTCR_BYTE2_ADDRESS &= (~OB_WRP);
 1291              		.loc 1 1026 0
 1292 002c 0C4B     		ldr	r3, .L104
 1293 002e 1B88     		ldrh	r3, [r3]	@ movhi
 1294 0030 9AB2     		uxth	r2, r3
 1295 0032 019B     		ldr	r3, [sp, #4]
 1296 0034 9BB2     		uxth	r3, r3
 1297 0036 DB43     		mvns	r3, r3
 1298 0038 9BB2     		uxth	r3, r3
 1299 003a 0949     		ldr	r1, .L104
 1300 003c 1340     		ands	r3, r3, r2
 1301 003e 9BB2     		uxth	r3, r3
 1302 0040 0B80     		strh	r3, [r1]	@ movhi
1027:/home/rdu/Workspace/project_templates/mcu/stm32_ws/src/libraries/STM32F4xx_StdPeriph_Driver/src/stm32f4xx_flash.c ****     }
1028:/home/rdu/Workspace/project_templates/mcu/stm32_ws/src/libraries/STM32F4xx_StdPeriph_Driver/src/stm32f4xx_flash.c ****     else
1029:/home/rdu/Workspace/project_templates/mcu/stm32_ws/src/libraries/STM32F4xx_StdPeriph_Driver/src/stm32f4xx_flash.c ****     {
1030:/home/rdu/Workspace/project_templates/mcu/stm32_ws/src/libraries/STM32F4xx_StdPeriph_Driver/src/stm32f4xx_flash.c ****       *(__IO uint16_t*)OPTCR_BYTE2_ADDRESS |= (uint16_t)OB_WRP;
1031:/home/rdu/Workspace/project_templates/mcu/stm32_ws/src/libraries/STM32F4xx_StdPeriph_Driver/src/stm32f4xx_flash.c ****     }
1032:/home/rdu/Workspace/project_templates/mcu/stm32_ws/src/libraries/STM32F4xx_StdPeriph_Driver/src/stm32f4xx_flash.c ****   }
1033:/home/rdu/Workspace/project_templates/mcu/stm32_ws/src/libraries/STM32F4xx_StdPeriph_Driver/src/stm32f4xx_flash.c **** }
 1303              		.loc 1 1033 0
 1304 0042 08E0     		b	.L103
 1305              	.L102:
1030:/home/rdu/Workspace/project_templates/mcu/stm32_ws/src/libraries/STM32F4xx_StdPeriph_Driver/src/stm32f4xx_flash.c ****     }
 1306              		.loc 1 1030 0
 1307 0044 064B     		ldr	r3, .L104
 1308 0046 1B88     		ldrh	r3, [r3]	@ movhi
 1309 0048 9AB2     		uxth	r2, r3
 1310 004a 019B     		ldr	r3, [sp, #4]
 1311 004c 9BB2     		uxth	r3, r3
 1312 004e 0449     		ldr	r1, .L104
 1313 0050 1343     		orrs	r3, r3, r2
 1314 0052 9BB2     		uxth	r3, r3
 1315 0054 0B80     		strh	r3, [r1]	@ movhi
 1316              	.L103:
 1317              		.loc 1 1033 0
 1318 0056 00BF     		nop
 1319 0058 05B0     		add	sp, sp, #20
 1320              	.LCFI34:
 1321              		.cfi_def_cfa_offset 4
 1322              		@ sp needed
 1323 005a 5DF804FB 		ldr	pc, [sp], #4
 1324              	.L105:
 1325 005e 00BF     		.align	2
 1326              	.L104:
 1327 0060 163C0240 		.word	1073888278
 1328              		.cfi_endproc
 1329              	.LFE141:
 1331              		.section	.text.FLASH_OB_WRP1Config,"ax",%progbits
 1332              		.align	1
 1333              		.global	FLASH_OB_WRP1Config
 1334              		.syntax unified
 1335              		.thumb
 1336              		.thumb_func
 1337              		.fpu fpv4-sp-d16
 1339              	FLASH_OB_WRP1Config:
 1340              	.LFB142:
1034:/home/rdu/Workspace/project_templates/mcu/stm32_ws/src/libraries/STM32F4xx_StdPeriph_Driver/src/stm32f4xx_flash.c **** 
1035:/home/rdu/Workspace/project_templates/mcu/stm32_ws/src/libraries/STM32F4xx_StdPeriph_Driver/src/stm32f4xx_flash.c **** /**
1036:/home/rdu/Workspace/project_templates/mcu/stm32_ws/src/libraries/STM32F4xx_StdPeriph_Driver/src/stm32f4xx_flash.c ****   * @brief  Enables or disables the write protection of the desired sectors, for the second
1037:/home/rdu/Workspace/project_templates/mcu/stm32_ws/src/libraries/STM32F4xx_StdPeriph_Driver/src/stm32f4xx_flash.c ****   *         1 Mb of the Flash  
1038:/home/rdu/Workspace/project_templates/mcu/stm32_ws/src/libraries/STM32F4xx_StdPeriph_Driver/src/stm32f4xx_flash.c ****   *           
1039:/home/rdu/Workspace/project_templates/mcu/stm32_ws/src/libraries/STM32F4xx_StdPeriph_Driver/src/stm32f4xx_flash.c ****   * @note   This function can be used only for STM32F42xxx/43xxx devices.
1040:/home/rdu/Workspace/project_templates/mcu/stm32_ws/src/libraries/STM32F4xx_StdPeriph_Driver/src/stm32f4xx_flash.c ****   *   
1041:/home/rdu/Workspace/project_templates/mcu/stm32_ws/src/libraries/STM32F4xx_StdPeriph_Driver/src/stm32f4xx_flash.c ****   * @note   When the memory read out protection is selected (RDP level = 1), 
1042:/home/rdu/Workspace/project_templates/mcu/stm32_ws/src/libraries/STM32F4xx_StdPeriph_Driver/src/stm32f4xx_flash.c ****   *         it is not possible to program or erase the flash sector i if CortexM4  
1043:/home/rdu/Workspace/project_templates/mcu/stm32_ws/src/libraries/STM32F4xx_StdPeriph_Driver/src/stm32f4xx_flash.c ****   *         debug features are connected or boot code is executed in RAM, even if nWRPi = 1 
1044:/home/rdu/Workspace/project_templates/mcu/stm32_ws/src/libraries/STM32F4xx_StdPeriph_Driver/src/stm32f4xx_flash.c ****   * @note   Active value of nWRPi bits is inverted when PCROP mode is active (SPRMOD =1).      
1045:/home/rdu/Workspace/project_templates/mcu/stm32_ws/src/libraries/STM32F4xx_StdPeriph_Driver/src/stm32f4xx_flash.c ****   * 
1046:/home/rdu/Workspace/project_templates/mcu/stm32_ws/src/libraries/STM32F4xx_StdPeriph_Driver/src/stm32f4xx_flash.c ****   * @param  OB_WRP: specifies the sector(s) to be write protected or unprotected.
1047:/home/rdu/Workspace/project_templates/mcu/stm32_ws/src/libraries/STM32F4xx_StdPeriph_Driver/src/stm32f4xx_flash.c ****   *          This parameter can be one of the following values:
1048:/home/rdu/Workspace/project_templates/mcu/stm32_ws/src/libraries/STM32F4xx_StdPeriph_Driver/src/stm32f4xx_flash.c ****   *            @arg OB_WRP: A value between OB_WRP_Sector12 and OB_WRP_Sector23
1049:/home/rdu/Workspace/project_templates/mcu/stm32_ws/src/libraries/STM32F4xx_StdPeriph_Driver/src/stm32f4xx_flash.c ****   *            @arg OB_WRP_Sector_All                        
1050:/home/rdu/Workspace/project_templates/mcu/stm32_ws/src/libraries/STM32F4xx_StdPeriph_Driver/src/stm32f4xx_flash.c ****   * @param  Newstate: new state of the Write Protection.
1051:/home/rdu/Workspace/project_templates/mcu/stm32_ws/src/libraries/STM32F4xx_StdPeriph_Driver/src/stm32f4xx_flash.c ****   *          This parameter can be: ENABLE or DISABLE.
1052:/home/rdu/Workspace/project_templates/mcu/stm32_ws/src/libraries/STM32F4xx_StdPeriph_Driver/src/stm32f4xx_flash.c ****   * @retval None  
1053:/home/rdu/Workspace/project_templates/mcu/stm32_ws/src/libraries/STM32F4xx_StdPeriph_Driver/src/stm32f4xx_flash.c ****   */
1054:/home/rdu/Workspace/project_templates/mcu/stm32_ws/src/libraries/STM32F4xx_StdPeriph_Driver/src/stm32f4xx_flash.c **** void FLASH_OB_WRP1Config(uint32_t OB_WRP, FunctionalState NewState)
1055:/home/rdu/Workspace/project_templates/mcu/stm32_ws/src/libraries/STM32F4xx_StdPeriph_Driver/src/stm32f4xx_flash.c **** { 
 1341              		.loc 1 1055 0
 1342              		.cfi_startproc
 1343              		@ args = 0, pretend = 0, frame = 16
 1344              		@ frame_needed = 0, uses_anonymous_args = 0
 1345 0000 00B5     		push	{lr}
 1346              	.LCFI35:
 1347              		.cfi_def_cfa_offset 4
 1348              		.cfi_offset 14, -4
 1349 0002 85B0     		sub	sp, sp, #20
 1350              	.LCFI36:
 1351              		.cfi_def_cfa_offset 24
 1352 0004 0190     		str	r0, [sp, #4]
 1353 0006 0B46     		mov	r3, r1
 1354 0008 8DF80330 		strb	r3, [sp, #3]
1056:/home/rdu/Workspace/project_templates/mcu/stm32_ws/src/libraries/STM32F4xx_StdPeriph_Driver/src/stm32f4xx_flash.c ****   FLASH_Status status = FLASH_COMPLETE;
 1355              		.loc 1 1056 0
 1356 000c 0923     		movs	r3, #9
 1357 000e 8DF80F30 		strb	r3, [sp, #15]
1057:/home/rdu/Workspace/project_templates/mcu/stm32_ws/src/libraries/STM32F4xx_StdPeriph_Driver/src/stm32f4xx_flash.c ****   
1058:/home/rdu/Workspace/project_templates/mcu/stm32_ws/src/libraries/STM32F4xx_StdPeriph_Driver/src/stm32f4xx_flash.c ****   /* Check the parameters */
1059:/home/rdu/Workspace/project_templates/mcu/stm32_ws/src/libraries/STM32F4xx_StdPeriph_Driver/src/stm32f4xx_flash.c ****   assert_param(IS_OB_WRP(OB_WRP));
1060:/home/rdu/Workspace/project_templates/mcu/stm32_ws/src/libraries/STM32F4xx_StdPeriph_Driver/src/stm32f4xx_flash.c ****   assert_param(IS_FUNCTIONAL_STATE(NewState));
1061:/home/rdu/Workspace/project_templates/mcu/stm32_ws/src/libraries/STM32F4xx_StdPeriph_Driver/src/stm32f4xx_flash.c ****     
1062:/home/rdu/Workspace/project_templates/mcu/stm32_ws/src/libraries/STM32F4xx_StdPeriph_Driver/src/stm32f4xx_flash.c ****   status = FLASH_WaitForLastOperation();
 1358              		.loc 1 1062 0
 1359 0012 FFF7FEFF 		bl	FLASH_WaitForLastOperation
 1360 0016 0346     		mov	r3, r0
 1361 0018 8DF80F30 		strb	r3, [sp, #15]
1063:/home/rdu/Workspace/project_templates/mcu/stm32_ws/src/libraries/STM32F4xx_StdPeriph_Driver/src/stm32f4xx_flash.c **** 
1064:/home/rdu/Workspace/project_templates/mcu/stm32_ws/src/libraries/STM32F4xx_StdPeriph_Driver/src/stm32f4xx_flash.c ****   if(status == FLASH_COMPLETE)
 1362              		.loc 1 1064 0
 1363 001c 9DF80F30 		ldrb	r3, [sp, #15]	@ zero_extendqisi2
 1364 0020 092B     		cmp	r3, #9
 1365 0022 18D1     		bne	.L109
1065:/home/rdu/Workspace/project_templates/mcu/stm32_ws/src/libraries/STM32F4xx_StdPeriph_Driver/src/stm32f4xx_flash.c ****   { 
1066:/home/rdu/Workspace/project_templates/mcu/stm32_ws/src/libraries/STM32F4xx_StdPeriph_Driver/src/stm32f4xx_flash.c ****     if(NewState != DISABLE)
 1366              		.loc 1 1066 0
 1367 0024 9DF80330 		ldrb	r3, [sp, #3]	@ zero_extendqisi2
 1368 0028 002B     		cmp	r3, #0
 1369 002a 0BD0     		beq	.L108
1067:/home/rdu/Workspace/project_templates/mcu/stm32_ws/src/libraries/STM32F4xx_StdPeriph_Driver/src/stm32f4xx_flash.c ****     {
1068:/home/rdu/Workspace/project_templates/mcu/stm32_ws/src/libraries/STM32F4xx_StdPeriph_Driver/src/stm32f4xx_flash.c ****       *(__IO uint16_t*)OPTCR1_BYTE2_ADDRESS &= (~OB_WRP);
 1370              		.loc 1 1068 0
 1371 002c 0C4B     		ldr	r3, .L110
 1372 002e 1B88     		ldrh	r3, [r3]	@ movhi
 1373 0030 9AB2     		uxth	r2, r3
 1374 0032 019B     		ldr	r3, [sp, #4]
 1375 0034 9BB2     		uxth	r3, r3
 1376 0036 DB43     		mvns	r3, r3
 1377 0038 9BB2     		uxth	r3, r3
 1378 003a 0949     		ldr	r1, .L110
 1379 003c 1340     		ands	r3, r3, r2
 1380 003e 9BB2     		uxth	r3, r3
 1381 0040 0B80     		strh	r3, [r1]	@ movhi
1069:/home/rdu/Workspace/project_templates/mcu/stm32_ws/src/libraries/STM32F4xx_StdPeriph_Driver/src/stm32f4xx_flash.c ****     }
1070:/home/rdu/Workspace/project_templates/mcu/stm32_ws/src/libraries/STM32F4xx_StdPeriph_Driver/src/stm32f4xx_flash.c ****     else
1071:/home/rdu/Workspace/project_templates/mcu/stm32_ws/src/libraries/STM32F4xx_StdPeriph_Driver/src/stm32f4xx_flash.c ****     {
1072:/home/rdu/Workspace/project_templates/mcu/stm32_ws/src/libraries/STM32F4xx_StdPeriph_Driver/src/stm32f4xx_flash.c ****       *(__IO uint16_t*)OPTCR1_BYTE2_ADDRESS |= (uint16_t)OB_WRP;
1073:/home/rdu/Workspace/project_templates/mcu/stm32_ws/src/libraries/STM32F4xx_StdPeriph_Driver/src/stm32f4xx_flash.c ****     }
1074:/home/rdu/Workspace/project_templates/mcu/stm32_ws/src/libraries/STM32F4xx_StdPeriph_Driver/src/stm32f4xx_flash.c ****   }
1075:/home/rdu/Workspace/project_templates/mcu/stm32_ws/src/libraries/STM32F4xx_StdPeriph_Driver/src/stm32f4xx_flash.c **** }
 1382              		.loc 1 1075 0
 1383 0042 08E0     		b	.L109
 1384              	.L108:
1072:/home/rdu/Workspace/project_templates/mcu/stm32_ws/src/libraries/STM32F4xx_StdPeriph_Driver/src/stm32f4xx_flash.c ****     }
 1385              		.loc 1 1072 0
 1386 0044 064B     		ldr	r3, .L110
 1387 0046 1B88     		ldrh	r3, [r3]	@ movhi
 1388 0048 9AB2     		uxth	r2, r3
 1389 004a 019B     		ldr	r3, [sp, #4]
 1390 004c 9BB2     		uxth	r3, r3
 1391 004e 0449     		ldr	r1, .L110
 1392 0050 1343     		orrs	r3, r3, r2
 1393 0052 9BB2     		uxth	r3, r3
 1394 0054 0B80     		strh	r3, [r1]	@ movhi
 1395              	.L109:
 1396              		.loc 1 1075 0
 1397 0056 00BF     		nop
 1398 0058 05B0     		add	sp, sp, #20
 1399              	.LCFI37:
 1400              		.cfi_def_cfa_offset 4
 1401              		@ sp needed
 1402 005a 5DF804FB 		ldr	pc, [sp], #4
 1403              	.L111:
 1404 005e 00BF     		.align	2
 1405              	.L110:
 1406 0060 1A3C0240 		.word	1073888282
 1407              		.cfi_endproc
 1408              	.LFE142:
 1410              		.section	.text.FLASH_OB_PCROPSelectionConfig,"ax",%progbits
 1411              		.align	1
 1412              		.global	FLASH_OB_PCROPSelectionConfig
 1413              		.syntax unified
 1414              		.thumb
 1415              		.thumb_func
 1416              		.fpu fpv4-sp-d16
 1418              	FLASH_OB_PCROPSelectionConfig:
 1419              	.LFB143:
1076:/home/rdu/Workspace/project_templates/mcu/stm32_ws/src/libraries/STM32F4xx_StdPeriph_Driver/src/stm32f4xx_flash.c **** 
1077:/home/rdu/Workspace/project_templates/mcu/stm32_ws/src/libraries/STM32F4xx_StdPeriph_Driver/src/stm32f4xx_flash.c **** /**
1078:/home/rdu/Workspace/project_templates/mcu/stm32_ws/src/libraries/STM32F4xx_StdPeriph_Driver/src/stm32f4xx_flash.c ****   * @brief  Select the Protection Mode (SPRMOD). 
1079:/home/rdu/Workspace/project_templates/mcu/stm32_ws/src/libraries/STM32F4xx_StdPeriph_Driver/src/stm32f4xx_flash.c ****   * 
1080:/home/rdu/Workspace/project_templates/mcu/stm32_ws/src/libraries/STM32F4xx_StdPeriph_Driver/src/stm32f4xx_flash.c ****   * @note   This function can be used only for STM32F42xxx/43xxx and STM32F401xx/411xE devices.    
1081:/home/rdu/Workspace/project_templates/mcu/stm32_ws/src/libraries/STM32F4xx_StdPeriph_Driver/src/stm32f4xx_flash.c ****   * 
1082:/home/rdu/Workspace/project_templates/mcu/stm32_ws/src/libraries/STM32F4xx_StdPeriph_Driver/src/stm32f4xx_flash.c ****   * @note   After PCROP activation, Option Byte modification is not possible. 
1083:/home/rdu/Workspace/project_templates/mcu/stm32_ws/src/libraries/STM32F4xx_StdPeriph_Driver/src/stm32f4xx_flash.c ****   *         Exception made for the global Read Out Protection modification level (level1 to level0)
1084:/home/rdu/Workspace/project_templates/mcu/stm32_ws/src/libraries/STM32F4xx_StdPeriph_Driver/src/stm32f4xx_flash.c ****   * @note   Once SPRMOD bit is active unprotection of a protected sector is not possible 
1085:/home/rdu/Workspace/project_templates/mcu/stm32_ws/src/libraries/STM32F4xx_StdPeriph_Driver/src/stm32f4xx_flash.c ****   *   
1086:/home/rdu/Workspace/project_templates/mcu/stm32_ws/src/libraries/STM32F4xx_StdPeriph_Driver/src/stm32f4xx_flash.c ****   * @note   Read a protected sector will set RDERR Flag and write a protected sector will set WRPER
1087:/home/rdu/Workspace/project_templates/mcu/stm32_ws/src/libraries/STM32F4xx_StdPeriph_Driver/src/stm32f4xx_flash.c ****   *   
1088:/home/rdu/Workspace/project_templates/mcu/stm32_ws/src/libraries/STM32F4xx_StdPeriph_Driver/src/stm32f4xx_flash.c ****   * @note   Some Precautions should be taken when activating the PCROP feature :
1089:/home/rdu/Workspace/project_templates/mcu/stm32_ws/src/libraries/STM32F4xx_StdPeriph_Driver/src/stm32f4xx_flash.c ****   *         The active value of nWRPi bits is inverted when PCROP mode is active, this means if SPR
1090:/home/rdu/Workspace/project_templates/mcu/stm32_ws/src/libraries/STM32F4xx_StdPeriph_Driver/src/stm32f4xx_flash.c ****   *         and WRPi = 1 (default value), then the user sector i is read/write protected.
1091:/home/rdu/Workspace/project_templates/mcu/stm32_ws/src/libraries/STM32F4xx_StdPeriph_Driver/src/stm32f4xx_flash.c ****   *         In order to avoid activation of PCROP Mode for undesired sectors, please follow the
1092:/home/rdu/Workspace/project_templates/mcu/stm32_ws/src/libraries/STM32F4xx_StdPeriph_Driver/src/stm32f4xx_flash.c ****   *         below safety sequence :       
1093:/home/rdu/Workspace/project_templates/mcu/stm32_ws/src/libraries/STM32F4xx_StdPeriph_Driver/src/stm32f4xx_flash.c ****   *         - Disable PCROP for all Sectors using FLASH_OB_PCROPConfig(OB_PCROP_Sector_All, DISABLE
1094:/home/rdu/Workspace/project_templates/mcu/stm32_ws/src/libraries/STM32F4xx_StdPeriph_Driver/src/stm32f4xx_flash.c ****   *           for Bank1 or FLASH_OB_PCROP1Config(OB_PCROP_Sector_All, DISABLE) function for Bank2  
1095:/home/rdu/Workspace/project_templates/mcu/stm32_ws/src/libraries/STM32F4xx_StdPeriph_Driver/src/stm32f4xx_flash.c ****   *         - Enable PCROP for the desired Sector i using FLASH_OB_PCROPConfig(Sector i, ENABLE) fu
1096:/home/rdu/Workspace/project_templates/mcu/stm32_ws/src/libraries/STM32F4xx_StdPeriph_Driver/src/stm32f4xx_flash.c ****   *         - Activate the PCROP Mode FLASH_OB_PCROPSelectionConfig() function. 
1097:/home/rdu/Workspace/project_templates/mcu/stm32_ws/src/libraries/STM32F4xx_StdPeriph_Driver/src/stm32f4xx_flash.c ****   * 
1098:/home/rdu/Workspace/project_templates/mcu/stm32_ws/src/libraries/STM32F4xx_StdPeriph_Driver/src/stm32f4xx_flash.c ****   * @param  OB_PCROP:  Select the Protection Mode of nWPRi bits 
1099:/home/rdu/Workspace/project_templates/mcu/stm32_ws/src/libraries/STM32F4xx_StdPeriph_Driver/src/stm32f4xx_flash.c ****   *          This parameter can be one of the following values:
1100:/home/rdu/Workspace/project_templates/mcu/stm32_ws/src/libraries/STM32F4xx_StdPeriph_Driver/src/stm32f4xx_flash.c ****   *            @arg OB_PcROP_Disable: nWRPi control the write protection of respective user sectors
1101:/home/rdu/Workspace/project_templates/mcu/stm32_ws/src/libraries/STM32F4xx_StdPeriph_Driver/src/stm32f4xx_flash.c ****   *            @arg OB_PcROP_Enable: nWRPi control the  read&write protection (PCROP) of respective
1102:/home/rdu/Workspace/project_templates/mcu/stm32_ws/src/libraries/STM32F4xx_StdPeriph_Driver/src/stm32f4xx_flash.c ****   * @retval None
1103:/home/rdu/Workspace/project_templates/mcu/stm32_ws/src/libraries/STM32F4xx_StdPeriph_Driver/src/stm32f4xx_flash.c ****   */
1104:/home/rdu/Workspace/project_templates/mcu/stm32_ws/src/libraries/STM32F4xx_StdPeriph_Driver/src/stm32f4xx_flash.c **** void FLASH_OB_PCROPSelectionConfig(uint8_t OB_PcROP)
1105:/home/rdu/Workspace/project_templates/mcu/stm32_ws/src/libraries/STM32F4xx_StdPeriph_Driver/src/stm32f4xx_flash.c **** {  
 1420              		.loc 1 1105 0
 1421              		.cfi_startproc
 1422              		@ args = 0, pretend = 0, frame = 16
 1423              		@ frame_needed = 0, uses_anonymous_args = 0
 1424              		@ link register save eliminated.
 1425 0000 84B0     		sub	sp, sp, #16
 1426              	.LCFI38:
 1427              		.cfi_def_cfa_offset 16
 1428 0002 0346     		mov	r3, r0
 1429 0004 8DF80730 		strb	r3, [sp, #7]
1106:/home/rdu/Workspace/project_templates/mcu/stm32_ws/src/libraries/STM32F4xx_StdPeriph_Driver/src/stm32f4xx_flash.c ****   uint8_t optiontmp = 0xFF;
 1430              		.loc 1 1106 0
 1431 0008 FF23     		movs	r3, #255
 1432 000a 8DF80F30 		strb	r3, [sp, #15]
1107:/home/rdu/Workspace/project_templates/mcu/stm32_ws/src/libraries/STM32F4xx_StdPeriph_Driver/src/stm32f4xx_flash.c ****       
1108:/home/rdu/Workspace/project_templates/mcu/stm32_ws/src/libraries/STM32F4xx_StdPeriph_Driver/src/stm32f4xx_flash.c ****   /* Check the parameters */
1109:/home/rdu/Workspace/project_templates/mcu/stm32_ws/src/libraries/STM32F4xx_StdPeriph_Driver/src/stm32f4xx_flash.c ****   assert_param(IS_OB_PCROP_SELECT(OB_PcROP));
1110:/home/rdu/Workspace/project_templates/mcu/stm32_ws/src/libraries/STM32F4xx_StdPeriph_Driver/src/stm32f4xx_flash.c ****   
1111:/home/rdu/Workspace/project_templates/mcu/stm32_ws/src/libraries/STM32F4xx_StdPeriph_Driver/src/stm32f4xx_flash.c ****   /* Mask SPRMOD bit */
1112:/home/rdu/Workspace/project_templates/mcu/stm32_ws/src/libraries/STM32F4xx_StdPeriph_Driver/src/stm32f4xx_flash.c ****   optiontmp =  (uint8_t)((*(__IO uint8_t *)OPTCR_BYTE3_ADDRESS) & (uint8_t)0x7F); 
 1433              		.loc 1 1112 0
 1434 000e 094B     		ldr	r3, .L113
 1435 0010 1B78     		ldrb	r3, [r3]
 1436 0012 DBB2     		uxtb	r3, r3
 1437 0014 03F07F03 		and	r3, r3, #127
 1438 0018 8DF80F30 		strb	r3, [sp, #15]
1113:/home/rdu/Workspace/project_templates/mcu/stm32_ws/src/libraries/STM32F4xx_StdPeriph_Driver/src/stm32f4xx_flash.c ****   /* Update Option Byte */
1114:/home/rdu/Workspace/project_templates/mcu/stm32_ws/src/libraries/STM32F4xx_StdPeriph_Driver/src/stm32f4xx_flash.c ****   *(__IO uint8_t *)OPTCR_BYTE3_ADDRESS = (uint8_t)(OB_PcROP | optiontmp); 
 1439              		.loc 1 1114 0
 1440 001c 0549     		ldr	r1, .L113
 1441 001e 9DF80720 		ldrb	r2, [sp, #7]
 1442 0022 9DF80F30 		ldrb	r3, [sp, #15]
 1443 0026 1343     		orrs	r3, r3, r2
 1444 0028 DBB2     		uxtb	r3, r3
 1445 002a 0B70     		strb	r3, [r1]
1115:/home/rdu/Workspace/project_templates/mcu/stm32_ws/src/libraries/STM32F4xx_StdPeriph_Driver/src/stm32f4xx_flash.c ****     
1116:/home/rdu/Workspace/project_templates/mcu/stm32_ws/src/libraries/STM32F4xx_StdPeriph_Driver/src/stm32f4xx_flash.c **** }
 1446              		.loc 1 1116 0
 1447 002c 00BF     		nop
 1448 002e 04B0     		add	sp, sp, #16
 1449              	.LCFI39:
 1450              		.cfi_def_cfa_offset 0
 1451              		@ sp needed
 1452 0030 7047     		bx	lr
 1453              	.L114:
 1454 0032 00BF     		.align	2
 1455              	.L113:
 1456 0034 173C0240 		.word	1073888279
 1457              		.cfi_endproc
 1458              	.LFE143:
 1460              		.section	.text.FLASH_OB_PCROPConfig,"ax",%progbits
 1461              		.align	1
 1462              		.global	FLASH_OB_PCROPConfig
 1463              		.syntax unified
 1464              		.thumb
 1465              		.thumb_func
 1466              		.fpu fpv4-sp-d16
 1468              	FLASH_OB_PCROPConfig:
 1469              	.LFB144:
1117:/home/rdu/Workspace/project_templates/mcu/stm32_ws/src/libraries/STM32F4xx_StdPeriph_Driver/src/stm32f4xx_flash.c **** 
1118:/home/rdu/Workspace/project_templates/mcu/stm32_ws/src/libraries/STM32F4xx_StdPeriph_Driver/src/stm32f4xx_flash.c **** /**
1119:/home/rdu/Workspace/project_templates/mcu/stm32_ws/src/libraries/STM32F4xx_StdPeriph_Driver/src/stm32f4xx_flash.c ****   * @brief  Enables or disables the read/write protection (PCROP) of the desired 
1120:/home/rdu/Workspace/project_templates/mcu/stm32_ws/src/libraries/STM32F4xx_StdPeriph_Driver/src/stm32f4xx_flash.c ****   *         sectors, for the first 1 MB of the Flash.
1121:/home/rdu/Workspace/project_templates/mcu/stm32_ws/src/libraries/STM32F4xx_StdPeriph_Driver/src/stm32f4xx_flash.c ****   *           
1122:/home/rdu/Workspace/project_templates/mcu/stm32_ws/src/libraries/STM32F4xx_StdPeriph_Driver/src/stm32f4xx_flash.c ****   * @note   This function can be used only for STM32F42xxx/43xxx , STM32F401xx/411xE 
1123:/home/rdu/Workspace/project_templates/mcu/stm32_ws/src/libraries/STM32F4xx_StdPeriph_Driver/src/stm32f4xx_flash.c ****   *         STM32F412xG and STM32F413_423xx devices.
1124:/home/rdu/Workspace/project_templates/mcu/stm32_ws/src/libraries/STM32F4xx_StdPeriph_Driver/src/stm32f4xx_flash.c ****   *   
1125:/home/rdu/Workspace/project_templates/mcu/stm32_ws/src/libraries/STM32F4xx_StdPeriph_Driver/src/stm32f4xx_flash.c ****   * @param  OB_PCROP: specifies the sector(s) to be read/write protected or unprotected.
1126:/home/rdu/Workspace/project_templates/mcu/stm32_ws/src/libraries/STM32F4xx_StdPeriph_Driver/src/stm32f4xx_flash.c ****   *          This parameter can be one of the following values:
1127:/home/rdu/Workspace/project_templates/mcu/stm32_ws/src/libraries/STM32F4xx_StdPeriph_Driver/src/stm32f4xx_flash.c ****   *            @arg OB_PCROP: A value between OB_PCROP_Sector0 and OB_PCROP_Sector11 for 
1128:/home/rdu/Workspace/project_templates/mcu/stm32_ws/src/libraries/STM32F4xx_StdPeriph_Driver/src/stm32f4xx_flash.c ****   *                           STM32F42xxx/43xxx devices and between OB_PCROP_Sector0 and 
1129:/home/rdu/Workspace/project_templates/mcu/stm32_ws/src/libraries/STM32F4xx_StdPeriph_Driver/src/stm32f4xx_flash.c ****   *                           OB_PCROP_Sector5 for STM32F401xx/411xE devices.
1130:/home/rdu/Workspace/project_templates/mcu/stm32_ws/src/libraries/STM32F4xx_StdPeriph_Driver/src/stm32f4xx_flash.c ****   *            @arg OB_PCROP_Sector_All
1131:/home/rdu/Workspace/project_templates/mcu/stm32_ws/src/libraries/STM32F4xx_StdPeriph_Driver/src/stm32f4xx_flash.c ****   * @param  Newstate: new state of the Write Protection.
1132:/home/rdu/Workspace/project_templates/mcu/stm32_ws/src/libraries/STM32F4xx_StdPeriph_Driver/src/stm32f4xx_flash.c ****   *          This parameter can be: ENABLE or DISABLE.
1133:/home/rdu/Workspace/project_templates/mcu/stm32_ws/src/libraries/STM32F4xx_StdPeriph_Driver/src/stm32f4xx_flash.c ****   * @retval None  
1134:/home/rdu/Workspace/project_templates/mcu/stm32_ws/src/libraries/STM32F4xx_StdPeriph_Driver/src/stm32f4xx_flash.c ****   */
1135:/home/rdu/Workspace/project_templates/mcu/stm32_ws/src/libraries/STM32F4xx_StdPeriph_Driver/src/stm32f4xx_flash.c **** void FLASH_OB_PCROPConfig(uint32_t OB_PCROP, FunctionalState NewState)
1136:/home/rdu/Workspace/project_templates/mcu/stm32_ws/src/libraries/STM32F4xx_StdPeriph_Driver/src/stm32f4xx_flash.c **** { 
 1470              		.loc 1 1136 0
 1471              		.cfi_startproc
 1472              		@ args = 0, pretend = 0, frame = 16
 1473              		@ frame_needed = 0, uses_anonymous_args = 0
 1474 0000 00B5     		push	{lr}
 1475              	.LCFI40:
 1476              		.cfi_def_cfa_offset 4
 1477              		.cfi_offset 14, -4
 1478 0002 85B0     		sub	sp, sp, #20
 1479              	.LCFI41:
 1480              		.cfi_def_cfa_offset 24
 1481 0004 0190     		str	r0, [sp, #4]
 1482 0006 0B46     		mov	r3, r1
 1483 0008 8DF80330 		strb	r3, [sp, #3]
1137:/home/rdu/Workspace/project_templates/mcu/stm32_ws/src/libraries/STM32F4xx_StdPeriph_Driver/src/stm32f4xx_flash.c ****   FLASH_Status status = FLASH_COMPLETE;
 1484              		.loc 1 1137 0
 1485 000c 0923     		movs	r3, #9
 1486 000e 8DF80F30 		strb	r3, [sp, #15]
1138:/home/rdu/Workspace/project_templates/mcu/stm32_ws/src/libraries/STM32F4xx_StdPeriph_Driver/src/stm32f4xx_flash.c ****   
1139:/home/rdu/Workspace/project_templates/mcu/stm32_ws/src/libraries/STM32F4xx_StdPeriph_Driver/src/stm32f4xx_flash.c ****   /* Check the parameters */
1140:/home/rdu/Workspace/project_templates/mcu/stm32_ws/src/libraries/STM32F4xx_StdPeriph_Driver/src/stm32f4xx_flash.c ****   assert_param(IS_OB_PCROP(OB_PCROP));
1141:/home/rdu/Workspace/project_templates/mcu/stm32_ws/src/libraries/STM32F4xx_StdPeriph_Driver/src/stm32f4xx_flash.c ****   assert_param(IS_FUNCTIONAL_STATE(NewState));
1142:/home/rdu/Workspace/project_templates/mcu/stm32_ws/src/libraries/STM32F4xx_StdPeriph_Driver/src/stm32f4xx_flash.c ****     
1143:/home/rdu/Workspace/project_templates/mcu/stm32_ws/src/libraries/STM32F4xx_StdPeriph_Driver/src/stm32f4xx_flash.c ****   status = FLASH_WaitForLastOperation();
 1487              		.loc 1 1143 0
 1488 0012 FFF7FEFF 		bl	FLASH_WaitForLastOperation
 1489 0016 0346     		mov	r3, r0
 1490 0018 8DF80F30 		strb	r3, [sp, #15]
1144:/home/rdu/Workspace/project_templates/mcu/stm32_ws/src/libraries/STM32F4xx_StdPeriph_Driver/src/stm32f4xx_flash.c **** 
1145:/home/rdu/Workspace/project_templates/mcu/stm32_ws/src/libraries/STM32F4xx_StdPeriph_Driver/src/stm32f4xx_flash.c ****   if(status == FLASH_COMPLETE)
 1491              		.loc 1 1145 0
 1492 001c 9DF80F30 		ldrb	r3, [sp, #15]	@ zero_extendqisi2
 1493 0020 092B     		cmp	r3, #9
 1494 0022 18D1     		bne	.L118
1146:/home/rdu/Workspace/project_templates/mcu/stm32_ws/src/libraries/STM32F4xx_StdPeriph_Driver/src/stm32f4xx_flash.c ****   { 
1147:/home/rdu/Workspace/project_templates/mcu/stm32_ws/src/libraries/STM32F4xx_StdPeriph_Driver/src/stm32f4xx_flash.c ****     if(NewState != DISABLE)
 1495              		.loc 1 1147 0
 1496 0024 9DF80330 		ldrb	r3, [sp, #3]	@ zero_extendqisi2
 1497 0028 002B     		cmp	r3, #0
 1498 002a 09D0     		beq	.L117
1148:/home/rdu/Workspace/project_templates/mcu/stm32_ws/src/libraries/STM32F4xx_StdPeriph_Driver/src/stm32f4xx_flash.c ****     {
1149:/home/rdu/Workspace/project_templates/mcu/stm32_ws/src/libraries/STM32F4xx_StdPeriph_Driver/src/stm32f4xx_flash.c ****       *(__IO uint16_t*)OPTCR_BYTE2_ADDRESS |= (uint16_t)OB_PCROP;    
 1499              		.loc 1 1149 0
 1500 002c 0C4B     		ldr	r3, .L119
 1501 002e 1B88     		ldrh	r3, [r3]	@ movhi
 1502 0030 9AB2     		uxth	r2, r3
 1503 0032 019B     		ldr	r3, [sp, #4]
 1504 0034 9BB2     		uxth	r3, r3
 1505 0036 0A49     		ldr	r1, .L119
 1506 0038 1343     		orrs	r3, r3, r2
 1507 003a 9BB2     		uxth	r3, r3
 1508 003c 0B80     		strh	r3, [r1]	@ movhi
1150:/home/rdu/Workspace/project_templates/mcu/stm32_ws/src/libraries/STM32F4xx_StdPeriph_Driver/src/stm32f4xx_flash.c ****     }
1151:/home/rdu/Workspace/project_templates/mcu/stm32_ws/src/libraries/STM32F4xx_StdPeriph_Driver/src/stm32f4xx_flash.c ****     else
1152:/home/rdu/Workspace/project_templates/mcu/stm32_ws/src/libraries/STM32F4xx_StdPeriph_Driver/src/stm32f4xx_flash.c ****     {
1153:/home/rdu/Workspace/project_templates/mcu/stm32_ws/src/libraries/STM32F4xx_StdPeriph_Driver/src/stm32f4xx_flash.c ****       *(__IO uint16_t*)OPTCR_BYTE2_ADDRESS &= (~OB_PCROP);
1154:/home/rdu/Workspace/project_templates/mcu/stm32_ws/src/libraries/STM32F4xx_StdPeriph_Driver/src/stm32f4xx_flash.c ****     }
1155:/home/rdu/Workspace/project_templates/mcu/stm32_ws/src/libraries/STM32F4xx_StdPeriph_Driver/src/stm32f4xx_flash.c ****   }
1156:/home/rdu/Workspace/project_templates/mcu/stm32_ws/src/libraries/STM32F4xx_StdPeriph_Driver/src/stm32f4xx_flash.c **** }
 1509              		.loc 1 1156 0
 1510 003e 0AE0     		b	.L118
 1511              	.L117:
1153:/home/rdu/Workspace/project_templates/mcu/stm32_ws/src/libraries/STM32F4xx_StdPeriph_Driver/src/stm32f4xx_flash.c ****     }
 1512              		.loc 1 1153 0
 1513 0040 074B     		ldr	r3, .L119
 1514 0042 1B88     		ldrh	r3, [r3]	@ movhi
 1515 0044 9AB2     		uxth	r2, r3
 1516 0046 019B     		ldr	r3, [sp, #4]
 1517 0048 9BB2     		uxth	r3, r3
 1518 004a DB43     		mvns	r3, r3
 1519 004c 9BB2     		uxth	r3, r3
 1520 004e 0449     		ldr	r1, .L119
 1521 0050 1340     		ands	r3, r3, r2
 1522 0052 9BB2     		uxth	r3, r3
 1523 0054 0B80     		strh	r3, [r1]	@ movhi
 1524              	.L118:
 1525              		.loc 1 1156 0
 1526 0056 00BF     		nop
 1527 0058 05B0     		add	sp, sp, #20
 1528              	.LCFI42:
 1529              		.cfi_def_cfa_offset 4
 1530              		@ sp needed
 1531 005a 5DF804FB 		ldr	pc, [sp], #4
 1532              	.L120:
 1533 005e 00BF     		.align	2
 1534              	.L119:
 1535 0060 163C0240 		.word	1073888278
 1536              		.cfi_endproc
 1537              	.LFE144:
 1539              		.section	.text.FLASH_OB_PCROP1Config,"ax",%progbits
 1540              		.align	1
 1541              		.global	FLASH_OB_PCROP1Config
 1542              		.syntax unified
 1543              		.thumb
 1544              		.thumb_func
 1545              		.fpu fpv4-sp-d16
 1547              	FLASH_OB_PCROP1Config:
 1548              	.LFB145:
1157:/home/rdu/Workspace/project_templates/mcu/stm32_ws/src/libraries/STM32F4xx_StdPeriph_Driver/src/stm32f4xx_flash.c **** 
1158:/home/rdu/Workspace/project_templates/mcu/stm32_ws/src/libraries/STM32F4xx_StdPeriph_Driver/src/stm32f4xx_flash.c **** /**
1159:/home/rdu/Workspace/project_templates/mcu/stm32_ws/src/libraries/STM32F4xx_StdPeriph_Driver/src/stm32f4xx_flash.c ****    * @brief Enables or disables the read/write protection (PCROP) of the desired 
1160:/home/rdu/Workspace/project_templates/mcu/stm32_ws/src/libraries/STM32F4xx_StdPeriph_Driver/src/stm32f4xx_flash.c ****   *         sectors
1161:/home/rdu/Workspace/project_templates/mcu/stm32_ws/src/libraries/STM32F4xx_StdPeriph_Driver/src/stm32f4xx_flash.c ****   *           
1162:/home/rdu/Workspace/project_templates/mcu/stm32_ws/src/libraries/STM32F4xx_StdPeriph_Driver/src/stm32f4xx_flash.c ****   * @note   This function can be used only for STM32F42xxx/43xxx devices.
1163:/home/rdu/Workspace/project_templates/mcu/stm32_ws/src/libraries/STM32F4xx_StdPeriph_Driver/src/stm32f4xx_flash.c ****   *   
1164:/home/rdu/Workspace/project_templates/mcu/stm32_ws/src/libraries/STM32F4xx_StdPeriph_Driver/src/stm32f4xx_flash.c ****   * @param  OB_PCROP: specifies the sector(s) to be read/write protected or unprotected.
1165:/home/rdu/Workspace/project_templates/mcu/stm32_ws/src/libraries/STM32F4xx_StdPeriph_Driver/src/stm32f4xx_flash.c ****   *          This parameter can be one of the following values:
1166:/home/rdu/Workspace/project_templates/mcu/stm32_ws/src/libraries/STM32F4xx_StdPeriph_Driver/src/stm32f4xx_flash.c ****   *            @arg OB_PCROP: A value between OB_PCROP_Sector12 and OB_PCROP_Sector23 
1167:/home/rdu/Workspace/project_templates/mcu/stm32_ws/src/libraries/STM32F4xx_StdPeriph_Driver/src/stm32f4xx_flash.c ****   *            @arg OB_PCROP_Sector_All
1168:/home/rdu/Workspace/project_templates/mcu/stm32_ws/src/libraries/STM32F4xx_StdPeriph_Driver/src/stm32f4xx_flash.c ****   * @param  Newstate: new state of the Write Protection.
1169:/home/rdu/Workspace/project_templates/mcu/stm32_ws/src/libraries/STM32F4xx_StdPeriph_Driver/src/stm32f4xx_flash.c ****   *          This parameter can be: ENABLE or DISABLE.
1170:/home/rdu/Workspace/project_templates/mcu/stm32_ws/src/libraries/STM32F4xx_StdPeriph_Driver/src/stm32f4xx_flash.c ****   * @retval None  
1171:/home/rdu/Workspace/project_templates/mcu/stm32_ws/src/libraries/STM32F4xx_StdPeriph_Driver/src/stm32f4xx_flash.c ****   */
1172:/home/rdu/Workspace/project_templates/mcu/stm32_ws/src/libraries/STM32F4xx_StdPeriph_Driver/src/stm32f4xx_flash.c **** void FLASH_OB_PCROP1Config(uint32_t OB_PCROP, FunctionalState NewState)
1173:/home/rdu/Workspace/project_templates/mcu/stm32_ws/src/libraries/STM32F4xx_StdPeriph_Driver/src/stm32f4xx_flash.c **** { 
 1549              		.loc 1 1173 0
 1550              		.cfi_startproc
 1551              		@ args = 0, pretend = 0, frame = 16
 1552              		@ frame_needed = 0, uses_anonymous_args = 0
 1553 0000 00B5     		push	{lr}
 1554              	.LCFI43:
 1555              		.cfi_def_cfa_offset 4
 1556              		.cfi_offset 14, -4
 1557 0002 85B0     		sub	sp, sp, #20
 1558              	.LCFI44:
 1559              		.cfi_def_cfa_offset 24
 1560 0004 0190     		str	r0, [sp, #4]
 1561 0006 0B46     		mov	r3, r1
 1562 0008 8DF80330 		strb	r3, [sp, #3]
1174:/home/rdu/Workspace/project_templates/mcu/stm32_ws/src/libraries/STM32F4xx_StdPeriph_Driver/src/stm32f4xx_flash.c ****   FLASH_Status status = FLASH_COMPLETE;
 1563              		.loc 1 1174 0
 1564 000c 0923     		movs	r3, #9
 1565 000e 8DF80F30 		strb	r3, [sp, #15]
1175:/home/rdu/Workspace/project_templates/mcu/stm32_ws/src/libraries/STM32F4xx_StdPeriph_Driver/src/stm32f4xx_flash.c ****   
1176:/home/rdu/Workspace/project_templates/mcu/stm32_ws/src/libraries/STM32F4xx_StdPeriph_Driver/src/stm32f4xx_flash.c ****   /* Check the parameters */
1177:/home/rdu/Workspace/project_templates/mcu/stm32_ws/src/libraries/STM32F4xx_StdPeriph_Driver/src/stm32f4xx_flash.c ****   assert_param(IS_OB_PCROP(OB_PCROP));
1178:/home/rdu/Workspace/project_templates/mcu/stm32_ws/src/libraries/STM32F4xx_StdPeriph_Driver/src/stm32f4xx_flash.c ****   assert_param(IS_FUNCTIONAL_STATE(NewState));
1179:/home/rdu/Workspace/project_templates/mcu/stm32_ws/src/libraries/STM32F4xx_StdPeriph_Driver/src/stm32f4xx_flash.c ****     
1180:/home/rdu/Workspace/project_templates/mcu/stm32_ws/src/libraries/STM32F4xx_StdPeriph_Driver/src/stm32f4xx_flash.c ****   status = FLASH_WaitForLastOperation();
 1566              		.loc 1 1180 0
 1567 0012 FFF7FEFF 		bl	FLASH_WaitForLastOperation
 1568 0016 0346     		mov	r3, r0
 1569 0018 8DF80F30 		strb	r3, [sp, #15]
1181:/home/rdu/Workspace/project_templates/mcu/stm32_ws/src/libraries/STM32F4xx_StdPeriph_Driver/src/stm32f4xx_flash.c **** 
1182:/home/rdu/Workspace/project_templates/mcu/stm32_ws/src/libraries/STM32F4xx_StdPeriph_Driver/src/stm32f4xx_flash.c ****   if(status == FLASH_COMPLETE)
 1570              		.loc 1 1182 0
 1571 001c 9DF80F30 		ldrb	r3, [sp, #15]	@ zero_extendqisi2
 1572 0020 092B     		cmp	r3, #9
 1573 0022 18D1     		bne	.L124
1183:/home/rdu/Workspace/project_templates/mcu/stm32_ws/src/libraries/STM32F4xx_StdPeriph_Driver/src/stm32f4xx_flash.c ****   { 
1184:/home/rdu/Workspace/project_templates/mcu/stm32_ws/src/libraries/STM32F4xx_StdPeriph_Driver/src/stm32f4xx_flash.c ****     if(NewState != DISABLE)
 1574              		.loc 1 1184 0
 1575 0024 9DF80330 		ldrb	r3, [sp, #3]	@ zero_extendqisi2
 1576 0028 002B     		cmp	r3, #0
 1577 002a 09D0     		beq	.L123
1185:/home/rdu/Workspace/project_templates/mcu/stm32_ws/src/libraries/STM32F4xx_StdPeriph_Driver/src/stm32f4xx_flash.c ****     {
1186:/home/rdu/Workspace/project_templates/mcu/stm32_ws/src/libraries/STM32F4xx_StdPeriph_Driver/src/stm32f4xx_flash.c ****       *(__IO uint16_t*)OPTCR1_BYTE2_ADDRESS |= (uint16_t)OB_PCROP;
 1578              		.loc 1 1186 0
 1579 002c 0C4B     		ldr	r3, .L125
 1580 002e 1B88     		ldrh	r3, [r3]	@ movhi
 1581 0030 9AB2     		uxth	r2, r3
 1582 0032 019B     		ldr	r3, [sp, #4]
 1583 0034 9BB2     		uxth	r3, r3
 1584 0036 0A49     		ldr	r1, .L125
 1585 0038 1343     		orrs	r3, r3, r2
 1586 003a 9BB2     		uxth	r3, r3
 1587 003c 0B80     		strh	r3, [r1]	@ movhi
1187:/home/rdu/Workspace/project_templates/mcu/stm32_ws/src/libraries/STM32F4xx_StdPeriph_Driver/src/stm32f4xx_flash.c ****     }
1188:/home/rdu/Workspace/project_templates/mcu/stm32_ws/src/libraries/STM32F4xx_StdPeriph_Driver/src/stm32f4xx_flash.c ****     else
1189:/home/rdu/Workspace/project_templates/mcu/stm32_ws/src/libraries/STM32F4xx_StdPeriph_Driver/src/stm32f4xx_flash.c ****     {
1190:/home/rdu/Workspace/project_templates/mcu/stm32_ws/src/libraries/STM32F4xx_StdPeriph_Driver/src/stm32f4xx_flash.c ****       *(__IO uint16_t*)OPTCR1_BYTE2_ADDRESS &= (~OB_PCROP);
1191:/home/rdu/Workspace/project_templates/mcu/stm32_ws/src/libraries/STM32F4xx_StdPeriph_Driver/src/stm32f4xx_flash.c ****     }
1192:/home/rdu/Workspace/project_templates/mcu/stm32_ws/src/libraries/STM32F4xx_StdPeriph_Driver/src/stm32f4xx_flash.c ****   }
1193:/home/rdu/Workspace/project_templates/mcu/stm32_ws/src/libraries/STM32F4xx_StdPeriph_Driver/src/stm32f4xx_flash.c **** }
 1588              		.loc 1 1193 0
 1589 003e 0AE0     		b	.L124
 1590              	.L123:
1190:/home/rdu/Workspace/project_templates/mcu/stm32_ws/src/libraries/STM32F4xx_StdPeriph_Driver/src/stm32f4xx_flash.c ****     }
 1591              		.loc 1 1190 0
 1592 0040 074B     		ldr	r3, .L125
 1593 0042 1B88     		ldrh	r3, [r3]	@ movhi
 1594 0044 9AB2     		uxth	r2, r3
 1595 0046 019B     		ldr	r3, [sp, #4]
 1596 0048 9BB2     		uxth	r3, r3
 1597 004a DB43     		mvns	r3, r3
 1598 004c 9BB2     		uxth	r3, r3
 1599 004e 0449     		ldr	r1, .L125
 1600 0050 1340     		ands	r3, r3, r2
 1601 0052 9BB2     		uxth	r3, r3
 1602 0054 0B80     		strh	r3, [r1]	@ movhi
 1603              	.L124:
 1604              		.loc 1 1193 0
 1605 0056 00BF     		nop
 1606 0058 05B0     		add	sp, sp, #20
 1607              	.LCFI45:
 1608              		.cfi_def_cfa_offset 4
 1609              		@ sp needed
 1610 005a 5DF804FB 		ldr	pc, [sp], #4
 1611              	.L126:
 1612 005e 00BF     		.align	2
 1613              	.L125:
 1614 0060 1A3C0240 		.word	1073888282
 1615              		.cfi_endproc
 1616              	.LFE145:
 1618              		.section	.text.FLASH_OB_RDPConfig,"ax",%progbits
 1619              		.align	1
 1620              		.global	FLASH_OB_RDPConfig
 1621              		.syntax unified
 1622              		.thumb
 1623              		.thumb_func
 1624              		.fpu fpv4-sp-d16
 1626              	FLASH_OB_RDPConfig:
 1627              	.LFB146:
1194:/home/rdu/Workspace/project_templates/mcu/stm32_ws/src/libraries/STM32F4xx_StdPeriph_Driver/src/stm32f4xx_flash.c **** 
1195:/home/rdu/Workspace/project_templates/mcu/stm32_ws/src/libraries/STM32F4xx_StdPeriph_Driver/src/stm32f4xx_flash.c **** 
1196:/home/rdu/Workspace/project_templates/mcu/stm32_ws/src/libraries/STM32F4xx_StdPeriph_Driver/src/stm32f4xx_flash.c **** /**
1197:/home/rdu/Workspace/project_templates/mcu/stm32_ws/src/libraries/STM32F4xx_StdPeriph_Driver/src/stm32f4xx_flash.c ****   * @brief  Sets the read protection level.
1198:/home/rdu/Workspace/project_templates/mcu/stm32_ws/src/libraries/STM32F4xx_StdPeriph_Driver/src/stm32f4xx_flash.c ****   * @param  OB_RDP: specifies the read protection level.
1199:/home/rdu/Workspace/project_templates/mcu/stm32_ws/src/libraries/STM32F4xx_StdPeriph_Driver/src/stm32f4xx_flash.c ****   *          This parameter can be one of the following values:
1200:/home/rdu/Workspace/project_templates/mcu/stm32_ws/src/libraries/STM32F4xx_StdPeriph_Driver/src/stm32f4xx_flash.c ****   *            @arg OB_RDP_Level_0: No protection
1201:/home/rdu/Workspace/project_templates/mcu/stm32_ws/src/libraries/STM32F4xx_StdPeriph_Driver/src/stm32f4xx_flash.c ****   *            @arg OB_RDP_Level_1: Read protection of the memory
1202:/home/rdu/Workspace/project_templates/mcu/stm32_ws/src/libraries/STM32F4xx_StdPeriph_Driver/src/stm32f4xx_flash.c ****   *            @arg OB_RDP_Level_2: Full chip protection
1203:/home/rdu/Workspace/project_templates/mcu/stm32_ws/src/libraries/STM32F4xx_StdPeriph_Driver/src/stm32f4xx_flash.c ****   *   
1204:/home/rdu/Workspace/project_templates/mcu/stm32_ws/src/libraries/STM32F4xx_StdPeriph_Driver/src/stm32f4xx_flash.c ****   * /!\ Warning /!\ When enabling OB_RDP level 2 it's no more possible to go back to level 1 or 0
1205:/home/rdu/Workspace/project_templates/mcu/stm32_ws/src/libraries/STM32F4xx_StdPeriph_Driver/src/stm32f4xx_flash.c ****   *    
1206:/home/rdu/Workspace/project_templates/mcu/stm32_ws/src/libraries/STM32F4xx_StdPeriph_Driver/src/stm32f4xx_flash.c ****   * @retval None
1207:/home/rdu/Workspace/project_templates/mcu/stm32_ws/src/libraries/STM32F4xx_StdPeriph_Driver/src/stm32f4xx_flash.c ****   */
1208:/home/rdu/Workspace/project_templates/mcu/stm32_ws/src/libraries/STM32F4xx_StdPeriph_Driver/src/stm32f4xx_flash.c **** void FLASH_OB_RDPConfig(uint8_t OB_RDP)
1209:/home/rdu/Workspace/project_templates/mcu/stm32_ws/src/libraries/STM32F4xx_StdPeriph_Driver/src/stm32f4xx_flash.c **** {
 1628              		.loc 1 1209 0
 1629              		.cfi_startproc
 1630              		@ args = 0, pretend = 0, frame = 16
 1631              		@ frame_needed = 0, uses_anonymous_args = 0
 1632 0000 00B5     		push	{lr}
 1633              	.LCFI46:
 1634              		.cfi_def_cfa_offset 4
 1635              		.cfi_offset 14, -4
 1636 0002 85B0     		sub	sp, sp, #20
 1637              	.LCFI47:
 1638              		.cfi_def_cfa_offset 24
 1639 0004 0346     		mov	r3, r0
 1640 0006 8DF80730 		strb	r3, [sp, #7]
1210:/home/rdu/Workspace/project_templates/mcu/stm32_ws/src/libraries/STM32F4xx_StdPeriph_Driver/src/stm32f4xx_flash.c ****   FLASH_Status status = FLASH_COMPLETE;
 1641              		.loc 1 1210 0
 1642 000a 0923     		movs	r3, #9
 1643 000c 8DF80F30 		strb	r3, [sp, #15]
1211:/home/rdu/Workspace/project_templates/mcu/stm32_ws/src/libraries/STM32F4xx_StdPeriph_Driver/src/stm32f4xx_flash.c **** 
1212:/home/rdu/Workspace/project_templates/mcu/stm32_ws/src/libraries/STM32F4xx_StdPeriph_Driver/src/stm32f4xx_flash.c ****   /* Check the parameters */
1213:/home/rdu/Workspace/project_templates/mcu/stm32_ws/src/libraries/STM32F4xx_StdPeriph_Driver/src/stm32f4xx_flash.c ****   assert_param(IS_OB_RDP(OB_RDP));
1214:/home/rdu/Workspace/project_templates/mcu/stm32_ws/src/libraries/STM32F4xx_StdPeriph_Driver/src/stm32f4xx_flash.c **** 
1215:/home/rdu/Workspace/project_templates/mcu/stm32_ws/src/libraries/STM32F4xx_StdPeriph_Driver/src/stm32f4xx_flash.c ****   status = FLASH_WaitForLastOperation();
 1644              		.loc 1 1215 0
 1645 0010 FFF7FEFF 		bl	FLASH_WaitForLastOperation
 1646 0014 0346     		mov	r3, r0
 1647 0016 8DF80F30 		strb	r3, [sp, #15]
1216:/home/rdu/Workspace/project_templates/mcu/stm32_ws/src/libraries/STM32F4xx_StdPeriph_Driver/src/stm32f4xx_flash.c **** 
1217:/home/rdu/Workspace/project_templates/mcu/stm32_ws/src/libraries/STM32F4xx_StdPeriph_Driver/src/stm32f4xx_flash.c ****   if(status == FLASH_COMPLETE)
 1648              		.loc 1 1217 0
 1649 001a 9DF80F30 		ldrb	r3, [sp, #15]	@ zero_extendqisi2
 1650 001e 092B     		cmp	r3, #9
 1651 0020 03D1     		bne	.L129
1218:/home/rdu/Workspace/project_templates/mcu/stm32_ws/src/libraries/STM32F4xx_StdPeriph_Driver/src/stm32f4xx_flash.c ****   {
1219:/home/rdu/Workspace/project_templates/mcu/stm32_ws/src/libraries/STM32F4xx_StdPeriph_Driver/src/stm32f4xx_flash.c ****     *(__IO uint8_t*)OPTCR_BYTE1_ADDRESS = OB_RDP;
 1652              		.loc 1 1219 0
 1653 0022 044A     		ldr	r2, .L130
 1654 0024 9DF80730 		ldrb	r3, [sp, #7]
 1655 0028 1370     		strb	r3, [r2]
 1656              	.L129:
1220:/home/rdu/Workspace/project_templates/mcu/stm32_ws/src/libraries/STM32F4xx_StdPeriph_Driver/src/stm32f4xx_flash.c **** 
1221:/home/rdu/Workspace/project_templates/mcu/stm32_ws/src/libraries/STM32F4xx_StdPeriph_Driver/src/stm32f4xx_flash.c ****   }
1222:/home/rdu/Workspace/project_templates/mcu/stm32_ws/src/libraries/STM32F4xx_StdPeriph_Driver/src/stm32f4xx_flash.c **** }
 1657              		.loc 1 1222 0
 1658 002a 00BF     		nop
 1659 002c 05B0     		add	sp, sp, #20
 1660              	.LCFI48:
 1661              		.cfi_def_cfa_offset 4
 1662              		@ sp needed
 1663 002e 5DF804FB 		ldr	pc, [sp], #4
 1664              	.L131:
 1665 0032 00BF     		.align	2
 1666              	.L130:
 1667 0034 153C0240 		.word	1073888277
 1668              		.cfi_endproc
 1669              	.LFE146:
 1671              		.section	.text.FLASH_OB_UserConfig,"ax",%progbits
 1672              		.align	1
 1673              		.global	FLASH_OB_UserConfig
 1674              		.syntax unified
 1675              		.thumb
 1676              		.thumb_func
 1677              		.fpu fpv4-sp-d16
 1679              	FLASH_OB_UserConfig:
 1680              	.LFB147:
1223:/home/rdu/Workspace/project_templates/mcu/stm32_ws/src/libraries/STM32F4xx_StdPeriph_Driver/src/stm32f4xx_flash.c **** 
1224:/home/rdu/Workspace/project_templates/mcu/stm32_ws/src/libraries/STM32F4xx_StdPeriph_Driver/src/stm32f4xx_flash.c **** /**
1225:/home/rdu/Workspace/project_templates/mcu/stm32_ws/src/libraries/STM32F4xx_StdPeriph_Driver/src/stm32f4xx_flash.c ****   * @brief  Programs the FLASH User Option Byte: IWDG_SW / RST_STOP / RST_STDBY.    
1226:/home/rdu/Workspace/project_templates/mcu/stm32_ws/src/libraries/STM32F4xx_StdPeriph_Driver/src/stm32f4xx_flash.c ****   * @param  OB_IWDG: Selects the IWDG mode
1227:/home/rdu/Workspace/project_templates/mcu/stm32_ws/src/libraries/STM32F4xx_StdPeriph_Driver/src/stm32f4xx_flash.c ****   *          This parameter can be one of the following values:
1228:/home/rdu/Workspace/project_templates/mcu/stm32_ws/src/libraries/STM32F4xx_StdPeriph_Driver/src/stm32f4xx_flash.c ****   *            @arg OB_IWDG_SW: Software IWDG selected
1229:/home/rdu/Workspace/project_templates/mcu/stm32_ws/src/libraries/STM32F4xx_StdPeriph_Driver/src/stm32f4xx_flash.c ****   *            @arg OB_IWDG_HW: Hardware IWDG selected
1230:/home/rdu/Workspace/project_templates/mcu/stm32_ws/src/libraries/STM32F4xx_StdPeriph_Driver/src/stm32f4xx_flash.c ****   * @param  OB_STOP: Reset event when entering STOP mode.
1231:/home/rdu/Workspace/project_templates/mcu/stm32_ws/src/libraries/STM32F4xx_StdPeriph_Driver/src/stm32f4xx_flash.c ****   *          This parameter  can be one of the following values:
1232:/home/rdu/Workspace/project_templates/mcu/stm32_ws/src/libraries/STM32F4xx_StdPeriph_Driver/src/stm32f4xx_flash.c ****   *            @arg OB_STOP_NoRST: No reset generated when entering in STOP
1233:/home/rdu/Workspace/project_templates/mcu/stm32_ws/src/libraries/STM32F4xx_StdPeriph_Driver/src/stm32f4xx_flash.c ****   *            @arg OB_STOP_RST: Reset generated when entering in STOP
1234:/home/rdu/Workspace/project_templates/mcu/stm32_ws/src/libraries/STM32F4xx_StdPeriph_Driver/src/stm32f4xx_flash.c ****   * @param  OB_STDBY: Reset event when entering Standby mode.
1235:/home/rdu/Workspace/project_templates/mcu/stm32_ws/src/libraries/STM32F4xx_StdPeriph_Driver/src/stm32f4xx_flash.c ****   *          This parameter  can be one of the following values:
1236:/home/rdu/Workspace/project_templates/mcu/stm32_ws/src/libraries/STM32F4xx_StdPeriph_Driver/src/stm32f4xx_flash.c ****   *            @arg OB_STDBY_NoRST: No reset generated when entering in STANDBY
1237:/home/rdu/Workspace/project_templates/mcu/stm32_ws/src/libraries/STM32F4xx_StdPeriph_Driver/src/stm32f4xx_flash.c ****   *            @arg OB_STDBY_RST: Reset generated when entering in STANDBY
1238:/home/rdu/Workspace/project_templates/mcu/stm32_ws/src/libraries/STM32F4xx_StdPeriph_Driver/src/stm32f4xx_flash.c ****   * @retval None
1239:/home/rdu/Workspace/project_templates/mcu/stm32_ws/src/libraries/STM32F4xx_StdPeriph_Driver/src/stm32f4xx_flash.c ****   */
1240:/home/rdu/Workspace/project_templates/mcu/stm32_ws/src/libraries/STM32F4xx_StdPeriph_Driver/src/stm32f4xx_flash.c **** void FLASH_OB_UserConfig(uint8_t OB_IWDG, uint8_t OB_STOP, uint8_t OB_STDBY)
1241:/home/rdu/Workspace/project_templates/mcu/stm32_ws/src/libraries/STM32F4xx_StdPeriph_Driver/src/stm32f4xx_flash.c **** {
 1681              		.loc 1 1241 0
 1682              		.cfi_startproc
 1683              		@ args = 0, pretend = 0, frame = 16
 1684              		@ frame_needed = 0, uses_anonymous_args = 0
 1685 0000 00B5     		push	{lr}
 1686              	.LCFI49:
 1687              		.cfi_def_cfa_offset 4
 1688              		.cfi_offset 14, -4
 1689 0002 85B0     		sub	sp, sp, #20
 1690              	.LCFI50:
 1691              		.cfi_def_cfa_offset 24
 1692 0004 0346     		mov	r3, r0
 1693 0006 8DF80730 		strb	r3, [sp, #7]
 1694 000a 0B46     		mov	r3, r1
 1695 000c 8DF80630 		strb	r3, [sp, #6]
 1696 0010 1346     		mov	r3, r2
 1697 0012 8DF80530 		strb	r3, [sp, #5]
1242:/home/rdu/Workspace/project_templates/mcu/stm32_ws/src/libraries/STM32F4xx_StdPeriph_Driver/src/stm32f4xx_flash.c ****   uint8_t optiontmp = 0xFF;
 1698              		.loc 1 1242 0
 1699 0016 FF23     		movs	r3, #255
 1700 0018 8DF80F30 		strb	r3, [sp, #15]
1243:/home/rdu/Workspace/project_templates/mcu/stm32_ws/src/libraries/STM32F4xx_StdPeriph_Driver/src/stm32f4xx_flash.c ****   FLASH_Status status = FLASH_COMPLETE; 
 1701              		.loc 1 1243 0
 1702 001c 0923     		movs	r3, #9
 1703 001e 8DF80E30 		strb	r3, [sp, #14]
1244:/home/rdu/Workspace/project_templates/mcu/stm32_ws/src/libraries/STM32F4xx_StdPeriph_Driver/src/stm32f4xx_flash.c **** 
1245:/home/rdu/Workspace/project_templates/mcu/stm32_ws/src/libraries/STM32F4xx_StdPeriph_Driver/src/stm32f4xx_flash.c ****   /* Check the parameters */
1246:/home/rdu/Workspace/project_templates/mcu/stm32_ws/src/libraries/STM32F4xx_StdPeriph_Driver/src/stm32f4xx_flash.c ****   assert_param(IS_OB_IWDG_SOURCE(OB_IWDG));
1247:/home/rdu/Workspace/project_templates/mcu/stm32_ws/src/libraries/STM32F4xx_StdPeriph_Driver/src/stm32f4xx_flash.c ****   assert_param(IS_OB_STOP_SOURCE(OB_STOP));
1248:/home/rdu/Workspace/project_templates/mcu/stm32_ws/src/libraries/STM32F4xx_StdPeriph_Driver/src/stm32f4xx_flash.c ****   assert_param(IS_OB_STDBY_SOURCE(OB_STDBY));
1249:/home/rdu/Workspace/project_templates/mcu/stm32_ws/src/libraries/STM32F4xx_StdPeriph_Driver/src/stm32f4xx_flash.c **** 
1250:/home/rdu/Workspace/project_templates/mcu/stm32_ws/src/libraries/STM32F4xx_StdPeriph_Driver/src/stm32f4xx_flash.c ****   /* Wait for last operation to be completed */
1251:/home/rdu/Workspace/project_templates/mcu/stm32_ws/src/libraries/STM32F4xx_StdPeriph_Driver/src/stm32f4xx_flash.c ****   status = FLASH_WaitForLastOperation();
 1704              		.loc 1 1251 0
 1705 0022 FFF7FEFF 		bl	FLASH_WaitForLastOperation
 1706 0026 0346     		mov	r3, r0
 1707 0028 8DF80E30 		strb	r3, [sp, #14]
1252:/home/rdu/Workspace/project_templates/mcu/stm32_ws/src/libraries/STM32F4xx_StdPeriph_Driver/src/stm32f4xx_flash.c ****   
1253:/home/rdu/Workspace/project_templates/mcu/stm32_ws/src/libraries/STM32F4xx_StdPeriph_Driver/src/stm32f4xx_flash.c ****   if(status == FLASH_COMPLETE)
 1708              		.loc 1 1253 0
 1709 002c 9DF80E30 		ldrb	r3, [sp, #14]	@ zero_extendqisi2
 1710 0030 092B     		cmp	r3, #9
 1711 0032 16D1     		bne	.L134
1254:/home/rdu/Workspace/project_templates/mcu/stm32_ws/src/libraries/STM32F4xx_StdPeriph_Driver/src/stm32f4xx_flash.c ****   { 
1255:/home/rdu/Workspace/project_templates/mcu/stm32_ws/src/libraries/STM32F4xx_StdPeriph_Driver/src/stm32f4xx_flash.c **** #if defined(STM32F427_437xx) || defined(STM32F429_439xx) || defined(STM32F469_479xx)
1256:/home/rdu/Workspace/project_templates/mcu/stm32_ws/src/libraries/STM32F4xx_StdPeriph_Driver/src/stm32f4xx_flash.c ****     /* Mask OPTLOCK, OPTSTRT, BOR_LEV and BFB2 bits */
1257:/home/rdu/Workspace/project_templates/mcu/stm32_ws/src/libraries/STM32F4xx_StdPeriph_Driver/src/stm32f4xx_flash.c ****     optiontmp =  (uint8_t)((*(__IO uint8_t *)OPTCR_BYTE0_ADDRESS) & (uint8_t)0x1F);
1258:/home/rdu/Workspace/project_templates/mcu/stm32_ws/src/libraries/STM32F4xx_StdPeriph_Driver/src/stm32f4xx_flash.c **** #endif /* STM32F427_437xx ||  STM32F429_439xx ||  STM32F469_479xx */
1259:/home/rdu/Workspace/project_templates/mcu/stm32_ws/src/libraries/STM32F4xx_StdPeriph_Driver/src/stm32f4xx_flash.c **** 
1260:/home/rdu/Workspace/project_templates/mcu/stm32_ws/src/libraries/STM32F4xx_StdPeriph_Driver/src/stm32f4xx_flash.c **** #if defined(STM32F40_41xxx) || defined(STM32F401xx) || defined(STM32F410xx) || defined(STM32F411xE)
1261:/home/rdu/Workspace/project_templates/mcu/stm32_ws/src/libraries/STM32F4xx_StdPeriph_Driver/src/stm32f4xx_flash.c ****     /* Mask OPTLOCK, OPTSTRT and BOR_LEV bits */
1262:/home/rdu/Workspace/project_templates/mcu/stm32_ws/src/libraries/STM32F4xx_StdPeriph_Driver/src/stm32f4xx_flash.c ****     optiontmp =  (uint8_t)((*(__IO uint8_t *)OPTCR_BYTE0_ADDRESS) & (uint8_t)0x0F); 
 1712              		.loc 1 1262 0
 1713 0034 0D4B     		ldr	r3, .L135
 1714 0036 1B78     		ldrb	r3, [r3]
 1715 0038 DBB2     		uxtb	r3, r3
 1716 003a 03F00F03 		and	r3, r3, #15
 1717 003e 8DF80F30 		strb	r3, [sp, #15]
1263:/home/rdu/Workspace/project_templates/mcu/stm32_ws/src/libraries/STM32F4xx_StdPeriph_Driver/src/stm32f4xx_flash.c **** #endif /* STM32F40_41xxx || STM32F401xx || STM32F410xx || STM32F411xE || STM32F446xx */ 
1264:/home/rdu/Workspace/project_templates/mcu/stm32_ws/src/libraries/STM32F4xx_StdPeriph_Driver/src/stm32f4xx_flash.c **** 
1265:/home/rdu/Workspace/project_templates/mcu/stm32_ws/src/libraries/STM32F4xx_StdPeriph_Driver/src/stm32f4xx_flash.c ****     /* Update User Option Byte */
1266:/home/rdu/Workspace/project_templates/mcu/stm32_ws/src/libraries/STM32F4xx_StdPeriph_Driver/src/stm32f4xx_flash.c ****     *(__IO uint8_t *)OPTCR_BYTE0_ADDRESS = OB_IWDG | (uint8_t)(OB_STDBY | (uint8_t)(OB_STOP | ((uin
 1718              		.loc 1 1266 0
 1719 0042 9DF80620 		ldrb	r2, [sp, #6]
 1720 0046 9DF80F30 		ldrb	r3, [sp, #15]
 1721 004a 1343     		orrs	r3, r3, r2
 1722 004c DAB2     		uxtb	r2, r3
 1723 004e 9DF80530 		ldrb	r3, [sp, #5]
 1724 0052 1343     		orrs	r3, r3, r2
 1725 0054 DAB2     		uxtb	r2, r3
 1726 0056 0549     		ldr	r1, .L135
 1727 0058 9DF80730 		ldrb	r3, [sp, #7]
 1728 005c 1343     		orrs	r3, r3, r2
 1729 005e DBB2     		uxtb	r3, r3
 1730 0060 0B70     		strb	r3, [r1]
 1731              	.L134:
1267:/home/rdu/Workspace/project_templates/mcu/stm32_ws/src/libraries/STM32F4xx_StdPeriph_Driver/src/stm32f4xx_flash.c ****   }  
1268:/home/rdu/Workspace/project_templates/mcu/stm32_ws/src/libraries/STM32F4xx_StdPeriph_Driver/src/stm32f4xx_flash.c **** }
 1732              		.loc 1 1268 0
 1733 0062 00BF     		nop
 1734 0064 05B0     		add	sp, sp, #20
 1735              	.LCFI51:
 1736              		.cfi_def_cfa_offset 4
 1737              		@ sp needed
 1738 0066 5DF804FB 		ldr	pc, [sp], #4
 1739              	.L136:
 1740 006a 00BF     		.align	2
 1741              	.L135:
 1742 006c 143C0240 		.word	1073888276
 1743              		.cfi_endproc
 1744              	.LFE147:
 1746              		.section	.text.FLASH_OB_BootConfig,"ax",%progbits
 1747              		.align	1
 1748              		.global	FLASH_OB_BootConfig
 1749              		.syntax unified
 1750              		.thumb
 1751              		.thumb_func
 1752              		.fpu fpv4-sp-d16
 1754              	FLASH_OB_BootConfig:
 1755              	.LFB148:
1269:/home/rdu/Workspace/project_templates/mcu/stm32_ws/src/libraries/STM32F4xx_StdPeriph_Driver/src/stm32f4xx_flash.c **** 
1270:/home/rdu/Workspace/project_templates/mcu/stm32_ws/src/libraries/STM32F4xx_StdPeriph_Driver/src/stm32f4xx_flash.c **** /**
1271:/home/rdu/Workspace/project_templates/mcu/stm32_ws/src/libraries/STM32F4xx_StdPeriph_Driver/src/stm32f4xx_flash.c ****   * @brief  Configure the Dual Bank Boot.
1272:/home/rdu/Workspace/project_templates/mcu/stm32_ws/src/libraries/STM32F4xx_StdPeriph_Driver/src/stm32f4xx_flash.c ****   *   
1273:/home/rdu/Workspace/project_templates/mcu/stm32_ws/src/libraries/STM32F4xx_StdPeriph_Driver/src/stm32f4xx_flash.c ****   * @note   This function can be used only for STM32F42xxx/43xxx devices.
1274:/home/rdu/Workspace/project_templates/mcu/stm32_ws/src/libraries/STM32F4xx_StdPeriph_Driver/src/stm32f4xx_flash.c ****   *      
1275:/home/rdu/Workspace/project_templates/mcu/stm32_ws/src/libraries/STM32F4xx_StdPeriph_Driver/src/stm32f4xx_flash.c ****   * @param  OB_BOOT: specifies the Dual Bank Boot Option byte.
1276:/home/rdu/Workspace/project_templates/mcu/stm32_ws/src/libraries/STM32F4xx_StdPeriph_Driver/src/stm32f4xx_flash.c ****   *          This parameter can be one of the following values:
1277:/home/rdu/Workspace/project_templates/mcu/stm32_ws/src/libraries/STM32F4xx_StdPeriph_Driver/src/stm32f4xx_flash.c ****   *            @arg OB_Dual_BootEnabled: Dual Bank Boot Enable
1278:/home/rdu/Workspace/project_templates/mcu/stm32_ws/src/libraries/STM32F4xx_StdPeriph_Driver/src/stm32f4xx_flash.c ****   *            @arg OB_Dual_BootDisabled: Dual Bank Boot Disabled
1279:/home/rdu/Workspace/project_templates/mcu/stm32_ws/src/libraries/STM32F4xx_StdPeriph_Driver/src/stm32f4xx_flash.c ****   * @retval None
1280:/home/rdu/Workspace/project_templates/mcu/stm32_ws/src/libraries/STM32F4xx_StdPeriph_Driver/src/stm32f4xx_flash.c ****   */
1281:/home/rdu/Workspace/project_templates/mcu/stm32_ws/src/libraries/STM32F4xx_StdPeriph_Driver/src/stm32f4xx_flash.c **** void FLASH_OB_BootConfig(uint8_t OB_BOOT)
1282:/home/rdu/Workspace/project_templates/mcu/stm32_ws/src/libraries/STM32F4xx_StdPeriph_Driver/src/stm32f4xx_flash.c **** {
 1756              		.loc 1 1282 0
 1757              		.cfi_startproc
 1758              		@ args = 0, pretend = 0, frame = 8
 1759              		@ frame_needed = 0, uses_anonymous_args = 0
 1760              		@ link register save eliminated.
 1761 0000 82B0     		sub	sp, sp, #8
 1762              	.LCFI52:
 1763              		.cfi_def_cfa_offset 8
 1764 0002 0346     		mov	r3, r0
 1765 0004 8DF80730 		strb	r3, [sp, #7]
1283:/home/rdu/Workspace/project_templates/mcu/stm32_ws/src/libraries/STM32F4xx_StdPeriph_Driver/src/stm32f4xx_flash.c ****   /* Check the parameters */
1284:/home/rdu/Workspace/project_templates/mcu/stm32_ws/src/libraries/STM32F4xx_StdPeriph_Driver/src/stm32f4xx_flash.c ****   assert_param(IS_OB_BOOT(OB_BOOT));
1285:/home/rdu/Workspace/project_templates/mcu/stm32_ws/src/libraries/STM32F4xx_StdPeriph_Driver/src/stm32f4xx_flash.c **** 
1286:/home/rdu/Workspace/project_templates/mcu/stm32_ws/src/libraries/STM32F4xx_StdPeriph_Driver/src/stm32f4xx_flash.c ****   /* Set Dual Bank Boot */
1287:/home/rdu/Workspace/project_templates/mcu/stm32_ws/src/libraries/STM32F4xx_StdPeriph_Driver/src/stm32f4xx_flash.c ****   *(__IO uint8_t *)OPTCR_BYTE0_ADDRESS &= (~FLASH_OPTCR_BFB2);
 1766              		.loc 1 1287 0
 1767 0008 094B     		ldr	r3, .L138
 1768 000a 1B78     		ldrb	r3, [r3]
 1769 000c DBB2     		uxtb	r3, r3
 1770 000e 084A     		ldr	r2, .L138
 1771 0010 23F01003 		bic	r3, r3, #16
 1772 0014 DBB2     		uxtb	r3, r3
 1773 0016 1370     		strb	r3, [r2]
1288:/home/rdu/Workspace/project_templates/mcu/stm32_ws/src/libraries/STM32F4xx_StdPeriph_Driver/src/stm32f4xx_flash.c ****   *(__IO uint8_t *)OPTCR_BYTE0_ADDRESS |= OB_BOOT;
 1774              		.loc 1 1288 0
 1775 0018 054B     		ldr	r3, .L138
 1776 001a 1B78     		ldrb	r3, [r3]
 1777 001c DAB2     		uxtb	r2, r3
 1778 001e 0449     		ldr	r1, .L138
 1779 0020 9DF80730 		ldrb	r3, [sp, #7]
 1780 0024 1343     		orrs	r3, r3, r2
 1781 0026 DBB2     		uxtb	r3, r3
 1782 0028 0B70     		strb	r3, [r1]
1289:/home/rdu/Workspace/project_templates/mcu/stm32_ws/src/libraries/STM32F4xx_StdPeriph_Driver/src/stm32f4xx_flash.c **** 
1290:/home/rdu/Workspace/project_templates/mcu/stm32_ws/src/libraries/STM32F4xx_StdPeriph_Driver/src/stm32f4xx_flash.c **** }
 1783              		.loc 1 1290 0
 1784 002a 00BF     		nop
 1785 002c 02B0     		add	sp, sp, #8
 1786              	.LCFI53:
 1787              		.cfi_def_cfa_offset 0
 1788              		@ sp needed
 1789 002e 7047     		bx	lr
 1790              	.L139:
 1791              		.align	2
 1792              	.L138:
 1793 0030 143C0240 		.word	1073888276
 1794              		.cfi_endproc
 1795              	.LFE148:
 1797              		.section	.text.FLASH_OB_BORConfig,"ax",%progbits
 1798              		.align	1
 1799              		.global	FLASH_OB_BORConfig
 1800              		.syntax unified
 1801              		.thumb
 1802              		.thumb_func
 1803              		.fpu fpv4-sp-d16
 1805              	FLASH_OB_BORConfig:
 1806              	.LFB149:
1291:/home/rdu/Workspace/project_templates/mcu/stm32_ws/src/libraries/STM32F4xx_StdPeriph_Driver/src/stm32f4xx_flash.c **** 
1292:/home/rdu/Workspace/project_templates/mcu/stm32_ws/src/libraries/STM32F4xx_StdPeriph_Driver/src/stm32f4xx_flash.c **** /**
1293:/home/rdu/Workspace/project_templates/mcu/stm32_ws/src/libraries/STM32F4xx_StdPeriph_Driver/src/stm32f4xx_flash.c ****   * @brief  Sets the BOR Level. 
1294:/home/rdu/Workspace/project_templates/mcu/stm32_ws/src/libraries/STM32F4xx_StdPeriph_Driver/src/stm32f4xx_flash.c ****   * @param  OB_BOR: specifies the Option Bytes BOR Reset Level.
1295:/home/rdu/Workspace/project_templates/mcu/stm32_ws/src/libraries/STM32F4xx_StdPeriph_Driver/src/stm32f4xx_flash.c ****   *          This parameter can be one of the following values:
1296:/home/rdu/Workspace/project_templates/mcu/stm32_ws/src/libraries/STM32F4xx_StdPeriph_Driver/src/stm32f4xx_flash.c ****   *            @arg OB_BOR_LEVEL3: Supply voltage ranges from 2.7 to 3.6 V
1297:/home/rdu/Workspace/project_templates/mcu/stm32_ws/src/libraries/STM32F4xx_StdPeriph_Driver/src/stm32f4xx_flash.c ****   *            @arg OB_BOR_LEVEL2: Supply voltage ranges from 2.4 to 2.7 V
1298:/home/rdu/Workspace/project_templates/mcu/stm32_ws/src/libraries/STM32F4xx_StdPeriph_Driver/src/stm32f4xx_flash.c ****   *            @arg OB_BOR_LEVEL1: Supply voltage ranges from 2.1 to 2.4 V
1299:/home/rdu/Workspace/project_templates/mcu/stm32_ws/src/libraries/STM32F4xx_StdPeriph_Driver/src/stm32f4xx_flash.c ****   *            @arg OB_BOR_OFF: Supply voltage ranges from 1.62 to 2.1 V
1300:/home/rdu/Workspace/project_templates/mcu/stm32_ws/src/libraries/STM32F4xx_StdPeriph_Driver/src/stm32f4xx_flash.c ****   * @retval None
1301:/home/rdu/Workspace/project_templates/mcu/stm32_ws/src/libraries/STM32F4xx_StdPeriph_Driver/src/stm32f4xx_flash.c ****   */
1302:/home/rdu/Workspace/project_templates/mcu/stm32_ws/src/libraries/STM32F4xx_StdPeriph_Driver/src/stm32f4xx_flash.c **** void FLASH_OB_BORConfig(uint8_t OB_BOR)
1303:/home/rdu/Workspace/project_templates/mcu/stm32_ws/src/libraries/STM32F4xx_StdPeriph_Driver/src/stm32f4xx_flash.c **** {
 1807              		.loc 1 1303 0
 1808              		.cfi_startproc
 1809              		@ args = 0, pretend = 0, frame = 8
 1810              		@ frame_needed = 0, uses_anonymous_args = 0
 1811              		@ link register save eliminated.
 1812 0000 82B0     		sub	sp, sp, #8
 1813              	.LCFI54:
 1814              		.cfi_def_cfa_offset 8
 1815 0002 0346     		mov	r3, r0
 1816 0004 8DF80730 		strb	r3, [sp, #7]
1304:/home/rdu/Workspace/project_templates/mcu/stm32_ws/src/libraries/STM32F4xx_StdPeriph_Driver/src/stm32f4xx_flash.c ****   /* Check the parameters */
1305:/home/rdu/Workspace/project_templates/mcu/stm32_ws/src/libraries/STM32F4xx_StdPeriph_Driver/src/stm32f4xx_flash.c ****   assert_param(IS_OB_BOR(OB_BOR));
1306:/home/rdu/Workspace/project_templates/mcu/stm32_ws/src/libraries/STM32F4xx_StdPeriph_Driver/src/stm32f4xx_flash.c **** 
1307:/home/rdu/Workspace/project_templates/mcu/stm32_ws/src/libraries/STM32F4xx_StdPeriph_Driver/src/stm32f4xx_flash.c ****   /* Set the BOR Level */
1308:/home/rdu/Workspace/project_templates/mcu/stm32_ws/src/libraries/STM32F4xx_StdPeriph_Driver/src/stm32f4xx_flash.c ****   *(__IO uint8_t *)OPTCR_BYTE0_ADDRESS &= (~FLASH_OPTCR_BOR_LEV);
 1817              		.loc 1 1308 0
 1818 0008 094B     		ldr	r3, .L141
 1819 000a 1B78     		ldrb	r3, [r3]
 1820 000c DBB2     		uxtb	r3, r3
 1821 000e 084A     		ldr	r2, .L141
 1822 0010 23F00C03 		bic	r3, r3, #12
 1823 0014 DBB2     		uxtb	r3, r3
 1824 0016 1370     		strb	r3, [r2]
1309:/home/rdu/Workspace/project_templates/mcu/stm32_ws/src/libraries/STM32F4xx_StdPeriph_Driver/src/stm32f4xx_flash.c ****   *(__IO uint8_t *)OPTCR_BYTE0_ADDRESS |= OB_BOR;
 1825              		.loc 1 1309 0
 1826 0018 054B     		ldr	r3, .L141
 1827 001a 1B78     		ldrb	r3, [r3]
 1828 001c DAB2     		uxtb	r2, r3
 1829 001e 0449     		ldr	r1, .L141
 1830 0020 9DF80730 		ldrb	r3, [sp, #7]
 1831 0024 1343     		orrs	r3, r3, r2
 1832 0026 DBB2     		uxtb	r3, r3
 1833 0028 0B70     		strb	r3, [r1]
1310:/home/rdu/Workspace/project_templates/mcu/stm32_ws/src/libraries/STM32F4xx_StdPeriph_Driver/src/stm32f4xx_flash.c **** 
1311:/home/rdu/Workspace/project_templates/mcu/stm32_ws/src/libraries/STM32F4xx_StdPeriph_Driver/src/stm32f4xx_flash.c **** }
 1834              		.loc 1 1311 0
 1835 002a 00BF     		nop
 1836 002c 02B0     		add	sp, sp, #8
 1837              	.LCFI55:
 1838              		.cfi_def_cfa_offset 0
 1839              		@ sp needed
 1840 002e 7047     		bx	lr
 1841              	.L142:
 1842              		.align	2
 1843              	.L141:
 1844 0030 143C0240 		.word	1073888276
 1845              		.cfi_endproc
 1846              	.LFE149:
 1848              		.section	.text.FLASH_OB_Launch,"ax",%progbits
 1849              		.align	1
 1850              		.global	FLASH_OB_Launch
 1851              		.syntax unified
 1852              		.thumb
 1853              		.thumb_func
 1854              		.fpu fpv4-sp-d16
 1856              	FLASH_OB_Launch:
 1857              	.LFB150:
1312:/home/rdu/Workspace/project_templates/mcu/stm32_ws/src/libraries/STM32F4xx_StdPeriph_Driver/src/stm32f4xx_flash.c **** 
1313:/home/rdu/Workspace/project_templates/mcu/stm32_ws/src/libraries/STM32F4xx_StdPeriph_Driver/src/stm32f4xx_flash.c **** /**
1314:/home/rdu/Workspace/project_templates/mcu/stm32_ws/src/libraries/STM32F4xx_StdPeriph_Driver/src/stm32f4xx_flash.c ****   * @brief  Launch the option byte loading.
1315:/home/rdu/Workspace/project_templates/mcu/stm32_ws/src/libraries/STM32F4xx_StdPeriph_Driver/src/stm32f4xx_flash.c ****   * @param  None
1316:/home/rdu/Workspace/project_templates/mcu/stm32_ws/src/libraries/STM32F4xx_StdPeriph_Driver/src/stm32f4xx_flash.c ****   * @retval FLASH Status: The returned value can be: FLASH_BUSY, FLASH_ERROR_PROGRAM,
1317:/home/rdu/Workspace/project_templates/mcu/stm32_ws/src/libraries/STM32F4xx_StdPeriph_Driver/src/stm32f4xx_flash.c ****   *                       FLASH_ERROR_WRP, FLASH_ERROR_OPERATION or FLASH_COMPLETE.
1318:/home/rdu/Workspace/project_templates/mcu/stm32_ws/src/libraries/STM32F4xx_StdPeriph_Driver/src/stm32f4xx_flash.c ****   */
1319:/home/rdu/Workspace/project_templates/mcu/stm32_ws/src/libraries/STM32F4xx_StdPeriph_Driver/src/stm32f4xx_flash.c **** FLASH_Status FLASH_OB_Launch(void)
1320:/home/rdu/Workspace/project_templates/mcu/stm32_ws/src/libraries/STM32F4xx_StdPeriph_Driver/src/stm32f4xx_flash.c **** {
 1858              		.loc 1 1320 0
 1859              		.cfi_startproc
 1860              		@ args = 0, pretend = 0, frame = 8
 1861              		@ frame_needed = 0, uses_anonymous_args = 0
 1862 0000 00B5     		push	{lr}
 1863              	.LCFI56:
 1864              		.cfi_def_cfa_offset 4
 1865              		.cfi_offset 14, -4
 1866 0002 83B0     		sub	sp, sp, #12
 1867              	.LCFI57:
 1868              		.cfi_def_cfa_offset 16
1321:/home/rdu/Workspace/project_templates/mcu/stm32_ws/src/libraries/STM32F4xx_StdPeriph_Driver/src/stm32f4xx_flash.c ****   FLASH_Status status = FLASH_COMPLETE;
 1869              		.loc 1 1321 0
 1870 0004 0923     		movs	r3, #9
 1871 0006 8DF80730 		strb	r3, [sp, #7]
1322:/home/rdu/Workspace/project_templates/mcu/stm32_ws/src/libraries/STM32F4xx_StdPeriph_Driver/src/stm32f4xx_flash.c **** 
1323:/home/rdu/Workspace/project_templates/mcu/stm32_ws/src/libraries/STM32F4xx_StdPeriph_Driver/src/stm32f4xx_flash.c ****   /* Set the OPTSTRT bit in OPTCR register */
1324:/home/rdu/Workspace/project_templates/mcu/stm32_ws/src/libraries/STM32F4xx_StdPeriph_Driver/src/stm32f4xx_flash.c ****   *(__IO uint8_t *)OPTCR_BYTE0_ADDRESS |= FLASH_OPTCR_OPTSTRT;
 1872              		.loc 1 1324 0
 1873 000a 094B     		ldr	r3, .L145
 1874 000c 1B78     		ldrb	r3, [r3]
 1875 000e DBB2     		uxtb	r3, r3
 1876 0010 074A     		ldr	r2, .L145
 1877 0012 43F00203 		orr	r3, r3, #2
 1878 0016 DBB2     		uxtb	r3, r3
 1879 0018 1370     		strb	r3, [r2]
1325:/home/rdu/Workspace/project_templates/mcu/stm32_ws/src/libraries/STM32F4xx_StdPeriph_Driver/src/stm32f4xx_flash.c **** 
1326:/home/rdu/Workspace/project_templates/mcu/stm32_ws/src/libraries/STM32F4xx_StdPeriph_Driver/src/stm32f4xx_flash.c ****   /* Wait for last operation to be completed */
1327:/home/rdu/Workspace/project_templates/mcu/stm32_ws/src/libraries/STM32F4xx_StdPeriph_Driver/src/stm32f4xx_flash.c ****   status = FLASH_WaitForLastOperation();
 1880              		.loc 1 1327 0
 1881 001a FFF7FEFF 		bl	FLASH_WaitForLastOperation
 1882 001e 0346     		mov	r3, r0
 1883 0020 8DF80730 		strb	r3, [sp, #7]
1328:/home/rdu/Workspace/project_templates/mcu/stm32_ws/src/libraries/STM32F4xx_StdPeriph_Driver/src/stm32f4xx_flash.c **** 
1329:/home/rdu/Workspace/project_templates/mcu/stm32_ws/src/libraries/STM32F4xx_StdPeriph_Driver/src/stm32f4xx_flash.c ****   return status;
 1884              		.loc 1 1329 0
 1885 0024 9DF80730 		ldrb	r3, [sp, #7]	@ zero_extendqisi2
1330:/home/rdu/Workspace/project_templates/mcu/stm32_ws/src/libraries/STM32F4xx_StdPeriph_Driver/src/stm32f4xx_flash.c **** }
 1886              		.loc 1 1330 0
 1887 0028 1846     		mov	r0, r3
 1888 002a 03B0     		add	sp, sp, #12
 1889              	.LCFI58:
 1890              		.cfi_def_cfa_offset 4
 1891              		@ sp needed
 1892 002c 5DF804FB 		ldr	pc, [sp], #4
 1893              	.L146:
 1894              		.align	2
 1895              	.L145:
 1896 0030 143C0240 		.word	1073888276
 1897              		.cfi_endproc
 1898              	.LFE150:
 1900              		.section	.text.FLASH_OB_GetUser,"ax",%progbits
 1901              		.align	1
 1902              		.global	FLASH_OB_GetUser
 1903              		.syntax unified
 1904              		.thumb
 1905              		.thumb_func
 1906              		.fpu fpv4-sp-d16
 1908              	FLASH_OB_GetUser:
 1909              	.LFB151:
1331:/home/rdu/Workspace/project_templates/mcu/stm32_ws/src/libraries/STM32F4xx_StdPeriph_Driver/src/stm32f4xx_flash.c **** 
1332:/home/rdu/Workspace/project_templates/mcu/stm32_ws/src/libraries/STM32F4xx_StdPeriph_Driver/src/stm32f4xx_flash.c **** /**
1333:/home/rdu/Workspace/project_templates/mcu/stm32_ws/src/libraries/STM32F4xx_StdPeriph_Driver/src/stm32f4xx_flash.c ****   * @brief  Returns the FLASH User Option Bytes values.
1334:/home/rdu/Workspace/project_templates/mcu/stm32_ws/src/libraries/STM32F4xx_StdPeriph_Driver/src/stm32f4xx_flash.c ****   * @param  None
1335:/home/rdu/Workspace/project_templates/mcu/stm32_ws/src/libraries/STM32F4xx_StdPeriph_Driver/src/stm32f4xx_flash.c ****   * @retval The FLASH User Option Bytes values: IWDG_SW(Bit0), RST_STOP(Bit1)
1336:/home/rdu/Workspace/project_templates/mcu/stm32_ws/src/libraries/STM32F4xx_StdPeriph_Driver/src/stm32f4xx_flash.c ****   *         and RST_STDBY(Bit2).
1337:/home/rdu/Workspace/project_templates/mcu/stm32_ws/src/libraries/STM32F4xx_StdPeriph_Driver/src/stm32f4xx_flash.c ****   */
1338:/home/rdu/Workspace/project_templates/mcu/stm32_ws/src/libraries/STM32F4xx_StdPeriph_Driver/src/stm32f4xx_flash.c **** uint8_t FLASH_OB_GetUser(void)
1339:/home/rdu/Workspace/project_templates/mcu/stm32_ws/src/libraries/STM32F4xx_StdPeriph_Driver/src/stm32f4xx_flash.c **** {
 1910              		.loc 1 1339 0
 1911              		.cfi_startproc
 1912              		@ args = 0, pretend = 0, frame = 0
 1913              		@ frame_needed = 0, uses_anonymous_args = 0
 1914              		@ link register save eliminated.
1340:/home/rdu/Workspace/project_templates/mcu/stm32_ws/src/libraries/STM32F4xx_StdPeriph_Driver/src/stm32f4xx_flash.c ****   /* Return the User Option Byte */
1341:/home/rdu/Workspace/project_templates/mcu/stm32_ws/src/libraries/STM32F4xx_StdPeriph_Driver/src/stm32f4xx_flash.c ****   return (uint8_t)(FLASH->OPTCR >> 5);
 1915              		.loc 1 1341 0
 1916 0000 024B     		ldr	r3, .L149
 1917 0002 5B69     		ldr	r3, [r3, #20]
 1918 0004 5B09     		lsrs	r3, r3, #5
 1919 0006 DBB2     		uxtb	r3, r3
1342:/home/rdu/Workspace/project_templates/mcu/stm32_ws/src/libraries/STM32F4xx_StdPeriph_Driver/src/stm32f4xx_flash.c **** }
 1920              		.loc 1 1342 0
 1921 0008 1846     		mov	r0, r3
 1922 000a 7047     		bx	lr
 1923              	.L150:
 1924              		.align	2
 1925              	.L149:
 1926 000c 003C0240 		.word	1073888256
 1927              		.cfi_endproc
 1928              	.LFE151:
 1930              		.section	.text.FLASH_OB_GetWRP,"ax",%progbits
 1931              		.align	1
 1932              		.global	FLASH_OB_GetWRP
 1933              		.syntax unified
 1934              		.thumb
 1935              		.thumb_func
 1936              		.fpu fpv4-sp-d16
 1938              	FLASH_OB_GetWRP:
 1939              	.LFB152:
1343:/home/rdu/Workspace/project_templates/mcu/stm32_ws/src/libraries/STM32F4xx_StdPeriph_Driver/src/stm32f4xx_flash.c **** 
1344:/home/rdu/Workspace/project_templates/mcu/stm32_ws/src/libraries/STM32F4xx_StdPeriph_Driver/src/stm32f4xx_flash.c **** /**
1345:/home/rdu/Workspace/project_templates/mcu/stm32_ws/src/libraries/STM32F4xx_StdPeriph_Driver/src/stm32f4xx_flash.c ****   * @brief  Returns the FLASH Write Protection Option Bytes value.
1346:/home/rdu/Workspace/project_templates/mcu/stm32_ws/src/libraries/STM32F4xx_StdPeriph_Driver/src/stm32f4xx_flash.c ****   * @param  None
1347:/home/rdu/Workspace/project_templates/mcu/stm32_ws/src/libraries/STM32F4xx_StdPeriph_Driver/src/stm32f4xx_flash.c ****   * @retval The FLASH Write Protection  Option Bytes value
1348:/home/rdu/Workspace/project_templates/mcu/stm32_ws/src/libraries/STM32F4xx_StdPeriph_Driver/src/stm32f4xx_flash.c ****   */
1349:/home/rdu/Workspace/project_templates/mcu/stm32_ws/src/libraries/STM32F4xx_StdPeriph_Driver/src/stm32f4xx_flash.c **** uint16_t FLASH_OB_GetWRP(void)
1350:/home/rdu/Workspace/project_templates/mcu/stm32_ws/src/libraries/STM32F4xx_StdPeriph_Driver/src/stm32f4xx_flash.c **** {
 1940              		.loc 1 1350 0
 1941              		.cfi_startproc
 1942              		@ args = 0, pretend = 0, frame = 0
 1943              		@ frame_needed = 0, uses_anonymous_args = 0
 1944              		@ link register save eliminated.
1351:/home/rdu/Workspace/project_templates/mcu/stm32_ws/src/libraries/STM32F4xx_StdPeriph_Driver/src/stm32f4xx_flash.c ****   /* Return the FLASH write protection Register value */
1352:/home/rdu/Workspace/project_templates/mcu/stm32_ws/src/libraries/STM32F4xx_StdPeriph_Driver/src/stm32f4xx_flash.c ****   return (*(__IO uint16_t *)(OPTCR_BYTE2_ADDRESS));
 1945              		.loc 1 1352 0
 1946 0000 024B     		ldr	r3, .L153
 1947 0002 1B88     		ldrh	r3, [r3]	@ movhi
 1948 0004 9BB2     		uxth	r3, r3
1353:/home/rdu/Workspace/project_templates/mcu/stm32_ws/src/libraries/STM32F4xx_StdPeriph_Driver/src/stm32f4xx_flash.c **** }
 1949              		.loc 1 1353 0
 1950 0006 1846     		mov	r0, r3
 1951 0008 7047     		bx	lr
 1952              	.L154:
 1953 000a 00BF     		.align	2
 1954              	.L153:
 1955 000c 163C0240 		.word	1073888278
 1956              		.cfi_endproc
 1957              	.LFE152:
 1959              		.section	.text.FLASH_OB_GetWRP1,"ax",%progbits
 1960              		.align	1
 1961              		.global	FLASH_OB_GetWRP1
 1962              		.syntax unified
 1963              		.thumb
 1964              		.thumb_func
 1965              		.fpu fpv4-sp-d16
 1967              	FLASH_OB_GetWRP1:
 1968              	.LFB153:
1354:/home/rdu/Workspace/project_templates/mcu/stm32_ws/src/libraries/STM32F4xx_StdPeriph_Driver/src/stm32f4xx_flash.c **** 
1355:/home/rdu/Workspace/project_templates/mcu/stm32_ws/src/libraries/STM32F4xx_StdPeriph_Driver/src/stm32f4xx_flash.c **** /**
1356:/home/rdu/Workspace/project_templates/mcu/stm32_ws/src/libraries/STM32F4xx_StdPeriph_Driver/src/stm32f4xx_flash.c ****   * @brief  Returns the FLASH Write Protection Option Bytes value.
1357:/home/rdu/Workspace/project_templates/mcu/stm32_ws/src/libraries/STM32F4xx_StdPeriph_Driver/src/stm32f4xx_flash.c ****   *   
1358:/home/rdu/Workspace/project_templates/mcu/stm32_ws/src/libraries/STM32F4xx_StdPeriph_Driver/src/stm32f4xx_flash.c ****   * @note   This function can be used only for STM32F42xxx/43xxx devices.
1359:/home/rdu/Workspace/project_templates/mcu/stm32_ws/src/libraries/STM32F4xx_StdPeriph_Driver/src/stm32f4xx_flash.c ****   *   
1360:/home/rdu/Workspace/project_templates/mcu/stm32_ws/src/libraries/STM32F4xx_StdPeriph_Driver/src/stm32f4xx_flash.c ****   * @param  None
1361:/home/rdu/Workspace/project_templates/mcu/stm32_ws/src/libraries/STM32F4xx_StdPeriph_Driver/src/stm32f4xx_flash.c ****   * @retval The FLASH Write Protection  Option Bytes value
1362:/home/rdu/Workspace/project_templates/mcu/stm32_ws/src/libraries/STM32F4xx_StdPeriph_Driver/src/stm32f4xx_flash.c ****   */
1363:/home/rdu/Workspace/project_templates/mcu/stm32_ws/src/libraries/STM32F4xx_StdPeriph_Driver/src/stm32f4xx_flash.c **** uint16_t FLASH_OB_GetWRP1(void)
1364:/home/rdu/Workspace/project_templates/mcu/stm32_ws/src/libraries/STM32F4xx_StdPeriph_Driver/src/stm32f4xx_flash.c **** {
 1969              		.loc 1 1364 0
 1970              		.cfi_startproc
 1971              		@ args = 0, pretend = 0, frame = 0
 1972              		@ frame_needed = 0, uses_anonymous_args = 0
 1973              		@ link register save eliminated.
1365:/home/rdu/Workspace/project_templates/mcu/stm32_ws/src/libraries/STM32F4xx_StdPeriph_Driver/src/stm32f4xx_flash.c ****   /* Return the FLASH write protection Register value */
1366:/home/rdu/Workspace/project_templates/mcu/stm32_ws/src/libraries/STM32F4xx_StdPeriph_Driver/src/stm32f4xx_flash.c ****   return (*(__IO uint16_t *)(OPTCR1_BYTE2_ADDRESS));
 1974              		.loc 1 1366 0
 1975 0000 024B     		ldr	r3, .L157
 1976 0002 1B88     		ldrh	r3, [r3]	@ movhi
 1977 0004 9BB2     		uxth	r3, r3
1367:/home/rdu/Workspace/project_templates/mcu/stm32_ws/src/libraries/STM32F4xx_StdPeriph_Driver/src/stm32f4xx_flash.c **** }
 1978              		.loc 1 1367 0
 1979 0006 1846     		mov	r0, r3
 1980 0008 7047     		bx	lr
 1981              	.L158:
 1982 000a 00BF     		.align	2
 1983              	.L157:
 1984 000c 1A3C0240 		.word	1073888282
 1985              		.cfi_endproc
 1986              	.LFE153:
 1988              		.section	.text.FLASH_OB_GetPCROP,"ax",%progbits
 1989              		.align	1
 1990              		.global	FLASH_OB_GetPCROP
 1991              		.syntax unified
 1992              		.thumb
 1993              		.thumb_func
 1994              		.fpu fpv4-sp-d16
 1996              	FLASH_OB_GetPCROP:
 1997              	.LFB154:
1368:/home/rdu/Workspace/project_templates/mcu/stm32_ws/src/libraries/STM32F4xx_StdPeriph_Driver/src/stm32f4xx_flash.c **** 
1369:/home/rdu/Workspace/project_templates/mcu/stm32_ws/src/libraries/STM32F4xx_StdPeriph_Driver/src/stm32f4xx_flash.c **** /**
1370:/home/rdu/Workspace/project_templates/mcu/stm32_ws/src/libraries/STM32F4xx_StdPeriph_Driver/src/stm32f4xx_flash.c ****   * @brief  Returns the FLASH PC Read/Write Protection Option Bytes value.
1371:/home/rdu/Workspace/project_templates/mcu/stm32_ws/src/libraries/STM32F4xx_StdPeriph_Driver/src/stm32f4xx_flash.c ****   *   
1372:/home/rdu/Workspace/project_templates/mcu/stm32_ws/src/libraries/STM32F4xx_StdPeriph_Driver/src/stm32f4xx_flash.c ****   * @note   This function can be used only for STM32F42xxx/43xxx devices and STM32F401xx/411xE devi
1373:/home/rdu/Workspace/project_templates/mcu/stm32_ws/src/libraries/STM32F4xx_StdPeriph_Driver/src/stm32f4xx_flash.c ****   *   
1374:/home/rdu/Workspace/project_templates/mcu/stm32_ws/src/libraries/STM32F4xx_StdPeriph_Driver/src/stm32f4xx_flash.c ****   * @param  None
1375:/home/rdu/Workspace/project_templates/mcu/stm32_ws/src/libraries/STM32F4xx_StdPeriph_Driver/src/stm32f4xx_flash.c ****   * @retval The FLASH PC Read/Write Protection Option Bytes value
1376:/home/rdu/Workspace/project_templates/mcu/stm32_ws/src/libraries/STM32F4xx_StdPeriph_Driver/src/stm32f4xx_flash.c ****   */
1377:/home/rdu/Workspace/project_templates/mcu/stm32_ws/src/libraries/STM32F4xx_StdPeriph_Driver/src/stm32f4xx_flash.c **** uint16_t FLASH_OB_GetPCROP(void)
1378:/home/rdu/Workspace/project_templates/mcu/stm32_ws/src/libraries/STM32F4xx_StdPeriph_Driver/src/stm32f4xx_flash.c **** {
 1998              		.loc 1 1378 0
 1999              		.cfi_startproc
 2000              		@ args = 0, pretend = 0, frame = 0
 2001              		@ frame_needed = 0, uses_anonymous_args = 0
 2002              		@ link register save eliminated.
1379:/home/rdu/Workspace/project_templates/mcu/stm32_ws/src/libraries/STM32F4xx_StdPeriph_Driver/src/stm32f4xx_flash.c ****   /* Return the FLASH PC Read/write protection Register value */
1380:/home/rdu/Workspace/project_templates/mcu/stm32_ws/src/libraries/STM32F4xx_StdPeriph_Driver/src/stm32f4xx_flash.c ****   return (*(__IO uint16_t *)(OPTCR_BYTE2_ADDRESS));
 2003              		.loc 1 1380 0
 2004 0000 024B     		ldr	r3, .L161
 2005 0002 1B88     		ldrh	r3, [r3]	@ movhi
 2006 0004 9BB2     		uxth	r3, r3
1381:/home/rdu/Workspace/project_templates/mcu/stm32_ws/src/libraries/STM32F4xx_StdPeriph_Driver/src/stm32f4xx_flash.c **** }
 2007              		.loc 1 1381 0
 2008 0006 1846     		mov	r0, r3
 2009 0008 7047     		bx	lr
 2010              	.L162:
 2011 000a 00BF     		.align	2
 2012              	.L161:
 2013 000c 163C0240 		.word	1073888278
 2014              		.cfi_endproc
 2015              	.LFE154:
 2017              		.section	.text.FLASH_OB_GetPCROP1,"ax",%progbits
 2018              		.align	1
 2019              		.global	FLASH_OB_GetPCROP1
 2020              		.syntax unified
 2021              		.thumb
 2022              		.thumb_func
 2023              		.fpu fpv4-sp-d16
 2025              	FLASH_OB_GetPCROP1:
 2026              	.LFB155:
1382:/home/rdu/Workspace/project_templates/mcu/stm32_ws/src/libraries/STM32F4xx_StdPeriph_Driver/src/stm32f4xx_flash.c **** 
1383:/home/rdu/Workspace/project_templates/mcu/stm32_ws/src/libraries/STM32F4xx_StdPeriph_Driver/src/stm32f4xx_flash.c **** /**
1384:/home/rdu/Workspace/project_templates/mcu/stm32_ws/src/libraries/STM32F4xx_StdPeriph_Driver/src/stm32f4xx_flash.c ****   * @brief  Returns the FLASH PC Read/Write Protection Option Bytes value.
1385:/home/rdu/Workspace/project_templates/mcu/stm32_ws/src/libraries/STM32F4xx_StdPeriph_Driver/src/stm32f4xx_flash.c ****   *   
1386:/home/rdu/Workspace/project_templates/mcu/stm32_ws/src/libraries/STM32F4xx_StdPeriph_Driver/src/stm32f4xx_flash.c ****   * @note   This function can be used only for STM32F42xxx/43xxx devices. 
1387:/home/rdu/Workspace/project_templates/mcu/stm32_ws/src/libraries/STM32F4xx_StdPeriph_Driver/src/stm32f4xx_flash.c ****   *     
1388:/home/rdu/Workspace/project_templates/mcu/stm32_ws/src/libraries/STM32F4xx_StdPeriph_Driver/src/stm32f4xx_flash.c ****   * @param  None
1389:/home/rdu/Workspace/project_templates/mcu/stm32_ws/src/libraries/STM32F4xx_StdPeriph_Driver/src/stm32f4xx_flash.c ****   * @retval The FLASH PC Read/Write Protection Option Bytes value
1390:/home/rdu/Workspace/project_templates/mcu/stm32_ws/src/libraries/STM32F4xx_StdPeriph_Driver/src/stm32f4xx_flash.c ****   */
1391:/home/rdu/Workspace/project_templates/mcu/stm32_ws/src/libraries/STM32F4xx_StdPeriph_Driver/src/stm32f4xx_flash.c **** uint16_t FLASH_OB_GetPCROP1(void)
1392:/home/rdu/Workspace/project_templates/mcu/stm32_ws/src/libraries/STM32F4xx_StdPeriph_Driver/src/stm32f4xx_flash.c **** {
 2027              		.loc 1 1392 0
 2028              		.cfi_startproc
 2029              		@ args = 0, pretend = 0, frame = 0
 2030              		@ frame_needed = 0, uses_anonymous_args = 0
 2031              		@ link register save eliminated.
1393:/home/rdu/Workspace/project_templates/mcu/stm32_ws/src/libraries/STM32F4xx_StdPeriph_Driver/src/stm32f4xx_flash.c ****   /* Return the FLASH write protection Register value */
1394:/home/rdu/Workspace/project_templates/mcu/stm32_ws/src/libraries/STM32F4xx_StdPeriph_Driver/src/stm32f4xx_flash.c ****   return (*(__IO uint16_t *)(OPTCR1_BYTE2_ADDRESS));
 2032              		.loc 1 1394 0
 2033 0000 024B     		ldr	r3, .L165
 2034 0002 1B88     		ldrh	r3, [r3]	@ movhi
 2035 0004 9BB2     		uxth	r3, r3
1395:/home/rdu/Workspace/project_templates/mcu/stm32_ws/src/libraries/STM32F4xx_StdPeriph_Driver/src/stm32f4xx_flash.c **** }
 2036              		.loc 1 1395 0
 2037 0006 1846     		mov	r0, r3
 2038 0008 7047     		bx	lr
 2039              	.L166:
 2040 000a 00BF     		.align	2
 2041              	.L165:
 2042 000c 1A3C0240 		.word	1073888282
 2043              		.cfi_endproc
 2044              	.LFE155:
 2046              		.section	.text.FLASH_OB_GetRDP,"ax",%progbits
 2047              		.align	1
 2048              		.global	FLASH_OB_GetRDP
 2049              		.syntax unified
 2050              		.thumb
 2051              		.thumb_func
 2052              		.fpu fpv4-sp-d16
 2054              	FLASH_OB_GetRDP:
 2055              	.LFB156:
1396:/home/rdu/Workspace/project_templates/mcu/stm32_ws/src/libraries/STM32F4xx_StdPeriph_Driver/src/stm32f4xx_flash.c **** 
1397:/home/rdu/Workspace/project_templates/mcu/stm32_ws/src/libraries/STM32F4xx_StdPeriph_Driver/src/stm32f4xx_flash.c **** /**
1398:/home/rdu/Workspace/project_templates/mcu/stm32_ws/src/libraries/STM32F4xx_StdPeriph_Driver/src/stm32f4xx_flash.c ****   * @brief  Returns the FLASH Read Protection level.
1399:/home/rdu/Workspace/project_templates/mcu/stm32_ws/src/libraries/STM32F4xx_StdPeriph_Driver/src/stm32f4xx_flash.c ****   * @param  None
1400:/home/rdu/Workspace/project_templates/mcu/stm32_ws/src/libraries/STM32F4xx_StdPeriph_Driver/src/stm32f4xx_flash.c ****   * @retval FLASH ReadOut Protection Status:
1401:/home/rdu/Workspace/project_templates/mcu/stm32_ws/src/libraries/STM32F4xx_StdPeriph_Driver/src/stm32f4xx_flash.c ****   *           - SET, when OB_RDP_Level_1 or OB_RDP_Level_2 is set
1402:/home/rdu/Workspace/project_templates/mcu/stm32_ws/src/libraries/STM32F4xx_StdPeriph_Driver/src/stm32f4xx_flash.c ****   *           - RESET, when OB_RDP_Level_0 is set
1403:/home/rdu/Workspace/project_templates/mcu/stm32_ws/src/libraries/STM32F4xx_StdPeriph_Driver/src/stm32f4xx_flash.c ****   */
1404:/home/rdu/Workspace/project_templates/mcu/stm32_ws/src/libraries/STM32F4xx_StdPeriph_Driver/src/stm32f4xx_flash.c **** FlagStatus FLASH_OB_GetRDP(void)
1405:/home/rdu/Workspace/project_templates/mcu/stm32_ws/src/libraries/STM32F4xx_StdPeriph_Driver/src/stm32f4xx_flash.c **** {
 2056              		.loc 1 1405 0
 2057              		.cfi_startproc
 2058              		@ args = 0, pretend = 0, frame = 8
 2059              		@ frame_needed = 0, uses_anonymous_args = 0
 2060              		@ link register save eliminated.
 2061 0000 82B0     		sub	sp, sp, #8
 2062              	.LCFI59:
 2063              		.cfi_def_cfa_offset 8
1406:/home/rdu/Workspace/project_templates/mcu/stm32_ws/src/libraries/STM32F4xx_StdPeriph_Driver/src/stm32f4xx_flash.c ****   FlagStatus readstatus = RESET;
 2064              		.loc 1 1406 0
 2065 0002 0023     		movs	r3, #0
 2066 0004 8DF80730 		strb	r3, [sp, #7]
1407:/home/rdu/Workspace/project_templates/mcu/stm32_ws/src/libraries/STM32F4xx_StdPeriph_Driver/src/stm32f4xx_flash.c **** 
1408:/home/rdu/Workspace/project_templates/mcu/stm32_ws/src/libraries/STM32F4xx_StdPeriph_Driver/src/stm32f4xx_flash.c ****   if ((*(__IO uint8_t*)(OPTCR_BYTE1_ADDRESS) != (uint8_t)OB_RDP_Level_0))
 2067              		.loc 1 1408 0
 2068 0008 084B     		ldr	r3, .L171
 2069 000a 1B78     		ldrb	r3, [r3]
 2070 000c DBB2     		uxtb	r3, r3
 2071 000e AA2B     		cmp	r3, #170
 2072 0010 03D0     		beq	.L168
1409:/home/rdu/Workspace/project_templates/mcu/stm32_ws/src/libraries/STM32F4xx_StdPeriph_Driver/src/stm32f4xx_flash.c ****   {
1410:/home/rdu/Workspace/project_templates/mcu/stm32_ws/src/libraries/STM32F4xx_StdPeriph_Driver/src/stm32f4xx_flash.c ****     readstatus = SET;
 2073              		.loc 1 1410 0
 2074 0012 0123     		movs	r3, #1
 2075 0014 8DF80730 		strb	r3, [sp, #7]
 2076 0018 02E0     		b	.L169
 2077              	.L168:
1411:/home/rdu/Workspace/project_templates/mcu/stm32_ws/src/libraries/STM32F4xx_StdPeriph_Driver/src/stm32f4xx_flash.c ****   }
1412:/home/rdu/Workspace/project_templates/mcu/stm32_ws/src/libraries/STM32F4xx_StdPeriph_Driver/src/stm32f4xx_flash.c ****   else
1413:/home/rdu/Workspace/project_templates/mcu/stm32_ws/src/libraries/STM32F4xx_StdPeriph_Driver/src/stm32f4xx_flash.c ****   {
1414:/home/rdu/Workspace/project_templates/mcu/stm32_ws/src/libraries/STM32F4xx_StdPeriph_Driver/src/stm32f4xx_flash.c ****     readstatus = RESET;
 2078              		.loc 1 1414 0
 2079 001a 0023     		movs	r3, #0
 2080 001c 8DF80730 		strb	r3, [sp, #7]
 2081              	.L169:
1415:/home/rdu/Workspace/project_templates/mcu/stm32_ws/src/libraries/STM32F4xx_StdPeriph_Driver/src/stm32f4xx_flash.c ****   }
1416:/home/rdu/Workspace/project_templates/mcu/stm32_ws/src/libraries/STM32F4xx_StdPeriph_Driver/src/stm32f4xx_flash.c ****   return readstatus;
 2082              		.loc 1 1416 0
 2083 0020 9DF80730 		ldrb	r3, [sp, #7]	@ zero_extendqisi2
1417:/home/rdu/Workspace/project_templates/mcu/stm32_ws/src/libraries/STM32F4xx_StdPeriph_Driver/src/stm32f4xx_flash.c **** }
 2084              		.loc 1 1417 0
 2085 0024 1846     		mov	r0, r3
 2086 0026 02B0     		add	sp, sp, #8
 2087              	.LCFI60:
 2088              		.cfi_def_cfa_offset 0
 2089              		@ sp needed
 2090 0028 7047     		bx	lr
 2091              	.L172:
 2092 002a 00BF     		.align	2
 2093              	.L171:
 2094 002c 153C0240 		.word	1073888277
 2095              		.cfi_endproc
 2096              	.LFE156:
 2098              		.section	.text.FLASH_OB_GetBOR,"ax",%progbits
 2099              		.align	1
 2100              		.global	FLASH_OB_GetBOR
 2101              		.syntax unified
 2102              		.thumb
 2103              		.thumb_func
 2104              		.fpu fpv4-sp-d16
 2106              	FLASH_OB_GetBOR:
 2107              	.LFB157:
1418:/home/rdu/Workspace/project_templates/mcu/stm32_ws/src/libraries/STM32F4xx_StdPeriph_Driver/src/stm32f4xx_flash.c **** 
1419:/home/rdu/Workspace/project_templates/mcu/stm32_ws/src/libraries/STM32F4xx_StdPeriph_Driver/src/stm32f4xx_flash.c **** /**
1420:/home/rdu/Workspace/project_templates/mcu/stm32_ws/src/libraries/STM32F4xx_StdPeriph_Driver/src/stm32f4xx_flash.c ****   * @brief  Returns the FLASH BOR level.
1421:/home/rdu/Workspace/project_templates/mcu/stm32_ws/src/libraries/STM32F4xx_StdPeriph_Driver/src/stm32f4xx_flash.c ****   * @param  None
1422:/home/rdu/Workspace/project_templates/mcu/stm32_ws/src/libraries/STM32F4xx_StdPeriph_Driver/src/stm32f4xx_flash.c ****   * @retval The FLASH BOR level:
1423:/home/rdu/Workspace/project_templates/mcu/stm32_ws/src/libraries/STM32F4xx_StdPeriph_Driver/src/stm32f4xx_flash.c ****   *           - OB_BOR_LEVEL3: Supply voltage ranges from 2.7 to 3.6 V
1424:/home/rdu/Workspace/project_templates/mcu/stm32_ws/src/libraries/STM32F4xx_StdPeriph_Driver/src/stm32f4xx_flash.c ****   *           - OB_BOR_LEVEL2: Supply voltage ranges from 2.4 to 2.7 V
1425:/home/rdu/Workspace/project_templates/mcu/stm32_ws/src/libraries/STM32F4xx_StdPeriph_Driver/src/stm32f4xx_flash.c ****   *           - OB_BOR_LEVEL1: Supply voltage ranges from 2.1 to 2.4 V
1426:/home/rdu/Workspace/project_templates/mcu/stm32_ws/src/libraries/STM32F4xx_StdPeriph_Driver/src/stm32f4xx_flash.c ****   *           - OB_BOR_OFF   : Supply voltage ranges from 1.62 to 2.1 V  
1427:/home/rdu/Workspace/project_templates/mcu/stm32_ws/src/libraries/STM32F4xx_StdPeriph_Driver/src/stm32f4xx_flash.c ****   */
1428:/home/rdu/Workspace/project_templates/mcu/stm32_ws/src/libraries/STM32F4xx_StdPeriph_Driver/src/stm32f4xx_flash.c **** uint8_t FLASH_OB_GetBOR(void)
1429:/home/rdu/Workspace/project_templates/mcu/stm32_ws/src/libraries/STM32F4xx_StdPeriph_Driver/src/stm32f4xx_flash.c **** {
 2108              		.loc 1 1429 0
 2109              		.cfi_startproc
 2110              		@ args = 0, pretend = 0, frame = 0
 2111              		@ frame_needed = 0, uses_anonymous_args = 0
 2112              		@ link register save eliminated.
1430:/home/rdu/Workspace/project_templates/mcu/stm32_ws/src/libraries/STM32F4xx_StdPeriph_Driver/src/stm32f4xx_flash.c ****   /* Return the FLASH BOR level */
1431:/home/rdu/Workspace/project_templates/mcu/stm32_ws/src/libraries/STM32F4xx_StdPeriph_Driver/src/stm32f4xx_flash.c ****   return (uint8_t)(*(__IO uint8_t *)(OPTCR_BYTE0_ADDRESS) & (uint8_t)0x0C);
 2113              		.loc 1 1431 0
 2114 0000 034B     		ldr	r3, .L175
 2115 0002 1B78     		ldrb	r3, [r3]
 2116 0004 DBB2     		uxtb	r3, r3
 2117 0006 03F00C03 		and	r3, r3, #12
 2118 000a DBB2     		uxtb	r3, r3
1432:/home/rdu/Workspace/project_templates/mcu/stm32_ws/src/libraries/STM32F4xx_StdPeriph_Driver/src/stm32f4xx_flash.c **** }
 2119              		.loc 1 1432 0
 2120 000c 1846     		mov	r0, r3
 2121 000e 7047     		bx	lr
 2122              	.L176:
 2123              		.align	2
 2124              	.L175:
 2125 0010 143C0240 		.word	1073888276
 2126              		.cfi_endproc
 2127              	.LFE157:
 2129              		.section	.text.FLASH_ITConfig,"ax",%progbits
 2130              		.align	1
 2131              		.global	FLASH_ITConfig
 2132              		.syntax unified
 2133              		.thumb
 2134              		.thumb_func
 2135              		.fpu fpv4-sp-d16
 2137              	FLASH_ITConfig:
 2138              	.LFB158:
1433:/home/rdu/Workspace/project_templates/mcu/stm32_ws/src/libraries/STM32F4xx_StdPeriph_Driver/src/stm32f4xx_flash.c **** 
1434:/home/rdu/Workspace/project_templates/mcu/stm32_ws/src/libraries/STM32F4xx_StdPeriph_Driver/src/stm32f4xx_flash.c **** /**
1435:/home/rdu/Workspace/project_templates/mcu/stm32_ws/src/libraries/STM32F4xx_StdPeriph_Driver/src/stm32f4xx_flash.c ****   * @}
1436:/home/rdu/Workspace/project_templates/mcu/stm32_ws/src/libraries/STM32F4xx_StdPeriph_Driver/src/stm32f4xx_flash.c ****   */
1437:/home/rdu/Workspace/project_templates/mcu/stm32_ws/src/libraries/STM32F4xx_StdPeriph_Driver/src/stm32f4xx_flash.c **** 
1438:/home/rdu/Workspace/project_templates/mcu/stm32_ws/src/libraries/STM32F4xx_StdPeriph_Driver/src/stm32f4xx_flash.c **** /** @defgroup FLASH_Group4 Interrupts and flags management functions
1439:/home/rdu/Workspace/project_templates/mcu/stm32_ws/src/libraries/STM32F4xx_StdPeriph_Driver/src/stm32f4xx_flash.c ****  *  @brief   Interrupts and flags management functions
1440:/home/rdu/Workspace/project_templates/mcu/stm32_ws/src/libraries/STM32F4xx_StdPeriph_Driver/src/stm32f4xx_flash.c ****  *
1441:/home/rdu/Workspace/project_templates/mcu/stm32_ws/src/libraries/STM32F4xx_StdPeriph_Driver/src/stm32f4xx_flash.c **** @verbatim   
1442:/home/rdu/Workspace/project_templates/mcu/stm32_ws/src/libraries/STM32F4xx_StdPeriph_Driver/src/stm32f4xx_flash.c ****  ===============================================================================
1443:/home/rdu/Workspace/project_templates/mcu/stm32_ws/src/libraries/STM32F4xx_StdPeriph_Driver/src/stm32f4xx_flash.c ****               ##### Interrupts and flags management functions #####
1444:/home/rdu/Workspace/project_templates/mcu/stm32_ws/src/libraries/STM32F4xx_StdPeriph_Driver/src/stm32f4xx_flash.c ****  ===============================================================================  
1445:/home/rdu/Workspace/project_templates/mcu/stm32_ws/src/libraries/STM32F4xx_StdPeriph_Driver/src/stm32f4xx_flash.c **** @endverbatim
1446:/home/rdu/Workspace/project_templates/mcu/stm32_ws/src/libraries/STM32F4xx_StdPeriph_Driver/src/stm32f4xx_flash.c ****   * @{
1447:/home/rdu/Workspace/project_templates/mcu/stm32_ws/src/libraries/STM32F4xx_StdPeriph_Driver/src/stm32f4xx_flash.c ****   */
1448:/home/rdu/Workspace/project_templates/mcu/stm32_ws/src/libraries/STM32F4xx_StdPeriph_Driver/src/stm32f4xx_flash.c **** 
1449:/home/rdu/Workspace/project_templates/mcu/stm32_ws/src/libraries/STM32F4xx_StdPeriph_Driver/src/stm32f4xx_flash.c **** /**
1450:/home/rdu/Workspace/project_templates/mcu/stm32_ws/src/libraries/STM32F4xx_StdPeriph_Driver/src/stm32f4xx_flash.c ****   * @brief  Enables or disables the specified FLASH interrupts.
1451:/home/rdu/Workspace/project_templates/mcu/stm32_ws/src/libraries/STM32F4xx_StdPeriph_Driver/src/stm32f4xx_flash.c ****   * @param  FLASH_IT: specifies the FLASH interrupt sources to be enabled or disabled.
1452:/home/rdu/Workspace/project_templates/mcu/stm32_ws/src/libraries/STM32F4xx_StdPeriph_Driver/src/stm32f4xx_flash.c ****   *          This parameter can be any combination of the following values:
1453:/home/rdu/Workspace/project_templates/mcu/stm32_ws/src/libraries/STM32F4xx_StdPeriph_Driver/src/stm32f4xx_flash.c ****   *            @arg FLASH_IT_ERR: FLASH Error Interrupt
1454:/home/rdu/Workspace/project_templates/mcu/stm32_ws/src/libraries/STM32F4xx_StdPeriph_Driver/src/stm32f4xx_flash.c ****   *            @arg FLASH_IT_EOP: FLASH end of operation Interrupt
1455:/home/rdu/Workspace/project_templates/mcu/stm32_ws/src/libraries/STM32F4xx_StdPeriph_Driver/src/stm32f4xx_flash.c ****   * @retval None 
1456:/home/rdu/Workspace/project_templates/mcu/stm32_ws/src/libraries/STM32F4xx_StdPeriph_Driver/src/stm32f4xx_flash.c ****   */
1457:/home/rdu/Workspace/project_templates/mcu/stm32_ws/src/libraries/STM32F4xx_StdPeriph_Driver/src/stm32f4xx_flash.c **** void FLASH_ITConfig(uint32_t FLASH_IT, FunctionalState NewState)
1458:/home/rdu/Workspace/project_templates/mcu/stm32_ws/src/libraries/STM32F4xx_StdPeriph_Driver/src/stm32f4xx_flash.c **** {
 2139              		.loc 1 1458 0
 2140              		.cfi_startproc
 2141              		@ args = 0, pretend = 0, frame = 8
 2142              		@ frame_needed = 0, uses_anonymous_args = 0
 2143              		@ link register save eliminated.
 2144 0000 82B0     		sub	sp, sp, #8
 2145              	.LCFI61:
 2146              		.cfi_def_cfa_offset 8
 2147 0002 0190     		str	r0, [sp, #4]
 2148 0004 0B46     		mov	r3, r1
 2149 0006 8DF80330 		strb	r3, [sp, #3]
1459:/home/rdu/Workspace/project_templates/mcu/stm32_ws/src/libraries/STM32F4xx_StdPeriph_Driver/src/stm32f4xx_flash.c ****   /* Check the parameters */
1460:/home/rdu/Workspace/project_templates/mcu/stm32_ws/src/libraries/STM32F4xx_StdPeriph_Driver/src/stm32f4xx_flash.c ****   assert_param(IS_FLASH_IT(FLASH_IT)); 
1461:/home/rdu/Workspace/project_templates/mcu/stm32_ws/src/libraries/STM32F4xx_StdPeriph_Driver/src/stm32f4xx_flash.c ****   assert_param(IS_FUNCTIONAL_STATE(NewState));
1462:/home/rdu/Workspace/project_templates/mcu/stm32_ws/src/libraries/STM32F4xx_StdPeriph_Driver/src/stm32f4xx_flash.c **** 
1463:/home/rdu/Workspace/project_templates/mcu/stm32_ws/src/libraries/STM32F4xx_StdPeriph_Driver/src/stm32f4xx_flash.c ****   if(NewState != DISABLE)
 2150              		.loc 1 1463 0
 2151 000a 9DF80330 		ldrb	r3, [sp, #3]	@ zero_extendqisi2
 2152 000e 002B     		cmp	r3, #0
 2153 0010 06D0     		beq	.L178
1464:/home/rdu/Workspace/project_templates/mcu/stm32_ws/src/libraries/STM32F4xx_StdPeriph_Driver/src/stm32f4xx_flash.c ****   {
1465:/home/rdu/Workspace/project_templates/mcu/stm32_ws/src/libraries/STM32F4xx_StdPeriph_Driver/src/stm32f4xx_flash.c ****     /* Enable the interrupt sources */
1466:/home/rdu/Workspace/project_templates/mcu/stm32_ws/src/libraries/STM32F4xx_StdPeriph_Driver/src/stm32f4xx_flash.c ****     FLASH->CR |= FLASH_IT;
 2154              		.loc 1 1466 0
 2155 0012 084B     		ldr	r3, .L181
 2156 0014 1A69     		ldr	r2, [r3, #16]
 2157 0016 0749     		ldr	r1, .L181
 2158 0018 019B     		ldr	r3, [sp, #4]
 2159 001a 1343     		orrs	r3, r3, r2
 2160 001c 0B61     		str	r3, [r1, #16]
1467:/home/rdu/Workspace/project_templates/mcu/stm32_ws/src/libraries/STM32F4xx_StdPeriph_Driver/src/stm32f4xx_flash.c ****   }
1468:/home/rdu/Workspace/project_templates/mcu/stm32_ws/src/libraries/STM32F4xx_StdPeriph_Driver/src/stm32f4xx_flash.c ****   else
1469:/home/rdu/Workspace/project_templates/mcu/stm32_ws/src/libraries/STM32F4xx_StdPeriph_Driver/src/stm32f4xx_flash.c ****   {
1470:/home/rdu/Workspace/project_templates/mcu/stm32_ws/src/libraries/STM32F4xx_StdPeriph_Driver/src/stm32f4xx_flash.c ****     /* Disable the interrupt sources */
1471:/home/rdu/Workspace/project_templates/mcu/stm32_ws/src/libraries/STM32F4xx_StdPeriph_Driver/src/stm32f4xx_flash.c ****     FLASH->CR &= ~(uint32_t)FLASH_IT;
1472:/home/rdu/Workspace/project_templates/mcu/stm32_ws/src/libraries/STM32F4xx_StdPeriph_Driver/src/stm32f4xx_flash.c ****   }
1473:/home/rdu/Workspace/project_templates/mcu/stm32_ws/src/libraries/STM32F4xx_StdPeriph_Driver/src/stm32f4xx_flash.c **** }
 2161              		.loc 1 1473 0
 2162 001e 06E0     		b	.L180
 2163              	.L178:
1471:/home/rdu/Workspace/project_templates/mcu/stm32_ws/src/libraries/STM32F4xx_StdPeriph_Driver/src/stm32f4xx_flash.c ****   }
 2164              		.loc 1 1471 0
 2165 0020 044B     		ldr	r3, .L181
 2166 0022 1A69     		ldr	r2, [r3, #16]
 2167 0024 019B     		ldr	r3, [sp, #4]
 2168 0026 DB43     		mvns	r3, r3
 2169 0028 0249     		ldr	r1, .L181
 2170 002a 1340     		ands	r3, r3, r2
 2171 002c 0B61     		str	r3, [r1, #16]
 2172              	.L180:
 2173              		.loc 1 1473 0
 2174 002e 00BF     		nop
 2175 0030 02B0     		add	sp, sp, #8
 2176              	.LCFI62:
 2177              		.cfi_def_cfa_offset 0
 2178              		@ sp needed
 2179 0032 7047     		bx	lr
 2180              	.L182:
 2181              		.align	2
 2182              	.L181:
 2183 0034 003C0240 		.word	1073888256
 2184              		.cfi_endproc
 2185              	.LFE158:
 2187              		.section	.text.FLASH_GetFlagStatus,"ax",%progbits
 2188              		.align	1
 2189              		.global	FLASH_GetFlagStatus
 2190              		.syntax unified
 2191              		.thumb
 2192              		.thumb_func
 2193              		.fpu fpv4-sp-d16
 2195              	FLASH_GetFlagStatus:
 2196              	.LFB159:
1474:/home/rdu/Workspace/project_templates/mcu/stm32_ws/src/libraries/STM32F4xx_StdPeriph_Driver/src/stm32f4xx_flash.c **** 
1475:/home/rdu/Workspace/project_templates/mcu/stm32_ws/src/libraries/STM32F4xx_StdPeriph_Driver/src/stm32f4xx_flash.c **** /**
1476:/home/rdu/Workspace/project_templates/mcu/stm32_ws/src/libraries/STM32F4xx_StdPeriph_Driver/src/stm32f4xx_flash.c ****   * @brief  Checks whether the specified FLASH flag is set or not.
1477:/home/rdu/Workspace/project_templates/mcu/stm32_ws/src/libraries/STM32F4xx_StdPeriph_Driver/src/stm32f4xx_flash.c ****   * @param  FLASH_FLAG: specifies the FLASH flag to check.
1478:/home/rdu/Workspace/project_templates/mcu/stm32_ws/src/libraries/STM32F4xx_StdPeriph_Driver/src/stm32f4xx_flash.c ****   *          This parameter can be one of the following values:
1479:/home/rdu/Workspace/project_templates/mcu/stm32_ws/src/libraries/STM32F4xx_StdPeriph_Driver/src/stm32f4xx_flash.c ****   *            @arg FLASH_FLAG_EOP: FLASH End of Operation flag 
1480:/home/rdu/Workspace/project_templates/mcu/stm32_ws/src/libraries/STM32F4xx_StdPeriph_Driver/src/stm32f4xx_flash.c ****   *            @arg FLASH_FLAG_OPERR: FLASH operation Error flag 
1481:/home/rdu/Workspace/project_templates/mcu/stm32_ws/src/libraries/STM32F4xx_StdPeriph_Driver/src/stm32f4xx_flash.c ****   *            @arg FLASH_FLAG_WRPERR: FLASH Write protected error flag 
1482:/home/rdu/Workspace/project_templates/mcu/stm32_ws/src/libraries/STM32F4xx_StdPeriph_Driver/src/stm32f4xx_flash.c ****   *            @arg FLASH_FLAG_PGAERR: FLASH Programming Alignment error flag
1483:/home/rdu/Workspace/project_templates/mcu/stm32_ws/src/libraries/STM32F4xx_StdPeriph_Driver/src/stm32f4xx_flash.c ****   *            @arg FLASH_FLAG_PGPERR: FLASH Programming Parallelism error flag
1484:/home/rdu/Workspace/project_templates/mcu/stm32_ws/src/libraries/STM32F4xx_StdPeriph_Driver/src/stm32f4xx_flash.c ****   *            @arg FLASH_FLAG_PGSERR: FLASH Programming Sequence error flag
1485:/home/rdu/Workspace/project_templates/mcu/stm32_ws/src/libraries/STM32F4xx_StdPeriph_Driver/src/stm32f4xx_flash.c ****   *            @arg FLASH_FLAG_RDERR: FLASH (PCROP) Read Protection error flag (STM32F42xx/43xxx an
1486:/home/rdu/Workspace/project_templates/mcu/stm32_ws/src/libraries/STM32F4xx_StdPeriph_Driver/src/stm32f4xx_flash.c ****   *            @arg FLASH_FLAG_BSY: FLASH Busy flag
1487:/home/rdu/Workspace/project_templates/mcu/stm32_ws/src/libraries/STM32F4xx_StdPeriph_Driver/src/stm32f4xx_flash.c ****   * @retval The new state of FLASH_FLAG (SET or RESET).
1488:/home/rdu/Workspace/project_templates/mcu/stm32_ws/src/libraries/STM32F4xx_StdPeriph_Driver/src/stm32f4xx_flash.c ****   */
1489:/home/rdu/Workspace/project_templates/mcu/stm32_ws/src/libraries/STM32F4xx_StdPeriph_Driver/src/stm32f4xx_flash.c **** FlagStatus FLASH_GetFlagStatus(uint32_t FLASH_FLAG)
1490:/home/rdu/Workspace/project_templates/mcu/stm32_ws/src/libraries/STM32F4xx_StdPeriph_Driver/src/stm32f4xx_flash.c **** {
 2197              		.loc 1 1490 0
 2198              		.cfi_startproc
 2199              		@ args = 0, pretend = 0, frame = 16
 2200              		@ frame_needed = 0, uses_anonymous_args = 0
 2201              		@ link register save eliminated.
 2202 0000 84B0     		sub	sp, sp, #16
 2203              	.LCFI63:
 2204              		.cfi_def_cfa_offset 16
 2205 0002 0190     		str	r0, [sp, #4]
1491:/home/rdu/Workspace/project_templates/mcu/stm32_ws/src/libraries/STM32F4xx_StdPeriph_Driver/src/stm32f4xx_flash.c ****   FlagStatus bitstatus = RESET;
 2206              		.loc 1 1491 0
 2207 0004 0023     		movs	r3, #0
 2208 0006 8DF80F30 		strb	r3, [sp, #15]
1492:/home/rdu/Workspace/project_templates/mcu/stm32_ws/src/libraries/STM32F4xx_StdPeriph_Driver/src/stm32f4xx_flash.c ****   /* Check the parameters */
1493:/home/rdu/Workspace/project_templates/mcu/stm32_ws/src/libraries/STM32F4xx_StdPeriph_Driver/src/stm32f4xx_flash.c ****   assert_param(IS_FLASH_GET_FLAG(FLASH_FLAG));
1494:/home/rdu/Workspace/project_templates/mcu/stm32_ws/src/libraries/STM32F4xx_StdPeriph_Driver/src/stm32f4xx_flash.c **** 
1495:/home/rdu/Workspace/project_templates/mcu/stm32_ws/src/libraries/STM32F4xx_StdPeriph_Driver/src/stm32f4xx_flash.c ****   if((FLASH->SR & FLASH_FLAG) != (uint32_t)RESET)
 2209              		.loc 1 1495 0
 2210 000a 094B     		ldr	r3, .L187
 2211 000c DA68     		ldr	r2, [r3, #12]
 2212 000e 019B     		ldr	r3, [sp, #4]
 2213 0010 1340     		ands	r3, r3, r2
 2214 0012 002B     		cmp	r3, #0
 2215 0014 03D0     		beq	.L184
1496:/home/rdu/Workspace/project_templates/mcu/stm32_ws/src/libraries/STM32F4xx_StdPeriph_Driver/src/stm32f4xx_flash.c ****   {
1497:/home/rdu/Workspace/project_templates/mcu/stm32_ws/src/libraries/STM32F4xx_StdPeriph_Driver/src/stm32f4xx_flash.c ****     bitstatus = SET;
 2216              		.loc 1 1497 0
 2217 0016 0123     		movs	r3, #1
 2218 0018 8DF80F30 		strb	r3, [sp, #15]
 2219 001c 02E0     		b	.L185
 2220              	.L184:
1498:/home/rdu/Workspace/project_templates/mcu/stm32_ws/src/libraries/STM32F4xx_StdPeriph_Driver/src/stm32f4xx_flash.c ****   }
1499:/home/rdu/Workspace/project_templates/mcu/stm32_ws/src/libraries/STM32F4xx_StdPeriph_Driver/src/stm32f4xx_flash.c ****   else
1500:/home/rdu/Workspace/project_templates/mcu/stm32_ws/src/libraries/STM32F4xx_StdPeriph_Driver/src/stm32f4xx_flash.c ****   {
1501:/home/rdu/Workspace/project_templates/mcu/stm32_ws/src/libraries/STM32F4xx_StdPeriph_Driver/src/stm32f4xx_flash.c ****     bitstatus = RESET;
 2221              		.loc 1 1501 0
 2222 001e 0023     		movs	r3, #0
 2223 0020 8DF80F30 		strb	r3, [sp, #15]
 2224              	.L185:
1502:/home/rdu/Workspace/project_templates/mcu/stm32_ws/src/libraries/STM32F4xx_StdPeriph_Driver/src/stm32f4xx_flash.c ****   }
1503:/home/rdu/Workspace/project_templates/mcu/stm32_ws/src/libraries/STM32F4xx_StdPeriph_Driver/src/stm32f4xx_flash.c ****   /* Return the new state of FLASH_FLAG (SET or RESET) */
1504:/home/rdu/Workspace/project_templates/mcu/stm32_ws/src/libraries/STM32F4xx_StdPeriph_Driver/src/stm32f4xx_flash.c ****   return bitstatus; 
 2225              		.loc 1 1504 0
 2226 0024 9DF80F30 		ldrb	r3, [sp, #15]	@ zero_extendqisi2
1505:/home/rdu/Workspace/project_templates/mcu/stm32_ws/src/libraries/STM32F4xx_StdPeriph_Driver/src/stm32f4xx_flash.c **** }
 2227              		.loc 1 1505 0
 2228 0028 1846     		mov	r0, r3
 2229 002a 04B0     		add	sp, sp, #16
 2230              	.LCFI64:
 2231              		.cfi_def_cfa_offset 0
 2232              		@ sp needed
 2233 002c 7047     		bx	lr
 2234              	.L188:
 2235 002e 00BF     		.align	2
 2236              	.L187:
 2237 0030 003C0240 		.word	1073888256
 2238              		.cfi_endproc
 2239              	.LFE159:
 2241              		.section	.text.FLASH_ClearFlag,"ax",%progbits
 2242              		.align	1
 2243              		.global	FLASH_ClearFlag
 2244              		.syntax unified
 2245              		.thumb
 2246              		.thumb_func
 2247              		.fpu fpv4-sp-d16
 2249              	FLASH_ClearFlag:
 2250              	.LFB160:
1506:/home/rdu/Workspace/project_templates/mcu/stm32_ws/src/libraries/STM32F4xx_StdPeriph_Driver/src/stm32f4xx_flash.c **** 
1507:/home/rdu/Workspace/project_templates/mcu/stm32_ws/src/libraries/STM32F4xx_StdPeriph_Driver/src/stm32f4xx_flash.c **** /**
1508:/home/rdu/Workspace/project_templates/mcu/stm32_ws/src/libraries/STM32F4xx_StdPeriph_Driver/src/stm32f4xx_flash.c ****   * @brief  Clears the FLASH's pending flags.
1509:/home/rdu/Workspace/project_templates/mcu/stm32_ws/src/libraries/STM32F4xx_StdPeriph_Driver/src/stm32f4xx_flash.c ****   * @param  FLASH_FLAG: specifies the FLASH flags to clear.
1510:/home/rdu/Workspace/project_templates/mcu/stm32_ws/src/libraries/STM32F4xx_StdPeriph_Driver/src/stm32f4xx_flash.c ****   *          This parameter can be any combination of the following values:
1511:/home/rdu/Workspace/project_templates/mcu/stm32_ws/src/libraries/STM32F4xx_StdPeriph_Driver/src/stm32f4xx_flash.c ****   *            @arg FLASH_FLAG_EOP: FLASH End of Operation flag 
1512:/home/rdu/Workspace/project_templates/mcu/stm32_ws/src/libraries/STM32F4xx_StdPeriph_Driver/src/stm32f4xx_flash.c ****   *            @arg FLASH_FLAG_OPERR: FLASH operation Error flag 
1513:/home/rdu/Workspace/project_templates/mcu/stm32_ws/src/libraries/STM32F4xx_StdPeriph_Driver/src/stm32f4xx_flash.c ****   *            @arg FLASH_FLAG_WRPERR: FLASH Write protected error flag 
1514:/home/rdu/Workspace/project_templates/mcu/stm32_ws/src/libraries/STM32F4xx_StdPeriph_Driver/src/stm32f4xx_flash.c ****   *            @arg FLASH_FLAG_PGAERR: FLASH Programming Alignment error flag 
1515:/home/rdu/Workspace/project_templates/mcu/stm32_ws/src/libraries/STM32F4xx_StdPeriph_Driver/src/stm32f4xx_flash.c ****   *            @arg FLASH_FLAG_PGPERR: FLASH Programming Parallelism error flag
1516:/home/rdu/Workspace/project_templates/mcu/stm32_ws/src/libraries/STM32F4xx_StdPeriph_Driver/src/stm32f4xx_flash.c ****   *            @arg FLASH_FLAG_PGSERR: FLASH Programming Sequence error flag
1517:/home/rdu/Workspace/project_templates/mcu/stm32_ws/src/libraries/STM32F4xx_StdPeriph_Driver/src/stm32f4xx_flash.c ****   *            @arg FLASH_FLAG_RDERR: FLASH Read Protection error flag (STM32F42xx/43xxx and STM32F
1518:/home/rdu/Workspace/project_templates/mcu/stm32_ws/src/libraries/STM32F4xx_StdPeriph_Driver/src/stm32f4xx_flash.c ****   * @retval None
1519:/home/rdu/Workspace/project_templates/mcu/stm32_ws/src/libraries/STM32F4xx_StdPeriph_Driver/src/stm32f4xx_flash.c ****   */
1520:/home/rdu/Workspace/project_templates/mcu/stm32_ws/src/libraries/STM32F4xx_StdPeriph_Driver/src/stm32f4xx_flash.c **** void FLASH_ClearFlag(uint32_t FLASH_FLAG)
1521:/home/rdu/Workspace/project_templates/mcu/stm32_ws/src/libraries/STM32F4xx_StdPeriph_Driver/src/stm32f4xx_flash.c **** {
 2251              		.loc 1 1521 0
 2252              		.cfi_startproc
 2253              		@ args = 0, pretend = 0, frame = 8
 2254              		@ frame_needed = 0, uses_anonymous_args = 0
 2255              		@ link register save eliminated.
 2256 0000 82B0     		sub	sp, sp, #8
 2257              	.LCFI65:
 2258              		.cfi_def_cfa_offset 8
 2259 0002 0190     		str	r0, [sp, #4]
1522:/home/rdu/Workspace/project_templates/mcu/stm32_ws/src/libraries/STM32F4xx_StdPeriph_Driver/src/stm32f4xx_flash.c ****   /* Check the parameters */
1523:/home/rdu/Workspace/project_templates/mcu/stm32_ws/src/libraries/STM32F4xx_StdPeriph_Driver/src/stm32f4xx_flash.c ****   assert_param(IS_FLASH_CLEAR_FLAG(FLASH_FLAG));
1524:/home/rdu/Workspace/project_templates/mcu/stm32_ws/src/libraries/STM32F4xx_StdPeriph_Driver/src/stm32f4xx_flash.c ****   
1525:/home/rdu/Workspace/project_templates/mcu/stm32_ws/src/libraries/STM32F4xx_StdPeriph_Driver/src/stm32f4xx_flash.c ****   /* Clear the flags */
1526:/home/rdu/Workspace/project_templates/mcu/stm32_ws/src/libraries/STM32F4xx_StdPeriph_Driver/src/stm32f4xx_flash.c ****   FLASH->SR = FLASH_FLAG;
 2260              		.loc 1 1526 0
 2261 0004 024A     		ldr	r2, .L190
 2262 0006 019B     		ldr	r3, [sp, #4]
 2263 0008 D360     		str	r3, [r2, #12]
1527:/home/rdu/Workspace/project_templates/mcu/stm32_ws/src/libraries/STM32F4xx_StdPeriph_Driver/src/stm32f4xx_flash.c **** }
 2264              		.loc 1 1527 0
 2265 000a 00BF     		nop
 2266 000c 02B0     		add	sp, sp, #8
 2267              	.LCFI66:
 2268              		.cfi_def_cfa_offset 0
 2269              		@ sp needed
 2270 000e 7047     		bx	lr
 2271              	.L191:
 2272              		.align	2
 2273              	.L190:
 2274 0010 003C0240 		.word	1073888256
 2275              		.cfi_endproc
 2276              	.LFE160:
 2278              		.section	.text.FLASH_GetStatus,"ax",%progbits
 2279              		.align	1
 2280              		.global	FLASH_GetStatus
 2281              		.syntax unified
 2282              		.thumb
 2283              		.thumb_func
 2284              		.fpu fpv4-sp-d16
 2286              	FLASH_GetStatus:
 2287              	.LFB161:
1528:/home/rdu/Workspace/project_templates/mcu/stm32_ws/src/libraries/STM32F4xx_StdPeriph_Driver/src/stm32f4xx_flash.c **** 
1529:/home/rdu/Workspace/project_templates/mcu/stm32_ws/src/libraries/STM32F4xx_StdPeriph_Driver/src/stm32f4xx_flash.c **** /**
1530:/home/rdu/Workspace/project_templates/mcu/stm32_ws/src/libraries/STM32F4xx_StdPeriph_Driver/src/stm32f4xx_flash.c ****   * @brief  Returns the FLASH Status.
1531:/home/rdu/Workspace/project_templates/mcu/stm32_ws/src/libraries/STM32F4xx_StdPeriph_Driver/src/stm32f4xx_flash.c ****   * @param  None
1532:/home/rdu/Workspace/project_templates/mcu/stm32_ws/src/libraries/STM32F4xx_StdPeriph_Driver/src/stm32f4xx_flash.c ****   * @retval FLASH Status: The returned value can be: FLASH_BUSY, FLASH_ERROR_PROGRAM,
1533:/home/rdu/Workspace/project_templates/mcu/stm32_ws/src/libraries/STM32F4xx_StdPeriph_Driver/src/stm32f4xx_flash.c ****   *                       FLASH_ERROR_WRP, FLASH_ERROR_RD, FLASH_ERROR_OPERATION or FLASH_COMPLETE.
1534:/home/rdu/Workspace/project_templates/mcu/stm32_ws/src/libraries/STM32F4xx_StdPeriph_Driver/src/stm32f4xx_flash.c ****   */
1535:/home/rdu/Workspace/project_templates/mcu/stm32_ws/src/libraries/STM32F4xx_StdPeriph_Driver/src/stm32f4xx_flash.c **** FLASH_Status FLASH_GetStatus(void)
1536:/home/rdu/Workspace/project_templates/mcu/stm32_ws/src/libraries/STM32F4xx_StdPeriph_Driver/src/stm32f4xx_flash.c **** {
 2288              		.loc 1 1536 0
 2289              		.cfi_startproc
 2290              		@ args = 0, pretend = 0, frame = 8
 2291              		@ frame_needed = 0, uses_anonymous_args = 0
 2292              		@ link register save eliminated.
 2293 0000 82B0     		sub	sp, sp, #8
 2294              	.LCFI67:
 2295              		.cfi_def_cfa_offset 8
1537:/home/rdu/Workspace/project_templates/mcu/stm32_ws/src/libraries/STM32F4xx_StdPeriph_Driver/src/stm32f4xx_flash.c ****   FLASH_Status flashstatus = FLASH_COMPLETE;
 2296              		.loc 1 1537 0
 2297 0002 0923     		movs	r3, #9
 2298 0004 8DF80730 		strb	r3, [sp, #7]
1538:/home/rdu/Workspace/project_templates/mcu/stm32_ws/src/libraries/STM32F4xx_StdPeriph_Driver/src/stm32f4xx_flash.c ****   
1539:/home/rdu/Workspace/project_templates/mcu/stm32_ws/src/libraries/STM32F4xx_StdPeriph_Driver/src/stm32f4xx_flash.c ****   if((FLASH->SR & FLASH_FLAG_BSY) == FLASH_FLAG_BSY) 
 2299              		.loc 1 1539 0
 2300 0008 1D4B     		ldr	r3, .L200
 2301 000a DB68     		ldr	r3, [r3, #12]
 2302 000c 03F48033 		and	r3, r3, #65536
 2303 0010 B3F5803F 		cmp	r3, #65536
 2304 0014 03D1     		bne	.L193
1540:/home/rdu/Workspace/project_templates/mcu/stm32_ws/src/libraries/STM32F4xx_StdPeriph_Driver/src/stm32f4xx_flash.c ****   {
1541:/home/rdu/Workspace/project_templates/mcu/stm32_ws/src/libraries/STM32F4xx_StdPeriph_Driver/src/stm32f4xx_flash.c ****     flashstatus = FLASH_BUSY;
 2305              		.loc 1 1541 0
 2306 0016 0123     		movs	r3, #1
 2307 0018 8DF80730 		strb	r3, [sp, #7]
 2308 001c 2AE0     		b	.L194
 2309              	.L193:
1542:/home/rdu/Workspace/project_templates/mcu/stm32_ws/src/libraries/STM32F4xx_StdPeriph_Driver/src/stm32f4xx_flash.c ****   }
1543:/home/rdu/Workspace/project_templates/mcu/stm32_ws/src/libraries/STM32F4xx_StdPeriph_Driver/src/stm32f4xx_flash.c ****   else 
1544:/home/rdu/Workspace/project_templates/mcu/stm32_ws/src/libraries/STM32F4xx_StdPeriph_Driver/src/stm32f4xx_flash.c ****   {  
1545:/home/rdu/Workspace/project_templates/mcu/stm32_ws/src/libraries/STM32F4xx_StdPeriph_Driver/src/stm32f4xx_flash.c ****     if((FLASH->SR & FLASH_FLAG_WRPERR) != (uint32_t)0x00)
 2310              		.loc 1 1545 0
 2311 001e 184B     		ldr	r3, .L200
 2312 0020 DB68     		ldr	r3, [r3, #12]
 2313 0022 03F01003 		and	r3, r3, #16
 2314 0026 002B     		cmp	r3, #0
 2315 0028 03D0     		beq	.L195
1546:/home/rdu/Workspace/project_templates/mcu/stm32_ws/src/libraries/STM32F4xx_StdPeriph_Driver/src/stm32f4xx_flash.c ****     { 
1547:/home/rdu/Workspace/project_templates/mcu/stm32_ws/src/libraries/STM32F4xx_StdPeriph_Driver/src/stm32f4xx_flash.c ****       flashstatus = FLASH_ERROR_WRP;
 2316              		.loc 1 1547 0
 2317 002a 0623     		movs	r3, #6
 2318 002c 8DF80730 		strb	r3, [sp, #7]
 2319 0030 20E0     		b	.L194
 2320              	.L195:
1548:/home/rdu/Workspace/project_templates/mcu/stm32_ws/src/libraries/STM32F4xx_StdPeriph_Driver/src/stm32f4xx_flash.c ****     }
1549:/home/rdu/Workspace/project_templates/mcu/stm32_ws/src/libraries/STM32F4xx_StdPeriph_Driver/src/stm32f4xx_flash.c ****     else
1550:/home/rdu/Workspace/project_templates/mcu/stm32_ws/src/libraries/STM32F4xx_StdPeriph_Driver/src/stm32f4xx_flash.c ****     {
1551:/home/rdu/Workspace/project_templates/mcu/stm32_ws/src/libraries/STM32F4xx_StdPeriph_Driver/src/stm32f4xx_flash.c ****       if((FLASH->SR & FLASH_FLAG_RDERR) != (uint32_t)0x00)
 2321              		.loc 1 1551 0
 2322 0032 134B     		ldr	r3, .L200
 2323 0034 DB68     		ldr	r3, [r3, #12]
 2324 0036 03F48073 		and	r3, r3, #256
 2325 003a 002B     		cmp	r3, #0
 2326 003c 03D0     		beq	.L196
1552:/home/rdu/Workspace/project_templates/mcu/stm32_ws/src/libraries/STM32F4xx_StdPeriph_Driver/src/stm32f4xx_flash.c ****       { 
1553:/home/rdu/Workspace/project_templates/mcu/stm32_ws/src/libraries/STM32F4xx_StdPeriph_Driver/src/stm32f4xx_flash.c ****         flashstatus = FLASH_ERROR_RD;
 2327              		.loc 1 1553 0
 2328 003e 0223     		movs	r3, #2
 2329 0040 8DF80730 		strb	r3, [sp, #7]
 2330 0044 16E0     		b	.L194
 2331              	.L196:
1554:/home/rdu/Workspace/project_templates/mcu/stm32_ws/src/libraries/STM32F4xx_StdPeriph_Driver/src/stm32f4xx_flash.c ****       } 
1555:/home/rdu/Workspace/project_templates/mcu/stm32_ws/src/libraries/STM32F4xx_StdPeriph_Driver/src/stm32f4xx_flash.c ****       else 
1556:/home/rdu/Workspace/project_templates/mcu/stm32_ws/src/libraries/STM32F4xx_StdPeriph_Driver/src/stm32f4xx_flash.c ****       {
1557:/home/rdu/Workspace/project_templates/mcu/stm32_ws/src/libraries/STM32F4xx_StdPeriph_Driver/src/stm32f4xx_flash.c ****         if((FLASH->SR & (uint32_t)0xE0) != (uint32_t)0x00)
 2332              		.loc 1 1557 0
 2333 0046 0E4B     		ldr	r3, .L200
 2334 0048 DB68     		ldr	r3, [r3, #12]
 2335 004a 03F0E003 		and	r3, r3, #224
 2336 004e 002B     		cmp	r3, #0
 2337 0050 03D0     		beq	.L197
1558:/home/rdu/Workspace/project_templates/mcu/stm32_ws/src/libraries/STM32F4xx_StdPeriph_Driver/src/stm32f4xx_flash.c ****         {
1559:/home/rdu/Workspace/project_templates/mcu/stm32_ws/src/libraries/STM32F4xx_StdPeriph_Driver/src/stm32f4xx_flash.c ****           flashstatus = FLASH_ERROR_PROGRAM; 
 2338              		.loc 1 1559 0
 2339 0052 0723     		movs	r3, #7
 2340 0054 8DF80730 		strb	r3, [sp, #7]
 2341 0058 0CE0     		b	.L194
 2342              	.L197:
1560:/home/rdu/Workspace/project_templates/mcu/stm32_ws/src/libraries/STM32F4xx_StdPeriph_Driver/src/stm32f4xx_flash.c ****         }
1561:/home/rdu/Workspace/project_templates/mcu/stm32_ws/src/libraries/STM32F4xx_StdPeriph_Driver/src/stm32f4xx_flash.c ****         else
1562:/home/rdu/Workspace/project_templates/mcu/stm32_ws/src/libraries/STM32F4xx_StdPeriph_Driver/src/stm32f4xx_flash.c ****         {
1563:/home/rdu/Workspace/project_templates/mcu/stm32_ws/src/libraries/STM32F4xx_StdPeriph_Driver/src/stm32f4xx_flash.c ****           if((FLASH->SR & FLASH_FLAG_OPERR) != (uint32_t)0x00)
 2343              		.loc 1 1563 0
 2344 005a 094B     		ldr	r3, .L200
 2345 005c DB68     		ldr	r3, [r3, #12]
 2346 005e 03F00203 		and	r3, r3, #2
 2347 0062 002B     		cmp	r3, #0
 2348 0064 03D0     		beq	.L198
1564:/home/rdu/Workspace/project_templates/mcu/stm32_ws/src/libraries/STM32F4xx_StdPeriph_Driver/src/stm32f4xx_flash.c ****           {
1565:/home/rdu/Workspace/project_templates/mcu/stm32_ws/src/libraries/STM32F4xx_StdPeriph_Driver/src/stm32f4xx_flash.c ****             flashstatus = FLASH_ERROR_OPERATION;
 2349              		.loc 1 1565 0
 2350 0066 0823     		movs	r3, #8
 2351 0068 8DF80730 		strb	r3, [sp, #7]
 2352 006c 02E0     		b	.L194
 2353              	.L198:
1566:/home/rdu/Workspace/project_templates/mcu/stm32_ws/src/libraries/STM32F4xx_StdPeriph_Driver/src/stm32f4xx_flash.c ****           }
1567:/home/rdu/Workspace/project_templates/mcu/stm32_ws/src/libraries/STM32F4xx_StdPeriph_Driver/src/stm32f4xx_flash.c ****           else
1568:/home/rdu/Workspace/project_templates/mcu/stm32_ws/src/libraries/STM32F4xx_StdPeriph_Driver/src/stm32f4xx_flash.c ****           {
1569:/home/rdu/Workspace/project_templates/mcu/stm32_ws/src/libraries/STM32F4xx_StdPeriph_Driver/src/stm32f4xx_flash.c ****             flashstatus = FLASH_COMPLETE;
 2354              		.loc 1 1569 0
 2355 006e 0923     		movs	r3, #9
 2356 0070 8DF80730 		strb	r3, [sp, #7]
 2357              	.L194:
1570:/home/rdu/Workspace/project_templates/mcu/stm32_ws/src/libraries/STM32F4xx_StdPeriph_Driver/src/stm32f4xx_flash.c ****           }
1571:/home/rdu/Workspace/project_templates/mcu/stm32_ws/src/libraries/STM32F4xx_StdPeriph_Driver/src/stm32f4xx_flash.c ****         }
1572:/home/rdu/Workspace/project_templates/mcu/stm32_ws/src/libraries/STM32F4xx_StdPeriph_Driver/src/stm32f4xx_flash.c ****       }
1573:/home/rdu/Workspace/project_templates/mcu/stm32_ws/src/libraries/STM32F4xx_StdPeriph_Driver/src/stm32f4xx_flash.c ****     }
1574:/home/rdu/Workspace/project_templates/mcu/stm32_ws/src/libraries/STM32F4xx_StdPeriph_Driver/src/stm32f4xx_flash.c ****   }
1575:/home/rdu/Workspace/project_templates/mcu/stm32_ws/src/libraries/STM32F4xx_StdPeriph_Driver/src/stm32f4xx_flash.c ****   /* Return the FLASH Status */
1576:/home/rdu/Workspace/project_templates/mcu/stm32_ws/src/libraries/STM32F4xx_StdPeriph_Driver/src/stm32f4xx_flash.c ****   return flashstatus;
 2358              		.loc 1 1576 0
 2359 0074 9DF80730 		ldrb	r3, [sp, #7]	@ zero_extendqisi2
1577:/home/rdu/Workspace/project_templates/mcu/stm32_ws/src/libraries/STM32F4xx_StdPeriph_Driver/src/stm32f4xx_flash.c **** }
 2360              		.loc 1 1577 0
 2361 0078 1846     		mov	r0, r3
 2362 007a 02B0     		add	sp, sp, #8
 2363              	.LCFI68:
 2364              		.cfi_def_cfa_offset 0
 2365              		@ sp needed
 2366 007c 7047     		bx	lr
 2367              	.L201:
 2368 007e 00BF     		.align	2
 2369              	.L200:
 2370 0080 003C0240 		.word	1073888256
 2371              		.cfi_endproc
 2372              	.LFE161:
 2374              		.section	.text.FLASH_WaitForLastOperation,"ax",%progbits
 2375              		.align	1
 2376              		.global	FLASH_WaitForLastOperation
 2377              		.syntax unified
 2378              		.thumb
 2379              		.thumb_func
 2380              		.fpu fpv4-sp-d16
 2382              	FLASH_WaitForLastOperation:
 2383              	.LFB162:
1578:/home/rdu/Workspace/project_templates/mcu/stm32_ws/src/libraries/STM32F4xx_StdPeriph_Driver/src/stm32f4xx_flash.c **** 
1579:/home/rdu/Workspace/project_templates/mcu/stm32_ws/src/libraries/STM32F4xx_StdPeriph_Driver/src/stm32f4xx_flash.c **** /**
1580:/home/rdu/Workspace/project_templates/mcu/stm32_ws/src/libraries/STM32F4xx_StdPeriph_Driver/src/stm32f4xx_flash.c ****   * @brief  Waits for a FLASH operation to complete.
1581:/home/rdu/Workspace/project_templates/mcu/stm32_ws/src/libraries/STM32F4xx_StdPeriph_Driver/src/stm32f4xx_flash.c ****   * @param  None
1582:/home/rdu/Workspace/project_templates/mcu/stm32_ws/src/libraries/STM32F4xx_StdPeriph_Driver/src/stm32f4xx_flash.c ****   * @retval FLASH Status: The returned value can be: FLASH_BUSY, FLASH_ERROR_PROGRAM,
1583:/home/rdu/Workspace/project_templates/mcu/stm32_ws/src/libraries/STM32F4xx_StdPeriph_Driver/src/stm32f4xx_flash.c ****   *                       FLASH_ERROR_WRP, FLASH_ERROR_OPERATION or FLASH_COMPLETE.
1584:/home/rdu/Workspace/project_templates/mcu/stm32_ws/src/libraries/STM32F4xx_StdPeriph_Driver/src/stm32f4xx_flash.c ****   */
1585:/home/rdu/Workspace/project_templates/mcu/stm32_ws/src/libraries/STM32F4xx_StdPeriph_Driver/src/stm32f4xx_flash.c **** FLASH_Status FLASH_WaitForLastOperation(void)
1586:/home/rdu/Workspace/project_templates/mcu/stm32_ws/src/libraries/STM32F4xx_StdPeriph_Driver/src/stm32f4xx_flash.c **** { 
 2384              		.loc 1 1586 0
 2385              		.cfi_startproc
 2386              		@ args = 0, pretend = 0, frame = 8
 2387              		@ frame_needed = 0, uses_anonymous_args = 0
 2388 0000 00B5     		push	{lr}
 2389              	.LCFI69:
 2390              		.cfi_def_cfa_offset 4
 2391              		.cfi_offset 14, -4
 2392 0002 83B0     		sub	sp, sp, #12
 2393              	.LCFI70:
 2394              		.cfi_def_cfa_offset 16
1587:/home/rdu/Workspace/project_templates/mcu/stm32_ws/src/libraries/STM32F4xx_StdPeriph_Driver/src/stm32f4xx_flash.c ****   __IO FLASH_Status status = FLASH_COMPLETE;
 2395              		.loc 1 1587 0
 2396 0004 0923     		movs	r3, #9
 2397 0006 8DF80730 		strb	r3, [sp, #7]
1588:/home/rdu/Workspace/project_templates/mcu/stm32_ws/src/libraries/STM32F4xx_StdPeriph_Driver/src/stm32f4xx_flash.c ****    
1589:/home/rdu/Workspace/project_templates/mcu/stm32_ws/src/libraries/STM32F4xx_StdPeriph_Driver/src/stm32f4xx_flash.c ****   /* Check for the FLASH Status */
1590:/home/rdu/Workspace/project_templates/mcu/stm32_ws/src/libraries/STM32F4xx_StdPeriph_Driver/src/stm32f4xx_flash.c ****   status = FLASH_GetStatus();
 2398              		.loc 1 1590 0
 2399 000a FFF7FEFF 		bl	FLASH_GetStatus
 2400 000e 0346     		mov	r3, r0
 2401 0010 8DF80730 		strb	r3, [sp, #7]
1591:/home/rdu/Workspace/project_templates/mcu/stm32_ws/src/libraries/STM32F4xx_StdPeriph_Driver/src/stm32f4xx_flash.c **** 
1592:/home/rdu/Workspace/project_templates/mcu/stm32_ws/src/libraries/STM32F4xx_StdPeriph_Driver/src/stm32f4xx_flash.c ****   /* Wait for the FLASH operation to complete by polling on BUSY flag to be reset.
1593:/home/rdu/Workspace/project_templates/mcu/stm32_ws/src/libraries/STM32F4xx_StdPeriph_Driver/src/stm32f4xx_flash.c ****      Even if the FLASH operation fails, the BUSY flag will be reset and an error
1594:/home/rdu/Workspace/project_templates/mcu/stm32_ws/src/libraries/STM32F4xx_StdPeriph_Driver/src/stm32f4xx_flash.c ****      flag will be set */
1595:/home/rdu/Workspace/project_templates/mcu/stm32_ws/src/libraries/STM32F4xx_StdPeriph_Driver/src/stm32f4xx_flash.c ****   while(status == FLASH_BUSY)
 2402              		.loc 1 1595 0
 2403 0014 04E0     		b	.L203
 2404              	.L204:
1596:/home/rdu/Workspace/project_templates/mcu/stm32_ws/src/libraries/STM32F4xx_StdPeriph_Driver/src/stm32f4xx_flash.c ****   {
1597:/home/rdu/Workspace/project_templates/mcu/stm32_ws/src/libraries/STM32F4xx_StdPeriph_Driver/src/stm32f4xx_flash.c ****     status = FLASH_GetStatus();
 2405              		.loc 1 1597 0
 2406 0016 FFF7FEFF 		bl	FLASH_GetStatus
 2407 001a 0346     		mov	r3, r0
 2408 001c 8DF80730 		strb	r3, [sp, #7]
 2409              	.L203:
1595:/home/rdu/Workspace/project_templates/mcu/stm32_ws/src/libraries/STM32F4xx_StdPeriph_Driver/src/stm32f4xx_flash.c ****   {
 2410              		.loc 1 1595 0
 2411 0020 9DF80730 		ldrb	r3, [sp, #7]
 2412 0024 DBB2     		uxtb	r3, r3
 2413 0026 012B     		cmp	r3, #1
 2414 0028 F5D0     		beq	.L204
1598:/home/rdu/Workspace/project_templates/mcu/stm32_ws/src/libraries/STM32F4xx_StdPeriph_Driver/src/stm32f4xx_flash.c ****   }
1599:/home/rdu/Workspace/project_templates/mcu/stm32_ws/src/libraries/STM32F4xx_StdPeriph_Driver/src/stm32f4xx_flash.c ****   /* Return the operation status */
1600:/home/rdu/Workspace/project_templates/mcu/stm32_ws/src/libraries/STM32F4xx_StdPeriph_Driver/src/stm32f4xx_flash.c ****   return status;
 2415              		.loc 1 1600 0
 2416 002a 9DF80730 		ldrb	r3, [sp, #7]
 2417 002e DBB2     		uxtb	r3, r3
1601:/home/rdu/Workspace/project_templates/mcu/stm32_ws/src/libraries/STM32F4xx_StdPeriph_Driver/src/stm32f4xx_flash.c **** }
 2418              		.loc 1 1601 0
 2419 0030 1846     		mov	r0, r3
 2420 0032 03B0     		add	sp, sp, #12
 2421              	.LCFI71:
 2422              		.cfi_def_cfa_offset 4
 2423              		@ sp needed
 2424 0034 5DF804FB 		ldr	pc, [sp], #4
 2425              		.cfi_endproc
 2426              	.LFE162:
 2428              		.text
 2429              	.Letext0:
 2430              		.file 2 "/home/rdu/Software/gcc-arm-none-eabi-7-2017-q4-major/arm-none-eabi/include/machine/_defau
 2431              		.file 3 "/home/rdu/Software/gcc-arm-none-eabi-7-2017-q4-major/arm-none-eabi/include/sys/_stdint.h"
 2432              		.file 4 "/home/rdu/Workspace/project_templates/mcu/stm32_ws/src/libraries/CMSIS/CMSIS_STM32F4/Incl
 2433              		.file 5 "/home/rdu/Workspace/project_templates/mcu/stm32_ws/src/libraries/CMSIS/CMSIS_STM32F4/Devi
 2434              		.file 6 "/home/rdu/Workspace/project_templates/mcu/stm32_ws/src/libraries/CMSIS/CMSIS_STM32F4/Devi
 2435              		.file 7 "/home/rdu/Workspace/project_templates/mcu/stm32_ws/src/libraries/STM32F4xx_StdPeriph_Driv
DEFINED SYMBOLS
                            *ABS*:0000000000000000 stm32f4xx_flash.c
     /tmp/ccn5XoGr.s:16     .text.FLASH_SetLatency:0000000000000000 $t
     /tmp/ccn5XoGr.s:23     .text.FLASH_SetLatency:0000000000000000 FLASH_SetLatency
     /tmp/ccn5XoGr.s:50     .text.FLASH_SetLatency:0000000000000014 $d
     /tmp/ccn5XoGr.s:55     .text.FLASH_PrefetchBufferCmd:0000000000000000 $t
     /tmp/ccn5XoGr.s:62     .text.FLASH_PrefetchBufferCmd:0000000000000000 FLASH_PrefetchBufferCmd
     /tmp/ccn5XoGr.s:104    .text.FLASH_PrefetchBufferCmd:0000000000000030 $d
     /tmp/ccn5XoGr.s:109    .text.FLASH_InstructionCacheCmd:0000000000000000 $t
     /tmp/ccn5XoGr.s:116    .text.FLASH_InstructionCacheCmd:0000000000000000 FLASH_InstructionCacheCmd
     /tmp/ccn5XoGr.s:158    .text.FLASH_InstructionCacheCmd:0000000000000030 $d
     /tmp/ccn5XoGr.s:163    .text.FLASH_DataCacheCmd:0000000000000000 $t
     /tmp/ccn5XoGr.s:170    .text.FLASH_DataCacheCmd:0000000000000000 FLASH_DataCacheCmd
     /tmp/ccn5XoGr.s:212    .text.FLASH_DataCacheCmd:0000000000000030 $d
     /tmp/ccn5XoGr.s:217    .text.FLASH_InstructionCacheReset:0000000000000000 $t
     /tmp/ccn5XoGr.s:224    .text.FLASH_InstructionCacheReset:0000000000000000 FLASH_InstructionCacheReset
     /tmp/ccn5XoGr.s:243    .text.FLASH_InstructionCacheReset:0000000000000010 $d
     /tmp/ccn5XoGr.s:248    .text.FLASH_DataCacheReset:0000000000000000 $t
     /tmp/ccn5XoGr.s:255    .text.FLASH_DataCacheReset:0000000000000000 FLASH_DataCacheReset
     /tmp/ccn5XoGr.s:274    .text.FLASH_DataCacheReset:0000000000000010 $d
     /tmp/ccn5XoGr.s:279    .text.FLASH_Unlock:0000000000000000 $t
     /tmp/ccn5XoGr.s:286    .text.FLASH_Unlock:0000000000000000 FLASH_Unlock
     /tmp/ccn5XoGr.s:313    .text.FLASH_Unlock:0000000000000018 $d
     /tmp/ccn5XoGr.s:320    .text.FLASH_Lock:0000000000000000 $t
     /tmp/ccn5XoGr.s:327    .text.FLASH_Lock:0000000000000000 FLASH_Lock
     /tmp/ccn5XoGr.s:346    .text.FLASH_Lock:0000000000000010 $d
     /tmp/ccn5XoGr.s:351    .text.FLASH_EraseSector:0000000000000000 $t
     /tmp/ccn5XoGr.s:358    .text.FLASH_EraseSector:0000000000000000 FLASH_EraseSector
     /tmp/ccn5XoGr.s:2382   .text.FLASH_WaitForLastOperation:0000000000000000 FLASH_WaitForLastOperation
     /tmp/ccn5XoGr.s:481    .text.FLASH_EraseSector:00000000000000cc $d
     /tmp/ccn5XoGr.s:486    .text.FLASH_EraseAllSectors:0000000000000000 $t
     /tmp/ccn5XoGr.s:493    .text.FLASH_EraseAllSectors:0000000000000000 FLASH_EraseAllSectors
     /tmp/ccn5XoGr.s:601    .text.FLASH_EraseAllSectors:00000000000000ac $d
     /tmp/ccn5XoGr.s:606    .text.FLASH_EraseAllBank1Sectors:0000000000000000 $t
     /tmp/ccn5XoGr.s:613    .text.FLASH_EraseAllBank1Sectors:0000000000000000 FLASH_EraseAllBank1Sectors
     /tmp/ccn5XoGr.s:721    .text.FLASH_EraseAllBank1Sectors:00000000000000ac $d
     /tmp/ccn5XoGr.s:726    .text.FLASH_EraseAllBank2Sectors:0000000000000000 $t
     /tmp/ccn5XoGr.s:733    .text.FLASH_EraseAllBank2Sectors:0000000000000000 FLASH_EraseAllBank2Sectors
     /tmp/ccn5XoGr.s:841    .text.FLASH_EraseAllBank2Sectors:00000000000000ac $d
     /tmp/ccn5XoGr.s:846    .text.FLASH_ProgramDoubleWord:0000000000000000 $t
     /tmp/ccn5XoGr.s:853    .text.FLASH_ProgramDoubleWord:0000000000000000 FLASH_ProgramDoubleWord
     /tmp/ccn5XoGr.s:925    .text.FLASH_ProgramDoubleWord:0000000000000070 $d
     /tmp/ccn5XoGr.s:930    .text.FLASH_ProgramWord:0000000000000000 $t
     /tmp/ccn5XoGr.s:937    .text.FLASH_ProgramWord:0000000000000000 FLASH_ProgramWord
     /tmp/ccn5XoGr.s:1008   .text.FLASH_ProgramWord:000000000000006c $d
     /tmp/ccn5XoGr.s:1013   .text.FLASH_ProgramHalfWord:0000000000000000 $t
     /tmp/ccn5XoGr.s:1020   .text.FLASH_ProgramHalfWord:0000000000000000 FLASH_ProgramHalfWord
     /tmp/ccn5XoGr.s:1092   .text.FLASH_ProgramHalfWord:0000000000000074 $d
     /tmp/ccn5XoGr.s:1097   .text.FLASH_ProgramByte:0000000000000000 $t
     /tmp/ccn5XoGr.s:1104   .text.FLASH_ProgramByte:0000000000000000 FLASH_ProgramByte
     /tmp/ccn5XoGr.s:1175   .text.FLASH_ProgramByte:0000000000000070 $d
     /tmp/ccn5XoGr.s:1180   .text.FLASH_OB_Unlock:0000000000000000 $t
     /tmp/ccn5XoGr.s:1187   .text.FLASH_OB_Unlock:0000000000000000 FLASH_OB_Unlock
     /tmp/ccn5XoGr.s:1215   .text.FLASH_OB_Unlock:000000000000001c $d
     /tmp/ccn5XoGr.s:1222   .text.FLASH_OB_Lock:0000000000000000 $t
     /tmp/ccn5XoGr.s:1229   .text.FLASH_OB_Lock:0000000000000000 FLASH_OB_Lock
     /tmp/ccn5XoGr.s:1248   .text.FLASH_OB_Lock:0000000000000010 $d
     /tmp/ccn5XoGr.s:1253   .text.FLASH_OB_WRPConfig:0000000000000000 $t
     /tmp/ccn5XoGr.s:1260   .text.FLASH_OB_WRPConfig:0000000000000000 FLASH_OB_WRPConfig
     /tmp/ccn5XoGr.s:1327   .text.FLASH_OB_WRPConfig:0000000000000060 $d
     /tmp/ccn5XoGr.s:1332   .text.FLASH_OB_WRP1Config:0000000000000000 $t
     /tmp/ccn5XoGr.s:1339   .text.FLASH_OB_WRP1Config:0000000000000000 FLASH_OB_WRP1Config
     /tmp/ccn5XoGr.s:1406   .text.FLASH_OB_WRP1Config:0000000000000060 $d
     /tmp/ccn5XoGr.s:1411   .text.FLASH_OB_PCROPSelectionConfig:0000000000000000 $t
     /tmp/ccn5XoGr.s:1418   .text.FLASH_OB_PCROPSelectionConfig:0000000000000000 FLASH_OB_PCROPSelectionConfig
     /tmp/ccn5XoGr.s:1456   .text.FLASH_OB_PCROPSelectionConfig:0000000000000034 $d
     /tmp/ccn5XoGr.s:1461   .text.FLASH_OB_PCROPConfig:0000000000000000 $t
     /tmp/ccn5XoGr.s:1468   .text.FLASH_OB_PCROPConfig:0000000000000000 FLASH_OB_PCROPConfig
     /tmp/ccn5XoGr.s:1535   .text.FLASH_OB_PCROPConfig:0000000000000060 $d
     /tmp/ccn5XoGr.s:1540   .text.FLASH_OB_PCROP1Config:0000000000000000 $t
     /tmp/ccn5XoGr.s:1547   .text.FLASH_OB_PCROP1Config:0000000000000000 FLASH_OB_PCROP1Config
     /tmp/ccn5XoGr.s:1614   .text.FLASH_OB_PCROP1Config:0000000000000060 $d
     /tmp/ccn5XoGr.s:1619   .text.FLASH_OB_RDPConfig:0000000000000000 $t
     /tmp/ccn5XoGr.s:1626   .text.FLASH_OB_RDPConfig:0000000000000000 FLASH_OB_RDPConfig
     /tmp/ccn5XoGr.s:1667   .text.FLASH_OB_RDPConfig:0000000000000034 $d
     /tmp/ccn5XoGr.s:1672   .text.FLASH_OB_UserConfig:0000000000000000 $t
     /tmp/ccn5XoGr.s:1679   .text.FLASH_OB_UserConfig:0000000000000000 FLASH_OB_UserConfig
     /tmp/ccn5XoGr.s:1742   .text.FLASH_OB_UserConfig:000000000000006c $d
     /tmp/ccn5XoGr.s:1747   .text.FLASH_OB_BootConfig:0000000000000000 $t
     /tmp/ccn5XoGr.s:1754   .text.FLASH_OB_BootConfig:0000000000000000 FLASH_OB_BootConfig
     /tmp/ccn5XoGr.s:1793   .text.FLASH_OB_BootConfig:0000000000000030 $d
     /tmp/ccn5XoGr.s:1798   .text.FLASH_OB_BORConfig:0000000000000000 $t
     /tmp/ccn5XoGr.s:1805   .text.FLASH_OB_BORConfig:0000000000000000 FLASH_OB_BORConfig
     /tmp/ccn5XoGr.s:1844   .text.FLASH_OB_BORConfig:0000000000000030 $d
     /tmp/ccn5XoGr.s:1849   .text.FLASH_OB_Launch:0000000000000000 $t
     /tmp/ccn5XoGr.s:1856   .text.FLASH_OB_Launch:0000000000000000 FLASH_OB_Launch
     /tmp/ccn5XoGr.s:1896   .text.FLASH_OB_Launch:0000000000000030 $d
     /tmp/ccn5XoGr.s:1901   .text.FLASH_OB_GetUser:0000000000000000 $t
     /tmp/ccn5XoGr.s:1908   .text.FLASH_OB_GetUser:0000000000000000 FLASH_OB_GetUser
     /tmp/ccn5XoGr.s:1926   .text.FLASH_OB_GetUser:000000000000000c $d
     /tmp/ccn5XoGr.s:1931   .text.FLASH_OB_GetWRP:0000000000000000 $t
     /tmp/ccn5XoGr.s:1938   .text.FLASH_OB_GetWRP:0000000000000000 FLASH_OB_GetWRP
     /tmp/ccn5XoGr.s:1955   .text.FLASH_OB_GetWRP:000000000000000c $d
     /tmp/ccn5XoGr.s:1960   .text.FLASH_OB_GetWRP1:0000000000000000 $t
     /tmp/ccn5XoGr.s:1967   .text.FLASH_OB_GetWRP1:0000000000000000 FLASH_OB_GetWRP1
     /tmp/ccn5XoGr.s:1984   .text.FLASH_OB_GetWRP1:000000000000000c $d
     /tmp/ccn5XoGr.s:1989   .text.FLASH_OB_GetPCROP:0000000000000000 $t
     /tmp/ccn5XoGr.s:1996   .text.FLASH_OB_GetPCROP:0000000000000000 FLASH_OB_GetPCROP
     /tmp/ccn5XoGr.s:2013   .text.FLASH_OB_GetPCROP:000000000000000c $d
     /tmp/ccn5XoGr.s:2018   .text.FLASH_OB_GetPCROP1:0000000000000000 $t
     /tmp/ccn5XoGr.s:2025   .text.FLASH_OB_GetPCROP1:0000000000000000 FLASH_OB_GetPCROP1
     /tmp/ccn5XoGr.s:2042   .text.FLASH_OB_GetPCROP1:000000000000000c $d
     /tmp/ccn5XoGr.s:2047   .text.FLASH_OB_GetRDP:0000000000000000 $t
     /tmp/ccn5XoGr.s:2054   .text.FLASH_OB_GetRDP:0000000000000000 FLASH_OB_GetRDP
     /tmp/ccn5XoGr.s:2094   .text.FLASH_OB_GetRDP:000000000000002c $d
     /tmp/ccn5XoGr.s:2099   .text.FLASH_OB_GetBOR:0000000000000000 $t
     /tmp/ccn5XoGr.s:2106   .text.FLASH_OB_GetBOR:0000000000000000 FLASH_OB_GetBOR
     /tmp/ccn5XoGr.s:2125   .text.FLASH_OB_GetBOR:0000000000000010 $d
     /tmp/ccn5XoGr.s:2130   .text.FLASH_ITConfig:0000000000000000 $t
     /tmp/ccn5XoGr.s:2137   .text.FLASH_ITConfig:0000000000000000 FLASH_ITConfig
     /tmp/ccn5XoGr.s:2183   .text.FLASH_ITConfig:0000000000000034 $d
     /tmp/ccn5XoGr.s:2188   .text.FLASH_GetFlagStatus:0000000000000000 $t
     /tmp/ccn5XoGr.s:2195   .text.FLASH_GetFlagStatus:0000000000000000 FLASH_GetFlagStatus
     /tmp/ccn5XoGr.s:2237   .text.FLASH_GetFlagStatus:0000000000000030 $d
     /tmp/ccn5XoGr.s:2242   .text.FLASH_ClearFlag:0000000000000000 $t
     /tmp/ccn5XoGr.s:2249   .text.FLASH_ClearFlag:0000000000000000 FLASH_ClearFlag
     /tmp/ccn5XoGr.s:2274   .text.FLASH_ClearFlag:0000000000000010 $d
     /tmp/ccn5XoGr.s:2279   .text.FLASH_GetStatus:0000000000000000 $t
     /tmp/ccn5XoGr.s:2286   .text.FLASH_GetStatus:0000000000000000 FLASH_GetStatus
     /tmp/ccn5XoGr.s:2370   .text.FLASH_GetStatus:0000000000000080 $d
     /tmp/ccn5XoGr.s:2375   .text.FLASH_WaitForLastOperation:0000000000000000 $t

NO UNDEFINED SYMBOLS
