   1              		.cpu cortex-m4
   2              		.eabi_attribute 27, 1
   3              		.eabi_attribute 28, 1
   4              		.eabi_attribute 23, 1
   5              		.eabi_attribute 24, 1
   6              		.eabi_attribute 25, 1
   7              		.eabi_attribute 26, 1
   8              		.eabi_attribute 30, 6
   9              		.eabi_attribute 34, 1
  10              		.eabi_attribute 18, 4
  11              		.file	"stm32f4xx_i2c.c"
  12              		.text
  13              	.Ltext0:
  14              		.cfi_sections	.debug_frame
  15              		.section	.text.I2C_DeInit,"ax",%progbits
  16              		.align	1
  17              		.global	I2C_DeInit
  18              		.syntax unified
  19              		.thumb
  20              		.thumb_func
  21              		.fpu fpv4-sp-d16
  23              	I2C_DeInit:
  24              	.LFB123:
  25              		.file 1 "/home/rdu/Workspace/project_templates/mcu/stm32_ws/src/libraries/STM32F4xx_StdPeriph_Driv
   1:/home/rdu/Workspace/project_templates/mcu/stm32_ws/src/libraries/STM32F4xx_StdPeriph_Driver/src/stm32f4xx_i2c.c **** /**
   2:/home/rdu/Workspace/project_templates/mcu/stm32_ws/src/libraries/STM32F4xx_StdPeriph_Driver/src/stm32f4xx_i2c.c ****   ******************************************************************************
   3:/home/rdu/Workspace/project_templates/mcu/stm32_ws/src/libraries/STM32F4xx_StdPeriph_Driver/src/stm32f4xx_i2c.c ****   * @file    stm32f4xx_i2c.c
   4:/home/rdu/Workspace/project_templates/mcu/stm32_ws/src/libraries/STM32F4xx_StdPeriph_Driver/src/stm32f4xx_i2c.c ****   * @author  MCD Application Team
   5:/home/rdu/Workspace/project_templates/mcu/stm32_ws/src/libraries/STM32F4xx_StdPeriph_Driver/src/stm32f4xx_i2c.c ****   * @version V1.8.0
   6:/home/rdu/Workspace/project_templates/mcu/stm32_ws/src/libraries/STM32F4xx_StdPeriph_Driver/src/stm32f4xx_i2c.c ****   * @date    04-November-2016
   7:/home/rdu/Workspace/project_templates/mcu/stm32_ws/src/libraries/STM32F4xx_StdPeriph_Driver/src/stm32f4xx_i2c.c ****   * @brief   This file provides firmware functions to manage the following 
   8:/home/rdu/Workspace/project_templates/mcu/stm32_ws/src/libraries/STM32F4xx_StdPeriph_Driver/src/stm32f4xx_i2c.c ****   *          functionalities of the Inter-integrated circuit (I2C)
   9:/home/rdu/Workspace/project_templates/mcu/stm32_ws/src/libraries/STM32F4xx_StdPeriph_Driver/src/stm32f4xx_i2c.c ****   *           + Initialization and Configuration
  10:/home/rdu/Workspace/project_templates/mcu/stm32_ws/src/libraries/STM32F4xx_StdPeriph_Driver/src/stm32f4xx_i2c.c ****   *           + Data transfers
  11:/home/rdu/Workspace/project_templates/mcu/stm32_ws/src/libraries/STM32F4xx_StdPeriph_Driver/src/stm32f4xx_i2c.c ****   *           + PEC management
  12:/home/rdu/Workspace/project_templates/mcu/stm32_ws/src/libraries/STM32F4xx_StdPeriph_Driver/src/stm32f4xx_i2c.c ****   *           + DMA transfers management
  13:/home/rdu/Workspace/project_templates/mcu/stm32_ws/src/libraries/STM32F4xx_StdPeriph_Driver/src/stm32f4xx_i2c.c ****   *           + Interrupts, events and flags management 
  14:/home/rdu/Workspace/project_templates/mcu/stm32_ws/src/libraries/STM32F4xx_StdPeriph_Driver/src/stm32f4xx_i2c.c ****   *           
  15:/home/rdu/Workspace/project_templates/mcu/stm32_ws/src/libraries/STM32F4xx_StdPeriph_Driver/src/stm32f4xx_i2c.c ****     @verbatim    
  16:/home/rdu/Workspace/project_templates/mcu/stm32_ws/src/libraries/STM32F4xx_StdPeriph_Driver/src/stm32f4xx_i2c.c ****  ===============================================================================
  17:/home/rdu/Workspace/project_templates/mcu/stm32_ws/src/libraries/STM32F4xx_StdPeriph_Driver/src/stm32f4xx_i2c.c ****                     ##### How to use this driver #####
  18:/home/rdu/Workspace/project_templates/mcu/stm32_ws/src/libraries/STM32F4xx_StdPeriph_Driver/src/stm32f4xx_i2c.c ****  ===============================================================================
  19:/home/rdu/Workspace/project_templates/mcu/stm32_ws/src/libraries/STM32F4xx_StdPeriph_Driver/src/stm32f4xx_i2c.c ****     [..]
  20:/home/rdu/Workspace/project_templates/mcu/stm32_ws/src/libraries/STM32F4xx_StdPeriph_Driver/src/stm32f4xx_i2c.c ****       (#) Enable peripheral clock using RCC_APB1PeriphClockCmd(RCC_APB1Periph_I2Cx, ENABLE)
  21:/home/rdu/Workspace/project_templates/mcu/stm32_ws/src/libraries/STM32F4xx_StdPeriph_Driver/src/stm32f4xx_i2c.c ****           function for I2C1, I2C2 or I2C3.
  22:/home/rdu/Workspace/project_templates/mcu/stm32_ws/src/libraries/STM32F4xx_StdPeriph_Driver/src/stm32f4xx_i2c.c ****   
  23:/home/rdu/Workspace/project_templates/mcu/stm32_ws/src/libraries/STM32F4xx_StdPeriph_Driver/src/stm32f4xx_i2c.c ****       (#) Enable SDA, SCL  and SMBA (when used) GPIO clocks using 
  24:/home/rdu/Workspace/project_templates/mcu/stm32_ws/src/libraries/STM32F4xx_StdPeriph_Driver/src/stm32f4xx_i2c.c ****           RCC_AHBPeriphClockCmd() function. 
  25:/home/rdu/Workspace/project_templates/mcu/stm32_ws/src/libraries/STM32F4xx_StdPeriph_Driver/src/stm32f4xx_i2c.c ****   
  26:/home/rdu/Workspace/project_templates/mcu/stm32_ws/src/libraries/STM32F4xx_StdPeriph_Driver/src/stm32f4xx_i2c.c ****       (#) Peripherals alternate function: 
  27:/home/rdu/Workspace/project_templates/mcu/stm32_ws/src/libraries/STM32F4xx_StdPeriph_Driver/src/stm32f4xx_i2c.c ****         (++) Connect the pin to the desired peripherals' Alternate 
  28:/home/rdu/Workspace/project_templates/mcu/stm32_ws/src/libraries/STM32F4xx_StdPeriph_Driver/src/stm32f4xx_i2c.c ****              Function (AF) using GPIO_PinAFConfig() function
  29:/home/rdu/Workspace/project_templates/mcu/stm32_ws/src/libraries/STM32F4xx_StdPeriph_Driver/src/stm32f4xx_i2c.c ****         (++) Configure the desired pin in alternate function by:
  30:/home/rdu/Workspace/project_templates/mcu/stm32_ws/src/libraries/STM32F4xx_StdPeriph_Driver/src/stm32f4xx_i2c.c ****              GPIO_InitStruct->GPIO_Mode = GPIO_Mode_AF
  31:/home/rdu/Workspace/project_templates/mcu/stm32_ws/src/libraries/STM32F4xx_StdPeriph_Driver/src/stm32f4xx_i2c.c ****         (++) Select the type, pull-up/pull-down and output speed via 
  32:/home/rdu/Workspace/project_templates/mcu/stm32_ws/src/libraries/STM32F4xx_StdPeriph_Driver/src/stm32f4xx_i2c.c ****              GPIO_PuPd, GPIO_OType and GPIO_Speed members
  33:/home/rdu/Workspace/project_templates/mcu/stm32_ws/src/libraries/STM32F4xx_StdPeriph_Driver/src/stm32f4xx_i2c.c ****         (++) Call GPIO_Init() function
  34:/home/rdu/Workspace/project_templates/mcu/stm32_ws/src/libraries/STM32F4xx_StdPeriph_Driver/src/stm32f4xx_i2c.c ****              Recommended configuration is Push-Pull, Pull-up, Open-Drain.
  35:/home/rdu/Workspace/project_templates/mcu/stm32_ws/src/libraries/STM32F4xx_StdPeriph_Driver/src/stm32f4xx_i2c.c ****              Add an external pull up if necessary (typically 4.7 KOhm).      
  36:/home/rdu/Workspace/project_templates/mcu/stm32_ws/src/libraries/STM32F4xx_StdPeriph_Driver/src/stm32f4xx_i2c.c ****           
  37:/home/rdu/Workspace/project_templates/mcu/stm32_ws/src/libraries/STM32F4xx_StdPeriph_Driver/src/stm32f4xx_i2c.c ****       (#) Program the Mode, duty cycle , Own address, Ack, Speed and Acknowledged
  38:/home/rdu/Workspace/project_templates/mcu/stm32_ws/src/libraries/STM32F4xx_StdPeriph_Driver/src/stm32f4xx_i2c.c ****           Address using the I2C_Init() function.
  39:/home/rdu/Workspace/project_templates/mcu/stm32_ws/src/libraries/STM32F4xx_StdPeriph_Driver/src/stm32f4xx_i2c.c ****   
  40:/home/rdu/Workspace/project_templates/mcu/stm32_ws/src/libraries/STM32F4xx_StdPeriph_Driver/src/stm32f4xx_i2c.c ****       (#) Optionally you can enable/configure the following parameters without
  41:/home/rdu/Workspace/project_templates/mcu/stm32_ws/src/libraries/STM32F4xx_StdPeriph_Driver/src/stm32f4xx_i2c.c ****           re-initialization (i.e there is no need to call again I2C_Init() function):
  42:/home/rdu/Workspace/project_templates/mcu/stm32_ws/src/libraries/STM32F4xx_StdPeriph_Driver/src/stm32f4xx_i2c.c ****         (++) Enable the acknowledge feature using I2C_AcknowledgeConfig() function
  43:/home/rdu/Workspace/project_templates/mcu/stm32_ws/src/libraries/STM32F4xx_StdPeriph_Driver/src/stm32f4xx_i2c.c ****         (++) Enable the dual addressing mode using I2C_DualAddressCmd() function
  44:/home/rdu/Workspace/project_templates/mcu/stm32_ws/src/libraries/STM32F4xx_StdPeriph_Driver/src/stm32f4xx_i2c.c ****         (++) Enable the general call using the I2C_GeneralCallCmd() function
  45:/home/rdu/Workspace/project_templates/mcu/stm32_ws/src/libraries/STM32F4xx_StdPeriph_Driver/src/stm32f4xx_i2c.c ****         (++) Enable the clock stretching using I2C_StretchClockCmd() function
  46:/home/rdu/Workspace/project_templates/mcu/stm32_ws/src/libraries/STM32F4xx_StdPeriph_Driver/src/stm32f4xx_i2c.c ****         (++) Enable the fast mode duty cycle using the I2C_FastModeDutyCycleConfig()
  47:/home/rdu/Workspace/project_templates/mcu/stm32_ws/src/libraries/STM32F4xx_StdPeriph_Driver/src/stm32f4xx_i2c.c ****              function.
  48:/home/rdu/Workspace/project_templates/mcu/stm32_ws/src/libraries/STM32F4xx_StdPeriph_Driver/src/stm32f4xx_i2c.c ****         (++) Configure the NACK position for Master Receiver mode in case of 
  49:/home/rdu/Workspace/project_templates/mcu/stm32_ws/src/libraries/STM32F4xx_StdPeriph_Driver/src/stm32f4xx_i2c.c ****              2 bytes reception using the function I2C_NACKPositionConfig().  
  50:/home/rdu/Workspace/project_templates/mcu/stm32_ws/src/libraries/STM32F4xx_StdPeriph_Driver/src/stm32f4xx_i2c.c ****         (++) Enable the PEC Calculation using I2C_CalculatePEC() function
  51:/home/rdu/Workspace/project_templates/mcu/stm32_ws/src/libraries/STM32F4xx_StdPeriph_Driver/src/stm32f4xx_i2c.c ****         (++) For SMBus Mode: 
  52:/home/rdu/Workspace/project_templates/mcu/stm32_ws/src/libraries/STM32F4xx_StdPeriph_Driver/src/stm32f4xx_i2c.c ****           (+++) Enable the Address Resolution Protocol (ARP) using I2C_ARPCmd() function
  53:/home/rdu/Workspace/project_templates/mcu/stm32_ws/src/libraries/STM32F4xx_StdPeriph_Driver/src/stm32f4xx_i2c.c ****           (+++) Configure the SMBusAlert pin using I2C_SMBusAlertConfig() function
  54:/home/rdu/Workspace/project_templates/mcu/stm32_ws/src/libraries/STM32F4xx_StdPeriph_Driver/src/stm32f4xx_i2c.c ****   
  55:/home/rdu/Workspace/project_templates/mcu/stm32_ws/src/libraries/STM32F4xx_StdPeriph_Driver/src/stm32f4xx_i2c.c ****       (#) Enable the NVIC and the corresponding interrupt using the function 
  56:/home/rdu/Workspace/project_templates/mcu/stm32_ws/src/libraries/STM32F4xx_StdPeriph_Driver/src/stm32f4xx_i2c.c ****           I2C_ITConfig() if you need to use interrupt mode. 
  57:/home/rdu/Workspace/project_templates/mcu/stm32_ws/src/libraries/STM32F4xx_StdPeriph_Driver/src/stm32f4xx_i2c.c ****   
  58:/home/rdu/Workspace/project_templates/mcu/stm32_ws/src/libraries/STM32F4xx_StdPeriph_Driver/src/stm32f4xx_i2c.c ****       (#) When using the DMA mode 
  59:/home/rdu/Workspace/project_templates/mcu/stm32_ws/src/libraries/STM32F4xx_StdPeriph_Driver/src/stm32f4xx_i2c.c ****         (++) Configure the DMA using DMA_Init() function
  60:/home/rdu/Workspace/project_templates/mcu/stm32_ws/src/libraries/STM32F4xx_StdPeriph_Driver/src/stm32f4xx_i2c.c ****         (++) Active the needed channel Request using I2C_DMACmd() or
  61:/home/rdu/Workspace/project_templates/mcu/stm32_ws/src/libraries/STM32F4xx_StdPeriph_Driver/src/stm32f4xx_i2c.c ****              I2C_DMALastTransferCmd() function.
  62:/home/rdu/Workspace/project_templates/mcu/stm32_ws/src/libraries/STM32F4xx_StdPeriph_Driver/src/stm32f4xx_i2c.c ****         -@@- When using DMA mode, I2C interrupts may be used at the same time to
  63:/home/rdu/Workspace/project_templates/mcu/stm32_ws/src/libraries/STM32F4xx_StdPeriph_Driver/src/stm32f4xx_i2c.c ****              control the communication flow (Start/Stop/Ack... events and errors).
  64:/home/rdu/Workspace/project_templates/mcu/stm32_ws/src/libraries/STM32F4xx_StdPeriph_Driver/src/stm32f4xx_i2c.c ****    
  65:/home/rdu/Workspace/project_templates/mcu/stm32_ws/src/libraries/STM32F4xx_StdPeriph_Driver/src/stm32f4xx_i2c.c ****       (#) Enable the I2C using the I2C_Cmd() function.
  66:/home/rdu/Workspace/project_templates/mcu/stm32_ws/src/libraries/STM32F4xx_StdPeriph_Driver/src/stm32f4xx_i2c.c ****    
  67:/home/rdu/Workspace/project_templates/mcu/stm32_ws/src/libraries/STM32F4xx_StdPeriph_Driver/src/stm32f4xx_i2c.c ****       (#) Enable the DMA using the DMA_Cmd() function when using DMA mode in the 
  68:/home/rdu/Workspace/project_templates/mcu/stm32_ws/src/libraries/STM32F4xx_StdPeriph_Driver/src/stm32f4xx_i2c.c ****           transfers. 
  69:/home/rdu/Workspace/project_templates/mcu/stm32_ws/src/libraries/STM32F4xx_StdPeriph_Driver/src/stm32f4xx_i2c.c ****   
  70:/home/rdu/Workspace/project_templates/mcu/stm32_ws/src/libraries/STM32F4xx_StdPeriph_Driver/src/stm32f4xx_i2c.c ****     @endverbatim  
  71:/home/rdu/Workspace/project_templates/mcu/stm32_ws/src/libraries/STM32F4xx_StdPeriph_Driver/src/stm32f4xx_i2c.c ****   ******************************************************************************
  72:/home/rdu/Workspace/project_templates/mcu/stm32_ws/src/libraries/STM32F4xx_StdPeriph_Driver/src/stm32f4xx_i2c.c ****   * @attention
  73:/home/rdu/Workspace/project_templates/mcu/stm32_ws/src/libraries/STM32F4xx_StdPeriph_Driver/src/stm32f4xx_i2c.c ****   *
  74:/home/rdu/Workspace/project_templates/mcu/stm32_ws/src/libraries/STM32F4xx_StdPeriph_Driver/src/stm32f4xx_i2c.c ****   * <h2><center>&copy; COPYRIGHT 2016 STMicroelectronics</center></h2>
  75:/home/rdu/Workspace/project_templates/mcu/stm32_ws/src/libraries/STM32F4xx_StdPeriph_Driver/src/stm32f4xx_i2c.c ****   *
  76:/home/rdu/Workspace/project_templates/mcu/stm32_ws/src/libraries/STM32F4xx_StdPeriph_Driver/src/stm32f4xx_i2c.c ****   * Licensed under MCD-ST Liberty SW License Agreement V2, (the "License");
  77:/home/rdu/Workspace/project_templates/mcu/stm32_ws/src/libraries/STM32F4xx_StdPeriph_Driver/src/stm32f4xx_i2c.c ****   * You may not use this file except in compliance with the License.
  78:/home/rdu/Workspace/project_templates/mcu/stm32_ws/src/libraries/STM32F4xx_StdPeriph_Driver/src/stm32f4xx_i2c.c ****   * You may obtain a copy of the License at:
  79:/home/rdu/Workspace/project_templates/mcu/stm32_ws/src/libraries/STM32F4xx_StdPeriph_Driver/src/stm32f4xx_i2c.c ****   *
  80:/home/rdu/Workspace/project_templates/mcu/stm32_ws/src/libraries/STM32F4xx_StdPeriph_Driver/src/stm32f4xx_i2c.c ****   *        http://www.st.com/software_license_agreement_liberty_v2
  81:/home/rdu/Workspace/project_templates/mcu/stm32_ws/src/libraries/STM32F4xx_StdPeriph_Driver/src/stm32f4xx_i2c.c ****   *
  82:/home/rdu/Workspace/project_templates/mcu/stm32_ws/src/libraries/STM32F4xx_StdPeriph_Driver/src/stm32f4xx_i2c.c ****   * Unless required by applicable law or agreed to in writing, software 
  83:/home/rdu/Workspace/project_templates/mcu/stm32_ws/src/libraries/STM32F4xx_StdPeriph_Driver/src/stm32f4xx_i2c.c ****   * distributed under the License is distributed on an "AS IS" BASIS, 
  84:/home/rdu/Workspace/project_templates/mcu/stm32_ws/src/libraries/STM32F4xx_StdPeriph_Driver/src/stm32f4xx_i2c.c ****   * WITHOUT WARRANTIES OR CONDITIONS OF ANY KIND, either express or implied.
  85:/home/rdu/Workspace/project_templates/mcu/stm32_ws/src/libraries/STM32F4xx_StdPeriph_Driver/src/stm32f4xx_i2c.c ****   * See the License for the specific language governing permissions and
  86:/home/rdu/Workspace/project_templates/mcu/stm32_ws/src/libraries/STM32F4xx_StdPeriph_Driver/src/stm32f4xx_i2c.c ****   * limitations under the License.
  87:/home/rdu/Workspace/project_templates/mcu/stm32_ws/src/libraries/STM32F4xx_StdPeriph_Driver/src/stm32f4xx_i2c.c ****   *
  88:/home/rdu/Workspace/project_templates/mcu/stm32_ws/src/libraries/STM32F4xx_StdPeriph_Driver/src/stm32f4xx_i2c.c ****   ******************************************************************************  
  89:/home/rdu/Workspace/project_templates/mcu/stm32_ws/src/libraries/STM32F4xx_StdPeriph_Driver/src/stm32f4xx_i2c.c ****   */ 
  90:/home/rdu/Workspace/project_templates/mcu/stm32_ws/src/libraries/STM32F4xx_StdPeriph_Driver/src/stm32f4xx_i2c.c **** 
  91:/home/rdu/Workspace/project_templates/mcu/stm32_ws/src/libraries/STM32F4xx_StdPeriph_Driver/src/stm32f4xx_i2c.c **** /* Includes ------------------------------------------------------------------*/
  92:/home/rdu/Workspace/project_templates/mcu/stm32_ws/src/libraries/STM32F4xx_StdPeriph_Driver/src/stm32f4xx_i2c.c **** #include "stm32f4xx_i2c.h"
  93:/home/rdu/Workspace/project_templates/mcu/stm32_ws/src/libraries/STM32F4xx_StdPeriph_Driver/src/stm32f4xx_i2c.c **** #include "stm32f4xx_rcc.h"
  94:/home/rdu/Workspace/project_templates/mcu/stm32_ws/src/libraries/STM32F4xx_StdPeriph_Driver/src/stm32f4xx_i2c.c **** 
  95:/home/rdu/Workspace/project_templates/mcu/stm32_ws/src/libraries/STM32F4xx_StdPeriph_Driver/src/stm32f4xx_i2c.c **** /** @addtogroup STM32F4xx_StdPeriph_Driver
  96:/home/rdu/Workspace/project_templates/mcu/stm32_ws/src/libraries/STM32F4xx_StdPeriph_Driver/src/stm32f4xx_i2c.c ****   * @{
  97:/home/rdu/Workspace/project_templates/mcu/stm32_ws/src/libraries/STM32F4xx_StdPeriph_Driver/src/stm32f4xx_i2c.c ****   */
  98:/home/rdu/Workspace/project_templates/mcu/stm32_ws/src/libraries/STM32F4xx_StdPeriph_Driver/src/stm32f4xx_i2c.c **** 
  99:/home/rdu/Workspace/project_templates/mcu/stm32_ws/src/libraries/STM32F4xx_StdPeriph_Driver/src/stm32f4xx_i2c.c **** /** @defgroup I2C 
 100:/home/rdu/Workspace/project_templates/mcu/stm32_ws/src/libraries/STM32F4xx_StdPeriph_Driver/src/stm32f4xx_i2c.c ****   * @brief I2C driver modules
 101:/home/rdu/Workspace/project_templates/mcu/stm32_ws/src/libraries/STM32F4xx_StdPeriph_Driver/src/stm32f4xx_i2c.c ****   * @{
 102:/home/rdu/Workspace/project_templates/mcu/stm32_ws/src/libraries/STM32F4xx_StdPeriph_Driver/src/stm32f4xx_i2c.c ****   */ 
 103:/home/rdu/Workspace/project_templates/mcu/stm32_ws/src/libraries/STM32F4xx_StdPeriph_Driver/src/stm32f4xx_i2c.c **** 
 104:/home/rdu/Workspace/project_templates/mcu/stm32_ws/src/libraries/STM32F4xx_StdPeriph_Driver/src/stm32f4xx_i2c.c **** /* Private typedef -----------------------------------------------------------*/
 105:/home/rdu/Workspace/project_templates/mcu/stm32_ws/src/libraries/STM32F4xx_StdPeriph_Driver/src/stm32f4xx_i2c.c **** /* Private define ------------------------------------------------------------*/
 106:/home/rdu/Workspace/project_templates/mcu/stm32_ws/src/libraries/STM32F4xx_StdPeriph_Driver/src/stm32f4xx_i2c.c **** 
 107:/home/rdu/Workspace/project_templates/mcu/stm32_ws/src/libraries/STM32F4xx_StdPeriph_Driver/src/stm32f4xx_i2c.c **** #define CR1_CLEAR_MASK    ((uint16_t)0xFBF5)      /*<! I2C registers Masks */
 108:/home/rdu/Workspace/project_templates/mcu/stm32_ws/src/libraries/STM32F4xx_StdPeriph_Driver/src/stm32f4xx_i2c.c **** #define FLAG_MASK         ((uint32_t)0x00FFFFFF)  /*<! I2C FLAG mask */
 109:/home/rdu/Workspace/project_templates/mcu/stm32_ws/src/libraries/STM32F4xx_StdPeriph_Driver/src/stm32f4xx_i2c.c **** #define ITEN_MASK         ((uint32_t)0x07000000)  /*<! I2C Interrupt Enable mask */
 110:/home/rdu/Workspace/project_templates/mcu/stm32_ws/src/libraries/STM32F4xx_StdPeriph_Driver/src/stm32f4xx_i2c.c **** 
 111:/home/rdu/Workspace/project_templates/mcu/stm32_ws/src/libraries/STM32F4xx_StdPeriph_Driver/src/stm32f4xx_i2c.c **** /* Private macro -------------------------------------------------------------*/
 112:/home/rdu/Workspace/project_templates/mcu/stm32_ws/src/libraries/STM32F4xx_StdPeriph_Driver/src/stm32f4xx_i2c.c **** /* Private variables ---------------------------------------------------------*/
 113:/home/rdu/Workspace/project_templates/mcu/stm32_ws/src/libraries/STM32F4xx_StdPeriph_Driver/src/stm32f4xx_i2c.c **** /* Private function prototypes -----------------------------------------------*/
 114:/home/rdu/Workspace/project_templates/mcu/stm32_ws/src/libraries/STM32F4xx_StdPeriph_Driver/src/stm32f4xx_i2c.c **** /* Private functions ---------------------------------------------------------*/
 115:/home/rdu/Workspace/project_templates/mcu/stm32_ws/src/libraries/STM32F4xx_StdPeriph_Driver/src/stm32f4xx_i2c.c **** 
 116:/home/rdu/Workspace/project_templates/mcu/stm32_ws/src/libraries/STM32F4xx_StdPeriph_Driver/src/stm32f4xx_i2c.c **** /** @defgroup I2C_Private_Functions
 117:/home/rdu/Workspace/project_templates/mcu/stm32_ws/src/libraries/STM32F4xx_StdPeriph_Driver/src/stm32f4xx_i2c.c ****   * @{
 118:/home/rdu/Workspace/project_templates/mcu/stm32_ws/src/libraries/STM32F4xx_StdPeriph_Driver/src/stm32f4xx_i2c.c ****   */
 119:/home/rdu/Workspace/project_templates/mcu/stm32_ws/src/libraries/STM32F4xx_StdPeriph_Driver/src/stm32f4xx_i2c.c **** 
 120:/home/rdu/Workspace/project_templates/mcu/stm32_ws/src/libraries/STM32F4xx_StdPeriph_Driver/src/stm32f4xx_i2c.c **** /** @defgroup I2C_Group1 Initialization and Configuration functions
 121:/home/rdu/Workspace/project_templates/mcu/stm32_ws/src/libraries/STM32F4xx_StdPeriph_Driver/src/stm32f4xx_i2c.c ****  *  @brief   Initialization and Configuration functions 
 122:/home/rdu/Workspace/project_templates/mcu/stm32_ws/src/libraries/STM32F4xx_StdPeriph_Driver/src/stm32f4xx_i2c.c ****  *
 123:/home/rdu/Workspace/project_templates/mcu/stm32_ws/src/libraries/STM32F4xx_StdPeriph_Driver/src/stm32f4xx_i2c.c **** @verbatim   
 124:/home/rdu/Workspace/project_templates/mcu/stm32_ws/src/libraries/STM32F4xx_StdPeriph_Driver/src/stm32f4xx_i2c.c ****  ===============================================================================
 125:/home/rdu/Workspace/project_templates/mcu/stm32_ws/src/libraries/STM32F4xx_StdPeriph_Driver/src/stm32f4xx_i2c.c ****             ##### Initialization and Configuration functions #####
 126:/home/rdu/Workspace/project_templates/mcu/stm32_ws/src/libraries/STM32F4xx_StdPeriph_Driver/src/stm32f4xx_i2c.c ****  ===============================================================================  
 127:/home/rdu/Workspace/project_templates/mcu/stm32_ws/src/libraries/STM32F4xx_StdPeriph_Driver/src/stm32f4xx_i2c.c **** 
 128:/home/rdu/Workspace/project_templates/mcu/stm32_ws/src/libraries/STM32F4xx_StdPeriph_Driver/src/stm32f4xx_i2c.c **** @endverbatim
 129:/home/rdu/Workspace/project_templates/mcu/stm32_ws/src/libraries/STM32F4xx_StdPeriph_Driver/src/stm32f4xx_i2c.c ****   * @{
 130:/home/rdu/Workspace/project_templates/mcu/stm32_ws/src/libraries/STM32F4xx_StdPeriph_Driver/src/stm32f4xx_i2c.c ****   */
 131:/home/rdu/Workspace/project_templates/mcu/stm32_ws/src/libraries/STM32F4xx_StdPeriph_Driver/src/stm32f4xx_i2c.c **** 
 132:/home/rdu/Workspace/project_templates/mcu/stm32_ws/src/libraries/STM32F4xx_StdPeriph_Driver/src/stm32f4xx_i2c.c **** /**
 133:/home/rdu/Workspace/project_templates/mcu/stm32_ws/src/libraries/STM32F4xx_StdPeriph_Driver/src/stm32f4xx_i2c.c ****   * @brief  Deinitialize the I2Cx peripheral registers to their default reset values.
 134:/home/rdu/Workspace/project_templates/mcu/stm32_ws/src/libraries/STM32F4xx_StdPeriph_Driver/src/stm32f4xx_i2c.c ****   * @param  I2Cx: where x can be 1, 2 or 3 to select the I2C peripheral.
 135:/home/rdu/Workspace/project_templates/mcu/stm32_ws/src/libraries/STM32F4xx_StdPeriph_Driver/src/stm32f4xx_i2c.c ****   * @retval None
 136:/home/rdu/Workspace/project_templates/mcu/stm32_ws/src/libraries/STM32F4xx_StdPeriph_Driver/src/stm32f4xx_i2c.c ****   */
 137:/home/rdu/Workspace/project_templates/mcu/stm32_ws/src/libraries/STM32F4xx_StdPeriph_Driver/src/stm32f4xx_i2c.c **** void I2C_DeInit(I2C_TypeDef* I2Cx)
 138:/home/rdu/Workspace/project_templates/mcu/stm32_ws/src/libraries/STM32F4xx_StdPeriph_Driver/src/stm32f4xx_i2c.c **** {
  26              		.loc 1 138 0
  27              		.cfi_startproc
  28              		@ args = 0, pretend = 0, frame = 8
  29              		@ frame_needed = 0, uses_anonymous_args = 0
  30 0000 00B5     		push	{lr}
  31              	.LCFI0:
  32              		.cfi_def_cfa_offset 4
  33              		.cfi_offset 14, -4
  34 0002 83B0     		sub	sp, sp, #12
  35              	.LCFI1:
  36              		.cfi_def_cfa_offset 16
  37 0004 0190     		str	r0, [sp, #4]
 139:/home/rdu/Workspace/project_templates/mcu/stm32_ws/src/libraries/STM32F4xx_StdPeriph_Driver/src/stm32f4xx_i2c.c ****   /* Check the parameters */
 140:/home/rdu/Workspace/project_templates/mcu/stm32_ws/src/libraries/STM32F4xx_StdPeriph_Driver/src/stm32f4xx_i2c.c ****   assert_param(IS_I2C_ALL_PERIPH(I2Cx));
 141:/home/rdu/Workspace/project_templates/mcu/stm32_ws/src/libraries/STM32F4xx_StdPeriph_Driver/src/stm32f4xx_i2c.c **** 
 142:/home/rdu/Workspace/project_templates/mcu/stm32_ws/src/libraries/STM32F4xx_StdPeriph_Driver/src/stm32f4xx_i2c.c ****   if (I2Cx == I2C1)
  38              		.loc 1 142 0
  39 0006 019B     		ldr	r3, [sp, #4]
  40 0008 174A     		ldr	r2, .L6
  41 000a 9342     		cmp	r3, r2
  42 000c 0AD1     		bne	.L2
 143:/home/rdu/Workspace/project_templates/mcu/stm32_ws/src/libraries/STM32F4xx_StdPeriph_Driver/src/stm32f4xx_i2c.c ****   {
 144:/home/rdu/Workspace/project_templates/mcu/stm32_ws/src/libraries/STM32F4xx_StdPeriph_Driver/src/stm32f4xx_i2c.c ****     /* Enable I2C1 reset state */
 145:/home/rdu/Workspace/project_templates/mcu/stm32_ws/src/libraries/STM32F4xx_StdPeriph_Driver/src/stm32f4xx_i2c.c ****     RCC_APB1PeriphResetCmd(RCC_APB1Periph_I2C1, ENABLE);
  43              		.loc 1 145 0
  44 000e 0121     		movs	r1, #1
  45 0010 4FF40010 		mov	r0, #2097152
  46 0014 FFF7FEFF 		bl	RCC_APB1PeriphResetCmd
 146:/home/rdu/Workspace/project_templates/mcu/stm32_ws/src/libraries/STM32F4xx_StdPeriph_Driver/src/stm32f4xx_i2c.c ****     /* Release I2C1 from reset state */
 147:/home/rdu/Workspace/project_templates/mcu/stm32_ws/src/libraries/STM32F4xx_StdPeriph_Driver/src/stm32f4xx_i2c.c ****     RCC_APB1PeriphResetCmd(RCC_APB1Periph_I2C1, DISABLE);    
  47              		.loc 1 147 0
  48 0018 0021     		movs	r1, #0
  49 001a 4FF40010 		mov	r0, #2097152
  50 001e FFF7FEFF 		bl	RCC_APB1PeriphResetCmd
 148:/home/rdu/Workspace/project_templates/mcu/stm32_ws/src/libraries/STM32F4xx_StdPeriph_Driver/src/stm32f4xx_i2c.c ****   }
 149:/home/rdu/Workspace/project_templates/mcu/stm32_ws/src/libraries/STM32F4xx_StdPeriph_Driver/src/stm32f4xx_i2c.c ****   else if (I2Cx == I2C2)
 150:/home/rdu/Workspace/project_templates/mcu/stm32_ws/src/libraries/STM32F4xx_StdPeriph_Driver/src/stm32f4xx_i2c.c ****   {
 151:/home/rdu/Workspace/project_templates/mcu/stm32_ws/src/libraries/STM32F4xx_StdPeriph_Driver/src/stm32f4xx_i2c.c ****     /* Enable I2C2 reset state */
 152:/home/rdu/Workspace/project_templates/mcu/stm32_ws/src/libraries/STM32F4xx_StdPeriph_Driver/src/stm32f4xx_i2c.c ****     RCC_APB1PeriphResetCmd(RCC_APB1Periph_I2C2, ENABLE);
 153:/home/rdu/Workspace/project_templates/mcu/stm32_ws/src/libraries/STM32F4xx_StdPeriph_Driver/src/stm32f4xx_i2c.c ****     /* Release I2C2 from reset state */
 154:/home/rdu/Workspace/project_templates/mcu/stm32_ws/src/libraries/STM32F4xx_StdPeriph_Driver/src/stm32f4xx_i2c.c ****     RCC_APB1PeriphResetCmd(RCC_APB1Periph_I2C2, DISABLE);      
 155:/home/rdu/Workspace/project_templates/mcu/stm32_ws/src/libraries/STM32F4xx_StdPeriph_Driver/src/stm32f4xx_i2c.c ****   }
 156:/home/rdu/Workspace/project_templates/mcu/stm32_ws/src/libraries/STM32F4xx_StdPeriph_Driver/src/stm32f4xx_i2c.c ****   else 
 157:/home/rdu/Workspace/project_templates/mcu/stm32_ws/src/libraries/STM32F4xx_StdPeriph_Driver/src/stm32f4xx_i2c.c ****   {
 158:/home/rdu/Workspace/project_templates/mcu/stm32_ws/src/libraries/STM32F4xx_StdPeriph_Driver/src/stm32f4xx_i2c.c ****     if (I2Cx == I2C3)
 159:/home/rdu/Workspace/project_templates/mcu/stm32_ws/src/libraries/STM32F4xx_StdPeriph_Driver/src/stm32f4xx_i2c.c ****     {
 160:/home/rdu/Workspace/project_templates/mcu/stm32_ws/src/libraries/STM32F4xx_StdPeriph_Driver/src/stm32f4xx_i2c.c ****       /* Enable I2C3 reset state */
 161:/home/rdu/Workspace/project_templates/mcu/stm32_ws/src/libraries/STM32F4xx_StdPeriph_Driver/src/stm32f4xx_i2c.c ****       RCC_APB1PeriphResetCmd(RCC_APB1Periph_I2C3, ENABLE);
 162:/home/rdu/Workspace/project_templates/mcu/stm32_ws/src/libraries/STM32F4xx_StdPeriph_Driver/src/stm32f4xx_i2c.c ****       /* Release I2C3 from reset state */
 163:/home/rdu/Workspace/project_templates/mcu/stm32_ws/src/libraries/STM32F4xx_StdPeriph_Driver/src/stm32f4xx_i2c.c ****       RCC_APB1PeriphResetCmd(RCC_APB1Periph_I2C3, DISABLE);     
 164:/home/rdu/Workspace/project_templates/mcu/stm32_ws/src/libraries/STM32F4xx_StdPeriph_Driver/src/stm32f4xx_i2c.c ****     }
 165:/home/rdu/Workspace/project_templates/mcu/stm32_ws/src/libraries/STM32F4xx_StdPeriph_Driver/src/stm32f4xx_i2c.c ****   }
 166:/home/rdu/Workspace/project_templates/mcu/stm32_ws/src/libraries/STM32F4xx_StdPeriph_Driver/src/stm32f4xx_i2c.c **** }
  51              		.loc 1 166 0
  52 0022 1CE0     		b	.L5
  53              	.L2:
 149:/home/rdu/Workspace/project_templates/mcu/stm32_ws/src/libraries/STM32F4xx_StdPeriph_Driver/src/stm32f4xx_i2c.c ****   {
  54              		.loc 1 149 0
  55 0024 019B     		ldr	r3, [sp, #4]
  56 0026 114A     		ldr	r2, .L6+4
  57 0028 9342     		cmp	r3, r2
  58 002a 0AD1     		bne	.L4
 152:/home/rdu/Workspace/project_templates/mcu/stm32_ws/src/libraries/STM32F4xx_StdPeriph_Driver/src/stm32f4xx_i2c.c ****     /* Release I2C2 from reset state */
  59              		.loc 1 152 0
  60 002c 0121     		movs	r1, #1
  61 002e 4FF48000 		mov	r0, #4194304
  62 0032 FFF7FEFF 		bl	RCC_APB1PeriphResetCmd
 154:/home/rdu/Workspace/project_templates/mcu/stm32_ws/src/libraries/STM32F4xx_StdPeriph_Driver/src/stm32f4xx_i2c.c ****   }
  63              		.loc 1 154 0
  64 0036 0021     		movs	r1, #0
  65 0038 4FF48000 		mov	r0, #4194304
  66 003c FFF7FEFF 		bl	RCC_APB1PeriphResetCmd
  67              		.loc 1 166 0
  68 0040 0DE0     		b	.L5
  69              	.L4:
 158:/home/rdu/Workspace/project_templates/mcu/stm32_ws/src/libraries/STM32F4xx_StdPeriph_Driver/src/stm32f4xx_i2c.c ****     {
  70              		.loc 1 158 0
  71 0042 019B     		ldr	r3, [sp, #4]
  72 0044 0A4A     		ldr	r2, .L6+8
  73 0046 9342     		cmp	r3, r2
  74 0048 09D1     		bne	.L5
 161:/home/rdu/Workspace/project_templates/mcu/stm32_ws/src/libraries/STM32F4xx_StdPeriph_Driver/src/stm32f4xx_i2c.c ****       /* Release I2C3 from reset state */
  75              		.loc 1 161 0
  76 004a 0121     		movs	r1, #1
  77 004c 4FF40000 		mov	r0, #8388608
  78 0050 FFF7FEFF 		bl	RCC_APB1PeriphResetCmd
 163:/home/rdu/Workspace/project_templates/mcu/stm32_ws/src/libraries/STM32F4xx_StdPeriph_Driver/src/stm32f4xx_i2c.c ****     }
  79              		.loc 1 163 0
  80 0054 0021     		movs	r1, #0
  81 0056 4FF40000 		mov	r0, #8388608
  82 005a FFF7FEFF 		bl	RCC_APB1PeriphResetCmd
  83              	.L5:
  84              		.loc 1 166 0
  85 005e 00BF     		nop
  86 0060 03B0     		add	sp, sp, #12
  87              	.LCFI2:
  88              		.cfi_def_cfa_offset 4
  89              		@ sp needed
  90 0062 5DF804FB 		ldr	pc, [sp], #4
  91              	.L7:
  92 0066 00BF     		.align	2
  93              	.L6:
  94 0068 00540040 		.word	1073763328
  95 006c 00580040 		.word	1073764352
  96 0070 005C0040 		.word	1073765376
  97              		.cfi_endproc
  98              	.LFE123:
 100              		.section	.text.I2C_Init,"ax",%progbits
 101              		.align	1
 102              		.global	I2C_Init
 103              		.syntax unified
 104              		.thumb
 105              		.thumb_func
 106              		.fpu fpv4-sp-d16
 108              	I2C_Init:
 109              	.LFB124:
 167:/home/rdu/Workspace/project_templates/mcu/stm32_ws/src/libraries/STM32F4xx_StdPeriph_Driver/src/stm32f4xx_i2c.c **** 
 168:/home/rdu/Workspace/project_templates/mcu/stm32_ws/src/libraries/STM32F4xx_StdPeriph_Driver/src/stm32f4xx_i2c.c **** /**
 169:/home/rdu/Workspace/project_templates/mcu/stm32_ws/src/libraries/STM32F4xx_StdPeriph_Driver/src/stm32f4xx_i2c.c ****   * @brief  Initializes the I2Cx peripheral according to the specified 
 170:/home/rdu/Workspace/project_templates/mcu/stm32_ws/src/libraries/STM32F4xx_StdPeriph_Driver/src/stm32f4xx_i2c.c ****   *         parameters in the I2C_InitStruct.
 171:/home/rdu/Workspace/project_templates/mcu/stm32_ws/src/libraries/STM32F4xx_StdPeriph_Driver/src/stm32f4xx_i2c.c ****   *           
 172:/home/rdu/Workspace/project_templates/mcu/stm32_ws/src/libraries/STM32F4xx_StdPeriph_Driver/src/stm32f4xx_i2c.c ****   * @note   To use the I2C at 400 KHz (in fast mode), the PCLK1 frequency 
 173:/home/rdu/Workspace/project_templates/mcu/stm32_ws/src/libraries/STM32F4xx_StdPeriph_Driver/src/stm32f4xx_i2c.c ****   *         (I2C peripheral input clock) must be a multiple of 10 MHz.  
 174:/home/rdu/Workspace/project_templates/mcu/stm32_ws/src/libraries/STM32F4xx_StdPeriph_Driver/src/stm32f4xx_i2c.c ****   *           
 175:/home/rdu/Workspace/project_templates/mcu/stm32_ws/src/libraries/STM32F4xx_StdPeriph_Driver/src/stm32f4xx_i2c.c ****   * @param  I2Cx: where x can be 1, 2 or 3 to select the I2C peripheral.
 176:/home/rdu/Workspace/project_templates/mcu/stm32_ws/src/libraries/STM32F4xx_StdPeriph_Driver/src/stm32f4xx_i2c.c ****   * @param  I2C_InitStruct: pointer to a I2C_InitTypeDef structure that contains 
 177:/home/rdu/Workspace/project_templates/mcu/stm32_ws/src/libraries/STM32F4xx_StdPeriph_Driver/src/stm32f4xx_i2c.c ****   *         the configuration information for the specified I2C peripheral.
 178:/home/rdu/Workspace/project_templates/mcu/stm32_ws/src/libraries/STM32F4xx_StdPeriph_Driver/src/stm32f4xx_i2c.c ****   * @retval None
 179:/home/rdu/Workspace/project_templates/mcu/stm32_ws/src/libraries/STM32F4xx_StdPeriph_Driver/src/stm32f4xx_i2c.c ****   */
 180:/home/rdu/Workspace/project_templates/mcu/stm32_ws/src/libraries/STM32F4xx_StdPeriph_Driver/src/stm32f4xx_i2c.c **** void I2C_Init(I2C_TypeDef* I2Cx, I2C_InitTypeDef* I2C_InitStruct)
 181:/home/rdu/Workspace/project_templates/mcu/stm32_ws/src/libraries/STM32F4xx_StdPeriph_Driver/src/stm32f4xx_i2c.c **** {
 110              		.loc 1 181 0
 111              		.cfi_startproc
 112              		@ args = 0, pretend = 0, frame = 40
 113              		@ frame_needed = 0, uses_anonymous_args = 0
 114 0000 00B5     		push	{lr}
 115              	.LCFI3:
 116              		.cfi_def_cfa_offset 4
 117              		.cfi_offset 14, -4
 118 0002 8BB0     		sub	sp, sp, #44
 119              	.LCFI4:
 120              		.cfi_def_cfa_offset 48
 121 0004 0190     		str	r0, [sp, #4]
 122 0006 0091     		str	r1, [sp]
 182:/home/rdu/Workspace/project_templates/mcu/stm32_ws/src/libraries/STM32F4xx_StdPeriph_Driver/src/stm32f4xx_i2c.c ****   uint16_t tmpreg = 0, freqrange = 0;
 123              		.loc 1 182 0
 124 0008 0023     		movs	r3, #0
 125 000a ADF82630 		strh	r3, [sp, #38]	@ movhi
 126 000e 0023     		movs	r3, #0
 127 0010 ADF82230 		strh	r3, [sp, #34]	@ movhi
 183:/home/rdu/Workspace/project_templates/mcu/stm32_ws/src/libraries/STM32F4xx_StdPeriph_Driver/src/stm32f4xx_i2c.c ****   uint16_t result = 0x04;
 128              		.loc 1 183 0
 129 0014 0423     		movs	r3, #4
 130 0016 ADF82430 		strh	r3, [sp, #36]	@ movhi
 184:/home/rdu/Workspace/project_templates/mcu/stm32_ws/src/libraries/STM32F4xx_StdPeriph_Driver/src/stm32f4xx_i2c.c ****   uint32_t pclk1 = 8000000;
 131              		.loc 1 184 0
 132 001a 684B     		ldr	r3, .L15
 133 001c 0793     		str	r3, [sp, #28]
 185:/home/rdu/Workspace/project_templates/mcu/stm32_ws/src/libraries/STM32F4xx_StdPeriph_Driver/src/stm32f4xx_i2c.c ****   RCC_ClocksTypeDef  rcc_clocks;
 186:/home/rdu/Workspace/project_templates/mcu/stm32_ws/src/libraries/STM32F4xx_StdPeriph_Driver/src/stm32f4xx_i2c.c ****   /* Check the parameters */
 187:/home/rdu/Workspace/project_templates/mcu/stm32_ws/src/libraries/STM32F4xx_StdPeriph_Driver/src/stm32f4xx_i2c.c ****   assert_param(IS_I2C_ALL_PERIPH(I2Cx));
 188:/home/rdu/Workspace/project_templates/mcu/stm32_ws/src/libraries/STM32F4xx_StdPeriph_Driver/src/stm32f4xx_i2c.c ****   assert_param(IS_I2C_CLOCK_SPEED(I2C_InitStruct->I2C_ClockSpeed));
 189:/home/rdu/Workspace/project_templates/mcu/stm32_ws/src/libraries/STM32F4xx_StdPeriph_Driver/src/stm32f4xx_i2c.c ****   assert_param(IS_I2C_MODE(I2C_InitStruct->I2C_Mode));
 190:/home/rdu/Workspace/project_templates/mcu/stm32_ws/src/libraries/STM32F4xx_StdPeriph_Driver/src/stm32f4xx_i2c.c ****   assert_param(IS_I2C_DUTY_CYCLE(I2C_InitStruct->I2C_DutyCycle));
 191:/home/rdu/Workspace/project_templates/mcu/stm32_ws/src/libraries/STM32F4xx_StdPeriph_Driver/src/stm32f4xx_i2c.c ****   assert_param(IS_I2C_OWN_ADDRESS1(I2C_InitStruct->I2C_OwnAddress1));
 192:/home/rdu/Workspace/project_templates/mcu/stm32_ws/src/libraries/STM32F4xx_StdPeriph_Driver/src/stm32f4xx_i2c.c ****   assert_param(IS_I2C_ACK_STATE(I2C_InitStruct->I2C_Ack));
 193:/home/rdu/Workspace/project_templates/mcu/stm32_ws/src/libraries/STM32F4xx_StdPeriph_Driver/src/stm32f4xx_i2c.c ****   assert_param(IS_I2C_ACKNOWLEDGE_ADDRESS(I2C_InitStruct->I2C_AcknowledgedAddress));
 194:/home/rdu/Workspace/project_templates/mcu/stm32_ws/src/libraries/STM32F4xx_StdPeriph_Driver/src/stm32f4xx_i2c.c **** 
 195:/home/rdu/Workspace/project_templates/mcu/stm32_ws/src/libraries/STM32F4xx_StdPeriph_Driver/src/stm32f4xx_i2c.c **** /*---------------------------- I2Cx CR2 Configuration ------------------------*/
 196:/home/rdu/Workspace/project_templates/mcu/stm32_ws/src/libraries/STM32F4xx_StdPeriph_Driver/src/stm32f4xx_i2c.c ****   /* Get the I2Cx CR2 value */
 197:/home/rdu/Workspace/project_templates/mcu/stm32_ws/src/libraries/STM32F4xx_StdPeriph_Driver/src/stm32f4xx_i2c.c ****   tmpreg = I2Cx->CR2;
 134              		.loc 1 197 0
 135 001e 019B     		ldr	r3, [sp, #4]
 136 0020 9B88     		ldrh	r3, [r3, #4]	@ movhi
 137 0022 ADF82630 		strh	r3, [sp, #38]	@ movhi
 198:/home/rdu/Workspace/project_templates/mcu/stm32_ws/src/libraries/STM32F4xx_StdPeriph_Driver/src/stm32f4xx_i2c.c ****   /* Clear frequency FREQ[5:0] bits */
 199:/home/rdu/Workspace/project_templates/mcu/stm32_ws/src/libraries/STM32F4xx_StdPeriph_Driver/src/stm32f4xx_i2c.c ****   tmpreg &= (uint16_t)~((uint16_t)I2C_CR2_FREQ);
 138              		.loc 1 199 0
 139 0026 BDF82630 		ldrh	r3, [sp, #38]	@ movhi
 140 002a 23F03F03 		bic	r3, r3, #63
 141 002e ADF82630 		strh	r3, [sp, #38]	@ movhi
 200:/home/rdu/Workspace/project_templates/mcu/stm32_ws/src/libraries/STM32F4xx_StdPeriph_Driver/src/stm32f4xx_i2c.c ****   /* Get pclk1 frequency value */
 201:/home/rdu/Workspace/project_templates/mcu/stm32_ws/src/libraries/STM32F4xx_StdPeriph_Driver/src/stm32f4xx_i2c.c ****   RCC_GetClocksFreq(&rcc_clocks);
 142              		.loc 1 201 0
 143 0032 03AB     		add	r3, sp, #12
 144 0034 1846     		mov	r0, r3
 145 0036 FFF7FEFF 		bl	RCC_GetClocksFreq
 202:/home/rdu/Workspace/project_templates/mcu/stm32_ws/src/libraries/STM32F4xx_StdPeriph_Driver/src/stm32f4xx_i2c.c ****   pclk1 = rcc_clocks.PCLK1_Frequency;
 146              		.loc 1 202 0
 147 003a 059B     		ldr	r3, [sp, #20]
 148 003c 0793     		str	r3, [sp, #28]
 203:/home/rdu/Workspace/project_templates/mcu/stm32_ws/src/libraries/STM32F4xx_StdPeriph_Driver/src/stm32f4xx_i2c.c ****   /* Set frequency bits depending on pclk1 value */
 204:/home/rdu/Workspace/project_templates/mcu/stm32_ws/src/libraries/STM32F4xx_StdPeriph_Driver/src/stm32f4xx_i2c.c ****   freqrange = (uint16_t)(pclk1 / 1000000);
 149              		.loc 1 204 0
 150 003e 079B     		ldr	r3, [sp, #28]
 151 0040 5F4A     		ldr	r2, .L15+4
 152 0042 A2FB0323 		umull	r2, r3, r2, r3
 153 0046 9B0C     		lsrs	r3, r3, #18
 154 0048 ADF82230 		strh	r3, [sp, #34]	@ movhi
 205:/home/rdu/Workspace/project_templates/mcu/stm32_ws/src/libraries/STM32F4xx_StdPeriph_Driver/src/stm32f4xx_i2c.c ****   tmpreg |= freqrange;
 155              		.loc 1 205 0
 156 004c BDF82620 		ldrh	r2, [sp, #38]	@ movhi
 157 0050 BDF82230 		ldrh	r3, [sp, #34]	@ movhi
 158 0054 1343     		orrs	r3, r3, r2
 159 0056 ADF82630 		strh	r3, [sp, #38]	@ movhi
 206:/home/rdu/Workspace/project_templates/mcu/stm32_ws/src/libraries/STM32F4xx_StdPeriph_Driver/src/stm32f4xx_i2c.c ****   /* Write to I2Cx CR2 */
 207:/home/rdu/Workspace/project_templates/mcu/stm32_ws/src/libraries/STM32F4xx_StdPeriph_Driver/src/stm32f4xx_i2c.c ****   I2Cx->CR2 = tmpreg;
 160              		.loc 1 207 0
 161 005a 019B     		ldr	r3, [sp, #4]
 162 005c BDF82620 		ldrh	r2, [sp, #38]	@ movhi
 163 0060 9A80     		strh	r2, [r3, #4]	@ movhi
 208:/home/rdu/Workspace/project_templates/mcu/stm32_ws/src/libraries/STM32F4xx_StdPeriph_Driver/src/stm32f4xx_i2c.c **** 
 209:/home/rdu/Workspace/project_templates/mcu/stm32_ws/src/libraries/STM32F4xx_StdPeriph_Driver/src/stm32f4xx_i2c.c **** /*---------------------------- I2Cx CCR Configuration ------------------------*/
 210:/home/rdu/Workspace/project_templates/mcu/stm32_ws/src/libraries/STM32F4xx_StdPeriph_Driver/src/stm32f4xx_i2c.c ****   /* Disable the selected I2C peripheral to configure TRISE */
 211:/home/rdu/Workspace/project_templates/mcu/stm32_ws/src/libraries/STM32F4xx_StdPeriph_Driver/src/stm32f4xx_i2c.c ****   I2Cx->CR1 &= (uint16_t)~((uint16_t)I2C_CR1_PE);
 164              		.loc 1 211 0
 165 0062 019B     		ldr	r3, [sp, #4]
 166 0064 1B88     		ldrh	r3, [r3]	@ movhi
 167 0066 9BB2     		uxth	r3, r3
 168 0068 23F00103 		bic	r3, r3, #1
 169 006c 9AB2     		uxth	r2, r3
 170 006e 019B     		ldr	r3, [sp, #4]
 171 0070 1A80     		strh	r2, [r3]	@ movhi
 212:/home/rdu/Workspace/project_templates/mcu/stm32_ws/src/libraries/STM32F4xx_StdPeriph_Driver/src/stm32f4xx_i2c.c ****   /* Reset tmpreg value */
 213:/home/rdu/Workspace/project_templates/mcu/stm32_ws/src/libraries/STM32F4xx_StdPeriph_Driver/src/stm32f4xx_i2c.c ****   /* Clear F/S, DUTY and CCR[11:0] bits */
 214:/home/rdu/Workspace/project_templates/mcu/stm32_ws/src/libraries/STM32F4xx_StdPeriph_Driver/src/stm32f4xx_i2c.c ****   tmpreg = 0;
 172              		.loc 1 214 0
 173 0072 0023     		movs	r3, #0
 174 0074 ADF82630 		strh	r3, [sp, #38]	@ movhi
 215:/home/rdu/Workspace/project_templates/mcu/stm32_ws/src/libraries/STM32F4xx_StdPeriph_Driver/src/stm32f4xx_i2c.c **** 
 216:/home/rdu/Workspace/project_templates/mcu/stm32_ws/src/libraries/STM32F4xx_StdPeriph_Driver/src/stm32f4xx_i2c.c ****   /* Configure speed in standard mode */
 217:/home/rdu/Workspace/project_templates/mcu/stm32_ws/src/libraries/STM32F4xx_StdPeriph_Driver/src/stm32f4xx_i2c.c ****   if (I2C_InitStruct->I2C_ClockSpeed <= 100000)
 175              		.loc 1 217 0
 176 0078 009B     		ldr	r3, [sp]
 177 007a 1B68     		ldr	r3, [r3]
 178 007c 514A     		ldr	r2, .L15+8
 179 007e 9342     		cmp	r3, r2
 180 0080 1CD8     		bhi	.L9
 218:/home/rdu/Workspace/project_templates/mcu/stm32_ws/src/libraries/STM32F4xx_StdPeriph_Driver/src/stm32f4xx_i2c.c ****   {
 219:/home/rdu/Workspace/project_templates/mcu/stm32_ws/src/libraries/STM32F4xx_StdPeriph_Driver/src/stm32f4xx_i2c.c ****     /* Standard mode speed calculate */
 220:/home/rdu/Workspace/project_templates/mcu/stm32_ws/src/libraries/STM32F4xx_StdPeriph_Driver/src/stm32f4xx_i2c.c ****     result = (uint16_t)(pclk1 / (I2C_InitStruct->I2C_ClockSpeed << 1));
 181              		.loc 1 220 0
 182 0082 009B     		ldr	r3, [sp]
 183 0084 1B68     		ldr	r3, [r3]
 184 0086 5B00     		lsls	r3, r3, #1
 185 0088 079A     		ldr	r2, [sp, #28]
 186 008a B2FBF3F3 		udiv	r3, r2, r3
 187 008e ADF82430 		strh	r3, [sp, #36]	@ movhi
 221:/home/rdu/Workspace/project_templates/mcu/stm32_ws/src/libraries/STM32F4xx_StdPeriph_Driver/src/stm32f4xx_i2c.c ****     /* Test if CCR value is under 0x4*/
 222:/home/rdu/Workspace/project_templates/mcu/stm32_ws/src/libraries/STM32F4xx_StdPeriph_Driver/src/stm32f4xx_i2c.c ****     if (result < 0x04)
 188              		.loc 1 222 0
 189 0092 BDF82430 		ldrh	r3, [sp, #36]
 190 0096 032B     		cmp	r3, #3
 191 0098 02D8     		bhi	.L10
 223:/home/rdu/Workspace/project_templates/mcu/stm32_ws/src/libraries/STM32F4xx_StdPeriph_Driver/src/stm32f4xx_i2c.c ****     {
 224:/home/rdu/Workspace/project_templates/mcu/stm32_ws/src/libraries/STM32F4xx_StdPeriph_Driver/src/stm32f4xx_i2c.c ****       /* Set minimum allowed value */
 225:/home/rdu/Workspace/project_templates/mcu/stm32_ws/src/libraries/STM32F4xx_StdPeriph_Driver/src/stm32f4xx_i2c.c ****       result = 0x04;  
 192              		.loc 1 225 0
 193 009a 0423     		movs	r3, #4
 194 009c ADF82430 		strh	r3, [sp, #36]	@ movhi
 195              	.L10:
 226:/home/rdu/Workspace/project_templates/mcu/stm32_ws/src/libraries/STM32F4xx_StdPeriph_Driver/src/stm32f4xx_i2c.c ****     }
 227:/home/rdu/Workspace/project_templates/mcu/stm32_ws/src/libraries/STM32F4xx_StdPeriph_Driver/src/stm32f4xx_i2c.c ****     /* Set speed value for standard mode */
 228:/home/rdu/Workspace/project_templates/mcu/stm32_ws/src/libraries/STM32F4xx_StdPeriph_Driver/src/stm32f4xx_i2c.c ****     tmpreg |= result;	  
 196              		.loc 1 228 0
 197 00a0 BDF82620 		ldrh	r2, [sp, #38]	@ movhi
 198 00a4 BDF82430 		ldrh	r3, [sp, #36]	@ movhi
 199 00a8 1343     		orrs	r3, r3, r2
 200 00aa ADF82630 		strh	r3, [sp, #38]	@ movhi
 229:/home/rdu/Workspace/project_templates/mcu/stm32_ws/src/libraries/STM32F4xx_StdPeriph_Driver/src/stm32f4xx_i2c.c ****     /* Set Maximum Rise Time for standard mode */
 230:/home/rdu/Workspace/project_templates/mcu/stm32_ws/src/libraries/STM32F4xx_StdPeriph_Driver/src/stm32f4xx_i2c.c ****     I2Cx->TRISE = freqrange + 1; 
 201              		.loc 1 230 0
 202 00ae BDF82230 		ldrh	r3, [sp, #34]	@ movhi
 203 00b2 0133     		adds	r3, r3, #1
 204 00b4 9AB2     		uxth	r2, r3
 205 00b6 019B     		ldr	r3, [sp, #4]
 206 00b8 1A84     		strh	r2, [r3, #32]	@ movhi
 207 00ba 4BE0     		b	.L11
 208              	.L9:
 231:/home/rdu/Workspace/project_templates/mcu/stm32_ws/src/libraries/STM32F4xx_StdPeriph_Driver/src/stm32f4xx_i2c.c ****   }
 232:/home/rdu/Workspace/project_templates/mcu/stm32_ws/src/libraries/STM32F4xx_StdPeriph_Driver/src/stm32f4xx_i2c.c ****   /* Configure speed in fast mode */
 233:/home/rdu/Workspace/project_templates/mcu/stm32_ws/src/libraries/STM32F4xx_StdPeriph_Driver/src/stm32f4xx_i2c.c ****   /* To use the I2C at 400 KHz (in fast mode), the PCLK1 frequency (I2C peripheral
 234:/home/rdu/Workspace/project_templates/mcu/stm32_ws/src/libraries/STM32F4xx_StdPeriph_Driver/src/stm32f4xx_i2c.c ****      input clock) must be a multiple of 10 MHz */
 235:/home/rdu/Workspace/project_templates/mcu/stm32_ws/src/libraries/STM32F4xx_StdPeriph_Driver/src/stm32f4xx_i2c.c ****   else /*(I2C_InitStruct->I2C_ClockSpeed <= 400000)*/
 236:/home/rdu/Workspace/project_templates/mcu/stm32_ws/src/libraries/STM32F4xx_StdPeriph_Driver/src/stm32f4xx_i2c.c ****   {
 237:/home/rdu/Workspace/project_templates/mcu/stm32_ws/src/libraries/STM32F4xx_StdPeriph_Driver/src/stm32f4xx_i2c.c ****     if (I2C_InitStruct->I2C_DutyCycle == I2C_DutyCycle_2)
 209              		.loc 1 237 0
 210 00bc 009B     		ldr	r3, [sp]
 211 00be DB88     		ldrh	r3, [r3, #6]
 212 00c0 4BF6FF72 		movw	r2, #49151
 213 00c4 9342     		cmp	r3, r2
 214 00c6 0AD1     		bne	.L12
 238:/home/rdu/Workspace/project_templates/mcu/stm32_ws/src/libraries/STM32F4xx_StdPeriph_Driver/src/stm32f4xx_i2c.c ****     {
 239:/home/rdu/Workspace/project_templates/mcu/stm32_ws/src/libraries/STM32F4xx_StdPeriph_Driver/src/stm32f4xx_i2c.c ****       /* Fast mode speed calculate: Tlow/Thigh = 2 */
 240:/home/rdu/Workspace/project_templates/mcu/stm32_ws/src/libraries/STM32F4xx_StdPeriph_Driver/src/stm32f4xx_i2c.c ****       result = (uint16_t)(pclk1 / (I2C_InitStruct->I2C_ClockSpeed * 3));
 215              		.loc 1 240 0
 216 00c8 009B     		ldr	r3, [sp]
 217 00ca 1A68     		ldr	r2, [r3]
 218 00cc 1346     		mov	r3, r2
 219 00ce 5B00     		lsls	r3, r3, #1
 220 00d0 1344     		add	r3, r3, r2
 221 00d2 079A     		ldr	r2, [sp, #28]
 222 00d4 B2FBF3F3 		udiv	r3, r2, r3
 223 00d8 ADF82430 		strh	r3, [sp, #36]	@ movhi
 224 00dc 11E0     		b	.L13
 225              	.L12:
 241:/home/rdu/Workspace/project_templates/mcu/stm32_ws/src/libraries/STM32F4xx_StdPeriph_Driver/src/stm32f4xx_i2c.c ****     }
 242:/home/rdu/Workspace/project_templates/mcu/stm32_ws/src/libraries/STM32F4xx_StdPeriph_Driver/src/stm32f4xx_i2c.c ****     else /*I2C_InitStruct->I2C_DutyCycle == I2C_DutyCycle_16_9*/
 243:/home/rdu/Workspace/project_templates/mcu/stm32_ws/src/libraries/STM32F4xx_StdPeriph_Driver/src/stm32f4xx_i2c.c ****     {
 244:/home/rdu/Workspace/project_templates/mcu/stm32_ws/src/libraries/STM32F4xx_StdPeriph_Driver/src/stm32f4xx_i2c.c ****       /* Fast mode speed calculate: Tlow/Thigh = 16/9 */
 245:/home/rdu/Workspace/project_templates/mcu/stm32_ws/src/libraries/STM32F4xx_StdPeriph_Driver/src/stm32f4xx_i2c.c ****       result = (uint16_t)(pclk1 / (I2C_InitStruct->I2C_ClockSpeed * 25));
 226              		.loc 1 245 0
 227 00de 009B     		ldr	r3, [sp]
 228 00e0 1A68     		ldr	r2, [r3]
 229 00e2 1346     		mov	r3, r2
 230 00e4 9B00     		lsls	r3, r3, #2
 231 00e6 1344     		add	r3, r3, r2
 232 00e8 9A00     		lsls	r2, r3, #2
 233 00ea 1344     		add	r3, r3, r2
 234 00ec 079A     		ldr	r2, [sp, #28]
 235 00ee B2FBF3F3 		udiv	r3, r2, r3
 236 00f2 ADF82430 		strh	r3, [sp, #36]	@ movhi
 246:/home/rdu/Workspace/project_templates/mcu/stm32_ws/src/libraries/STM32F4xx_StdPeriph_Driver/src/stm32f4xx_i2c.c ****       /* Set DUTY bit */
 247:/home/rdu/Workspace/project_templates/mcu/stm32_ws/src/libraries/STM32F4xx_StdPeriph_Driver/src/stm32f4xx_i2c.c ****       result |= I2C_DutyCycle_16_9;
 237              		.loc 1 247 0
 238 00f6 BDF82430 		ldrh	r3, [sp, #36]	@ movhi
 239 00fa 43F48043 		orr	r3, r3, #16384
 240 00fe ADF82430 		strh	r3, [sp, #36]	@ movhi
 241              	.L13:
 248:/home/rdu/Workspace/project_templates/mcu/stm32_ws/src/libraries/STM32F4xx_StdPeriph_Driver/src/stm32f4xx_i2c.c ****     }
 249:/home/rdu/Workspace/project_templates/mcu/stm32_ws/src/libraries/STM32F4xx_StdPeriph_Driver/src/stm32f4xx_i2c.c **** 
 250:/home/rdu/Workspace/project_templates/mcu/stm32_ws/src/libraries/STM32F4xx_StdPeriph_Driver/src/stm32f4xx_i2c.c ****     /* Test if CCR value is under 0x1*/
 251:/home/rdu/Workspace/project_templates/mcu/stm32_ws/src/libraries/STM32F4xx_StdPeriph_Driver/src/stm32f4xx_i2c.c ****     if ((result & I2C_CCR_CCR) == 0)
 242              		.loc 1 251 0
 243 0102 BDF82430 		ldrh	r3, [sp, #36]
 244 0106 C3F30B03 		ubfx	r3, r3, #0, #12
 245 010a 002B     		cmp	r3, #0
 246 010c 05D1     		bne	.L14
 252:/home/rdu/Workspace/project_templates/mcu/stm32_ws/src/libraries/STM32F4xx_StdPeriph_Driver/src/stm32f4xx_i2c.c ****     {
 253:/home/rdu/Workspace/project_templates/mcu/stm32_ws/src/libraries/STM32F4xx_StdPeriph_Driver/src/stm32f4xx_i2c.c ****       /* Set minimum allowed value */
 254:/home/rdu/Workspace/project_templates/mcu/stm32_ws/src/libraries/STM32F4xx_StdPeriph_Driver/src/stm32f4xx_i2c.c ****       result |= (uint16_t)0x0001;  
 247              		.loc 1 254 0
 248 010e BDF82430 		ldrh	r3, [sp, #36]	@ movhi
 249 0112 43F00103 		orr	r3, r3, #1
 250 0116 ADF82430 		strh	r3, [sp, #36]	@ movhi
 251              	.L14:
 255:/home/rdu/Workspace/project_templates/mcu/stm32_ws/src/libraries/STM32F4xx_StdPeriph_Driver/src/stm32f4xx_i2c.c ****     }
 256:/home/rdu/Workspace/project_templates/mcu/stm32_ws/src/libraries/STM32F4xx_StdPeriph_Driver/src/stm32f4xx_i2c.c ****     /* Set speed value and set F/S bit for fast mode */
 257:/home/rdu/Workspace/project_templates/mcu/stm32_ws/src/libraries/STM32F4xx_StdPeriph_Driver/src/stm32f4xx_i2c.c ****     tmpreg |= (uint16_t)(result | I2C_CCR_FS);
 252              		.loc 1 257 0
 253 011a BDF82420 		ldrh	r2, [sp, #36]	@ movhi
 254 011e BDF82630 		ldrh	r3, [sp, #38]	@ movhi
 255 0122 1343     		orrs	r3, r3, r2
 256 0124 9BB2     		uxth	r3, r3
 257 0126 6FEA4343 		mvn	r3, r3, lsl #17
 258 012a 6FEA5343 		mvn	r3, r3, lsr #17
 259 012e ADF82630 		strh	r3, [sp, #38]	@ movhi
 258:/home/rdu/Workspace/project_templates/mcu/stm32_ws/src/libraries/STM32F4xx_StdPeriph_Driver/src/stm32f4xx_i2c.c ****     /* Set Maximum Rise Time for fast mode */
 259:/home/rdu/Workspace/project_templates/mcu/stm32_ws/src/libraries/STM32F4xx_StdPeriph_Driver/src/stm32f4xx_i2c.c ****     I2Cx->TRISE = (uint16_t)(((freqrange * (uint16_t)300) / (uint16_t)1000) + (uint16_t)1);  
 260              		.loc 1 259 0
 261 0132 BDF82230 		ldrh	r3, [sp, #34]
 262 0136 4FF49672 		mov	r2, #300
 263 013a 02FB03F3 		mul	r3, r2, r3
 264 013e 224A     		ldr	r2, .L15+12
 265 0140 82FB0312 		smull	r1, r2, r2, r3
 266 0144 9211     		asrs	r2, r2, #6
 267 0146 DB17     		asrs	r3, r3, #31
 268 0148 D31A     		subs	r3, r2, r3
 269 014a 9BB2     		uxth	r3, r3
 270 014c 0133     		adds	r3, r3, #1
 271 014e 9AB2     		uxth	r2, r3
 272 0150 019B     		ldr	r3, [sp, #4]
 273 0152 1A84     		strh	r2, [r3, #32]	@ movhi
 274              	.L11:
 260:/home/rdu/Workspace/project_templates/mcu/stm32_ws/src/libraries/STM32F4xx_StdPeriph_Driver/src/stm32f4xx_i2c.c ****   }
 261:/home/rdu/Workspace/project_templates/mcu/stm32_ws/src/libraries/STM32F4xx_StdPeriph_Driver/src/stm32f4xx_i2c.c **** 
 262:/home/rdu/Workspace/project_templates/mcu/stm32_ws/src/libraries/STM32F4xx_StdPeriph_Driver/src/stm32f4xx_i2c.c ****   /* Write to I2Cx CCR */
 263:/home/rdu/Workspace/project_templates/mcu/stm32_ws/src/libraries/STM32F4xx_StdPeriph_Driver/src/stm32f4xx_i2c.c ****   I2Cx->CCR = tmpreg;
 275              		.loc 1 263 0
 276 0154 019B     		ldr	r3, [sp, #4]
 277 0156 BDF82620 		ldrh	r2, [sp, #38]	@ movhi
 278 015a 9A83     		strh	r2, [r3, #28]	@ movhi
 264:/home/rdu/Workspace/project_templates/mcu/stm32_ws/src/libraries/STM32F4xx_StdPeriph_Driver/src/stm32f4xx_i2c.c ****   /* Enable the selected I2C peripheral */
 265:/home/rdu/Workspace/project_templates/mcu/stm32_ws/src/libraries/STM32F4xx_StdPeriph_Driver/src/stm32f4xx_i2c.c ****   I2Cx->CR1 |= I2C_CR1_PE;
 279              		.loc 1 265 0
 280 015c 019B     		ldr	r3, [sp, #4]
 281 015e 1B88     		ldrh	r3, [r3]	@ movhi
 282 0160 9BB2     		uxth	r3, r3
 283 0162 43F00103 		orr	r3, r3, #1
 284 0166 9AB2     		uxth	r2, r3
 285 0168 019B     		ldr	r3, [sp, #4]
 286 016a 1A80     		strh	r2, [r3]	@ movhi
 266:/home/rdu/Workspace/project_templates/mcu/stm32_ws/src/libraries/STM32F4xx_StdPeriph_Driver/src/stm32f4xx_i2c.c **** 
 267:/home/rdu/Workspace/project_templates/mcu/stm32_ws/src/libraries/STM32F4xx_StdPeriph_Driver/src/stm32f4xx_i2c.c **** /*---------------------------- I2Cx CR1 Configuration ------------------------*/
 268:/home/rdu/Workspace/project_templates/mcu/stm32_ws/src/libraries/STM32F4xx_StdPeriph_Driver/src/stm32f4xx_i2c.c ****   /* Get the I2Cx CR1 value */
 269:/home/rdu/Workspace/project_templates/mcu/stm32_ws/src/libraries/STM32F4xx_StdPeriph_Driver/src/stm32f4xx_i2c.c ****   tmpreg = I2Cx->CR1;
 287              		.loc 1 269 0
 288 016c 019B     		ldr	r3, [sp, #4]
 289 016e 1B88     		ldrh	r3, [r3]	@ movhi
 290 0170 ADF82630 		strh	r3, [sp, #38]	@ movhi
 270:/home/rdu/Workspace/project_templates/mcu/stm32_ws/src/libraries/STM32F4xx_StdPeriph_Driver/src/stm32f4xx_i2c.c ****   /* Clear ACK, SMBTYPE and  SMBUS bits */
 271:/home/rdu/Workspace/project_templates/mcu/stm32_ws/src/libraries/STM32F4xx_StdPeriph_Driver/src/stm32f4xx_i2c.c ****   tmpreg &= CR1_CLEAR_MASK;
 291              		.loc 1 271 0
 292 0174 BDF82630 		ldrh	r3, [sp, #38]	@ movhi
 293 0178 23F48163 		bic	r3, r3, #1032
 294 017c 23F00203 		bic	r3, r3, #2
 295 0180 ADF82630 		strh	r3, [sp, #38]	@ movhi
 272:/home/rdu/Workspace/project_templates/mcu/stm32_ws/src/libraries/STM32F4xx_StdPeriph_Driver/src/stm32f4xx_i2c.c ****   /* Configure I2Cx: mode and acknowledgement */
 273:/home/rdu/Workspace/project_templates/mcu/stm32_ws/src/libraries/STM32F4xx_StdPeriph_Driver/src/stm32f4xx_i2c.c ****   /* Set SMBTYPE and SMBUS bits according to I2C_Mode value */
 274:/home/rdu/Workspace/project_templates/mcu/stm32_ws/src/libraries/STM32F4xx_StdPeriph_Driver/src/stm32f4xx_i2c.c ****   /* Set ACK bit according to I2C_Ack value */
 275:/home/rdu/Workspace/project_templates/mcu/stm32_ws/src/libraries/STM32F4xx_StdPeriph_Driver/src/stm32f4xx_i2c.c ****   tmpreg |= (uint16_t)((uint32_t)I2C_InitStruct->I2C_Mode | I2C_InitStruct->I2C_Ack);
 296              		.loc 1 275 0
 297 0184 009B     		ldr	r3, [sp]
 298 0186 9A88     		ldrh	r2, [r3, #4]
 299 0188 009B     		ldr	r3, [sp]
 300 018a 5B89     		ldrh	r3, [r3, #10]
 301 018c 1343     		orrs	r3, r3, r2
 302 018e 9AB2     		uxth	r2, r3
 303 0190 BDF82630 		ldrh	r3, [sp, #38]	@ movhi
 304 0194 1343     		orrs	r3, r3, r2
 305 0196 ADF82630 		strh	r3, [sp, #38]	@ movhi
 276:/home/rdu/Workspace/project_templates/mcu/stm32_ws/src/libraries/STM32F4xx_StdPeriph_Driver/src/stm32f4xx_i2c.c ****   /* Write to I2Cx CR1 */
 277:/home/rdu/Workspace/project_templates/mcu/stm32_ws/src/libraries/STM32F4xx_StdPeriph_Driver/src/stm32f4xx_i2c.c ****   I2Cx->CR1 = tmpreg;
 306              		.loc 1 277 0
 307 019a 019B     		ldr	r3, [sp, #4]
 308 019c BDF82620 		ldrh	r2, [sp, #38]	@ movhi
 309 01a0 1A80     		strh	r2, [r3]	@ movhi
 278:/home/rdu/Workspace/project_templates/mcu/stm32_ws/src/libraries/STM32F4xx_StdPeriph_Driver/src/stm32f4xx_i2c.c **** 
 279:/home/rdu/Workspace/project_templates/mcu/stm32_ws/src/libraries/STM32F4xx_StdPeriph_Driver/src/stm32f4xx_i2c.c **** /*---------------------------- I2Cx OAR1 Configuration -----------------------*/
 280:/home/rdu/Workspace/project_templates/mcu/stm32_ws/src/libraries/STM32F4xx_StdPeriph_Driver/src/stm32f4xx_i2c.c ****   /* Set I2Cx Own Address1 and acknowledged address */
 281:/home/rdu/Workspace/project_templates/mcu/stm32_ws/src/libraries/STM32F4xx_StdPeriph_Driver/src/stm32f4xx_i2c.c ****   I2Cx->OAR1 = (I2C_InitStruct->I2C_AcknowledgedAddress | I2C_InitStruct->I2C_OwnAddress1);
 310              		.loc 1 281 0
 311 01a2 009B     		ldr	r3, [sp]
 312 01a4 9A89     		ldrh	r2, [r3, #12]
 313 01a6 009B     		ldr	r3, [sp]
 314 01a8 1B89     		ldrh	r3, [r3, #8]
 315 01aa 1343     		orrs	r3, r3, r2
 316 01ac 9AB2     		uxth	r2, r3
 317 01ae 019B     		ldr	r3, [sp, #4]
 318 01b0 1A81     		strh	r2, [r3, #8]	@ movhi
 282:/home/rdu/Workspace/project_templates/mcu/stm32_ws/src/libraries/STM32F4xx_StdPeriph_Driver/src/stm32f4xx_i2c.c **** }
 319              		.loc 1 282 0
 320 01b2 00BF     		nop
 321 01b4 0BB0     		add	sp, sp, #44
 322              	.LCFI5:
 323              		.cfi_def_cfa_offset 4
 324              		@ sp needed
 325 01b6 5DF804FB 		ldr	pc, [sp], #4
 326              	.L16:
 327 01ba 00BF     		.align	2
 328              	.L15:
 329 01bc 00127A00 		.word	8000000
 330 01c0 83DE1B43 		.word	1125899907
 331 01c4 A0860100 		.word	100000
 332 01c8 D34D6210 		.word	274877907
 333              		.cfi_endproc
 334              	.LFE124:
 336              		.section	.text.I2C_StructInit,"ax",%progbits
 337              		.align	1
 338              		.global	I2C_StructInit
 339              		.syntax unified
 340              		.thumb
 341              		.thumb_func
 342              		.fpu fpv4-sp-d16
 344              	I2C_StructInit:
 345              	.LFB125:
 283:/home/rdu/Workspace/project_templates/mcu/stm32_ws/src/libraries/STM32F4xx_StdPeriph_Driver/src/stm32f4xx_i2c.c **** 
 284:/home/rdu/Workspace/project_templates/mcu/stm32_ws/src/libraries/STM32F4xx_StdPeriph_Driver/src/stm32f4xx_i2c.c **** /**
 285:/home/rdu/Workspace/project_templates/mcu/stm32_ws/src/libraries/STM32F4xx_StdPeriph_Driver/src/stm32f4xx_i2c.c ****   * @brief  Fills each I2C_InitStruct member with its default value.
 286:/home/rdu/Workspace/project_templates/mcu/stm32_ws/src/libraries/STM32F4xx_StdPeriph_Driver/src/stm32f4xx_i2c.c ****   * @param  I2C_InitStruct: pointer to an I2C_InitTypeDef structure which will be initialized.
 287:/home/rdu/Workspace/project_templates/mcu/stm32_ws/src/libraries/STM32F4xx_StdPeriph_Driver/src/stm32f4xx_i2c.c ****   * @retval None
 288:/home/rdu/Workspace/project_templates/mcu/stm32_ws/src/libraries/STM32F4xx_StdPeriph_Driver/src/stm32f4xx_i2c.c ****   */
 289:/home/rdu/Workspace/project_templates/mcu/stm32_ws/src/libraries/STM32F4xx_StdPeriph_Driver/src/stm32f4xx_i2c.c **** void I2C_StructInit(I2C_InitTypeDef* I2C_InitStruct)
 290:/home/rdu/Workspace/project_templates/mcu/stm32_ws/src/libraries/STM32F4xx_StdPeriph_Driver/src/stm32f4xx_i2c.c **** {
 346              		.loc 1 290 0
 347              		.cfi_startproc
 348              		@ args = 0, pretend = 0, frame = 8
 349              		@ frame_needed = 0, uses_anonymous_args = 0
 350              		@ link register save eliminated.
 351 0000 82B0     		sub	sp, sp, #8
 352              	.LCFI6:
 353              		.cfi_def_cfa_offset 8
 354 0002 0190     		str	r0, [sp, #4]
 291:/home/rdu/Workspace/project_templates/mcu/stm32_ws/src/libraries/STM32F4xx_StdPeriph_Driver/src/stm32f4xx_i2c.c **** /*---------------- Reset I2C init structure parameters values ----------------*/
 292:/home/rdu/Workspace/project_templates/mcu/stm32_ws/src/libraries/STM32F4xx_StdPeriph_Driver/src/stm32f4xx_i2c.c ****   /* initialize the I2C_ClockSpeed member */
 293:/home/rdu/Workspace/project_templates/mcu/stm32_ws/src/libraries/STM32F4xx_StdPeriph_Driver/src/stm32f4xx_i2c.c ****   I2C_InitStruct->I2C_ClockSpeed = 5000;
 355              		.loc 1 293 0
 356 0004 019B     		ldr	r3, [sp, #4]
 357 0006 41F28832 		movw	r2, #5000
 358 000a 1A60     		str	r2, [r3]
 294:/home/rdu/Workspace/project_templates/mcu/stm32_ws/src/libraries/STM32F4xx_StdPeriph_Driver/src/stm32f4xx_i2c.c ****   /* Initialize the I2C_Mode member */
 295:/home/rdu/Workspace/project_templates/mcu/stm32_ws/src/libraries/STM32F4xx_StdPeriph_Driver/src/stm32f4xx_i2c.c ****   I2C_InitStruct->I2C_Mode = I2C_Mode_I2C;
 359              		.loc 1 295 0
 360 000c 019B     		ldr	r3, [sp, #4]
 361 000e 0022     		movs	r2, #0
 362 0010 9A80     		strh	r2, [r3, #4]	@ movhi
 296:/home/rdu/Workspace/project_templates/mcu/stm32_ws/src/libraries/STM32F4xx_StdPeriph_Driver/src/stm32f4xx_i2c.c ****   /* Initialize the I2C_DutyCycle member */
 297:/home/rdu/Workspace/project_templates/mcu/stm32_ws/src/libraries/STM32F4xx_StdPeriph_Driver/src/stm32f4xx_i2c.c ****   I2C_InitStruct->I2C_DutyCycle = I2C_DutyCycle_2;
 363              		.loc 1 297 0
 364 0012 019B     		ldr	r3, [sp, #4]
 365 0014 4BF6FF72 		movw	r2, #49151
 366 0018 DA80     		strh	r2, [r3, #6]	@ movhi
 298:/home/rdu/Workspace/project_templates/mcu/stm32_ws/src/libraries/STM32F4xx_StdPeriph_Driver/src/stm32f4xx_i2c.c ****   /* Initialize the I2C_OwnAddress1 member */
 299:/home/rdu/Workspace/project_templates/mcu/stm32_ws/src/libraries/STM32F4xx_StdPeriph_Driver/src/stm32f4xx_i2c.c ****   I2C_InitStruct->I2C_OwnAddress1 = 0;
 367              		.loc 1 299 0
 368 001a 019B     		ldr	r3, [sp, #4]
 369 001c 0022     		movs	r2, #0
 370 001e 1A81     		strh	r2, [r3, #8]	@ movhi
 300:/home/rdu/Workspace/project_templates/mcu/stm32_ws/src/libraries/STM32F4xx_StdPeriph_Driver/src/stm32f4xx_i2c.c ****   /* Initialize the I2C_Ack member */
 301:/home/rdu/Workspace/project_templates/mcu/stm32_ws/src/libraries/STM32F4xx_StdPeriph_Driver/src/stm32f4xx_i2c.c ****   I2C_InitStruct->I2C_Ack = I2C_Ack_Disable;
 371              		.loc 1 301 0
 372 0020 019B     		ldr	r3, [sp, #4]
 373 0022 0022     		movs	r2, #0
 374 0024 5A81     		strh	r2, [r3, #10]	@ movhi
 302:/home/rdu/Workspace/project_templates/mcu/stm32_ws/src/libraries/STM32F4xx_StdPeriph_Driver/src/stm32f4xx_i2c.c ****   /* Initialize the I2C_AcknowledgedAddress member */
 303:/home/rdu/Workspace/project_templates/mcu/stm32_ws/src/libraries/STM32F4xx_StdPeriph_Driver/src/stm32f4xx_i2c.c ****   I2C_InitStruct->I2C_AcknowledgedAddress = I2C_AcknowledgedAddress_7bit;
 375              		.loc 1 303 0
 376 0026 019B     		ldr	r3, [sp, #4]
 377 0028 4FF48042 		mov	r2, #16384
 378 002c 9A81     		strh	r2, [r3, #12]	@ movhi
 304:/home/rdu/Workspace/project_templates/mcu/stm32_ws/src/libraries/STM32F4xx_StdPeriph_Driver/src/stm32f4xx_i2c.c **** }
 379              		.loc 1 304 0
 380 002e 00BF     		nop
 381 0030 02B0     		add	sp, sp, #8
 382              	.LCFI7:
 383              		.cfi_def_cfa_offset 0
 384              		@ sp needed
 385 0032 7047     		bx	lr
 386              		.cfi_endproc
 387              	.LFE125:
 389              		.section	.text.I2C_Cmd,"ax",%progbits
 390              		.align	1
 391              		.global	I2C_Cmd
 392              		.syntax unified
 393              		.thumb
 394              		.thumb_func
 395              		.fpu fpv4-sp-d16
 397              	I2C_Cmd:
 398              	.LFB126:
 305:/home/rdu/Workspace/project_templates/mcu/stm32_ws/src/libraries/STM32F4xx_StdPeriph_Driver/src/stm32f4xx_i2c.c **** 
 306:/home/rdu/Workspace/project_templates/mcu/stm32_ws/src/libraries/STM32F4xx_StdPeriph_Driver/src/stm32f4xx_i2c.c **** /**
 307:/home/rdu/Workspace/project_templates/mcu/stm32_ws/src/libraries/STM32F4xx_StdPeriph_Driver/src/stm32f4xx_i2c.c ****   * @brief  Enables or disables the specified I2C peripheral.
 308:/home/rdu/Workspace/project_templates/mcu/stm32_ws/src/libraries/STM32F4xx_StdPeriph_Driver/src/stm32f4xx_i2c.c ****   * @param  I2Cx: where x can be 1, 2 or 3 to select the I2C peripheral.
 309:/home/rdu/Workspace/project_templates/mcu/stm32_ws/src/libraries/STM32F4xx_StdPeriph_Driver/src/stm32f4xx_i2c.c ****   * @param  NewState: new state of the I2Cx peripheral. 
 310:/home/rdu/Workspace/project_templates/mcu/stm32_ws/src/libraries/STM32F4xx_StdPeriph_Driver/src/stm32f4xx_i2c.c ****   *          This parameter can be: ENABLE or DISABLE.
 311:/home/rdu/Workspace/project_templates/mcu/stm32_ws/src/libraries/STM32F4xx_StdPeriph_Driver/src/stm32f4xx_i2c.c ****   * @retval None
 312:/home/rdu/Workspace/project_templates/mcu/stm32_ws/src/libraries/STM32F4xx_StdPeriph_Driver/src/stm32f4xx_i2c.c ****   */
 313:/home/rdu/Workspace/project_templates/mcu/stm32_ws/src/libraries/STM32F4xx_StdPeriph_Driver/src/stm32f4xx_i2c.c **** void I2C_Cmd(I2C_TypeDef* I2Cx, FunctionalState NewState)
 314:/home/rdu/Workspace/project_templates/mcu/stm32_ws/src/libraries/STM32F4xx_StdPeriph_Driver/src/stm32f4xx_i2c.c **** {
 399              		.loc 1 314 0
 400              		.cfi_startproc
 401              		@ args = 0, pretend = 0, frame = 8
 402              		@ frame_needed = 0, uses_anonymous_args = 0
 403              		@ link register save eliminated.
 404 0000 82B0     		sub	sp, sp, #8
 405              	.LCFI8:
 406              		.cfi_def_cfa_offset 8
 407 0002 0190     		str	r0, [sp, #4]
 408 0004 0B46     		mov	r3, r1
 409 0006 8DF80330 		strb	r3, [sp, #3]
 315:/home/rdu/Workspace/project_templates/mcu/stm32_ws/src/libraries/STM32F4xx_StdPeriph_Driver/src/stm32f4xx_i2c.c ****   /* Check the parameters */
 316:/home/rdu/Workspace/project_templates/mcu/stm32_ws/src/libraries/STM32F4xx_StdPeriph_Driver/src/stm32f4xx_i2c.c ****   assert_param(IS_I2C_ALL_PERIPH(I2Cx));
 317:/home/rdu/Workspace/project_templates/mcu/stm32_ws/src/libraries/STM32F4xx_StdPeriph_Driver/src/stm32f4xx_i2c.c ****   assert_param(IS_FUNCTIONAL_STATE(NewState));
 318:/home/rdu/Workspace/project_templates/mcu/stm32_ws/src/libraries/STM32F4xx_StdPeriph_Driver/src/stm32f4xx_i2c.c ****   if (NewState != DISABLE)
 410              		.loc 1 318 0
 411 000a 9DF80330 		ldrb	r3, [sp, #3]	@ zero_extendqisi2
 412 000e 002B     		cmp	r3, #0
 413 0010 08D0     		beq	.L19
 319:/home/rdu/Workspace/project_templates/mcu/stm32_ws/src/libraries/STM32F4xx_StdPeriph_Driver/src/stm32f4xx_i2c.c ****   {
 320:/home/rdu/Workspace/project_templates/mcu/stm32_ws/src/libraries/STM32F4xx_StdPeriph_Driver/src/stm32f4xx_i2c.c ****     /* Enable the selected I2C peripheral */
 321:/home/rdu/Workspace/project_templates/mcu/stm32_ws/src/libraries/STM32F4xx_StdPeriph_Driver/src/stm32f4xx_i2c.c ****     I2Cx->CR1 |= I2C_CR1_PE;
 414              		.loc 1 321 0
 415 0012 019B     		ldr	r3, [sp, #4]
 416 0014 1B88     		ldrh	r3, [r3]	@ movhi
 417 0016 9BB2     		uxth	r3, r3
 418 0018 43F00103 		orr	r3, r3, #1
 419 001c 9AB2     		uxth	r2, r3
 420 001e 019B     		ldr	r3, [sp, #4]
 421 0020 1A80     		strh	r2, [r3]	@ movhi
 322:/home/rdu/Workspace/project_templates/mcu/stm32_ws/src/libraries/STM32F4xx_StdPeriph_Driver/src/stm32f4xx_i2c.c ****   }
 323:/home/rdu/Workspace/project_templates/mcu/stm32_ws/src/libraries/STM32F4xx_StdPeriph_Driver/src/stm32f4xx_i2c.c ****   else
 324:/home/rdu/Workspace/project_templates/mcu/stm32_ws/src/libraries/STM32F4xx_StdPeriph_Driver/src/stm32f4xx_i2c.c ****   {
 325:/home/rdu/Workspace/project_templates/mcu/stm32_ws/src/libraries/STM32F4xx_StdPeriph_Driver/src/stm32f4xx_i2c.c ****     /* Disable the selected I2C peripheral */
 326:/home/rdu/Workspace/project_templates/mcu/stm32_ws/src/libraries/STM32F4xx_StdPeriph_Driver/src/stm32f4xx_i2c.c ****     I2Cx->CR1 &= (uint16_t)~((uint16_t)I2C_CR1_PE);
 327:/home/rdu/Workspace/project_templates/mcu/stm32_ws/src/libraries/STM32F4xx_StdPeriph_Driver/src/stm32f4xx_i2c.c ****   }
 328:/home/rdu/Workspace/project_templates/mcu/stm32_ws/src/libraries/STM32F4xx_StdPeriph_Driver/src/stm32f4xx_i2c.c **** }
 422              		.loc 1 328 0
 423 0022 07E0     		b	.L21
 424              	.L19:
 326:/home/rdu/Workspace/project_templates/mcu/stm32_ws/src/libraries/STM32F4xx_StdPeriph_Driver/src/stm32f4xx_i2c.c ****   }
 425              		.loc 1 326 0
 426 0024 019B     		ldr	r3, [sp, #4]
 427 0026 1B88     		ldrh	r3, [r3]	@ movhi
 428 0028 9BB2     		uxth	r3, r3
 429 002a 23F00103 		bic	r3, r3, #1
 430 002e 9AB2     		uxth	r2, r3
 431 0030 019B     		ldr	r3, [sp, #4]
 432 0032 1A80     		strh	r2, [r3]	@ movhi
 433              	.L21:
 434              		.loc 1 328 0
 435 0034 00BF     		nop
 436 0036 02B0     		add	sp, sp, #8
 437              	.LCFI9:
 438              		.cfi_def_cfa_offset 0
 439              		@ sp needed
 440 0038 7047     		bx	lr
 441              		.cfi_endproc
 442              	.LFE126:
 444              		.section	.text.I2C_AnalogFilterCmd,"ax",%progbits
 445              		.align	1
 446              		.global	I2C_AnalogFilterCmd
 447              		.syntax unified
 448              		.thumb
 449              		.thumb_func
 450              		.fpu fpv4-sp-d16
 452              	I2C_AnalogFilterCmd:
 453              	.LFB127:
 329:/home/rdu/Workspace/project_templates/mcu/stm32_ws/src/libraries/STM32F4xx_StdPeriph_Driver/src/stm32f4xx_i2c.c **** 
 330:/home/rdu/Workspace/project_templates/mcu/stm32_ws/src/libraries/STM32F4xx_StdPeriph_Driver/src/stm32f4xx_i2c.c **** /**
 331:/home/rdu/Workspace/project_templates/mcu/stm32_ws/src/libraries/STM32F4xx_StdPeriph_Driver/src/stm32f4xx_i2c.c ****   * @brief  Enables or disables the Analog filter of I2C peripheral.
 332:/home/rdu/Workspace/project_templates/mcu/stm32_ws/src/libraries/STM32F4xx_StdPeriph_Driver/src/stm32f4xx_i2c.c ****   * 
 333:/home/rdu/Workspace/project_templates/mcu/stm32_ws/src/libraries/STM32F4xx_StdPeriph_Driver/src/stm32f4xx_i2c.c ****   * @note   This function can be used only for STM32F42xxx/STM3243xxx, STM32F401xx, STM32F410xx and
 334:/home/rdu/Workspace/project_templates/mcu/stm32_ws/src/libraries/STM32F4xx_StdPeriph_Driver/src/stm32f4xx_i2c.c ****   *        
 335:/home/rdu/Workspace/project_templates/mcu/stm32_ws/src/libraries/STM32F4xx_StdPeriph_Driver/src/stm32f4xx_i2c.c ****   * @param  I2Cx: where x can be 1, 2 or 3 to select the I2C peripheral.
 336:/home/rdu/Workspace/project_templates/mcu/stm32_ws/src/libraries/STM32F4xx_StdPeriph_Driver/src/stm32f4xx_i2c.c ****   * @param  NewState: new state of the Analog filter. 
 337:/home/rdu/Workspace/project_templates/mcu/stm32_ws/src/libraries/STM32F4xx_StdPeriph_Driver/src/stm32f4xx_i2c.c ****   *          This parameter can be: ENABLE or DISABLE.
 338:/home/rdu/Workspace/project_templates/mcu/stm32_ws/src/libraries/STM32F4xx_StdPeriph_Driver/src/stm32f4xx_i2c.c ****   * @note   This function should be called before initializing and enabling
 339:/home/rdu/Workspace/project_templates/mcu/stm32_ws/src/libraries/STM32F4xx_StdPeriph_Driver/src/stm32f4xx_i2c.c ****             the I2C Peripheral.
 340:/home/rdu/Workspace/project_templates/mcu/stm32_ws/src/libraries/STM32F4xx_StdPeriph_Driver/src/stm32f4xx_i2c.c ****   * @retval None
 341:/home/rdu/Workspace/project_templates/mcu/stm32_ws/src/libraries/STM32F4xx_StdPeriph_Driver/src/stm32f4xx_i2c.c ****   */
 342:/home/rdu/Workspace/project_templates/mcu/stm32_ws/src/libraries/STM32F4xx_StdPeriph_Driver/src/stm32f4xx_i2c.c **** void I2C_AnalogFilterCmd(I2C_TypeDef* I2Cx, FunctionalState NewState)
 343:/home/rdu/Workspace/project_templates/mcu/stm32_ws/src/libraries/STM32F4xx_StdPeriph_Driver/src/stm32f4xx_i2c.c **** {
 454              		.loc 1 343 0
 455              		.cfi_startproc
 456              		@ args = 0, pretend = 0, frame = 8
 457              		@ frame_needed = 0, uses_anonymous_args = 0
 458              		@ link register save eliminated.
 459 0000 82B0     		sub	sp, sp, #8
 460              	.LCFI10:
 461              		.cfi_def_cfa_offset 8
 462 0002 0190     		str	r0, [sp, #4]
 463 0004 0B46     		mov	r3, r1
 464 0006 8DF80330 		strb	r3, [sp, #3]
 344:/home/rdu/Workspace/project_templates/mcu/stm32_ws/src/libraries/STM32F4xx_StdPeriph_Driver/src/stm32f4xx_i2c.c ****   /* Check the parameters */
 345:/home/rdu/Workspace/project_templates/mcu/stm32_ws/src/libraries/STM32F4xx_StdPeriph_Driver/src/stm32f4xx_i2c.c ****   assert_param(IS_I2C_ALL_PERIPH(I2Cx));
 346:/home/rdu/Workspace/project_templates/mcu/stm32_ws/src/libraries/STM32F4xx_StdPeriph_Driver/src/stm32f4xx_i2c.c ****   assert_param(IS_FUNCTIONAL_STATE(NewState));
 347:/home/rdu/Workspace/project_templates/mcu/stm32_ws/src/libraries/STM32F4xx_StdPeriph_Driver/src/stm32f4xx_i2c.c ****   if (NewState != DISABLE)
 465              		.loc 1 347 0
 466 000a 9DF80330 		ldrb	r3, [sp, #3]	@ zero_extendqisi2
 467 000e 002B     		cmp	r3, #0
 468 0010 08D0     		beq	.L23
 348:/home/rdu/Workspace/project_templates/mcu/stm32_ws/src/libraries/STM32F4xx_StdPeriph_Driver/src/stm32f4xx_i2c.c ****   {
 349:/home/rdu/Workspace/project_templates/mcu/stm32_ws/src/libraries/STM32F4xx_StdPeriph_Driver/src/stm32f4xx_i2c.c ****     /* Enable the analog filter */
 350:/home/rdu/Workspace/project_templates/mcu/stm32_ws/src/libraries/STM32F4xx_StdPeriph_Driver/src/stm32f4xx_i2c.c ****     I2Cx->FLTR &= (uint16_t)~((uint16_t)I2C_FLTR_ANOFF);    
 469              		.loc 1 350 0
 470 0012 019B     		ldr	r3, [sp, #4]
 471 0014 9B8C     		ldrh	r3, [r3, #36]	@ movhi
 472 0016 9BB2     		uxth	r3, r3
 473 0018 23F01003 		bic	r3, r3, #16
 474 001c 9AB2     		uxth	r2, r3
 475 001e 019B     		ldr	r3, [sp, #4]
 476 0020 9A84     		strh	r2, [r3, #36]	@ movhi
 351:/home/rdu/Workspace/project_templates/mcu/stm32_ws/src/libraries/STM32F4xx_StdPeriph_Driver/src/stm32f4xx_i2c.c ****   }
 352:/home/rdu/Workspace/project_templates/mcu/stm32_ws/src/libraries/STM32F4xx_StdPeriph_Driver/src/stm32f4xx_i2c.c ****   else
 353:/home/rdu/Workspace/project_templates/mcu/stm32_ws/src/libraries/STM32F4xx_StdPeriph_Driver/src/stm32f4xx_i2c.c ****   {
 354:/home/rdu/Workspace/project_templates/mcu/stm32_ws/src/libraries/STM32F4xx_StdPeriph_Driver/src/stm32f4xx_i2c.c ****     /* Disable the analog filter */
 355:/home/rdu/Workspace/project_templates/mcu/stm32_ws/src/libraries/STM32F4xx_StdPeriph_Driver/src/stm32f4xx_i2c.c ****     I2Cx->FLTR |= I2C_FLTR_ANOFF;
 356:/home/rdu/Workspace/project_templates/mcu/stm32_ws/src/libraries/STM32F4xx_StdPeriph_Driver/src/stm32f4xx_i2c.c ****   }
 357:/home/rdu/Workspace/project_templates/mcu/stm32_ws/src/libraries/STM32F4xx_StdPeriph_Driver/src/stm32f4xx_i2c.c **** }
 477              		.loc 1 357 0
 478 0022 07E0     		b	.L25
 479              	.L23:
 355:/home/rdu/Workspace/project_templates/mcu/stm32_ws/src/libraries/STM32F4xx_StdPeriph_Driver/src/stm32f4xx_i2c.c ****   }
 480              		.loc 1 355 0
 481 0024 019B     		ldr	r3, [sp, #4]
 482 0026 9B8C     		ldrh	r3, [r3, #36]	@ movhi
 483 0028 9BB2     		uxth	r3, r3
 484 002a 43F01003 		orr	r3, r3, #16
 485 002e 9AB2     		uxth	r2, r3
 486 0030 019B     		ldr	r3, [sp, #4]
 487 0032 9A84     		strh	r2, [r3, #36]	@ movhi
 488              	.L25:
 489              		.loc 1 357 0
 490 0034 00BF     		nop
 491 0036 02B0     		add	sp, sp, #8
 492              	.LCFI11:
 493              		.cfi_def_cfa_offset 0
 494              		@ sp needed
 495 0038 7047     		bx	lr
 496              		.cfi_endproc
 497              	.LFE127:
 499              		.section	.text.I2C_DigitalFilterConfig,"ax",%progbits
 500              		.align	1
 501              		.global	I2C_DigitalFilterConfig
 502              		.syntax unified
 503              		.thumb
 504              		.thumb_func
 505              		.fpu fpv4-sp-d16
 507              	I2C_DigitalFilterConfig:
 508              	.LFB128:
 358:/home/rdu/Workspace/project_templates/mcu/stm32_ws/src/libraries/STM32F4xx_StdPeriph_Driver/src/stm32f4xx_i2c.c **** 
 359:/home/rdu/Workspace/project_templates/mcu/stm32_ws/src/libraries/STM32F4xx_StdPeriph_Driver/src/stm32f4xx_i2c.c **** /**
 360:/home/rdu/Workspace/project_templates/mcu/stm32_ws/src/libraries/STM32F4xx_StdPeriph_Driver/src/stm32f4xx_i2c.c ****   * @brief  Configures the Digital noise filter of I2C peripheral.
 361:/home/rdu/Workspace/project_templates/mcu/stm32_ws/src/libraries/STM32F4xx_StdPeriph_Driver/src/stm32f4xx_i2c.c ****   * 
 362:/home/rdu/Workspace/project_templates/mcu/stm32_ws/src/libraries/STM32F4xx_StdPeriph_Driver/src/stm32f4xx_i2c.c ****   * @note   This function can be used only for STM32F42xxx/STM3243xxx, STM32F401xx, STM32F410xx and
 363:/home/rdu/Workspace/project_templates/mcu/stm32_ws/src/libraries/STM32F4xx_StdPeriph_Driver/src/stm32f4xx_i2c.c ****   *       
 364:/home/rdu/Workspace/project_templates/mcu/stm32_ws/src/libraries/STM32F4xx_StdPeriph_Driver/src/stm32f4xx_i2c.c ****   * @param  I2Cx: where x can be 1, 2 or 3 to select the I2C peripheral.
 365:/home/rdu/Workspace/project_templates/mcu/stm32_ws/src/libraries/STM32F4xx_StdPeriph_Driver/src/stm32f4xx_i2c.c ****   * @param  I2C_DigitalFilter: Coefficient of digital noise filter. 
 366:/home/rdu/Workspace/project_templates/mcu/stm32_ws/src/libraries/STM32F4xx_StdPeriph_Driver/src/stm32f4xx_i2c.c ****   *          This parameter can be a number between 0x00 and 0x0F.
 367:/home/rdu/Workspace/project_templates/mcu/stm32_ws/src/libraries/STM32F4xx_StdPeriph_Driver/src/stm32f4xx_i2c.c ****   * @note   This function should be called before initializing and enabling
 368:/home/rdu/Workspace/project_templates/mcu/stm32_ws/src/libraries/STM32F4xx_StdPeriph_Driver/src/stm32f4xx_i2c.c ****             the I2C Peripheral.
 369:/home/rdu/Workspace/project_templates/mcu/stm32_ws/src/libraries/STM32F4xx_StdPeriph_Driver/src/stm32f4xx_i2c.c ****   * @retval None
 370:/home/rdu/Workspace/project_templates/mcu/stm32_ws/src/libraries/STM32F4xx_StdPeriph_Driver/src/stm32f4xx_i2c.c ****   */
 371:/home/rdu/Workspace/project_templates/mcu/stm32_ws/src/libraries/STM32F4xx_StdPeriph_Driver/src/stm32f4xx_i2c.c **** void I2C_DigitalFilterConfig(I2C_TypeDef* I2Cx, uint16_t I2C_DigitalFilter)
 372:/home/rdu/Workspace/project_templates/mcu/stm32_ws/src/libraries/STM32F4xx_StdPeriph_Driver/src/stm32f4xx_i2c.c **** {
 509              		.loc 1 372 0
 510              		.cfi_startproc
 511              		@ args = 0, pretend = 0, frame = 16
 512              		@ frame_needed = 0, uses_anonymous_args = 0
 513              		@ link register save eliminated.
 514 0000 84B0     		sub	sp, sp, #16
 515              	.LCFI12:
 516              		.cfi_def_cfa_offset 16
 517 0002 0190     		str	r0, [sp, #4]
 518 0004 0B46     		mov	r3, r1
 519 0006 ADF80230 		strh	r3, [sp, #2]	@ movhi
 373:/home/rdu/Workspace/project_templates/mcu/stm32_ws/src/libraries/STM32F4xx_StdPeriph_Driver/src/stm32f4xx_i2c.c ****   uint16_t tmpreg = 0;
 520              		.loc 1 373 0
 521 000a 0023     		movs	r3, #0
 522 000c ADF80E30 		strh	r3, [sp, #14]	@ movhi
 374:/home/rdu/Workspace/project_templates/mcu/stm32_ws/src/libraries/STM32F4xx_StdPeriph_Driver/src/stm32f4xx_i2c.c ****   
 375:/home/rdu/Workspace/project_templates/mcu/stm32_ws/src/libraries/STM32F4xx_StdPeriph_Driver/src/stm32f4xx_i2c.c ****   /* Check the parameters */
 376:/home/rdu/Workspace/project_templates/mcu/stm32_ws/src/libraries/STM32F4xx_StdPeriph_Driver/src/stm32f4xx_i2c.c ****   assert_param(IS_I2C_ALL_PERIPH(I2Cx));
 377:/home/rdu/Workspace/project_templates/mcu/stm32_ws/src/libraries/STM32F4xx_StdPeriph_Driver/src/stm32f4xx_i2c.c ****   assert_param(IS_I2C_DIGITAL_FILTER(I2C_DigitalFilter));
 378:/home/rdu/Workspace/project_templates/mcu/stm32_ws/src/libraries/STM32F4xx_StdPeriph_Driver/src/stm32f4xx_i2c.c ****   
 379:/home/rdu/Workspace/project_templates/mcu/stm32_ws/src/libraries/STM32F4xx_StdPeriph_Driver/src/stm32f4xx_i2c.c ****   /* Get the old register value */
 380:/home/rdu/Workspace/project_templates/mcu/stm32_ws/src/libraries/STM32F4xx_StdPeriph_Driver/src/stm32f4xx_i2c.c ****   tmpreg = I2Cx->FLTR;
 523              		.loc 1 380 0
 524 0010 019B     		ldr	r3, [sp, #4]
 525 0012 9B8C     		ldrh	r3, [r3, #36]	@ movhi
 526 0014 ADF80E30 		strh	r3, [sp, #14]	@ movhi
 381:/home/rdu/Workspace/project_templates/mcu/stm32_ws/src/libraries/STM32F4xx_StdPeriph_Driver/src/stm32f4xx_i2c.c ****   
 382:/home/rdu/Workspace/project_templates/mcu/stm32_ws/src/libraries/STM32F4xx_StdPeriph_Driver/src/stm32f4xx_i2c.c ****   /* Reset I2Cx DNF bit [3:0] */
 383:/home/rdu/Workspace/project_templates/mcu/stm32_ws/src/libraries/STM32F4xx_StdPeriph_Driver/src/stm32f4xx_i2c.c ****   tmpreg &= (uint16_t)~((uint16_t)I2C_FLTR_DNF);
 527              		.loc 1 383 0
 528 0018 BDF80E30 		ldrh	r3, [sp, #14]	@ movhi
 529 001c 23F00F03 		bic	r3, r3, #15
 530 0020 ADF80E30 		strh	r3, [sp, #14]	@ movhi
 384:/home/rdu/Workspace/project_templates/mcu/stm32_ws/src/libraries/STM32F4xx_StdPeriph_Driver/src/stm32f4xx_i2c.c ****   
 385:/home/rdu/Workspace/project_templates/mcu/stm32_ws/src/libraries/STM32F4xx_StdPeriph_Driver/src/stm32f4xx_i2c.c ****   /* Set I2Cx DNF coefficient */
 386:/home/rdu/Workspace/project_templates/mcu/stm32_ws/src/libraries/STM32F4xx_StdPeriph_Driver/src/stm32f4xx_i2c.c ****   tmpreg |= (uint16_t)((uint16_t)I2C_DigitalFilter & I2C_FLTR_DNF);
 531              		.loc 1 386 0
 532 0024 BDF90230 		ldrsh	r3, [sp, #2]
 533 0028 03F00F03 		and	r3, r3, #15
 534 002c 1AB2     		sxth	r2, r3
 535 002e BDF90E30 		ldrsh	r3, [sp, #14]
 536 0032 1343     		orrs	r3, r3, r2
 537 0034 1BB2     		sxth	r3, r3
 538 0036 ADF80E30 		strh	r3, [sp, #14]	@ movhi
 387:/home/rdu/Workspace/project_templates/mcu/stm32_ws/src/libraries/STM32F4xx_StdPeriph_Driver/src/stm32f4xx_i2c.c ****   
 388:/home/rdu/Workspace/project_templates/mcu/stm32_ws/src/libraries/STM32F4xx_StdPeriph_Driver/src/stm32f4xx_i2c.c ****   /* Store the new register value */
 389:/home/rdu/Workspace/project_templates/mcu/stm32_ws/src/libraries/STM32F4xx_StdPeriph_Driver/src/stm32f4xx_i2c.c ****   I2Cx->FLTR = tmpreg;
 539              		.loc 1 389 0
 540 003a 019B     		ldr	r3, [sp, #4]
 541 003c BDF80E20 		ldrh	r2, [sp, #14]	@ movhi
 542 0040 9A84     		strh	r2, [r3, #36]	@ movhi
 390:/home/rdu/Workspace/project_templates/mcu/stm32_ws/src/libraries/STM32F4xx_StdPeriph_Driver/src/stm32f4xx_i2c.c **** }
 543              		.loc 1 390 0
 544 0042 00BF     		nop
 545 0044 04B0     		add	sp, sp, #16
 546              	.LCFI13:
 547              		.cfi_def_cfa_offset 0
 548              		@ sp needed
 549 0046 7047     		bx	lr
 550              		.cfi_endproc
 551              	.LFE128:
 553              		.section	.text.I2C_GenerateSTART,"ax",%progbits
 554              		.align	1
 555              		.global	I2C_GenerateSTART
 556              		.syntax unified
 557              		.thumb
 558              		.thumb_func
 559              		.fpu fpv4-sp-d16
 561              	I2C_GenerateSTART:
 562              	.LFB129:
 391:/home/rdu/Workspace/project_templates/mcu/stm32_ws/src/libraries/STM32F4xx_StdPeriph_Driver/src/stm32f4xx_i2c.c **** 
 392:/home/rdu/Workspace/project_templates/mcu/stm32_ws/src/libraries/STM32F4xx_StdPeriph_Driver/src/stm32f4xx_i2c.c **** /**
 393:/home/rdu/Workspace/project_templates/mcu/stm32_ws/src/libraries/STM32F4xx_StdPeriph_Driver/src/stm32f4xx_i2c.c ****   * @brief  Generates I2Cx communication START condition.
 394:/home/rdu/Workspace/project_templates/mcu/stm32_ws/src/libraries/STM32F4xx_StdPeriph_Driver/src/stm32f4xx_i2c.c ****   * @param  I2Cx: where x can be 1, 2 or 3 to select the I2C peripheral.
 395:/home/rdu/Workspace/project_templates/mcu/stm32_ws/src/libraries/STM32F4xx_StdPeriph_Driver/src/stm32f4xx_i2c.c ****   * @param  NewState: new state of the I2C START condition generation.
 396:/home/rdu/Workspace/project_templates/mcu/stm32_ws/src/libraries/STM32F4xx_StdPeriph_Driver/src/stm32f4xx_i2c.c ****   *          This parameter can be: ENABLE or DISABLE.
 397:/home/rdu/Workspace/project_templates/mcu/stm32_ws/src/libraries/STM32F4xx_StdPeriph_Driver/src/stm32f4xx_i2c.c ****   * @retval None.
 398:/home/rdu/Workspace/project_templates/mcu/stm32_ws/src/libraries/STM32F4xx_StdPeriph_Driver/src/stm32f4xx_i2c.c ****   */
 399:/home/rdu/Workspace/project_templates/mcu/stm32_ws/src/libraries/STM32F4xx_StdPeriph_Driver/src/stm32f4xx_i2c.c **** void I2C_GenerateSTART(I2C_TypeDef* I2Cx, FunctionalState NewState)
 400:/home/rdu/Workspace/project_templates/mcu/stm32_ws/src/libraries/STM32F4xx_StdPeriph_Driver/src/stm32f4xx_i2c.c **** {
 563              		.loc 1 400 0
 564              		.cfi_startproc
 565              		@ args = 0, pretend = 0, frame = 8
 566              		@ frame_needed = 0, uses_anonymous_args = 0
 567              		@ link register save eliminated.
 568 0000 82B0     		sub	sp, sp, #8
 569              	.LCFI14:
 570              		.cfi_def_cfa_offset 8
 571 0002 0190     		str	r0, [sp, #4]
 572 0004 0B46     		mov	r3, r1
 573 0006 8DF80330 		strb	r3, [sp, #3]
 401:/home/rdu/Workspace/project_templates/mcu/stm32_ws/src/libraries/STM32F4xx_StdPeriph_Driver/src/stm32f4xx_i2c.c ****   /* Check the parameters */
 402:/home/rdu/Workspace/project_templates/mcu/stm32_ws/src/libraries/STM32F4xx_StdPeriph_Driver/src/stm32f4xx_i2c.c ****   assert_param(IS_I2C_ALL_PERIPH(I2Cx));
 403:/home/rdu/Workspace/project_templates/mcu/stm32_ws/src/libraries/STM32F4xx_StdPeriph_Driver/src/stm32f4xx_i2c.c ****   assert_param(IS_FUNCTIONAL_STATE(NewState));
 404:/home/rdu/Workspace/project_templates/mcu/stm32_ws/src/libraries/STM32F4xx_StdPeriph_Driver/src/stm32f4xx_i2c.c ****   if (NewState != DISABLE)
 574              		.loc 1 404 0
 575 000a 9DF80330 		ldrb	r3, [sp, #3]	@ zero_extendqisi2
 576 000e 002B     		cmp	r3, #0
 577 0010 08D0     		beq	.L28
 405:/home/rdu/Workspace/project_templates/mcu/stm32_ws/src/libraries/STM32F4xx_StdPeriph_Driver/src/stm32f4xx_i2c.c ****   {
 406:/home/rdu/Workspace/project_templates/mcu/stm32_ws/src/libraries/STM32F4xx_StdPeriph_Driver/src/stm32f4xx_i2c.c ****     /* Generate a START condition */
 407:/home/rdu/Workspace/project_templates/mcu/stm32_ws/src/libraries/STM32F4xx_StdPeriph_Driver/src/stm32f4xx_i2c.c ****     I2Cx->CR1 |= I2C_CR1_START;
 578              		.loc 1 407 0
 579 0012 019B     		ldr	r3, [sp, #4]
 580 0014 1B88     		ldrh	r3, [r3]	@ movhi
 581 0016 9BB2     		uxth	r3, r3
 582 0018 43F48073 		orr	r3, r3, #256
 583 001c 9AB2     		uxth	r2, r3
 584 001e 019B     		ldr	r3, [sp, #4]
 585 0020 1A80     		strh	r2, [r3]	@ movhi
 408:/home/rdu/Workspace/project_templates/mcu/stm32_ws/src/libraries/STM32F4xx_StdPeriph_Driver/src/stm32f4xx_i2c.c ****   }
 409:/home/rdu/Workspace/project_templates/mcu/stm32_ws/src/libraries/STM32F4xx_StdPeriph_Driver/src/stm32f4xx_i2c.c ****   else
 410:/home/rdu/Workspace/project_templates/mcu/stm32_ws/src/libraries/STM32F4xx_StdPeriph_Driver/src/stm32f4xx_i2c.c ****   {
 411:/home/rdu/Workspace/project_templates/mcu/stm32_ws/src/libraries/STM32F4xx_StdPeriph_Driver/src/stm32f4xx_i2c.c ****     /* Disable the START condition generation */
 412:/home/rdu/Workspace/project_templates/mcu/stm32_ws/src/libraries/STM32F4xx_StdPeriph_Driver/src/stm32f4xx_i2c.c ****     I2Cx->CR1 &= (uint16_t)~((uint16_t)I2C_CR1_START);
 413:/home/rdu/Workspace/project_templates/mcu/stm32_ws/src/libraries/STM32F4xx_StdPeriph_Driver/src/stm32f4xx_i2c.c ****   }
 414:/home/rdu/Workspace/project_templates/mcu/stm32_ws/src/libraries/STM32F4xx_StdPeriph_Driver/src/stm32f4xx_i2c.c **** }
 586              		.loc 1 414 0
 587 0022 07E0     		b	.L30
 588              	.L28:
 412:/home/rdu/Workspace/project_templates/mcu/stm32_ws/src/libraries/STM32F4xx_StdPeriph_Driver/src/stm32f4xx_i2c.c ****   }
 589              		.loc 1 412 0
 590 0024 019B     		ldr	r3, [sp, #4]
 591 0026 1B88     		ldrh	r3, [r3]	@ movhi
 592 0028 9BB2     		uxth	r3, r3
 593 002a 23F48073 		bic	r3, r3, #256
 594 002e 9AB2     		uxth	r2, r3
 595 0030 019B     		ldr	r3, [sp, #4]
 596 0032 1A80     		strh	r2, [r3]	@ movhi
 597              	.L30:
 598              		.loc 1 414 0
 599 0034 00BF     		nop
 600 0036 02B0     		add	sp, sp, #8
 601              	.LCFI15:
 602              		.cfi_def_cfa_offset 0
 603              		@ sp needed
 604 0038 7047     		bx	lr
 605              		.cfi_endproc
 606              	.LFE129:
 608              		.section	.text.I2C_GenerateSTOP,"ax",%progbits
 609              		.align	1
 610              		.global	I2C_GenerateSTOP
 611              		.syntax unified
 612              		.thumb
 613              		.thumb_func
 614              		.fpu fpv4-sp-d16
 616              	I2C_GenerateSTOP:
 617              	.LFB130:
 415:/home/rdu/Workspace/project_templates/mcu/stm32_ws/src/libraries/STM32F4xx_StdPeriph_Driver/src/stm32f4xx_i2c.c **** 
 416:/home/rdu/Workspace/project_templates/mcu/stm32_ws/src/libraries/STM32F4xx_StdPeriph_Driver/src/stm32f4xx_i2c.c **** /**
 417:/home/rdu/Workspace/project_templates/mcu/stm32_ws/src/libraries/STM32F4xx_StdPeriph_Driver/src/stm32f4xx_i2c.c ****   * @brief  Generates I2Cx communication STOP condition.
 418:/home/rdu/Workspace/project_templates/mcu/stm32_ws/src/libraries/STM32F4xx_StdPeriph_Driver/src/stm32f4xx_i2c.c ****   * @param  I2Cx: where x can be 1, 2 or 3 to select the I2C peripheral.
 419:/home/rdu/Workspace/project_templates/mcu/stm32_ws/src/libraries/STM32F4xx_StdPeriph_Driver/src/stm32f4xx_i2c.c ****   * @param  NewState: new state of the I2C STOP condition generation.
 420:/home/rdu/Workspace/project_templates/mcu/stm32_ws/src/libraries/STM32F4xx_StdPeriph_Driver/src/stm32f4xx_i2c.c ****   *          This parameter can be: ENABLE or DISABLE.
 421:/home/rdu/Workspace/project_templates/mcu/stm32_ws/src/libraries/STM32F4xx_StdPeriph_Driver/src/stm32f4xx_i2c.c ****   * @retval None.
 422:/home/rdu/Workspace/project_templates/mcu/stm32_ws/src/libraries/STM32F4xx_StdPeriph_Driver/src/stm32f4xx_i2c.c ****   */
 423:/home/rdu/Workspace/project_templates/mcu/stm32_ws/src/libraries/STM32F4xx_StdPeriph_Driver/src/stm32f4xx_i2c.c **** void I2C_GenerateSTOP(I2C_TypeDef* I2Cx, FunctionalState NewState)
 424:/home/rdu/Workspace/project_templates/mcu/stm32_ws/src/libraries/STM32F4xx_StdPeriph_Driver/src/stm32f4xx_i2c.c **** {
 618              		.loc 1 424 0
 619              		.cfi_startproc
 620              		@ args = 0, pretend = 0, frame = 8
 621              		@ frame_needed = 0, uses_anonymous_args = 0
 622              		@ link register save eliminated.
 623 0000 82B0     		sub	sp, sp, #8
 624              	.LCFI16:
 625              		.cfi_def_cfa_offset 8
 626 0002 0190     		str	r0, [sp, #4]
 627 0004 0B46     		mov	r3, r1
 628 0006 8DF80330 		strb	r3, [sp, #3]
 425:/home/rdu/Workspace/project_templates/mcu/stm32_ws/src/libraries/STM32F4xx_StdPeriph_Driver/src/stm32f4xx_i2c.c ****   /* Check the parameters */
 426:/home/rdu/Workspace/project_templates/mcu/stm32_ws/src/libraries/STM32F4xx_StdPeriph_Driver/src/stm32f4xx_i2c.c ****   assert_param(IS_I2C_ALL_PERIPH(I2Cx));
 427:/home/rdu/Workspace/project_templates/mcu/stm32_ws/src/libraries/STM32F4xx_StdPeriph_Driver/src/stm32f4xx_i2c.c ****   assert_param(IS_FUNCTIONAL_STATE(NewState));
 428:/home/rdu/Workspace/project_templates/mcu/stm32_ws/src/libraries/STM32F4xx_StdPeriph_Driver/src/stm32f4xx_i2c.c ****   if (NewState != DISABLE)
 629              		.loc 1 428 0
 630 000a 9DF80330 		ldrb	r3, [sp, #3]	@ zero_extendqisi2
 631 000e 002B     		cmp	r3, #0
 632 0010 08D0     		beq	.L32
 429:/home/rdu/Workspace/project_templates/mcu/stm32_ws/src/libraries/STM32F4xx_StdPeriph_Driver/src/stm32f4xx_i2c.c ****   {
 430:/home/rdu/Workspace/project_templates/mcu/stm32_ws/src/libraries/STM32F4xx_StdPeriph_Driver/src/stm32f4xx_i2c.c ****     /* Generate a STOP condition */
 431:/home/rdu/Workspace/project_templates/mcu/stm32_ws/src/libraries/STM32F4xx_StdPeriph_Driver/src/stm32f4xx_i2c.c ****     I2Cx->CR1 |= I2C_CR1_STOP;
 633              		.loc 1 431 0
 634 0012 019B     		ldr	r3, [sp, #4]
 635 0014 1B88     		ldrh	r3, [r3]	@ movhi
 636 0016 9BB2     		uxth	r3, r3
 637 0018 43F40073 		orr	r3, r3, #512
 638 001c 9AB2     		uxth	r2, r3
 639 001e 019B     		ldr	r3, [sp, #4]
 640 0020 1A80     		strh	r2, [r3]	@ movhi
 432:/home/rdu/Workspace/project_templates/mcu/stm32_ws/src/libraries/STM32F4xx_StdPeriph_Driver/src/stm32f4xx_i2c.c ****   }
 433:/home/rdu/Workspace/project_templates/mcu/stm32_ws/src/libraries/STM32F4xx_StdPeriph_Driver/src/stm32f4xx_i2c.c ****   else
 434:/home/rdu/Workspace/project_templates/mcu/stm32_ws/src/libraries/STM32F4xx_StdPeriph_Driver/src/stm32f4xx_i2c.c ****   {
 435:/home/rdu/Workspace/project_templates/mcu/stm32_ws/src/libraries/STM32F4xx_StdPeriph_Driver/src/stm32f4xx_i2c.c ****     /* Disable the STOP condition generation */
 436:/home/rdu/Workspace/project_templates/mcu/stm32_ws/src/libraries/STM32F4xx_StdPeriph_Driver/src/stm32f4xx_i2c.c ****     I2Cx->CR1 &= (uint16_t)~((uint16_t)I2C_CR1_STOP);
 437:/home/rdu/Workspace/project_templates/mcu/stm32_ws/src/libraries/STM32F4xx_StdPeriph_Driver/src/stm32f4xx_i2c.c ****   }
 438:/home/rdu/Workspace/project_templates/mcu/stm32_ws/src/libraries/STM32F4xx_StdPeriph_Driver/src/stm32f4xx_i2c.c **** }
 641              		.loc 1 438 0
 642 0022 07E0     		b	.L34
 643              	.L32:
 436:/home/rdu/Workspace/project_templates/mcu/stm32_ws/src/libraries/STM32F4xx_StdPeriph_Driver/src/stm32f4xx_i2c.c ****   }
 644              		.loc 1 436 0
 645 0024 019B     		ldr	r3, [sp, #4]
 646 0026 1B88     		ldrh	r3, [r3]	@ movhi
 647 0028 9BB2     		uxth	r3, r3
 648 002a 23F40073 		bic	r3, r3, #512
 649 002e 9AB2     		uxth	r2, r3
 650 0030 019B     		ldr	r3, [sp, #4]
 651 0032 1A80     		strh	r2, [r3]	@ movhi
 652              	.L34:
 653              		.loc 1 438 0
 654 0034 00BF     		nop
 655 0036 02B0     		add	sp, sp, #8
 656              	.LCFI17:
 657              		.cfi_def_cfa_offset 0
 658              		@ sp needed
 659 0038 7047     		bx	lr
 660              		.cfi_endproc
 661              	.LFE130:
 663              		.section	.text.I2C_Send7bitAddress,"ax",%progbits
 664              		.align	1
 665              		.global	I2C_Send7bitAddress
 666              		.syntax unified
 667              		.thumb
 668              		.thumb_func
 669              		.fpu fpv4-sp-d16
 671              	I2C_Send7bitAddress:
 672              	.LFB131:
 439:/home/rdu/Workspace/project_templates/mcu/stm32_ws/src/libraries/STM32F4xx_StdPeriph_Driver/src/stm32f4xx_i2c.c **** 
 440:/home/rdu/Workspace/project_templates/mcu/stm32_ws/src/libraries/STM32F4xx_StdPeriph_Driver/src/stm32f4xx_i2c.c **** /**
 441:/home/rdu/Workspace/project_templates/mcu/stm32_ws/src/libraries/STM32F4xx_StdPeriph_Driver/src/stm32f4xx_i2c.c ****   * @brief  Transmits the address byte to select the slave device.
 442:/home/rdu/Workspace/project_templates/mcu/stm32_ws/src/libraries/STM32F4xx_StdPeriph_Driver/src/stm32f4xx_i2c.c ****   * @param  I2Cx: where x can be 1, 2 or 3 to select the I2C peripheral.
 443:/home/rdu/Workspace/project_templates/mcu/stm32_ws/src/libraries/STM32F4xx_StdPeriph_Driver/src/stm32f4xx_i2c.c ****   * @param  Address: specifies the slave address which will be transmitted
 444:/home/rdu/Workspace/project_templates/mcu/stm32_ws/src/libraries/STM32F4xx_StdPeriph_Driver/src/stm32f4xx_i2c.c ****   * @param  I2C_Direction: specifies whether the I2C device will be a Transmitter
 445:/home/rdu/Workspace/project_templates/mcu/stm32_ws/src/libraries/STM32F4xx_StdPeriph_Driver/src/stm32f4xx_i2c.c ****   *         or a Receiver. 
 446:/home/rdu/Workspace/project_templates/mcu/stm32_ws/src/libraries/STM32F4xx_StdPeriph_Driver/src/stm32f4xx_i2c.c ****   *          This parameter can be one of the following values
 447:/home/rdu/Workspace/project_templates/mcu/stm32_ws/src/libraries/STM32F4xx_StdPeriph_Driver/src/stm32f4xx_i2c.c ****   *            @arg I2C_Direction_Transmitter: Transmitter mode
 448:/home/rdu/Workspace/project_templates/mcu/stm32_ws/src/libraries/STM32F4xx_StdPeriph_Driver/src/stm32f4xx_i2c.c ****   *            @arg I2C_Direction_Receiver: Receiver mode
 449:/home/rdu/Workspace/project_templates/mcu/stm32_ws/src/libraries/STM32F4xx_StdPeriph_Driver/src/stm32f4xx_i2c.c ****   * @retval None.
 450:/home/rdu/Workspace/project_templates/mcu/stm32_ws/src/libraries/STM32F4xx_StdPeriph_Driver/src/stm32f4xx_i2c.c ****   */
 451:/home/rdu/Workspace/project_templates/mcu/stm32_ws/src/libraries/STM32F4xx_StdPeriph_Driver/src/stm32f4xx_i2c.c **** void I2C_Send7bitAddress(I2C_TypeDef* I2Cx, uint8_t Address, uint8_t I2C_Direction)
 452:/home/rdu/Workspace/project_templates/mcu/stm32_ws/src/libraries/STM32F4xx_StdPeriph_Driver/src/stm32f4xx_i2c.c **** {
 673              		.loc 1 452 0
 674              		.cfi_startproc
 675              		@ args = 0, pretend = 0, frame = 8
 676              		@ frame_needed = 0, uses_anonymous_args = 0
 677              		@ link register save eliminated.
 678 0000 82B0     		sub	sp, sp, #8
 679              	.LCFI18:
 680              		.cfi_def_cfa_offset 8
 681 0002 0190     		str	r0, [sp, #4]
 682 0004 0B46     		mov	r3, r1
 683 0006 8DF80330 		strb	r3, [sp, #3]
 684 000a 1346     		mov	r3, r2
 685 000c 8DF80230 		strb	r3, [sp, #2]
 453:/home/rdu/Workspace/project_templates/mcu/stm32_ws/src/libraries/STM32F4xx_StdPeriph_Driver/src/stm32f4xx_i2c.c ****   /* Check the parameters */
 454:/home/rdu/Workspace/project_templates/mcu/stm32_ws/src/libraries/STM32F4xx_StdPeriph_Driver/src/stm32f4xx_i2c.c ****   assert_param(IS_I2C_ALL_PERIPH(I2Cx));
 455:/home/rdu/Workspace/project_templates/mcu/stm32_ws/src/libraries/STM32F4xx_StdPeriph_Driver/src/stm32f4xx_i2c.c ****   assert_param(IS_I2C_DIRECTION(I2C_Direction));
 456:/home/rdu/Workspace/project_templates/mcu/stm32_ws/src/libraries/STM32F4xx_StdPeriph_Driver/src/stm32f4xx_i2c.c ****   /* Test on the direction to set/reset the read/write bit */
 457:/home/rdu/Workspace/project_templates/mcu/stm32_ws/src/libraries/STM32F4xx_StdPeriph_Driver/src/stm32f4xx_i2c.c ****   if (I2C_Direction != I2C_Direction_Transmitter)
 686              		.loc 1 457 0
 687 0010 9DF80230 		ldrb	r3, [sp, #2]	@ zero_extendqisi2
 688 0014 002B     		cmp	r3, #0
 689 0016 06D0     		beq	.L36
 458:/home/rdu/Workspace/project_templates/mcu/stm32_ws/src/libraries/STM32F4xx_StdPeriph_Driver/src/stm32f4xx_i2c.c ****   {
 459:/home/rdu/Workspace/project_templates/mcu/stm32_ws/src/libraries/STM32F4xx_StdPeriph_Driver/src/stm32f4xx_i2c.c ****     /* Set the address bit0 for read */
 460:/home/rdu/Workspace/project_templates/mcu/stm32_ws/src/libraries/STM32F4xx_StdPeriph_Driver/src/stm32f4xx_i2c.c ****     Address |= I2C_OAR1_ADD0;
 690              		.loc 1 460 0
 691 0018 9DF80330 		ldrb	r3, [sp, #3]
 692 001c 43F00103 		orr	r3, r3, #1
 693 0020 8DF80330 		strb	r3, [sp, #3]
 694 0024 05E0     		b	.L37
 695              	.L36:
 461:/home/rdu/Workspace/project_templates/mcu/stm32_ws/src/libraries/STM32F4xx_StdPeriph_Driver/src/stm32f4xx_i2c.c ****   }
 462:/home/rdu/Workspace/project_templates/mcu/stm32_ws/src/libraries/STM32F4xx_StdPeriph_Driver/src/stm32f4xx_i2c.c ****   else
 463:/home/rdu/Workspace/project_templates/mcu/stm32_ws/src/libraries/STM32F4xx_StdPeriph_Driver/src/stm32f4xx_i2c.c ****   {
 464:/home/rdu/Workspace/project_templates/mcu/stm32_ws/src/libraries/STM32F4xx_StdPeriph_Driver/src/stm32f4xx_i2c.c ****     /* Reset the address bit0 for write */
 465:/home/rdu/Workspace/project_templates/mcu/stm32_ws/src/libraries/STM32F4xx_StdPeriph_Driver/src/stm32f4xx_i2c.c ****     Address &= (uint8_t)~((uint8_t)I2C_OAR1_ADD0);
 696              		.loc 1 465 0
 697 0026 9DF80330 		ldrb	r3, [sp, #3]
 698 002a 23F00103 		bic	r3, r3, #1
 699 002e 8DF80330 		strb	r3, [sp, #3]
 700              	.L37:
 466:/home/rdu/Workspace/project_templates/mcu/stm32_ws/src/libraries/STM32F4xx_StdPeriph_Driver/src/stm32f4xx_i2c.c ****   }
 467:/home/rdu/Workspace/project_templates/mcu/stm32_ws/src/libraries/STM32F4xx_StdPeriph_Driver/src/stm32f4xx_i2c.c ****   /* Send the address */
 468:/home/rdu/Workspace/project_templates/mcu/stm32_ws/src/libraries/STM32F4xx_StdPeriph_Driver/src/stm32f4xx_i2c.c ****   I2Cx->DR = Address;
 701              		.loc 1 468 0
 702 0032 9DF80330 		ldrb	r3, [sp, #3]	@ zero_extendqisi2
 703 0036 9AB2     		uxth	r2, r3
 704 0038 019B     		ldr	r3, [sp, #4]
 705 003a 1A82     		strh	r2, [r3, #16]	@ movhi
 469:/home/rdu/Workspace/project_templates/mcu/stm32_ws/src/libraries/STM32F4xx_StdPeriph_Driver/src/stm32f4xx_i2c.c **** }
 706              		.loc 1 469 0
 707 003c 00BF     		nop
 708 003e 02B0     		add	sp, sp, #8
 709              	.LCFI19:
 710              		.cfi_def_cfa_offset 0
 711              		@ sp needed
 712 0040 7047     		bx	lr
 713              		.cfi_endproc
 714              	.LFE131:
 716              		.section	.text.I2C_AcknowledgeConfig,"ax",%progbits
 717              		.align	1
 718              		.global	I2C_AcknowledgeConfig
 719              		.syntax unified
 720              		.thumb
 721              		.thumb_func
 722              		.fpu fpv4-sp-d16
 724              	I2C_AcknowledgeConfig:
 725              	.LFB132:
 470:/home/rdu/Workspace/project_templates/mcu/stm32_ws/src/libraries/STM32F4xx_StdPeriph_Driver/src/stm32f4xx_i2c.c **** 
 471:/home/rdu/Workspace/project_templates/mcu/stm32_ws/src/libraries/STM32F4xx_StdPeriph_Driver/src/stm32f4xx_i2c.c **** /**
 472:/home/rdu/Workspace/project_templates/mcu/stm32_ws/src/libraries/STM32F4xx_StdPeriph_Driver/src/stm32f4xx_i2c.c ****   * @brief  Enables or disables the specified I2C acknowledge feature.
 473:/home/rdu/Workspace/project_templates/mcu/stm32_ws/src/libraries/STM32F4xx_StdPeriph_Driver/src/stm32f4xx_i2c.c ****   * @param  I2Cx: where x can be 1, 2 or 3 to select the I2C peripheral.
 474:/home/rdu/Workspace/project_templates/mcu/stm32_ws/src/libraries/STM32F4xx_StdPeriph_Driver/src/stm32f4xx_i2c.c ****   * @param  NewState: new state of the I2C Acknowledgement.
 475:/home/rdu/Workspace/project_templates/mcu/stm32_ws/src/libraries/STM32F4xx_StdPeriph_Driver/src/stm32f4xx_i2c.c ****   *          This parameter can be: ENABLE or DISABLE.
 476:/home/rdu/Workspace/project_templates/mcu/stm32_ws/src/libraries/STM32F4xx_StdPeriph_Driver/src/stm32f4xx_i2c.c ****   * @retval None.
 477:/home/rdu/Workspace/project_templates/mcu/stm32_ws/src/libraries/STM32F4xx_StdPeriph_Driver/src/stm32f4xx_i2c.c ****   */
 478:/home/rdu/Workspace/project_templates/mcu/stm32_ws/src/libraries/STM32F4xx_StdPeriph_Driver/src/stm32f4xx_i2c.c **** void I2C_AcknowledgeConfig(I2C_TypeDef* I2Cx, FunctionalState NewState)
 479:/home/rdu/Workspace/project_templates/mcu/stm32_ws/src/libraries/STM32F4xx_StdPeriph_Driver/src/stm32f4xx_i2c.c **** {
 726              		.loc 1 479 0
 727              		.cfi_startproc
 728              		@ args = 0, pretend = 0, frame = 8
 729              		@ frame_needed = 0, uses_anonymous_args = 0
 730              		@ link register save eliminated.
 731 0000 82B0     		sub	sp, sp, #8
 732              	.LCFI20:
 733              		.cfi_def_cfa_offset 8
 734 0002 0190     		str	r0, [sp, #4]
 735 0004 0B46     		mov	r3, r1
 736 0006 8DF80330 		strb	r3, [sp, #3]
 480:/home/rdu/Workspace/project_templates/mcu/stm32_ws/src/libraries/STM32F4xx_StdPeriph_Driver/src/stm32f4xx_i2c.c ****   /* Check the parameters */
 481:/home/rdu/Workspace/project_templates/mcu/stm32_ws/src/libraries/STM32F4xx_StdPeriph_Driver/src/stm32f4xx_i2c.c ****   assert_param(IS_I2C_ALL_PERIPH(I2Cx));
 482:/home/rdu/Workspace/project_templates/mcu/stm32_ws/src/libraries/STM32F4xx_StdPeriph_Driver/src/stm32f4xx_i2c.c ****   assert_param(IS_FUNCTIONAL_STATE(NewState));
 483:/home/rdu/Workspace/project_templates/mcu/stm32_ws/src/libraries/STM32F4xx_StdPeriph_Driver/src/stm32f4xx_i2c.c ****   if (NewState != DISABLE)
 737              		.loc 1 483 0
 738 000a 9DF80330 		ldrb	r3, [sp, #3]	@ zero_extendqisi2
 739 000e 002B     		cmp	r3, #0
 740 0010 08D0     		beq	.L39
 484:/home/rdu/Workspace/project_templates/mcu/stm32_ws/src/libraries/STM32F4xx_StdPeriph_Driver/src/stm32f4xx_i2c.c ****   {
 485:/home/rdu/Workspace/project_templates/mcu/stm32_ws/src/libraries/STM32F4xx_StdPeriph_Driver/src/stm32f4xx_i2c.c ****     /* Enable the acknowledgement */
 486:/home/rdu/Workspace/project_templates/mcu/stm32_ws/src/libraries/STM32F4xx_StdPeriph_Driver/src/stm32f4xx_i2c.c ****     I2Cx->CR1 |= I2C_CR1_ACK;
 741              		.loc 1 486 0
 742 0012 019B     		ldr	r3, [sp, #4]
 743 0014 1B88     		ldrh	r3, [r3]	@ movhi
 744 0016 9BB2     		uxth	r3, r3
 745 0018 43F48063 		orr	r3, r3, #1024
 746 001c 9AB2     		uxth	r2, r3
 747 001e 019B     		ldr	r3, [sp, #4]
 748 0020 1A80     		strh	r2, [r3]	@ movhi
 487:/home/rdu/Workspace/project_templates/mcu/stm32_ws/src/libraries/STM32F4xx_StdPeriph_Driver/src/stm32f4xx_i2c.c ****   }
 488:/home/rdu/Workspace/project_templates/mcu/stm32_ws/src/libraries/STM32F4xx_StdPeriph_Driver/src/stm32f4xx_i2c.c ****   else
 489:/home/rdu/Workspace/project_templates/mcu/stm32_ws/src/libraries/STM32F4xx_StdPeriph_Driver/src/stm32f4xx_i2c.c ****   {
 490:/home/rdu/Workspace/project_templates/mcu/stm32_ws/src/libraries/STM32F4xx_StdPeriph_Driver/src/stm32f4xx_i2c.c ****     /* Disable the acknowledgement */
 491:/home/rdu/Workspace/project_templates/mcu/stm32_ws/src/libraries/STM32F4xx_StdPeriph_Driver/src/stm32f4xx_i2c.c ****     I2Cx->CR1 &= (uint16_t)~((uint16_t)I2C_CR1_ACK);
 492:/home/rdu/Workspace/project_templates/mcu/stm32_ws/src/libraries/STM32F4xx_StdPeriph_Driver/src/stm32f4xx_i2c.c ****   }
 493:/home/rdu/Workspace/project_templates/mcu/stm32_ws/src/libraries/STM32F4xx_StdPeriph_Driver/src/stm32f4xx_i2c.c **** }
 749              		.loc 1 493 0
 750 0022 07E0     		b	.L41
 751              	.L39:
 491:/home/rdu/Workspace/project_templates/mcu/stm32_ws/src/libraries/STM32F4xx_StdPeriph_Driver/src/stm32f4xx_i2c.c ****   }
 752              		.loc 1 491 0
 753 0024 019B     		ldr	r3, [sp, #4]
 754 0026 1B88     		ldrh	r3, [r3]	@ movhi
 755 0028 9BB2     		uxth	r3, r3
 756 002a 23F48063 		bic	r3, r3, #1024
 757 002e 9AB2     		uxth	r2, r3
 758 0030 019B     		ldr	r3, [sp, #4]
 759 0032 1A80     		strh	r2, [r3]	@ movhi
 760              	.L41:
 761              		.loc 1 493 0
 762 0034 00BF     		nop
 763 0036 02B0     		add	sp, sp, #8
 764              	.LCFI21:
 765              		.cfi_def_cfa_offset 0
 766              		@ sp needed
 767 0038 7047     		bx	lr
 768              		.cfi_endproc
 769              	.LFE132:
 771              		.section	.text.I2C_OwnAddress2Config,"ax",%progbits
 772              		.align	1
 773              		.global	I2C_OwnAddress2Config
 774              		.syntax unified
 775              		.thumb
 776              		.thumb_func
 777              		.fpu fpv4-sp-d16
 779              	I2C_OwnAddress2Config:
 780              	.LFB133:
 494:/home/rdu/Workspace/project_templates/mcu/stm32_ws/src/libraries/STM32F4xx_StdPeriph_Driver/src/stm32f4xx_i2c.c **** 
 495:/home/rdu/Workspace/project_templates/mcu/stm32_ws/src/libraries/STM32F4xx_StdPeriph_Driver/src/stm32f4xx_i2c.c **** /**
 496:/home/rdu/Workspace/project_templates/mcu/stm32_ws/src/libraries/STM32F4xx_StdPeriph_Driver/src/stm32f4xx_i2c.c ****   * @brief  Configures the specified I2C own address2.
 497:/home/rdu/Workspace/project_templates/mcu/stm32_ws/src/libraries/STM32F4xx_StdPeriph_Driver/src/stm32f4xx_i2c.c ****   * @param  I2Cx: where x can be 1, 2 or 3 to select the I2C peripheral.
 498:/home/rdu/Workspace/project_templates/mcu/stm32_ws/src/libraries/STM32F4xx_StdPeriph_Driver/src/stm32f4xx_i2c.c ****   * @param  Address: specifies the 7bit I2C own address2.
 499:/home/rdu/Workspace/project_templates/mcu/stm32_ws/src/libraries/STM32F4xx_StdPeriph_Driver/src/stm32f4xx_i2c.c ****   * @retval None.
 500:/home/rdu/Workspace/project_templates/mcu/stm32_ws/src/libraries/STM32F4xx_StdPeriph_Driver/src/stm32f4xx_i2c.c ****   */
 501:/home/rdu/Workspace/project_templates/mcu/stm32_ws/src/libraries/STM32F4xx_StdPeriph_Driver/src/stm32f4xx_i2c.c **** void I2C_OwnAddress2Config(I2C_TypeDef* I2Cx, uint8_t Address)
 502:/home/rdu/Workspace/project_templates/mcu/stm32_ws/src/libraries/STM32F4xx_StdPeriph_Driver/src/stm32f4xx_i2c.c **** {
 781              		.loc 1 502 0
 782              		.cfi_startproc
 783              		@ args = 0, pretend = 0, frame = 16
 784              		@ frame_needed = 0, uses_anonymous_args = 0
 785              		@ link register save eliminated.
 786 0000 84B0     		sub	sp, sp, #16
 787              	.LCFI22:
 788              		.cfi_def_cfa_offset 16
 789 0002 0190     		str	r0, [sp, #4]
 790 0004 0B46     		mov	r3, r1
 791 0006 8DF80330 		strb	r3, [sp, #3]
 503:/home/rdu/Workspace/project_templates/mcu/stm32_ws/src/libraries/STM32F4xx_StdPeriph_Driver/src/stm32f4xx_i2c.c ****   uint16_t tmpreg = 0;
 792              		.loc 1 503 0
 793 000a 0023     		movs	r3, #0
 794 000c ADF80E30 		strh	r3, [sp, #14]	@ movhi
 504:/home/rdu/Workspace/project_templates/mcu/stm32_ws/src/libraries/STM32F4xx_StdPeriph_Driver/src/stm32f4xx_i2c.c **** 
 505:/home/rdu/Workspace/project_templates/mcu/stm32_ws/src/libraries/STM32F4xx_StdPeriph_Driver/src/stm32f4xx_i2c.c ****   /* Check the parameters */
 506:/home/rdu/Workspace/project_templates/mcu/stm32_ws/src/libraries/STM32F4xx_StdPeriph_Driver/src/stm32f4xx_i2c.c ****   assert_param(IS_I2C_ALL_PERIPH(I2Cx));
 507:/home/rdu/Workspace/project_templates/mcu/stm32_ws/src/libraries/STM32F4xx_StdPeriph_Driver/src/stm32f4xx_i2c.c **** 
 508:/home/rdu/Workspace/project_templates/mcu/stm32_ws/src/libraries/STM32F4xx_StdPeriph_Driver/src/stm32f4xx_i2c.c ****   /* Get the old register value */
 509:/home/rdu/Workspace/project_templates/mcu/stm32_ws/src/libraries/STM32F4xx_StdPeriph_Driver/src/stm32f4xx_i2c.c ****   tmpreg = I2Cx->OAR2;
 795              		.loc 1 509 0
 796 0010 019B     		ldr	r3, [sp, #4]
 797 0012 9B89     		ldrh	r3, [r3, #12]	@ movhi
 798 0014 ADF80E30 		strh	r3, [sp, #14]	@ movhi
 510:/home/rdu/Workspace/project_templates/mcu/stm32_ws/src/libraries/STM32F4xx_StdPeriph_Driver/src/stm32f4xx_i2c.c **** 
 511:/home/rdu/Workspace/project_templates/mcu/stm32_ws/src/libraries/STM32F4xx_StdPeriph_Driver/src/stm32f4xx_i2c.c ****   /* Reset I2Cx Own address2 bit [7:1] */
 512:/home/rdu/Workspace/project_templates/mcu/stm32_ws/src/libraries/STM32F4xx_StdPeriph_Driver/src/stm32f4xx_i2c.c ****   tmpreg &= (uint16_t)~((uint16_t)I2C_OAR2_ADD2);
 799              		.loc 1 512 0
 800 0018 BDF80E30 		ldrh	r3, [sp, #14]	@ movhi
 801 001c 23F0FE03 		bic	r3, r3, #254
 802 0020 ADF80E30 		strh	r3, [sp, #14]	@ movhi
 513:/home/rdu/Workspace/project_templates/mcu/stm32_ws/src/libraries/STM32F4xx_StdPeriph_Driver/src/stm32f4xx_i2c.c **** 
 514:/home/rdu/Workspace/project_templates/mcu/stm32_ws/src/libraries/STM32F4xx_StdPeriph_Driver/src/stm32f4xx_i2c.c ****   /* Set I2Cx Own address2 */
 515:/home/rdu/Workspace/project_templates/mcu/stm32_ws/src/libraries/STM32F4xx_StdPeriph_Driver/src/stm32f4xx_i2c.c ****   tmpreg |= (uint16_t)((uint16_t)Address & (uint16_t)0x00FE);
 803              		.loc 1 515 0
 804 0024 9DF80330 		ldrb	r3, [sp, #3]	@ zero_extendqisi2
 805 0028 1BB2     		sxth	r3, r3
 806 002a 03F0FE03 		and	r3, r3, #254
 807 002e 1AB2     		sxth	r2, r3
 808 0030 BDF90E30 		ldrsh	r3, [sp, #14]
 809 0034 1343     		orrs	r3, r3, r2
 810 0036 1BB2     		sxth	r3, r3
 811 0038 ADF80E30 		strh	r3, [sp, #14]	@ movhi
 516:/home/rdu/Workspace/project_templates/mcu/stm32_ws/src/libraries/STM32F4xx_StdPeriph_Driver/src/stm32f4xx_i2c.c **** 
 517:/home/rdu/Workspace/project_templates/mcu/stm32_ws/src/libraries/STM32F4xx_StdPeriph_Driver/src/stm32f4xx_i2c.c ****   /* Store the new register value */
 518:/home/rdu/Workspace/project_templates/mcu/stm32_ws/src/libraries/STM32F4xx_StdPeriph_Driver/src/stm32f4xx_i2c.c ****   I2Cx->OAR2 = tmpreg;
 812              		.loc 1 518 0
 813 003c 019B     		ldr	r3, [sp, #4]
 814 003e BDF80E20 		ldrh	r2, [sp, #14]	@ movhi
 815 0042 9A81     		strh	r2, [r3, #12]	@ movhi
 519:/home/rdu/Workspace/project_templates/mcu/stm32_ws/src/libraries/STM32F4xx_StdPeriph_Driver/src/stm32f4xx_i2c.c **** }
 816              		.loc 1 519 0
 817 0044 00BF     		nop
 818 0046 04B0     		add	sp, sp, #16
 819              	.LCFI23:
 820              		.cfi_def_cfa_offset 0
 821              		@ sp needed
 822 0048 7047     		bx	lr
 823              		.cfi_endproc
 824              	.LFE133:
 826              		.section	.text.I2C_DualAddressCmd,"ax",%progbits
 827              		.align	1
 828              		.global	I2C_DualAddressCmd
 829              		.syntax unified
 830              		.thumb
 831              		.thumb_func
 832              		.fpu fpv4-sp-d16
 834              	I2C_DualAddressCmd:
 835              	.LFB134:
 520:/home/rdu/Workspace/project_templates/mcu/stm32_ws/src/libraries/STM32F4xx_StdPeriph_Driver/src/stm32f4xx_i2c.c **** 
 521:/home/rdu/Workspace/project_templates/mcu/stm32_ws/src/libraries/STM32F4xx_StdPeriph_Driver/src/stm32f4xx_i2c.c **** /**
 522:/home/rdu/Workspace/project_templates/mcu/stm32_ws/src/libraries/STM32F4xx_StdPeriph_Driver/src/stm32f4xx_i2c.c ****   * @brief  Enables or disables the specified I2C dual addressing mode.
 523:/home/rdu/Workspace/project_templates/mcu/stm32_ws/src/libraries/STM32F4xx_StdPeriph_Driver/src/stm32f4xx_i2c.c ****   * @param  I2Cx: where x can be 1, 2 or 3 to select the I2C peripheral.
 524:/home/rdu/Workspace/project_templates/mcu/stm32_ws/src/libraries/STM32F4xx_StdPeriph_Driver/src/stm32f4xx_i2c.c ****   * @param  NewState: new state of the I2C dual addressing mode.
 525:/home/rdu/Workspace/project_templates/mcu/stm32_ws/src/libraries/STM32F4xx_StdPeriph_Driver/src/stm32f4xx_i2c.c ****   *          This parameter can be: ENABLE or DISABLE.
 526:/home/rdu/Workspace/project_templates/mcu/stm32_ws/src/libraries/STM32F4xx_StdPeriph_Driver/src/stm32f4xx_i2c.c ****   * @retval None
 527:/home/rdu/Workspace/project_templates/mcu/stm32_ws/src/libraries/STM32F4xx_StdPeriph_Driver/src/stm32f4xx_i2c.c ****   */
 528:/home/rdu/Workspace/project_templates/mcu/stm32_ws/src/libraries/STM32F4xx_StdPeriph_Driver/src/stm32f4xx_i2c.c **** void I2C_DualAddressCmd(I2C_TypeDef* I2Cx, FunctionalState NewState)
 529:/home/rdu/Workspace/project_templates/mcu/stm32_ws/src/libraries/STM32F4xx_StdPeriph_Driver/src/stm32f4xx_i2c.c **** {
 836              		.loc 1 529 0
 837              		.cfi_startproc
 838              		@ args = 0, pretend = 0, frame = 8
 839              		@ frame_needed = 0, uses_anonymous_args = 0
 840              		@ link register save eliminated.
 841 0000 82B0     		sub	sp, sp, #8
 842              	.LCFI24:
 843              		.cfi_def_cfa_offset 8
 844 0002 0190     		str	r0, [sp, #4]
 845 0004 0B46     		mov	r3, r1
 846 0006 8DF80330 		strb	r3, [sp, #3]
 530:/home/rdu/Workspace/project_templates/mcu/stm32_ws/src/libraries/STM32F4xx_StdPeriph_Driver/src/stm32f4xx_i2c.c ****   /* Check the parameters */
 531:/home/rdu/Workspace/project_templates/mcu/stm32_ws/src/libraries/STM32F4xx_StdPeriph_Driver/src/stm32f4xx_i2c.c ****   assert_param(IS_I2C_ALL_PERIPH(I2Cx));
 532:/home/rdu/Workspace/project_templates/mcu/stm32_ws/src/libraries/STM32F4xx_StdPeriph_Driver/src/stm32f4xx_i2c.c ****   assert_param(IS_FUNCTIONAL_STATE(NewState));
 533:/home/rdu/Workspace/project_templates/mcu/stm32_ws/src/libraries/STM32F4xx_StdPeriph_Driver/src/stm32f4xx_i2c.c ****   if (NewState != DISABLE)
 847              		.loc 1 533 0
 848 000a 9DF80330 		ldrb	r3, [sp, #3]	@ zero_extendqisi2
 849 000e 002B     		cmp	r3, #0
 850 0010 08D0     		beq	.L44
 534:/home/rdu/Workspace/project_templates/mcu/stm32_ws/src/libraries/STM32F4xx_StdPeriph_Driver/src/stm32f4xx_i2c.c ****   {
 535:/home/rdu/Workspace/project_templates/mcu/stm32_ws/src/libraries/STM32F4xx_StdPeriph_Driver/src/stm32f4xx_i2c.c ****     /* Enable dual addressing mode */
 536:/home/rdu/Workspace/project_templates/mcu/stm32_ws/src/libraries/STM32F4xx_StdPeriph_Driver/src/stm32f4xx_i2c.c ****     I2Cx->OAR2 |= I2C_OAR2_ENDUAL;
 851              		.loc 1 536 0
 852 0012 019B     		ldr	r3, [sp, #4]
 853 0014 9B89     		ldrh	r3, [r3, #12]	@ movhi
 854 0016 9BB2     		uxth	r3, r3
 855 0018 43F00103 		orr	r3, r3, #1
 856 001c 9AB2     		uxth	r2, r3
 857 001e 019B     		ldr	r3, [sp, #4]
 858 0020 9A81     		strh	r2, [r3, #12]	@ movhi
 537:/home/rdu/Workspace/project_templates/mcu/stm32_ws/src/libraries/STM32F4xx_StdPeriph_Driver/src/stm32f4xx_i2c.c ****   }
 538:/home/rdu/Workspace/project_templates/mcu/stm32_ws/src/libraries/STM32F4xx_StdPeriph_Driver/src/stm32f4xx_i2c.c ****   else
 539:/home/rdu/Workspace/project_templates/mcu/stm32_ws/src/libraries/STM32F4xx_StdPeriph_Driver/src/stm32f4xx_i2c.c ****   {
 540:/home/rdu/Workspace/project_templates/mcu/stm32_ws/src/libraries/STM32F4xx_StdPeriph_Driver/src/stm32f4xx_i2c.c ****     /* Disable dual addressing mode */
 541:/home/rdu/Workspace/project_templates/mcu/stm32_ws/src/libraries/STM32F4xx_StdPeriph_Driver/src/stm32f4xx_i2c.c ****     I2Cx->OAR2 &= (uint16_t)~((uint16_t)I2C_OAR2_ENDUAL);
 542:/home/rdu/Workspace/project_templates/mcu/stm32_ws/src/libraries/STM32F4xx_StdPeriph_Driver/src/stm32f4xx_i2c.c ****   }
 543:/home/rdu/Workspace/project_templates/mcu/stm32_ws/src/libraries/STM32F4xx_StdPeriph_Driver/src/stm32f4xx_i2c.c **** }
 859              		.loc 1 543 0
 860 0022 07E0     		b	.L46
 861              	.L44:
 541:/home/rdu/Workspace/project_templates/mcu/stm32_ws/src/libraries/STM32F4xx_StdPeriph_Driver/src/stm32f4xx_i2c.c ****   }
 862              		.loc 1 541 0
 863 0024 019B     		ldr	r3, [sp, #4]
 864 0026 9B89     		ldrh	r3, [r3, #12]	@ movhi
 865 0028 9BB2     		uxth	r3, r3
 866 002a 23F00103 		bic	r3, r3, #1
 867 002e 9AB2     		uxth	r2, r3
 868 0030 019B     		ldr	r3, [sp, #4]
 869 0032 9A81     		strh	r2, [r3, #12]	@ movhi
 870              	.L46:
 871              		.loc 1 543 0
 872 0034 00BF     		nop
 873 0036 02B0     		add	sp, sp, #8
 874              	.LCFI25:
 875              		.cfi_def_cfa_offset 0
 876              		@ sp needed
 877 0038 7047     		bx	lr
 878              		.cfi_endproc
 879              	.LFE134:
 881              		.section	.text.I2C_GeneralCallCmd,"ax",%progbits
 882              		.align	1
 883              		.global	I2C_GeneralCallCmd
 884              		.syntax unified
 885              		.thumb
 886              		.thumb_func
 887              		.fpu fpv4-sp-d16
 889              	I2C_GeneralCallCmd:
 890              	.LFB135:
 544:/home/rdu/Workspace/project_templates/mcu/stm32_ws/src/libraries/STM32F4xx_StdPeriph_Driver/src/stm32f4xx_i2c.c **** 
 545:/home/rdu/Workspace/project_templates/mcu/stm32_ws/src/libraries/STM32F4xx_StdPeriph_Driver/src/stm32f4xx_i2c.c **** /**
 546:/home/rdu/Workspace/project_templates/mcu/stm32_ws/src/libraries/STM32F4xx_StdPeriph_Driver/src/stm32f4xx_i2c.c ****   * @brief  Enables or disables the specified I2C general call feature.
 547:/home/rdu/Workspace/project_templates/mcu/stm32_ws/src/libraries/STM32F4xx_StdPeriph_Driver/src/stm32f4xx_i2c.c ****   * @param  I2Cx: where x can be 1, 2 or 3 to select the I2C peripheral.
 548:/home/rdu/Workspace/project_templates/mcu/stm32_ws/src/libraries/STM32F4xx_StdPeriph_Driver/src/stm32f4xx_i2c.c ****   * @param  NewState: new state of the I2C General call.
 549:/home/rdu/Workspace/project_templates/mcu/stm32_ws/src/libraries/STM32F4xx_StdPeriph_Driver/src/stm32f4xx_i2c.c ****   *          This parameter can be: ENABLE or DISABLE.
 550:/home/rdu/Workspace/project_templates/mcu/stm32_ws/src/libraries/STM32F4xx_StdPeriph_Driver/src/stm32f4xx_i2c.c ****   * @retval None
 551:/home/rdu/Workspace/project_templates/mcu/stm32_ws/src/libraries/STM32F4xx_StdPeriph_Driver/src/stm32f4xx_i2c.c ****   */
 552:/home/rdu/Workspace/project_templates/mcu/stm32_ws/src/libraries/STM32F4xx_StdPeriph_Driver/src/stm32f4xx_i2c.c **** void I2C_GeneralCallCmd(I2C_TypeDef* I2Cx, FunctionalState NewState)
 553:/home/rdu/Workspace/project_templates/mcu/stm32_ws/src/libraries/STM32F4xx_StdPeriph_Driver/src/stm32f4xx_i2c.c **** {
 891              		.loc 1 553 0
 892              		.cfi_startproc
 893              		@ args = 0, pretend = 0, frame = 8
 894              		@ frame_needed = 0, uses_anonymous_args = 0
 895              		@ link register save eliminated.
 896 0000 82B0     		sub	sp, sp, #8
 897              	.LCFI26:
 898              		.cfi_def_cfa_offset 8
 899 0002 0190     		str	r0, [sp, #4]
 900 0004 0B46     		mov	r3, r1
 901 0006 8DF80330 		strb	r3, [sp, #3]
 554:/home/rdu/Workspace/project_templates/mcu/stm32_ws/src/libraries/STM32F4xx_StdPeriph_Driver/src/stm32f4xx_i2c.c ****   /* Check the parameters */
 555:/home/rdu/Workspace/project_templates/mcu/stm32_ws/src/libraries/STM32F4xx_StdPeriph_Driver/src/stm32f4xx_i2c.c ****   assert_param(IS_I2C_ALL_PERIPH(I2Cx));
 556:/home/rdu/Workspace/project_templates/mcu/stm32_ws/src/libraries/STM32F4xx_StdPeriph_Driver/src/stm32f4xx_i2c.c ****   assert_param(IS_FUNCTIONAL_STATE(NewState));
 557:/home/rdu/Workspace/project_templates/mcu/stm32_ws/src/libraries/STM32F4xx_StdPeriph_Driver/src/stm32f4xx_i2c.c ****   if (NewState != DISABLE)
 902              		.loc 1 557 0
 903 000a 9DF80330 		ldrb	r3, [sp, #3]	@ zero_extendqisi2
 904 000e 002B     		cmp	r3, #0
 905 0010 08D0     		beq	.L48
 558:/home/rdu/Workspace/project_templates/mcu/stm32_ws/src/libraries/STM32F4xx_StdPeriph_Driver/src/stm32f4xx_i2c.c ****   {
 559:/home/rdu/Workspace/project_templates/mcu/stm32_ws/src/libraries/STM32F4xx_StdPeriph_Driver/src/stm32f4xx_i2c.c ****     /* Enable general call */
 560:/home/rdu/Workspace/project_templates/mcu/stm32_ws/src/libraries/STM32F4xx_StdPeriph_Driver/src/stm32f4xx_i2c.c ****     I2Cx->CR1 |= I2C_CR1_ENGC;
 906              		.loc 1 560 0
 907 0012 019B     		ldr	r3, [sp, #4]
 908 0014 1B88     		ldrh	r3, [r3]	@ movhi
 909 0016 9BB2     		uxth	r3, r3
 910 0018 43F04003 		orr	r3, r3, #64
 911 001c 9AB2     		uxth	r2, r3
 912 001e 019B     		ldr	r3, [sp, #4]
 913 0020 1A80     		strh	r2, [r3]	@ movhi
 561:/home/rdu/Workspace/project_templates/mcu/stm32_ws/src/libraries/STM32F4xx_StdPeriph_Driver/src/stm32f4xx_i2c.c ****   }
 562:/home/rdu/Workspace/project_templates/mcu/stm32_ws/src/libraries/STM32F4xx_StdPeriph_Driver/src/stm32f4xx_i2c.c ****   else
 563:/home/rdu/Workspace/project_templates/mcu/stm32_ws/src/libraries/STM32F4xx_StdPeriph_Driver/src/stm32f4xx_i2c.c ****   {
 564:/home/rdu/Workspace/project_templates/mcu/stm32_ws/src/libraries/STM32F4xx_StdPeriph_Driver/src/stm32f4xx_i2c.c ****     /* Disable general call */
 565:/home/rdu/Workspace/project_templates/mcu/stm32_ws/src/libraries/STM32F4xx_StdPeriph_Driver/src/stm32f4xx_i2c.c ****     I2Cx->CR1 &= (uint16_t)~((uint16_t)I2C_CR1_ENGC);
 566:/home/rdu/Workspace/project_templates/mcu/stm32_ws/src/libraries/STM32F4xx_StdPeriph_Driver/src/stm32f4xx_i2c.c ****   }
 567:/home/rdu/Workspace/project_templates/mcu/stm32_ws/src/libraries/STM32F4xx_StdPeriph_Driver/src/stm32f4xx_i2c.c **** }
 914              		.loc 1 567 0
 915 0022 07E0     		b	.L50
 916              	.L48:
 565:/home/rdu/Workspace/project_templates/mcu/stm32_ws/src/libraries/STM32F4xx_StdPeriph_Driver/src/stm32f4xx_i2c.c ****   }
 917              		.loc 1 565 0
 918 0024 019B     		ldr	r3, [sp, #4]
 919 0026 1B88     		ldrh	r3, [r3]	@ movhi
 920 0028 9BB2     		uxth	r3, r3
 921 002a 23F04003 		bic	r3, r3, #64
 922 002e 9AB2     		uxth	r2, r3
 923 0030 019B     		ldr	r3, [sp, #4]
 924 0032 1A80     		strh	r2, [r3]	@ movhi
 925              	.L50:
 926              		.loc 1 567 0
 927 0034 00BF     		nop
 928 0036 02B0     		add	sp, sp, #8
 929              	.LCFI27:
 930              		.cfi_def_cfa_offset 0
 931              		@ sp needed
 932 0038 7047     		bx	lr
 933              		.cfi_endproc
 934              	.LFE135:
 936              		.section	.text.I2C_SoftwareResetCmd,"ax",%progbits
 937              		.align	1
 938              		.global	I2C_SoftwareResetCmd
 939              		.syntax unified
 940              		.thumb
 941              		.thumb_func
 942              		.fpu fpv4-sp-d16
 944              	I2C_SoftwareResetCmd:
 945              	.LFB136:
 568:/home/rdu/Workspace/project_templates/mcu/stm32_ws/src/libraries/STM32F4xx_StdPeriph_Driver/src/stm32f4xx_i2c.c **** 
 569:/home/rdu/Workspace/project_templates/mcu/stm32_ws/src/libraries/STM32F4xx_StdPeriph_Driver/src/stm32f4xx_i2c.c **** /**
 570:/home/rdu/Workspace/project_templates/mcu/stm32_ws/src/libraries/STM32F4xx_StdPeriph_Driver/src/stm32f4xx_i2c.c ****   * @brief  Enables or disables the specified I2C software reset.
 571:/home/rdu/Workspace/project_templates/mcu/stm32_ws/src/libraries/STM32F4xx_StdPeriph_Driver/src/stm32f4xx_i2c.c ****   * @note   When software reset is enabled, the I2C IOs are released (this can
 572:/home/rdu/Workspace/project_templates/mcu/stm32_ws/src/libraries/STM32F4xx_StdPeriph_Driver/src/stm32f4xx_i2c.c ****   *         be useful to recover from bus errors).  
 573:/home/rdu/Workspace/project_templates/mcu/stm32_ws/src/libraries/STM32F4xx_StdPeriph_Driver/src/stm32f4xx_i2c.c ****   * @param  I2Cx: where x can be 1, 2 or 3 to select the I2C peripheral.
 574:/home/rdu/Workspace/project_templates/mcu/stm32_ws/src/libraries/STM32F4xx_StdPeriph_Driver/src/stm32f4xx_i2c.c ****   * @param  NewState: new state of the I2C software reset.
 575:/home/rdu/Workspace/project_templates/mcu/stm32_ws/src/libraries/STM32F4xx_StdPeriph_Driver/src/stm32f4xx_i2c.c ****   *          This parameter can be: ENABLE or DISABLE.
 576:/home/rdu/Workspace/project_templates/mcu/stm32_ws/src/libraries/STM32F4xx_StdPeriph_Driver/src/stm32f4xx_i2c.c ****   * @retval None
 577:/home/rdu/Workspace/project_templates/mcu/stm32_ws/src/libraries/STM32F4xx_StdPeriph_Driver/src/stm32f4xx_i2c.c ****   */
 578:/home/rdu/Workspace/project_templates/mcu/stm32_ws/src/libraries/STM32F4xx_StdPeriph_Driver/src/stm32f4xx_i2c.c **** void I2C_SoftwareResetCmd(I2C_TypeDef* I2Cx, FunctionalState NewState)
 579:/home/rdu/Workspace/project_templates/mcu/stm32_ws/src/libraries/STM32F4xx_StdPeriph_Driver/src/stm32f4xx_i2c.c **** {
 946              		.loc 1 579 0
 947              		.cfi_startproc
 948              		@ args = 0, pretend = 0, frame = 8
 949              		@ frame_needed = 0, uses_anonymous_args = 0
 950              		@ link register save eliminated.
 951 0000 82B0     		sub	sp, sp, #8
 952              	.LCFI28:
 953              		.cfi_def_cfa_offset 8
 954 0002 0190     		str	r0, [sp, #4]
 955 0004 0B46     		mov	r3, r1
 956 0006 8DF80330 		strb	r3, [sp, #3]
 580:/home/rdu/Workspace/project_templates/mcu/stm32_ws/src/libraries/STM32F4xx_StdPeriph_Driver/src/stm32f4xx_i2c.c ****   /* Check the parameters */
 581:/home/rdu/Workspace/project_templates/mcu/stm32_ws/src/libraries/STM32F4xx_StdPeriph_Driver/src/stm32f4xx_i2c.c ****   assert_param(IS_I2C_ALL_PERIPH(I2Cx));
 582:/home/rdu/Workspace/project_templates/mcu/stm32_ws/src/libraries/STM32F4xx_StdPeriph_Driver/src/stm32f4xx_i2c.c ****   assert_param(IS_FUNCTIONAL_STATE(NewState));
 583:/home/rdu/Workspace/project_templates/mcu/stm32_ws/src/libraries/STM32F4xx_StdPeriph_Driver/src/stm32f4xx_i2c.c ****   if (NewState != DISABLE)
 957              		.loc 1 583 0
 958 000a 9DF80330 		ldrb	r3, [sp, #3]	@ zero_extendqisi2
 959 000e 002B     		cmp	r3, #0
 960 0010 0AD0     		beq	.L52
 584:/home/rdu/Workspace/project_templates/mcu/stm32_ws/src/libraries/STM32F4xx_StdPeriph_Driver/src/stm32f4xx_i2c.c ****   {
 585:/home/rdu/Workspace/project_templates/mcu/stm32_ws/src/libraries/STM32F4xx_StdPeriph_Driver/src/stm32f4xx_i2c.c ****     /* Peripheral under reset */
 586:/home/rdu/Workspace/project_templates/mcu/stm32_ws/src/libraries/STM32F4xx_StdPeriph_Driver/src/stm32f4xx_i2c.c ****     I2Cx->CR1 |= I2C_CR1_SWRST;
 961              		.loc 1 586 0
 962 0012 019B     		ldr	r3, [sp, #4]
 963 0014 1B88     		ldrh	r3, [r3]	@ movhi
 964 0016 9BB2     		uxth	r3, r3
 965 0018 6FEA4343 		mvn	r3, r3, lsl #17
 966 001c 6FEA5343 		mvn	r3, r3, lsr #17
 967 0020 9AB2     		uxth	r2, r3
 968 0022 019B     		ldr	r3, [sp, #4]
 969 0024 1A80     		strh	r2, [r3]	@ movhi
 587:/home/rdu/Workspace/project_templates/mcu/stm32_ws/src/libraries/STM32F4xx_StdPeriph_Driver/src/stm32f4xx_i2c.c ****   }
 588:/home/rdu/Workspace/project_templates/mcu/stm32_ws/src/libraries/STM32F4xx_StdPeriph_Driver/src/stm32f4xx_i2c.c ****   else
 589:/home/rdu/Workspace/project_templates/mcu/stm32_ws/src/libraries/STM32F4xx_StdPeriph_Driver/src/stm32f4xx_i2c.c ****   {
 590:/home/rdu/Workspace/project_templates/mcu/stm32_ws/src/libraries/STM32F4xx_StdPeriph_Driver/src/stm32f4xx_i2c.c ****     /* Peripheral not under reset */
 591:/home/rdu/Workspace/project_templates/mcu/stm32_ws/src/libraries/STM32F4xx_StdPeriph_Driver/src/stm32f4xx_i2c.c ****     I2Cx->CR1 &= (uint16_t)~((uint16_t)I2C_CR1_SWRST);
 592:/home/rdu/Workspace/project_templates/mcu/stm32_ws/src/libraries/STM32F4xx_StdPeriph_Driver/src/stm32f4xx_i2c.c ****   }
 593:/home/rdu/Workspace/project_templates/mcu/stm32_ws/src/libraries/STM32F4xx_StdPeriph_Driver/src/stm32f4xx_i2c.c **** }
 970              		.loc 1 593 0
 971 0026 07E0     		b	.L54
 972              	.L52:
 591:/home/rdu/Workspace/project_templates/mcu/stm32_ws/src/libraries/STM32F4xx_StdPeriph_Driver/src/stm32f4xx_i2c.c ****   }
 973              		.loc 1 591 0
 974 0028 019B     		ldr	r3, [sp, #4]
 975 002a 1B88     		ldrh	r3, [r3]	@ movhi
 976 002c 9BB2     		uxth	r3, r3
 977 002e C3F30E03 		ubfx	r3, r3, #0, #15
 978 0032 9AB2     		uxth	r2, r3
 979 0034 019B     		ldr	r3, [sp, #4]
 980 0036 1A80     		strh	r2, [r3]	@ movhi
 981              	.L54:
 982              		.loc 1 593 0
 983 0038 00BF     		nop
 984 003a 02B0     		add	sp, sp, #8
 985              	.LCFI29:
 986              		.cfi_def_cfa_offset 0
 987              		@ sp needed
 988 003c 7047     		bx	lr
 989              		.cfi_endproc
 990              	.LFE136:
 992              		.section	.text.I2C_StretchClockCmd,"ax",%progbits
 993              		.align	1
 994              		.global	I2C_StretchClockCmd
 995              		.syntax unified
 996              		.thumb
 997              		.thumb_func
 998              		.fpu fpv4-sp-d16
 1000              	I2C_StretchClockCmd:
 1001              	.LFB137:
 594:/home/rdu/Workspace/project_templates/mcu/stm32_ws/src/libraries/STM32F4xx_StdPeriph_Driver/src/stm32f4xx_i2c.c **** 
 595:/home/rdu/Workspace/project_templates/mcu/stm32_ws/src/libraries/STM32F4xx_StdPeriph_Driver/src/stm32f4xx_i2c.c **** /**
 596:/home/rdu/Workspace/project_templates/mcu/stm32_ws/src/libraries/STM32F4xx_StdPeriph_Driver/src/stm32f4xx_i2c.c ****   * @brief  Enables or disables the specified I2C Clock stretching.
 597:/home/rdu/Workspace/project_templates/mcu/stm32_ws/src/libraries/STM32F4xx_StdPeriph_Driver/src/stm32f4xx_i2c.c ****   * @param  I2Cx: where x can be 1, 2 or 3 to select the I2C peripheral.
 598:/home/rdu/Workspace/project_templates/mcu/stm32_ws/src/libraries/STM32F4xx_StdPeriph_Driver/src/stm32f4xx_i2c.c ****   * @param  NewState: new state of the I2Cx Clock stretching.
 599:/home/rdu/Workspace/project_templates/mcu/stm32_ws/src/libraries/STM32F4xx_StdPeriph_Driver/src/stm32f4xx_i2c.c ****   *          This parameter can be: ENABLE or DISABLE.
 600:/home/rdu/Workspace/project_templates/mcu/stm32_ws/src/libraries/STM32F4xx_StdPeriph_Driver/src/stm32f4xx_i2c.c ****   * @retval None
 601:/home/rdu/Workspace/project_templates/mcu/stm32_ws/src/libraries/STM32F4xx_StdPeriph_Driver/src/stm32f4xx_i2c.c ****   */
 602:/home/rdu/Workspace/project_templates/mcu/stm32_ws/src/libraries/STM32F4xx_StdPeriph_Driver/src/stm32f4xx_i2c.c **** void I2C_StretchClockCmd(I2C_TypeDef* I2Cx, FunctionalState NewState)
 603:/home/rdu/Workspace/project_templates/mcu/stm32_ws/src/libraries/STM32F4xx_StdPeriph_Driver/src/stm32f4xx_i2c.c **** {
 1002              		.loc 1 603 0
 1003              		.cfi_startproc
 1004              		@ args = 0, pretend = 0, frame = 8
 1005              		@ frame_needed = 0, uses_anonymous_args = 0
 1006              		@ link register save eliminated.
 1007 0000 82B0     		sub	sp, sp, #8
 1008              	.LCFI30:
 1009              		.cfi_def_cfa_offset 8
 1010 0002 0190     		str	r0, [sp, #4]
 1011 0004 0B46     		mov	r3, r1
 1012 0006 8DF80330 		strb	r3, [sp, #3]
 604:/home/rdu/Workspace/project_templates/mcu/stm32_ws/src/libraries/STM32F4xx_StdPeriph_Driver/src/stm32f4xx_i2c.c ****   /* Check the parameters */
 605:/home/rdu/Workspace/project_templates/mcu/stm32_ws/src/libraries/STM32F4xx_StdPeriph_Driver/src/stm32f4xx_i2c.c ****   assert_param(IS_I2C_ALL_PERIPH(I2Cx));
 606:/home/rdu/Workspace/project_templates/mcu/stm32_ws/src/libraries/STM32F4xx_StdPeriph_Driver/src/stm32f4xx_i2c.c ****   assert_param(IS_FUNCTIONAL_STATE(NewState));
 607:/home/rdu/Workspace/project_templates/mcu/stm32_ws/src/libraries/STM32F4xx_StdPeriph_Driver/src/stm32f4xx_i2c.c ****   if (NewState == DISABLE)
 1013              		.loc 1 607 0
 1014 000a 9DF80330 		ldrb	r3, [sp, #3]	@ zero_extendqisi2
 1015 000e 002B     		cmp	r3, #0
 1016 0010 08D1     		bne	.L56
 608:/home/rdu/Workspace/project_templates/mcu/stm32_ws/src/libraries/STM32F4xx_StdPeriph_Driver/src/stm32f4xx_i2c.c ****   {
 609:/home/rdu/Workspace/project_templates/mcu/stm32_ws/src/libraries/STM32F4xx_StdPeriph_Driver/src/stm32f4xx_i2c.c ****     /* Enable the selected I2C Clock stretching */
 610:/home/rdu/Workspace/project_templates/mcu/stm32_ws/src/libraries/STM32F4xx_StdPeriph_Driver/src/stm32f4xx_i2c.c ****     I2Cx->CR1 |= I2C_CR1_NOSTRETCH;
 1017              		.loc 1 610 0
 1018 0012 019B     		ldr	r3, [sp, #4]
 1019 0014 1B88     		ldrh	r3, [r3]	@ movhi
 1020 0016 9BB2     		uxth	r3, r3
 1021 0018 43F08003 		orr	r3, r3, #128
 1022 001c 9AB2     		uxth	r2, r3
 1023 001e 019B     		ldr	r3, [sp, #4]
 1024 0020 1A80     		strh	r2, [r3]	@ movhi
 611:/home/rdu/Workspace/project_templates/mcu/stm32_ws/src/libraries/STM32F4xx_StdPeriph_Driver/src/stm32f4xx_i2c.c ****   }
 612:/home/rdu/Workspace/project_templates/mcu/stm32_ws/src/libraries/STM32F4xx_StdPeriph_Driver/src/stm32f4xx_i2c.c ****   else
 613:/home/rdu/Workspace/project_templates/mcu/stm32_ws/src/libraries/STM32F4xx_StdPeriph_Driver/src/stm32f4xx_i2c.c ****   {
 614:/home/rdu/Workspace/project_templates/mcu/stm32_ws/src/libraries/STM32F4xx_StdPeriph_Driver/src/stm32f4xx_i2c.c ****     /* Disable the selected I2C Clock stretching */
 615:/home/rdu/Workspace/project_templates/mcu/stm32_ws/src/libraries/STM32F4xx_StdPeriph_Driver/src/stm32f4xx_i2c.c ****     I2Cx->CR1 &= (uint16_t)~((uint16_t)I2C_CR1_NOSTRETCH);
 616:/home/rdu/Workspace/project_templates/mcu/stm32_ws/src/libraries/STM32F4xx_StdPeriph_Driver/src/stm32f4xx_i2c.c ****   }
 617:/home/rdu/Workspace/project_templates/mcu/stm32_ws/src/libraries/STM32F4xx_StdPeriph_Driver/src/stm32f4xx_i2c.c **** }
 1025              		.loc 1 617 0
 1026 0022 07E0     		b	.L58
 1027              	.L56:
 615:/home/rdu/Workspace/project_templates/mcu/stm32_ws/src/libraries/STM32F4xx_StdPeriph_Driver/src/stm32f4xx_i2c.c ****   }
 1028              		.loc 1 615 0
 1029 0024 019B     		ldr	r3, [sp, #4]
 1030 0026 1B88     		ldrh	r3, [r3]	@ movhi
 1031 0028 9BB2     		uxth	r3, r3
 1032 002a 23F08003 		bic	r3, r3, #128
 1033 002e 9AB2     		uxth	r2, r3
 1034 0030 019B     		ldr	r3, [sp, #4]
 1035 0032 1A80     		strh	r2, [r3]	@ movhi
 1036              	.L58:
 1037              		.loc 1 617 0
 1038 0034 00BF     		nop
 1039 0036 02B0     		add	sp, sp, #8
 1040              	.LCFI31:
 1041              		.cfi_def_cfa_offset 0
 1042              		@ sp needed
 1043 0038 7047     		bx	lr
 1044              		.cfi_endproc
 1045              	.LFE137:
 1047              		.section	.text.I2C_FastModeDutyCycleConfig,"ax",%progbits
 1048              		.align	1
 1049              		.global	I2C_FastModeDutyCycleConfig
 1050              		.syntax unified
 1051              		.thumb
 1052              		.thumb_func
 1053              		.fpu fpv4-sp-d16
 1055              	I2C_FastModeDutyCycleConfig:
 1056              	.LFB138:
 618:/home/rdu/Workspace/project_templates/mcu/stm32_ws/src/libraries/STM32F4xx_StdPeriph_Driver/src/stm32f4xx_i2c.c **** 
 619:/home/rdu/Workspace/project_templates/mcu/stm32_ws/src/libraries/STM32F4xx_StdPeriph_Driver/src/stm32f4xx_i2c.c **** /**
 620:/home/rdu/Workspace/project_templates/mcu/stm32_ws/src/libraries/STM32F4xx_StdPeriph_Driver/src/stm32f4xx_i2c.c ****   * @brief  Selects the specified I2C fast mode duty cycle.
 621:/home/rdu/Workspace/project_templates/mcu/stm32_ws/src/libraries/STM32F4xx_StdPeriph_Driver/src/stm32f4xx_i2c.c ****   * @param  I2Cx: where x can be 1, 2 or 3 to select the I2C peripheral.
 622:/home/rdu/Workspace/project_templates/mcu/stm32_ws/src/libraries/STM32F4xx_StdPeriph_Driver/src/stm32f4xx_i2c.c ****   * @param  I2C_DutyCycle: specifies the fast mode duty cycle.
 623:/home/rdu/Workspace/project_templates/mcu/stm32_ws/src/libraries/STM32F4xx_StdPeriph_Driver/src/stm32f4xx_i2c.c ****   *          This parameter can be one of the following values:
 624:/home/rdu/Workspace/project_templates/mcu/stm32_ws/src/libraries/STM32F4xx_StdPeriph_Driver/src/stm32f4xx_i2c.c ****   *            @arg I2C_DutyCycle_2: I2C fast mode Tlow/Thigh = 2
 625:/home/rdu/Workspace/project_templates/mcu/stm32_ws/src/libraries/STM32F4xx_StdPeriph_Driver/src/stm32f4xx_i2c.c ****   *            @arg I2C_DutyCycle_16_9: I2C fast mode Tlow/Thigh = 16/9
 626:/home/rdu/Workspace/project_templates/mcu/stm32_ws/src/libraries/STM32F4xx_StdPeriph_Driver/src/stm32f4xx_i2c.c ****   * @retval None
 627:/home/rdu/Workspace/project_templates/mcu/stm32_ws/src/libraries/STM32F4xx_StdPeriph_Driver/src/stm32f4xx_i2c.c ****   */
 628:/home/rdu/Workspace/project_templates/mcu/stm32_ws/src/libraries/STM32F4xx_StdPeriph_Driver/src/stm32f4xx_i2c.c **** void I2C_FastModeDutyCycleConfig(I2C_TypeDef* I2Cx, uint16_t I2C_DutyCycle)
 629:/home/rdu/Workspace/project_templates/mcu/stm32_ws/src/libraries/STM32F4xx_StdPeriph_Driver/src/stm32f4xx_i2c.c **** {
 1057              		.loc 1 629 0
 1058              		.cfi_startproc
 1059              		@ args = 0, pretend = 0, frame = 8
 1060              		@ frame_needed = 0, uses_anonymous_args = 0
 1061              		@ link register save eliminated.
 1062 0000 82B0     		sub	sp, sp, #8
 1063              	.LCFI32:
 1064              		.cfi_def_cfa_offset 8
 1065 0002 0190     		str	r0, [sp, #4]
 1066 0004 0B46     		mov	r3, r1
 1067 0006 ADF80230 		strh	r3, [sp, #2]	@ movhi
 630:/home/rdu/Workspace/project_templates/mcu/stm32_ws/src/libraries/STM32F4xx_StdPeriph_Driver/src/stm32f4xx_i2c.c ****   /* Check the parameters */
 631:/home/rdu/Workspace/project_templates/mcu/stm32_ws/src/libraries/STM32F4xx_StdPeriph_Driver/src/stm32f4xx_i2c.c ****   assert_param(IS_I2C_ALL_PERIPH(I2Cx));
 632:/home/rdu/Workspace/project_templates/mcu/stm32_ws/src/libraries/STM32F4xx_StdPeriph_Driver/src/stm32f4xx_i2c.c ****   assert_param(IS_I2C_DUTY_CYCLE(I2C_DutyCycle));
 633:/home/rdu/Workspace/project_templates/mcu/stm32_ws/src/libraries/STM32F4xx_StdPeriph_Driver/src/stm32f4xx_i2c.c ****   if (I2C_DutyCycle != I2C_DutyCycle_16_9)
 1068              		.loc 1 633 0
 1069 000a BDF80230 		ldrh	r3, [sp, #2]
 1070 000e B3F5804F 		cmp	r3, #16384
 1071 0012 08D0     		beq	.L60
 634:/home/rdu/Workspace/project_templates/mcu/stm32_ws/src/libraries/STM32F4xx_StdPeriph_Driver/src/stm32f4xx_i2c.c ****   {
 635:/home/rdu/Workspace/project_templates/mcu/stm32_ws/src/libraries/STM32F4xx_StdPeriph_Driver/src/stm32f4xx_i2c.c ****     /* I2C fast mode Tlow/Thigh=2 */
 636:/home/rdu/Workspace/project_templates/mcu/stm32_ws/src/libraries/STM32F4xx_StdPeriph_Driver/src/stm32f4xx_i2c.c ****     I2Cx->CCR &= I2C_DutyCycle_2;
 1072              		.loc 1 636 0
 1073 0014 019B     		ldr	r3, [sp, #4]
 1074 0016 9B8B     		ldrh	r3, [r3, #28]	@ movhi
 1075 0018 9BB2     		uxth	r3, r3
 1076 001a 23F48043 		bic	r3, r3, #16384
 1077 001e 9AB2     		uxth	r2, r3
 1078 0020 019B     		ldr	r3, [sp, #4]
 1079 0022 9A83     		strh	r2, [r3, #28]	@ movhi
 637:/home/rdu/Workspace/project_templates/mcu/stm32_ws/src/libraries/STM32F4xx_StdPeriph_Driver/src/stm32f4xx_i2c.c ****   }
 638:/home/rdu/Workspace/project_templates/mcu/stm32_ws/src/libraries/STM32F4xx_StdPeriph_Driver/src/stm32f4xx_i2c.c ****   else
 639:/home/rdu/Workspace/project_templates/mcu/stm32_ws/src/libraries/STM32F4xx_StdPeriph_Driver/src/stm32f4xx_i2c.c ****   {
 640:/home/rdu/Workspace/project_templates/mcu/stm32_ws/src/libraries/STM32F4xx_StdPeriph_Driver/src/stm32f4xx_i2c.c ****     /* I2C fast mode Tlow/Thigh=16/9 */
 641:/home/rdu/Workspace/project_templates/mcu/stm32_ws/src/libraries/STM32F4xx_StdPeriph_Driver/src/stm32f4xx_i2c.c ****     I2Cx->CCR |= I2C_DutyCycle_16_9;
 642:/home/rdu/Workspace/project_templates/mcu/stm32_ws/src/libraries/STM32F4xx_StdPeriph_Driver/src/stm32f4xx_i2c.c ****   }
 643:/home/rdu/Workspace/project_templates/mcu/stm32_ws/src/libraries/STM32F4xx_StdPeriph_Driver/src/stm32f4xx_i2c.c **** }
 1080              		.loc 1 643 0
 1081 0024 07E0     		b	.L62
 1082              	.L60:
 641:/home/rdu/Workspace/project_templates/mcu/stm32_ws/src/libraries/STM32F4xx_StdPeriph_Driver/src/stm32f4xx_i2c.c ****   }
 1083              		.loc 1 641 0
 1084 0026 019B     		ldr	r3, [sp, #4]
 1085 0028 9B8B     		ldrh	r3, [r3, #28]	@ movhi
 1086 002a 9BB2     		uxth	r3, r3
 1087 002c 43F48043 		orr	r3, r3, #16384
 1088 0030 9AB2     		uxth	r2, r3
 1089 0032 019B     		ldr	r3, [sp, #4]
 1090 0034 9A83     		strh	r2, [r3, #28]	@ movhi
 1091              	.L62:
 1092              		.loc 1 643 0
 1093 0036 00BF     		nop
 1094 0038 02B0     		add	sp, sp, #8
 1095              	.LCFI33:
 1096              		.cfi_def_cfa_offset 0
 1097              		@ sp needed
 1098 003a 7047     		bx	lr
 1099              		.cfi_endproc
 1100              	.LFE138:
 1102              		.section	.text.I2C_NACKPositionConfig,"ax",%progbits
 1103              		.align	1
 1104              		.global	I2C_NACKPositionConfig
 1105              		.syntax unified
 1106              		.thumb
 1107              		.thumb_func
 1108              		.fpu fpv4-sp-d16
 1110              	I2C_NACKPositionConfig:
 1111              	.LFB139:
 644:/home/rdu/Workspace/project_templates/mcu/stm32_ws/src/libraries/STM32F4xx_StdPeriph_Driver/src/stm32f4xx_i2c.c **** 
 645:/home/rdu/Workspace/project_templates/mcu/stm32_ws/src/libraries/STM32F4xx_StdPeriph_Driver/src/stm32f4xx_i2c.c **** /**
 646:/home/rdu/Workspace/project_templates/mcu/stm32_ws/src/libraries/STM32F4xx_StdPeriph_Driver/src/stm32f4xx_i2c.c ****   * @brief  Selects the specified I2C NACK position in master receiver mode.
 647:/home/rdu/Workspace/project_templates/mcu/stm32_ws/src/libraries/STM32F4xx_StdPeriph_Driver/src/stm32f4xx_i2c.c ****   * @note   This function is useful in I2C Master Receiver mode when the number
 648:/home/rdu/Workspace/project_templates/mcu/stm32_ws/src/libraries/STM32F4xx_StdPeriph_Driver/src/stm32f4xx_i2c.c ****   *         of data to be received is equal to 2. In this case, this function 
 649:/home/rdu/Workspace/project_templates/mcu/stm32_ws/src/libraries/STM32F4xx_StdPeriph_Driver/src/stm32f4xx_i2c.c ****   *         should be called (with parameter I2C_NACKPosition_Next) before data 
 650:/home/rdu/Workspace/project_templates/mcu/stm32_ws/src/libraries/STM32F4xx_StdPeriph_Driver/src/stm32f4xx_i2c.c ****   *         reception starts,as described in the 2-byte reception procedure 
 651:/home/rdu/Workspace/project_templates/mcu/stm32_ws/src/libraries/STM32F4xx_StdPeriph_Driver/src/stm32f4xx_i2c.c ****   *         recommended in Reference Manual in Section: Master receiver.                
 652:/home/rdu/Workspace/project_templates/mcu/stm32_ws/src/libraries/STM32F4xx_StdPeriph_Driver/src/stm32f4xx_i2c.c ****   * @param  I2Cx: where x can be 1, 2 or 3 to select the I2C peripheral.
 653:/home/rdu/Workspace/project_templates/mcu/stm32_ws/src/libraries/STM32F4xx_StdPeriph_Driver/src/stm32f4xx_i2c.c ****   * @param  I2C_NACKPosition: specifies the NACK position. 
 654:/home/rdu/Workspace/project_templates/mcu/stm32_ws/src/libraries/STM32F4xx_StdPeriph_Driver/src/stm32f4xx_i2c.c ****   *          This parameter can be one of the following values:
 655:/home/rdu/Workspace/project_templates/mcu/stm32_ws/src/libraries/STM32F4xx_StdPeriph_Driver/src/stm32f4xx_i2c.c ****   *            @arg I2C_NACKPosition_Next: indicates that the next byte will be the last
 656:/home/rdu/Workspace/project_templates/mcu/stm32_ws/src/libraries/STM32F4xx_StdPeriph_Driver/src/stm32f4xx_i2c.c ****   *                                        received byte.  
 657:/home/rdu/Workspace/project_templates/mcu/stm32_ws/src/libraries/STM32F4xx_StdPeriph_Driver/src/stm32f4xx_i2c.c ****   *            @arg I2C_NACKPosition_Current: indicates that current byte is the last 
 658:/home/rdu/Workspace/project_templates/mcu/stm32_ws/src/libraries/STM32F4xx_StdPeriph_Driver/src/stm32f4xx_i2c.c ****   *                                           received byte.
 659:/home/rdu/Workspace/project_templates/mcu/stm32_ws/src/libraries/STM32F4xx_StdPeriph_Driver/src/stm32f4xx_i2c.c ****   *            
 660:/home/rdu/Workspace/project_templates/mcu/stm32_ws/src/libraries/STM32F4xx_StdPeriph_Driver/src/stm32f4xx_i2c.c ****   * @note    This function configures the same bit (POS) as I2C_PECPositionConfig() 
 661:/home/rdu/Workspace/project_templates/mcu/stm32_ws/src/libraries/STM32F4xx_StdPeriph_Driver/src/stm32f4xx_i2c.c ****   *          but is intended to be used in I2C mode while I2C_PECPositionConfig() 
 662:/home/rdu/Workspace/project_templates/mcu/stm32_ws/src/libraries/STM32F4xx_StdPeriph_Driver/src/stm32f4xx_i2c.c ****   *          is intended to used in SMBUS mode. 
 663:/home/rdu/Workspace/project_templates/mcu/stm32_ws/src/libraries/STM32F4xx_StdPeriph_Driver/src/stm32f4xx_i2c.c ****   *            
 664:/home/rdu/Workspace/project_templates/mcu/stm32_ws/src/libraries/STM32F4xx_StdPeriph_Driver/src/stm32f4xx_i2c.c ****   * @retval None
 665:/home/rdu/Workspace/project_templates/mcu/stm32_ws/src/libraries/STM32F4xx_StdPeriph_Driver/src/stm32f4xx_i2c.c ****   */
 666:/home/rdu/Workspace/project_templates/mcu/stm32_ws/src/libraries/STM32F4xx_StdPeriph_Driver/src/stm32f4xx_i2c.c **** void I2C_NACKPositionConfig(I2C_TypeDef* I2Cx, uint16_t I2C_NACKPosition)
 667:/home/rdu/Workspace/project_templates/mcu/stm32_ws/src/libraries/STM32F4xx_StdPeriph_Driver/src/stm32f4xx_i2c.c **** {
 1112              		.loc 1 667 0
 1113              		.cfi_startproc
 1114              		@ args = 0, pretend = 0, frame = 8
 1115              		@ frame_needed = 0, uses_anonymous_args = 0
 1116              		@ link register save eliminated.
 1117 0000 82B0     		sub	sp, sp, #8
 1118              	.LCFI34:
 1119              		.cfi_def_cfa_offset 8
 1120 0002 0190     		str	r0, [sp, #4]
 1121 0004 0B46     		mov	r3, r1
 1122 0006 ADF80230 		strh	r3, [sp, #2]	@ movhi
 668:/home/rdu/Workspace/project_templates/mcu/stm32_ws/src/libraries/STM32F4xx_StdPeriph_Driver/src/stm32f4xx_i2c.c ****   /* Check the parameters */
 669:/home/rdu/Workspace/project_templates/mcu/stm32_ws/src/libraries/STM32F4xx_StdPeriph_Driver/src/stm32f4xx_i2c.c ****   assert_param(IS_I2C_ALL_PERIPH(I2Cx));
 670:/home/rdu/Workspace/project_templates/mcu/stm32_ws/src/libraries/STM32F4xx_StdPeriph_Driver/src/stm32f4xx_i2c.c ****   assert_param(IS_I2C_NACK_POSITION(I2C_NACKPosition));
 671:/home/rdu/Workspace/project_templates/mcu/stm32_ws/src/libraries/STM32F4xx_StdPeriph_Driver/src/stm32f4xx_i2c.c ****   
 672:/home/rdu/Workspace/project_templates/mcu/stm32_ws/src/libraries/STM32F4xx_StdPeriph_Driver/src/stm32f4xx_i2c.c ****   /* Check the input parameter */
 673:/home/rdu/Workspace/project_templates/mcu/stm32_ws/src/libraries/STM32F4xx_StdPeriph_Driver/src/stm32f4xx_i2c.c ****   if (I2C_NACKPosition == I2C_NACKPosition_Next)
 1123              		.loc 1 673 0
 1124 000a BDF80230 		ldrh	r3, [sp, #2]
 1125 000e B3F5006F 		cmp	r3, #2048
 1126 0012 08D1     		bne	.L64
 674:/home/rdu/Workspace/project_templates/mcu/stm32_ws/src/libraries/STM32F4xx_StdPeriph_Driver/src/stm32f4xx_i2c.c ****   {
 675:/home/rdu/Workspace/project_templates/mcu/stm32_ws/src/libraries/STM32F4xx_StdPeriph_Driver/src/stm32f4xx_i2c.c ****     /* Next byte in shift register is the last received byte */
 676:/home/rdu/Workspace/project_templates/mcu/stm32_ws/src/libraries/STM32F4xx_StdPeriph_Driver/src/stm32f4xx_i2c.c ****     I2Cx->CR1 |= I2C_NACKPosition_Next;
 1127              		.loc 1 676 0
 1128 0014 019B     		ldr	r3, [sp, #4]
 1129 0016 1B88     		ldrh	r3, [r3]	@ movhi
 1130 0018 9BB2     		uxth	r3, r3
 1131 001a 43F40063 		orr	r3, r3, #2048
 1132 001e 9AB2     		uxth	r2, r3
 1133 0020 019B     		ldr	r3, [sp, #4]
 1134 0022 1A80     		strh	r2, [r3]	@ movhi
 677:/home/rdu/Workspace/project_templates/mcu/stm32_ws/src/libraries/STM32F4xx_StdPeriph_Driver/src/stm32f4xx_i2c.c ****   }
 678:/home/rdu/Workspace/project_templates/mcu/stm32_ws/src/libraries/STM32F4xx_StdPeriph_Driver/src/stm32f4xx_i2c.c ****   else
 679:/home/rdu/Workspace/project_templates/mcu/stm32_ws/src/libraries/STM32F4xx_StdPeriph_Driver/src/stm32f4xx_i2c.c ****   {
 680:/home/rdu/Workspace/project_templates/mcu/stm32_ws/src/libraries/STM32F4xx_StdPeriph_Driver/src/stm32f4xx_i2c.c ****     /* Current byte in shift register is the last received byte */
 681:/home/rdu/Workspace/project_templates/mcu/stm32_ws/src/libraries/STM32F4xx_StdPeriph_Driver/src/stm32f4xx_i2c.c ****     I2Cx->CR1 &= I2C_NACKPosition_Current;
 682:/home/rdu/Workspace/project_templates/mcu/stm32_ws/src/libraries/STM32F4xx_StdPeriph_Driver/src/stm32f4xx_i2c.c ****   }
 683:/home/rdu/Workspace/project_templates/mcu/stm32_ws/src/libraries/STM32F4xx_StdPeriph_Driver/src/stm32f4xx_i2c.c **** }
 1135              		.loc 1 683 0
 1136 0024 07E0     		b	.L66
 1137              	.L64:
 681:/home/rdu/Workspace/project_templates/mcu/stm32_ws/src/libraries/STM32F4xx_StdPeriph_Driver/src/stm32f4xx_i2c.c ****   }
 1138              		.loc 1 681 0
 1139 0026 019B     		ldr	r3, [sp, #4]
 1140 0028 1B88     		ldrh	r3, [r3]	@ movhi
 1141 002a 9BB2     		uxth	r3, r3
 1142 002c 23F40063 		bic	r3, r3, #2048
 1143 0030 9AB2     		uxth	r2, r3
 1144 0032 019B     		ldr	r3, [sp, #4]
 1145 0034 1A80     		strh	r2, [r3]	@ movhi
 1146              	.L66:
 1147              		.loc 1 683 0
 1148 0036 00BF     		nop
 1149 0038 02B0     		add	sp, sp, #8
 1150              	.LCFI35:
 1151              		.cfi_def_cfa_offset 0
 1152              		@ sp needed
 1153 003a 7047     		bx	lr
 1154              		.cfi_endproc
 1155              	.LFE139:
 1157              		.section	.text.I2C_SMBusAlertConfig,"ax",%progbits
 1158              		.align	1
 1159              		.global	I2C_SMBusAlertConfig
 1160              		.syntax unified
 1161              		.thumb
 1162              		.thumb_func
 1163              		.fpu fpv4-sp-d16
 1165              	I2C_SMBusAlertConfig:
 1166              	.LFB140:
 684:/home/rdu/Workspace/project_templates/mcu/stm32_ws/src/libraries/STM32F4xx_StdPeriph_Driver/src/stm32f4xx_i2c.c **** 
 685:/home/rdu/Workspace/project_templates/mcu/stm32_ws/src/libraries/STM32F4xx_StdPeriph_Driver/src/stm32f4xx_i2c.c **** /**
 686:/home/rdu/Workspace/project_templates/mcu/stm32_ws/src/libraries/STM32F4xx_StdPeriph_Driver/src/stm32f4xx_i2c.c ****   * @brief  Drives the SMBusAlert pin high or low for the specified I2C.
 687:/home/rdu/Workspace/project_templates/mcu/stm32_ws/src/libraries/STM32F4xx_StdPeriph_Driver/src/stm32f4xx_i2c.c ****   * @param  I2Cx: where x can be 1, 2 or 3 to select the I2C peripheral.
 688:/home/rdu/Workspace/project_templates/mcu/stm32_ws/src/libraries/STM32F4xx_StdPeriph_Driver/src/stm32f4xx_i2c.c ****   * @param  I2C_SMBusAlert: specifies SMBAlert pin level. 
 689:/home/rdu/Workspace/project_templates/mcu/stm32_ws/src/libraries/STM32F4xx_StdPeriph_Driver/src/stm32f4xx_i2c.c ****   *          This parameter can be one of the following values:
 690:/home/rdu/Workspace/project_templates/mcu/stm32_ws/src/libraries/STM32F4xx_StdPeriph_Driver/src/stm32f4xx_i2c.c ****   *            @arg I2C_SMBusAlert_Low: SMBAlert pin driven low
 691:/home/rdu/Workspace/project_templates/mcu/stm32_ws/src/libraries/STM32F4xx_StdPeriph_Driver/src/stm32f4xx_i2c.c ****   *            @arg I2C_SMBusAlert_High: SMBAlert pin driven high
 692:/home/rdu/Workspace/project_templates/mcu/stm32_ws/src/libraries/STM32F4xx_StdPeriph_Driver/src/stm32f4xx_i2c.c ****   * @retval None
 693:/home/rdu/Workspace/project_templates/mcu/stm32_ws/src/libraries/STM32F4xx_StdPeriph_Driver/src/stm32f4xx_i2c.c ****   */
 694:/home/rdu/Workspace/project_templates/mcu/stm32_ws/src/libraries/STM32F4xx_StdPeriph_Driver/src/stm32f4xx_i2c.c **** void I2C_SMBusAlertConfig(I2C_TypeDef* I2Cx, uint16_t I2C_SMBusAlert)
 695:/home/rdu/Workspace/project_templates/mcu/stm32_ws/src/libraries/STM32F4xx_StdPeriph_Driver/src/stm32f4xx_i2c.c **** {
 1167              		.loc 1 695 0
 1168              		.cfi_startproc
 1169              		@ args = 0, pretend = 0, frame = 8
 1170              		@ frame_needed = 0, uses_anonymous_args = 0
 1171              		@ link register save eliminated.
 1172 0000 82B0     		sub	sp, sp, #8
 1173              	.LCFI36:
 1174              		.cfi_def_cfa_offset 8
 1175 0002 0190     		str	r0, [sp, #4]
 1176 0004 0B46     		mov	r3, r1
 1177 0006 ADF80230 		strh	r3, [sp, #2]	@ movhi
 696:/home/rdu/Workspace/project_templates/mcu/stm32_ws/src/libraries/STM32F4xx_StdPeriph_Driver/src/stm32f4xx_i2c.c ****   /* Check the parameters */
 697:/home/rdu/Workspace/project_templates/mcu/stm32_ws/src/libraries/STM32F4xx_StdPeriph_Driver/src/stm32f4xx_i2c.c ****   assert_param(IS_I2C_ALL_PERIPH(I2Cx));
 698:/home/rdu/Workspace/project_templates/mcu/stm32_ws/src/libraries/STM32F4xx_StdPeriph_Driver/src/stm32f4xx_i2c.c ****   assert_param(IS_I2C_SMBUS_ALERT(I2C_SMBusAlert));
 699:/home/rdu/Workspace/project_templates/mcu/stm32_ws/src/libraries/STM32F4xx_StdPeriph_Driver/src/stm32f4xx_i2c.c ****   if (I2C_SMBusAlert == I2C_SMBusAlert_Low)
 1178              		.loc 1 699 0
 1179 000a BDF80230 		ldrh	r3, [sp, #2]
 1180 000e B3F5005F 		cmp	r3, #8192
 1181 0012 08D1     		bne	.L68
 700:/home/rdu/Workspace/project_templates/mcu/stm32_ws/src/libraries/STM32F4xx_StdPeriph_Driver/src/stm32f4xx_i2c.c ****   {
 701:/home/rdu/Workspace/project_templates/mcu/stm32_ws/src/libraries/STM32F4xx_StdPeriph_Driver/src/stm32f4xx_i2c.c ****     /* Drive the SMBusAlert pin Low */
 702:/home/rdu/Workspace/project_templates/mcu/stm32_ws/src/libraries/STM32F4xx_StdPeriph_Driver/src/stm32f4xx_i2c.c ****     I2Cx->CR1 |= I2C_SMBusAlert_Low;
 1182              		.loc 1 702 0
 1183 0014 019B     		ldr	r3, [sp, #4]
 1184 0016 1B88     		ldrh	r3, [r3]	@ movhi
 1185 0018 9BB2     		uxth	r3, r3
 1186 001a 43F40053 		orr	r3, r3, #8192
 1187 001e 9AB2     		uxth	r2, r3
 1188 0020 019B     		ldr	r3, [sp, #4]
 1189 0022 1A80     		strh	r2, [r3]	@ movhi
 703:/home/rdu/Workspace/project_templates/mcu/stm32_ws/src/libraries/STM32F4xx_StdPeriph_Driver/src/stm32f4xx_i2c.c ****   }
 704:/home/rdu/Workspace/project_templates/mcu/stm32_ws/src/libraries/STM32F4xx_StdPeriph_Driver/src/stm32f4xx_i2c.c ****   else
 705:/home/rdu/Workspace/project_templates/mcu/stm32_ws/src/libraries/STM32F4xx_StdPeriph_Driver/src/stm32f4xx_i2c.c ****   {
 706:/home/rdu/Workspace/project_templates/mcu/stm32_ws/src/libraries/STM32F4xx_StdPeriph_Driver/src/stm32f4xx_i2c.c ****     /* Drive the SMBusAlert pin High  */
 707:/home/rdu/Workspace/project_templates/mcu/stm32_ws/src/libraries/STM32F4xx_StdPeriph_Driver/src/stm32f4xx_i2c.c ****     I2Cx->CR1 &= I2C_SMBusAlert_High;
 708:/home/rdu/Workspace/project_templates/mcu/stm32_ws/src/libraries/STM32F4xx_StdPeriph_Driver/src/stm32f4xx_i2c.c ****   }
 709:/home/rdu/Workspace/project_templates/mcu/stm32_ws/src/libraries/STM32F4xx_StdPeriph_Driver/src/stm32f4xx_i2c.c **** }
 1190              		.loc 1 709 0
 1191 0024 07E0     		b	.L70
 1192              	.L68:
 707:/home/rdu/Workspace/project_templates/mcu/stm32_ws/src/libraries/STM32F4xx_StdPeriph_Driver/src/stm32f4xx_i2c.c ****   }
 1193              		.loc 1 707 0
 1194 0026 019B     		ldr	r3, [sp, #4]
 1195 0028 1B88     		ldrh	r3, [r3]	@ movhi
 1196 002a 9BB2     		uxth	r3, r3
 1197 002c 23F40053 		bic	r3, r3, #8192
 1198 0030 9AB2     		uxth	r2, r3
 1199 0032 019B     		ldr	r3, [sp, #4]
 1200 0034 1A80     		strh	r2, [r3]	@ movhi
 1201              	.L70:
 1202              		.loc 1 709 0
 1203 0036 00BF     		nop
 1204 0038 02B0     		add	sp, sp, #8
 1205              	.LCFI37:
 1206              		.cfi_def_cfa_offset 0
 1207              		@ sp needed
 1208 003a 7047     		bx	lr
 1209              		.cfi_endproc
 1210              	.LFE140:
 1212              		.section	.text.I2C_ARPCmd,"ax",%progbits
 1213              		.align	1
 1214              		.global	I2C_ARPCmd
 1215              		.syntax unified
 1216              		.thumb
 1217              		.thumb_func
 1218              		.fpu fpv4-sp-d16
 1220              	I2C_ARPCmd:
 1221              	.LFB141:
 710:/home/rdu/Workspace/project_templates/mcu/stm32_ws/src/libraries/STM32F4xx_StdPeriph_Driver/src/stm32f4xx_i2c.c **** 
 711:/home/rdu/Workspace/project_templates/mcu/stm32_ws/src/libraries/STM32F4xx_StdPeriph_Driver/src/stm32f4xx_i2c.c **** /**
 712:/home/rdu/Workspace/project_templates/mcu/stm32_ws/src/libraries/STM32F4xx_StdPeriph_Driver/src/stm32f4xx_i2c.c ****   * @brief  Enables or disables the specified I2C ARP.
 713:/home/rdu/Workspace/project_templates/mcu/stm32_ws/src/libraries/STM32F4xx_StdPeriph_Driver/src/stm32f4xx_i2c.c ****   * @param  I2Cx: where x can be 1, 2 or 3 to select the I2C peripheral.
 714:/home/rdu/Workspace/project_templates/mcu/stm32_ws/src/libraries/STM32F4xx_StdPeriph_Driver/src/stm32f4xx_i2c.c ****   * @param  NewState: new state of the I2Cx ARP. 
 715:/home/rdu/Workspace/project_templates/mcu/stm32_ws/src/libraries/STM32F4xx_StdPeriph_Driver/src/stm32f4xx_i2c.c ****   *          This parameter can be: ENABLE or DISABLE.
 716:/home/rdu/Workspace/project_templates/mcu/stm32_ws/src/libraries/STM32F4xx_StdPeriph_Driver/src/stm32f4xx_i2c.c ****   * @retval None
 717:/home/rdu/Workspace/project_templates/mcu/stm32_ws/src/libraries/STM32F4xx_StdPeriph_Driver/src/stm32f4xx_i2c.c ****   */
 718:/home/rdu/Workspace/project_templates/mcu/stm32_ws/src/libraries/STM32F4xx_StdPeriph_Driver/src/stm32f4xx_i2c.c **** void I2C_ARPCmd(I2C_TypeDef* I2Cx, FunctionalState NewState)
 719:/home/rdu/Workspace/project_templates/mcu/stm32_ws/src/libraries/STM32F4xx_StdPeriph_Driver/src/stm32f4xx_i2c.c **** {
 1222              		.loc 1 719 0
 1223              		.cfi_startproc
 1224              		@ args = 0, pretend = 0, frame = 8
 1225              		@ frame_needed = 0, uses_anonymous_args = 0
 1226              		@ link register save eliminated.
 1227 0000 82B0     		sub	sp, sp, #8
 1228              	.LCFI38:
 1229              		.cfi_def_cfa_offset 8
 1230 0002 0190     		str	r0, [sp, #4]
 1231 0004 0B46     		mov	r3, r1
 1232 0006 8DF80330 		strb	r3, [sp, #3]
 720:/home/rdu/Workspace/project_templates/mcu/stm32_ws/src/libraries/STM32F4xx_StdPeriph_Driver/src/stm32f4xx_i2c.c ****   /* Check the parameters */
 721:/home/rdu/Workspace/project_templates/mcu/stm32_ws/src/libraries/STM32F4xx_StdPeriph_Driver/src/stm32f4xx_i2c.c ****   assert_param(IS_I2C_ALL_PERIPH(I2Cx));
 722:/home/rdu/Workspace/project_templates/mcu/stm32_ws/src/libraries/STM32F4xx_StdPeriph_Driver/src/stm32f4xx_i2c.c ****   assert_param(IS_FUNCTIONAL_STATE(NewState));
 723:/home/rdu/Workspace/project_templates/mcu/stm32_ws/src/libraries/STM32F4xx_StdPeriph_Driver/src/stm32f4xx_i2c.c ****   if (NewState != DISABLE)
 1233              		.loc 1 723 0
 1234 000a 9DF80330 		ldrb	r3, [sp, #3]	@ zero_extendqisi2
 1235 000e 002B     		cmp	r3, #0
 1236 0010 08D0     		beq	.L72
 724:/home/rdu/Workspace/project_templates/mcu/stm32_ws/src/libraries/STM32F4xx_StdPeriph_Driver/src/stm32f4xx_i2c.c ****   {
 725:/home/rdu/Workspace/project_templates/mcu/stm32_ws/src/libraries/STM32F4xx_StdPeriph_Driver/src/stm32f4xx_i2c.c ****     /* Enable the selected I2C ARP */
 726:/home/rdu/Workspace/project_templates/mcu/stm32_ws/src/libraries/STM32F4xx_StdPeriph_Driver/src/stm32f4xx_i2c.c ****     I2Cx->CR1 |= I2C_CR1_ENARP;
 1237              		.loc 1 726 0
 1238 0012 019B     		ldr	r3, [sp, #4]
 1239 0014 1B88     		ldrh	r3, [r3]	@ movhi
 1240 0016 9BB2     		uxth	r3, r3
 1241 0018 43F01003 		orr	r3, r3, #16
 1242 001c 9AB2     		uxth	r2, r3
 1243 001e 019B     		ldr	r3, [sp, #4]
 1244 0020 1A80     		strh	r2, [r3]	@ movhi
 727:/home/rdu/Workspace/project_templates/mcu/stm32_ws/src/libraries/STM32F4xx_StdPeriph_Driver/src/stm32f4xx_i2c.c ****   }
 728:/home/rdu/Workspace/project_templates/mcu/stm32_ws/src/libraries/STM32F4xx_StdPeriph_Driver/src/stm32f4xx_i2c.c ****   else
 729:/home/rdu/Workspace/project_templates/mcu/stm32_ws/src/libraries/STM32F4xx_StdPeriph_Driver/src/stm32f4xx_i2c.c ****   {
 730:/home/rdu/Workspace/project_templates/mcu/stm32_ws/src/libraries/STM32F4xx_StdPeriph_Driver/src/stm32f4xx_i2c.c ****     /* Disable the selected I2C ARP */
 731:/home/rdu/Workspace/project_templates/mcu/stm32_ws/src/libraries/STM32F4xx_StdPeriph_Driver/src/stm32f4xx_i2c.c ****     I2Cx->CR1 &= (uint16_t)~((uint16_t)I2C_CR1_ENARP);
 732:/home/rdu/Workspace/project_templates/mcu/stm32_ws/src/libraries/STM32F4xx_StdPeriph_Driver/src/stm32f4xx_i2c.c ****   }
 733:/home/rdu/Workspace/project_templates/mcu/stm32_ws/src/libraries/STM32F4xx_StdPeriph_Driver/src/stm32f4xx_i2c.c **** }
 1245              		.loc 1 733 0
 1246 0022 07E0     		b	.L74
 1247              	.L72:
 731:/home/rdu/Workspace/project_templates/mcu/stm32_ws/src/libraries/STM32F4xx_StdPeriph_Driver/src/stm32f4xx_i2c.c ****   }
 1248              		.loc 1 731 0
 1249 0024 019B     		ldr	r3, [sp, #4]
 1250 0026 1B88     		ldrh	r3, [r3]	@ movhi
 1251 0028 9BB2     		uxth	r3, r3
 1252 002a 23F01003 		bic	r3, r3, #16
 1253 002e 9AB2     		uxth	r2, r3
 1254 0030 019B     		ldr	r3, [sp, #4]
 1255 0032 1A80     		strh	r2, [r3]	@ movhi
 1256              	.L74:
 1257              		.loc 1 733 0
 1258 0034 00BF     		nop
 1259 0036 02B0     		add	sp, sp, #8
 1260              	.LCFI39:
 1261              		.cfi_def_cfa_offset 0
 1262              		@ sp needed
 1263 0038 7047     		bx	lr
 1264              		.cfi_endproc
 1265              	.LFE141:
 1267              		.section	.text.I2C_SendData,"ax",%progbits
 1268              		.align	1
 1269              		.global	I2C_SendData
 1270              		.syntax unified
 1271              		.thumb
 1272              		.thumb_func
 1273              		.fpu fpv4-sp-d16
 1275              	I2C_SendData:
 1276              	.LFB142:
 734:/home/rdu/Workspace/project_templates/mcu/stm32_ws/src/libraries/STM32F4xx_StdPeriph_Driver/src/stm32f4xx_i2c.c **** /**
 735:/home/rdu/Workspace/project_templates/mcu/stm32_ws/src/libraries/STM32F4xx_StdPeriph_Driver/src/stm32f4xx_i2c.c ****   * @}
 736:/home/rdu/Workspace/project_templates/mcu/stm32_ws/src/libraries/STM32F4xx_StdPeriph_Driver/src/stm32f4xx_i2c.c ****   */
 737:/home/rdu/Workspace/project_templates/mcu/stm32_ws/src/libraries/STM32F4xx_StdPeriph_Driver/src/stm32f4xx_i2c.c **** 
 738:/home/rdu/Workspace/project_templates/mcu/stm32_ws/src/libraries/STM32F4xx_StdPeriph_Driver/src/stm32f4xx_i2c.c **** /** @defgroup I2C_Group2 Data transfers functions
 739:/home/rdu/Workspace/project_templates/mcu/stm32_ws/src/libraries/STM32F4xx_StdPeriph_Driver/src/stm32f4xx_i2c.c ****  *  @brief   Data transfers functions 
 740:/home/rdu/Workspace/project_templates/mcu/stm32_ws/src/libraries/STM32F4xx_StdPeriph_Driver/src/stm32f4xx_i2c.c ****  *
 741:/home/rdu/Workspace/project_templates/mcu/stm32_ws/src/libraries/STM32F4xx_StdPeriph_Driver/src/stm32f4xx_i2c.c **** @verbatim   
 742:/home/rdu/Workspace/project_templates/mcu/stm32_ws/src/libraries/STM32F4xx_StdPeriph_Driver/src/stm32f4xx_i2c.c ****  ===============================================================================
 743:/home/rdu/Workspace/project_templates/mcu/stm32_ws/src/libraries/STM32F4xx_StdPeriph_Driver/src/stm32f4xx_i2c.c ****                   ##### Data transfers functions #####
 744:/home/rdu/Workspace/project_templates/mcu/stm32_ws/src/libraries/STM32F4xx_StdPeriph_Driver/src/stm32f4xx_i2c.c ****  ===============================================================================  
 745:/home/rdu/Workspace/project_templates/mcu/stm32_ws/src/libraries/STM32F4xx_StdPeriph_Driver/src/stm32f4xx_i2c.c **** 
 746:/home/rdu/Workspace/project_templates/mcu/stm32_ws/src/libraries/STM32F4xx_StdPeriph_Driver/src/stm32f4xx_i2c.c **** @endverbatim
 747:/home/rdu/Workspace/project_templates/mcu/stm32_ws/src/libraries/STM32F4xx_StdPeriph_Driver/src/stm32f4xx_i2c.c ****   * @{
 748:/home/rdu/Workspace/project_templates/mcu/stm32_ws/src/libraries/STM32F4xx_StdPeriph_Driver/src/stm32f4xx_i2c.c ****   */
 749:/home/rdu/Workspace/project_templates/mcu/stm32_ws/src/libraries/STM32F4xx_StdPeriph_Driver/src/stm32f4xx_i2c.c **** 
 750:/home/rdu/Workspace/project_templates/mcu/stm32_ws/src/libraries/STM32F4xx_StdPeriph_Driver/src/stm32f4xx_i2c.c **** /**
 751:/home/rdu/Workspace/project_templates/mcu/stm32_ws/src/libraries/STM32F4xx_StdPeriph_Driver/src/stm32f4xx_i2c.c ****   * @brief  Sends a data byte through the I2Cx peripheral.
 752:/home/rdu/Workspace/project_templates/mcu/stm32_ws/src/libraries/STM32F4xx_StdPeriph_Driver/src/stm32f4xx_i2c.c ****   * @param  I2Cx: where x can be 1, 2 or 3 to select the I2C peripheral.
 753:/home/rdu/Workspace/project_templates/mcu/stm32_ws/src/libraries/STM32F4xx_StdPeriph_Driver/src/stm32f4xx_i2c.c ****   * @param  Data: Byte to be transmitted..
 754:/home/rdu/Workspace/project_templates/mcu/stm32_ws/src/libraries/STM32F4xx_StdPeriph_Driver/src/stm32f4xx_i2c.c ****   * @retval None
 755:/home/rdu/Workspace/project_templates/mcu/stm32_ws/src/libraries/STM32F4xx_StdPeriph_Driver/src/stm32f4xx_i2c.c ****   */
 756:/home/rdu/Workspace/project_templates/mcu/stm32_ws/src/libraries/STM32F4xx_StdPeriph_Driver/src/stm32f4xx_i2c.c **** void I2C_SendData(I2C_TypeDef* I2Cx, uint8_t Data)
 757:/home/rdu/Workspace/project_templates/mcu/stm32_ws/src/libraries/STM32F4xx_StdPeriph_Driver/src/stm32f4xx_i2c.c **** {
 1277              		.loc 1 757 0
 1278              		.cfi_startproc
 1279              		@ args = 0, pretend = 0, frame = 8
 1280              		@ frame_needed = 0, uses_anonymous_args = 0
 1281              		@ link register save eliminated.
 1282 0000 82B0     		sub	sp, sp, #8
 1283              	.LCFI40:
 1284              		.cfi_def_cfa_offset 8
 1285 0002 0190     		str	r0, [sp, #4]
 1286 0004 0B46     		mov	r3, r1
 1287 0006 8DF80330 		strb	r3, [sp, #3]
 758:/home/rdu/Workspace/project_templates/mcu/stm32_ws/src/libraries/STM32F4xx_StdPeriph_Driver/src/stm32f4xx_i2c.c ****   /* Check the parameters */
 759:/home/rdu/Workspace/project_templates/mcu/stm32_ws/src/libraries/STM32F4xx_StdPeriph_Driver/src/stm32f4xx_i2c.c ****   assert_param(IS_I2C_ALL_PERIPH(I2Cx));
 760:/home/rdu/Workspace/project_templates/mcu/stm32_ws/src/libraries/STM32F4xx_StdPeriph_Driver/src/stm32f4xx_i2c.c ****   /* Write in the DR register the data to be sent */
 761:/home/rdu/Workspace/project_templates/mcu/stm32_ws/src/libraries/STM32F4xx_StdPeriph_Driver/src/stm32f4xx_i2c.c ****   I2Cx->DR = Data;
 1288              		.loc 1 761 0
 1289 000a 9DF80330 		ldrb	r3, [sp, #3]	@ zero_extendqisi2
 1290 000e 9AB2     		uxth	r2, r3
 1291 0010 019B     		ldr	r3, [sp, #4]
 1292 0012 1A82     		strh	r2, [r3, #16]	@ movhi
 762:/home/rdu/Workspace/project_templates/mcu/stm32_ws/src/libraries/STM32F4xx_StdPeriph_Driver/src/stm32f4xx_i2c.c **** }
 1293              		.loc 1 762 0
 1294 0014 00BF     		nop
 1295 0016 02B0     		add	sp, sp, #8
 1296              	.LCFI41:
 1297              		.cfi_def_cfa_offset 0
 1298              		@ sp needed
 1299 0018 7047     		bx	lr
 1300              		.cfi_endproc
 1301              	.LFE142:
 1303              		.section	.text.I2C_ReceiveData,"ax",%progbits
 1304              		.align	1
 1305              		.global	I2C_ReceiveData
 1306              		.syntax unified
 1307              		.thumb
 1308              		.thumb_func
 1309              		.fpu fpv4-sp-d16
 1311              	I2C_ReceiveData:
 1312              	.LFB143:
 763:/home/rdu/Workspace/project_templates/mcu/stm32_ws/src/libraries/STM32F4xx_StdPeriph_Driver/src/stm32f4xx_i2c.c **** 
 764:/home/rdu/Workspace/project_templates/mcu/stm32_ws/src/libraries/STM32F4xx_StdPeriph_Driver/src/stm32f4xx_i2c.c **** /**
 765:/home/rdu/Workspace/project_templates/mcu/stm32_ws/src/libraries/STM32F4xx_StdPeriph_Driver/src/stm32f4xx_i2c.c ****   * @brief  Returns the most recent received data by the I2Cx peripheral.
 766:/home/rdu/Workspace/project_templates/mcu/stm32_ws/src/libraries/STM32F4xx_StdPeriph_Driver/src/stm32f4xx_i2c.c ****   * @param  I2Cx: where x can be 1, 2 or 3 to select the I2C peripheral.
 767:/home/rdu/Workspace/project_templates/mcu/stm32_ws/src/libraries/STM32F4xx_StdPeriph_Driver/src/stm32f4xx_i2c.c ****   * @retval The value of the received data.
 768:/home/rdu/Workspace/project_templates/mcu/stm32_ws/src/libraries/STM32F4xx_StdPeriph_Driver/src/stm32f4xx_i2c.c ****   */
 769:/home/rdu/Workspace/project_templates/mcu/stm32_ws/src/libraries/STM32F4xx_StdPeriph_Driver/src/stm32f4xx_i2c.c **** uint8_t I2C_ReceiveData(I2C_TypeDef* I2Cx)
 770:/home/rdu/Workspace/project_templates/mcu/stm32_ws/src/libraries/STM32F4xx_StdPeriph_Driver/src/stm32f4xx_i2c.c **** {
 1313              		.loc 1 770 0
 1314              		.cfi_startproc
 1315              		@ args = 0, pretend = 0, frame = 8
 1316              		@ frame_needed = 0, uses_anonymous_args = 0
 1317              		@ link register save eliminated.
 1318 0000 82B0     		sub	sp, sp, #8
 1319              	.LCFI42:
 1320              		.cfi_def_cfa_offset 8
 1321 0002 0190     		str	r0, [sp, #4]
 771:/home/rdu/Workspace/project_templates/mcu/stm32_ws/src/libraries/STM32F4xx_StdPeriph_Driver/src/stm32f4xx_i2c.c ****   /* Check the parameters */
 772:/home/rdu/Workspace/project_templates/mcu/stm32_ws/src/libraries/STM32F4xx_StdPeriph_Driver/src/stm32f4xx_i2c.c ****   assert_param(IS_I2C_ALL_PERIPH(I2Cx));
 773:/home/rdu/Workspace/project_templates/mcu/stm32_ws/src/libraries/STM32F4xx_StdPeriph_Driver/src/stm32f4xx_i2c.c ****   /* Return the data in the DR register */
 774:/home/rdu/Workspace/project_templates/mcu/stm32_ws/src/libraries/STM32F4xx_StdPeriph_Driver/src/stm32f4xx_i2c.c ****   return (uint8_t)I2Cx->DR;
 1322              		.loc 1 774 0
 1323 0004 019B     		ldr	r3, [sp, #4]
 1324 0006 1B8A     		ldrh	r3, [r3, #16]	@ movhi
 1325 0008 9BB2     		uxth	r3, r3
 1326 000a DBB2     		uxtb	r3, r3
 775:/home/rdu/Workspace/project_templates/mcu/stm32_ws/src/libraries/STM32F4xx_StdPeriph_Driver/src/stm32f4xx_i2c.c **** }
 1327              		.loc 1 775 0
 1328 000c 1846     		mov	r0, r3
 1329 000e 02B0     		add	sp, sp, #8
 1330              	.LCFI43:
 1331              		.cfi_def_cfa_offset 0
 1332              		@ sp needed
 1333 0010 7047     		bx	lr
 1334              		.cfi_endproc
 1335              	.LFE143:
 1337              		.section	.text.I2C_TransmitPEC,"ax",%progbits
 1338              		.align	1
 1339              		.global	I2C_TransmitPEC
 1340              		.syntax unified
 1341              		.thumb
 1342              		.thumb_func
 1343              		.fpu fpv4-sp-d16
 1345              	I2C_TransmitPEC:
 1346              	.LFB144:
 776:/home/rdu/Workspace/project_templates/mcu/stm32_ws/src/libraries/STM32F4xx_StdPeriph_Driver/src/stm32f4xx_i2c.c **** 
 777:/home/rdu/Workspace/project_templates/mcu/stm32_ws/src/libraries/STM32F4xx_StdPeriph_Driver/src/stm32f4xx_i2c.c **** /**
 778:/home/rdu/Workspace/project_templates/mcu/stm32_ws/src/libraries/STM32F4xx_StdPeriph_Driver/src/stm32f4xx_i2c.c ****   * @}
 779:/home/rdu/Workspace/project_templates/mcu/stm32_ws/src/libraries/STM32F4xx_StdPeriph_Driver/src/stm32f4xx_i2c.c ****   */
 780:/home/rdu/Workspace/project_templates/mcu/stm32_ws/src/libraries/STM32F4xx_StdPeriph_Driver/src/stm32f4xx_i2c.c **** 
 781:/home/rdu/Workspace/project_templates/mcu/stm32_ws/src/libraries/STM32F4xx_StdPeriph_Driver/src/stm32f4xx_i2c.c **** /** @defgroup I2C_Group3 PEC management functions
 782:/home/rdu/Workspace/project_templates/mcu/stm32_ws/src/libraries/STM32F4xx_StdPeriph_Driver/src/stm32f4xx_i2c.c ****  *  @brief   PEC management functions 
 783:/home/rdu/Workspace/project_templates/mcu/stm32_ws/src/libraries/STM32F4xx_StdPeriph_Driver/src/stm32f4xx_i2c.c ****  *
 784:/home/rdu/Workspace/project_templates/mcu/stm32_ws/src/libraries/STM32F4xx_StdPeriph_Driver/src/stm32f4xx_i2c.c **** @verbatim   
 785:/home/rdu/Workspace/project_templates/mcu/stm32_ws/src/libraries/STM32F4xx_StdPeriph_Driver/src/stm32f4xx_i2c.c ****  ===============================================================================
 786:/home/rdu/Workspace/project_templates/mcu/stm32_ws/src/libraries/STM32F4xx_StdPeriph_Driver/src/stm32f4xx_i2c.c ****                   ##### PEC management functions #####
 787:/home/rdu/Workspace/project_templates/mcu/stm32_ws/src/libraries/STM32F4xx_StdPeriph_Driver/src/stm32f4xx_i2c.c ****  ===============================================================================  
 788:/home/rdu/Workspace/project_templates/mcu/stm32_ws/src/libraries/STM32F4xx_StdPeriph_Driver/src/stm32f4xx_i2c.c **** 
 789:/home/rdu/Workspace/project_templates/mcu/stm32_ws/src/libraries/STM32F4xx_StdPeriph_Driver/src/stm32f4xx_i2c.c **** @endverbatim
 790:/home/rdu/Workspace/project_templates/mcu/stm32_ws/src/libraries/STM32F4xx_StdPeriph_Driver/src/stm32f4xx_i2c.c ****   * @{
 791:/home/rdu/Workspace/project_templates/mcu/stm32_ws/src/libraries/STM32F4xx_StdPeriph_Driver/src/stm32f4xx_i2c.c ****   */
 792:/home/rdu/Workspace/project_templates/mcu/stm32_ws/src/libraries/STM32F4xx_StdPeriph_Driver/src/stm32f4xx_i2c.c **** 
 793:/home/rdu/Workspace/project_templates/mcu/stm32_ws/src/libraries/STM32F4xx_StdPeriph_Driver/src/stm32f4xx_i2c.c **** /**
 794:/home/rdu/Workspace/project_templates/mcu/stm32_ws/src/libraries/STM32F4xx_StdPeriph_Driver/src/stm32f4xx_i2c.c ****   * @brief  Enables or disables the specified I2C PEC transfer.
 795:/home/rdu/Workspace/project_templates/mcu/stm32_ws/src/libraries/STM32F4xx_StdPeriph_Driver/src/stm32f4xx_i2c.c ****   * @param  I2Cx: where x can be 1, 2 or 3 to select the I2C peripheral.
 796:/home/rdu/Workspace/project_templates/mcu/stm32_ws/src/libraries/STM32F4xx_StdPeriph_Driver/src/stm32f4xx_i2c.c ****   * @param  NewState: new state of the I2C PEC transmission.
 797:/home/rdu/Workspace/project_templates/mcu/stm32_ws/src/libraries/STM32F4xx_StdPeriph_Driver/src/stm32f4xx_i2c.c ****   *          This parameter can be: ENABLE or DISABLE.
 798:/home/rdu/Workspace/project_templates/mcu/stm32_ws/src/libraries/STM32F4xx_StdPeriph_Driver/src/stm32f4xx_i2c.c ****   * @retval None
 799:/home/rdu/Workspace/project_templates/mcu/stm32_ws/src/libraries/STM32F4xx_StdPeriph_Driver/src/stm32f4xx_i2c.c ****   */
 800:/home/rdu/Workspace/project_templates/mcu/stm32_ws/src/libraries/STM32F4xx_StdPeriph_Driver/src/stm32f4xx_i2c.c **** void I2C_TransmitPEC(I2C_TypeDef* I2Cx, FunctionalState NewState)
 801:/home/rdu/Workspace/project_templates/mcu/stm32_ws/src/libraries/STM32F4xx_StdPeriph_Driver/src/stm32f4xx_i2c.c **** {
 1347              		.loc 1 801 0
 1348              		.cfi_startproc
 1349              		@ args = 0, pretend = 0, frame = 8
 1350              		@ frame_needed = 0, uses_anonymous_args = 0
 1351              		@ link register save eliminated.
 1352 0000 82B0     		sub	sp, sp, #8
 1353              	.LCFI44:
 1354              		.cfi_def_cfa_offset 8
 1355 0002 0190     		str	r0, [sp, #4]
 1356 0004 0B46     		mov	r3, r1
 1357 0006 8DF80330 		strb	r3, [sp, #3]
 802:/home/rdu/Workspace/project_templates/mcu/stm32_ws/src/libraries/STM32F4xx_StdPeriph_Driver/src/stm32f4xx_i2c.c ****   /* Check the parameters */
 803:/home/rdu/Workspace/project_templates/mcu/stm32_ws/src/libraries/STM32F4xx_StdPeriph_Driver/src/stm32f4xx_i2c.c ****   assert_param(IS_I2C_ALL_PERIPH(I2Cx));
 804:/home/rdu/Workspace/project_templates/mcu/stm32_ws/src/libraries/STM32F4xx_StdPeriph_Driver/src/stm32f4xx_i2c.c ****   assert_param(IS_FUNCTIONAL_STATE(NewState));
 805:/home/rdu/Workspace/project_templates/mcu/stm32_ws/src/libraries/STM32F4xx_StdPeriph_Driver/src/stm32f4xx_i2c.c ****   if (NewState != DISABLE)
 1358              		.loc 1 805 0
 1359 000a 9DF80330 		ldrb	r3, [sp, #3]	@ zero_extendqisi2
 1360 000e 002B     		cmp	r3, #0
 1361 0010 08D0     		beq	.L79
 806:/home/rdu/Workspace/project_templates/mcu/stm32_ws/src/libraries/STM32F4xx_StdPeriph_Driver/src/stm32f4xx_i2c.c ****   {
 807:/home/rdu/Workspace/project_templates/mcu/stm32_ws/src/libraries/STM32F4xx_StdPeriph_Driver/src/stm32f4xx_i2c.c ****     /* Enable the selected I2C PEC transmission */
 808:/home/rdu/Workspace/project_templates/mcu/stm32_ws/src/libraries/STM32F4xx_StdPeriph_Driver/src/stm32f4xx_i2c.c ****     I2Cx->CR1 |= I2C_CR1_PEC;
 1362              		.loc 1 808 0
 1363 0012 019B     		ldr	r3, [sp, #4]
 1364 0014 1B88     		ldrh	r3, [r3]	@ movhi
 1365 0016 9BB2     		uxth	r3, r3
 1366 0018 43F48053 		orr	r3, r3, #4096
 1367 001c 9AB2     		uxth	r2, r3
 1368 001e 019B     		ldr	r3, [sp, #4]
 1369 0020 1A80     		strh	r2, [r3]	@ movhi
 809:/home/rdu/Workspace/project_templates/mcu/stm32_ws/src/libraries/STM32F4xx_StdPeriph_Driver/src/stm32f4xx_i2c.c ****   }
 810:/home/rdu/Workspace/project_templates/mcu/stm32_ws/src/libraries/STM32F4xx_StdPeriph_Driver/src/stm32f4xx_i2c.c ****   else
 811:/home/rdu/Workspace/project_templates/mcu/stm32_ws/src/libraries/STM32F4xx_StdPeriph_Driver/src/stm32f4xx_i2c.c ****   {
 812:/home/rdu/Workspace/project_templates/mcu/stm32_ws/src/libraries/STM32F4xx_StdPeriph_Driver/src/stm32f4xx_i2c.c ****     /* Disable the selected I2C PEC transmission */
 813:/home/rdu/Workspace/project_templates/mcu/stm32_ws/src/libraries/STM32F4xx_StdPeriph_Driver/src/stm32f4xx_i2c.c ****     I2Cx->CR1 &= (uint16_t)~((uint16_t)I2C_CR1_PEC);
 814:/home/rdu/Workspace/project_templates/mcu/stm32_ws/src/libraries/STM32F4xx_StdPeriph_Driver/src/stm32f4xx_i2c.c ****   }
 815:/home/rdu/Workspace/project_templates/mcu/stm32_ws/src/libraries/STM32F4xx_StdPeriph_Driver/src/stm32f4xx_i2c.c **** }
 1370              		.loc 1 815 0
 1371 0022 07E0     		b	.L81
 1372              	.L79:
 813:/home/rdu/Workspace/project_templates/mcu/stm32_ws/src/libraries/STM32F4xx_StdPeriph_Driver/src/stm32f4xx_i2c.c ****   }
 1373              		.loc 1 813 0
 1374 0024 019B     		ldr	r3, [sp, #4]
 1375 0026 1B88     		ldrh	r3, [r3]	@ movhi
 1376 0028 9BB2     		uxth	r3, r3
 1377 002a 23F48053 		bic	r3, r3, #4096
 1378 002e 9AB2     		uxth	r2, r3
 1379 0030 019B     		ldr	r3, [sp, #4]
 1380 0032 1A80     		strh	r2, [r3]	@ movhi
 1381              	.L81:
 1382              		.loc 1 815 0
 1383 0034 00BF     		nop
 1384 0036 02B0     		add	sp, sp, #8
 1385              	.LCFI45:
 1386              		.cfi_def_cfa_offset 0
 1387              		@ sp needed
 1388 0038 7047     		bx	lr
 1389              		.cfi_endproc
 1390              	.LFE144:
 1392              		.section	.text.I2C_PECPositionConfig,"ax",%progbits
 1393              		.align	1
 1394              		.global	I2C_PECPositionConfig
 1395              		.syntax unified
 1396              		.thumb
 1397              		.thumb_func
 1398              		.fpu fpv4-sp-d16
 1400              	I2C_PECPositionConfig:
 1401              	.LFB145:
 816:/home/rdu/Workspace/project_templates/mcu/stm32_ws/src/libraries/STM32F4xx_StdPeriph_Driver/src/stm32f4xx_i2c.c **** 
 817:/home/rdu/Workspace/project_templates/mcu/stm32_ws/src/libraries/STM32F4xx_StdPeriph_Driver/src/stm32f4xx_i2c.c **** /**
 818:/home/rdu/Workspace/project_templates/mcu/stm32_ws/src/libraries/STM32F4xx_StdPeriph_Driver/src/stm32f4xx_i2c.c ****   * @brief  Selects the specified I2C PEC position.
 819:/home/rdu/Workspace/project_templates/mcu/stm32_ws/src/libraries/STM32F4xx_StdPeriph_Driver/src/stm32f4xx_i2c.c ****   * @param  I2Cx: where x can be 1, 2 or 3 to select the I2C peripheral.
 820:/home/rdu/Workspace/project_templates/mcu/stm32_ws/src/libraries/STM32F4xx_StdPeriph_Driver/src/stm32f4xx_i2c.c ****   * @param  I2C_PECPosition: specifies the PEC position. 
 821:/home/rdu/Workspace/project_templates/mcu/stm32_ws/src/libraries/STM32F4xx_StdPeriph_Driver/src/stm32f4xx_i2c.c ****   *          This parameter can be one of the following values:
 822:/home/rdu/Workspace/project_templates/mcu/stm32_ws/src/libraries/STM32F4xx_StdPeriph_Driver/src/stm32f4xx_i2c.c ****   *            @arg I2C_PECPosition_Next: indicates that the next byte is PEC
 823:/home/rdu/Workspace/project_templates/mcu/stm32_ws/src/libraries/STM32F4xx_StdPeriph_Driver/src/stm32f4xx_i2c.c ****   *            @arg I2C_PECPosition_Current: indicates that current byte is PEC
 824:/home/rdu/Workspace/project_templates/mcu/stm32_ws/src/libraries/STM32F4xx_StdPeriph_Driver/src/stm32f4xx_i2c.c ****   *       
 825:/home/rdu/Workspace/project_templates/mcu/stm32_ws/src/libraries/STM32F4xx_StdPeriph_Driver/src/stm32f4xx_i2c.c ****   * @note    This function configures the same bit (POS) as I2C_NACKPositionConfig()
 826:/home/rdu/Workspace/project_templates/mcu/stm32_ws/src/libraries/STM32F4xx_StdPeriph_Driver/src/stm32f4xx_i2c.c ****   *          but is intended to be used in SMBUS mode while I2C_NACKPositionConfig() 
 827:/home/rdu/Workspace/project_templates/mcu/stm32_ws/src/libraries/STM32F4xx_StdPeriph_Driver/src/stm32f4xx_i2c.c ****   *          is intended to used in I2C mode.
 828:/home/rdu/Workspace/project_templates/mcu/stm32_ws/src/libraries/STM32F4xx_StdPeriph_Driver/src/stm32f4xx_i2c.c ****   *                
 829:/home/rdu/Workspace/project_templates/mcu/stm32_ws/src/libraries/STM32F4xx_StdPeriph_Driver/src/stm32f4xx_i2c.c ****   * @retval None
 830:/home/rdu/Workspace/project_templates/mcu/stm32_ws/src/libraries/STM32F4xx_StdPeriph_Driver/src/stm32f4xx_i2c.c ****   */
 831:/home/rdu/Workspace/project_templates/mcu/stm32_ws/src/libraries/STM32F4xx_StdPeriph_Driver/src/stm32f4xx_i2c.c **** void I2C_PECPositionConfig(I2C_TypeDef* I2Cx, uint16_t I2C_PECPosition)
 832:/home/rdu/Workspace/project_templates/mcu/stm32_ws/src/libraries/STM32F4xx_StdPeriph_Driver/src/stm32f4xx_i2c.c **** {
 1402              		.loc 1 832 0
 1403              		.cfi_startproc
 1404              		@ args = 0, pretend = 0, frame = 8
 1405              		@ frame_needed = 0, uses_anonymous_args = 0
 1406              		@ link register save eliminated.
 1407 0000 82B0     		sub	sp, sp, #8
 1408              	.LCFI46:
 1409              		.cfi_def_cfa_offset 8
 1410 0002 0190     		str	r0, [sp, #4]
 1411 0004 0B46     		mov	r3, r1
 1412 0006 ADF80230 		strh	r3, [sp, #2]	@ movhi
 833:/home/rdu/Workspace/project_templates/mcu/stm32_ws/src/libraries/STM32F4xx_StdPeriph_Driver/src/stm32f4xx_i2c.c ****   /* Check the parameters */
 834:/home/rdu/Workspace/project_templates/mcu/stm32_ws/src/libraries/STM32F4xx_StdPeriph_Driver/src/stm32f4xx_i2c.c ****   assert_param(IS_I2C_ALL_PERIPH(I2Cx));
 835:/home/rdu/Workspace/project_templates/mcu/stm32_ws/src/libraries/STM32F4xx_StdPeriph_Driver/src/stm32f4xx_i2c.c ****   assert_param(IS_I2C_PEC_POSITION(I2C_PECPosition));
 836:/home/rdu/Workspace/project_templates/mcu/stm32_ws/src/libraries/STM32F4xx_StdPeriph_Driver/src/stm32f4xx_i2c.c ****   if (I2C_PECPosition == I2C_PECPosition_Next)
 1413              		.loc 1 836 0
 1414 000a BDF80230 		ldrh	r3, [sp, #2]
 1415 000e B3F5006F 		cmp	r3, #2048
 1416 0012 08D1     		bne	.L83
 837:/home/rdu/Workspace/project_templates/mcu/stm32_ws/src/libraries/STM32F4xx_StdPeriph_Driver/src/stm32f4xx_i2c.c ****   {
 838:/home/rdu/Workspace/project_templates/mcu/stm32_ws/src/libraries/STM32F4xx_StdPeriph_Driver/src/stm32f4xx_i2c.c ****     /* Next byte in shift register is PEC */
 839:/home/rdu/Workspace/project_templates/mcu/stm32_ws/src/libraries/STM32F4xx_StdPeriph_Driver/src/stm32f4xx_i2c.c ****     I2Cx->CR1 |= I2C_PECPosition_Next;
 1417              		.loc 1 839 0
 1418 0014 019B     		ldr	r3, [sp, #4]
 1419 0016 1B88     		ldrh	r3, [r3]	@ movhi
 1420 0018 9BB2     		uxth	r3, r3
 1421 001a 43F40063 		orr	r3, r3, #2048
 1422 001e 9AB2     		uxth	r2, r3
 1423 0020 019B     		ldr	r3, [sp, #4]
 1424 0022 1A80     		strh	r2, [r3]	@ movhi
 840:/home/rdu/Workspace/project_templates/mcu/stm32_ws/src/libraries/STM32F4xx_StdPeriph_Driver/src/stm32f4xx_i2c.c ****   }
 841:/home/rdu/Workspace/project_templates/mcu/stm32_ws/src/libraries/STM32F4xx_StdPeriph_Driver/src/stm32f4xx_i2c.c ****   else
 842:/home/rdu/Workspace/project_templates/mcu/stm32_ws/src/libraries/STM32F4xx_StdPeriph_Driver/src/stm32f4xx_i2c.c ****   {
 843:/home/rdu/Workspace/project_templates/mcu/stm32_ws/src/libraries/STM32F4xx_StdPeriph_Driver/src/stm32f4xx_i2c.c ****     /* Current byte in shift register is PEC */
 844:/home/rdu/Workspace/project_templates/mcu/stm32_ws/src/libraries/STM32F4xx_StdPeriph_Driver/src/stm32f4xx_i2c.c ****     I2Cx->CR1 &= I2C_PECPosition_Current;
 845:/home/rdu/Workspace/project_templates/mcu/stm32_ws/src/libraries/STM32F4xx_StdPeriph_Driver/src/stm32f4xx_i2c.c ****   }
 846:/home/rdu/Workspace/project_templates/mcu/stm32_ws/src/libraries/STM32F4xx_StdPeriph_Driver/src/stm32f4xx_i2c.c **** }
 1425              		.loc 1 846 0
 1426 0024 07E0     		b	.L85
 1427              	.L83:
 844:/home/rdu/Workspace/project_templates/mcu/stm32_ws/src/libraries/STM32F4xx_StdPeriph_Driver/src/stm32f4xx_i2c.c ****   }
 1428              		.loc 1 844 0
 1429 0026 019B     		ldr	r3, [sp, #4]
 1430 0028 1B88     		ldrh	r3, [r3]	@ movhi
 1431 002a 9BB2     		uxth	r3, r3
 1432 002c 23F40063 		bic	r3, r3, #2048
 1433 0030 9AB2     		uxth	r2, r3
 1434 0032 019B     		ldr	r3, [sp, #4]
 1435 0034 1A80     		strh	r2, [r3]	@ movhi
 1436              	.L85:
 1437              		.loc 1 846 0
 1438 0036 00BF     		nop
 1439 0038 02B0     		add	sp, sp, #8
 1440              	.LCFI47:
 1441              		.cfi_def_cfa_offset 0
 1442              		@ sp needed
 1443 003a 7047     		bx	lr
 1444              		.cfi_endproc
 1445              	.LFE145:
 1447              		.section	.text.I2C_CalculatePEC,"ax",%progbits
 1448              		.align	1
 1449              		.global	I2C_CalculatePEC
 1450              		.syntax unified
 1451              		.thumb
 1452              		.thumb_func
 1453              		.fpu fpv4-sp-d16
 1455              	I2C_CalculatePEC:
 1456              	.LFB146:
 847:/home/rdu/Workspace/project_templates/mcu/stm32_ws/src/libraries/STM32F4xx_StdPeriph_Driver/src/stm32f4xx_i2c.c **** 
 848:/home/rdu/Workspace/project_templates/mcu/stm32_ws/src/libraries/STM32F4xx_StdPeriph_Driver/src/stm32f4xx_i2c.c **** /**
 849:/home/rdu/Workspace/project_templates/mcu/stm32_ws/src/libraries/STM32F4xx_StdPeriph_Driver/src/stm32f4xx_i2c.c ****   * @brief  Enables or disables the PEC value calculation of the transferred bytes.
 850:/home/rdu/Workspace/project_templates/mcu/stm32_ws/src/libraries/STM32F4xx_StdPeriph_Driver/src/stm32f4xx_i2c.c ****   * @param  I2Cx: where x can be 1, 2 or 3 to select the I2C peripheral.
 851:/home/rdu/Workspace/project_templates/mcu/stm32_ws/src/libraries/STM32F4xx_StdPeriph_Driver/src/stm32f4xx_i2c.c ****   * @param  NewState: new state of the I2Cx PEC value calculation.
 852:/home/rdu/Workspace/project_templates/mcu/stm32_ws/src/libraries/STM32F4xx_StdPeriph_Driver/src/stm32f4xx_i2c.c ****   *          This parameter can be: ENABLE or DISABLE.
 853:/home/rdu/Workspace/project_templates/mcu/stm32_ws/src/libraries/STM32F4xx_StdPeriph_Driver/src/stm32f4xx_i2c.c ****   * @retval None
 854:/home/rdu/Workspace/project_templates/mcu/stm32_ws/src/libraries/STM32F4xx_StdPeriph_Driver/src/stm32f4xx_i2c.c ****   */
 855:/home/rdu/Workspace/project_templates/mcu/stm32_ws/src/libraries/STM32F4xx_StdPeriph_Driver/src/stm32f4xx_i2c.c **** void I2C_CalculatePEC(I2C_TypeDef* I2Cx, FunctionalState NewState)
 856:/home/rdu/Workspace/project_templates/mcu/stm32_ws/src/libraries/STM32F4xx_StdPeriph_Driver/src/stm32f4xx_i2c.c **** {
 1457              		.loc 1 856 0
 1458              		.cfi_startproc
 1459              		@ args = 0, pretend = 0, frame = 8
 1460              		@ frame_needed = 0, uses_anonymous_args = 0
 1461              		@ link register save eliminated.
 1462 0000 82B0     		sub	sp, sp, #8
 1463              	.LCFI48:
 1464              		.cfi_def_cfa_offset 8
 1465 0002 0190     		str	r0, [sp, #4]
 1466 0004 0B46     		mov	r3, r1
 1467 0006 8DF80330 		strb	r3, [sp, #3]
 857:/home/rdu/Workspace/project_templates/mcu/stm32_ws/src/libraries/STM32F4xx_StdPeriph_Driver/src/stm32f4xx_i2c.c ****   /* Check the parameters */
 858:/home/rdu/Workspace/project_templates/mcu/stm32_ws/src/libraries/STM32F4xx_StdPeriph_Driver/src/stm32f4xx_i2c.c ****   assert_param(IS_I2C_ALL_PERIPH(I2Cx));
 859:/home/rdu/Workspace/project_templates/mcu/stm32_ws/src/libraries/STM32F4xx_StdPeriph_Driver/src/stm32f4xx_i2c.c ****   assert_param(IS_FUNCTIONAL_STATE(NewState));
 860:/home/rdu/Workspace/project_templates/mcu/stm32_ws/src/libraries/STM32F4xx_StdPeriph_Driver/src/stm32f4xx_i2c.c ****   if (NewState != DISABLE)
 1468              		.loc 1 860 0
 1469 000a 9DF80330 		ldrb	r3, [sp, #3]	@ zero_extendqisi2
 1470 000e 002B     		cmp	r3, #0
 1471 0010 08D0     		beq	.L87
 861:/home/rdu/Workspace/project_templates/mcu/stm32_ws/src/libraries/STM32F4xx_StdPeriph_Driver/src/stm32f4xx_i2c.c ****   {
 862:/home/rdu/Workspace/project_templates/mcu/stm32_ws/src/libraries/STM32F4xx_StdPeriph_Driver/src/stm32f4xx_i2c.c ****     /* Enable the selected I2C PEC calculation */
 863:/home/rdu/Workspace/project_templates/mcu/stm32_ws/src/libraries/STM32F4xx_StdPeriph_Driver/src/stm32f4xx_i2c.c ****     I2Cx->CR1 |= I2C_CR1_ENPEC;
 1472              		.loc 1 863 0
 1473 0012 019B     		ldr	r3, [sp, #4]
 1474 0014 1B88     		ldrh	r3, [r3]	@ movhi
 1475 0016 9BB2     		uxth	r3, r3
 1476 0018 43F02003 		orr	r3, r3, #32
 1477 001c 9AB2     		uxth	r2, r3
 1478 001e 019B     		ldr	r3, [sp, #4]
 1479 0020 1A80     		strh	r2, [r3]	@ movhi
 864:/home/rdu/Workspace/project_templates/mcu/stm32_ws/src/libraries/STM32F4xx_StdPeriph_Driver/src/stm32f4xx_i2c.c ****   }
 865:/home/rdu/Workspace/project_templates/mcu/stm32_ws/src/libraries/STM32F4xx_StdPeriph_Driver/src/stm32f4xx_i2c.c ****   else
 866:/home/rdu/Workspace/project_templates/mcu/stm32_ws/src/libraries/STM32F4xx_StdPeriph_Driver/src/stm32f4xx_i2c.c ****   {
 867:/home/rdu/Workspace/project_templates/mcu/stm32_ws/src/libraries/STM32F4xx_StdPeriph_Driver/src/stm32f4xx_i2c.c ****     /* Disable the selected I2C PEC calculation */
 868:/home/rdu/Workspace/project_templates/mcu/stm32_ws/src/libraries/STM32F4xx_StdPeriph_Driver/src/stm32f4xx_i2c.c ****     I2Cx->CR1 &= (uint16_t)~((uint16_t)I2C_CR1_ENPEC);
 869:/home/rdu/Workspace/project_templates/mcu/stm32_ws/src/libraries/STM32F4xx_StdPeriph_Driver/src/stm32f4xx_i2c.c ****   }
 870:/home/rdu/Workspace/project_templates/mcu/stm32_ws/src/libraries/STM32F4xx_StdPeriph_Driver/src/stm32f4xx_i2c.c **** }
 1480              		.loc 1 870 0
 1481 0022 07E0     		b	.L89
 1482              	.L87:
 868:/home/rdu/Workspace/project_templates/mcu/stm32_ws/src/libraries/STM32F4xx_StdPeriph_Driver/src/stm32f4xx_i2c.c ****   }
 1483              		.loc 1 868 0
 1484 0024 019B     		ldr	r3, [sp, #4]
 1485 0026 1B88     		ldrh	r3, [r3]	@ movhi
 1486 0028 9BB2     		uxth	r3, r3
 1487 002a 23F02003 		bic	r3, r3, #32
 1488 002e 9AB2     		uxth	r2, r3
 1489 0030 019B     		ldr	r3, [sp, #4]
 1490 0032 1A80     		strh	r2, [r3]	@ movhi
 1491              	.L89:
 1492              		.loc 1 870 0
 1493 0034 00BF     		nop
 1494 0036 02B0     		add	sp, sp, #8
 1495              	.LCFI49:
 1496              		.cfi_def_cfa_offset 0
 1497              		@ sp needed
 1498 0038 7047     		bx	lr
 1499              		.cfi_endproc
 1500              	.LFE146:
 1502              		.section	.text.I2C_GetPEC,"ax",%progbits
 1503              		.align	1
 1504              		.global	I2C_GetPEC
 1505              		.syntax unified
 1506              		.thumb
 1507              		.thumb_func
 1508              		.fpu fpv4-sp-d16
 1510              	I2C_GetPEC:
 1511              	.LFB147:
 871:/home/rdu/Workspace/project_templates/mcu/stm32_ws/src/libraries/STM32F4xx_StdPeriph_Driver/src/stm32f4xx_i2c.c **** 
 872:/home/rdu/Workspace/project_templates/mcu/stm32_ws/src/libraries/STM32F4xx_StdPeriph_Driver/src/stm32f4xx_i2c.c **** /**
 873:/home/rdu/Workspace/project_templates/mcu/stm32_ws/src/libraries/STM32F4xx_StdPeriph_Driver/src/stm32f4xx_i2c.c ****   * @brief  Returns the PEC value for the specified I2C.
 874:/home/rdu/Workspace/project_templates/mcu/stm32_ws/src/libraries/STM32F4xx_StdPeriph_Driver/src/stm32f4xx_i2c.c ****   * @param  I2Cx: where x can be 1, 2 or 3 to select the I2C peripheral.
 875:/home/rdu/Workspace/project_templates/mcu/stm32_ws/src/libraries/STM32F4xx_StdPeriph_Driver/src/stm32f4xx_i2c.c ****   * @retval The PEC value.
 876:/home/rdu/Workspace/project_templates/mcu/stm32_ws/src/libraries/STM32F4xx_StdPeriph_Driver/src/stm32f4xx_i2c.c ****   */
 877:/home/rdu/Workspace/project_templates/mcu/stm32_ws/src/libraries/STM32F4xx_StdPeriph_Driver/src/stm32f4xx_i2c.c **** uint8_t I2C_GetPEC(I2C_TypeDef* I2Cx)
 878:/home/rdu/Workspace/project_templates/mcu/stm32_ws/src/libraries/STM32F4xx_StdPeriph_Driver/src/stm32f4xx_i2c.c **** {
 1512              		.loc 1 878 0
 1513              		.cfi_startproc
 1514              		@ args = 0, pretend = 0, frame = 8
 1515              		@ frame_needed = 0, uses_anonymous_args = 0
 1516              		@ link register save eliminated.
 1517 0000 82B0     		sub	sp, sp, #8
 1518              	.LCFI50:
 1519              		.cfi_def_cfa_offset 8
 1520 0002 0190     		str	r0, [sp, #4]
 879:/home/rdu/Workspace/project_templates/mcu/stm32_ws/src/libraries/STM32F4xx_StdPeriph_Driver/src/stm32f4xx_i2c.c ****   /* Check the parameters */
 880:/home/rdu/Workspace/project_templates/mcu/stm32_ws/src/libraries/STM32F4xx_StdPeriph_Driver/src/stm32f4xx_i2c.c ****   assert_param(IS_I2C_ALL_PERIPH(I2Cx));
 881:/home/rdu/Workspace/project_templates/mcu/stm32_ws/src/libraries/STM32F4xx_StdPeriph_Driver/src/stm32f4xx_i2c.c ****   /* Return the selected I2C PEC value */
 882:/home/rdu/Workspace/project_templates/mcu/stm32_ws/src/libraries/STM32F4xx_StdPeriph_Driver/src/stm32f4xx_i2c.c ****   return ((I2Cx->SR2) >> 8);
 1521              		.loc 1 882 0
 1522 0004 019B     		ldr	r3, [sp, #4]
 1523 0006 1B8B     		ldrh	r3, [r3, #24]	@ movhi
 1524 0008 9BB2     		uxth	r3, r3
 1525 000a 1B0A     		lsrs	r3, r3, #8
 1526 000c 9BB2     		uxth	r3, r3
 1527 000e DBB2     		uxtb	r3, r3
 883:/home/rdu/Workspace/project_templates/mcu/stm32_ws/src/libraries/STM32F4xx_StdPeriph_Driver/src/stm32f4xx_i2c.c **** }
 1528              		.loc 1 883 0
 1529 0010 1846     		mov	r0, r3
 1530 0012 02B0     		add	sp, sp, #8
 1531              	.LCFI51:
 1532              		.cfi_def_cfa_offset 0
 1533              		@ sp needed
 1534 0014 7047     		bx	lr
 1535              		.cfi_endproc
 1536              	.LFE147:
 1538              		.section	.text.I2C_DMACmd,"ax",%progbits
 1539              		.align	1
 1540              		.global	I2C_DMACmd
 1541              		.syntax unified
 1542              		.thumb
 1543              		.thumb_func
 1544              		.fpu fpv4-sp-d16
 1546              	I2C_DMACmd:
 1547              	.LFB148:
 884:/home/rdu/Workspace/project_templates/mcu/stm32_ws/src/libraries/STM32F4xx_StdPeriph_Driver/src/stm32f4xx_i2c.c **** 
 885:/home/rdu/Workspace/project_templates/mcu/stm32_ws/src/libraries/STM32F4xx_StdPeriph_Driver/src/stm32f4xx_i2c.c **** /**
 886:/home/rdu/Workspace/project_templates/mcu/stm32_ws/src/libraries/STM32F4xx_StdPeriph_Driver/src/stm32f4xx_i2c.c ****   * @}
 887:/home/rdu/Workspace/project_templates/mcu/stm32_ws/src/libraries/STM32F4xx_StdPeriph_Driver/src/stm32f4xx_i2c.c ****   */
 888:/home/rdu/Workspace/project_templates/mcu/stm32_ws/src/libraries/STM32F4xx_StdPeriph_Driver/src/stm32f4xx_i2c.c **** 
 889:/home/rdu/Workspace/project_templates/mcu/stm32_ws/src/libraries/STM32F4xx_StdPeriph_Driver/src/stm32f4xx_i2c.c **** /** @defgroup I2C_Group4 DMA transfers management functions
 890:/home/rdu/Workspace/project_templates/mcu/stm32_ws/src/libraries/STM32F4xx_StdPeriph_Driver/src/stm32f4xx_i2c.c ****  *  @brief   DMA transfers management functions 
 891:/home/rdu/Workspace/project_templates/mcu/stm32_ws/src/libraries/STM32F4xx_StdPeriph_Driver/src/stm32f4xx_i2c.c ****  *
 892:/home/rdu/Workspace/project_templates/mcu/stm32_ws/src/libraries/STM32F4xx_StdPeriph_Driver/src/stm32f4xx_i2c.c **** @verbatim   
 893:/home/rdu/Workspace/project_templates/mcu/stm32_ws/src/libraries/STM32F4xx_StdPeriph_Driver/src/stm32f4xx_i2c.c ****  ===============================================================================
 894:/home/rdu/Workspace/project_templates/mcu/stm32_ws/src/libraries/STM32F4xx_StdPeriph_Driver/src/stm32f4xx_i2c.c ****                 ##### DMA transfers management functions #####
 895:/home/rdu/Workspace/project_templates/mcu/stm32_ws/src/libraries/STM32F4xx_StdPeriph_Driver/src/stm32f4xx_i2c.c ****  ===============================================================================  
 896:/home/rdu/Workspace/project_templates/mcu/stm32_ws/src/libraries/STM32F4xx_StdPeriph_Driver/src/stm32f4xx_i2c.c ****   This section provides functions allowing to configure the I2C DMA channels 
 897:/home/rdu/Workspace/project_templates/mcu/stm32_ws/src/libraries/STM32F4xx_StdPeriph_Driver/src/stm32f4xx_i2c.c ****   requests.
 898:/home/rdu/Workspace/project_templates/mcu/stm32_ws/src/libraries/STM32F4xx_StdPeriph_Driver/src/stm32f4xx_i2c.c ****   
 899:/home/rdu/Workspace/project_templates/mcu/stm32_ws/src/libraries/STM32F4xx_StdPeriph_Driver/src/stm32f4xx_i2c.c **** @endverbatim
 900:/home/rdu/Workspace/project_templates/mcu/stm32_ws/src/libraries/STM32F4xx_StdPeriph_Driver/src/stm32f4xx_i2c.c ****   * @{
 901:/home/rdu/Workspace/project_templates/mcu/stm32_ws/src/libraries/STM32F4xx_StdPeriph_Driver/src/stm32f4xx_i2c.c ****   */
 902:/home/rdu/Workspace/project_templates/mcu/stm32_ws/src/libraries/STM32F4xx_StdPeriph_Driver/src/stm32f4xx_i2c.c **** 
 903:/home/rdu/Workspace/project_templates/mcu/stm32_ws/src/libraries/STM32F4xx_StdPeriph_Driver/src/stm32f4xx_i2c.c **** /**
 904:/home/rdu/Workspace/project_templates/mcu/stm32_ws/src/libraries/STM32F4xx_StdPeriph_Driver/src/stm32f4xx_i2c.c ****   * @brief  Enables or disables the specified I2C DMA requests.
 905:/home/rdu/Workspace/project_templates/mcu/stm32_ws/src/libraries/STM32F4xx_StdPeriph_Driver/src/stm32f4xx_i2c.c ****   * @param  I2Cx: where x can be 1, 2 or 3 to select the I2C peripheral.
 906:/home/rdu/Workspace/project_templates/mcu/stm32_ws/src/libraries/STM32F4xx_StdPeriph_Driver/src/stm32f4xx_i2c.c ****   * @param  NewState: new state of the I2C DMA transfer.
 907:/home/rdu/Workspace/project_templates/mcu/stm32_ws/src/libraries/STM32F4xx_StdPeriph_Driver/src/stm32f4xx_i2c.c ****   *          This parameter can be: ENABLE or DISABLE.
 908:/home/rdu/Workspace/project_templates/mcu/stm32_ws/src/libraries/STM32F4xx_StdPeriph_Driver/src/stm32f4xx_i2c.c ****   * @retval None
 909:/home/rdu/Workspace/project_templates/mcu/stm32_ws/src/libraries/STM32F4xx_StdPeriph_Driver/src/stm32f4xx_i2c.c ****   */
 910:/home/rdu/Workspace/project_templates/mcu/stm32_ws/src/libraries/STM32F4xx_StdPeriph_Driver/src/stm32f4xx_i2c.c **** void I2C_DMACmd(I2C_TypeDef* I2Cx, FunctionalState NewState)
 911:/home/rdu/Workspace/project_templates/mcu/stm32_ws/src/libraries/STM32F4xx_StdPeriph_Driver/src/stm32f4xx_i2c.c **** {
 1548              		.loc 1 911 0
 1549              		.cfi_startproc
 1550              		@ args = 0, pretend = 0, frame = 8
 1551              		@ frame_needed = 0, uses_anonymous_args = 0
 1552              		@ link register save eliminated.
 1553 0000 82B0     		sub	sp, sp, #8
 1554              	.LCFI52:
 1555              		.cfi_def_cfa_offset 8
 1556 0002 0190     		str	r0, [sp, #4]
 1557 0004 0B46     		mov	r3, r1
 1558 0006 8DF80330 		strb	r3, [sp, #3]
 912:/home/rdu/Workspace/project_templates/mcu/stm32_ws/src/libraries/STM32F4xx_StdPeriph_Driver/src/stm32f4xx_i2c.c ****   /* Check the parameters */
 913:/home/rdu/Workspace/project_templates/mcu/stm32_ws/src/libraries/STM32F4xx_StdPeriph_Driver/src/stm32f4xx_i2c.c ****   assert_param(IS_I2C_ALL_PERIPH(I2Cx));
 914:/home/rdu/Workspace/project_templates/mcu/stm32_ws/src/libraries/STM32F4xx_StdPeriph_Driver/src/stm32f4xx_i2c.c ****   assert_param(IS_FUNCTIONAL_STATE(NewState));
 915:/home/rdu/Workspace/project_templates/mcu/stm32_ws/src/libraries/STM32F4xx_StdPeriph_Driver/src/stm32f4xx_i2c.c ****   if (NewState != DISABLE)
 1559              		.loc 1 915 0
 1560 000a 9DF80330 		ldrb	r3, [sp, #3]	@ zero_extendqisi2
 1561 000e 002B     		cmp	r3, #0
 1562 0010 08D0     		beq	.L93
 916:/home/rdu/Workspace/project_templates/mcu/stm32_ws/src/libraries/STM32F4xx_StdPeriph_Driver/src/stm32f4xx_i2c.c ****   {
 917:/home/rdu/Workspace/project_templates/mcu/stm32_ws/src/libraries/STM32F4xx_StdPeriph_Driver/src/stm32f4xx_i2c.c ****     /* Enable the selected I2C DMA requests */
 918:/home/rdu/Workspace/project_templates/mcu/stm32_ws/src/libraries/STM32F4xx_StdPeriph_Driver/src/stm32f4xx_i2c.c ****     I2Cx->CR2 |= I2C_CR2_DMAEN;
 1563              		.loc 1 918 0
 1564 0012 019B     		ldr	r3, [sp, #4]
 1565 0014 9B88     		ldrh	r3, [r3, #4]	@ movhi
 1566 0016 9BB2     		uxth	r3, r3
 1567 0018 43F40063 		orr	r3, r3, #2048
 1568 001c 9AB2     		uxth	r2, r3
 1569 001e 019B     		ldr	r3, [sp, #4]
 1570 0020 9A80     		strh	r2, [r3, #4]	@ movhi
 919:/home/rdu/Workspace/project_templates/mcu/stm32_ws/src/libraries/STM32F4xx_StdPeriph_Driver/src/stm32f4xx_i2c.c ****   }
 920:/home/rdu/Workspace/project_templates/mcu/stm32_ws/src/libraries/STM32F4xx_StdPeriph_Driver/src/stm32f4xx_i2c.c ****   else
 921:/home/rdu/Workspace/project_templates/mcu/stm32_ws/src/libraries/STM32F4xx_StdPeriph_Driver/src/stm32f4xx_i2c.c ****   {
 922:/home/rdu/Workspace/project_templates/mcu/stm32_ws/src/libraries/STM32F4xx_StdPeriph_Driver/src/stm32f4xx_i2c.c ****     /* Disable the selected I2C DMA requests */
 923:/home/rdu/Workspace/project_templates/mcu/stm32_ws/src/libraries/STM32F4xx_StdPeriph_Driver/src/stm32f4xx_i2c.c ****     I2Cx->CR2 &= (uint16_t)~((uint16_t)I2C_CR2_DMAEN);
 924:/home/rdu/Workspace/project_templates/mcu/stm32_ws/src/libraries/STM32F4xx_StdPeriph_Driver/src/stm32f4xx_i2c.c ****   }
 925:/home/rdu/Workspace/project_templates/mcu/stm32_ws/src/libraries/STM32F4xx_StdPeriph_Driver/src/stm32f4xx_i2c.c **** }
 1571              		.loc 1 925 0
 1572 0022 07E0     		b	.L95
 1573              	.L93:
 923:/home/rdu/Workspace/project_templates/mcu/stm32_ws/src/libraries/STM32F4xx_StdPeriph_Driver/src/stm32f4xx_i2c.c ****   }
 1574              		.loc 1 923 0
 1575 0024 019B     		ldr	r3, [sp, #4]
 1576 0026 9B88     		ldrh	r3, [r3, #4]	@ movhi
 1577 0028 9BB2     		uxth	r3, r3
 1578 002a 23F40063 		bic	r3, r3, #2048
 1579 002e 9AB2     		uxth	r2, r3
 1580 0030 019B     		ldr	r3, [sp, #4]
 1581 0032 9A80     		strh	r2, [r3, #4]	@ movhi
 1582              	.L95:
 1583              		.loc 1 925 0
 1584 0034 00BF     		nop
 1585 0036 02B0     		add	sp, sp, #8
 1586              	.LCFI53:
 1587              		.cfi_def_cfa_offset 0
 1588              		@ sp needed
 1589 0038 7047     		bx	lr
 1590              		.cfi_endproc
 1591              	.LFE148:
 1593              		.section	.text.I2C_DMALastTransferCmd,"ax",%progbits
 1594              		.align	1
 1595              		.global	I2C_DMALastTransferCmd
 1596              		.syntax unified
 1597              		.thumb
 1598              		.thumb_func
 1599              		.fpu fpv4-sp-d16
 1601              	I2C_DMALastTransferCmd:
 1602              	.LFB149:
 926:/home/rdu/Workspace/project_templates/mcu/stm32_ws/src/libraries/STM32F4xx_StdPeriph_Driver/src/stm32f4xx_i2c.c **** 
 927:/home/rdu/Workspace/project_templates/mcu/stm32_ws/src/libraries/STM32F4xx_StdPeriph_Driver/src/stm32f4xx_i2c.c **** /**
 928:/home/rdu/Workspace/project_templates/mcu/stm32_ws/src/libraries/STM32F4xx_StdPeriph_Driver/src/stm32f4xx_i2c.c ****   * @brief  Specifies that the next DMA transfer is the last one.
 929:/home/rdu/Workspace/project_templates/mcu/stm32_ws/src/libraries/STM32F4xx_StdPeriph_Driver/src/stm32f4xx_i2c.c ****   * @param  I2Cx: where x can be 1, 2 or 3 to select the I2C peripheral.
 930:/home/rdu/Workspace/project_templates/mcu/stm32_ws/src/libraries/STM32F4xx_StdPeriph_Driver/src/stm32f4xx_i2c.c ****   * @param  NewState: new state of the I2C DMA last transfer.
 931:/home/rdu/Workspace/project_templates/mcu/stm32_ws/src/libraries/STM32F4xx_StdPeriph_Driver/src/stm32f4xx_i2c.c ****   *          This parameter can be: ENABLE or DISABLE.
 932:/home/rdu/Workspace/project_templates/mcu/stm32_ws/src/libraries/STM32F4xx_StdPeriph_Driver/src/stm32f4xx_i2c.c ****   * @retval None
 933:/home/rdu/Workspace/project_templates/mcu/stm32_ws/src/libraries/STM32F4xx_StdPeriph_Driver/src/stm32f4xx_i2c.c ****   */
 934:/home/rdu/Workspace/project_templates/mcu/stm32_ws/src/libraries/STM32F4xx_StdPeriph_Driver/src/stm32f4xx_i2c.c **** void I2C_DMALastTransferCmd(I2C_TypeDef* I2Cx, FunctionalState NewState)
 935:/home/rdu/Workspace/project_templates/mcu/stm32_ws/src/libraries/STM32F4xx_StdPeriph_Driver/src/stm32f4xx_i2c.c **** {
 1603              		.loc 1 935 0
 1604              		.cfi_startproc
 1605              		@ args = 0, pretend = 0, frame = 8
 1606              		@ frame_needed = 0, uses_anonymous_args = 0
 1607              		@ link register save eliminated.
 1608 0000 82B0     		sub	sp, sp, #8
 1609              	.LCFI54:
 1610              		.cfi_def_cfa_offset 8
 1611 0002 0190     		str	r0, [sp, #4]
 1612 0004 0B46     		mov	r3, r1
 1613 0006 8DF80330 		strb	r3, [sp, #3]
 936:/home/rdu/Workspace/project_templates/mcu/stm32_ws/src/libraries/STM32F4xx_StdPeriph_Driver/src/stm32f4xx_i2c.c ****   /* Check the parameters */
 937:/home/rdu/Workspace/project_templates/mcu/stm32_ws/src/libraries/STM32F4xx_StdPeriph_Driver/src/stm32f4xx_i2c.c ****   assert_param(IS_I2C_ALL_PERIPH(I2Cx));
 938:/home/rdu/Workspace/project_templates/mcu/stm32_ws/src/libraries/STM32F4xx_StdPeriph_Driver/src/stm32f4xx_i2c.c ****   assert_param(IS_FUNCTIONAL_STATE(NewState));
 939:/home/rdu/Workspace/project_templates/mcu/stm32_ws/src/libraries/STM32F4xx_StdPeriph_Driver/src/stm32f4xx_i2c.c ****   if (NewState != DISABLE)
 1614              		.loc 1 939 0
 1615 000a 9DF80330 		ldrb	r3, [sp, #3]	@ zero_extendqisi2
 1616 000e 002B     		cmp	r3, #0
 1617 0010 08D0     		beq	.L97
 940:/home/rdu/Workspace/project_templates/mcu/stm32_ws/src/libraries/STM32F4xx_StdPeriph_Driver/src/stm32f4xx_i2c.c ****   {
 941:/home/rdu/Workspace/project_templates/mcu/stm32_ws/src/libraries/STM32F4xx_StdPeriph_Driver/src/stm32f4xx_i2c.c ****     /* Next DMA transfer is the last transfer */
 942:/home/rdu/Workspace/project_templates/mcu/stm32_ws/src/libraries/STM32F4xx_StdPeriph_Driver/src/stm32f4xx_i2c.c ****     I2Cx->CR2 |= I2C_CR2_LAST;
 1618              		.loc 1 942 0
 1619 0012 019B     		ldr	r3, [sp, #4]
 1620 0014 9B88     		ldrh	r3, [r3, #4]	@ movhi
 1621 0016 9BB2     		uxth	r3, r3
 1622 0018 43F48053 		orr	r3, r3, #4096
 1623 001c 9AB2     		uxth	r2, r3
 1624 001e 019B     		ldr	r3, [sp, #4]
 1625 0020 9A80     		strh	r2, [r3, #4]	@ movhi
 943:/home/rdu/Workspace/project_templates/mcu/stm32_ws/src/libraries/STM32F4xx_StdPeriph_Driver/src/stm32f4xx_i2c.c ****   }
 944:/home/rdu/Workspace/project_templates/mcu/stm32_ws/src/libraries/STM32F4xx_StdPeriph_Driver/src/stm32f4xx_i2c.c ****   else
 945:/home/rdu/Workspace/project_templates/mcu/stm32_ws/src/libraries/STM32F4xx_StdPeriph_Driver/src/stm32f4xx_i2c.c ****   {
 946:/home/rdu/Workspace/project_templates/mcu/stm32_ws/src/libraries/STM32F4xx_StdPeriph_Driver/src/stm32f4xx_i2c.c ****     /* Next DMA transfer is not the last transfer */
 947:/home/rdu/Workspace/project_templates/mcu/stm32_ws/src/libraries/STM32F4xx_StdPeriph_Driver/src/stm32f4xx_i2c.c ****     I2Cx->CR2 &= (uint16_t)~((uint16_t)I2C_CR2_LAST);
 948:/home/rdu/Workspace/project_templates/mcu/stm32_ws/src/libraries/STM32F4xx_StdPeriph_Driver/src/stm32f4xx_i2c.c ****   }
 949:/home/rdu/Workspace/project_templates/mcu/stm32_ws/src/libraries/STM32F4xx_StdPeriph_Driver/src/stm32f4xx_i2c.c **** }
 1626              		.loc 1 949 0
 1627 0022 07E0     		b	.L99
 1628              	.L97:
 947:/home/rdu/Workspace/project_templates/mcu/stm32_ws/src/libraries/STM32F4xx_StdPeriph_Driver/src/stm32f4xx_i2c.c ****   }
 1629              		.loc 1 947 0
 1630 0024 019B     		ldr	r3, [sp, #4]
 1631 0026 9B88     		ldrh	r3, [r3, #4]	@ movhi
 1632 0028 9BB2     		uxth	r3, r3
 1633 002a 23F48053 		bic	r3, r3, #4096
 1634 002e 9AB2     		uxth	r2, r3
 1635 0030 019B     		ldr	r3, [sp, #4]
 1636 0032 9A80     		strh	r2, [r3, #4]	@ movhi
 1637              	.L99:
 1638              		.loc 1 949 0
 1639 0034 00BF     		nop
 1640 0036 02B0     		add	sp, sp, #8
 1641              	.LCFI55:
 1642              		.cfi_def_cfa_offset 0
 1643              		@ sp needed
 1644 0038 7047     		bx	lr
 1645              		.cfi_endproc
 1646              	.LFE149:
 1648              		.section	.text.I2C_ReadRegister,"ax",%progbits
 1649              		.align	1
 1650              		.global	I2C_ReadRegister
 1651              		.syntax unified
 1652              		.thumb
 1653              		.thumb_func
 1654              		.fpu fpv4-sp-d16
 1656              	I2C_ReadRegister:
 1657              	.LFB150:
 950:/home/rdu/Workspace/project_templates/mcu/stm32_ws/src/libraries/STM32F4xx_StdPeriph_Driver/src/stm32f4xx_i2c.c **** 
 951:/home/rdu/Workspace/project_templates/mcu/stm32_ws/src/libraries/STM32F4xx_StdPeriph_Driver/src/stm32f4xx_i2c.c **** /**
 952:/home/rdu/Workspace/project_templates/mcu/stm32_ws/src/libraries/STM32F4xx_StdPeriph_Driver/src/stm32f4xx_i2c.c ****   * @}
 953:/home/rdu/Workspace/project_templates/mcu/stm32_ws/src/libraries/STM32F4xx_StdPeriph_Driver/src/stm32f4xx_i2c.c ****   */
 954:/home/rdu/Workspace/project_templates/mcu/stm32_ws/src/libraries/STM32F4xx_StdPeriph_Driver/src/stm32f4xx_i2c.c **** 
 955:/home/rdu/Workspace/project_templates/mcu/stm32_ws/src/libraries/STM32F4xx_StdPeriph_Driver/src/stm32f4xx_i2c.c **** /** @defgroup I2C_Group5 Interrupts events and flags management functions
 956:/home/rdu/Workspace/project_templates/mcu/stm32_ws/src/libraries/STM32F4xx_StdPeriph_Driver/src/stm32f4xx_i2c.c ****  *  @brief   Interrupts, events and flags management functions
 957:/home/rdu/Workspace/project_templates/mcu/stm32_ws/src/libraries/STM32F4xx_StdPeriph_Driver/src/stm32f4xx_i2c.c ****  *
 958:/home/rdu/Workspace/project_templates/mcu/stm32_ws/src/libraries/STM32F4xx_StdPeriph_Driver/src/stm32f4xx_i2c.c **** @verbatim   
 959:/home/rdu/Workspace/project_templates/mcu/stm32_ws/src/libraries/STM32F4xx_StdPeriph_Driver/src/stm32f4xx_i2c.c ****  ===============================================================================
 960:/home/rdu/Workspace/project_templates/mcu/stm32_ws/src/libraries/STM32F4xx_StdPeriph_Driver/src/stm32f4xx_i2c.c ****           ##### Interrupts, events and flags management functions #####
 961:/home/rdu/Workspace/project_templates/mcu/stm32_ws/src/libraries/STM32F4xx_StdPeriph_Driver/src/stm32f4xx_i2c.c ****  ===============================================================================
 962:/home/rdu/Workspace/project_templates/mcu/stm32_ws/src/libraries/STM32F4xx_StdPeriph_Driver/src/stm32f4xx_i2c.c ****     [..]
 963:/home/rdu/Workspace/project_templates/mcu/stm32_ws/src/libraries/STM32F4xx_StdPeriph_Driver/src/stm32f4xx_i2c.c ****     This section provides functions allowing to configure the I2C Interrupts 
 964:/home/rdu/Workspace/project_templates/mcu/stm32_ws/src/libraries/STM32F4xx_StdPeriph_Driver/src/stm32f4xx_i2c.c ****     sources and check or clear the flags or pending bits status.
 965:/home/rdu/Workspace/project_templates/mcu/stm32_ws/src/libraries/STM32F4xx_StdPeriph_Driver/src/stm32f4xx_i2c.c ****     The user should identify which mode will be used in his application to manage 
 966:/home/rdu/Workspace/project_templates/mcu/stm32_ws/src/libraries/STM32F4xx_StdPeriph_Driver/src/stm32f4xx_i2c.c ****     the communication: Polling mode, Interrupt mode or DMA mode. 
 967:/home/rdu/Workspace/project_templates/mcu/stm32_ws/src/libraries/STM32F4xx_StdPeriph_Driver/src/stm32f4xx_i2c.c **** 
 968:/home/rdu/Workspace/project_templates/mcu/stm32_ws/src/libraries/STM32F4xx_StdPeriph_Driver/src/stm32f4xx_i2c.c **** 
 969:/home/rdu/Workspace/project_templates/mcu/stm32_ws/src/libraries/STM32F4xx_StdPeriph_Driver/src/stm32f4xx_i2c.c ****                 ##### I2C State Monitoring Functions #####                   
 970:/home/rdu/Workspace/project_templates/mcu/stm32_ws/src/libraries/STM32F4xx_StdPeriph_Driver/src/stm32f4xx_i2c.c ****  =============================================================================== 
 971:/home/rdu/Workspace/project_templates/mcu/stm32_ws/src/libraries/STM32F4xx_StdPeriph_Driver/src/stm32f4xx_i2c.c ****     [..]  
 972:/home/rdu/Workspace/project_templates/mcu/stm32_ws/src/libraries/STM32F4xx_StdPeriph_Driver/src/stm32f4xx_i2c.c ****     This I2C driver provides three different ways for I2C state monitoring
 973:/home/rdu/Workspace/project_templates/mcu/stm32_ws/src/libraries/STM32F4xx_StdPeriph_Driver/src/stm32f4xx_i2c.c ****     depending on the application requirements and constraints:
 974:/home/rdu/Workspace/project_templates/mcu/stm32_ws/src/libraries/STM32F4xx_StdPeriph_Driver/src/stm32f4xx_i2c.c ****          
 975:/home/rdu/Workspace/project_templates/mcu/stm32_ws/src/libraries/STM32F4xx_StdPeriph_Driver/src/stm32f4xx_i2c.c ****    
 976:/home/rdu/Workspace/project_templates/mcu/stm32_ws/src/libraries/STM32F4xx_StdPeriph_Driver/src/stm32f4xx_i2c.c ****      (#) Basic state monitoring (Using I2C_CheckEvent() function)
 977:/home/rdu/Workspace/project_templates/mcu/stm32_ws/src/libraries/STM32F4xx_StdPeriph_Driver/src/stm32f4xx_i2c.c ****      
 978:/home/rdu/Workspace/project_templates/mcu/stm32_ws/src/libraries/STM32F4xx_StdPeriph_Driver/src/stm32f4xx_i2c.c ****         It compares the status registers (SR1 and SR2) content to a given event
 979:/home/rdu/Workspace/project_templates/mcu/stm32_ws/src/libraries/STM32F4xx_StdPeriph_Driver/src/stm32f4xx_i2c.c ****         (can be the combination of one or more flags).
 980:/home/rdu/Workspace/project_templates/mcu/stm32_ws/src/libraries/STM32F4xx_StdPeriph_Driver/src/stm32f4xx_i2c.c ****         It returns SUCCESS if the current status includes the given flags 
 981:/home/rdu/Workspace/project_templates/mcu/stm32_ws/src/libraries/STM32F4xx_StdPeriph_Driver/src/stm32f4xx_i2c.c ****         and returns ERROR if one or more flags are missing in the current status.
 982:/home/rdu/Workspace/project_templates/mcu/stm32_ws/src/libraries/STM32F4xx_StdPeriph_Driver/src/stm32f4xx_i2c.c **** 
 983:/home/rdu/Workspace/project_templates/mcu/stm32_ws/src/libraries/STM32F4xx_StdPeriph_Driver/src/stm32f4xx_i2c.c ****           (++) When to use
 984:/home/rdu/Workspace/project_templates/mcu/stm32_ws/src/libraries/STM32F4xx_StdPeriph_Driver/src/stm32f4xx_i2c.c ****              (+++) This function is suitable for most applications as well as for startup 
 985:/home/rdu/Workspace/project_templates/mcu/stm32_ws/src/libraries/STM32F4xx_StdPeriph_Driver/src/stm32f4xx_i2c.c ****                activity since the events are fully described in the product reference 
 986:/home/rdu/Workspace/project_templates/mcu/stm32_ws/src/libraries/STM32F4xx_StdPeriph_Driver/src/stm32f4xx_i2c.c ****                manual (RM0090).
 987:/home/rdu/Workspace/project_templates/mcu/stm32_ws/src/libraries/STM32F4xx_StdPeriph_Driver/src/stm32f4xx_i2c.c ****              (+++) It is also suitable for users who need to define their own events.
 988:/home/rdu/Workspace/project_templates/mcu/stm32_ws/src/libraries/STM32F4xx_StdPeriph_Driver/src/stm32f4xx_i2c.c **** 
 989:/home/rdu/Workspace/project_templates/mcu/stm32_ws/src/libraries/STM32F4xx_StdPeriph_Driver/src/stm32f4xx_i2c.c ****           (++) Limitations
 990:/home/rdu/Workspace/project_templates/mcu/stm32_ws/src/libraries/STM32F4xx_StdPeriph_Driver/src/stm32f4xx_i2c.c ****                If an error occurs (ie. error flags are set besides to the monitored 
 991:/home/rdu/Workspace/project_templates/mcu/stm32_ws/src/libraries/STM32F4xx_StdPeriph_Driver/src/stm32f4xx_i2c.c ****                flags), the I2C_CheckEvent() function may return SUCCESS despite 
 992:/home/rdu/Workspace/project_templates/mcu/stm32_ws/src/libraries/STM32F4xx_StdPeriph_Driver/src/stm32f4xx_i2c.c ****                the communication hold or corrupted real state. 
 993:/home/rdu/Workspace/project_templates/mcu/stm32_ws/src/libraries/STM32F4xx_StdPeriph_Driver/src/stm32f4xx_i2c.c ****                In this case, it is advised to use error interrupts to monitor 
 994:/home/rdu/Workspace/project_templates/mcu/stm32_ws/src/libraries/STM32F4xx_StdPeriph_Driver/src/stm32f4xx_i2c.c ****                the error events and handle them in the interrupt IRQ handler.
 995:/home/rdu/Workspace/project_templates/mcu/stm32_ws/src/libraries/STM32F4xx_StdPeriph_Driver/src/stm32f4xx_i2c.c ****          
 996:/home/rdu/Workspace/project_templates/mcu/stm32_ws/src/libraries/STM32F4xx_StdPeriph_Driver/src/stm32f4xx_i2c.c ****      -@@- For error management, it is advised to use the following functions:
 997:/home/rdu/Workspace/project_templates/mcu/stm32_ws/src/libraries/STM32F4xx_StdPeriph_Driver/src/stm32f4xx_i2c.c ****         (+@@) I2C_ITConfig() to configure and enable the error interrupts (I2C_IT_ERR).
 998:/home/rdu/Workspace/project_templates/mcu/stm32_ws/src/libraries/STM32F4xx_StdPeriph_Driver/src/stm32f4xx_i2c.c ****         (+@@) I2Cx_ER_IRQHandler() which is called when the error interrupt occurs.
 999:/home/rdu/Workspace/project_templates/mcu/stm32_ws/src/libraries/STM32F4xx_StdPeriph_Driver/src/stm32f4xx_i2c.c ****               Where x is the peripheral instance (I2C1, I2C2 ...)
1000:/home/rdu/Workspace/project_templates/mcu/stm32_ws/src/libraries/STM32F4xx_StdPeriph_Driver/src/stm32f4xx_i2c.c ****         (+@@) I2C_GetFlagStatus() or I2C_GetITStatus()  to be called into the 
1001:/home/rdu/Workspace/project_templates/mcu/stm32_ws/src/libraries/STM32F4xx_StdPeriph_Driver/src/stm32f4xx_i2c.c ****               I2Cx_ER_IRQHandler() function in order to determine which error occurred.
1002:/home/rdu/Workspace/project_templates/mcu/stm32_ws/src/libraries/STM32F4xx_StdPeriph_Driver/src/stm32f4xx_i2c.c ****         (+@@) I2C_ClearFlag() or I2C_ClearITPendingBit() and/or I2C_SoftwareResetCmd() 
1003:/home/rdu/Workspace/project_templates/mcu/stm32_ws/src/libraries/STM32F4xx_StdPeriph_Driver/src/stm32f4xx_i2c.c ****               and/or I2C_GenerateStop() in order to clear the error flag and source 
1004:/home/rdu/Workspace/project_templates/mcu/stm32_ws/src/libraries/STM32F4xx_StdPeriph_Driver/src/stm32f4xx_i2c.c ****               and return to correct  communication status.
1005:/home/rdu/Workspace/project_templates/mcu/stm32_ws/src/libraries/STM32F4xx_StdPeriph_Driver/src/stm32f4xx_i2c.c ****              
1006:/home/rdu/Workspace/project_templates/mcu/stm32_ws/src/libraries/STM32F4xx_StdPeriph_Driver/src/stm32f4xx_i2c.c ****  
1007:/home/rdu/Workspace/project_templates/mcu/stm32_ws/src/libraries/STM32F4xx_StdPeriph_Driver/src/stm32f4xx_i2c.c ****      (#) Advanced state monitoring (Using the function I2C_GetLastEvent())
1008:/home/rdu/Workspace/project_templates/mcu/stm32_ws/src/libraries/STM32F4xx_StdPeriph_Driver/src/stm32f4xx_i2c.c **** 
1009:/home/rdu/Workspace/project_templates/mcu/stm32_ws/src/libraries/STM32F4xx_StdPeriph_Driver/src/stm32f4xx_i2c.c ****         Using the function I2C_GetLastEvent() which returns the image of both status 
1010:/home/rdu/Workspace/project_templates/mcu/stm32_ws/src/libraries/STM32F4xx_StdPeriph_Driver/src/stm32f4xx_i2c.c ****         registers in a single word (uint32_t) (Status Register 2 value is shifted left 
1011:/home/rdu/Workspace/project_templates/mcu/stm32_ws/src/libraries/STM32F4xx_StdPeriph_Driver/src/stm32f4xx_i2c.c ****         by 16 bits and concatenated to Status Register 1).
1012:/home/rdu/Workspace/project_templates/mcu/stm32_ws/src/libraries/STM32F4xx_StdPeriph_Driver/src/stm32f4xx_i2c.c **** 
1013:/home/rdu/Workspace/project_templates/mcu/stm32_ws/src/libraries/STM32F4xx_StdPeriph_Driver/src/stm32f4xx_i2c.c ****           (++) When to use
1014:/home/rdu/Workspace/project_templates/mcu/stm32_ws/src/libraries/STM32F4xx_StdPeriph_Driver/src/stm32f4xx_i2c.c ****              (+++) This function is suitable for the same applications above but it 
1015:/home/rdu/Workspace/project_templates/mcu/stm32_ws/src/libraries/STM32F4xx_StdPeriph_Driver/src/stm32f4xx_i2c.c ****                allows to overcome the mentioned limitation of I2C_GetFlagStatus() 
1016:/home/rdu/Workspace/project_templates/mcu/stm32_ws/src/libraries/STM32F4xx_StdPeriph_Driver/src/stm32f4xx_i2c.c ****                function.
1017:/home/rdu/Workspace/project_templates/mcu/stm32_ws/src/libraries/STM32F4xx_StdPeriph_Driver/src/stm32f4xx_i2c.c ****              (+++) The returned value could be compared to events already defined in 
1018:/home/rdu/Workspace/project_templates/mcu/stm32_ws/src/libraries/STM32F4xx_StdPeriph_Driver/src/stm32f4xx_i2c.c ****                the library (stm32f4xx_i2c.h) or to custom values defined by user.
1019:/home/rdu/Workspace/project_templates/mcu/stm32_ws/src/libraries/STM32F4xx_StdPeriph_Driver/src/stm32f4xx_i2c.c ****                This function is suitable when multiple flags are monitored at the 
1020:/home/rdu/Workspace/project_templates/mcu/stm32_ws/src/libraries/STM32F4xx_StdPeriph_Driver/src/stm32f4xx_i2c.c ****                same time.
1021:/home/rdu/Workspace/project_templates/mcu/stm32_ws/src/libraries/STM32F4xx_StdPeriph_Driver/src/stm32f4xx_i2c.c ****              (+++) At the opposite of I2C_CheckEvent() function, this function allows 
1022:/home/rdu/Workspace/project_templates/mcu/stm32_ws/src/libraries/STM32F4xx_StdPeriph_Driver/src/stm32f4xx_i2c.c ****                user to choose when an event is accepted (when all events flags are 
1023:/home/rdu/Workspace/project_templates/mcu/stm32_ws/src/libraries/STM32F4xx_StdPeriph_Driver/src/stm32f4xx_i2c.c ****                set and no other flags are set or just when the needed flags are set 
1024:/home/rdu/Workspace/project_templates/mcu/stm32_ws/src/libraries/STM32F4xx_StdPeriph_Driver/src/stm32f4xx_i2c.c ****                like I2C_CheckEvent() function.
1025:/home/rdu/Workspace/project_templates/mcu/stm32_ws/src/libraries/STM32F4xx_StdPeriph_Driver/src/stm32f4xx_i2c.c **** 
1026:/home/rdu/Workspace/project_templates/mcu/stm32_ws/src/libraries/STM32F4xx_StdPeriph_Driver/src/stm32f4xx_i2c.c ****           (++) Limitations
1027:/home/rdu/Workspace/project_templates/mcu/stm32_ws/src/libraries/STM32F4xx_StdPeriph_Driver/src/stm32f4xx_i2c.c ****              (+++) User may need to define his own events.
1028:/home/rdu/Workspace/project_templates/mcu/stm32_ws/src/libraries/STM32F4xx_StdPeriph_Driver/src/stm32f4xx_i2c.c ****              (+++) Same remark concerning the error management is applicable for this 
1029:/home/rdu/Workspace/project_templates/mcu/stm32_ws/src/libraries/STM32F4xx_StdPeriph_Driver/src/stm32f4xx_i2c.c ****                function if user decides to check only regular communication flags 
1030:/home/rdu/Workspace/project_templates/mcu/stm32_ws/src/libraries/STM32F4xx_StdPeriph_Driver/src/stm32f4xx_i2c.c ****                (and ignores error flags).
1031:/home/rdu/Workspace/project_templates/mcu/stm32_ws/src/libraries/STM32F4xx_StdPeriph_Driver/src/stm32f4xx_i2c.c ****       
1032:/home/rdu/Workspace/project_templates/mcu/stm32_ws/src/libraries/STM32F4xx_StdPeriph_Driver/src/stm32f4xx_i2c.c ****  
1033:/home/rdu/Workspace/project_templates/mcu/stm32_ws/src/libraries/STM32F4xx_StdPeriph_Driver/src/stm32f4xx_i2c.c ****      (#) Flag-based state monitoring (Using the function I2C_GetFlagStatus())
1034:/home/rdu/Workspace/project_templates/mcu/stm32_ws/src/libraries/STM32F4xx_StdPeriph_Driver/src/stm32f4xx_i2c.c ****      
1035:/home/rdu/Workspace/project_templates/mcu/stm32_ws/src/libraries/STM32F4xx_StdPeriph_Driver/src/stm32f4xx_i2c.c ****       Using the function I2C_GetFlagStatus() which simply returns the status of 
1036:/home/rdu/Workspace/project_templates/mcu/stm32_ws/src/libraries/STM32F4xx_StdPeriph_Driver/src/stm32f4xx_i2c.c ****       one single flag (ie. I2C_FLAG_RXNE ...). 
1037:/home/rdu/Workspace/project_templates/mcu/stm32_ws/src/libraries/STM32F4xx_StdPeriph_Driver/src/stm32f4xx_i2c.c **** 
1038:/home/rdu/Workspace/project_templates/mcu/stm32_ws/src/libraries/STM32F4xx_StdPeriph_Driver/src/stm32f4xx_i2c.c ****           (++) When to use
1039:/home/rdu/Workspace/project_templates/mcu/stm32_ws/src/libraries/STM32F4xx_StdPeriph_Driver/src/stm32f4xx_i2c.c ****              (+++) This function could be used for specific applications or in debug 
1040:/home/rdu/Workspace/project_templates/mcu/stm32_ws/src/libraries/STM32F4xx_StdPeriph_Driver/src/stm32f4xx_i2c.c ****                phase.
1041:/home/rdu/Workspace/project_templates/mcu/stm32_ws/src/libraries/STM32F4xx_StdPeriph_Driver/src/stm32f4xx_i2c.c ****              (+++) It is suitable when only one flag checking is needed (most I2C 
1042:/home/rdu/Workspace/project_templates/mcu/stm32_ws/src/libraries/STM32F4xx_StdPeriph_Driver/src/stm32f4xx_i2c.c ****                events are monitored through multiple flags).
1043:/home/rdu/Workspace/project_templates/mcu/stm32_ws/src/libraries/STM32F4xx_StdPeriph_Driver/src/stm32f4xx_i2c.c ****           (++) Limitations: 
1044:/home/rdu/Workspace/project_templates/mcu/stm32_ws/src/libraries/STM32F4xx_StdPeriph_Driver/src/stm32f4xx_i2c.c ****              (+++) When calling this function, the Status register is accessed. 
1045:/home/rdu/Workspace/project_templates/mcu/stm32_ws/src/libraries/STM32F4xx_StdPeriph_Driver/src/stm32f4xx_i2c.c ****                Some flags are cleared when the status register is accessed. 
1046:/home/rdu/Workspace/project_templates/mcu/stm32_ws/src/libraries/STM32F4xx_StdPeriph_Driver/src/stm32f4xx_i2c.c ****                So checking the status of one Flag, may clear other ones.
1047:/home/rdu/Workspace/project_templates/mcu/stm32_ws/src/libraries/STM32F4xx_StdPeriph_Driver/src/stm32f4xx_i2c.c ****              (+++) Function may need to be called twice or more in order to monitor 
1048:/home/rdu/Workspace/project_templates/mcu/stm32_ws/src/libraries/STM32F4xx_StdPeriph_Driver/src/stm32f4xx_i2c.c ****                one single event.
1049:/home/rdu/Workspace/project_templates/mcu/stm32_ws/src/libraries/STM32F4xx_StdPeriph_Driver/src/stm32f4xx_i2c.c ****  
1050:/home/rdu/Workspace/project_templates/mcu/stm32_ws/src/libraries/STM32F4xx_StdPeriph_Driver/src/stm32f4xx_i2c.c ****    For detailed description of Events, please refer to section I2C_Events in 
1051:/home/rdu/Workspace/project_templates/mcu/stm32_ws/src/libraries/STM32F4xx_StdPeriph_Driver/src/stm32f4xx_i2c.c ****    stm32f4xx_i2c.h file.
1052:/home/rdu/Workspace/project_templates/mcu/stm32_ws/src/libraries/STM32F4xx_StdPeriph_Driver/src/stm32f4xx_i2c.c ****        
1053:/home/rdu/Workspace/project_templates/mcu/stm32_ws/src/libraries/STM32F4xx_StdPeriph_Driver/src/stm32f4xx_i2c.c **** @endverbatim
1054:/home/rdu/Workspace/project_templates/mcu/stm32_ws/src/libraries/STM32F4xx_StdPeriph_Driver/src/stm32f4xx_i2c.c ****   * @{
1055:/home/rdu/Workspace/project_templates/mcu/stm32_ws/src/libraries/STM32F4xx_StdPeriph_Driver/src/stm32f4xx_i2c.c ****   */
1056:/home/rdu/Workspace/project_templates/mcu/stm32_ws/src/libraries/STM32F4xx_StdPeriph_Driver/src/stm32f4xx_i2c.c ****    
1057:/home/rdu/Workspace/project_templates/mcu/stm32_ws/src/libraries/STM32F4xx_StdPeriph_Driver/src/stm32f4xx_i2c.c **** /**
1058:/home/rdu/Workspace/project_templates/mcu/stm32_ws/src/libraries/STM32F4xx_StdPeriph_Driver/src/stm32f4xx_i2c.c ****   * @brief  Reads the specified I2C register and returns its value.
1059:/home/rdu/Workspace/project_templates/mcu/stm32_ws/src/libraries/STM32F4xx_StdPeriph_Driver/src/stm32f4xx_i2c.c ****   * @param  I2C_Register: specifies the register to read.
1060:/home/rdu/Workspace/project_templates/mcu/stm32_ws/src/libraries/STM32F4xx_StdPeriph_Driver/src/stm32f4xx_i2c.c ****   *          This parameter can be one of the following values:
1061:/home/rdu/Workspace/project_templates/mcu/stm32_ws/src/libraries/STM32F4xx_StdPeriph_Driver/src/stm32f4xx_i2c.c ****   *            @arg I2C_Register_CR1:  CR1 register.
1062:/home/rdu/Workspace/project_templates/mcu/stm32_ws/src/libraries/STM32F4xx_StdPeriph_Driver/src/stm32f4xx_i2c.c ****   *            @arg I2C_Register_CR2:   CR2 register.
1063:/home/rdu/Workspace/project_templates/mcu/stm32_ws/src/libraries/STM32F4xx_StdPeriph_Driver/src/stm32f4xx_i2c.c ****   *            @arg I2C_Register_OAR1:  OAR1 register.
1064:/home/rdu/Workspace/project_templates/mcu/stm32_ws/src/libraries/STM32F4xx_StdPeriph_Driver/src/stm32f4xx_i2c.c ****   *            @arg I2C_Register_OAR2:  OAR2 register.
1065:/home/rdu/Workspace/project_templates/mcu/stm32_ws/src/libraries/STM32F4xx_StdPeriph_Driver/src/stm32f4xx_i2c.c ****   *            @arg I2C_Register_DR:    DR register.
1066:/home/rdu/Workspace/project_templates/mcu/stm32_ws/src/libraries/STM32F4xx_StdPeriph_Driver/src/stm32f4xx_i2c.c ****   *            @arg I2C_Register_SR1:   SR1 register.
1067:/home/rdu/Workspace/project_templates/mcu/stm32_ws/src/libraries/STM32F4xx_StdPeriph_Driver/src/stm32f4xx_i2c.c ****   *            @arg I2C_Register_SR2:   SR2 register.
1068:/home/rdu/Workspace/project_templates/mcu/stm32_ws/src/libraries/STM32F4xx_StdPeriph_Driver/src/stm32f4xx_i2c.c ****   *            @arg I2C_Register_CCR:   CCR register.
1069:/home/rdu/Workspace/project_templates/mcu/stm32_ws/src/libraries/STM32F4xx_StdPeriph_Driver/src/stm32f4xx_i2c.c ****   *            @arg I2C_Register_TRISE: TRISE register.
1070:/home/rdu/Workspace/project_templates/mcu/stm32_ws/src/libraries/STM32F4xx_StdPeriph_Driver/src/stm32f4xx_i2c.c ****   * @retval The value of the read register.
1071:/home/rdu/Workspace/project_templates/mcu/stm32_ws/src/libraries/STM32F4xx_StdPeriph_Driver/src/stm32f4xx_i2c.c ****   */
1072:/home/rdu/Workspace/project_templates/mcu/stm32_ws/src/libraries/STM32F4xx_StdPeriph_Driver/src/stm32f4xx_i2c.c **** uint16_t I2C_ReadRegister(I2C_TypeDef* I2Cx, uint8_t I2C_Register)
1073:/home/rdu/Workspace/project_templates/mcu/stm32_ws/src/libraries/STM32F4xx_StdPeriph_Driver/src/stm32f4xx_i2c.c **** {
 1658              		.loc 1 1073 0
 1659              		.cfi_startproc
 1660              		@ args = 0, pretend = 0, frame = 16
 1661              		@ frame_needed = 0, uses_anonymous_args = 0
 1662              		@ link register save eliminated.
 1663 0000 84B0     		sub	sp, sp, #16
 1664              	.LCFI56:
 1665              		.cfi_def_cfa_offset 16
 1666 0002 0190     		str	r0, [sp, #4]
 1667 0004 0B46     		mov	r3, r1
 1668 0006 8DF80330 		strb	r3, [sp, #3]
1074:/home/rdu/Workspace/project_templates/mcu/stm32_ws/src/libraries/STM32F4xx_StdPeriph_Driver/src/stm32f4xx_i2c.c ****   __IO uint32_t tmp = 0;
 1669              		.loc 1 1074 0
 1670 000a 0023     		movs	r3, #0
 1671 000c 0393     		str	r3, [sp, #12]
1075:/home/rdu/Workspace/project_templates/mcu/stm32_ws/src/libraries/STM32F4xx_StdPeriph_Driver/src/stm32f4xx_i2c.c **** 
1076:/home/rdu/Workspace/project_templates/mcu/stm32_ws/src/libraries/STM32F4xx_StdPeriph_Driver/src/stm32f4xx_i2c.c ****   /* Check the parameters */
1077:/home/rdu/Workspace/project_templates/mcu/stm32_ws/src/libraries/STM32F4xx_StdPeriph_Driver/src/stm32f4xx_i2c.c ****   assert_param(IS_I2C_ALL_PERIPH(I2Cx));
1078:/home/rdu/Workspace/project_templates/mcu/stm32_ws/src/libraries/STM32F4xx_StdPeriph_Driver/src/stm32f4xx_i2c.c ****   assert_param(IS_I2C_REGISTER(I2C_Register));
1079:/home/rdu/Workspace/project_templates/mcu/stm32_ws/src/libraries/STM32F4xx_StdPeriph_Driver/src/stm32f4xx_i2c.c **** 
1080:/home/rdu/Workspace/project_templates/mcu/stm32_ws/src/libraries/STM32F4xx_StdPeriph_Driver/src/stm32f4xx_i2c.c ****   tmp = (uint32_t) I2Cx;
 1672              		.loc 1 1080 0
 1673 000e 019B     		ldr	r3, [sp, #4]
 1674 0010 0393     		str	r3, [sp, #12]
1081:/home/rdu/Workspace/project_templates/mcu/stm32_ws/src/libraries/STM32F4xx_StdPeriph_Driver/src/stm32f4xx_i2c.c ****   tmp += I2C_Register;
 1675              		.loc 1 1081 0
 1676 0012 9DF80320 		ldrb	r2, [sp, #3]	@ zero_extendqisi2
 1677 0016 039B     		ldr	r3, [sp, #12]
 1678 0018 1344     		add	r3, r3, r2
 1679 001a 0393     		str	r3, [sp, #12]
1082:/home/rdu/Workspace/project_templates/mcu/stm32_ws/src/libraries/STM32F4xx_StdPeriph_Driver/src/stm32f4xx_i2c.c **** 
1083:/home/rdu/Workspace/project_templates/mcu/stm32_ws/src/libraries/STM32F4xx_StdPeriph_Driver/src/stm32f4xx_i2c.c ****   /* Return the selected register value */
1084:/home/rdu/Workspace/project_templates/mcu/stm32_ws/src/libraries/STM32F4xx_StdPeriph_Driver/src/stm32f4xx_i2c.c ****   return (*(__IO uint16_t *) tmp);
 1680              		.loc 1 1084 0
 1681 001c 039B     		ldr	r3, [sp, #12]
 1682 001e 1B88     		ldrh	r3, [r3]	@ movhi
 1683 0020 9BB2     		uxth	r3, r3
1085:/home/rdu/Workspace/project_templates/mcu/stm32_ws/src/libraries/STM32F4xx_StdPeriph_Driver/src/stm32f4xx_i2c.c **** }
 1684              		.loc 1 1085 0
 1685 0022 1846     		mov	r0, r3
 1686 0024 04B0     		add	sp, sp, #16
 1687              	.LCFI57:
 1688              		.cfi_def_cfa_offset 0
 1689              		@ sp needed
 1690 0026 7047     		bx	lr
 1691              		.cfi_endproc
 1692              	.LFE150:
 1694              		.section	.text.I2C_ITConfig,"ax",%progbits
 1695              		.align	1
 1696              		.global	I2C_ITConfig
 1697              		.syntax unified
 1698              		.thumb
 1699              		.thumb_func
 1700              		.fpu fpv4-sp-d16
 1702              	I2C_ITConfig:
 1703              	.LFB151:
1086:/home/rdu/Workspace/project_templates/mcu/stm32_ws/src/libraries/STM32F4xx_StdPeriph_Driver/src/stm32f4xx_i2c.c **** 
1087:/home/rdu/Workspace/project_templates/mcu/stm32_ws/src/libraries/STM32F4xx_StdPeriph_Driver/src/stm32f4xx_i2c.c **** /**
1088:/home/rdu/Workspace/project_templates/mcu/stm32_ws/src/libraries/STM32F4xx_StdPeriph_Driver/src/stm32f4xx_i2c.c ****   * @brief  Enables or disables the specified I2C interrupts.
1089:/home/rdu/Workspace/project_templates/mcu/stm32_ws/src/libraries/STM32F4xx_StdPeriph_Driver/src/stm32f4xx_i2c.c ****   * @param  I2Cx: where x can be 1, 2 or 3 to select the I2C peripheral.
1090:/home/rdu/Workspace/project_templates/mcu/stm32_ws/src/libraries/STM32F4xx_StdPeriph_Driver/src/stm32f4xx_i2c.c ****   * @param  I2C_IT: specifies the I2C interrupts sources to be enabled or disabled. 
1091:/home/rdu/Workspace/project_templates/mcu/stm32_ws/src/libraries/STM32F4xx_StdPeriph_Driver/src/stm32f4xx_i2c.c ****   *          This parameter can be any combination of the following values:
1092:/home/rdu/Workspace/project_templates/mcu/stm32_ws/src/libraries/STM32F4xx_StdPeriph_Driver/src/stm32f4xx_i2c.c ****   *            @arg I2C_IT_BUF: Buffer interrupt mask
1093:/home/rdu/Workspace/project_templates/mcu/stm32_ws/src/libraries/STM32F4xx_StdPeriph_Driver/src/stm32f4xx_i2c.c ****   *            @arg I2C_IT_EVT: Event interrupt mask
1094:/home/rdu/Workspace/project_templates/mcu/stm32_ws/src/libraries/STM32F4xx_StdPeriph_Driver/src/stm32f4xx_i2c.c ****   *            @arg I2C_IT_ERR: Error interrupt mask
1095:/home/rdu/Workspace/project_templates/mcu/stm32_ws/src/libraries/STM32F4xx_StdPeriph_Driver/src/stm32f4xx_i2c.c ****   * @param  NewState: new state of the specified I2C interrupts.
1096:/home/rdu/Workspace/project_templates/mcu/stm32_ws/src/libraries/STM32F4xx_StdPeriph_Driver/src/stm32f4xx_i2c.c ****   *          This parameter can be: ENABLE or DISABLE.
1097:/home/rdu/Workspace/project_templates/mcu/stm32_ws/src/libraries/STM32F4xx_StdPeriph_Driver/src/stm32f4xx_i2c.c ****   * @retval None
1098:/home/rdu/Workspace/project_templates/mcu/stm32_ws/src/libraries/STM32F4xx_StdPeriph_Driver/src/stm32f4xx_i2c.c ****   */
1099:/home/rdu/Workspace/project_templates/mcu/stm32_ws/src/libraries/STM32F4xx_StdPeriph_Driver/src/stm32f4xx_i2c.c **** void I2C_ITConfig(I2C_TypeDef* I2Cx, uint16_t I2C_IT, FunctionalState NewState)
1100:/home/rdu/Workspace/project_templates/mcu/stm32_ws/src/libraries/STM32F4xx_StdPeriph_Driver/src/stm32f4xx_i2c.c **** {
 1704              		.loc 1 1100 0
 1705              		.cfi_startproc
 1706              		@ args = 0, pretend = 0, frame = 8
 1707              		@ frame_needed = 0, uses_anonymous_args = 0
 1708              		@ link register save eliminated.
 1709 0000 82B0     		sub	sp, sp, #8
 1710              	.LCFI58:
 1711              		.cfi_def_cfa_offset 8
 1712 0002 0190     		str	r0, [sp, #4]
 1713 0004 0B46     		mov	r3, r1
 1714 0006 ADF80230 		strh	r3, [sp, #2]	@ movhi
 1715 000a 1346     		mov	r3, r2
 1716 000c 8DF80130 		strb	r3, [sp, #1]
1101:/home/rdu/Workspace/project_templates/mcu/stm32_ws/src/libraries/STM32F4xx_StdPeriph_Driver/src/stm32f4xx_i2c.c ****   /* Check the parameters */
1102:/home/rdu/Workspace/project_templates/mcu/stm32_ws/src/libraries/STM32F4xx_StdPeriph_Driver/src/stm32f4xx_i2c.c ****   assert_param(IS_I2C_ALL_PERIPH(I2Cx));
1103:/home/rdu/Workspace/project_templates/mcu/stm32_ws/src/libraries/STM32F4xx_StdPeriph_Driver/src/stm32f4xx_i2c.c ****   assert_param(IS_FUNCTIONAL_STATE(NewState));
1104:/home/rdu/Workspace/project_templates/mcu/stm32_ws/src/libraries/STM32F4xx_StdPeriph_Driver/src/stm32f4xx_i2c.c ****   assert_param(IS_I2C_CONFIG_IT(I2C_IT));
1105:/home/rdu/Workspace/project_templates/mcu/stm32_ws/src/libraries/STM32F4xx_StdPeriph_Driver/src/stm32f4xx_i2c.c ****   
1106:/home/rdu/Workspace/project_templates/mcu/stm32_ws/src/libraries/STM32F4xx_StdPeriph_Driver/src/stm32f4xx_i2c.c ****   if (NewState != DISABLE)
 1717              		.loc 1 1106 0
 1718 0010 9DF80130 		ldrb	r3, [sp, #1]	@ zero_extendqisi2
 1719 0014 002B     		cmp	r3, #0
 1720 0016 09D0     		beq	.L103
1107:/home/rdu/Workspace/project_templates/mcu/stm32_ws/src/libraries/STM32F4xx_StdPeriph_Driver/src/stm32f4xx_i2c.c ****   {
1108:/home/rdu/Workspace/project_templates/mcu/stm32_ws/src/libraries/STM32F4xx_StdPeriph_Driver/src/stm32f4xx_i2c.c ****     /* Enable the selected I2C interrupts */
1109:/home/rdu/Workspace/project_templates/mcu/stm32_ws/src/libraries/STM32F4xx_StdPeriph_Driver/src/stm32f4xx_i2c.c ****     I2Cx->CR2 |= I2C_IT;
 1721              		.loc 1 1109 0
 1722 0018 019B     		ldr	r3, [sp, #4]
 1723 001a 9B88     		ldrh	r3, [r3, #4]	@ movhi
 1724 001c 9AB2     		uxth	r2, r3
 1725 001e BDF80230 		ldrh	r3, [sp, #2]	@ movhi
 1726 0022 1343     		orrs	r3, r3, r2
 1727 0024 9AB2     		uxth	r2, r3
 1728 0026 019B     		ldr	r3, [sp, #4]
 1729 0028 9A80     		strh	r2, [r3, #4]	@ movhi
1110:/home/rdu/Workspace/project_templates/mcu/stm32_ws/src/libraries/STM32F4xx_StdPeriph_Driver/src/stm32f4xx_i2c.c ****   }
1111:/home/rdu/Workspace/project_templates/mcu/stm32_ws/src/libraries/STM32F4xx_StdPeriph_Driver/src/stm32f4xx_i2c.c ****   else
1112:/home/rdu/Workspace/project_templates/mcu/stm32_ws/src/libraries/STM32F4xx_StdPeriph_Driver/src/stm32f4xx_i2c.c ****   {
1113:/home/rdu/Workspace/project_templates/mcu/stm32_ws/src/libraries/STM32F4xx_StdPeriph_Driver/src/stm32f4xx_i2c.c ****     /* Disable the selected I2C interrupts */
1114:/home/rdu/Workspace/project_templates/mcu/stm32_ws/src/libraries/STM32F4xx_StdPeriph_Driver/src/stm32f4xx_i2c.c ****     I2Cx->CR2 &= (uint16_t)~I2C_IT;
1115:/home/rdu/Workspace/project_templates/mcu/stm32_ws/src/libraries/STM32F4xx_StdPeriph_Driver/src/stm32f4xx_i2c.c ****   }
1116:/home/rdu/Workspace/project_templates/mcu/stm32_ws/src/libraries/STM32F4xx_StdPeriph_Driver/src/stm32f4xx_i2c.c **** }
 1730              		.loc 1 1116 0
 1731 002a 0AE0     		b	.L105
 1732              	.L103:
1114:/home/rdu/Workspace/project_templates/mcu/stm32_ws/src/libraries/STM32F4xx_StdPeriph_Driver/src/stm32f4xx_i2c.c ****   }
 1733              		.loc 1 1114 0
 1734 002c 019B     		ldr	r3, [sp, #4]
 1735 002e 9B88     		ldrh	r3, [r3, #4]	@ movhi
 1736 0030 9AB2     		uxth	r2, r3
 1737 0032 BDF80230 		ldrh	r3, [sp, #2]	@ movhi
 1738 0036 DB43     		mvns	r3, r3
 1739 0038 9BB2     		uxth	r3, r3
 1740 003a 1340     		ands	r3, r3, r2
 1741 003c 9AB2     		uxth	r2, r3
 1742 003e 019B     		ldr	r3, [sp, #4]
 1743 0040 9A80     		strh	r2, [r3, #4]	@ movhi
 1744              	.L105:
 1745              		.loc 1 1116 0
 1746 0042 00BF     		nop
 1747 0044 02B0     		add	sp, sp, #8
 1748              	.LCFI59:
 1749              		.cfi_def_cfa_offset 0
 1750              		@ sp needed
 1751 0046 7047     		bx	lr
 1752              		.cfi_endproc
 1753              	.LFE151:
 1755              		.section	.text.I2C_CheckEvent,"ax",%progbits
 1756              		.align	1
 1757              		.global	I2C_CheckEvent
 1758              		.syntax unified
 1759              		.thumb
 1760              		.thumb_func
 1761              		.fpu fpv4-sp-d16
 1763              	I2C_CheckEvent:
 1764              	.LFB152:
1117:/home/rdu/Workspace/project_templates/mcu/stm32_ws/src/libraries/STM32F4xx_StdPeriph_Driver/src/stm32f4xx_i2c.c **** 
1118:/home/rdu/Workspace/project_templates/mcu/stm32_ws/src/libraries/STM32F4xx_StdPeriph_Driver/src/stm32f4xx_i2c.c **** /*
1119:/home/rdu/Workspace/project_templates/mcu/stm32_ws/src/libraries/STM32F4xx_StdPeriph_Driver/src/stm32f4xx_i2c.c ****  ===============================================================================
1120:/home/rdu/Workspace/project_templates/mcu/stm32_ws/src/libraries/STM32F4xx_StdPeriph_Driver/src/stm32f4xx_i2c.c ****                           1. Basic state monitoring                    
1121:/home/rdu/Workspace/project_templates/mcu/stm32_ws/src/libraries/STM32F4xx_StdPeriph_Driver/src/stm32f4xx_i2c.c ****  ===============================================================================  
1122:/home/rdu/Workspace/project_templates/mcu/stm32_ws/src/libraries/STM32F4xx_StdPeriph_Driver/src/stm32f4xx_i2c.c ****  */
1123:/home/rdu/Workspace/project_templates/mcu/stm32_ws/src/libraries/STM32F4xx_StdPeriph_Driver/src/stm32f4xx_i2c.c **** 
1124:/home/rdu/Workspace/project_templates/mcu/stm32_ws/src/libraries/STM32F4xx_StdPeriph_Driver/src/stm32f4xx_i2c.c **** /**
1125:/home/rdu/Workspace/project_templates/mcu/stm32_ws/src/libraries/STM32F4xx_StdPeriph_Driver/src/stm32f4xx_i2c.c ****   * @brief  Checks whether the last I2Cx Event is equal to the one passed
1126:/home/rdu/Workspace/project_templates/mcu/stm32_ws/src/libraries/STM32F4xx_StdPeriph_Driver/src/stm32f4xx_i2c.c ****   *         as parameter.
1127:/home/rdu/Workspace/project_templates/mcu/stm32_ws/src/libraries/STM32F4xx_StdPeriph_Driver/src/stm32f4xx_i2c.c ****   * @param  I2Cx: where x can be 1, 2 or 3 to select the I2C peripheral.
1128:/home/rdu/Workspace/project_templates/mcu/stm32_ws/src/libraries/STM32F4xx_StdPeriph_Driver/src/stm32f4xx_i2c.c ****   * @param  I2C_EVENT: specifies the event to be checked. 
1129:/home/rdu/Workspace/project_templates/mcu/stm32_ws/src/libraries/STM32F4xx_StdPeriph_Driver/src/stm32f4xx_i2c.c ****   *          This parameter can be one of the following values:
1130:/home/rdu/Workspace/project_templates/mcu/stm32_ws/src/libraries/STM32F4xx_StdPeriph_Driver/src/stm32f4xx_i2c.c ****   *            @arg I2C_EVENT_SLAVE_TRANSMITTER_ADDRESS_MATCHED: EV1
1131:/home/rdu/Workspace/project_templates/mcu/stm32_ws/src/libraries/STM32F4xx_StdPeriph_Driver/src/stm32f4xx_i2c.c ****   *            @arg I2C_EVENT_SLAVE_RECEIVER_ADDRESS_MATCHED: EV1
1132:/home/rdu/Workspace/project_templates/mcu/stm32_ws/src/libraries/STM32F4xx_StdPeriph_Driver/src/stm32f4xx_i2c.c ****   *            @arg I2C_EVENT_SLAVE_TRANSMITTER_SECONDADDRESS_MATCHED: EV1
1133:/home/rdu/Workspace/project_templates/mcu/stm32_ws/src/libraries/STM32F4xx_StdPeriph_Driver/src/stm32f4xx_i2c.c ****   *            @arg I2C_EVENT_SLAVE_RECEIVER_SECONDADDRESS_MATCHED: EV1
1134:/home/rdu/Workspace/project_templates/mcu/stm32_ws/src/libraries/STM32F4xx_StdPeriph_Driver/src/stm32f4xx_i2c.c ****   *            @arg I2C_EVENT_SLAVE_GENERALCALLADDRESS_MATCHED: EV1
1135:/home/rdu/Workspace/project_templates/mcu/stm32_ws/src/libraries/STM32F4xx_StdPeriph_Driver/src/stm32f4xx_i2c.c ****   *            @arg I2C_EVENT_SLAVE_BYTE_RECEIVED: EV2
1136:/home/rdu/Workspace/project_templates/mcu/stm32_ws/src/libraries/STM32F4xx_StdPeriph_Driver/src/stm32f4xx_i2c.c ****   *            @arg (I2C_EVENT_SLAVE_BYTE_RECEIVED | I2C_FLAG_DUALF): EV2
1137:/home/rdu/Workspace/project_templates/mcu/stm32_ws/src/libraries/STM32F4xx_StdPeriph_Driver/src/stm32f4xx_i2c.c ****   *            @arg (I2C_EVENT_SLAVE_BYTE_RECEIVED | I2C_FLAG_GENCALL): EV2
1138:/home/rdu/Workspace/project_templates/mcu/stm32_ws/src/libraries/STM32F4xx_StdPeriph_Driver/src/stm32f4xx_i2c.c ****   *            @arg I2C_EVENT_SLAVE_BYTE_TRANSMITTED: EV3
1139:/home/rdu/Workspace/project_templates/mcu/stm32_ws/src/libraries/STM32F4xx_StdPeriph_Driver/src/stm32f4xx_i2c.c ****   *            @arg (I2C_EVENT_SLAVE_BYTE_TRANSMITTED | I2C_FLAG_DUALF): EV3
1140:/home/rdu/Workspace/project_templates/mcu/stm32_ws/src/libraries/STM32F4xx_StdPeriph_Driver/src/stm32f4xx_i2c.c ****   *            @arg (I2C_EVENT_SLAVE_BYTE_TRANSMITTED | I2C_FLAG_GENCALL): EV3
1141:/home/rdu/Workspace/project_templates/mcu/stm32_ws/src/libraries/STM32F4xx_StdPeriph_Driver/src/stm32f4xx_i2c.c ****   *            @arg I2C_EVENT_SLAVE_ACK_FAILURE: EV3_2
1142:/home/rdu/Workspace/project_templates/mcu/stm32_ws/src/libraries/STM32F4xx_StdPeriph_Driver/src/stm32f4xx_i2c.c ****   *            @arg I2C_EVENT_SLAVE_STOP_DETECTED: EV4
1143:/home/rdu/Workspace/project_templates/mcu/stm32_ws/src/libraries/STM32F4xx_StdPeriph_Driver/src/stm32f4xx_i2c.c ****   *            @arg I2C_EVENT_MASTER_MODE_SELECT: EV5
1144:/home/rdu/Workspace/project_templates/mcu/stm32_ws/src/libraries/STM32F4xx_StdPeriph_Driver/src/stm32f4xx_i2c.c ****   *            @arg I2C_EVENT_MASTER_TRANSMITTER_MODE_SELECTED: EV6     
1145:/home/rdu/Workspace/project_templates/mcu/stm32_ws/src/libraries/STM32F4xx_StdPeriph_Driver/src/stm32f4xx_i2c.c ****   *            @arg I2C_EVENT_MASTER_RECEIVER_MODE_SELECTED: EV6
1146:/home/rdu/Workspace/project_templates/mcu/stm32_ws/src/libraries/STM32F4xx_StdPeriph_Driver/src/stm32f4xx_i2c.c ****   *            @arg I2C_EVENT_MASTER_BYTE_RECEIVED: EV7
1147:/home/rdu/Workspace/project_templates/mcu/stm32_ws/src/libraries/STM32F4xx_StdPeriph_Driver/src/stm32f4xx_i2c.c ****   *            @arg I2C_EVENT_MASTER_BYTE_TRANSMITTING: EV8
1148:/home/rdu/Workspace/project_templates/mcu/stm32_ws/src/libraries/STM32F4xx_StdPeriph_Driver/src/stm32f4xx_i2c.c ****   *            @arg I2C_EVENT_MASTER_BYTE_TRANSMITTED: EV8_2
1149:/home/rdu/Workspace/project_templates/mcu/stm32_ws/src/libraries/STM32F4xx_StdPeriph_Driver/src/stm32f4xx_i2c.c ****   *            @arg I2C_EVENT_MASTER_MODE_ADDRESS10: EV9
1150:/home/rdu/Workspace/project_templates/mcu/stm32_ws/src/libraries/STM32F4xx_StdPeriph_Driver/src/stm32f4xx_i2c.c ****   *     
1151:/home/rdu/Workspace/project_templates/mcu/stm32_ws/src/libraries/STM32F4xx_StdPeriph_Driver/src/stm32f4xx_i2c.c ****   * @note   For detailed description of Events, please refer to section I2C_Events
1152:/home/rdu/Workspace/project_templates/mcu/stm32_ws/src/libraries/STM32F4xx_StdPeriph_Driver/src/stm32f4xx_i2c.c ****   *         in stm32f4xx_i2c.h file.
1153:/home/rdu/Workspace/project_templates/mcu/stm32_ws/src/libraries/STM32F4xx_StdPeriph_Driver/src/stm32f4xx_i2c.c ****   *    
1154:/home/rdu/Workspace/project_templates/mcu/stm32_ws/src/libraries/STM32F4xx_StdPeriph_Driver/src/stm32f4xx_i2c.c ****   * @retval An ErrorStatus enumeration value:
1155:/home/rdu/Workspace/project_templates/mcu/stm32_ws/src/libraries/STM32F4xx_StdPeriph_Driver/src/stm32f4xx_i2c.c ****   *           - SUCCESS: Last event is equal to the I2C_EVENT
1156:/home/rdu/Workspace/project_templates/mcu/stm32_ws/src/libraries/STM32F4xx_StdPeriph_Driver/src/stm32f4xx_i2c.c ****   *           - ERROR: Last event is different from the I2C_EVENT
1157:/home/rdu/Workspace/project_templates/mcu/stm32_ws/src/libraries/STM32F4xx_StdPeriph_Driver/src/stm32f4xx_i2c.c ****   */
