   1              		.cpu cortex-m4
   2              		.eabi_attribute 27, 1
   3              		.eabi_attribute 28, 1
   4              		.eabi_attribute 23, 1
   5              		.eabi_attribute 24, 1
   6              		.eabi_attribute 25, 1
   7              		.eabi_attribute 26, 1
   8              		.eabi_attribute 30, 6
   9              		.eabi_attribute 34, 1
  10              		.eabi_attribute 18, 4
  11              		.file	"stm32f4xx_cryp.c"
  12              		.text
  13              	.Ltext0:
  14              		.cfi_sections	.debug_frame
  15              		.section	.text.CRYP_DeInit,"ax",%progbits
  16              		.align	1
  17              		.global	CRYP_DeInit
  18              		.syntax unified
  19              		.thumb
  20              		.thumb_func
  21              		.fpu fpv4-sp-d16
  23              	CRYP_DeInit:
  24              	.LFB123:
  25              		.file 1 "/home/rdu/Workspace/project_templates/mcu/stm32_ws/src/libraries/STM32F4xx_StdPeriph_Driv
   1:/home/rdu/Workspace/project_templates/mcu/stm32_ws/src/libraries/STM32F4xx_StdPeriph_Driver/src/stm32f4xx_cryp.c **** /**
   2:/home/rdu/Workspace/project_templates/mcu/stm32_ws/src/libraries/STM32F4xx_StdPeriph_Driver/src/stm32f4xx_cryp.c ****   ******************************************************************************
   3:/home/rdu/Workspace/project_templates/mcu/stm32_ws/src/libraries/STM32F4xx_StdPeriph_Driver/src/stm32f4xx_cryp.c ****   * @file    stm32f4xx_cryp.c
   4:/home/rdu/Workspace/project_templates/mcu/stm32_ws/src/libraries/STM32F4xx_StdPeriph_Driver/src/stm32f4xx_cryp.c ****   * @author  MCD Application Team
   5:/home/rdu/Workspace/project_templates/mcu/stm32_ws/src/libraries/STM32F4xx_StdPeriph_Driver/src/stm32f4xx_cryp.c ****   * @version V1.8.0
   6:/home/rdu/Workspace/project_templates/mcu/stm32_ws/src/libraries/STM32F4xx_StdPeriph_Driver/src/stm32f4xx_cryp.c ****   * @date    04-November-2016
   7:/home/rdu/Workspace/project_templates/mcu/stm32_ws/src/libraries/STM32F4xx_StdPeriph_Driver/src/stm32f4xx_cryp.c ****   * @brief   This file provides firmware functions to manage the following 
   8:/home/rdu/Workspace/project_templates/mcu/stm32_ws/src/libraries/STM32F4xx_StdPeriph_Driver/src/stm32f4xx_cryp.c ****   *          functionalities of the  Cryptographic processor (CRYP) peripheral:
   9:/home/rdu/Workspace/project_templates/mcu/stm32_ws/src/libraries/STM32F4xx_StdPeriph_Driver/src/stm32f4xx_cryp.c ****   *           + Initialization and Configuration functions
  10:/home/rdu/Workspace/project_templates/mcu/stm32_ws/src/libraries/STM32F4xx_StdPeriph_Driver/src/stm32f4xx_cryp.c ****   *           + Data treatment functions 
  11:/home/rdu/Workspace/project_templates/mcu/stm32_ws/src/libraries/STM32F4xx_StdPeriph_Driver/src/stm32f4xx_cryp.c ****   *           + Context swapping functions     
  12:/home/rdu/Workspace/project_templates/mcu/stm32_ws/src/libraries/STM32F4xx_StdPeriph_Driver/src/stm32f4xx_cryp.c ****   *           + DMA interface function       
  13:/home/rdu/Workspace/project_templates/mcu/stm32_ws/src/libraries/STM32F4xx_StdPeriph_Driver/src/stm32f4xx_cryp.c ****   *           + Interrupts and flags management       
  14:/home/rdu/Workspace/project_templates/mcu/stm32_ws/src/libraries/STM32F4xx_StdPeriph_Driver/src/stm32f4xx_cryp.c ****   *
  15:/home/rdu/Workspace/project_templates/mcu/stm32_ws/src/libraries/STM32F4xx_StdPeriph_Driver/src/stm32f4xx_cryp.c **** @verbatim
  16:/home/rdu/Workspace/project_templates/mcu/stm32_ws/src/libraries/STM32F4xx_StdPeriph_Driver/src/stm32f4xx_cryp.c ****  ===================================================================      
  17:/home/rdu/Workspace/project_templates/mcu/stm32_ws/src/libraries/STM32F4xx_StdPeriph_Driver/src/stm32f4xx_cryp.c ****                  ##### How to use this driver #####
  18:/home/rdu/Workspace/project_templates/mcu/stm32_ws/src/libraries/STM32F4xx_StdPeriph_Driver/src/stm32f4xx_cryp.c ****  =================================================================== 
  19:/home/rdu/Workspace/project_templates/mcu/stm32_ws/src/libraries/STM32F4xx_StdPeriph_Driver/src/stm32f4xx_cryp.c ****  [..]
  20:/home/rdu/Workspace/project_templates/mcu/stm32_ws/src/libraries/STM32F4xx_StdPeriph_Driver/src/stm32f4xx_cryp.c ****    (#) Enable the CRYP controller clock using 
  21:/home/rdu/Workspace/project_templates/mcu/stm32_ws/src/libraries/STM32F4xx_StdPeriph_Driver/src/stm32f4xx_cryp.c ****        RCC_AHB2PeriphClockCmd(RCC_AHB2Periph_CRYP, ENABLE); function.
  22:/home/rdu/Workspace/project_templates/mcu/stm32_ws/src/libraries/STM32F4xx_StdPeriph_Driver/src/stm32f4xx_cryp.c ****   
  23:/home/rdu/Workspace/project_templates/mcu/stm32_ws/src/libraries/STM32F4xx_StdPeriph_Driver/src/stm32f4xx_cryp.c ****    (#) Initialize the CRYP using CRYP_Init(), CRYP_KeyInit() and if needed 
  24:/home/rdu/Workspace/project_templates/mcu/stm32_ws/src/libraries/STM32F4xx_StdPeriph_Driver/src/stm32f4xx_cryp.c ****        CRYP_IVInit(). 
  25:/home/rdu/Workspace/project_templates/mcu/stm32_ws/src/libraries/STM32F4xx_StdPeriph_Driver/src/stm32f4xx_cryp.c ****   
  26:/home/rdu/Workspace/project_templates/mcu/stm32_ws/src/libraries/STM32F4xx_StdPeriph_Driver/src/stm32f4xx_cryp.c ****    (#) Flush the IN and OUT FIFOs by using CRYP_FIFOFlush() function.
  27:/home/rdu/Workspace/project_templates/mcu/stm32_ws/src/libraries/STM32F4xx_StdPeriph_Driver/src/stm32f4xx_cryp.c ****   
  28:/home/rdu/Workspace/project_templates/mcu/stm32_ws/src/libraries/STM32F4xx_StdPeriph_Driver/src/stm32f4xx_cryp.c ****    (#) Enable the CRYP controller using the CRYP_Cmd() function. 
  29:/home/rdu/Workspace/project_templates/mcu/stm32_ws/src/libraries/STM32F4xx_StdPeriph_Driver/src/stm32f4xx_cryp.c ****   
  30:/home/rdu/Workspace/project_templates/mcu/stm32_ws/src/libraries/STM32F4xx_StdPeriph_Driver/src/stm32f4xx_cryp.c ****    (#) If using DMA for Data input and output transfer, activate the needed DMA 
  31:/home/rdu/Workspace/project_templates/mcu/stm32_ws/src/libraries/STM32F4xx_StdPeriph_Driver/src/stm32f4xx_cryp.c ****        Requests using CRYP_DMACmd() function 
  32:/home/rdu/Workspace/project_templates/mcu/stm32_ws/src/libraries/STM32F4xx_StdPeriph_Driver/src/stm32f4xx_cryp.c ****   
  33:/home/rdu/Workspace/project_templates/mcu/stm32_ws/src/libraries/STM32F4xx_StdPeriph_Driver/src/stm32f4xx_cryp.c ****    (#) If DMA is not used for data transfer, use CRYP_DataIn() and  CRYP_DataOut() 
  34:/home/rdu/Workspace/project_templates/mcu/stm32_ws/src/libraries/STM32F4xx_StdPeriph_Driver/src/stm32f4xx_cryp.c ****        functions to enter data to IN FIFO and get result from OUT FIFO.
  35:/home/rdu/Workspace/project_templates/mcu/stm32_ws/src/libraries/STM32F4xx_StdPeriph_Driver/src/stm32f4xx_cryp.c ****   
  36:/home/rdu/Workspace/project_templates/mcu/stm32_ws/src/libraries/STM32F4xx_StdPeriph_Driver/src/stm32f4xx_cryp.c ****    (#) To control CRYP events you can use one of the following two methods:
  37:/home/rdu/Workspace/project_templates/mcu/stm32_ws/src/libraries/STM32F4xx_StdPeriph_Driver/src/stm32f4xx_cryp.c ****        (++) Check on CRYP flags using the CRYP_GetFlagStatus() function.  
  38:/home/rdu/Workspace/project_templates/mcu/stm32_ws/src/libraries/STM32F4xx_StdPeriph_Driver/src/stm32f4xx_cryp.c ****        (++) Use CRYP interrupts through the function CRYP_ITConfig() at 
  39:/home/rdu/Workspace/project_templates/mcu/stm32_ws/src/libraries/STM32F4xx_StdPeriph_Driver/src/stm32f4xx_cryp.c ****             initialization phase and CRYP_GetITStatus() function into interrupt 
  40:/home/rdu/Workspace/project_templates/mcu/stm32_ws/src/libraries/STM32F4xx_StdPeriph_Driver/src/stm32f4xx_cryp.c ****             routines in processing phase.
  41:/home/rdu/Workspace/project_templates/mcu/stm32_ws/src/libraries/STM32F4xx_StdPeriph_Driver/src/stm32f4xx_cryp.c ****          
  42:/home/rdu/Workspace/project_templates/mcu/stm32_ws/src/libraries/STM32F4xx_StdPeriph_Driver/src/stm32f4xx_cryp.c ****    (#) Save and restore Cryptographic processor context using CRYP_SaveContext() 
  43:/home/rdu/Workspace/project_templates/mcu/stm32_ws/src/libraries/STM32F4xx_StdPeriph_Driver/src/stm32f4xx_cryp.c ****        and CRYP_RestoreContext() functions.     
  44:/home/rdu/Workspace/project_templates/mcu/stm32_ws/src/libraries/STM32F4xx_StdPeriph_Driver/src/stm32f4xx_cryp.c ****   
  45:/home/rdu/Workspace/project_templates/mcu/stm32_ws/src/libraries/STM32F4xx_StdPeriph_Driver/src/stm32f4xx_cryp.c ****   
  46:/home/rdu/Workspace/project_templates/mcu/stm32_ws/src/libraries/STM32F4xx_StdPeriph_Driver/src/stm32f4xx_cryp.c ****  *** Procedure to perform an encryption or a decryption ***
  47:/home/rdu/Workspace/project_templates/mcu/stm32_ws/src/libraries/STM32F4xx_StdPeriph_Driver/src/stm32f4xx_cryp.c ****  ========================================================== 
  48:/home/rdu/Workspace/project_templates/mcu/stm32_ws/src/libraries/STM32F4xx_StdPeriph_Driver/src/stm32f4xx_cryp.c ****   
  49:/home/rdu/Workspace/project_templates/mcu/stm32_ws/src/libraries/STM32F4xx_StdPeriph_Driver/src/stm32f4xx_cryp.c ****  *** Initialization ***
  50:/home/rdu/Workspace/project_templates/mcu/stm32_ws/src/libraries/STM32F4xx_StdPeriph_Driver/src/stm32f4xx_cryp.c ****  ====================== 
  51:/home/rdu/Workspace/project_templates/mcu/stm32_ws/src/libraries/STM32F4xx_StdPeriph_Driver/src/stm32f4xx_cryp.c ****  [..] 
  52:/home/rdu/Workspace/project_templates/mcu/stm32_ws/src/libraries/STM32F4xx_StdPeriph_Driver/src/stm32f4xx_cryp.c ****    (#) Initialize the peripheral using CRYP_Init(), CRYP_KeyInit() and CRYP_IVInit 
  53:/home/rdu/Workspace/project_templates/mcu/stm32_ws/src/libraries/STM32F4xx_StdPeriph_Driver/src/stm32f4xx_cryp.c ****        functions:
  54:/home/rdu/Workspace/project_templates/mcu/stm32_ws/src/libraries/STM32F4xx_StdPeriph_Driver/src/stm32f4xx_cryp.c ****        (++) Configure the key size (128-, 192- or 256-bit, in the AES only) 
  55:/home/rdu/Workspace/project_templates/mcu/stm32_ws/src/libraries/STM32F4xx_StdPeriph_Driver/src/stm32f4xx_cryp.c ****        (++) Enter the symmetric key 
  56:/home/rdu/Workspace/project_templates/mcu/stm32_ws/src/libraries/STM32F4xx_StdPeriph_Driver/src/stm32f4xx_cryp.c ****        (++) Configure the data type
  57:/home/rdu/Workspace/project_templates/mcu/stm32_ws/src/libraries/STM32F4xx_StdPeriph_Driver/src/stm32f4xx_cryp.c ****        (++) In case of decryption in AES-ECB or AES-CBC, you must prepare 
  58:/home/rdu/Workspace/project_templates/mcu/stm32_ws/src/libraries/STM32F4xx_StdPeriph_Driver/src/stm32f4xx_cryp.c ****             the key: configure the key preparation mode. Then Enable the CRYP 
  59:/home/rdu/Workspace/project_templates/mcu/stm32_ws/src/libraries/STM32F4xx_StdPeriph_Driver/src/stm32f4xx_cryp.c ****             peripheral using CRYP_Cmd() function: the BUSY flag is set. 
  60:/home/rdu/Workspace/project_templates/mcu/stm32_ws/src/libraries/STM32F4xx_StdPeriph_Driver/src/stm32f4xx_cryp.c ****             Wait until BUSY flag is reset : the key is prepared for decryption
  61:/home/rdu/Workspace/project_templates/mcu/stm32_ws/src/libraries/STM32F4xx_StdPeriph_Driver/src/stm32f4xx_cryp.c ****        (++) Configure the algorithm and chaining (the DES/TDES in ECB/CBC, the 
  62:/home/rdu/Workspace/project_templates/mcu/stm32_ws/src/libraries/STM32F4xx_StdPeriph_Driver/src/stm32f4xx_cryp.c ****             AES in ECB/CBC/CTR) 
  63:/home/rdu/Workspace/project_templates/mcu/stm32_ws/src/libraries/STM32F4xx_StdPeriph_Driver/src/stm32f4xx_cryp.c ****        (++) Configure the direction (encryption/decryption).
  64:/home/rdu/Workspace/project_templates/mcu/stm32_ws/src/libraries/STM32F4xx_StdPeriph_Driver/src/stm32f4xx_cryp.c ****        (++) Write the initialization vectors (in CBC or CTR modes only)
  65:/home/rdu/Workspace/project_templates/mcu/stm32_ws/src/libraries/STM32F4xx_StdPeriph_Driver/src/stm32f4xx_cryp.c ****   
  66:/home/rdu/Workspace/project_templates/mcu/stm32_ws/src/libraries/STM32F4xx_StdPeriph_Driver/src/stm32f4xx_cryp.c ****    (#) Flush the IN and OUT FIFOs using the CRYP_FIFOFlush() function
  67:/home/rdu/Workspace/project_templates/mcu/stm32_ws/src/libraries/STM32F4xx_StdPeriph_Driver/src/stm32f4xx_cryp.c ****   
  68:/home/rdu/Workspace/project_templates/mcu/stm32_ws/src/libraries/STM32F4xx_StdPeriph_Driver/src/stm32f4xx_cryp.c ****   
  69:/home/rdu/Workspace/project_templates/mcu/stm32_ws/src/libraries/STM32F4xx_StdPeriph_Driver/src/stm32f4xx_cryp.c ****   *** Basic Processing mode (polling mode) *** 
  70:/home/rdu/Workspace/project_templates/mcu/stm32_ws/src/libraries/STM32F4xx_StdPeriph_Driver/src/stm32f4xx_cryp.c ****   ============================================  
  71:/home/rdu/Workspace/project_templates/mcu/stm32_ws/src/libraries/STM32F4xx_StdPeriph_Driver/src/stm32f4xx_cryp.c ****   [..]
  72:/home/rdu/Workspace/project_templates/mcu/stm32_ws/src/libraries/STM32F4xx_StdPeriph_Driver/src/stm32f4xx_cryp.c ****     (#) Enable the cryptographic processor using CRYP_Cmd() function.
  73:/home/rdu/Workspace/project_templates/mcu/stm32_ws/src/libraries/STM32F4xx_StdPeriph_Driver/src/stm32f4xx_cryp.c ****   
  74:/home/rdu/Workspace/project_templates/mcu/stm32_ws/src/libraries/STM32F4xx_StdPeriph_Driver/src/stm32f4xx_cryp.c ****     (#) Write the first blocks in the input FIFO (2 to 8 words) using 
  75:/home/rdu/Workspace/project_templates/mcu/stm32_ws/src/libraries/STM32F4xx_StdPeriph_Driver/src/stm32f4xx_cryp.c ****         CRYP_DataIn() function.
  76:/home/rdu/Workspace/project_templates/mcu/stm32_ws/src/libraries/STM32F4xx_StdPeriph_Driver/src/stm32f4xx_cryp.c ****   
  77:/home/rdu/Workspace/project_templates/mcu/stm32_ws/src/libraries/STM32F4xx_StdPeriph_Driver/src/stm32f4xx_cryp.c ****     (#) Repeat the following sequence until the complete message has been 
  78:/home/rdu/Workspace/project_templates/mcu/stm32_ws/src/libraries/STM32F4xx_StdPeriph_Driver/src/stm32f4xx_cryp.c ****         processed:
  79:/home/rdu/Workspace/project_templates/mcu/stm32_ws/src/libraries/STM32F4xx_StdPeriph_Driver/src/stm32f4xx_cryp.c ****   
  80:/home/rdu/Workspace/project_templates/mcu/stm32_ws/src/libraries/STM32F4xx_StdPeriph_Driver/src/stm32f4xx_cryp.c ****         (++) Wait for flag CRYP_FLAG_OFNE occurs (using CRYP_GetFlagStatus() 
  81:/home/rdu/Workspace/project_templates/mcu/stm32_ws/src/libraries/STM32F4xx_StdPeriph_Driver/src/stm32f4xx_cryp.c ****             function), then read the OUT-FIFO using CRYP_DataOut() function
  82:/home/rdu/Workspace/project_templates/mcu/stm32_ws/src/libraries/STM32F4xx_StdPeriph_Driver/src/stm32f4xx_cryp.c ****             (1 block or until the FIFO is empty)
  83:/home/rdu/Workspace/project_templates/mcu/stm32_ws/src/libraries/STM32F4xx_StdPeriph_Driver/src/stm32f4xx_cryp.c ****   
  84:/home/rdu/Workspace/project_templates/mcu/stm32_ws/src/libraries/STM32F4xx_StdPeriph_Driver/src/stm32f4xx_cryp.c ****          (++) Wait for flag CRYP_FLAG_IFNF occurs, (using CRYP_GetFlagStatus() 
  85:/home/rdu/Workspace/project_templates/mcu/stm32_ws/src/libraries/STM32F4xx_StdPeriph_Driver/src/stm32f4xx_cryp.c ****             function then write the IN FIFO using CRYP_DataIn() function 
  86:/home/rdu/Workspace/project_templates/mcu/stm32_ws/src/libraries/STM32F4xx_StdPeriph_Driver/src/stm32f4xx_cryp.c ****             (1 block or until the FIFO is full)
  87:/home/rdu/Workspace/project_templates/mcu/stm32_ws/src/libraries/STM32F4xx_StdPeriph_Driver/src/stm32f4xx_cryp.c ****   
  88:/home/rdu/Workspace/project_templates/mcu/stm32_ws/src/libraries/STM32F4xx_StdPeriph_Driver/src/stm32f4xx_cryp.c ****     (#) At the end of the processing, CRYP_FLAG_BUSY flag will be reset and 
  89:/home/rdu/Workspace/project_templates/mcu/stm32_ws/src/libraries/STM32F4xx_StdPeriph_Driver/src/stm32f4xx_cryp.c ****           both FIFOs are empty (CRYP_FLAG_IFEM is set and CRYP_FLAG_OFNE is 
  90:/home/rdu/Workspace/project_templates/mcu/stm32_ws/src/libraries/STM32F4xx_StdPeriph_Driver/src/stm32f4xx_cryp.c ****           reset). You can disable the peripheral using CRYP_Cmd() function.
  91:/home/rdu/Workspace/project_templates/mcu/stm32_ws/src/libraries/STM32F4xx_StdPeriph_Driver/src/stm32f4xx_cryp.c ****   
  92:/home/rdu/Workspace/project_templates/mcu/stm32_ws/src/libraries/STM32F4xx_StdPeriph_Driver/src/stm32f4xx_cryp.c ****  *** Interrupts Processing mode *** 
  93:/home/rdu/Workspace/project_templates/mcu/stm32_ws/src/libraries/STM32F4xx_StdPeriph_Driver/src/stm32f4xx_cryp.c ****  ==================================
  94:/home/rdu/Workspace/project_templates/mcu/stm32_ws/src/libraries/STM32F4xx_StdPeriph_Driver/src/stm32f4xx_cryp.c ****  [..] In this mode, Processing is done when the data are transferred by the 
  95:/home/rdu/Workspace/project_templates/mcu/stm32_ws/src/libraries/STM32F4xx_StdPeriph_Driver/src/stm32f4xx_cryp.c ****       CPU during interrupts.
  96:/home/rdu/Workspace/project_templates/mcu/stm32_ws/src/libraries/STM32F4xx_StdPeriph_Driver/src/stm32f4xx_cryp.c ****   
  97:/home/rdu/Workspace/project_templates/mcu/stm32_ws/src/libraries/STM32F4xx_StdPeriph_Driver/src/stm32f4xx_cryp.c ****     (#) Enable the interrupts CRYP_IT_INI and CRYP_IT_OUTI using CRYP_ITConfig()
  98:/home/rdu/Workspace/project_templates/mcu/stm32_ws/src/libraries/STM32F4xx_StdPeriph_Driver/src/stm32f4xx_cryp.c ****         function.
  99:/home/rdu/Workspace/project_templates/mcu/stm32_ws/src/libraries/STM32F4xx_StdPeriph_Driver/src/stm32f4xx_cryp.c ****   
 100:/home/rdu/Workspace/project_templates/mcu/stm32_ws/src/libraries/STM32F4xx_StdPeriph_Driver/src/stm32f4xx_cryp.c ****     (#) Enable the cryptographic processor using CRYP_Cmd() function.
 101:/home/rdu/Workspace/project_templates/mcu/stm32_ws/src/libraries/STM32F4xx_StdPeriph_Driver/src/stm32f4xx_cryp.c ****   
 102:/home/rdu/Workspace/project_templates/mcu/stm32_ws/src/libraries/STM32F4xx_StdPeriph_Driver/src/stm32f4xx_cryp.c ****     (#) In the CRYP_IT_INI interrupt handler : load the input message into the 
 103:/home/rdu/Workspace/project_templates/mcu/stm32_ws/src/libraries/STM32F4xx_StdPeriph_Driver/src/stm32f4xx_cryp.c ****          IN FIFO using CRYP_DataIn() function . You can load 2 or 4 words at a 
 104:/home/rdu/Workspace/project_templates/mcu/stm32_ws/src/libraries/STM32F4xx_StdPeriph_Driver/src/stm32f4xx_cryp.c ****          time, or load data until the IN FIFO is full. When the last word of
 105:/home/rdu/Workspace/project_templates/mcu/stm32_ws/src/libraries/STM32F4xx_StdPeriph_Driver/src/stm32f4xx_cryp.c ****          the message has been entered into the IN FIFO, disable the CRYP_IT_INI 
 106:/home/rdu/Workspace/project_templates/mcu/stm32_ws/src/libraries/STM32F4xx_StdPeriph_Driver/src/stm32f4xx_cryp.c ****          interrupt (using CRYP_ITConfig() function).
 107:/home/rdu/Workspace/project_templates/mcu/stm32_ws/src/libraries/STM32F4xx_StdPeriph_Driver/src/stm32f4xx_cryp.c ****   
 108:/home/rdu/Workspace/project_templates/mcu/stm32_ws/src/libraries/STM32F4xx_StdPeriph_Driver/src/stm32f4xx_cryp.c ****     (#) In the CRYP_IT_OUTI interrupt handler : read the output message from 
 109:/home/rdu/Workspace/project_templates/mcu/stm32_ws/src/libraries/STM32F4xx_StdPeriph_Driver/src/stm32f4xx_cryp.c ****          the OUT FIFO using CRYP_DataOut() function. You can read 1 block (2 or 
 110:/home/rdu/Workspace/project_templates/mcu/stm32_ws/src/libraries/STM32F4xx_StdPeriph_Driver/src/stm32f4xx_cryp.c ****          4 words) at a time or read data until the FIFO is empty.
 111:/home/rdu/Workspace/project_templates/mcu/stm32_ws/src/libraries/STM32F4xx_StdPeriph_Driver/src/stm32f4xx_cryp.c ****          When the last word has been read, INIM=0, BUSY=0 and both FIFOs are 
 112:/home/rdu/Workspace/project_templates/mcu/stm32_ws/src/libraries/STM32F4xx_StdPeriph_Driver/src/stm32f4xx_cryp.c ****          empty (CRYP_FLAG_IFEM is set and CRYP_FLAG_OFNE is reset). 
 113:/home/rdu/Workspace/project_templates/mcu/stm32_ws/src/libraries/STM32F4xx_StdPeriph_Driver/src/stm32f4xx_cryp.c ****          You can disable the CRYP_IT_OUTI interrupt (using CRYP_ITConfig() 
 114:/home/rdu/Workspace/project_templates/mcu/stm32_ws/src/libraries/STM32F4xx_StdPeriph_Driver/src/stm32f4xx_cryp.c ****          function) and you can disable the peripheral using CRYP_Cmd() function.
 115:/home/rdu/Workspace/project_templates/mcu/stm32_ws/src/libraries/STM32F4xx_StdPeriph_Driver/src/stm32f4xx_cryp.c ****   
 116:/home/rdu/Workspace/project_templates/mcu/stm32_ws/src/libraries/STM32F4xx_StdPeriph_Driver/src/stm32f4xx_cryp.c ****  *** DMA Processing mode *** 
 117:/home/rdu/Workspace/project_templates/mcu/stm32_ws/src/libraries/STM32F4xx_StdPeriph_Driver/src/stm32f4xx_cryp.c ****  ===========================
 118:/home/rdu/Workspace/project_templates/mcu/stm32_ws/src/libraries/STM32F4xx_StdPeriph_Driver/src/stm32f4xx_cryp.c ****  [..] In this mode, Processing is done when the DMA is used to transfer the 
 119:/home/rdu/Workspace/project_templates/mcu/stm32_ws/src/libraries/STM32F4xx_StdPeriph_Driver/src/stm32f4xx_cryp.c ****       data from/to the memory.
 120:/home/rdu/Workspace/project_templates/mcu/stm32_ws/src/libraries/STM32F4xx_StdPeriph_Driver/src/stm32f4xx_cryp.c ****   
 121:/home/rdu/Workspace/project_templates/mcu/stm32_ws/src/libraries/STM32F4xx_StdPeriph_Driver/src/stm32f4xx_cryp.c ****     (#) Configure the DMA controller to transfer the input data from the 
 122:/home/rdu/Workspace/project_templates/mcu/stm32_ws/src/libraries/STM32F4xx_StdPeriph_Driver/src/stm32f4xx_cryp.c ****          memory using DMA_Init() function. 
 123:/home/rdu/Workspace/project_templates/mcu/stm32_ws/src/libraries/STM32F4xx_StdPeriph_Driver/src/stm32f4xx_cryp.c ****          The transfer length is the length of the message. 
 124:/home/rdu/Workspace/project_templates/mcu/stm32_ws/src/libraries/STM32F4xx_StdPeriph_Driver/src/stm32f4xx_cryp.c ****          As message padding is not managed by the peripheral, the message 
 125:/home/rdu/Workspace/project_templates/mcu/stm32_ws/src/libraries/STM32F4xx_StdPeriph_Driver/src/stm32f4xx_cryp.c ****          length must be an entire number of blocks. The data are transferred 
 126:/home/rdu/Workspace/project_templates/mcu/stm32_ws/src/libraries/STM32F4xx_StdPeriph_Driver/src/stm32f4xx_cryp.c ****          in burst mode. The burst length is 4 words in the AES and 2 or 4 
 127:/home/rdu/Workspace/project_templates/mcu/stm32_ws/src/libraries/STM32F4xx_StdPeriph_Driver/src/stm32f4xx_cryp.c ****          words in the DES/TDES. The DMA should be configured to set an 
 128:/home/rdu/Workspace/project_templates/mcu/stm32_ws/src/libraries/STM32F4xx_StdPeriph_Driver/src/stm32f4xx_cryp.c ****          interrupt on transfer completion of the output data to indicate that 
 129:/home/rdu/Workspace/project_templates/mcu/stm32_ws/src/libraries/STM32F4xx_StdPeriph_Driver/src/stm32f4xx_cryp.c ****          the processing is finished. 
 130:/home/rdu/Workspace/project_templates/mcu/stm32_ws/src/libraries/STM32F4xx_StdPeriph_Driver/src/stm32f4xx_cryp.c ****          Refer to DMA peripheral driver for more details.  
 131:/home/rdu/Workspace/project_templates/mcu/stm32_ws/src/libraries/STM32F4xx_StdPeriph_Driver/src/stm32f4xx_cryp.c ****   
 132:/home/rdu/Workspace/project_templates/mcu/stm32_ws/src/libraries/STM32F4xx_StdPeriph_Driver/src/stm32f4xx_cryp.c ****      (#) Enable the cryptographic processor using CRYP_Cmd() function. 
 133:/home/rdu/Workspace/project_templates/mcu/stm32_ws/src/libraries/STM32F4xx_StdPeriph_Driver/src/stm32f4xx_cryp.c ****          Enable the DMA requests CRYP_DMAReq_DataIN and CRYP_DMAReq_DataOUT 
 134:/home/rdu/Workspace/project_templates/mcu/stm32_ws/src/libraries/STM32F4xx_StdPeriph_Driver/src/stm32f4xx_cryp.c ****          using CRYP_DMACmd() function.
 135:/home/rdu/Workspace/project_templates/mcu/stm32_ws/src/libraries/STM32F4xx_StdPeriph_Driver/src/stm32f4xx_cryp.c ****   
 136:/home/rdu/Workspace/project_templates/mcu/stm32_ws/src/libraries/STM32F4xx_StdPeriph_Driver/src/stm32f4xx_cryp.c ****      (#) All the transfers and processing are managed by the DMA and the 
 137:/home/rdu/Workspace/project_templates/mcu/stm32_ws/src/libraries/STM32F4xx_StdPeriph_Driver/src/stm32f4xx_cryp.c ****          cryptographic processor. The DMA transfer complete interrupt indicates 
 138:/home/rdu/Workspace/project_templates/mcu/stm32_ws/src/libraries/STM32F4xx_StdPeriph_Driver/src/stm32f4xx_cryp.c ****          that the processing is complete. Both FIFOs are normally empty and 
 139:/home/rdu/Workspace/project_templates/mcu/stm32_ws/src/libraries/STM32F4xx_StdPeriph_Driver/src/stm32f4xx_cryp.c ****          CRYP_FLAG_BUSY flag is reset.
 140:/home/rdu/Workspace/project_templates/mcu/stm32_ws/src/libraries/STM32F4xx_StdPeriph_Driver/src/stm32f4xx_cryp.c ****   
 141:/home/rdu/Workspace/project_templates/mcu/stm32_ws/src/libraries/STM32F4xx_StdPeriph_Driver/src/stm32f4xx_cryp.c ****     @endverbatim
 142:/home/rdu/Workspace/project_templates/mcu/stm32_ws/src/libraries/STM32F4xx_StdPeriph_Driver/src/stm32f4xx_cryp.c ****   *
 143:/home/rdu/Workspace/project_templates/mcu/stm32_ws/src/libraries/STM32F4xx_StdPeriph_Driver/src/stm32f4xx_cryp.c ****   ******************************************************************************
 144:/home/rdu/Workspace/project_templates/mcu/stm32_ws/src/libraries/STM32F4xx_StdPeriph_Driver/src/stm32f4xx_cryp.c ****   * @attention
 145:/home/rdu/Workspace/project_templates/mcu/stm32_ws/src/libraries/STM32F4xx_StdPeriph_Driver/src/stm32f4xx_cryp.c ****   *
 146:/home/rdu/Workspace/project_templates/mcu/stm32_ws/src/libraries/STM32F4xx_StdPeriph_Driver/src/stm32f4xx_cryp.c ****   * <h2><center>&copy; COPYRIGHT 2016 STMicroelectronics</center></h2>
 147:/home/rdu/Workspace/project_templates/mcu/stm32_ws/src/libraries/STM32F4xx_StdPeriph_Driver/src/stm32f4xx_cryp.c ****   *
 148:/home/rdu/Workspace/project_templates/mcu/stm32_ws/src/libraries/STM32F4xx_StdPeriph_Driver/src/stm32f4xx_cryp.c ****   * Licensed under MCD-ST Liberty SW License Agreement V2, (the "License");
 149:/home/rdu/Workspace/project_templates/mcu/stm32_ws/src/libraries/STM32F4xx_StdPeriph_Driver/src/stm32f4xx_cryp.c ****   * You may not use this file except in compliance with the License.
 150:/home/rdu/Workspace/project_templates/mcu/stm32_ws/src/libraries/STM32F4xx_StdPeriph_Driver/src/stm32f4xx_cryp.c ****   * You may obtain a copy of the License at:
 151:/home/rdu/Workspace/project_templates/mcu/stm32_ws/src/libraries/STM32F4xx_StdPeriph_Driver/src/stm32f4xx_cryp.c ****   *
 152:/home/rdu/Workspace/project_templates/mcu/stm32_ws/src/libraries/STM32F4xx_StdPeriph_Driver/src/stm32f4xx_cryp.c ****   *        http://www.st.com/software_license_agreement_liberty_v2
 153:/home/rdu/Workspace/project_templates/mcu/stm32_ws/src/libraries/STM32F4xx_StdPeriph_Driver/src/stm32f4xx_cryp.c ****   *
 154:/home/rdu/Workspace/project_templates/mcu/stm32_ws/src/libraries/STM32F4xx_StdPeriph_Driver/src/stm32f4xx_cryp.c ****   * Unless required by applicable law or agreed to in writing, software 
 155:/home/rdu/Workspace/project_templates/mcu/stm32_ws/src/libraries/STM32F4xx_StdPeriph_Driver/src/stm32f4xx_cryp.c ****   * distributed under the License is distributed on an "AS IS" BASIS, 
 156:/home/rdu/Workspace/project_templates/mcu/stm32_ws/src/libraries/STM32F4xx_StdPeriph_Driver/src/stm32f4xx_cryp.c ****   * WITHOUT WARRANTIES OR CONDITIONS OF ANY KIND, either express or implied.
 157:/home/rdu/Workspace/project_templates/mcu/stm32_ws/src/libraries/STM32F4xx_StdPeriph_Driver/src/stm32f4xx_cryp.c ****   * See the License for the specific language governing permissions and
 158:/home/rdu/Workspace/project_templates/mcu/stm32_ws/src/libraries/STM32F4xx_StdPeriph_Driver/src/stm32f4xx_cryp.c ****   * limitations under the License.
 159:/home/rdu/Workspace/project_templates/mcu/stm32_ws/src/libraries/STM32F4xx_StdPeriph_Driver/src/stm32f4xx_cryp.c ****   *
 160:/home/rdu/Workspace/project_templates/mcu/stm32_ws/src/libraries/STM32F4xx_StdPeriph_Driver/src/stm32f4xx_cryp.c ****   ******************************************************************************  
 161:/home/rdu/Workspace/project_templates/mcu/stm32_ws/src/libraries/STM32F4xx_StdPeriph_Driver/src/stm32f4xx_cryp.c ****   */
 162:/home/rdu/Workspace/project_templates/mcu/stm32_ws/src/libraries/STM32F4xx_StdPeriph_Driver/src/stm32f4xx_cryp.c **** 
 163:/home/rdu/Workspace/project_templates/mcu/stm32_ws/src/libraries/STM32F4xx_StdPeriph_Driver/src/stm32f4xx_cryp.c **** /* Includes ------------------------------------------------------------------*/
 164:/home/rdu/Workspace/project_templates/mcu/stm32_ws/src/libraries/STM32F4xx_StdPeriph_Driver/src/stm32f4xx_cryp.c **** #include "stm32f4xx_cryp.h"
 165:/home/rdu/Workspace/project_templates/mcu/stm32_ws/src/libraries/STM32F4xx_StdPeriph_Driver/src/stm32f4xx_cryp.c **** #include "stm32f4xx_rcc.h"
 166:/home/rdu/Workspace/project_templates/mcu/stm32_ws/src/libraries/STM32F4xx_StdPeriph_Driver/src/stm32f4xx_cryp.c **** 
 167:/home/rdu/Workspace/project_templates/mcu/stm32_ws/src/libraries/STM32F4xx_StdPeriph_Driver/src/stm32f4xx_cryp.c **** /** @addtogroup STM32F4xx_StdPeriph_Driver
 168:/home/rdu/Workspace/project_templates/mcu/stm32_ws/src/libraries/STM32F4xx_StdPeriph_Driver/src/stm32f4xx_cryp.c ****   * @{
 169:/home/rdu/Workspace/project_templates/mcu/stm32_ws/src/libraries/STM32F4xx_StdPeriph_Driver/src/stm32f4xx_cryp.c ****   */
 170:/home/rdu/Workspace/project_templates/mcu/stm32_ws/src/libraries/STM32F4xx_StdPeriph_Driver/src/stm32f4xx_cryp.c **** 
 171:/home/rdu/Workspace/project_templates/mcu/stm32_ws/src/libraries/STM32F4xx_StdPeriph_Driver/src/stm32f4xx_cryp.c **** /** @defgroup CRYP 
 172:/home/rdu/Workspace/project_templates/mcu/stm32_ws/src/libraries/STM32F4xx_StdPeriph_Driver/src/stm32f4xx_cryp.c ****   * @brief CRYP driver modules
 173:/home/rdu/Workspace/project_templates/mcu/stm32_ws/src/libraries/STM32F4xx_StdPeriph_Driver/src/stm32f4xx_cryp.c ****   * @{
 174:/home/rdu/Workspace/project_templates/mcu/stm32_ws/src/libraries/STM32F4xx_StdPeriph_Driver/src/stm32f4xx_cryp.c ****   */ 
 175:/home/rdu/Workspace/project_templates/mcu/stm32_ws/src/libraries/STM32F4xx_StdPeriph_Driver/src/stm32f4xx_cryp.c **** 
 176:/home/rdu/Workspace/project_templates/mcu/stm32_ws/src/libraries/STM32F4xx_StdPeriph_Driver/src/stm32f4xx_cryp.c **** /* Private typedef -----------------------------------------------------------*/
 177:/home/rdu/Workspace/project_templates/mcu/stm32_ws/src/libraries/STM32F4xx_StdPeriph_Driver/src/stm32f4xx_cryp.c **** /* Private define ------------------------------------------------------------*/
 178:/home/rdu/Workspace/project_templates/mcu/stm32_ws/src/libraries/STM32F4xx_StdPeriph_Driver/src/stm32f4xx_cryp.c **** #define FLAG_MASK     ((uint8_t)0x20)
 179:/home/rdu/Workspace/project_templates/mcu/stm32_ws/src/libraries/STM32F4xx_StdPeriph_Driver/src/stm32f4xx_cryp.c **** #define MAX_TIMEOUT   ((uint16_t)0xFFFF)
 180:/home/rdu/Workspace/project_templates/mcu/stm32_ws/src/libraries/STM32F4xx_StdPeriph_Driver/src/stm32f4xx_cryp.c **** 
 181:/home/rdu/Workspace/project_templates/mcu/stm32_ws/src/libraries/STM32F4xx_StdPeriph_Driver/src/stm32f4xx_cryp.c **** /* Private macro -------------------------------------------------------------*/
 182:/home/rdu/Workspace/project_templates/mcu/stm32_ws/src/libraries/STM32F4xx_StdPeriph_Driver/src/stm32f4xx_cryp.c **** /* Private variables ---------------------------------------------------------*/
 183:/home/rdu/Workspace/project_templates/mcu/stm32_ws/src/libraries/STM32F4xx_StdPeriph_Driver/src/stm32f4xx_cryp.c **** /* Private function prototypes -----------------------------------------------*/
 184:/home/rdu/Workspace/project_templates/mcu/stm32_ws/src/libraries/STM32F4xx_StdPeriph_Driver/src/stm32f4xx_cryp.c **** /* Private functions ---------------------------------------------------------*/
 185:/home/rdu/Workspace/project_templates/mcu/stm32_ws/src/libraries/STM32F4xx_StdPeriph_Driver/src/stm32f4xx_cryp.c **** 
 186:/home/rdu/Workspace/project_templates/mcu/stm32_ws/src/libraries/STM32F4xx_StdPeriph_Driver/src/stm32f4xx_cryp.c **** /** @defgroup CRYP_Private_Functions
 187:/home/rdu/Workspace/project_templates/mcu/stm32_ws/src/libraries/STM32F4xx_StdPeriph_Driver/src/stm32f4xx_cryp.c ****   * @{
 188:/home/rdu/Workspace/project_templates/mcu/stm32_ws/src/libraries/STM32F4xx_StdPeriph_Driver/src/stm32f4xx_cryp.c ****   */ 
 189:/home/rdu/Workspace/project_templates/mcu/stm32_ws/src/libraries/STM32F4xx_StdPeriph_Driver/src/stm32f4xx_cryp.c **** 
 190:/home/rdu/Workspace/project_templates/mcu/stm32_ws/src/libraries/STM32F4xx_StdPeriph_Driver/src/stm32f4xx_cryp.c **** /** @defgroup CRYP_Group1 Initialization and Configuration functions
 191:/home/rdu/Workspace/project_templates/mcu/stm32_ws/src/libraries/STM32F4xx_StdPeriph_Driver/src/stm32f4xx_cryp.c ****  *  @brief    Initialization and Configuration functions 
 192:/home/rdu/Workspace/project_templates/mcu/stm32_ws/src/libraries/STM32F4xx_StdPeriph_Driver/src/stm32f4xx_cryp.c ****  *
 193:/home/rdu/Workspace/project_templates/mcu/stm32_ws/src/libraries/STM32F4xx_StdPeriph_Driver/src/stm32f4xx_cryp.c **** @verbatim    
 194:/home/rdu/Workspace/project_templates/mcu/stm32_ws/src/libraries/STM32F4xx_StdPeriph_Driver/src/stm32f4xx_cryp.c ****  ===============================================================================
 195:/home/rdu/Workspace/project_templates/mcu/stm32_ws/src/libraries/STM32F4xx_StdPeriph_Driver/src/stm32f4xx_cryp.c ****              ##### Initialization and Configuration functions #####
 196:/home/rdu/Workspace/project_templates/mcu/stm32_ws/src/libraries/STM32F4xx_StdPeriph_Driver/src/stm32f4xx_cryp.c ****  ===============================================================================  
 197:/home/rdu/Workspace/project_templates/mcu/stm32_ws/src/libraries/STM32F4xx_StdPeriph_Driver/src/stm32f4xx_cryp.c ****  [..] This section provides functions allowing to 
 198:/home/rdu/Workspace/project_templates/mcu/stm32_ws/src/libraries/STM32F4xx_StdPeriph_Driver/src/stm32f4xx_cryp.c ****    (+) Initialize the cryptographic Processor using CRYP_Init() function 
 199:/home/rdu/Workspace/project_templates/mcu/stm32_ws/src/libraries/STM32F4xx_StdPeriph_Driver/src/stm32f4xx_cryp.c ****        (++)  Encrypt or Decrypt 
 200:/home/rdu/Workspace/project_templates/mcu/stm32_ws/src/libraries/STM32F4xx_StdPeriph_Driver/src/stm32f4xx_cryp.c ****        (++)  mode : TDES-ECB, TDES-CBC, 
 201:/home/rdu/Workspace/project_templates/mcu/stm32_ws/src/libraries/STM32F4xx_StdPeriph_Driver/src/stm32f4xx_cryp.c ****                     DES-ECB, DES-CBC, 
 202:/home/rdu/Workspace/project_templates/mcu/stm32_ws/src/libraries/STM32F4xx_StdPeriph_Driver/src/stm32f4xx_cryp.c ****                     AES-ECB, AES-CBC, AES-CTR, AES-Key, AES-GCM, AES-CCM 
 203:/home/rdu/Workspace/project_templates/mcu/stm32_ws/src/libraries/STM32F4xx_StdPeriph_Driver/src/stm32f4xx_cryp.c ****        (++) DataType :  32-bit data, 16-bit data, bit data or bit-string
 204:/home/rdu/Workspace/project_templates/mcu/stm32_ws/src/libraries/STM32F4xx_StdPeriph_Driver/src/stm32f4xx_cryp.c ****        (++) Key Size (only in AES modes)
 205:/home/rdu/Workspace/project_templates/mcu/stm32_ws/src/libraries/STM32F4xx_StdPeriph_Driver/src/stm32f4xx_cryp.c ****    (+) Configure the Encrypt or Decrypt Key using CRYP_KeyInit() function 
 206:/home/rdu/Workspace/project_templates/mcu/stm32_ws/src/libraries/STM32F4xx_StdPeriph_Driver/src/stm32f4xx_cryp.c ****    (+) Configure the Initialization Vectors(IV) for CBC and CTR modes using 
 207:/home/rdu/Workspace/project_templates/mcu/stm32_ws/src/libraries/STM32F4xx_StdPeriph_Driver/src/stm32f4xx_cryp.c ****        CRYP_IVInit() function.  
 208:/home/rdu/Workspace/project_templates/mcu/stm32_ws/src/libraries/STM32F4xx_StdPeriph_Driver/src/stm32f4xx_cryp.c ****    (+) Flushes the IN and OUT FIFOs : using CRYP_FIFOFlush() function.                         
 209:/home/rdu/Workspace/project_templates/mcu/stm32_ws/src/libraries/STM32F4xx_StdPeriph_Driver/src/stm32f4xx_cryp.c ****    (+) Enable or disable the CRYP Processor using CRYP_Cmd() function 
 210:/home/rdu/Workspace/project_templates/mcu/stm32_ws/src/libraries/STM32F4xx_StdPeriph_Driver/src/stm32f4xx_cryp.c ****        
 211:/home/rdu/Workspace/project_templates/mcu/stm32_ws/src/libraries/STM32F4xx_StdPeriph_Driver/src/stm32f4xx_cryp.c **** @endverbatim
 212:/home/rdu/Workspace/project_templates/mcu/stm32_ws/src/libraries/STM32F4xx_StdPeriph_Driver/src/stm32f4xx_cryp.c ****   * @{
 213:/home/rdu/Workspace/project_templates/mcu/stm32_ws/src/libraries/STM32F4xx_StdPeriph_Driver/src/stm32f4xx_cryp.c ****   */
 214:/home/rdu/Workspace/project_templates/mcu/stm32_ws/src/libraries/STM32F4xx_StdPeriph_Driver/src/stm32f4xx_cryp.c **** /**
 215:/home/rdu/Workspace/project_templates/mcu/stm32_ws/src/libraries/STM32F4xx_StdPeriph_Driver/src/stm32f4xx_cryp.c ****   * @brief  Deinitializes the CRYP peripheral registers to their default reset values
 216:/home/rdu/Workspace/project_templates/mcu/stm32_ws/src/libraries/STM32F4xx_StdPeriph_Driver/src/stm32f4xx_cryp.c ****   * @param  None
 217:/home/rdu/Workspace/project_templates/mcu/stm32_ws/src/libraries/STM32F4xx_StdPeriph_Driver/src/stm32f4xx_cryp.c ****   * @retval None
 218:/home/rdu/Workspace/project_templates/mcu/stm32_ws/src/libraries/STM32F4xx_StdPeriph_Driver/src/stm32f4xx_cryp.c ****   */
 219:/home/rdu/Workspace/project_templates/mcu/stm32_ws/src/libraries/STM32F4xx_StdPeriph_Driver/src/stm32f4xx_cryp.c **** void CRYP_DeInit(void)
 220:/home/rdu/Workspace/project_templates/mcu/stm32_ws/src/libraries/STM32F4xx_StdPeriph_Driver/src/stm32f4xx_cryp.c **** {
  26              		.loc 1 220 0
  27              		.cfi_startproc
  28              		@ args = 0, pretend = 0, frame = 0
  29              		@ frame_needed = 0, uses_anonymous_args = 0
  30 0000 08B5     		push	{r3, lr}
  31              	.LCFI0:
  32              		.cfi_def_cfa_offset 8
  33              		.cfi_offset 3, -8
  34              		.cfi_offset 14, -4
 221:/home/rdu/Workspace/project_templates/mcu/stm32_ws/src/libraries/STM32F4xx_StdPeriph_Driver/src/stm32f4xx_cryp.c ****   /* Enable CRYP reset state */
 222:/home/rdu/Workspace/project_templates/mcu/stm32_ws/src/libraries/STM32F4xx_StdPeriph_Driver/src/stm32f4xx_cryp.c ****   RCC_AHB2PeriphResetCmd(RCC_AHB2Periph_CRYP, ENABLE);
  35              		.loc 1 222 0
  36 0002 0121     		movs	r1, #1
  37 0004 1020     		movs	r0, #16
  38 0006 FFF7FEFF 		bl	RCC_AHB2PeriphResetCmd
 223:/home/rdu/Workspace/project_templates/mcu/stm32_ws/src/libraries/STM32F4xx_StdPeriph_Driver/src/stm32f4xx_cryp.c **** 
 224:/home/rdu/Workspace/project_templates/mcu/stm32_ws/src/libraries/STM32F4xx_StdPeriph_Driver/src/stm32f4xx_cryp.c ****   /* Release CRYP from reset state */
 225:/home/rdu/Workspace/project_templates/mcu/stm32_ws/src/libraries/STM32F4xx_StdPeriph_Driver/src/stm32f4xx_cryp.c ****   RCC_AHB2PeriphResetCmd(RCC_AHB2Periph_CRYP, DISABLE);
  39              		.loc 1 225 0
  40 000a 0021     		movs	r1, #0
  41 000c 1020     		movs	r0, #16
  42 000e FFF7FEFF 		bl	RCC_AHB2PeriphResetCmd
 226:/home/rdu/Workspace/project_templates/mcu/stm32_ws/src/libraries/STM32F4xx_StdPeriph_Driver/src/stm32f4xx_cryp.c **** }
  43              		.loc 1 226 0
  44 0012 00BF     		nop
  45 0014 08BD     		pop	{r3, pc}
  46              		.cfi_endproc
  47              	.LFE123:
  49              		.section	.text.CRYP_Init,"ax",%progbits
  50              		.align	1
  51              		.global	CRYP_Init
  52              		.syntax unified
  53              		.thumb
  54              		.thumb_func
  55              		.fpu fpv4-sp-d16
  57              	CRYP_Init:
  58              	.LFB124:
 227:/home/rdu/Workspace/project_templates/mcu/stm32_ws/src/libraries/STM32F4xx_StdPeriph_Driver/src/stm32f4xx_cryp.c **** 
 228:/home/rdu/Workspace/project_templates/mcu/stm32_ws/src/libraries/STM32F4xx_StdPeriph_Driver/src/stm32f4xx_cryp.c **** /**
 229:/home/rdu/Workspace/project_templates/mcu/stm32_ws/src/libraries/STM32F4xx_StdPeriph_Driver/src/stm32f4xx_cryp.c ****   * @brief  Initializes the CRYP peripheral according to the specified parameters
 230:/home/rdu/Workspace/project_templates/mcu/stm32_ws/src/libraries/STM32F4xx_StdPeriph_Driver/src/stm32f4xx_cryp.c ****   *         in the CRYP_InitStruct.
 231:/home/rdu/Workspace/project_templates/mcu/stm32_ws/src/libraries/STM32F4xx_StdPeriph_Driver/src/stm32f4xx_cryp.c ****   * @param  CRYP_InitStruct: pointer to a CRYP_InitTypeDef structure that contains
 232:/home/rdu/Workspace/project_templates/mcu/stm32_ws/src/libraries/STM32F4xx_StdPeriph_Driver/src/stm32f4xx_cryp.c ****   *         the configuration information for the CRYP peripheral.
 233:/home/rdu/Workspace/project_templates/mcu/stm32_ws/src/libraries/STM32F4xx_StdPeriph_Driver/src/stm32f4xx_cryp.c ****   * @retval None
 234:/home/rdu/Workspace/project_templates/mcu/stm32_ws/src/libraries/STM32F4xx_StdPeriph_Driver/src/stm32f4xx_cryp.c ****   */
 235:/home/rdu/Workspace/project_templates/mcu/stm32_ws/src/libraries/STM32F4xx_StdPeriph_Driver/src/stm32f4xx_cryp.c **** void CRYP_Init(CRYP_InitTypeDef* CRYP_InitStruct)
 236:/home/rdu/Workspace/project_templates/mcu/stm32_ws/src/libraries/STM32F4xx_StdPeriph_Driver/src/stm32f4xx_cryp.c **** {
  59              		.loc 1 236 0
  60              		.cfi_startproc
  61              		@ args = 0, pretend = 0, frame = 8
  62              		@ frame_needed = 0, uses_anonymous_args = 0
  63              		@ link register save eliminated.
  64 0000 82B0     		sub	sp, sp, #8
  65              	.LCFI1:
  66              		.cfi_def_cfa_offset 8
  67 0002 0190     		str	r0, [sp, #4]
 237:/home/rdu/Workspace/project_templates/mcu/stm32_ws/src/libraries/STM32F4xx_StdPeriph_Driver/src/stm32f4xx_cryp.c ****   /* Check the parameters */
 238:/home/rdu/Workspace/project_templates/mcu/stm32_ws/src/libraries/STM32F4xx_StdPeriph_Driver/src/stm32f4xx_cryp.c ****   assert_param(IS_CRYP_ALGOMODE(CRYP_InitStruct->CRYP_AlgoMode));
 239:/home/rdu/Workspace/project_templates/mcu/stm32_ws/src/libraries/STM32F4xx_StdPeriph_Driver/src/stm32f4xx_cryp.c ****   assert_param(IS_CRYP_DATATYPE(CRYP_InitStruct->CRYP_DataType));
 240:/home/rdu/Workspace/project_templates/mcu/stm32_ws/src/libraries/STM32F4xx_StdPeriph_Driver/src/stm32f4xx_cryp.c ****   assert_param(IS_CRYP_ALGODIR(CRYP_InitStruct->CRYP_AlgoDir));
 241:/home/rdu/Workspace/project_templates/mcu/stm32_ws/src/libraries/STM32F4xx_StdPeriph_Driver/src/stm32f4xx_cryp.c **** 
 242:/home/rdu/Workspace/project_templates/mcu/stm32_ws/src/libraries/STM32F4xx_StdPeriph_Driver/src/stm32f4xx_cryp.c ****   /* Select Algorithm mode*/  
 243:/home/rdu/Workspace/project_templates/mcu/stm32_ws/src/libraries/STM32F4xx_StdPeriph_Driver/src/stm32f4xx_cryp.c ****   CRYP->CR &= ~CRYP_CR_ALGOMODE;
  68              		.loc 1 243 0
  69 0004 244B     		ldr	r3, .L4
  70 0006 1B68     		ldr	r3, [r3]
  71 0008 234A     		ldr	r2, .L4
  72 000a 23F40023 		bic	r3, r3, #524288
  73 000e 23F03803 		bic	r3, r3, #56
  74 0012 1360     		str	r3, [r2]
 244:/home/rdu/Workspace/project_templates/mcu/stm32_ws/src/libraries/STM32F4xx_StdPeriph_Driver/src/stm32f4xx_cryp.c ****   CRYP->CR |= CRYP_InitStruct->CRYP_AlgoMode;
  75              		.loc 1 244 0
  76 0014 204B     		ldr	r3, .L4
  77 0016 1A68     		ldr	r2, [r3]
  78 0018 019B     		ldr	r3, [sp, #4]
  79 001a 5B68     		ldr	r3, [r3, #4]
  80 001c 1E49     		ldr	r1, .L4
  81 001e 1343     		orrs	r3, r3, r2
  82 0020 0B60     		str	r3, [r1]
 245:/home/rdu/Workspace/project_templates/mcu/stm32_ws/src/libraries/STM32F4xx_StdPeriph_Driver/src/stm32f4xx_cryp.c **** 
 246:/home/rdu/Workspace/project_templates/mcu/stm32_ws/src/libraries/STM32F4xx_StdPeriph_Driver/src/stm32f4xx_cryp.c ****   /* Select dataType */ 
 247:/home/rdu/Workspace/project_templates/mcu/stm32_ws/src/libraries/STM32F4xx_StdPeriph_Driver/src/stm32f4xx_cryp.c ****   CRYP->CR &= ~CRYP_CR_DATATYPE;
  83              		.loc 1 247 0
  84 0022 1D4B     		ldr	r3, .L4
  85 0024 1B68     		ldr	r3, [r3]
  86 0026 1C4A     		ldr	r2, .L4
  87 0028 23F0C003 		bic	r3, r3, #192
  88 002c 1360     		str	r3, [r2]
 248:/home/rdu/Workspace/project_templates/mcu/stm32_ws/src/libraries/STM32F4xx_StdPeriph_Driver/src/stm32f4xx_cryp.c ****   CRYP->CR |= CRYP_InitStruct->CRYP_DataType;
  89              		.loc 1 248 0
  90 002e 1A4B     		ldr	r3, .L4
  91 0030 1A68     		ldr	r2, [r3]
  92 0032 019B     		ldr	r3, [sp, #4]
  93 0034 9B68     		ldr	r3, [r3, #8]
  94 0036 1849     		ldr	r1, .L4
  95 0038 1343     		orrs	r3, r3, r2
  96 003a 0B60     		str	r3, [r1]
 249:/home/rdu/Workspace/project_templates/mcu/stm32_ws/src/libraries/STM32F4xx_StdPeriph_Driver/src/stm32f4xx_cryp.c **** 
 250:/home/rdu/Workspace/project_templates/mcu/stm32_ws/src/libraries/STM32F4xx_StdPeriph_Driver/src/stm32f4xx_cryp.c ****   /* select Key size (used only with AES algorithm) */
 251:/home/rdu/Workspace/project_templates/mcu/stm32_ws/src/libraries/STM32F4xx_StdPeriph_Driver/src/stm32f4xx_cryp.c ****   if ((CRYP_InitStruct->CRYP_AlgoMode != CRYP_AlgoMode_TDES_ECB) &&
  97              		.loc 1 251 0
  98 003c 019B     		ldr	r3, [sp, #4]
  99 003e 5B68     		ldr	r3, [r3, #4]
 100 0040 002B     		cmp	r3, #0
 101 0042 18D0     		beq	.L3
 252:/home/rdu/Workspace/project_templates/mcu/stm32_ws/src/libraries/STM32F4xx_StdPeriph_Driver/src/stm32f4xx_cryp.c ****       (CRYP_InitStruct->CRYP_AlgoMode != CRYP_AlgoMode_TDES_CBC) &&
 102              		.loc 1 252 0 discriminator 1
 103 0044 019B     		ldr	r3, [sp, #4]
 104 0046 5B68     		ldr	r3, [r3, #4]
 251:/home/rdu/Workspace/project_templates/mcu/stm32_ws/src/libraries/STM32F4xx_StdPeriph_Driver/src/stm32f4xx_cryp.c ****       (CRYP_InitStruct->CRYP_AlgoMode != CRYP_AlgoMode_TDES_CBC) &&
 105              		.loc 1 251 0 discriminator 1
 106 0048 082B     		cmp	r3, #8
 107 004a 14D0     		beq	.L3
 253:/home/rdu/Workspace/project_templates/mcu/stm32_ws/src/libraries/STM32F4xx_StdPeriph_Driver/src/stm32f4xx_cryp.c ****       (CRYP_InitStruct->CRYP_AlgoMode != CRYP_AlgoMode_DES_ECB) &&
 108              		.loc 1 253 0
 109 004c 019B     		ldr	r3, [sp, #4]
 110 004e 5B68     		ldr	r3, [r3, #4]
 252:/home/rdu/Workspace/project_templates/mcu/stm32_ws/src/libraries/STM32F4xx_StdPeriph_Driver/src/stm32f4xx_cryp.c ****       (CRYP_InitStruct->CRYP_AlgoMode != CRYP_AlgoMode_TDES_CBC) &&
 111              		.loc 1 252 0
 112 0050 102B     		cmp	r3, #16
 113 0052 10D0     		beq	.L3
 254:/home/rdu/Workspace/project_templates/mcu/stm32_ws/src/libraries/STM32F4xx_StdPeriph_Driver/src/stm32f4xx_cryp.c ****       (CRYP_InitStruct->CRYP_AlgoMode != CRYP_AlgoMode_DES_CBC))
 114              		.loc 1 254 0
 115 0054 019B     		ldr	r3, [sp, #4]
 116 0056 5B68     		ldr	r3, [r3, #4]
 253:/home/rdu/Workspace/project_templates/mcu/stm32_ws/src/libraries/STM32F4xx_StdPeriph_Driver/src/stm32f4xx_cryp.c ****       (CRYP_InitStruct->CRYP_AlgoMode != CRYP_AlgoMode_DES_ECB) &&
 117              		.loc 1 253 0
 118 0058 182B     		cmp	r3, #24
 119 005a 0CD0     		beq	.L3
 255:/home/rdu/Workspace/project_templates/mcu/stm32_ws/src/libraries/STM32F4xx_StdPeriph_Driver/src/stm32f4xx_cryp.c ****   {
 256:/home/rdu/Workspace/project_templates/mcu/stm32_ws/src/libraries/STM32F4xx_StdPeriph_Driver/src/stm32f4xx_cryp.c ****     assert_param(IS_CRYP_KEYSIZE(CRYP_InitStruct->CRYP_KeySize));
 257:/home/rdu/Workspace/project_templates/mcu/stm32_ws/src/libraries/STM32F4xx_StdPeriph_Driver/src/stm32f4xx_cryp.c ****     CRYP->CR &= ~CRYP_CR_KEYSIZE;
 120              		.loc 1 257 0
 121 005c 0E4B     		ldr	r3, .L4
 122 005e 1B68     		ldr	r3, [r3]
 123 0060 0D4A     		ldr	r2, .L4
 124 0062 23F44073 		bic	r3, r3, #768
 125 0066 1360     		str	r3, [r2]
 258:/home/rdu/Workspace/project_templates/mcu/stm32_ws/src/libraries/STM32F4xx_StdPeriph_Driver/src/stm32f4xx_cryp.c ****     CRYP->CR |= CRYP_InitStruct->CRYP_KeySize; /* Key size and value must be 
 126              		.loc 1 258 0
 127 0068 0B4B     		ldr	r3, .L4
 128 006a 1A68     		ldr	r2, [r3]
 129 006c 019B     		ldr	r3, [sp, #4]
 130 006e DB68     		ldr	r3, [r3, #12]
 131 0070 0949     		ldr	r1, .L4
 132 0072 1343     		orrs	r3, r3, r2
 133 0074 0B60     		str	r3, [r1]
 134              	.L3:
 259:/home/rdu/Workspace/project_templates/mcu/stm32_ws/src/libraries/STM32F4xx_StdPeriph_Driver/src/stm32f4xx_cryp.c ****                                                   configured once the key has 
 260:/home/rdu/Workspace/project_templates/mcu/stm32_ws/src/libraries/STM32F4xx_StdPeriph_Driver/src/stm32f4xx_cryp.c ****                                                   been prepared */
 261:/home/rdu/Workspace/project_templates/mcu/stm32_ws/src/libraries/STM32F4xx_StdPeriph_Driver/src/stm32f4xx_cryp.c ****   }
 262:/home/rdu/Workspace/project_templates/mcu/stm32_ws/src/libraries/STM32F4xx_StdPeriph_Driver/src/stm32f4xx_cryp.c **** 
 263:/home/rdu/Workspace/project_templates/mcu/stm32_ws/src/libraries/STM32F4xx_StdPeriph_Driver/src/stm32f4xx_cryp.c ****   /* Select data Direction */ 
 264:/home/rdu/Workspace/project_templates/mcu/stm32_ws/src/libraries/STM32F4xx_StdPeriph_Driver/src/stm32f4xx_cryp.c ****   CRYP->CR &= ~CRYP_CR_ALGODIR;
 135              		.loc 1 264 0
 136 0076 084B     		ldr	r3, .L4
 137 0078 1B68     		ldr	r3, [r3]
 138 007a 074A     		ldr	r2, .L4
 139 007c 23F00403 		bic	r3, r3, #4
 140 0080 1360     		str	r3, [r2]
 265:/home/rdu/Workspace/project_templates/mcu/stm32_ws/src/libraries/STM32F4xx_StdPeriph_Driver/src/stm32f4xx_cryp.c ****   CRYP->CR |= CRYP_InitStruct->CRYP_AlgoDir;
 141              		.loc 1 265 0
 142 0082 054B     		ldr	r3, .L4
 143 0084 1A68     		ldr	r2, [r3]
 144 0086 019B     		ldr	r3, [sp, #4]
 145 0088 1B68     		ldr	r3, [r3]
 146 008a 0349     		ldr	r1, .L4
 147 008c 1343     		orrs	r3, r3, r2
 148 008e 0B60     		str	r3, [r1]
 266:/home/rdu/Workspace/project_templates/mcu/stm32_ws/src/libraries/STM32F4xx_StdPeriph_Driver/src/stm32f4xx_cryp.c **** }
 149              		.loc 1 266 0
 150 0090 00BF     		nop
 151 0092 02B0     		add	sp, sp, #8
 152              	.LCFI2:
 153              		.cfi_def_cfa_offset 0
 154              		@ sp needed
 155 0094 7047     		bx	lr
 156              	.L5:
 157 0096 00BF     		.align	2
 158              	.L4:
 159 0098 00000650 		.word	1342570496
 160              		.cfi_endproc
 161              	.LFE124:
 163              		.section	.text.CRYP_StructInit,"ax",%progbits
 164              		.align	1
 165              		.global	CRYP_StructInit
 166              		.syntax unified
 167              		.thumb
 168              		.thumb_func
 169              		.fpu fpv4-sp-d16
 171              	CRYP_StructInit:
 172              	.LFB125:
 267:/home/rdu/Workspace/project_templates/mcu/stm32_ws/src/libraries/STM32F4xx_StdPeriph_Driver/src/stm32f4xx_cryp.c **** 
 268:/home/rdu/Workspace/project_templates/mcu/stm32_ws/src/libraries/STM32F4xx_StdPeriph_Driver/src/stm32f4xx_cryp.c **** /**
 269:/home/rdu/Workspace/project_templates/mcu/stm32_ws/src/libraries/STM32F4xx_StdPeriph_Driver/src/stm32f4xx_cryp.c ****   * @brief  Fills each CRYP_InitStruct member with its default value.
 270:/home/rdu/Workspace/project_templates/mcu/stm32_ws/src/libraries/STM32F4xx_StdPeriph_Driver/src/stm32f4xx_cryp.c ****   * @param  CRYP_InitStruct: pointer to a CRYP_InitTypeDef structure which will
 271:/home/rdu/Workspace/project_templates/mcu/stm32_ws/src/libraries/STM32F4xx_StdPeriph_Driver/src/stm32f4xx_cryp.c ****   *         be initialized.
 272:/home/rdu/Workspace/project_templates/mcu/stm32_ws/src/libraries/STM32F4xx_StdPeriph_Driver/src/stm32f4xx_cryp.c ****   * @retval None
 273:/home/rdu/Workspace/project_templates/mcu/stm32_ws/src/libraries/STM32F4xx_StdPeriph_Driver/src/stm32f4xx_cryp.c ****   */
 274:/home/rdu/Workspace/project_templates/mcu/stm32_ws/src/libraries/STM32F4xx_StdPeriph_Driver/src/stm32f4xx_cryp.c **** void CRYP_StructInit(CRYP_InitTypeDef* CRYP_InitStruct)
 275:/home/rdu/Workspace/project_templates/mcu/stm32_ws/src/libraries/STM32F4xx_StdPeriph_Driver/src/stm32f4xx_cryp.c **** {
 173              		.loc 1 275 0
 174              		.cfi_startproc
 175              		@ args = 0, pretend = 0, frame = 8
 176              		@ frame_needed = 0, uses_anonymous_args = 0
 177              		@ link register save eliminated.
 178 0000 82B0     		sub	sp, sp, #8
 179              	.LCFI3:
 180              		.cfi_def_cfa_offset 8
 181 0002 0190     		str	r0, [sp, #4]
 276:/home/rdu/Workspace/project_templates/mcu/stm32_ws/src/libraries/STM32F4xx_StdPeriph_Driver/src/stm32f4xx_cryp.c ****   /* Initialize the CRYP_AlgoDir member */
 277:/home/rdu/Workspace/project_templates/mcu/stm32_ws/src/libraries/STM32F4xx_StdPeriph_Driver/src/stm32f4xx_cryp.c ****   CRYP_InitStruct->CRYP_AlgoDir = CRYP_AlgoDir_Encrypt;
 182              		.loc 1 277 0
 183 0004 019B     		ldr	r3, [sp, #4]
 184 0006 0022     		movs	r2, #0
 185 0008 1A60     		str	r2, [r3]
 278:/home/rdu/Workspace/project_templates/mcu/stm32_ws/src/libraries/STM32F4xx_StdPeriph_Driver/src/stm32f4xx_cryp.c **** 
 279:/home/rdu/Workspace/project_templates/mcu/stm32_ws/src/libraries/STM32F4xx_StdPeriph_Driver/src/stm32f4xx_cryp.c ****   /* initialize the CRYP_AlgoMode member */
 280:/home/rdu/Workspace/project_templates/mcu/stm32_ws/src/libraries/STM32F4xx_StdPeriph_Driver/src/stm32f4xx_cryp.c ****   CRYP_InitStruct->CRYP_AlgoMode = CRYP_AlgoMode_TDES_ECB;
 186              		.loc 1 280 0
 187 000a 019B     		ldr	r3, [sp, #4]
 188 000c 0022     		movs	r2, #0
 189 000e 5A60     		str	r2, [r3, #4]
 281:/home/rdu/Workspace/project_templates/mcu/stm32_ws/src/libraries/STM32F4xx_StdPeriph_Driver/src/stm32f4xx_cryp.c **** 
 282:/home/rdu/Workspace/project_templates/mcu/stm32_ws/src/libraries/STM32F4xx_StdPeriph_Driver/src/stm32f4xx_cryp.c ****   /* initialize the CRYP_DataType member */
 283:/home/rdu/Workspace/project_templates/mcu/stm32_ws/src/libraries/STM32F4xx_StdPeriph_Driver/src/stm32f4xx_cryp.c ****   CRYP_InitStruct->CRYP_DataType = CRYP_DataType_32b;
 190              		.loc 1 283 0
 191 0010 019B     		ldr	r3, [sp, #4]
 192 0012 0022     		movs	r2, #0
 193 0014 9A60     		str	r2, [r3, #8]
 284:/home/rdu/Workspace/project_templates/mcu/stm32_ws/src/libraries/STM32F4xx_StdPeriph_Driver/src/stm32f4xx_cryp.c ****   
 285:/home/rdu/Workspace/project_templates/mcu/stm32_ws/src/libraries/STM32F4xx_StdPeriph_Driver/src/stm32f4xx_cryp.c ****   /* Initialize the CRYP_KeySize member */
 286:/home/rdu/Workspace/project_templates/mcu/stm32_ws/src/libraries/STM32F4xx_StdPeriph_Driver/src/stm32f4xx_cryp.c ****   CRYP_InitStruct->CRYP_KeySize = CRYP_KeySize_128b;
 194              		.loc 1 286 0
 195 0016 019B     		ldr	r3, [sp, #4]
 196 0018 0022     		movs	r2, #0
 197 001a DA60     		str	r2, [r3, #12]
 287:/home/rdu/Workspace/project_templates/mcu/stm32_ws/src/libraries/STM32F4xx_StdPeriph_Driver/src/stm32f4xx_cryp.c **** }
 198              		.loc 1 287 0
 199 001c 00BF     		nop
 200 001e 02B0     		add	sp, sp, #8
 201              	.LCFI4:
 202              		.cfi_def_cfa_offset 0
 203              		@ sp needed
 204 0020 7047     		bx	lr
 205              		.cfi_endproc
 206              	.LFE125:
 208              		.section	.text.CRYP_KeyInit,"ax",%progbits
 209              		.align	1
 210              		.global	CRYP_KeyInit
 211              		.syntax unified
 212              		.thumb
 213              		.thumb_func
 214              		.fpu fpv4-sp-d16
 216              	CRYP_KeyInit:
 217              	.LFB126:
 288:/home/rdu/Workspace/project_templates/mcu/stm32_ws/src/libraries/STM32F4xx_StdPeriph_Driver/src/stm32f4xx_cryp.c **** 
 289:/home/rdu/Workspace/project_templates/mcu/stm32_ws/src/libraries/STM32F4xx_StdPeriph_Driver/src/stm32f4xx_cryp.c **** /**
 290:/home/rdu/Workspace/project_templates/mcu/stm32_ws/src/libraries/STM32F4xx_StdPeriph_Driver/src/stm32f4xx_cryp.c ****   * @brief  Initializes the CRYP Keys according to the specified parameters in
 291:/home/rdu/Workspace/project_templates/mcu/stm32_ws/src/libraries/STM32F4xx_StdPeriph_Driver/src/stm32f4xx_cryp.c ****   *         the CRYP_KeyInitStruct.
 292:/home/rdu/Workspace/project_templates/mcu/stm32_ws/src/libraries/STM32F4xx_StdPeriph_Driver/src/stm32f4xx_cryp.c ****   * @param  CRYP_KeyInitStruct: pointer to a CRYP_KeyInitTypeDef structure that
 293:/home/rdu/Workspace/project_templates/mcu/stm32_ws/src/libraries/STM32F4xx_StdPeriph_Driver/src/stm32f4xx_cryp.c ****   *         contains the configuration information for the CRYP Keys.
 294:/home/rdu/Workspace/project_templates/mcu/stm32_ws/src/libraries/STM32F4xx_StdPeriph_Driver/src/stm32f4xx_cryp.c ****   * @retval None
 295:/home/rdu/Workspace/project_templates/mcu/stm32_ws/src/libraries/STM32F4xx_StdPeriph_Driver/src/stm32f4xx_cryp.c ****   */
 296:/home/rdu/Workspace/project_templates/mcu/stm32_ws/src/libraries/STM32F4xx_StdPeriph_Driver/src/stm32f4xx_cryp.c **** void CRYP_KeyInit(CRYP_KeyInitTypeDef* CRYP_KeyInitStruct)
 297:/home/rdu/Workspace/project_templates/mcu/stm32_ws/src/libraries/STM32F4xx_StdPeriph_Driver/src/stm32f4xx_cryp.c **** {
 218              		.loc 1 297 0
 219              		.cfi_startproc
 220              		@ args = 0, pretend = 0, frame = 8
 221              		@ frame_needed = 0, uses_anonymous_args = 0
 222              		@ link register save eliminated.
 223 0000 82B0     		sub	sp, sp, #8
 224              	.LCFI5:
 225              		.cfi_def_cfa_offset 8
 226 0002 0190     		str	r0, [sp, #4]
 298:/home/rdu/Workspace/project_templates/mcu/stm32_ws/src/libraries/STM32F4xx_StdPeriph_Driver/src/stm32f4xx_cryp.c ****   /* Key Initialisation */
 299:/home/rdu/Workspace/project_templates/mcu/stm32_ws/src/libraries/STM32F4xx_StdPeriph_Driver/src/stm32f4xx_cryp.c ****   CRYP->K0LR = CRYP_KeyInitStruct->CRYP_Key0Left;
 227              		.loc 1 299 0
 228 0004 114A     		ldr	r2, .L8
 229 0006 019B     		ldr	r3, [sp, #4]
 230 0008 1B68     		ldr	r3, [r3]
 231 000a 1362     		str	r3, [r2, #32]
 300:/home/rdu/Workspace/project_templates/mcu/stm32_ws/src/libraries/STM32F4xx_StdPeriph_Driver/src/stm32f4xx_cryp.c ****   CRYP->K0RR = CRYP_KeyInitStruct->CRYP_Key0Right;
 232              		.loc 1 300 0
 233 000c 0F4A     		ldr	r2, .L8
 234 000e 019B     		ldr	r3, [sp, #4]
 235 0010 5B68     		ldr	r3, [r3, #4]
 236 0012 5362     		str	r3, [r2, #36]
 301:/home/rdu/Workspace/project_templates/mcu/stm32_ws/src/libraries/STM32F4xx_StdPeriph_Driver/src/stm32f4xx_cryp.c ****   CRYP->K1LR = CRYP_KeyInitStruct->CRYP_Key1Left;
 237              		.loc 1 301 0
 238 0014 0D4A     		ldr	r2, .L8
 239 0016 019B     		ldr	r3, [sp, #4]
 240 0018 9B68     		ldr	r3, [r3, #8]
 241 001a 9362     		str	r3, [r2, #40]
 302:/home/rdu/Workspace/project_templates/mcu/stm32_ws/src/libraries/STM32F4xx_StdPeriph_Driver/src/stm32f4xx_cryp.c ****   CRYP->K1RR = CRYP_KeyInitStruct->CRYP_Key1Right;
 242              		.loc 1 302 0
 243 001c 0B4A     		ldr	r2, .L8
 244 001e 019B     		ldr	r3, [sp, #4]
 245 0020 DB68     		ldr	r3, [r3, #12]
 246 0022 D362     		str	r3, [r2, #44]
 303:/home/rdu/Workspace/project_templates/mcu/stm32_ws/src/libraries/STM32F4xx_StdPeriph_Driver/src/stm32f4xx_cryp.c ****   CRYP->K2LR = CRYP_KeyInitStruct->CRYP_Key2Left;
 247              		.loc 1 303 0
 248 0024 094A     		ldr	r2, .L8
 249 0026 019B     		ldr	r3, [sp, #4]
 250 0028 1B69     		ldr	r3, [r3, #16]
 251 002a 1363     		str	r3, [r2, #48]
 304:/home/rdu/Workspace/project_templates/mcu/stm32_ws/src/libraries/STM32F4xx_StdPeriph_Driver/src/stm32f4xx_cryp.c ****   CRYP->K2RR = CRYP_KeyInitStruct->CRYP_Key2Right;
 252              		.loc 1 304 0
 253 002c 074A     		ldr	r2, .L8
 254 002e 019B     		ldr	r3, [sp, #4]
 255 0030 5B69     		ldr	r3, [r3, #20]
 256 0032 5363     		str	r3, [r2, #52]
 305:/home/rdu/Workspace/project_templates/mcu/stm32_ws/src/libraries/STM32F4xx_StdPeriph_Driver/src/stm32f4xx_cryp.c ****   CRYP->K3LR = CRYP_KeyInitStruct->CRYP_Key3Left;
 257              		.loc 1 305 0
 258 0034 054A     		ldr	r2, .L8
 259 0036 019B     		ldr	r3, [sp, #4]
 260 0038 9B69     		ldr	r3, [r3, #24]
 261 003a 9363     		str	r3, [r2, #56]
 306:/home/rdu/Workspace/project_templates/mcu/stm32_ws/src/libraries/STM32F4xx_StdPeriph_Driver/src/stm32f4xx_cryp.c ****   CRYP->K3RR = CRYP_KeyInitStruct->CRYP_Key3Right;
 262              		.loc 1 306 0
 263 003c 034A     		ldr	r2, .L8
 264 003e 019B     		ldr	r3, [sp, #4]
 265 0040 DB69     		ldr	r3, [r3, #28]
 266 0042 D363     		str	r3, [r2, #60]
 307:/home/rdu/Workspace/project_templates/mcu/stm32_ws/src/libraries/STM32F4xx_StdPeriph_Driver/src/stm32f4xx_cryp.c **** }
 267              		.loc 1 307 0
 268 0044 00BF     		nop
 269 0046 02B0     		add	sp, sp, #8
 270              	.LCFI6:
 271              		.cfi_def_cfa_offset 0
 272              		@ sp needed
 273 0048 7047     		bx	lr
 274              	.L9:
 275 004a 00BF     		.align	2
 276              	.L8:
 277 004c 00000650 		.word	1342570496
 278              		.cfi_endproc
 279              	.LFE126:
 281              		.section	.text.CRYP_KeyStructInit,"ax",%progbits
 282              		.align	1
 283              		.global	CRYP_KeyStructInit
 284              		.syntax unified
 285              		.thumb
 286              		.thumb_func
 287              		.fpu fpv4-sp-d16
 289              	CRYP_KeyStructInit:
 290              	.LFB127:
 308:/home/rdu/Workspace/project_templates/mcu/stm32_ws/src/libraries/STM32F4xx_StdPeriph_Driver/src/stm32f4xx_cryp.c **** 
 309:/home/rdu/Workspace/project_templates/mcu/stm32_ws/src/libraries/STM32F4xx_StdPeriph_Driver/src/stm32f4xx_cryp.c **** /**
 310:/home/rdu/Workspace/project_templates/mcu/stm32_ws/src/libraries/STM32F4xx_StdPeriph_Driver/src/stm32f4xx_cryp.c ****   * @brief  Fills each CRYP_KeyInitStruct member with its default value.
 311:/home/rdu/Workspace/project_templates/mcu/stm32_ws/src/libraries/STM32F4xx_StdPeriph_Driver/src/stm32f4xx_cryp.c ****   * @param  CRYP_KeyInitStruct: pointer to a CRYP_KeyInitTypeDef structure 
 312:/home/rdu/Workspace/project_templates/mcu/stm32_ws/src/libraries/STM32F4xx_StdPeriph_Driver/src/stm32f4xx_cryp.c ****   *         which will be initialized.
 313:/home/rdu/Workspace/project_templates/mcu/stm32_ws/src/libraries/STM32F4xx_StdPeriph_Driver/src/stm32f4xx_cryp.c ****   * @retval None
 314:/home/rdu/Workspace/project_templates/mcu/stm32_ws/src/libraries/STM32F4xx_StdPeriph_Driver/src/stm32f4xx_cryp.c ****   */
 315:/home/rdu/Workspace/project_templates/mcu/stm32_ws/src/libraries/STM32F4xx_StdPeriph_Driver/src/stm32f4xx_cryp.c **** void CRYP_KeyStructInit(CRYP_KeyInitTypeDef* CRYP_KeyInitStruct)
 316:/home/rdu/Workspace/project_templates/mcu/stm32_ws/src/libraries/STM32F4xx_StdPeriph_Driver/src/stm32f4xx_cryp.c **** {
 291              		.loc 1 316 0
 292              		.cfi_startproc
 293              		@ args = 0, pretend = 0, frame = 8
 294              		@ frame_needed = 0, uses_anonymous_args = 0
 295              		@ link register save eliminated.
 296 0000 82B0     		sub	sp, sp, #8
 297              	.LCFI7:
 298              		.cfi_def_cfa_offset 8
 299 0002 0190     		str	r0, [sp, #4]
 317:/home/rdu/Workspace/project_templates/mcu/stm32_ws/src/libraries/STM32F4xx_StdPeriph_Driver/src/stm32f4xx_cryp.c ****   CRYP_KeyInitStruct->CRYP_Key0Left  = 0;
 300              		.loc 1 317 0
 301 0004 019B     		ldr	r3, [sp, #4]
 302 0006 0022     		movs	r2, #0
 303 0008 1A60     		str	r2, [r3]
 318:/home/rdu/Workspace/project_templates/mcu/stm32_ws/src/libraries/STM32F4xx_StdPeriph_Driver/src/stm32f4xx_cryp.c ****   CRYP_KeyInitStruct->CRYP_Key0Right = 0;
 304              		.loc 1 318 0
 305 000a 019B     		ldr	r3, [sp, #4]
 306 000c 0022     		movs	r2, #0
 307 000e 5A60     		str	r2, [r3, #4]
 319:/home/rdu/Workspace/project_templates/mcu/stm32_ws/src/libraries/STM32F4xx_StdPeriph_Driver/src/stm32f4xx_cryp.c ****   CRYP_KeyInitStruct->CRYP_Key1Left  = 0;
 308              		.loc 1 319 0
 309 0010 019B     		ldr	r3, [sp, #4]
 310 0012 0022     		movs	r2, #0
 311 0014 9A60     		str	r2, [r3, #8]
 320:/home/rdu/Workspace/project_templates/mcu/stm32_ws/src/libraries/STM32F4xx_StdPeriph_Driver/src/stm32f4xx_cryp.c ****   CRYP_KeyInitStruct->CRYP_Key1Right = 0;
 312              		.loc 1 320 0
 313 0016 019B     		ldr	r3, [sp, #4]
 314 0018 0022     		movs	r2, #0
 315 001a DA60     		str	r2, [r3, #12]
 321:/home/rdu/Workspace/project_templates/mcu/stm32_ws/src/libraries/STM32F4xx_StdPeriph_Driver/src/stm32f4xx_cryp.c ****   CRYP_KeyInitStruct->CRYP_Key2Left  = 0;
 316              		.loc 1 321 0
 317 001c 019B     		ldr	r3, [sp, #4]
 318 001e 0022     		movs	r2, #0
 319 0020 1A61     		str	r2, [r3, #16]
 322:/home/rdu/Workspace/project_templates/mcu/stm32_ws/src/libraries/STM32F4xx_StdPeriph_Driver/src/stm32f4xx_cryp.c ****   CRYP_KeyInitStruct->CRYP_Key2Right = 0;
 320              		.loc 1 322 0
 321 0022 019B     		ldr	r3, [sp, #4]
 322 0024 0022     		movs	r2, #0
 323 0026 5A61     		str	r2, [r3, #20]
 323:/home/rdu/Workspace/project_templates/mcu/stm32_ws/src/libraries/STM32F4xx_StdPeriph_Driver/src/stm32f4xx_cryp.c ****   CRYP_KeyInitStruct->CRYP_Key3Left  = 0;
 324              		.loc 1 323 0
 325 0028 019B     		ldr	r3, [sp, #4]
 326 002a 0022     		movs	r2, #0
 327 002c 9A61     		str	r2, [r3, #24]
 324:/home/rdu/Workspace/project_templates/mcu/stm32_ws/src/libraries/STM32F4xx_StdPeriph_Driver/src/stm32f4xx_cryp.c ****   CRYP_KeyInitStruct->CRYP_Key3Right = 0;
 328              		.loc 1 324 0
 329 002e 019B     		ldr	r3, [sp, #4]
 330 0030 0022     		movs	r2, #0
 331 0032 DA61     		str	r2, [r3, #28]
 325:/home/rdu/Workspace/project_templates/mcu/stm32_ws/src/libraries/STM32F4xx_StdPeriph_Driver/src/stm32f4xx_cryp.c **** }
 332              		.loc 1 325 0
 333 0034 00BF     		nop
 334 0036 02B0     		add	sp, sp, #8
 335              	.LCFI8:
 336              		.cfi_def_cfa_offset 0
 337              		@ sp needed
 338 0038 7047     		bx	lr
 339              		.cfi_endproc
 340              	.LFE127:
 342              		.section	.text.CRYP_IVInit,"ax",%progbits
 343              		.align	1
 344              		.global	CRYP_IVInit
 345              		.syntax unified
 346              		.thumb
 347              		.thumb_func
 348              		.fpu fpv4-sp-d16
 350              	CRYP_IVInit:
 351              	.LFB128:
 326:/home/rdu/Workspace/project_templates/mcu/stm32_ws/src/libraries/STM32F4xx_StdPeriph_Driver/src/stm32f4xx_cryp.c **** /**
 327:/home/rdu/Workspace/project_templates/mcu/stm32_ws/src/libraries/STM32F4xx_StdPeriph_Driver/src/stm32f4xx_cryp.c ****   * @brief  Initializes the CRYP Initialization Vectors(IV) according to the
 328:/home/rdu/Workspace/project_templates/mcu/stm32_ws/src/libraries/STM32F4xx_StdPeriph_Driver/src/stm32f4xx_cryp.c ****   *         specified parameters in the CRYP_IVInitStruct.
 329:/home/rdu/Workspace/project_templates/mcu/stm32_ws/src/libraries/STM32F4xx_StdPeriph_Driver/src/stm32f4xx_cryp.c ****   * @param  CRYP_IVInitStruct: pointer to a CRYP_IVInitTypeDef structure that contains
 330:/home/rdu/Workspace/project_templates/mcu/stm32_ws/src/libraries/STM32F4xx_StdPeriph_Driver/src/stm32f4xx_cryp.c ****   *         the configuration information for the CRYP Initialization Vectors(IV).
 331:/home/rdu/Workspace/project_templates/mcu/stm32_ws/src/libraries/STM32F4xx_StdPeriph_Driver/src/stm32f4xx_cryp.c ****   * @retval None
 332:/home/rdu/Workspace/project_templates/mcu/stm32_ws/src/libraries/STM32F4xx_StdPeriph_Driver/src/stm32f4xx_cryp.c ****   */
 333:/home/rdu/Workspace/project_templates/mcu/stm32_ws/src/libraries/STM32F4xx_StdPeriph_Driver/src/stm32f4xx_cryp.c **** void CRYP_IVInit(CRYP_IVInitTypeDef* CRYP_IVInitStruct)
 334:/home/rdu/Workspace/project_templates/mcu/stm32_ws/src/libraries/STM32F4xx_StdPeriph_Driver/src/stm32f4xx_cryp.c **** {
 352              		.loc 1 334 0
 353              		.cfi_startproc
 354              		@ args = 0, pretend = 0, frame = 8
 355              		@ frame_needed = 0, uses_anonymous_args = 0
 356              		@ link register save eliminated.
 357 0000 82B0     		sub	sp, sp, #8
 358              	.LCFI9:
 359              		.cfi_def_cfa_offset 8
 360 0002 0190     		str	r0, [sp, #4]
 335:/home/rdu/Workspace/project_templates/mcu/stm32_ws/src/libraries/STM32F4xx_StdPeriph_Driver/src/stm32f4xx_cryp.c ****   CRYP->IV0LR = CRYP_IVInitStruct->CRYP_IV0Left;
 361              		.loc 1 335 0
 362 0004 094A     		ldr	r2, .L12
 363 0006 019B     		ldr	r3, [sp, #4]
 364 0008 1B68     		ldr	r3, [r3]
 365 000a 1364     		str	r3, [r2, #64]
 336:/home/rdu/Workspace/project_templates/mcu/stm32_ws/src/libraries/STM32F4xx_StdPeriph_Driver/src/stm32f4xx_cryp.c ****   CRYP->IV0RR = CRYP_IVInitStruct->CRYP_IV0Right;
 366              		.loc 1 336 0
 367 000c 074A     		ldr	r2, .L12
 368 000e 019B     		ldr	r3, [sp, #4]
 369 0010 5B68     		ldr	r3, [r3, #4]
 370 0012 5364     		str	r3, [r2, #68]
 337:/home/rdu/Workspace/project_templates/mcu/stm32_ws/src/libraries/STM32F4xx_StdPeriph_Driver/src/stm32f4xx_cryp.c ****   CRYP->IV1LR = CRYP_IVInitStruct->CRYP_IV1Left;
 371              		.loc 1 337 0
 372 0014 054A     		ldr	r2, .L12
 373 0016 019B     		ldr	r3, [sp, #4]
 374 0018 9B68     		ldr	r3, [r3, #8]
 375 001a 9364     		str	r3, [r2, #72]
 338:/home/rdu/Workspace/project_templates/mcu/stm32_ws/src/libraries/STM32F4xx_StdPeriph_Driver/src/stm32f4xx_cryp.c ****   CRYP->IV1RR = CRYP_IVInitStruct->CRYP_IV1Right;
 376              		.loc 1 338 0
 377 001c 034A     		ldr	r2, .L12
 378 001e 019B     		ldr	r3, [sp, #4]
 379 0020 DB68     		ldr	r3, [r3, #12]
 380 0022 D364     		str	r3, [r2, #76]
 339:/home/rdu/Workspace/project_templates/mcu/stm32_ws/src/libraries/STM32F4xx_StdPeriph_Driver/src/stm32f4xx_cryp.c **** }
 381              		.loc 1 339 0
 382 0024 00BF     		nop
 383 0026 02B0     		add	sp, sp, #8
 384              	.LCFI10:
 385              		.cfi_def_cfa_offset 0
 386              		@ sp needed
 387 0028 7047     		bx	lr
 388              	.L13:
 389 002a 00BF     		.align	2
 390              	.L12:
 391 002c 00000650 		.word	1342570496
 392              		.cfi_endproc
 393              	.LFE128:
 395              		.section	.text.CRYP_IVStructInit,"ax",%progbits
 396              		.align	1
 397              		.global	CRYP_IVStructInit
 398              		.syntax unified
 399              		.thumb
 400              		.thumb_func
 401              		.fpu fpv4-sp-d16
 403              	CRYP_IVStructInit:
 404              	.LFB129:
 340:/home/rdu/Workspace/project_templates/mcu/stm32_ws/src/libraries/STM32F4xx_StdPeriph_Driver/src/stm32f4xx_cryp.c **** 
 341:/home/rdu/Workspace/project_templates/mcu/stm32_ws/src/libraries/STM32F4xx_StdPeriph_Driver/src/stm32f4xx_cryp.c **** /**
 342:/home/rdu/Workspace/project_templates/mcu/stm32_ws/src/libraries/STM32F4xx_StdPeriph_Driver/src/stm32f4xx_cryp.c ****   * @brief  Fills each CRYP_IVInitStruct member with its default value.
 343:/home/rdu/Workspace/project_templates/mcu/stm32_ws/src/libraries/STM32F4xx_StdPeriph_Driver/src/stm32f4xx_cryp.c ****   * @param  CRYP_IVInitStruct: pointer to a CRYP_IVInitTypeDef Initialization 
 344:/home/rdu/Workspace/project_templates/mcu/stm32_ws/src/libraries/STM32F4xx_StdPeriph_Driver/src/stm32f4xx_cryp.c ****   *         Vectors(IV) structure which will be initialized.
 345:/home/rdu/Workspace/project_templates/mcu/stm32_ws/src/libraries/STM32F4xx_StdPeriph_Driver/src/stm32f4xx_cryp.c ****   * @retval None
 346:/home/rdu/Workspace/project_templates/mcu/stm32_ws/src/libraries/STM32F4xx_StdPeriph_Driver/src/stm32f4xx_cryp.c ****   */
 347:/home/rdu/Workspace/project_templates/mcu/stm32_ws/src/libraries/STM32F4xx_StdPeriph_Driver/src/stm32f4xx_cryp.c **** void CRYP_IVStructInit(CRYP_IVInitTypeDef* CRYP_IVInitStruct)
 348:/home/rdu/Workspace/project_templates/mcu/stm32_ws/src/libraries/STM32F4xx_StdPeriph_Driver/src/stm32f4xx_cryp.c **** {
 405              		.loc 1 348 0
 406              		.cfi_startproc
 407              		@ args = 0, pretend = 0, frame = 8
 408              		@ frame_needed = 0, uses_anonymous_args = 0
 409              		@ link register save eliminated.
 410 0000 82B0     		sub	sp, sp, #8
 411              	.LCFI11:
 412              		.cfi_def_cfa_offset 8
 413 0002 0190     		str	r0, [sp, #4]
 349:/home/rdu/Workspace/project_templates/mcu/stm32_ws/src/libraries/STM32F4xx_StdPeriph_Driver/src/stm32f4xx_cryp.c ****   CRYP_IVInitStruct->CRYP_IV0Left  = 0;
 414              		.loc 1 349 0
 415 0004 019B     		ldr	r3, [sp, #4]
 416 0006 0022     		movs	r2, #0
 417 0008 1A60     		str	r2, [r3]
 350:/home/rdu/Workspace/project_templates/mcu/stm32_ws/src/libraries/STM32F4xx_StdPeriph_Driver/src/stm32f4xx_cryp.c ****   CRYP_IVInitStruct->CRYP_IV0Right = 0;
 418              		.loc 1 350 0
 419 000a 019B     		ldr	r3, [sp, #4]
 420 000c 0022     		movs	r2, #0
 421 000e 5A60     		str	r2, [r3, #4]
 351:/home/rdu/Workspace/project_templates/mcu/stm32_ws/src/libraries/STM32F4xx_StdPeriph_Driver/src/stm32f4xx_cryp.c ****   CRYP_IVInitStruct->CRYP_IV1Left  = 0;
 422              		.loc 1 351 0
 423 0010 019B     		ldr	r3, [sp, #4]
 424 0012 0022     		movs	r2, #0
 425 0014 9A60     		str	r2, [r3, #8]
 352:/home/rdu/Workspace/project_templates/mcu/stm32_ws/src/libraries/STM32F4xx_StdPeriph_Driver/src/stm32f4xx_cryp.c ****   CRYP_IVInitStruct->CRYP_IV1Right = 0;
 426              		.loc 1 352 0
 427 0016 019B     		ldr	r3, [sp, #4]
 428 0018 0022     		movs	r2, #0
 429 001a DA60     		str	r2, [r3, #12]
 353:/home/rdu/Workspace/project_templates/mcu/stm32_ws/src/libraries/STM32F4xx_StdPeriph_Driver/src/stm32f4xx_cryp.c **** }
 430              		.loc 1 353 0
 431 001c 00BF     		nop
 432 001e 02B0     		add	sp, sp, #8
 433              	.LCFI12:
 434              		.cfi_def_cfa_offset 0
 435              		@ sp needed
 436 0020 7047     		bx	lr
 437              		.cfi_endproc
 438              	.LFE129:
 440              		.section	.text.CRYP_PhaseConfig,"ax",%progbits
 441              		.align	1
 442              		.global	CRYP_PhaseConfig
 443              		.syntax unified
 444              		.thumb
 445              		.thumb_func
 446              		.fpu fpv4-sp-d16
 448              	CRYP_PhaseConfig:
 449              	.LFB130:
 354:/home/rdu/Workspace/project_templates/mcu/stm32_ws/src/libraries/STM32F4xx_StdPeriph_Driver/src/stm32f4xx_cryp.c **** 
 355:/home/rdu/Workspace/project_templates/mcu/stm32_ws/src/libraries/STM32F4xx_StdPeriph_Driver/src/stm32f4xx_cryp.c **** /**
 356:/home/rdu/Workspace/project_templates/mcu/stm32_ws/src/libraries/STM32F4xx_StdPeriph_Driver/src/stm32f4xx_cryp.c ****   * @brief  Configures the AES-CCM and AES-GCM phases
 357:/home/rdu/Workspace/project_templates/mcu/stm32_ws/src/libraries/STM32F4xx_StdPeriph_Driver/src/stm32f4xx_cryp.c ****   * @note   This function is used only with AES-CCM or AES-GCM Algorithms  
 358:/home/rdu/Workspace/project_templates/mcu/stm32_ws/src/libraries/STM32F4xx_StdPeriph_Driver/src/stm32f4xx_cryp.c ****   * @param  CRYP_Phase: specifies the CRYP AES-CCM and AES-GCM phase to be configured.
 359:/home/rdu/Workspace/project_templates/mcu/stm32_ws/src/libraries/STM32F4xx_StdPeriph_Driver/src/stm32f4xx_cryp.c ****   *           This parameter can be one of the following values:
 360:/home/rdu/Workspace/project_templates/mcu/stm32_ws/src/libraries/STM32F4xx_StdPeriph_Driver/src/stm32f4xx_cryp.c ****   *            @arg CRYP_Phase_Init: Initialization phase
 361:/home/rdu/Workspace/project_templates/mcu/stm32_ws/src/libraries/STM32F4xx_StdPeriph_Driver/src/stm32f4xx_cryp.c ****   *            @arg CRYP_Phase_Header: Header phase
 362:/home/rdu/Workspace/project_templates/mcu/stm32_ws/src/libraries/STM32F4xx_StdPeriph_Driver/src/stm32f4xx_cryp.c ****   *            @arg CRYP_Phase_Payload: Payload phase
 363:/home/rdu/Workspace/project_templates/mcu/stm32_ws/src/libraries/STM32F4xx_StdPeriph_Driver/src/stm32f4xx_cryp.c ****   *            @arg CRYP_Phase_Final: Final phase 
 364:/home/rdu/Workspace/project_templates/mcu/stm32_ws/src/libraries/STM32F4xx_StdPeriph_Driver/src/stm32f4xx_cryp.c ****   * @retval None
 365:/home/rdu/Workspace/project_templates/mcu/stm32_ws/src/libraries/STM32F4xx_StdPeriph_Driver/src/stm32f4xx_cryp.c ****   */
 366:/home/rdu/Workspace/project_templates/mcu/stm32_ws/src/libraries/STM32F4xx_StdPeriph_Driver/src/stm32f4xx_cryp.c **** void CRYP_PhaseConfig(uint32_t CRYP_Phase)
 367:/home/rdu/Workspace/project_templates/mcu/stm32_ws/src/libraries/STM32F4xx_StdPeriph_Driver/src/stm32f4xx_cryp.c **** { uint32_t tempcr = 0;
 450              		.loc 1 367 0
 451              		.cfi_startproc
 452              		@ args = 0, pretend = 0, frame = 16
 453              		@ frame_needed = 0, uses_anonymous_args = 0
 454              		@ link register save eliminated.
 455 0000 84B0     		sub	sp, sp, #16
 456              	.LCFI13:
 457              		.cfi_def_cfa_offset 16
 458 0002 0190     		str	r0, [sp, #4]
 459              		.loc 1 367 0
 460 0004 0023     		movs	r3, #0
 461 0006 0393     		str	r3, [sp, #12]
 368:/home/rdu/Workspace/project_templates/mcu/stm32_ws/src/libraries/STM32F4xx_StdPeriph_Driver/src/stm32f4xx_cryp.c **** 
 369:/home/rdu/Workspace/project_templates/mcu/stm32_ws/src/libraries/STM32F4xx_StdPeriph_Driver/src/stm32f4xx_cryp.c ****   /* Check the parameter */
 370:/home/rdu/Workspace/project_templates/mcu/stm32_ws/src/libraries/STM32F4xx_StdPeriph_Driver/src/stm32f4xx_cryp.c ****   assert_param(IS_CRYP_PHASE(CRYP_Phase));
 371:/home/rdu/Workspace/project_templates/mcu/stm32_ws/src/libraries/STM32F4xx_StdPeriph_Driver/src/stm32f4xx_cryp.c **** 
 372:/home/rdu/Workspace/project_templates/mcu/stm32_ws/src/libraries/STM32F4xx_StdPeriph_Driver/src/stm32f4xx_cryp.c ****   /* Get the CR register */
 373:/home/rdu/Workspace/project_templates/mcu/stm32_ws/src/libraries/STM32F4xx_StdPeriph_Driver/src/stm32f4xx_cryp.c ****   tempcr = CRYP->CR;
 462              		.loc 1 373 0
 463 0008 084B     		ldr	r3, .L16
 464 000a 1B68     		ldr	r3, [r3]
 465 000c 0393     		str	r3, [sp, #12]
 374:/home/rdu/Workspace/project_templates/mcu/stm32_ws/src/libraries/STM32F4xx_StdPeriph_Driver/src/stm32f4xx_cryp.c ****   
 375:/home/rdu/Workspace/project_templates/mcu/stm32_ws/src/libraries/STM32F4xx_StdPeriph_Driver/src/stm32f4xx_cryp.c ****   /* Reset the phase configuration bits: GCMP_CCMPH */
 376:/home/rdu/Workspace/project_templates/mcu/stm32_ws/src/libraries/STM32F4xx_StdPeriph_Driver/src/stm32f4xx_cryp.c ****   tempcr &= (uint32_t)(~CRYP_CR_GCM_CCMPH);
 466              		.loc 1 376 0
 467 000e 039B     		ldr	r3, [sp, #12]
 468 0010 23F44033 		bic	r3, r3, #196608
 469 0014 0393     		str	r3, [sp, #12]
 377:/home/rdu/Workspace/project_templates/mcu/stm32_ws/src/libraries/STM32F4xx_StdPeriph_Driver/src/stm32f4xx_cryp.c ****   /* Set the selected phase */
 378:/home/rdu/Workspace/project_templates/mcu/stm32_ws/src/libraries/STM32F4xx_StdPeriph_Driver/src/stm32f4xx_cryp.c ****   tempcr |= (uint32_t)CRYP_Phase;
 470              		.loc 1 378 0
 471 0016 039A     		ldr	r2, [sp, #12]
 472 0018 019B     		ldr	r3, [sp, #4]
 473 001a 1343     		orrs	r3, r3, r2
 474 001c 0393     		str	r3, [sp, #12]
 379:/home/rdu/Workspace/project_templates/mcu/stm32_ws/src/libraries/STM32F4xx_StdPeriph_Driver/src/stm32f4xx_cryp.c **** 
 380:/home/rdu/Workspace/project_templates/mcu/stm32_ws/src/libraries/STM32F4xx_StdPeriph_Driver/src/stm32f4xx_cryp.c ****   /* Set the CR register */ 
 381:/home/rdu/Workspace/project_templates/mcu/stm32_ws/src/libraries/STM32F4xx_StdPeriph_Driver/src/stm32f4xx_cryp.c ****   CRYP->CR = tempcr;    
 475              		.loc 1 381 0
 476 001e 034A     		ldr	r2, .L16
 477 0020 039B     		ldr	r3, [sp, #12]
 478 0022 1360     		str	r3, [r2]
 382:/home/rdu/Workspace/project_templates/mcu/stm32_ws/src/libraries/STM32F4xx_StdPeriph_Driver/src/stm32f4xx_cryp.c **** }
 479              		.loc 1 382 0
 480 0024 00BF     		nop
 481 0026 04B0     		add	sp, sp, #16
 482              	.LCFI14:
 483              		.cfi_def_cfa_offset 0
 484              		@ sp needed
 485 0028 7047     		bx	lr
 486              	.L17:
 487 002a 00BF     		.align	2
 488              	.L16:
 489 002c 00000650 		.word	1342570496
 490              		.cfi_endproc
 491              	.LFE130:
 493              		.section	.text.CRYP_FIFOFlush,"ax",%progbits
 494              		.align	1
 495              		.global	CRYP_FIFOFlush
 496              		.syntax unified
 497              		.thumb
 498              		.thumb_func
 499              		.fpu fpv4-sp-d16
 501              	CRYP_FIFOFlush:
 502              	.LFB131:
 383:/home/rdu/Workspace/project_templates/mcu/stm32_ws/src/libraries/STM32F4xx_StdPeriph_Driver/src/stm32f4xx_cryp.c **** 
 384:/home/rdu/Workspace/project_templates/mcu/stm32_ws/src/libraries/STM32F4xx_StdPeriph_Driver/src/stm32f4xx_cryp.c **** /**
 385:/home/rdu/Workspace/project_templates/mcu/stm32_ws/src/libraries/STM32F4xx_StdPeriph_Driver/src/stm32f4xx_cryp.c ****   * @brief  Flushes the IN and OUT FIFOs (that is read and write pointers of the 
 386:/home/rdu/Workspace/project_templates/mcu/stm32_ws/src/libraries/STM32F4xx_StdPeriph_Driver/src/stm32f4xx_cryp.c ****   *         FIFOs are reset)
 387:/home/rdu/Workspace/project_templates/mcu/stm32_ws/src/libraries/STM32F4xx_StdPeriph_Driver/src/stm32f4xx_cryp.c ****   * @note   The FIFOs must be flushed only when BUSY flag is reset.  
 388:/home/rdu/Workspace/project_templates/mcu/stm32_ws/src/libraries/STM32F4xx_StdPeriph_Driver/src/stm32f4xx_cryp.c ****   * @param  None
 389:/home/rdu/Workspace/project_templates/mcu/stm32_ws/src/libraries/STM32F4xx_StdPeriph_Driver/src/stm32f4xx_cryp.c ****   * @retval None
 390:/home/rdu/Workspace/project_templates/mcu/stm32_ws/src/libraries/STM32F4xx_StdPeriph_Driver/src/stm32f4xx_cryp.c ****   */
 391:/home/rdu/Workspace/project_templates/mcu/stm32_ws/src/libraries/STM32F4xx_StdPeriph_Driver/src/stm32f4xx_cryp.c **** void CRYP_FIFOFlush(void)
 392:/home/rdu/Workspace/project_templates/mcu/stm32_ws/src/libraries/STM32F4xx_StdPeriph_Driver/src/stm32f4xx_cryp.c **** {
 503              		.loc 1 392 0
 504              		.cfi_startproc
 505              		@ args = 0, pretend = 0, frame = 0
 506              		@ frame_needed = 0, uses_anonymous_args = 0
 507              		@ link register save eliminated.
 393:/home/rdu/Workspace/project_templates/mcu/stm32_ws/src/libraries/STM32F4xx_StdPeriph_Driver/src/stm32f4xx_cryp.c ****   /* Reset the read and write pointers of the FIFOs */
 394:/home/rdu/Workspace/project_templates/mcu/stm32_ws/src/libraries/STM32F4xx_StdPeriph_Driver/src/stm32f4xx_cryp.c ****   CRYP->CR |= CRYP_CR_FFLUSH;
 508              		.loc 1 394 0
 509 0000 034B     		ldr	r3, .L19
 510 0002 1B68     		ldr	r3, [r3]
 511 0004 024A     		ldr	r2, .L19
 512 0006 43F48043 		orr	r3, r3, #16384
 513 000a 1360     		str	r3, [r2]
 395:/home/rdu/Workspace/project_templates/mcu/stm32_ws/src/libraries/STM32F4xx_StdPeriph_Driver/src/stm32f4xx_cryp.c **** }
 514              		.loc 1 395 0
 515 000c 00BF     		nop
 516 000e 7047     		bx	lr
 517              	.L20:
 518              		.align	2
 519              	.L19:
 520 0010 00000650 		.word	1342570496
 521              		.cfi_endproc
 522              	.LFE131:
 524              		.section	.text.CRYP_Cmd,"ax",%progbits
 525              		.align	1
 526              		.global	CRYP_Cmd
 527              		.syntax unified
 528              		.thumb
 529              		.thumb_func
 530              		.fpu fpv4-sp-d16
 532              	CRYP_Cmd:
 533              	.LFB132:
 396:/home/rdu/Workspace/project_templates/mcu/stm32_ws/src/libraries/STM32F4xx_StdPeriph_Driver/src/stm32f4xx_cryp.c **** 
 397:/home/rdu/Workspace/project_templates/mcu/stm32_ws/src/libraries/STM32F4xx_StdPeriph_Driver/src/stm32f4xx_cryp.c **** /**
 398:/home/rdu/Workspace/project_templates/mcu/stm32_ws/src/libraries/STM32F4xx_StdPeriph_Driver/src/stm32f4xx_cryp.c ****   * @brief  Enables or disables the CRYP peripheral.
 399:/home/rdu/Workspace/project_templates/mcu/stm32_ws/src/libraries/STM32F4xx_StdPeriph_Driver/src/stm32f4xx_cryp.c ****   * @param  NewState: new state of the CRYP peripheral.
 400:/home/rdu/Workspace/project_templates/mcu/stm32_ws/src/libraries/STM32F4xx_StdPeriph_Driver/src/stm32f4xx_cryp.c ****   *          This parameter can be: ENABLE or DISABLE.
 401:/home/rdu/Workspace/project_templates/mcu/stm32_ws/src/libraries/STM32F4xx_StdPeriph_Driver/src/stm32f4xx_cryp.c ****   * @retval None
 402:/home/rdu/Workspace/project_templates/mcu/stm32_ws/src/libraries/STM32F4xx_StdPeriph_Driver/src/stm32f4xx_cryp.c ****   */
 403:/home/rdu/Workspace/project_templates/mcu/stm32_ws/src/libraries/STM32F4xx_StdPeriph_Driver/src/stm32f4xx_cryp.c **** void CRYP_Cmd(FunctionalState NewState)
 404:/home/rdu/Workspace/project_templates/mcu/stm32_ws/src/libraries/STM32F4xx_StdPeriph_Driver/src/stm32f4xx_cryp.c **** {
 534              		.loc 1 404 0
 535              		.cfi_startproc
 536              		@ args = 0, pretend = 0, frame = 8
 537              		@ frame_needed = 0, uses_anonymous_args = 0
 538              		@ link register save eliminated.
 539 0000 82B0     		sub	sp, sp, #8
 540              	.LCFI15:
 541              		.cfi_def_cfa_offset 8
 542 0002 0346     		mov	r3, r0
 543 0004 8DF80730 		strb	r3, [sp, #7]
 405:/home/rdu/Workspace/project_templates/mcu/stm32_ws/src/libraries/STM32F4xx_StdPeriph_Driver/src/stm32f4xx_cryp.c ****   /* Check the parameters */
 406:/home/rdu/Workspace/project_templates/mcu/stm32_ws/src/libraries/STM32F4xx_StdPeriph_Driver/src/stm32f4xx_cryp.c ****   assert_param(IS_FUNCTIONAL_STATE(NewState));
 407:/home/rdu/Workspace/project_templates/mcu/stm32_ws/src/libraries/STM32F4xx_StdPeriph_Driver/src/stm32f4xx_cryp.c **** 
 408:/home/rdu/Workspace/project_templates/mcu/stm32_ws/src/libraries/STM32F4xx_StdPeriph_Driver/src/stm32f4xx_cryp.c ****   if (NewState != DISABLE)
 544              		.loc 1 408 0
 545 0008 9DF80730 		ldrb	r3, [sp, #7]	@ zero_extendqisi2
 546 000c 002B     		cmp	r3, #0
 547 000e 06D0     		beq	.L22
 409:/home/rdu/Workspace/project_templates/mcu/stm32_ws/src/libraries/STM32F4xx_StdPeriph_Driver/src/stm32f4xx_cryp.c ****   {
 410:/home/rdu/Workspace/project_templates/mcu/stm32_ws/src/libraries/STM32F4xx_StdPeriph_Driver/src/stm32f4xx_cryp.c ****     /* Enable the Cryptographic processor */
 411:/home/rdu/Workspace/project_templates/mcu/stm32_ws/src/libraries/STM32F4xx_StdPeriph_Driver/src/stm32f4xx_cryp.c ****     CRYP->CR |= CRYP_CR_CRYPEN;
 548              		.loc 1 411 0
 549 0010 074B     		ldr	r3, .L25
 550 0012 1B68     		ldr	r3, [r3]
 551 0014 064A     		ldr	r2, .L25
 552 0016 43F40043 		orr	r3, r3, #32768
 553 001a 1360     		str	r3, [r2]
 412:/home/rdu/Workspace/project_templates/mcu/stm32_ws/src/libraries/STM32F4xx_StdPeriph_Driver/src/stm32f4xx_cryp.c ****   }
 413:/home/rdu/Workspace/project_templates/mcu/stm32_ws/src/libraries/STM32F4xx_StdPeriph_Driver/src/stm32f4xx_cryp.c ****   else
 414:/home/rdu/Workspace/project_templates/mcu/stm32_ws/src/libraries/STM32F4xx_StdPeriph_Driver/src/stm32f4xx_cryp.c ****   {
 415:/home/rdu/Workspace/project_templates/mcu/stm32_ws/src/libraries/STM32F4xx_StdPeriph_Driver/src/stm32f4xx_cryp.c ****     /* Disable the Cryptographic processor */
 416:/home/rdu/Workspace/project_templates/mcu/stm32_ws/src/libraries/STM32F4xx_StdPeriph_Driver/src/stm32f4xx_cryp.c ****     CRYP->CR &= ~CRYP_CR_CRYPEN;
 417:/home/rdu/Workspace/project_templates/mcu/stm32_ws/src/libraries/STM32F4xx_StdPeriph_Driver/src/stm32f4xx_cryp.c ****   }
 418:/home/rdu/Workspace/project_templates/mcu/stm32_ws/src/libraries/STM32F4xx_StdPeriph_Driver/src/stm32f4xx_cryp.c **** }
 554              		.loc 1 418 0
 555 001c 05E0     		b	.L24
 556              	.L22:
 416:/home/rdu/Workspace/project_templates/mcu/stm32_ws/src/libraries/STM32F4xx_StdPeriph_Driver/src/stm32f4xx_cryp.c ****   }
 557              		.loc 1 416 0
 558 001e 044B     		ldr	r3, .L25
 559 0020 1B68     		ldr	r3, [r3]
 560 0022 034A     		ldr	r2, .L25
 561 0024 23F40043 		bic	r3, r3, #32768
 562 0028 1360     		str	r3, [r2]
 563              	.L24:
 564              		.loc 1 418 0
 565 002a 00BF     		nop
 566 002c 02B0     		add	sp, sp, #8
 567              	.LCFI16:
 568              		.cfi_def_cfa_offset 0
 569              		@ sp needed
 570 002e 7047     		bx	lr
 571              	.L26:
 572              		.align	2
 573              	.L25:
 574 0030 00000650 		.word	1342570496
 575              		.cfi_endproc
 576              	.LFE132:
 578              		.section	.text.CRYP_DataIn,"ax",%progbits
 579              		.align	1
 580              		.global	CRYP_DataIn
 581              		.syntax unified
 582              		.thumb
 583              		.thumb_func
 584              		.fpu fpv4-sp-d16
 586              	CRYP_DataIn:
 587              	.LFB133:
 419:/home/rdu/Workspace/project_templates/mcu/stm32_ws/src/libraries/STM32F4xx_StdPeriph_Driver/src/stm32f4xx_cryp.c **** /**
 420:/home/rdu/Workspace/project_templates/mcu/stm32_ws/src/libraries/STM32F4xx_StdPeriph_Driver/src/stm32f4xx_cryp.c ****   * @}
 421:/home/rdu/Workspace/project_templates/mcu/stm32_ws/src/libraries/STM32F4xx_StdPeriph_Driver/src/stm32f4xx_cryp.c ****   */
 422:/home/rdu/Workspace/project_templates/mcu/stm32_ws/src/libraries/STM32F4xx_StdPeriph_Driver/src/stm32f4xx_cryp.c ****   
 423:/home/rdu/Workspace/project_templates/mcu/stm32_ws/src/libraries/STM32F4xx_StdPeriph_Driver/src/stm32f4xx_cryp.c **** /** @defgroup CRYP_Group2 CRYP Data processing functions
 424:/home/rdu/Workspace/project_templates/mcu/stm32_ws/src/libraries/STM32F4xx_StdPeriph_Driver/src/stm32f4xx_cryp.c ****  *  @brief    CRYP Data processing functions
 425:/home/rdu/Workspace/project_templates/mcu/stm32_ws/src/libraries/STM32F4xx_StdPeriph_Driver/src/stm32f4xx_cryp.c ****  *
 426:/home/rdu/Workspace/project_templates/mcu/stm32_ws/src/libraries/STM32F4xx_StdPeriph_Driver/src/stm32f4xx_cryp.c **** @verbatim    
 427:/home/rdu/Workspace/project_templates/mcu/stm32_ws/src/libraries/STM32F4xx_StdPeriph_Driver/src/stm32f4xx_cryp.c ****  ===============================================================================
 428:/home/rdu/Workspace/project_templates/mcu/stm32_ws/src/libraries/STM32F4xx_StdPeriph_Driver/src/stm32f4xx_cryp.c ****                     ##### CRYP Data processing functions #####
 429:/home/rdu/Workspace/project_templates/mcu/stm32_ws/src/libraries/STM32F4xx_StdPeriph_Driver/src/stm32f4xx_cryp.c ****  ===============================================================================  
 430:/home/rdu/Workspace/project_templates/mcu/stm32_ws/src/libraries/STM32F4xx_StdPeriph_Driver/src/stm32f4xx_cryp.c ****  [..] This section provides functions allowing the encryption and decryption 
 431:/home/rdu/Workspace/project_templates/mcu/stm32_ws/src/libraries/STM32F4xx_StdPeriph_Driver/src/stm32f4xx_cryp.c ****       operations: 
 432:/home/rdu/Workspace/project_templates/mcu/stm32_ws/src/libraries/STM32F4xx_StdPeriph_Driver/src/stm32f4xx_cryp.c ****    (+) Enter data to be treated in the IN FIFO : using CRYP_DataIn() function.
 433:/home/rdu/Workspace/project_templates/mcu/stm32_ws/src/libraries/STM32F4xx_StdPeriph_Driver/src/stm32f4xx_cryp.c ****    (+) Get the data result from the OUT FIFO : using CRYP_DataOut() function.
 434:/home/rdu/Workspace/project_templates/mcu/stm32_ws/src/libraries/STM32F4xx_StdPeriph_Driver/src/stm32f4xx_cryp.c **** 
 435:/home/rdu/Workspace/project_templates/mcu/stm32_ws/src/libraries/STM32F4xx_StdPeriph_Driver/src/stm32f4xx_cryp.c **** @endverbatim
 436:/home/rdu/Workspace/project_templates/mcu/stm32_ws/src/libraries/STM32F4xx_StdPeriph_Driver/src/stm32f4xx_cryp.c ****   * @{
 437:/home/rdu/Workspace/project_templates/mcu/stm32_ws/src/libraries/STM32F4xx_StdPeriph_Driver/src/stm32f4xx_cryp.c ****   */
 438:/home/rdu/Workspace/project_templates/mcu/stm32_ws/src/libraries/STM32F4xx_StdPeriph_Driver/src/stm32f4xx_cryp.c **** 
 439:/home/rdu/Workspace/project_templates/mcu/stm32_ws/src/libraries/STM32F4xx_StdPeriph_Driver/src/stm32f4xx_cryp.c **** /**
 440:/home/rdu/Workspace/project_templates/mcu/stm32_ws/src/libraries/STM32F4xx_StdPeriph_Driver/src/stm32f4xx_cryp.c ****   * @brief  Writes data in the Data Input register (DIN).
 441:/home/rdu/Workspace/project_templates/mcu/stm32_ws/src/libraries/STM32F4xx_StdPeriph_Driver/src/stm32f4xx_cryp.c ****   * @note   After the DIN register has been read once or several times, 
 442:/home/rdu/Workspace/project_templates/mcu/stm32_ws/src/libraries/STM32F4xx_StdPeriph_Driver/src/stm32f4xx_cryp.c ****   *         the FIFO must be flushed (using CRYP_FIFOFlush() function).  
 443:/home/rdu/Workspace/project_templates/mcu/stm32_ws/src/libraries/STM32F4xx_StdPeriph_Driver/src/stm32f4xx_cryp.c ****   * @param  Data: data to write in Data Input register
 444:/home/rdu/Workspace/project_templates/mcu/stm32_ws/src/libraries/STM32F4xx_StdPeriph_Driver/src/stm32f4xx_cryp.c ****   * @retval None
 445:/home/rdu/Workspace/project_templates/mcu/stm32_ws/src/libraries/STM32F4xx_StdPeriph_Driver/src/stm32f4xx_cryp.c ****   */
 446:/home/rdu/Workspace/project_templates/mcu/stm32_ws/src/libraries/STM32F4xx_StdPeriph_Driver/src/stm32f4xx_cryp.c **** void CRYP_DataIn(uint32_t Data)
 447:/home/rdu/Workspace/project_templates/mcu/stm32_ws/src/libraries/STM32F4xx_StdPeriph_Driver/src/stm32f4xx_cryp.c **** {
 588              		.loc 1 447 0
 589              		.cfi_startproc
 590              		@ args = 0, pretend = 0, frame = 8
 591              		@ frame_needed = 0, uses_anonymous_args = 0
 592              		@ link register save eliminated.
 593 0000 82B0     		sub	sp, sp, #8
 594              	.LCFI17:
 595              		.cfi_def_cfa_offset 8
 596 0002 0190     		str	r0, [sp, #4]
 448:/home/rdu/Workspace/project_templates/mcu/stm32_ws/src/libraries/STM32F4xx_StdPeriph_Driver/src/stm32f4xx_cryp.c ****   CRYP->DR = Data;
 597              		.loc 1 448 0
 598 0004 024A     		ldr	r2, .L28
 599 0006 019B     		ldr	r3, [sp, #4]
 600 0008 9360     		str	r3, [r2, #8]
 449:/home/rdu/Workspace/project_templates/mcu/stm32_ws/src/libraries/STM32F4xx_StdPeriph_Driver/src/stm32f4xx_cryp.c **** }
 601              		.loc 1 449 0
 602 000a 00BF     		nop
 603 000c 02B0     		add	sp, sp, #8
 604              	.LCFI18:
 605              		.cfi_def_cfa_offset 0
 606              		@ sp needed
 607 000e 7047     		bx	lr
 608              	.L29:
 609              		.align	2
 610              	.L28:
 611 0010 00000650 		.word	1342570496
 612              		.cfi_endproc
 613              	.LFE133:
 615              		.section	.text.CRYP_DataOut,"ax",%progbits
 616              		.align	1
 617              		.global	CRYP_DataOut
 618              		.syntax unified
 619              		.thumb
 620              		.thumb_func
 621              		.fpu fpv4-sp-d16
 623              	CRYP_DataOut:
 624              	.LFB134:
 450:/home/rdu/Workspace/project_templates/mcu/stm32_ws/src/libraries/STM32F4xx_StdPeriph_Driver/src/stm32f4xx_cryp.c **** 
 451:/home/rdu/Workspace/project_templates/mcu/stm32_ws/src/libraries/STM32F4xx_StdPeriph_Driver/src/stm32f4xx_cryp.c **** /**
 452:/home/rdu/Workspace/project_templates/mcu/stm32_ws/src/libraries/STM32F4xx_StdPeriph_Driver/src/stm32f4xx_cryp.c ****   * @brief  Returns the last data entered into the output FIFO.
 453:/home/rdu/Workspace/project_templates/mcu/stm32_ws/src/libraries/STM32F4xx_StdPeriph_Driver/src/stm32f4xx_cryp.c ****   * @param  None
 454:/home/rdu/Workspace/project_templates/mcu/stm32_ws/src/libraries/STM32F4xx_StdPeriph_Driver/src/stm32f4xx_cryp.c ****   * @retval Last data entered into the output FIFO.
 455:/home/rdu/Workspace/project_templates/mcu/stm32_ws/src/libraries/STM32F4xx_StdPeriph_Driver/src/stm32f4xx_cryp.c ****   */
 456:/home/rdu/Workspace/project_templates/mcu/stm32_ws/src/libraries/STM32F4xx_StdPeriph_Driver/src/stm32f4xx_cryp.c **** uint32_t CRYP_DataOut(void)
 457:/home/rdu/Workspace/project_templates/mcu/stm32_ws/src/libraries/STM32F4xx_StdPeriph_Driver/src/stm32f4xx_cryp.c **** {
 625              		.loc 1 457 0
 626              		.cfi_startproc
 627              		@ args = 0, pretend = 0, frame = 0
 628              		@ frame_needed = 0, uses_anonymous_args = 0
 629              		@ link register save eliminated.
 458:/home/rdu/Workspace/project_templates/mcu/stm32_ws/src/libraries/STM32F4xx_StdPeriph_Driver/src/stm32f4xx_cryp.c ****   return CRYP->DOUT;
 630              		.loc 1 458 0
 631 0000 014B     		ldr	r3, .L32
 632 0002 DB68     		ldr	r3, [r3, #12]
 459:/home/rdu/Workspace/project_templates/mcu/stm32_ws/src/libraries/STM32F4xx_StdPeriph_Driver/src/stm32f4xx_cryp.c **** }
 633              		.loc 1 459 0
 634 0004 1846     		mov	r0, r3
 635 0006 7047     		bx	lr
 636              	.L33:
 637              		.align	2
 638              	.L32:
 639 0008 00000650 		.word	1342570496
 640              		.cfi_endproc
 641              	.LFE134:
 643              		.section	.text.CRYP_SaveContext,"ax",%progbits
 644              		.align	1
 645              		.global	CRYP_SaveContext
 646              		.syntax unified
 647              		.thumb
 648              		.thumb_func
 649              		.fpu fpv4-sp-d16
 651              	CRYP_SaveContext:
 652              	.LFB135:
 460:/home/rdu/Workspace/project_templates/mcu/stm32_ws/src/libraries/STM32F4xx_StdPeriph_Driver/src/stm32f4xx_cryp.c **** /**
 461:/home/rdu/Workspace/project_templates/mcu/stm32_ws/src/libraries/STM32F4xx_StdPeriph_Driver/src/stm32f4xx_cryp.c ****   * @}
 462:/home/rdu/Workspace/project_templates/mcu/stm32_ws/src/libraries/STM32F4xx_StdPeriph_Driver/src/stm32f4xx_cryp.c ****   */
 463:/home/rdu/Workspace/project_templates/mcu/stm32_ws/src/libraries/STM32F4xx_StdPeriph_Driver/src/stm32f4xx_cryp.c ****   
 464:/home/rdu/Workspace/project_templates/mcu/stm32_ws/src/libraries/STM32F4xx_StdPeriph_Driver/src/stm32f4xx_cryp.c **** /** @defgroup CRYP_Group3 Context swapping functions
 465:/home/rdu/Workspace/project_templates/mcu/stm32_ws/src/libraries/STM32F4xx_StdPeriph_Driver/src/stm32f4xx_cryp.c ****  *  @brief   Context swapping functions
 466:/home/rdu/Workspace/project_templates/mcu/stm32_ws/src/libraries/STM32F4xx_StdPeriph_Driver/src/stm32f4xx_cryp.c ****  *
 467:/home/rdu/Workspace/project_templates/mcu/stm32_ws/src/libraries/STM32F4xx_StdPeriph_Driver/src/stm32f4xx_cryp.c **** @verbatim   
 468:/home/rdu/Workspace/project_templates/mcu/stm32_ws/src/libraries/STM32F4xx_StdPeriph_Driver/src/stm32f4xx_cryp.c ****  ===============================================================================
 469:/home/rdu/Workspace/project_templates/mcu/stm32_ws/src/libraries/STM32F4xx_StdPeriph_Driver/src/stm32f4xx_cryp.c ****                       ##### Context swapping functions #####
 470:/home/rdu/Workspace/project_templates/mcu/stm32_ws/src/libraries/STM32F4xx_StdPeriph_Driver/src/stm32f4xx_cryp.c ****  ===============================================================================  
 471:/home/rdu/Workspace/project_templates/mcu/stm32_ws/src/libraries/STM32F4xx_StdPeriph_Driver/src/stm32f4xx_cryp.c ****  [..] This section provides functions allowing to save and store CRYP Context
 472:/home/rdu/Workspace/project_templates/mcu/stm32_ws/src/libraries/STM32F4xx_StdPeriph_Driver/src/stm32f4xx_cryp.c **** 
 473:/home/rdu/Workspace/project_templates/mcu/stm32_ws/src/libraries/STM32F4xx_StdPeriph_Driver/src/stm32f4xx_cryp.c ****  [..] It is possible to interrupt an encryption/ decryption/ key generation process 
 474:/home/rdu/Workspace/project_templates/mcu/stm32_ws/src/libraries/STM32F4xx_StdPeriph_Driver/src/stm32f4xx_cryp.c ****       to perform another processing with a higher priority, and to complete the 
 475:/home/rdu/Workspace/project_templates/mcu/stm32_ws/src/libraries/STM32F4xx_StdPeriph_Driver/src/stm32f4xx_cryp.c ****       interrupted process later on, when the higher-priority task is complete. To do 
 476:/home/rdu/Workspace/project_templates/mcu/stm32_ws/src/libraries/STM32F4xx_StdPeriph_Driver/src/stm32f4xx_cryp.c ****       so, the context of the interrupted task must be saved from the CRYP registers 
 477:/home/rdu/Workspace/project_templates/mcu/stm32_ws/src/libraries/STM32F4xx_StdPeriph_Driver/src/stm32f4xx_cryp.c ****       to memory, and then be restored from memory to the CRYP registers.
 478:/home/rdu/Workspace/project_templates/mcu/stm32_ws/src/libraries/STM32F4xx_StdPeriph_Driver/src/stm32f4xx_cryp.c ****    
 479:/home/rdu/Workspace/project_templates/mcu/stm32_ws/src/libraries/STM32F4xx_StdPeriph_Driver/src/stm32f4xx_cryp.c ****    (#) To save the current context, use CRYP_SaveContext() function
 480:/home/rdu/Workspace/project_templates/mcu/stm32_ws/src/libraries/STM32F4xx_StdPeriph_Driver/src/stm32f4xx_cryp.c ****    (#) To restore the saved context, use CRYP_RestoreContext() function 
 481:/home/rdu/Workspace/project_templates/mcu/stm32_ws/src/libraries/STM32F4xx_StdPeriph_Driver/src/stm32f4xx_cryp.c **** 
 482:/home/rdu/Workspace/project_templates/mcu/stm32_ws/src/libraries/STM32F4xx_StdPeriph_Driver/src/stm32f4xx_cryp.c **** @endverbatim
 483:/home/rdu/Workspace/project_templates/mcu/stm32_ws/src/libraries/STM32F4xx_StdPeriph_Driver/src/stm32f4xx_cryp.c ****   * @{
 484:/home/rdu/Workspace/project_templates/mcu/stm32_ws/src/libraries/STM32F4xx_StdPeriph_Driver/src/stm32f4xx_cryp.c ****   */
 485:/home/rdu/Workspace/project_templates/mcu/stm32_ws/src/libraries/STM32F4xx_StdPeriph_Driver/src/stm32f4xx_cryp.c ****   
 486:/home/rdu/Workspace/project_templates/mcu/stm32_ws/src/libraries/STM32F4xx_StdPeriph_Driver/src/stm32f4xx_cryp.c **** /**
 487:/home/rdu/Workspace/project_templates/mcu/stm32_ws/src/libraries/STM32F4xx_StdPeriph_Driver/src/stm32f4xx_cryp.c ****   * @brief  Saves the CRYP peripheral Context. 
 488:/home/rdu/Workspace/project_templates/mcu/stm32_ws/src/libraries/STM32F4xx_StdPeriph_Driver/src/stm32f4xx_cryp.c ****   * @note   This function stops DMA transfer before to save the context. After 
 489:/home/rdu/Workspace/project_templates/mcu/stm32_ws/src/libraries/STM32F4xx_StdPeriph_Driver/src/stm32f4xx_cryp.c ****   *         restoring the context, you have to enable the DMA again (if the DMA
 490:/home/rdu/Workspace/project_templates/mcu/stm32_ws/src/libraries/STM32F4xx_StdPeriph_Driver/src/stm32f4xx_cryp.c ****   *         was previously used).
 491:/home/rdu/Workspace/project_templates/mcu/stm32_ws/src/libraries/STM32F4xx_StdPeriph_Driver/src/stm32f4xx_cryp.c ****   * @param  CRYP_ContextSave: pointer to a CRYP_Context structure that contains
 492:/home/rdu/Workspace/project_templates/mcu/stm32_ws/src/libraries/STM32F4xx_StdPeriph_Driver/src/stm32f4xx_cryp.c ****   *         the repository for current context.
 493:/home/rdu/Workspace/project_templates/mcu/stm32_ws/src/libraries/STM32F4xx_StdPeriph_Driver/src/stm32f4xx_cryp.c ****   * @param  CRYP_KeyInitStruct: pointer to a CRYP_KeyInitTypeDef structure that 
 494:/home/rdu/Workspace/project_templates/mcu/stm32_ws/src/libraries/STM32F4xx_StdPeriph_Driver/src/stm32f4xx_cryp.c ****   *         contains the configuration information for the CRYP Keys.  
 495:/home/rdu/Workspace/project_templates/mcu/stm32_ws/src/libraries/STM32F4xx_StdPeriph_Driver/src/stm32f4xx_cryp.c ****   * @retval None
 496:/home/rdu/Workspace/project_templates/mcu/stm32_ws/src/libraries/STM32F4xx_StdPeriph_Driver/src/stm32f4xx_cryp.c ****   */
 497:/home/rdu/Workspace/project_templates/mcu/stm32_ws/src/libraries/STM32F4xx_StdPeriph_Driver/src/stm32f4xx_cryp.c **** ErrorStatus CRYP_SaveContext(CRYP_Context* CRYP_ContextSave,
 498:/home/rdu/Workspace/project_templates/mcu/stm32_ws/src/libraries/STM32F4xx_StdPeriph_Driver/src/stm32f4xx_cryp.c ****                              CRYP_KeyInitTypeDef* CRYP_KeyInitStruct)
 499:/home/rdu/Workspace/project_templates/mcu/stm32_ws/src/libraries/STM32F4xx_StdPeriph_Driver/src/stm32f4xx_cryp.c **** {
 653              		.loc 1 499 0
 654              		.cfi_startproc
 655              		@ args = 0, pretend = 0, frame = 24
 656              		@ frame_needed = 0, uses_anonymous_args = 0
 657              		@ link register save eliminated.
 658 0000 86B0     		sub	sp, sp, #24
 659              	.LCFI19:
 660              		.cfi_def_cfa_offset 24
 661 0002 0190     		str	r0, [sp, #4]
 662 0004 0091     		str	r1, [sp]
 500:/home/rdu/Workspace/project_templates/mcu/stm32_ws/src/libraries/STM32F4xx_StdPeriph_Driver/src/stm32f4xx_cryp.c ****   __IO uint32_t timeout = 0;
 663              		.loc 1 500 0
 664 0006 0023     		movs	r3, #0
 665 0008 0293     		str	r3, [sp, #8]
 501:/home/rdu/Workspace/project_templates/mcu/stm32_ws/src/libraries/STM32F4xx_StdPeriph_Driver/src/stm32f4xx_cryp.c ****   uint32_t ckeckmask = 0, bitstatus;    
 666              		.loc 1 501 0
 667 000a 0023     		movs	r3, #0
 668 000c 0593     		str	r3, [sp, #20]
 502:/home/rdu/Workspace/project_templates/mcu/stm32_ws/src/libraries/STM32F4xx_StdPeriph_Driver/src/stm32f4xx_cryp.c ****   ErrorStatus status = ERROR;
 669              		.loc 1 502 0
 670 000e 0023     		movs	r3, #0
 671 0010 8DF81330 		strb	r3, [sp, #19]
 503:/home/rdu/Workspace/project_templates/mcu/stm32_ws/src/libraries/STM32F4xx_StdPeriph_Driver/src/stm32f4xx_cryp.c **** 
 504:/home/rdu/Workspace/project_templates/mcu/stm32_ws/src/libraries/STM32F4xx_StdPeriph_Driver/src/stm32f4xx_cryp.c ****   /* Stop DMA transfers on the IN FIFO by clearing the DIEN bit in the CRYP_DMACR */
 505:/home/rdu/Workspace/project_templates/mcu/stm32_ws/src/libraries/STM32F4xx_StdPeriph_Driver/src/stm32f4xx_cryp.c ****   CRYP->DMACR &= ~(uint32_t)CRYP_DMACR_DIEN;
 672              		.loc 1 505 0
 673 0014 5C4B     		ldr	r3, .L42
 674 0016 1B69     		ldr	r3, [r3, #16]
 675 0018 5B4A     		ldr	r2, .L42
 676 001a 23F00103 		bic	r3, r3, #1
 677 001e 1361     		str	r3, [r2, #16]
 506:/home/rdu/Workspace/project_templates/mcu/stm32_ws/src/libraries/STM32F4xx_StdPeriph_Driver/src/stm32f4xx_cryp.c ****     
 507:/home/rdu/Workspace/project_templates/mcu/stm32_ws/src/libraries/STM32F4xx_StdPeriph_Driver/src/stm32f4xx_cryp.c ****   /* Wait until both the IN and OUT FIFOs are empty  
 508:/home/rdu/Workspace/project_templates/mcu/stm32_ws/src/libraries/STM32F4xx_StdPeriph_Driver/src/stm32f4xx_cryp.c ****     (IFEM=1 and OFNE=0 in the CRYP_SR register) and the 
 509:/home/rdu/Workspace/project_templates/mcu/stm32_ws/src/libraries/STM32F4xx_StdPeriph_Driver/src/stm32f4xx_cryp.c ****      BUSY bit is cleared. */
 510:/home/rdu/Workspace/project_templates/mcu/stm32_ws/src/libraries/STM32F4xx_StdPeriph_Driver/src/stm32f4xx_cryp.c **** 
 511:/home/rdu/Workspace/project_templates/mcu/stm32_ws/src/libraries/STM32F4xx_StdPeriph_Driver/src/stm32f4xx_cryp.c ****   if ((CRYP->CR & (uint32_t)(CRYP_CR_ALGOMODE_TDES_ECB | CRYP_CR_ALGOMODE_TDES_CBC)) != (uint32_t)0
 678              		.loc 1 511 0
 679 0020 594B     		ldr	r3, .L42
 680 0022 1B68     		ldr	r3, [r3]
 681 0024 03F00803 		and	r3, r3, #8
 682 0028 002B     		cmp	r3, #0
 683 002a 02D0     		beq	.L35
 512:/home/rdu/Workspace/project_templates/mcu/stm32_ws/src/libraries/STM32F4xx_StdPeriph_Driver/src/stm32f4xx_cryp.c ****   { 
 513:/home/rdu/Workspace/project_templates/mcu/stm32_ws/src/libraries/STM32F4xx_StdPeriph_Driver/src/stm32f4xx_cryp.c ****     ckeckmask =  CRYP_SR_IFEM | CRYP_SR_BUSY ;
 684              		.loc 1 513 0
 685 002c 1123     		movs	r3, #17
 686 002e 0593     		str	r3, [sp, #20]
 687 0030 01E0     		b	.L38
 688              	.L35:
 514:/home/rdu/Workspace/project_templates/mcu/stm32_ws/src/libraries/STM32F4xx_StdPeriph_Driver/src/stm32f4xx_cryp.c ****   }
 515:/home/rdu/Workspace/project_templates/mcu/stm32_ws/src/libraries/STM32F4xx_StdPeriph_Driver/src/stm32f4xx_cryp.c ****   else /* AES or DES */
 516:/home/rdu/Workspace/project_templates/mcu/stm32_ws/src/libraries/STM32F4xx_StdPeriph_Driver/src/stm32f4xx_cryp.c ****   {
 517:/home/rdu/Workspace/project_templates/mcu/stm32_ws/src/libraries/STM32F4xx_StdPeriph_Driver/src/stm32f4xx_cryp.c ****     ckeckmask =  CRYP_SR_IFEM | CRYP_SR_BUSY | CRYP_SR_OFNE;
 689              		.loc 1 517 0
 690 0032 1523     		movs	r3, #21
 691 0034 0593     		str	r3, [sp, #20]
 692              	.L38:
 518:/home/rdu/Workspace/project_templates/mcu/stm32_ws/src/libraries/STM32F4xx_StdPeriph_Driver/src/stm32f4xx_cryp.c ****   }           
 519:/home/rdu/Workspace/project_templates/mcu/stm32_ws/src/libraries/STM32F4xx_StdPeriph_Driver/src/stm32f4xx_cryp.c ****    
 520:/home/rdu/Workspace/project_templates/mcu/stm32_ws/src/libraries/STM32F4xx_StdPeriph_Driver/src/stm32f4xx_cryp.c ****   do 
 521:/home/rdu/Workspace/project_templates/mcu/stm32_ws/src/libraries/STM32F4xx_StdPeriph_Driver/src/stm32f4xx_cryp.c ****   {
 522:/home/rdu/Workspace/project_templates/mcu/stm32_ws/src/libraries/STM32F4xx_StdPeriph_Driver/src/stm32f4xx_cryp.c ****     bitstatus = CRYP->SR & ckeckmask;
 693              		.loc 1 522 0 discriminator 2
 694 0036 544B     		ldr	r3, .L42
 695 0038 5B68     		ldr	r3, [r3, #4]
 696 003a 059A     		ldr	r2, [sp, #20]
 697 003c 1340     		ands	r3, r3, r2
 698 003e 0393     		str	r3, [sp, #12]
 523:/home/rdu/Workspace/project_templates/mcu/stm32_ws/src/libraries/STM32F4xx_StdPeriph_Driver/src/stm32f4xx_cryp.c ****     timeout++;
 699              		.loc 1 523 0 discriminator 2
 700 0040 029B     		ldr	r3, [sp, #8]
 701 0042 0133     		adds	r3, r3, #1
 702 0044 0293     		str	r3, [sp, #8]
 524:/home/rdu/Workspace/project_templates/mcu/stm32_ws/src/libraries/STM32F4xx_StdPeriph_Driver/src/stm32f4xx_cryp.c ****   }
 525:/home/rdu/Workspace/project_templates/mcu/stm32_ws/src/libraries/STM32F4xx_StdPeriph_Driver/src/stm32f4xx_cryp.c ****   while ((timeout != MAX_TIMEOUT) && (bitstatus != CRYP_SR_IFEM));
 703              		.loc 1 525 0 discriminator 2
 704 0046 029B     		ldr	r3, [sp, #8]
 705 0048 4FF6FF72 		movw	r2, #65535
 706 004c 9342     		cmp	r3, r2
 707 004e 02D0     		beq	.L37
 708              		.loc 1 525 0 is_stmt 0 discriminator 1
 709 0050 039B     		ldr	r3, [sp, #12]
 710 0052 012B     		cmp	r3, #1
 711 0054 EFD1     		bne	.L38
 712              	.L37:
 526:/home/rdu/Workspace/project_templates/mcu/stm32_ws/src/libraries/STM32F4xx_StdPeriph_Driver/src/stm32f4xx_cryp.c ****      
 527:/home/rdu/Workspace/project_templates/mcu/stm32_ws/src/libraries/STM32F4xx_StdPeriph_Driver/src/stm32f4xx_cryp.c ****   if ((CRYP->SR & ckeckmask) != CRYP_SR_IFEM)
 713              		.loc 1 527 0 is_stmt 1
 714 0056 4C4B     		ldr	r3, .L42
 715 0058 5A68     		ldr	r2, [r3, #4]
 716 005a 059B     		ldr	r3, [sp, #20]
 717 005c 1340     		ands	r3, r3, r2
 718 005e 012B     		cmp	r3, #1
 719 0060 03D0     		beq	.L39
 528:/home/rdu/Workspace/project_templates/mcu/stm32_ws/src/libraries/STM32F4xx_StdPeriph_Driver/src/stm32f4xx_cryp.c ****   {
 529:/home/rdu/Workspace/project_templates/mcu/stm32_ws/src/libraries/STM32F4xx_StdPeriph_Driver/src/stm32f4xx_cryp.c ****     status = ERROR;
 720              		.loc 1 529 0
 721 0062 0023     		movs	r3, #0
 722 0064 8DF81330 		strb	r3, [sp, #19]
 723 0068 88E0     		b	.L40
 724              	.L39:
 530:/home/rdu/Workspace/project_templates/mcu/stm32_ws/src/libraries/STM32F4xx_StdPeriph_Driver/src/stm32f4xx_cryp.c ****   }
 531:/home/rdu/Workspace/project_templates/mcu/stm32_ws/src/libraries/STM32F4xx_StdPeriph_Driver/src/stm32f4xx_cryp.c ****   else
 532:/home/rdu/Workspace/project_templates/mcu/stm32_ws/src/libraries/STM32F4xx_StdPeriph_Driver/src/stm32f4xx_cryp.c ****   {      
 533:/home/rdu/Workspace/project_templates/mcu/stm32_ws/src/libraries/STM32F4xx_StdPeriph_Driver/src/stm32f4xx_cryp.c ****     /* Stop DMA transfers on the OUT FIFO by 
 534:/home/rdu/Workspace/project_templates/mcu/stm32_ws/src/libraries/STM32F4xx_StdPeriph_Driver/src/stm32f4xx_cryp.c ****        - writing the DOEN bit to 0 in the CRYP_DMACR register 
 535:/home/rdu/Workspace/project_templates/mcu/stm32_ws/src/libraries/STM32F4xx_StdPeriph_Driver/src/stm32f4xx_cryp.c ****        - and clear the CRYPEN bit. */
 536:/home/rdu/Workspace/project_templates/mcu/stm32_ws/src/libraries/STM32F4xx_StdPeriph_Driver/src/stm32f4xx_cryp.c **** 
 537:/home/rdu/Workspace/project_templates/mcu/stm32_ws/src/libraries/STM32F4xx_StdPeriph_Driver/src/stm32f4xx_cryp.c ****     CRYP->DMACR &= ~(uint32_t)CRYP_DMACR_DOEN;
 725              		.loc 1 537 0
 726 006a 474B     		ldr	r3, .L42
 727 006c 1B69     		ldr	r3, [r3, #16]
 728 006e 464A     		ldr	r2, .L42
 729 0070 23F00203 		bic	r3, r3, #2
 730 0074 1361     		str	r3, [r2, #16]
 538:/home/rdu/Workspace/project_templates/mcu/stm32_ws/src/libraries/STM32F4xx_StdPeriph_Driver/src/stm32f4xx_cryp.c ****     CRYP->CR &= ~(uint32_t)CRYP_CR_CRYPEN;
 731              		.loc 1 538 0
 732 0076 444B     		ldr	r3, .L42
 733 0078 1B68     		ldr	r3, [r3]
 734 007a 434A     		ldr	r2, .L42
 735 007c 23F40043 		bic	r3, r3, #32768
 736 0080 1360     		str	r3, [r2]
 539:/home/rdu/Workspace/project_templates/mcu/stm32_ws/src/libraries/STM32F4xx_StdPeriph_Driver/src/stm32f4xx_cryp.c **** 
 540:/home/rdu/Workspace/project_templates/mcu/stm32_ws/src/libraries/STM32F4xx_StdPeriph_Driver/src/stm32f4xx_cryp.c ****     /* Save the current configuration (bit 19, bit[17:16] and bits [9:2] in the CRYP_CR register) *
 541:/home/rdu/Workspace/project_templates/mcu/stm32_ws/src/libraries/STM32F4xx_StdPeriph_Driver/src/stm32f4xx_cryp.c ****     CRYP_ContextSave->CR_CurrentConfig  = CRYP->CR & (CRYP_CR_GCM_CCMPH |
 737              		.loc 1 541 0
 738 0082 414B     		ldr	r3, .L42
 739 0084 1A68     		ldr	r2, [r3]
 740 0086 414B     		ldr	r3, .L42+4
 741 0088 1340     		ands	r3, r3, r2
 742 008a 019A     		ldr	r2, [sp, #4]
 743 008c 1360     		str	r3, [r2]
 542:/home/rdu/Workspace/project_templates/mcu/stm32_ws/src/libraries/STM32F4xx_StdPeriph_Driver/src/stm32f4xx_cryp.c ****                                                       CRYP_CR_KEYSIZE  |
 543:/home/rdu/Workspace/project_templates/mcu/stm32_ws/src/libraries/STM32F4xx_StdPeriph_Driver/src/stm32f4xx_cryp.c ****                                                       CRYP_CR_DATATYPE |
 544:/home/rdu/Workspace/project_templates/mcu/stm32_ws/src/libraries/STM32F4xx_StdPeriph_Driver/src/stm32f4xx_cryp.c ****                                                       CRYP_CR_ALGOMODE |
 545:/home/rdu/Workspace/project_templates/mcu/stm32_ws/src/libraries/STM32F4xx_StdPeriph_Driver/src/stm32f4xx_cryp.c ****                                                       CRYP_CR_ALGODIR);
 546:/home/rdu/Workspace/project_templates/mcu/stm32_ws/src/libraries/STM32F4xx_StdPeriph_Driver/src/stm32f4xx_cryp.c **** 
 547:/home/rdu/Workspace/project_templates/mcu/stm32_ws/src/libraries/STM32F4xx_StdPeriph_Driver/src/stm32f4xx_cryp.c ****     /* and, if not in ECB mode, the initialization vectors. */
 548:/home/rdu/Workspace/project_templates/mcu/stm32_ws/src/libraries/STM32F4xx_StdPeriph_Driver/src/stm32f4xx_cryp.c ****     CRYP_ContextSave->CRYP_IV0LR = CRYP->IV0LR;
 744              		.loc 1 548 0
 745 008e 3E4B     		ldr	r3, .L42
 746 0090 1A6C     		ldr	r2, [r3, #64]
 747 0092 019B     		ldr	r3, [sp, #4]
 748 0094 5A60     		str	r2, [r3, #4]
 549:/home/rdu/Workspace/project_templates/mcu/stm32_ws/src/libraries/STM32F4xx_StdPeriph_Driver/src/stm32f4xx_cryp.c ****     CRYP_ContextSave->CRYP_IV0RR = CRYP->IV0RR;
 749              		.loc 1 549 0
 750 0096 3C4B     		ldr	r3, .L42
 751 0098 5A6C     		ldr	r2, [r3, #68]
 752 009a 019B     		ldr	r3, [sp, #4]
 753 009c 9A60     		str	r2, [r3, #8]
 550:/home/rdu/Workspace/project_templates/mcu/stm32_ws/src/libraries/STM32F4xx_StdPeriph_Driver/src/stm32f4xx_cryp.c ****     CRYP_ContextSave->CRYP_IV1LR = CRYP->IV1LR;
 754              		.loc 1 550 0
 755 009e 3A4B     		ldr	r3, .L42
 756 00a0 9A6C     		ldr	r2, [r3, #72]
 757 00a2 019B     		ldr	r3, [sp, #4]
 758 00a4 DA60     		str	r2, [r3, #12]
 551:/home/rdu/Workspace/project_templates/mcu/stm32_ws/src/libraries/STM32F4xx_StdPeriph_Driver/src/stm32f4xx_cryp.c ****     CRYP_ContextSave->CRYP_IV1RR = CRYP->IV1RR;
 759              		.loc 1 551 0
 760 00a6 384B     		ldr	r3, .L42
 761 00a8 DA6C     		ldr	r2, [r3, #76]
 762 00aa 019B     		ldr	r3, [sp, #4]
 763 00ac 1A61     		str	r2, [r3, #16]
 552:/home/rdu/Workspace/project_templates/mcu/stm32_ws/src/libraries/STM32F4xx_StdPeriph_Driver/src/stm32f4xx_cryp.c **** 
 553:/home/rdu/Workspace/project_templates/mcu/stm32_ws/src/libraries/STM32F4xx_StdPeriph_Driver/src/stm32f4xx_cryp.c ****     /* save The key value */
 554:/home/rdu/Workspace/project_templates/mcu/stm32_ws/src/libraries/STM32F4xx_StdPeriph_Driver/src/stm32f4xx_cryp.c ****     CRYP_ContextSave->CRYP_K0LR = CRYP_KeyInitStruct->CRYP_Key0Left; 
 764              		.loc 1 554 0
 765 00ae 009B     		ldr	r3, [sp]
 766 00b0 1A68     		ldr	r2, [r3]
 767 00b2 019B     		ldr	r3, [sp, #4]
 768 00b4 5A61     		str	r2, [r3, #20]
 555:/home/rdu/Workspace/project_templates/mcu/stm32_ws/src/libraries/STM32F4xx_StdPeriph_Driver/src/stm32f4xx_cryp.c ****     CRYP_ContextSave->CRYP_K0RR = CRYP_KeyInitStruct->CRYP_Key0Right; 
 769              		.loc 1 555 0
 770 00b6 009B     		ldr	r3, [sp]
 771 00b8 5A68     		ldr	r2, [r3, #4]
 772 00ba 019B     		ldr	r3, [sp, #4]
 773 00bc 9A61     		str	r2, [r3, #24]
 556:/home/rdu/Workspace/project_templates/mcu/stm32_ws/src/libraries/STM32F4xx_StdPeriph_Driver/src/stm32f4xx_cryp.c ****     CRYP_ContextSave->CRYP_K1LR = CRYP_KeyInitStruct->CRYP_Key1Left; 
 774              		.loc 1 556 0
 775 00be 009B     		ldr	r3, [sp]
 776 00c0 9A68     		ldr	r2, [r3, #8]
 777 00c2 019B     		ldr	r3, [sp, #4]
 778 00c4 DA61     		str	r2, [r3, #28]
 557:/home/rdu/Workspace/project_templates/mcu/stm32_ws/src/libraries/STM32F4xx_StdPeriph_Driver/src/stm32f4xx_cryp.c ****     CRYP_ContextSave->CRYP_K1RR = CRYP_KeyInitStruct->CRYP_Key1Right; 
 779              		.loc 1 557 0
 780 00c6 009B     		ldr	r3, [sp]
 781 00c8 DA68     		ldr	r2, [r3, #12]
 782 00ca 019B     		ldr	r3, [sp, #4]
 783 00cc 1A62     		str	r2, [r3, #32]
 558:/home/rdu/Workspace/project_templates/mcu/stm32_ws/src/libraries/STM32F4xx_StdPeriph_Driver/src/stm32f4xx_cryp.c ****     CRYP_ContextSave->CRYP_K2LR = CRYP_KeyInitStruct->CRYP_Key2Left; 
 784              		.loc 1 558 0
 785 00ce 009B     		ldr	r3, [sp]
 786 00d0 1A69     		ldr	r2, [r3, #16]
 787 00d2 019B     		ldr	r3, [sp, #4]
 788 00d4 5A62     		str	r2, [r3, #36]
 559:/home/rdu/Workspace/project_templates/mcu/stm32_ws/src/libraries/STM32F4xx_StdPeriph_Driver/src/stm32f4xx_cryp.c ****     CRYP_ContextSave->CRYP_K2RR = CRYP_KeyInitStruct->CRYP_Key2Right; 
 789              		.loc 1 559 0
 790 00d6 009B     		ldr	r3, [sp]
 791 00d8 5A69     		ldr	r2, [r3, #20]
 792 00da 019B     		ldr	r3, [sp, #4]
 793 00dc 9A62     		str	r2, [r3, #40]
 560:/home/rdu/Workspace/project_templates/mcu/stm32_ws/src/libraries/STM32F4xx_StdPeriph_Driver/src/stm32f4xx_cryp.c ****     CRYP_ContextSave->CRYP_K3LR = CRYP_KeyInitStruct->CRYP_Key3Left; 
 794              		.loc 1 560 0
 795 00de 009B     		ldr	r3, [sp]
 796 00e0 9A69     		ldr	r2, [r3, #24]
 797 00e2 019B     		ldr	r3, [sp, #4]
 798 00e4 DA62     		str	r2, [r3, #44]
 561:/home/rdu/Workspace/project_templates/mcu/stm32_ws/src/libraries/STM32F4xx_StdPeriph_Driver/src/stm32f4xx_cryp.c ****     CRYP_ContextSave->CRYP_K3RR = CRYP_KeyInitStruct->CRYP_Key3Right; 
 799              		.loc 1 561 0
 800 00e6 009B     		ldr	r3, [sp]
 801 00e8 DA69     		ldr	r2, [r3, #28]
 802 00ea 019B     		ldr	r3, [sp, #4]
 803 00ec 1A63     		str	r2, [r3, #48]
 562:/home/rdu/Workspace/project_templates/mcu/stm32_ws/src/libraries/STM32F4xx_StdPeriph_Driver/src/stm32f4xx_cryp.c **** 
 563:/home/rdu/Workspace/project_templates/mcu/stm32_ws/src/libraries/STM32F4xx_StdPeriph_Driver/src/stm32f4xx_cryp.c ****     /* Save the content of context swap registers */
 564:/home/rdu/Workspace/project_templates/mcu/stm32_ws/src/libraries/STM32F4xx_StdPeriph_Driver/src/stm32f4xx_cryp.c ****     CRYP_ContextSave->CRYP_CSGCMCCMR[0] = CRYP->CSGCMCCM0R;
 804              		.loc 1 564 0
 805 00ee 264B     		ldr	r3, .L42
 806 00f0 1A6D     		ldr	r2, [r3, #80]
 807 00f2 019B     		ldr	r3, [sp, #4]
 808 00f4 5A63     		str	r2, [r3, #52]
 565:/home/rdu/Workspace/project_templates/mcu/stm32_ws/src/libraries/STM32F4xx_StdPeriph_Driver/src/stm32f4xx_cryp.c ****     CRYP_ContextSave->CRYP_CSGCMCCMR[1] = CRYP->CSGCMCCM1R;
 809              		.loc 1 565 0
 810 00f6 244B     		ldr	r3, .L42
 811 00f8 5A6D     		ldr	r2, [r3, #84]
 812 00fa 019B     		ldr	r3, [sp, #4]
 813 00fc 9A63     		str	r2, [r3, #56]
 566:/home/rdu/Workspace/project_templates/mcu/stm32_ws/src/libraries/STM32F4xx_StdPeriph_Driver/src/stm32f4xx_cryp.c ****     CRYP_ContextSave->CRYP_CSGCMCCMR[2] = CRYP->CSGCMCCM2R;
 814              		.loc 1 566 0
 815 00fe 224B     		ldr	r3, .L42
 816 0100 9A6D     		ldr	r2, [r3, #88]
 817 0102 019B     		ldr	r3, [sp, #4]
 818 0104 DA63     		str	r2, [r3, #60]
 567:/home/rdu/Workspace/project_templates/mcu/stm32_ws/src/libraries/STM32F4xx_StdPeriph_Driver/src/stm32f4xx_cryp.c ****     CRYP_ContextSave->CRYP_CSGCMCCMR[3] = CRYP->CSGCMCCM3R;
 819              		.loc 1 567 0
 820 0106 204B     		ldr	r3, .L42
 821 0108 DA6D     		ldr	r2, [r3, #92]
 822 010a 019B     		ldr	r3, [sp, #4]
 823 010c 1A64     		str	r2, [r3, #64]
 568:/home/rdu/Workspace/project_templates/mcu/stm32_ws/src/libraries/STM32F4xx_StdPeriph_Driver/src/stm32f4xx_cryp.c ****     CRYP_ContextSave->CRYP_CSGCMCCMR[4] = CRYP->CSGCMCCM4R;
 824              		.loc 1 568 0
 825 010e 1E4B     		ldr	r3, .L42
 826 0110 1A6E     		ldr	r2, [r3, #96]
 827 0112 019B     		ldr	r3, [sp, #4]
 828 0114 5A64     		str	r2, [r3, #68]
 569:/home/rdu/Workspace/project_templates/mcu/stm32_ws/src/libraries/STM32F4xx_StdPeriph_Driver/src/stm32f4xx_cryp.c ****     CRYP_ContextSave->CRYP_CSGCMCCMR[5] = CRYP->CSGCMCCM5R;
 829              		.loc 1 569 0
 830 0116 1C4B     		ldr	r3, .L42
 831 0118 5A6E     		ldr	r2, [r3, #100]
 832 011a 019B     		ldr	r3, [sp, #4]
 833 011c 9A64     		str	r2, [r3, #72]
 570:/home/rdu/Workspace/project_templates/mcu/stm32_ws/src/libraries/STM32F4xx_StdPeriph_Driver/src/stm32f4xx_cryp.c ****     CRYP_ContextSave->CRYP_CSGCMCCMR[6] = CRYP->CSGCMCCM6R;
 834              		.loc 1 570 0
 835 011e 1A4B     		ldr	r3, .L42
 836 0120 9A6E     		ldr	r2, [r3, #104]
 837 0122 019B     		ldr	r3, [sp, #4]
 838 0124 DA64     		str	r2, [r3, #76]
 571:/home/rdu/Workspace/project_templates/mcu/stm32_ws/src/libraries/STM32F4xx_StdPeriph_Driver/src/stm32f4xx_cryp.c ****     CRYP_ContextSave->CRYP_CSGCMCCMR[7] = CRYP->CSGCMCCM7R;
 839              		.loc 1 571 0
 840 0126 184B     		ldr	r3, .L42
 841 0128 DA6E     		ldr	r2, [r3, #108]
 842 012a 019B     		ldr	r3, [sp, #4]
 843 012c 1A65     		str	r2, [r3, #80]
 572:/home/rdu/Workspace/project_templates/mcu/stm32_ws/src/libraries/STM32F4xx_StdPeriph_Driver/src/stm32f4xx_cryp.c ****     
 573:/home/rdu/Workspace/project_templates/mcu/stm32_ws/src/libraries/STM32F4xx_StdPeriph_Driver/src/stm32f4xx_cryp.c ****     CRYP_ContextSave->CRYP_CSGCMR[0] = CRYP->CSGCM0R;
 844              		.loc 1 573 0
 845 012e 164B     		ldr	r3, .L42
 846 0130 1A6F     		ldr	r2, [r3, #112]
 847 0132 019B     		ldr	r3, [sp, #4]
 848 0134 5A65     		str	r2, [r3, #84]
 574:/home/rdu/Workspace/project_templates/mcu/stm32_ws/src/libraries/STM32F4xx_StdPeriph_Driver/src/stm32f4xx_cryp.c ****     CRYP_ContextSave->CRYP_CSGCMR[1] = CRYP->CSGCM1R;
 849              		.loc 1 574 0
 850 0136 144B     		ldr	r3, .L42
 851 0138 5A6F     		ldr	r2, [r3, #116]
 852 013a 019B     		ldr	r3, [sp, #4]
 853 013c 9A65     		str	r2, [r3, #88]
 575:/home/rdu/Workspace/project_templates/mcu/stm32_ws/src/libraries/STM32F4xx_StdPeriph_Driver/src/stm32f4xx_cryp.c ****     CRYP_ContextSave->CRYP_CSGCMR[2] = CRYP->CSGCM2R;
 854              		.loc 1 575 0
 855 013e 124B     		ldr	r3, .L42
 856 0140 9A6F     		ldr	r2, [r3, #120]
 857 0142 019B     		ldr	r3, [sp, #4]
 858 0144 DA65     		str	r2, [r3, #92]
 576:/home/rdu/Workspace/project_templates/mcu/stm32_ws/src/libraries/STM32F4xx_StdPeriph_Driver/src/stm32f4xx_cryp.c ****     CRYP_ContextSave->CRYP_CSGCMR[3] = CRYP->CSGCM3R;
 859              		.loc 1 576 0
 860 0146 104B     		ldr	r3, .L42
 861 0148 DA6F     		ldr	r2, [r3, #124]
 862 014a 019B     		ldr	r3, [sp, #4]
 863 014c 1A66     		str	r2, [r3, #96]
 577:/home/rdu/Workspace/project_templates/mcu/stm32_ws/src/libraries/STM32F4xx_StdPeriph_Driver/src/stm32f4xx_cryp.c ****     CRYP_ContextSave->CRYP_CSGCMR[4] = CRYP->CSGCM4R;
 864              		.loc 1 577 0
 865 014e 0E4B     		ldr	r3, .L42
 866 0150 D3F88020 		ldr	r2, [r3, #128]
 867 0154 019B     		ldr	r3, [sp, #4]
 868 0156 5A66     		str	r2, [r3, #100]
 578:/home/rdu/Workspace/project_templates/mcu/stm32_ws/src/libraries/STM32F4xx_StdPeriph_Driver/src/stm32f4xx_cryp.c ****     CRYP_ContextSave->CRYP_CSGCMR[5] = CRYP->CSGCM5R;
 869              		.loc 1 578 0
 870 0158 0B4B     		ldr	r3, .L42
 871 015a D3F88420 		ldr	r2, [r3, #132]
 872 015e 019B     		ldr	r3, [sp, #4]
 873 0160 9A66     		str	r2, [r3, #104]
 579:/home/rdu/Workspace/project_templates/mcu/stm32_ws/src/libraries/STM32F4xx_StdPeriph_Driver/src/stm32f4xx_cryp.c ****     CRYP_ContextSave->CRYP_CSGCMR[6] = CRYP->CSGCM6R;
 874              		.loc 1 579 0
 875 0162 094B     		ldr	r3, .L42
 876 0164 D3F88820 		ldr	r2, [r3, #136]
 877 0168 019B     		ldr	r3, [sp, #4]
 878 016a DA66     		str	r2, [r3, #108]
 580:/home/rdu/Workspace/project_templates/mcu/stm32_ws/src/libraries/STM32F4xx_StdPeriph_Driver/src/stm32f4xx_cryp.c ****     CRYP_ContextSave->CRYP_CSGCMR[7] = CRYP->CSGCM7R;
 879              		.loc 1 580 0
 880 016c 064B     		ldr	r3, .L42
 881 016e D3F88C20 		ldr	r2, [r3, #140]
 882 0172 019B     		ldr	r3, [sp, #4]
 883 0174 1A67     		str	r2, [r3, #112]
 581:/home/rdu/Workspace/project_templates/mcu/stm32_ws/src/libraries/STM32F4xx_StdPeriph_Driver/src/stm32f4xx_cryp.c ****     
 582:/home/rdu/Workspace/project_templates/mcu/stm32_ws/src/libraries/STM32F4xx_StdPeriph_Driver/src/stm32f4xx_cryp.c ****    /* When needed, save the DMA status (pointers for IN and OUT messages, 
 583:/home/rdu/Workspace/project_templates/mcu/stm32_ws/src/libraries/STM32F4xx_StdPeriph_Driver/src/stm32f4xx_cryp.c ****       number of remaining bytes, etc.) */
 584:/home/rdu/Workspace/project_templates/mcu/stm32_ws/src/libraries/STM32F4xx_StdPeriph_Driver/src/stm32f4xx_cryp.c ****      
 585:/home/rdu/Workspace/project_templates/mcu/stm32_ws/src/libraries/STM32F4xx_StdPeriph_Driver/src/stm32f4xx_cryp.c ****     status = SUCCESS;
 884              		.loc 1 585 0
 885 0176 0123     		movs	r3, #1
 886 0178 8DF81330 		strb	r3, [sp, #19]
 887              	.L40:
 586:/home/rdu/Workspace/project_templates/mcu/stm32_ws/src/libraries/STM32F4xx_StdPeriph_Driver/src/stm32f4xx_cryp.c ****   }
 587:/home/rdu/Workspace/project_templates/mcu/stm32_ws/src/libraries/STM32F4xx_StdPeriph_Driver/src/stm32f4xx_cryp.c **** 
 588:/home/rdu/Workspace/project_templates/mcu/stm32_ws/src/libraries/STM32F4xx_StdPeriph_Driver/src/stm32f4xx_cryp.c ****    return status;
 888              		.loc 1 588 0
 889 017c 9DF81330 		ldrb	r3, [sp, #19]	@ zero_extendqisi2
 589:/home/rdu/Workspace/project_templates/mcu/stm32_ws/src/libraries/STM32F4xx_StdPeriph_Driver/src/stm32f4xx_cryp.c **** }
 890              		.loc 1 589 0
 891 0180 1846     		mov	r0, r3
 892 0182 06B0     		add	sp, sp, #24
 893              	.LCFI20:
 894              		.cfi_def_cfa_offset 0
 895              		@ sp needed
 896 0184 7047     		bx	lr
 897              	.L43:
 898 0186 00BF     		.align	2
 899              	.L42:
 900 0188 00000650 		.word	1342570496
 901 018c FC030B00 		.word	721916
 902              		.cfi_endproc
 903              	.LFE135:
 905              		.section	.text.CRYP_RestoreContext,"ax",%progbits
 906              		.align	1
 907              		.global	CRYP_RestoreContext
 908              		.syntax unified
 909              		.thumb
 910              		.thumb_func
 911              		.fpu fpv4-sp-d16
 913              	CRYP_RestoreContext:
 914              	.LFB136:
 590:/home/rdu/Workspace/project_templates/mcu/stm32_ws/src/libraries/STM32F4xx_StdPeriph_Driver/src/stm32f4xx_cryp.c **** 
 591:/home/rdu/Workspace/project_templates/mcu/stm32_ws/src/libraries/STM32F4xx_StdPeriph_Driver/src/stm32f4xx_cryp.c **** /**
 592:/home/rdu/Workspace/project_templates/mcu/stm32_ws/src/libraries/STM32F4xx_StdPeriph_Driver/src/stm32f4xx_cryp.c ****   * @brief  Restores the CRYP peripheral Context.
 593:/home/rdu/Workspace/project_templates/mcu/stm32_ws/src/libraries/STM32F4xx_StdPeriph_Driver/src/stm32f4xx_cryp.c ****   * @note   Since the DMA transfer is stopped in CRYP_SaveContext() function,
 594:/home/rdu/Workspace/project_templates/mcu/stm32_ws/src/libraries/STM32F4xx_StdPeriph_Driver/src/stm32f4xx_cryp.c ****   *         after restoring the context, you have to enable the DMA again (if the
 595:/home/rdu/Workspace/project_templates/mcu/stm32_ws/src/libraries/STM32F4xx_StdPeriph_Driver/src/stm32f4xx_cryp.c ****   *         DMA was previously used).  
 596:/home/rdu/Workspace/project_templates/mcu/stm32_ws/src/libraries/STM32F4xx_StdPeriph_Driver/src/stm32f4xx_cryp.c ****   * @param  CRYP_ContextRestore: pointer to a CRYP_Context structure that contains
 597:/home/rdu/Workspace/project_templates/mcu/stm32_ws/src/libraries/STM32F4xx_StdPeriph_Driver/src/stm32f4xx_cryp.c ****   *         the repository for saved context.
 598:/home/rdu/Workspace/project_templates/mcu/stm32_ws/src/libraries/STM32F4xx_StdPeriph_Driver/src/stm32f4xx_cryp.c ****   * @note   The data that were saved during context saving must be rewritten into
 599:/home/rdu/Workspace/project_templates/mcu/stm32_ws/src/libraries/STM32F4xx_StdPeriph_Driver/src/stm32f4xx_cryp.c ****   *         the IN FIFO.
 600:/home/rdu/Workspace/project_templates/mcu/stm32_ws/src/libraries/STM32F4xx_StdPeriph_Driver/src/stm32f4xx_cryp.c ****   * @retval None
 601:/home/rdu/Workspace/project_templates/mcu/stm32_ws/src/libraries/STM32F4xx_StdPeriph_Driver/src/stm32f4xx_cryp.c ****   */
 602:/home/rdu/Workspace/project_templates/mcu/stm32_ws/src/libraries/STM32F4xx_StdPeriph_Driver/src/stm32f4xx_cryp.c **** void CRYP_RestoreContext(CRYP_Context* CRYP_ContextRestore)  
 603:/home/rdu/Workspace/project_templates/mcu/stm32_ws/src/libraries/STM32F4xx_StdPeriph_Driver/src/stm32f4xx_cryp.c **** {
 915              		.loc 1 603 0
 916              		.cfi_startproc
 917              		@ args = 0, pretend = 0, frame = 8
 918              		@ frame_needed = 0, uses_anonymous_args = 0
 919              		@ link register save eliminated.
 920 0000 82B0     		sub	sp, sp, #8
 921              	.LCFI21:
 922              		.cfi_def_cfa_offset 8
 923 0002 0190     		str	r0, [sp, #4]
 604:/home/rdu/Workspace/project_templates/mcu/stm32_ws/src/libraries/STM32F4xx_StdPeriph_Driver/src/stm32f4xx_cryp.c **** 
 605:/home/rdu/Workspace/project_templates/mcu/stm32_ws/src/libraries/STM32F4xx_StdPeriph_Driver/src/stm32f4xx_cryp.c ****   /* Configure the processor with the saved configuration */
 606:/home/rdu/Workspace/project_templates/mcu/stm32_ws/src/libraries/STM32F4xx_StdPeriph_Driver/src/stm32f4xx_cryp.c ****   CRYP->CR = CRYP_ContextRestore->CR_CurrentConfig;
 924              		.loc 1 606 0
 925 0004 404A     		ldr	r2, .L45
 926 0006 019B     		ldr	r3, [sp, #4]
 927 0008 1B68     		ldr	r3, [r3]
 928 000a 1360     		str	r3, [r2]
 607:/home/rdu/Workspace/project_templates/mcu/stm32_ws/src/libraries/STM32F4xx_StdPeriph_Driver/src/stm32f4xx_cryp.c **** 
 608:/home/rdu/Workspace/project_templates/mcu/stm32_ws/src/libraries/STM32F4xx_StdPeriph_Driver/src/stm32f4xx_cryp.c ****   /* restore The key value */
 609:/home/rdu/Workspace/project_templates/mcu/stm32_ws/src/libraries/STM32F4xx_StdPeriph_Driver/src/stm32f4xx_cryp.c ****   CRYP->K0LR = CRYP_ContextRestore->CRYP_K0LR; 
 929              		.loc 1 609 0
 930 000c 3E4A     		ldr	r2, .L45
 931 000e 019B     		ldr	r3, [sp, #4]
 932 0010 5B69     		ldr	r3, [r3, #20]
 933 0012 1362     		str	r3, [r2, #32]
 610:/home/rdu/Workspace/project_templates/mcu/stm32_ws/src/libraries/STM32F4xx_StdPeriph_Driver/src/stm32f4xx_cryp.c ****   CRYP->K0RR = CRYP_ContextRestore->CRYP_K0RR;
 934              		.loc 1 610 0
 935 0014 3C4A     		ldr	r2, .L45
 936 0016 019B     		ldr	r3, [sp, #4]
 937 0018 9B69     		ldr	r3, [r3, #24]
 938 001a 5362     		str	r3, [r2, #36]
 611:/home/rdu/Workspace/project_templates/mcu/stm32_ws/src/libraries/STM32F4xx_StdPeriph_Driver/src/stm32f4xx_cryp.c ****   CRYP->K1LR = CRYP_ContextRestore->CRYP_K1LR;
 939              		.loc 1 611 0
 940 001c 3A4A     		ldr	r2, .L45
 941 001e 019B     		ldr	r3, [sp, #4]
 942 0020 DB69     		ldr	r3, [r3, #28]
 943 0022 9362     		str	r3, [r2, #40]
 612:/home/rdu/Workspace/project_templates/mcu/stm32_ws/src/libraries/STM32F4xx_StdPeriph_Driver/src/stm32f4xx_cryp.c ****   CRYP->K1RR = CRYP_ContextRestore->CRYP_K1RR;
 944              		.loc 1 612 0
 945 0024 384A     		ldr	r2, .L45
 946 0026 019B     		ldr	r3, [sp, #4]
 947 0028 1B6A     		ldr	r3, [r3, #32]
 948 002a D362     		str	r3, [r2, #44]
 613:/home/rdu/Workspace/project_templates/mcu/stm32_ws/src/libraries/STM32F4xx_StdPeriph_Driver/src/stm32f4xx_cryp.c ****   CRYP->K2LR = CRYP_ContextRestore->CRYP_K2LR;
 949              		.loc 1 613 0
 950 002c 364A     		ldr	r2, .L45
 951 002e 019B     		ldr	r3, [sp, #4]
 952 0030 5B6A     		ldr	r3, [r3, #36]
 953 0032 1363     		str	r3, [r2, #48]
 614:/home/rdu/Workspace/project_templates/mcu/stm32_ws/src/libraries/STM32F4xx_StdPeriph_Driver/src/stm32f4xx_cryp.c ****   CRYP->K2RR = CRYP_ContextRestore->CRYP_K2RR;
 954              		.loc 1 614 0
 955 0034 344A     		ldr	r2, .L45
 956 0036 019B     		ldr	r3, [sp, #4]
 957 0038 9B6A     		ldr	r3, [r3, #40]
 958 003a 5363     		str	r3, [r2, #52]
 615:/home/rdu/Workspace/project_templates/mcu/stm32_ws/src/libraries/STM32F4xx_StdPeriph_Driver/src/stm32f4xx_cryp.c ****   CRYP->K3LR = CRYP_ContextRestore->CRYP_K3LR;
 959              		.loc 1 615 0
 960 003c 324A     		ldr	r2, .L45
 961 003e 019B     		ldr	r3, [sp, #4]
 962 0040 DB6A     		ldr	r3, [r3, #44]
 963 0042 9363     		str	r3, [r2, #56]
 616:/home/rdu/Workspace/project_templates/mcu/stm32_ws/src/libraries/STM32F4xx_StdPeriph_Driver/src/stm32f4xx_cryp.c ****   CRYP->K3RR = CRYP_ContextRestore->CRYP_K3RR;
 964              		.loc 1 616 0
 965 0044 304A     		ldr	r2, .L45
 966 0046 019B     		ldr	r3, [sp, #4]
 967 0048 1B6B     		ldr	r3, [r3, #48]
 968 004a D363     		str	r3, [r2, #60]
 617:/home/rdu/Workspace/project_templates/mcu/stm32_ws/src/libraries/STM32F4xx_StdPeriph_Driver/src/stm32f4xx_cryp.c **** 
 618:/home/rdu/Workspace/project_templates/mcu/stm32_ws/src/libraries/STM32F4xx_StdPeriph_Driver/src/stm32f4xx_cryp.c ****   /* and the initialization vectors. */
 619:/home/rdu/Workspace/project_templates/mcu/stm32_ws/src/libraries/STM32F4xx_StdPeriph_Driver/src/stm32f4xx_cryp.c ****   CRYP->IV0LR = CRYP_ContextRestore->CRYP_IV0LR;
 969              		.loc 1 619 0
 970 004c 2E4A     		ldr	r2, .L45
 971 004e 019B     		ldr	r3, [sp, #4]
 972 0050 5B68     		ldr	r3, [r3, #4]
 973 0052 1364     		str	r3, [r2, #64]
 620:/home/rdu/Workspace/project_templates/mcu/stm32_ws/src/libraries/STM32F4xx_StdPeriph_Driver/src/stm32f4xx_cryp.c ****   CRYP->IV0RR = CRYP_ContextRestore->CRYP_IV0RR;
 974              		.loc 1 620 0
 975 0054 2C4A     		ldr	r2, .L45
 976 0056 019B     		ldr	r3, [sp, #4]
 977 0058 9B68     		ldr	r3, [r3, #8]
 978 005a 5364     		str	r3, [r2, #68]
 621:/home/rdu/Workspace/project_templates/mcu/stm32_ws/src/libraries/STM32F4xx_StdPeriph_Driver/src/stm32f4xx_cryp.c ****   CRYP->IV1LR = CRYP_ContextRestore->CRYP_IV1LR;
 979              		.loc 1 621 0
 980 005c 2A4A     		ldr	r2, .L45
 981 005e 019B     		ldr	r3, [sp, #4]
 982 0060 DB68     		ldr	r3, [r3, #12]
 983 0062 9364     		str	r3, [r2, #72]
 622:/home/rdu/Workspace/project_templates/mcu/stm32_ws/src/libraries/STM32F4xx_StdPeriph_Driver/src/stm32f4xx_cryp.c ****   CRYP->IV1RR = CRYP_ContextRestore->CRYP_IV1RR;
 984              		.loc 1 622 0
 985 0064 284A     		ldr	r2, .L45
 986 0066 019B     		ldr	r3, [sp, #4]
 987 0068 1B69     		ldr	r3, [r3, #16]
 988 006a D364     		str	r3, [r2, #76]
 623:/home/rdu/Workspace/project_templates/mcu/stm32_ws/src/libraries/STM32F4xx_StdPeriph_Driver/src/stm32f4xx_cryp.c **** 
 624:/home/rdu/Workspace/project_templates/mcu/stm32_ws/src/libraries/STM32F4xx_StdPeriph_Driver/src/stm32f4xx_cryp.c ****   /* Restore the content of context swap registers */
 625:/home/rdu/Workspace/project_templates/mcu/stm32_ws/src/libraries/STM32F4xx_StdPeriph_Driver/src/stm32f4xx_cryp.c ****   CRYP->CSGCMCCM0R = CRYP_ContextRestore->CRYP_CSGCMCCMR[0];
 989              		.loc 1 625 0
 990 006c 264A     		ldr	r2, .L45
 991 006e 019B     		ldr	r3, [sp, #4]
 992 0070 5B6B     		ldr	r3, [r3, #52]
 993 0072 1365     		str	r3, [r2, #80]
 626:/home/rdu/Workspace/project_templates/mcu/stm32_ws/src/libraries/STM32F4xx_StdPeriph_Driver/src/stm32f4xx_cryp.c ****   CRYP->CSGCMCCM1R = CRYP_ContextRestore->CRYP_CSGCMCCMR[1];
 994              		.loc 1 626 0
 995 0074 244A     		ldr	r2, .L45
 996 0076 019B     		ldr	r3, [sp, #4]
 997 0078 9B6B     		ldr	r3, [r3, #56]
 998 007a 5365     		str	r3, [r2, #84]
 627:/home/rdu/Workspace/project_templates/mcu/stm32_ws/src/libraries/STM32F4xx_StdPeriph_Driver/src/stm32f4xx_cryp.c ****   CRYP->CSGCMCCM2R = CRYP_ContextRestore->CRYP_CSGCMCCMR[2];
 999              		.loc 1 627 0
 1000 007c 224A     		ldr	r2, .L45
 1001 007e 019B     		ldr	r3, [sp, #4]
 1002 0080 DB6B     		ldr	r3, [r3, #60]
 1003 0082 9365     		str	r3, [r2, #88]
 628:/home/rdu/Workspace/project_templates/mcu/stm32_ws/src/libraries/STM32F4xx_StdPeriph_Driver/src/stm32f4xx_cryp.c ****   CRYP->CSGCMCCM3R = CRYP_ContextRestore->CRYP_CSGCMCCMR[3];
 1004              		.loc 1 628 0
 1005 0084 204A     		ldr	r2, .L45
 1006 0086 019B     		ldr	r3, [sp, #4]
 1007 0088 1B6C     		ldr	r3, [r3, #64]
 1008 008a D365     		str	r3, [r2, #92]
 629:/home/rdu/Workspace/project_templates/mcu/stm32_ws/src/libraries/STM32F4xx_StdPeriph_Driver/src/stm32f4xx_cryp.c ****   CRYP->CSGCMCCM4R = CRYP_ContextRestore->CRYP_CSGCMCCMR[4];
 1009              		.loc 1 629 0
 1010 008c 1E4A     		ldr	r2, .L45
 1011 008e 019B     		ldr	r3, [sp, #4]
 1012 0090 5B6C     		ldr	r3, [r3, #68]
 1013 0092 1366     		str	r3, [r2, #96]
 630:/home/rdu/Workspace/project_templates/mcu/stm32_ws/src/libraries/STM32F4xx_StdPeriph_Driver/src/stm32f4xx_cryp.c ****   CRYP->CSGCMCCM5R = CRYP_ContextRestore->CRYP_CSGCMCCMR[5];
 1014              		.loc 1 630 0
 1015 0094 1C4A     		ldr	r2, .L45
 1016 0096 019B     		ldr	r3, [sp, #4]
 1017 0098 9B6C     		ldr	r3, [r3, #72]
 1018 009a 5366     		str	r3, [r2, #100]
 631:/home/rdu/Workspace/project_templates/mcu/stm32_ws/src/libraries/STM32F4xx_StdPeriph_Driver/src/stm32f4xx_cryp.c ****   CRYP->CSGCMCCM6R = CRYP_ContextRestore->CRYP_CSGCMCCMR[6];
 1019              		.loc 1 631 0
 1020 009c 1A4A     		ldr	r2, .L45
 1021 009e 019B     		ldr	r3, [sp, #4]
 1022 00a0 DB6C     		ldr	r3, [r3, #76]
 1023 00a2 9366     		str	r3, [r2, #104]
 632:/home/rdu/Workspace/project_templates/mcu/stm32_ws/src/libraries/STM32F4xx_StdPeriph_Driver/src/stm32f4xx_cryp.c ****   CRYP->CSGCMCCM7R = CRYP_ContextRestore->CRYP_CSGCMCCMR[7];
 1024              		.loc 1 632 0
 1025 00a4 184A     		ldr	r2, .L45
 1026 00a6 019B     		ldr	r3, [sp, #4]
 1027 00a8 1B6D     		ldr	r3, [r3, #80]
 1028 00aa D366     		str	r3, [r2, #108]
 633:/home/rdu/Workspace/project_templates/mcu/stm32_ws/src/libraries/STM32F4xx_StdPeriph_Driver/src/stm32f4xx_cryp.c ****   
 634:/home/rdu/Workspace/project_templates/mcu/stm32_ws/src/libraries/STM32F4xx_StdPeriph_Driver/src/stm32f4xx_cryp.c ****   CRYP->CSGCM0R = CRYP_ContextRestore->CRYP_CSGCMR[0];
 1029              		.loc 1 634 0
 1030 00ac 164A     		ldr	r2, .L45
 1031 00ae 019B     		ldr	r3, [sp, #4]
 1032 00b0 5B6D     		ldr	r3, [r3, #84]
 1033 00b2 1367     		str	r3, [r2, #112]
 635:/home/rdu/Workspace/project_templates/mcu/stm32_ws/src/libraries/STM32F4xx_StdPeriph_Driver/src/stm32f4xx_cryp.c ****   CRYP->CSGCM1R = CRYP_ContextRestore->CRYP_CSGCMR[1];
 1034              		.loc 1 635 0
 1035 00b4 144A     		ldr	r2, .L45
 1036 00b6 019B     		ldr	r3, [sp, #4]
 1037 00b8 9B6D     		ldr	r3, [r3, #88]
 1038 00ba 5367     		str	r3, [r2, #116]
 636:/home/rdu/Workspace/project_templates/mcu/stm32_ws/src/libraries/STM32F4xx_StdPeriph_Driver/src/stm32f4xx_cryp.c ****   CRYP->CSGCM2R = CRYP_ContextRestore->CRYP_CSGCMR[2];
 1039              		.loc 1 636 0
 1040 00bc 124A     		ldr	r2, .L45
 1041 00be 019B     		ldr	r3, [sp, #4]
 1042 00c0 DB6D     		ldr	r3, [r3, #92]
 1043 00c2 9367     		str	r3, [r2, #120]
 637:/home/rdu/Workspace/project_templates/mcu/stm32_ws/src/libraries/STM32F4xx_StdPeriph_Driver/src/stm32f4xx_cryp.c ****   CRYP->CSGCM3R = CRYP_ContextRestore->CRYP_CSGCMR[3];
 1044              		.loc 1 637 0
 1045 00c4 104A     		ldr	r2, .L45
 1046 00c6 019B     		ldr	r3, [sp, #4]
 1047 00c8 1B6E     		ldr	r3, [r3, #96]
 1048 00ca D367     		str	r3, [r2, #124]
 638:/home/rdu/Workspace/project_templates/mcu/stm32_ws/src/libraries/STM32F4xx_StdPeriph_Driver/src/stm32f4xx_cryp.c ****   CRYP->CSGCM4R = CRYP_ContextRestore->CRYP_CSGCMR[4];
 1049              		.loc 1 638 0
 1050 00cc 0E4A     		ldr	r2, .L45
 1051 00ce 019B     		ldr	r3, [sp, #4]
 1052 00d0 5B6E     		ldr	r3, [r3, #100]
 1053 00d2 C2F88030 		str	r3, [r2, #128]
 639:/home/rdu/Workspace/project_templates/mcu/stm32_ws/src/libraries/STM32F4xx_StdPeriph_Driver/src/stm32f4xx_cryp.c ****   CRYP->CSGCM5R = CRYP_ContextRestore->CRYP_CSGCMR[5];
 1054              		.loc 1 639 0
 1055 00d6 0C4A     		ldr	r2, .L45
 1056 00d8 019B     		ldr	r3, [sp, #4]
 1057 00da 9B6E     		ldr	r3, [r3, #104]
 1058 00dc C2F88430 		str	r3, [r2, #132]
 640:/home/rdu/Workspace/project_templates/mcu/stm32_ws/src/libraries/STM32F4xx_StdPeriph_Driver/src/stm32f4xx_cryp.c ****   CRYP->CSGCM6R = CRYP_ContextRestore->CRYP_CSGCMR[6];
 1059              		.loc 1 640 0
 1060 00e0 094A     		ldr	r2, .L45
 1061 00e2 019B     		ldr	r3, [sp, #4]
 1062 00e4 DB6E     		ldr	r3, [r3, #108]
 1063 00e6 C2F88830 		str	r3, [r2, #136]
 641:/home/rdu/Workspace/project_templates/mcu/stm32_ws/src/libraries/STM32F4xx_StdPeriph_Driver/src/stm32f4xx_cryp.c ****   CRYP->CSGCM7R = CRYP_ContextRestore->CRYP_CSGCMR[7];
 1064              		.loc 1 641 0
 1065 00ea 074A     		ldr	r2, .L45
 1066 00ec 019B     		ldr	r3, [sp, #4]
 1067 00ee 1B6F     		ldr	r3, [r3, #112]
 1068 00f0 C2F88C30 		str	r3, [r2, #140]
 642:/home/rdu/Workspace/project_templates/mcu/stm32_ws/src/libraries/STM32F4xx_StdPeriph_Driver/src/stm32f4xx_cryp.c ****   
 643:/home/rdu/Workspace/project_templates/mcu/stm32_ws/src/libraries/STM32F4xx_StdPeriph_Driver/src/stm32f4xx_cryp.c ****   /* Enable the cryptographic processor */
 644:/home/rdu/Workspace/project_templates/mcu/stm32_ws/src/libraries/STM32F4xx_StdPeriph_Driver/src/stm32f4xx_cryp.c ****   CRYP->CR |= CRYP_CR_CRYPEN;
 1069              		.loc 1 644 0
 1070 00f4 044B     		ldr	r3, .L45
 1071 00f6 1B68     		ldr	r3, [r3]
 1072 00f8 034A     		ldr	r2, .L45
 1073 00fa 43F40043 		orr	r3, r3, #32768
 1074 00fe 1360     		str	r3, [r2]
 645:/home/rdu/Workspace/project_templates/mcu/stm32_ws/src/libraries/STM32F4xx_StdPeriph_Driver/src/stm32f4xx_cryp.c **** }
 1075              		.loc 1 645 0
 1076 0100 00BF     		nop
 1077 0102 02B0     		add	sp, sp, #8
 1078              	.LCFI22:
 1079              		.cfi_def_cfa_offset 0
 1080              		@ sp needed
 1081 0104 7047     		bx	lr
 1082              	.L46:
 1083 0106 00BF     		.align	2
 1084              	.L45:
 1085 0108 00000650 		.word	1342570496
 1086              		.cfi_endproc
 1087              	.LFE136:
 1089              		.section	.text.CRYP_DMACmd,"ax",%progbits
 1090              		.align	1
 1091              		.global	CRYP_DMACmd
 1092              		.syntax unified
 1093              		.thumb
 1094              		.thumb_func
 1095              		.fpu fpv4-sp-d16
 1097              	CRYP_DMACmd:
 1098              	.LFB137:
 646:/home/rdu/Workspace/project_templates/mcu/stm32_ws/src/libraries/STM32F4xx_StdPeriph_Driver/src/stm32f4xx_cryp.c **** /**
 647:/home/rdu/Workspace/project_templates/mcu/stm32_ws/src/libraries/STM32F4xx_StdPeriph_Driver/src/stm32f4xx_cryp.c ****   * @}
 648:/home/rdu/Workspace/project_templates/mcu/stm32_ws/src/libraries/STM32F4xx_StdPeriph_Driver/src/stm32f4xx_cryp.c ****   */
 649:/home/rdu/Workspace/project_templates/mcu/stm32_ws/src/libraries/STM32F4xx_StdPeriph_Driver/src/stm32f4xx_cryp.c **** 
 650:/home/rdu/Workspace/project_templates/mcu/stm32_ws/src/libraries/STM32F4xx_StdPeriph_Driver/src/stm32f4xx_cryp.c **** /** @defgroup CRYP_Group4 CRYP's DMA interface Configuration function
 651:/home/rdu/Workspace/project_templates/mcu/stm32_ws/src/libraries/STM32F4xx_StdPeriph_Driver/src/stm32f4xx_cryp.c ****  *  @brief   CRYP's DMA interface Configuration function 
 652:/home/rdu/Workspace/project_templates/mcu/stm32_ws/src/libraries/STM32F4xx_StdPeriph_Driver/src/stm32f4xx_cryp.c ****  *
 653:/home/rdu/Workspace/project_templates/mcu/stm32_ws/src/libraries/STM32F4xx_StdPeriph_Driver/src/stm32f4xx_cryp.c **** @verbatim   
 654:/home/rdu/Workspace/project_templates/mcu/stm32_ws/src/libraries/STM32F4xx_StdPeriph_Driver/src/stm32f4xx_cryp.c ****  ===============================================================================
 655:/home/rdu/Workspace/project_templates/mcu/stm32_ws/src/libraries/STM32F4xx_StdPeriph_Driver/src/stm32f4xx_cryp.c ****              ##### CRYP's DMA interface Configuration function #####
 656:/home/rdu/Workspace/project_templates/mcu/stm32_ws/src/libraries/STM32F4xx_StdPeriph_Driver/src/stm32f4xx_cryp.c ****  ===============================================================================  
 657:/home/rdu/Workspace/project_templates/mcu/stm32_ws/src/libraries/STM32F4xx_StdPeriph_Driver/src/stm32f4xx_cryp.c ****  [..] This section provides functions allowing to configure the DMA interface for 
 658:/home/rdu/Workspace/project_templates/mcu/stm32_ws/src/libraries/STM32F4xx_StdPeriph_Driver/src/stm32f4xx_cryp.c ****       CRYP data input and output transfer.
 659:/home/rdu/Workspace/project_templates/mcu/stm32_ws/src/libraries/STM32F4xx_StdPeriph_Driver/src/stm32f4xx_cryp.c ****    
 660:/home/rdu/Workspace/project_templates/mcu/stm32_ws/src/libraries/STM32F4xx_StdPeriph_Driver/src/stm32f4xx_cryp.c ****  [..] When the DMA mode is enabled (using the CRYP_DMACmd() function), data can be 
 661:/home/rdu/Workspace/project_templates/mcu/stm32_ws/src/libraries/STM32F4xx_StdPeriph_Driver/src/stm32f4xx_cryp.c ****       transferred:
 662:/home/rdu/Workspace/project_templates/mcu/stm32_ws/src/libraries/STM32F4xx_StdPeriph_Driver/src/stm32f4xx_cryp.c ****    (+) From memory to the CRYP IN FIFO using the DMA peripheral by enabling 
 663:/home/rdu/Workspace/project_templates/mcu/stm32_ws/src/libraries/STM32F4xx_StdPeriph_Driver/src/stm32f4xx_cryp.c ****        the CRYP_DMAReq_DataIN request.
 664:/home/rdu/Workspace/project_templates/mcu/stm32_ws/src/libraries/STM32F4xx_StdPeriph_Driver/src/stm32f4xx_cryp.c ****    (+) From the CRYP OUT FIFO to the memory using the DMA peripheral by enabling 
 665:/home/rdu/Workspace/project_templates/mcu/stm32_ws/src/libraries/STM32F4xx_StdPeriph_Driver/src/stm32f4xx_cryp.c ****        the CRYP_DMAReq_DataOUT request.
 666:/home/rdu/Workspace/project_templates/mcu/stm32_ws/src/libraries/STM32F4xx_StdPeriph_Driver/src/stm32f4xx_cryp.c **** 
 667:/home/rdu/Workspace/project_templates/mcu/stm32_ws/src/libraries/STM32F4xx_StdPeriph_Driver/src/stm32f4xx_cryp.c **** @endverbatim
 668:/home/rdu/Workspace/project_templates/mcu/stm32_ws/src/libraries/STM32F4xx_StdPeriph_Driver/src/stm32f4xx_cryp.c ****   * @{
 669:/home/rdu/Workspace/project_templates/mcu/stm32_ws/src/libraries/STM32F4xx_StdPeriph_Driver/src/stm32f4xx_cryp.c ****   */
 670:/home/rdu/Workspace/project_templates/mcu/stm32_ws/src/libraries/STM32F4xx_StdPeriph_Driver/src/stm32f4xx_cryp.c **** 
 671:/home/rdu/Workspace/project_templates/mcu/stm32_ws/src/libraries/STM32F4xx_StdPeriph_Driver/src/stm32f4xx_cryp.c **** /**
 672:/home/rdu/Workspace/project_templates/mcu/stm32_ws/src/libraries/STM32F4xx_StdPeriph_Driver/src/stm32f4xx_cryp.c ****   * @brief  Enables or disables the CRYP DMA interface.
 673:/home/rdu/Workspace/project_templates/mcu/stm32_ws/src/libraries/STM32F4xx_StdPeriph_Driver/src/stm32f4xx_cryp.c ****   * @param  CRYP_DMAReq: specifies the CRYP DMA transfer request to be enabled or disabled.
 674:/home/rdu/Workspace/project_templates/mcu/stm32_ws/src/libraries/STM32F4xx_StdPeriph_Driver/src/stm32f4xx_cryp.c ****   *           This parameter can be any combination of the following values:
 675:/home/rdu/Workspace/project_templates/mcu/stm32_ws/src/libraries/STM32F4xx_StdPeriph_Driver/src/stm32f4xx_cryp.c ****   *            @arg CRYP_DMAReq_DataOUT: DMA for outgoing(Tx) data transfer
 676:/home/rdu/Workspace/project_templates/mcu/stm32_ws/src/libraries/STM32F4xx_StdPeriph_Driver/src/stm32f4xx_cryp.c ****   *            @arg CRYP_DMAReq_DataIN: DMA for incoming(Rx) data transfer
 677:/home/rdu/Workspace/project_templates/mcu/stm32_ws/src/libraries/STM32F4xx_StdPeriph_Driver/src/stm32f4xx_cryp.c ****   * @param  NewState: new state of the selected CRYP DMA transfer request.
 678:/home/rdu/Workspace/project_templates/mcu/stm32_ws/src/libraries/STM32F4xx_StdPeriph_Driver/src/stm32f4xx_cryp.c ****   *          This parameter can be: ENABLE or DISABLE.
 679:/home/rdu/Workspace/project_templates/mcu/stm32_ws/src/libraries/STM32F4xx_StdPeriph_Driver/src/stm32f4xx_cryp.c ****   * @retval None
 680:/home/rdu/Workspace/project_templates/mcu/stm32_ws/src/libraries/STM32F4xx_StdPeriph_Driver/src/stm32f4xx_cryp.c ****   */
 681:/home/rdu/Workspace/project_templates/mcu/stm32_ws/src/libraries/STM32F4xx_StdPeriph_Driver/src/stm32f4xx_cryp.c **** void CRYP_DMACmd(uint8_t CRYP_DMAReq, FunctionalState NewState)
 682:/home/rdu/Workspace/project_templates/mcu/stm32_ws/src/libraries/STM32F4xx_StdPeriph_Driver/src/stm32f4xx_cryp.c **** {
 1099              		.loc 1 682 0
 1100              		.cfi_startproc
 1101              		@ args = 0, pretend = 0, frame = 8
 1102              		@ frame_needed = 0, uses_anonymous_args = 0
 1103              		@ link register save eliminated.
 1104 0000 82B0     		sub	sp, sp, #8
 1105              	.LCFI23:
 1106              		.cfi_def_cfa_offset 8
 1107 0002 0346     		mov	r3, r0
 1108 0004 0A46     		mov	r2, r1
 1109 0006 8DF80730 		strb	r3, [sp, #7]
 1110 000a 1346     		mov	r3, r2
 1111 000c 8DF80630 		strb	r3, [sp, #6]
 683:/home/rdu/Workspace/project_templates/mcu/stm32_ws/src/libraries/STM32F4xx_StdPeriph_Driver/src/stm32f4xx_cryp.c ****   /* Check the parameters */
 684:/home/rdu/Workspace/project_templates/mcu/stm32_ws/src/libraries/STM32F4xx_StdPeriph_Driver/src/stm32f4xx_cryp.c ****   assert_param(IS_CRYP_DMAREQ(CRYP_DMAReq));
 685:/home/rdu/Workspace/project_templates/mcu/stm32_ws/src/libraries/STM32F4xx_StdPeriph_Driver/src/stm32f4xx_cryp.c ****   assert_param(IS_FUNCTIONAL_STATE(NewState));
 686:/home/rdu/Workspace/project_templates/mcu/stm32_ws/src/libraries/STM32F4xx_StdPeriph_Driver/src/stm32f4xx_cryp.c **** 
 687:/home/rdu/Workspace/project_templates/mcu/stm32_ws/src/libraries/STM32F4xx_StdPeriph_Driver/src/stm32f4xx_cryp.c ****   if (NewState != DISABLE)
 1112              		.loc 1 687 0
 1113 0010 9DF80630 		ldrb	r3, [sp, #6]	@ zero_extendqisi2
 1114 0014 002B     		cmp	r3, #0
 1115 0016 07D0     		beq	.L48
 688:/home/rdu/Workspace/project_templates/mcu/stm32_ws/src/libraries/STM32F4xx_StdPeriph_Driver/src/stm32f4xx_cryp.c ****   {
 689:/home/rdu/Workspace/project_templates/mcu/stm32_ws/src/libraries/STM32F4xx_StdPeriph_Driver/src/stm32f4xx_cryp.c ****     /* Enable the selected CRYP DMA request */
 690:/home/rdu/Workspace/project_templates/mcu/stm32_ws/src/libraries/STM32F4xx_StdPeriph_Driver/src/stm32f4xx_cryp.c ****     CRYP->DMACR |= CRYP_DMAReq;
 1116              		.loc 1 690 0
 1117 0018 0A4B     		ldr	r3, .L51
 1118 001a 1A69     		ldr	r2, [r3, #16]
 1119 001c 9DF80730 		ldrb	r3, [sp, #7]	@ zero_extendqisi2
 1120 0020 0849     		ldr	r1, .L51
 1121 0022 1343     		orrs	r3, r3, r2
 1122 0024 0B61     		str	r3, [r1, #16]
 691:/home/rdu/Workspace/project_templates/mcu/stm32_ws/src/libraries/STM32F4xx_StdPeriph_Driver/src/stm32f4xx_cryp.c ****   }
 692:/home/rdu/Workspace/project_templates/mcu/stm32_ws/src/libraries/STM32F4xx_StdPeriph_Driver/src/stm32f4xx_cryp.c ****   else
 693:/home/rdu/Workspace/project_templates/mcu/stm32_ws/src/libraries/STM32F4xx_StdPeriph_Driver/src/stm32f4xx_cryp.c ****   {
 694:/home/rdu/Workspace/project_templates/mcu/stm32_ws/src/libraries/STM32F4xx_StdPeriph_Driver/src/stm32f4xx_cryp.c ****     /* Disable the selected CRYP DMA request */
 695:/home/rdu/Workspace/project_templates/mcu/stm32_ws/src/libraries/STM32F4xx_StdPeriph_Driver/src/stm32f4xx_cryp.c ****     CRYP->DMACR &= (uint8_t)~CRYP_DMAReq;
 696:/home/rdu/Workspace/project_templates/mcu/stm32_ws/src/libraries/STM32F4xx_StdPeriph_Driver/src/stm32f4xx_cryp.c ****   }
 697:/home/rdu/Workspace/project_templates/mcu/stm32_ws/src/libraries/STM32F4xx_StdPeriph_Driver/src/stm32f4xx_cryp.c **** }
 1123              		.loc 1 697 0
 1124 0026 09E0     		b	.L50
 1125              	.L48:
 695:/home/rdu/Workspace/project_templates/mcu/stm32_ws/src/libraries/STM32F4xx_StdPeriph_Driver/src/stm32f4xx_cryp.c ****   }
 1126              		.loc 1 695 0
 1127 0028 064B     		ldr	r3, .L51
 1128 002a 1B69     		ldr	r3, [r3, #16]
 1129 002c 9DF80720 		ldrb	r2, [sp, #7]
 1130 0030 D243     		mvns	r2, r2
 1131 0032 D2B2     		uxtb	r2, r2
 1132 0034 1146     		mov	r1, r2
 1133 0036 034A     		ldr	r2, .L51
 1134 0038 0B40     		ands	r3, r3, r1
 1135 003a 1361     		str	r3, [r2, #16]
 1136              	.L50:
 1137              		.loc 1 697 0
 1138 003c 00BF     		nop
 1139 003e 02B0     		add	sp, sp, #8
 1140              	.LCFI24:
 1141              		.cfi_def_cfa_offset 0
 1142              		@ sp needed
 1143 0040 7047     		bx	lr
 1144              	.L52:
 1145 0042 00BF     		.align	2
 1146              	.L51:
 1147 0044 00000650 		.word	1342570496
 1148              		.cfi_endproc
 1149              	.LFE137:
 1151              		.section	.text.CRYP_ITConfig,"ax",%progbits
 1152              		.align	1
 1153              		.global	CRYP_ITConfig
 1154              		.syntax unified
 1155              		.thumb
 1156              		.thumb_func
 1157              		.fpu fpv4-sp-d16
 1159              	CRYP_ITConfig:
 1160              	.LFB138:
 698:/home/rdu/Workspace/project_templates/mcu/stm32_ws/src/libraries/STM32F4xx_StdPeriph_Driver/src/stm32f4xx_cryp.c **** /**
 699:/home/rdu/Workspace/project_templates/mcu/stm32_ws/src/libraries/STM32F4xx_StdPeriph_Driver/src/stm32f4xx_cryp.c ****   * @}
 700:/home/rdu/Workspace/project_templates/mcu/stm32_ws/src/libraries/STM32F4xx_StdPeriph_Driver/src/stm32f4xx_cryp.c ****   */
 701:/home/rdu/Workspace/project_templates/mcu/stm32_ws/src/libraries/STM32F4xx_StdPeriph_Driver/src/stm32f4xx_cryp.c **** 
 702:/home/rdu/Workspace/project_templates/mcu/stm32_ws/src/libraries/STM32F4xx_StdPeriph_Driver/src/stm32f4xx_cryp.c **** /** @defgroup CRYP_Group5 Interrupts and flags management functions
 703:/home/rdu/Workspace/project_templates/mcu/stm32_ws/src/libraries/STM32F4xx_StdPeriph_Driver/src/stm32f4xx_cryp.c ****  *  @brief   Interrupts and flags management functions
 704:/home/rdu/Workspace/project_templates/mcu/stm32_ws/src/libraries/STM32F4xx_StdPeriph_Driver/src/stm32f4xx_cryp.c ****  *
 705:/home/rdu/Workspace/project_templates/mcu/stm32_ws/src/libraries/STM32F4xx_StdPeriph_Driver/src/stm32f4xx_cryp.c **** @verbatim   
 706:/home/rdu/Workspace/project_templates/mcu/stm32_ws/src/libraries/STM32F4xx_StdPeriph_Driver/src/stm32f4xx_cryp.c ****  ===============================================================================
 707:/home/rdu/Workspace/project_templates/mcu/stm32_ws/src/libraries/STM32F4xx_StdPeriph_Driver/src/stm32f4xx_cryp.c ****               ##### Interrupts and flags management functions #####
 708:/home/rdu/Workspace/project_templates/mcu/stm32_ws/src/libraries/STM32F4xx_StdPeriph_Driver/src/stm32f4xx_cryp.c ****  ===============================================================================  
 709:/home/rdu/Workspace/project_templates/mcu/stm32_ws/src/libraries/STM32F4xx_StdPeriph_Driver/src/stm32f4xx_cryp.c ****  
 710:/home/rdu/Workspace/project_templates/mcu/stm32_ws/src/libraries/STM32F4xx_StdPeriph_Driver/src/stm32f4xx_cryp.c ****  [..] This section provides functions allowing to configure the CRYP Interrupts and 
 711:/home/rdu/Workspace/project_templates/mcu/stm32_ws/src/libraries/STM32F4xx_StdPeriph_Driver/src/stm32f4xx_cryp.c ****       to get the status and Interrupts pending bits.
 712:/home/rdu/Workspace/project_templates/mcu/stm32_ws/src/libraries/STM32F4xx_StdPeriph_Driver/src/stm32f4xx_cryp.c **** 
 713:/home/rdu/Workspace/project_templates/mcu/stm32_ws/src/libraries/STM32F4xx_StdPeriph_Driver/src/stm32f4xx_cryp.c ****  [..] The CRYP provides 2 Interrupts sources and 7 Flags:
 714:/home/rdu/Workspace/project_templates/mcu/stm32_ws/src/libraries/STM32F4xx_StdPeriph_Driver/src/stm32f4xx_cryp.c **** 
 715:/home/rdu/Workspace/project_templates/mcu/stm32_ws/src/libraries/STM32F4xx_StdPeriph_Driver/src/stm32f4xx_cryp.c ****  *** Flags : ***
 716:/home/rdu/Workspace/project_templates/mcu/stm32_ws/src/libraries/STM32F4xx_StdPeriph_Driver/src/stm32f4xx_cryp.c ****  ===============
 717:/home/rdu/Workspace/project_templates/mcu/stm32_ws/src/libraries/STM32F4xx_StdPeriph_Driver/src/stm32f4xx_cryp.c ****  [..] 
 718:/home/rdu/Workspace/project_templates/mcu/stm32_ws/src/libraries/STM32F4xx_StdPeriph_Driver/src/stm32f4xx_cryp.c ****    (#) CRYP_FLAG_IFEM :  Set when Input FIFO is empty. This Flag is cleared only
 719:/home/rdu/Workspace/project_templates/mcu/stm32_ws/src/libraries/STM32F4xx_StdPeriph_Driver/src/stm32f4xx_cryp.c ****        by hardware.
 720:/home/rdu/Workspace/project_templates/mcu/stm32_ws/src/libraries/STM32F4xx_StdPeriph_Driver/src/stm32f4xx_cryp.c ****       
 721:/home/rdu/Workspace/project_templates/mcu/stm32_ws/src/libraries/STM32F4xx_StdPeriph_Driver/src/stm32f4xx_cryp.c ****    (#) CRYP_FLAG_IFNF :  Set when Input FIFO is not full. This Flag is cleared 
 722:/home/rdu/Workspace/project_templates/mcu/stm32_ws/src/libraries/STM32F4xx_StdPeriph_Driver/src/stm32f4xx_cryp.c ****        only by hardware.
 723:/home/rdu/Workspace/project_templates/mcu/stm32_ws/src/libraries/STM32F4xx_StdPeriph_Driver/src/stm32f4xx_cryp.c **** 
 724:/home/rdu/Workspace/project_templates/mcu/stm32_ws/src/libraries/STM32F4xx_StdPeriph_Driver/src/stm32f4xx_cryp.c **** 
 725:/home/rdu/Workspace/project_templates/mcu/stm32_ws/src/libraries/STM32F4xx_StdPeriph_Driver/src/stm32f4xx_cryp.c ****    (#) CRYP_FLAG_INRIS  : Set when Input FIFO Raw interrupt is pending it gives 
 726:/home/rdu/Workspace/project_templates/mcu/stm32_ws/src/libraries/STM32F4xx_StdPeriph_Driver/src/stm32f4xx_cryp.c ****        the raw interrupt state prior to masking of the input FIFO service interrupt.
 727:/home/rdu/Workspace/project_templates/mcu/stm32_ws/src/libraries/STM32F4xx_StdPeriph_Driver/src/stm32f4xx_cryp.c ****        This Flag is cleared only by hardware.
 728:/home/rdu/Workspace/project_templates/mcu/stm32_ws/src/libraries/STM32F4xx_StdPeriph_Driver/src/stm32f4xx_cryp.c ****      
 729:/home/rdu/Workspace/project_templates/mcu/stm32_ws/src/libraries/STM32F4xx_StdPeriph_Driver/src/stm32f4xx_cryp.c ****    (#) CRYP_FLAG_OFNE   : Set when Output FIFO not empty. This Flag is cleared 
 730:/home/rdu/Workspace/project_templates/mcu/stm32_ws/src/libraries/STM32F4xx_StdPeriph_Driver/src/stm32f4xx_cryp.c ****        only by hardware.
 731:/home/rdu/Workspace/project_templates/mcu/stm32_ws/src/libraries/STM32F4xx_StdPeriph_Driver/src/stm32f4xx_cryp.c ****         
 732:/home/rdu/Workspace/project_templates/mcu/stm32_ws/src/libraries/STM32F4xx_StdPeriph_Driver/src/stm32f4xx_cryp.c ****    (#) CRYP_FLAG_OFFU   : Set when Output FIFO is full. This Flag is cleared only 
 733:/home/rdu/Workspace/project_templates/mcu/stm32_ws/src/libraries/STM32F4xx_StdPeriph_Driver/src/stm32f4xx_cryp.c ****        by hardware.
 734:/home/rdu/Workspace/project_templates/mcu/stm32_ws/src/libraries/STM32F4xx_StdPeriph_Driver/src/stm32f4xx_cryp.c ****                            
 735:/home/rdu/Workspace/project_templates/mcu/stm32_ws/src/libraries/STM32F4xx_StdPeriph_Driver/src/stm32f4xx_cryp.c ****    (#) CRYP_FLAG_OUTRIS : Set when Output FIFO Raw interrupt is pending it gives 
 736:/home/rdu/Workspace/project_templates/mcu/stm32_ws/src/libraries/STM32F4xx_StdPeriph_Driver/src/stm32f4xx_cryp.c ****        the raw interrupt state prior to masking of the output FIFO service interrupt.
 737:/home/rdu/Workspace/project_templates/mcu/stm32_ws/src/libraries/STM32F4xx_StdPeriph_Driver/src/stm32f4xx_cryp.c ****        This Flag is cleared only by hardware.
 738:/home/rdu/Workspace/project_templates/mcu/stm32_ws/src/libraries/STM32F4xx_StdPeriph_Driver/src/stm32f4xx_cryp.c ****                                
 739:/home/rdu/Workspace/project_templates/mcu/stm32_ws/src/libraries/STM32F4xx_StdPeriph_Driver/src/stm32f4xx_cryp.c ****    (#) CRYP_FLAG_BUSY   : Set when the CRYP core is currently processing a block 
 740:/home/rdu/Workspace/project_templates/mcu/stm32_ws/src/libraries/STM32F4xx_StdPeriph_Driver/src/stm32f4xx_cryp.c ****        of data or a key preparation (for AES decryption). This Flag is cleared 
 741:/home/rdu/Workspace/project_templates/mcu/stm32_ws/src/libraries/STM32F4xx_StdPeriph_Driver/src/stm32f4xx_cryp.c ****        only by hardware. To clear it, the CRYP core must be disabled and the last
 742:/home/rdu/Workspace/project_templates/mcu/stm32_ws/src/libraries/STM32F4xx_StdPeriph_Driver/src/stm32f4xx_cryp.c ****        processing has completed. 
 743:/home/rdu/Workspace/project_templates/mcu/stm32_ws/src/libraries/STM32F4xx_StdPeriph_Driver/src/stm32f4xx_cryp.c **** 
 744:/home/rdu/Workspace/project_templates/mcu/stm32_ws/src/libraries/STM32F4xx_StdPeriph_Driver/src/stm32f4xx_cryp.c ****  *** Interrupts : ***
 745:/home/rdu/Workspace/project_templates/mcu/stm32_ws/src/libraries/STM32F4xx_StdPeriph_Driver/src/stm32f4xx_cryp.c ****  ====================
 746:/home/rdu/Workspace/project_templates/mcu/stm32_ws/src/libraries/STM32F4xx_StdPeriph_Driver/src/stm32f4xx_cryp.c ****  [..]
 747:/home/rdu/Workspace/project_templates/mcu/stm32_ws/src/libraries/STM32F4xx_StdPeriph_Driver/src/stm32f4xx_cryp.c ****    (#) CRYP_IT_INI   : The input FIFO service interrupt is asserted when there 
 748:/home/rdu/Workspace/project_templates/mcu/stm32_ws/src/libraries/STM32F4xx_StdPeriph_Driver/src/stm32f4xx_cryp.c ****       are less than 4 words in the input FIFO. This interrupt is associated to 
 749:/home/rdu/Workspace/project_templates/mcu/stm32_ws/src/libraries/STM32F4xx_StdPeriph_Driver/src/stm32f4xx_cryp.c ****       CRYP_FLAG_INRIS flag.
 750:/home/rdu/Workspace/project_templates/mcu/stm32_ws/src/libraries/STM32F4xx_StdPeriph_Driver/src/stm32f4xx_cryp.c **** 
 751:/home/rdu/Workspace/project_templates/mcu/stm32_ws/src/libraries/STM32F4xx_StdPeriph_Driver/src/stm32f4xx_cryp.c ****       -@- This interrupt is cleared by performing write operations to the input FIFO 
 752:/home/rdu/Workspace/project_templates/mcu/stm32_ws/src/libraries/STM32F4xx_StdPeriph_Driver/src/stm32f4xx_cryp.c ****           until it holds 4 or more words. The input FIFO service interrupt INMIS is 
 753:/home/rdu/Workspace/project_templates/mcu/stm32_ws/src/libraries/STM32F4xx_StdPeriph_Driver/src/stm32f4xx_cryp.c ****           enabled with the CRYP enable bit. Consequently, when CRYP is disabled, the 
 754:/home/rdu/Workspace/project_templates/mcu/stm32_ws/src/libraries/STM32F4xx_StdPeriph_Driver/src/stm32f4xx_cryp.c ****           INMIS signal is low even if the input FIFO is empty.
 755:/home/rdu/Workspace/project_templates/mcu/stm32_ws/src/libraries/STM32F4xx_StdPeriph_Driver/src/stm32f4xx_cryp.c **** 
 756:/home/rdu/Workspace/project_templates/mcu/stm32_ws/src/libraries/STM32F4xx_StdPeriph_Driver/src/stm32f4xx_cryp.c **** 
 757:/home/rdu/Workspace/project_templates/mcu/stm32_ws/src/libraries/STM32F4xx_StdPeriph_Driver/src/stm32f4xx_cryp.c **** 
 758:/home/rdu/Workspace/project_templates/mcu/stm32_ws/src/libraries/STM32F4xx_StdPeriph_Driver/src/stm32f4xx_cryp.c ****    (#) CRYP_IT_OUTI  : The output FIFO service interrupt is asserted when there 
 759:/home/rdu/Workspace/project_templates/mcu/stm32_ws/src/libraries/STM32F4xx_StdPeriph_Driver/src/stm32f4xx_cryp.c ****        is one or more (32-bit word) data items in the output FIFO. This interrupt 
 760:/home/rdu/Workspace/project_templates/mcu/stm32_ws/src/libraries/STM32F4xx_StdPeriph_Driver/src/stm32f4xx_cryp.c ****        is associated to CRYP_FLAG_OUTRIS flag.
 761:/home/rdu/Workspace/project_templates/mcu/stm32_ws/src/libraries/STM32F4xx_StdPeriph_Driver/src/stm32f4xx_cryp.c **** 
 762:/home/rdu/Workspace/project_templates/mcu/stm32_ws/src/libraries/STM32F4xx_StdPeriph_Driver/src/stm32f4xx_cryp.c ****        -@- This interrupt is cleared by reading data from the output FIFO until there 
 763:/home/rdu/Workspace/project_templates/mcu/stm32_ws/src/libraries/STM32F4xx_StdPeriph_Driver/src/stm32f4xx_cryp.c ****            is no valid (32-bit) word left (that is, the interrupt follows the state 
 764:/home/rdu/Workspace/project_templates/mcu/stm32_ws/src/libraries/STM32F4xx_StdPeriph_Driver/src/stm32f4xx_cryp.c ****            of the OFNE (output FIFO not empty) flag).
 765:/home/rdu/Workspace/project_templates/mcu/stm32_ws/src/libraries/STM32F4xx_StdPeriph_Driver/src/stm32f4xx_cryp.c **** 
 766:/home/rdu/Workspace/project_templates/mcu/stm32_ws/src/libraries/STM32F4xx_StdPeriph_Driver/src/stm32f4xx_cryp.c ****  *** Managing the CRYP controller events : ***
 767:/home/rdu/Workspace/project_templates/mcu/stm32_ws/src/libraries/STM32F4xx_StdPeriph_Driver/src/stm32f4xx_cryp.c ****  =============================================
 768:/home/rdu/Workspace/project_templates/mcu/stm32_ws/src/libraries/STM32F4xx_StdPeriph_Driver/src/stm32f4xx_cryp.c ****  [..] The user should identify which mode will be used in his application to manage 
 769:/home/rdu/Workspace/project_templates/mcu/stm32_ws/src/libraries/STM32F4xx_StdPeriph_Driver/src/stm32f4xx_cryp.c ****       the CRYP controller events: Polling mode or Interrupt mode.
 770:/home/rdu/Workspace/project_templates/mcu/stm32_ws/src/libraries/STM32F4xx_StdPeriph_Driver/src/stm32f4xx_cryp.c **** 
 771:/home/rdu/Workspace/project_templates/mcu/stm32_ws/src/libraries/STM32F4xx_StdPeriph_Driver/src/stm32f4xx_cryp.c ****    (#) In the Polling Mode it is advised to use the following functions:
 772:/home/rdu/Workspace/project_templates/mcu/stm32_ws/src/libraries/STM32F4xx_StdPeriph_Driver/src/stm32f4xx_cryp.c ****        (++) CRYP_GetFlagStatus() : to check if flags events occur. 
 773:/home/rdu/Workspace/project_templates/mcu/stm32_ws/src/libraries/STM32F4xx_StdPeriph_Driver/src/stm32f4xx_cryp.c **** 
 774:/home/rdu/Workspace/project_templates/mcu/stm32_ws/src/libraries/STM32F4xx_StdPeriph_Driver/src/stm32f4xx_cryp.c ****        -@@- The CRYPT flags do not need to be cleared since they are cleared as 
 775:/home/rdu/Workspace/project_templates/mcu/stm32_ws/src/libraries/STM32F4xx_StdPeriph_Driver/src/stm32f4xx_cryp.c ****             soon as the associated event are reset.   
 776:/home/rdu/Workspace/project_templates/mcu/stm32_ws/src/libraries/STM32F4xx_StdPeriph_Driver/src/stm32f4xx_cryp.c **** 
 777:/home/rdu/Workspace/project_templates/mcu/stm32_ws/src/libraries/STM32F4xx_StdPeriph_Driver/src/stm32f4xx_cryp.c **** 
 778:/home/rdu/Workspace/project_templates/mcu/stm32_ws/src/libraries/STM32F4xx_StdPeriph_Driver/src/stm32f4xx_cryp.c ****    (#) In the Interrupt Mode it is advised to use the following functions:
 779:/home/rdu/Workspace/project_templates/mcu/stm32_ws/src/libraries/STM32F4xx_StdPeriph_Driver/src/stm32f4xx_cryp.c ****        (++) CRYP_ITConfig()       : to enable or disable the interrupt source.
 780:/home/rdu/Workspace/project_templates/mcu/stm32_ws/src/libraries/STM32F4xx_StdPeriph_Driver/src/stm32f4xx_cryp.c ****        (++) CRYP_GetITStatus()    : to check if Interrupt occurs.
 781:/home/rdu/Workspace/project_templates/mcu/stm32_ws/src/libraries/STM32F4xx_StdPeriph_Driver/src/stm32f4xx_cryp.c **** 
 782:/home/rdu/Workspace/project_templates/mcu/stm32_ws/src/libraries/STM32F4xx_StdPeriph_Driver/src/stm32f4xx_cryp.c ****        -@@- The CRYPT interrupts have no pending bits, the interrupt is cleared as 
 783:/home/rdu/Workspace/project_templates/mcu/stm32_ws/src/libraries/STM32F4xx_StdPeriph_Driver/src/stm32f4xx_cryp.c ****              soon as the associated event is reset. 
 784:/home/rdu/Workspace/project_templates/mcu/stm32_ws/src/libraries/STM32F4xx_StdPeriph_Driver/src/stm32f4xx_cryp.c **** 
 785:/home/rdu/Workspace/project_templates/mcu/stm32_ws/src/libraries/STM32F4xx_StdPeriph_Driver/src/stm32f4xx_cryp.c **** @endverbatim
 786:/home/rdu/Workspace/project_templates/mcu/stm32_ws/src/libraries/STM32F4xx_StdPeriph_Driver/src/stm32f4xx_cryp.c ****   * @{
 787:/home/rdu/Workspace/project_templates/mcu/stm32_ws/src/libraries/STM32F4xx_StdPeriph_Driver/src/stm32f4xx_cryp.c ****   */ 
 788:/home/rdu/Workspace/project_templates/mcu/stm32_ws/src/libraries/STM32F4xx_StdPeriph_Driver/src/stm32f4xx_cryp.c **** 
 789:/home/rdu/Workspace/project_templates/mcu/stm32_ws/src/libraries/STM32F4xx_StdPeriph_Driver/src/stm32f4xx_cryp.c **** /**
 790:/home/rdu/Workspace/project_templates/mcu/stm32_ws/src/libraries/STM32F4xx_StdPeriph_Driver/src/stm32f4xx_cryp.c ****   * @brief  Enables or disables the specified CRYP interrupts.
 791:/home/rdu/Workspace/project_templates/mcu/stm32_ws/src/libraries/STM32F4xx_StdPeriph_Driver/src/stm32f4xx_cryp.c ****   * @param  CRYP_IT: specifies the CRYP interrupt source to be enabled or disabled.
 792:/home/rdu/Workspace/project_templates/mcu/stm32_ws/src/libraries/STM32F4xx_StdPeriph_Driver/src/stm32f4xx_cryp.c ****   *          This parameter can be any combination of the following values:
 793:/home/rdu/Workspace/project_templates/mcu/stm32_ws/src/libraries/STM32F4xx_StdPeriph_Driver/src/stm32f4xx_cryp.c ****   *            @arg CRYP_IT_INI: Input FIFO interrupt
 794:/home/rdu/Workspace/project_templates/mcu/stm32_ws/src/libraries/STM32F4xx_StdPeriph_Driver/src/stm32f4xx_cryp.c ****   *            @arg CRYP_IT_OUTI: Output FIFO interrupt
 795:/home/rdu/Workspace/project_templates/mcu/stm32_ws/src/libraries/STM32F4xx_StdPeriph_Driver/src/stm32f4xx_cryp.c ****   * @param  NewState: new state of the specified CRYP interrupt.
 796:/home/rdu/Workspace/project_templates/mcu/stm32_ws/src/libraries/STM32F4xx_StdPeriph_Driver/src/stm32f4xx_cryp.c ****   *           This parameter can be: ENABLE or DISABLE.
 797:/home/rdu/Workspace/project_templates/mcu/stm32_ws/src/libraries/STM32F4xx_StdPeriph_Driver/src/stm32f4xx_cryp.c ****   * @retval None
 798:/home/rdu/Workspace/project_templates/mcu/stm32_ws/src/libraries/STM32F4xx_StdPeriph_Driver/src/stm32f4xx_cryp.c ****   */
 799:/home/rdu/Workspace/project_templates/mcu/stm32_ws/src/libraries/STM32F4xx_StdPeriph_Driver/src/stm32f4xx_cryp.c **** void CRYP_ITConfig(uint8_t CRYP_IT, FunctionalState NewState)
 800:/home/rdu/Workspace/project_templates/mcu/stm32_ws/src/libraries/STM32F4xx_StdPeriph_Driver/src/stm32f4xx_cryp.c **** {
 1161              		.loc 1 800 0
 1162              		.cfi_startproc
 1163              		@ args = 0, pretend = 0, frame = 8
 1164              		@ frame_needed = 0, uses_anonymous_args = 0
 1165              		@ link register save eliminated.
 1166 0000 82B0     		sub	sp, sp, #8
 1167              	.LCFI25:
 1168              		.cfi_def_cfa_offset 8
 1169 0002 0346     		mov	r3, r0
 1170 0004 0A46     		mov	r2, r1
 1171 0006 8DF80730 		strb	r3, [sp, #7]
 1172 000a 1346     		mov	r3, r2
 1173 000c 8DF80630 		strb	r3, [sp, #6]
 801:/home/rdu/Workspace/project_templates/mcu/stm32_ws/src/libraries/STM32F4xx_StdPeriph_Driver/src/stm32f4xx_cryp.c ****   /* Check the parameters */
 802:/home/rdu/Workspace/project_templates/mcu/stm32_ws/src/libraries/STM32F4xx_StdPeriph_Driver/src/stm32f4xx_cryp.c ****   assert_param(IS_CRYP_CONFIG_IT(CRYP_IT));
 803:/home/rdu/Workspace/project_templates/mcu/stm32_ws/src/libraries/STM32F4xx_StdPeriph_Driver/src/stm32f4xx_cryp.c ****   assert_param(IS_FUNCTIONAL_STATE(NewState));
 804:/home/rdu/Workspace/project_templates/mcu/stm32_ws/src/libraries/STM32F4xx_StdPeriph_Driver/src/stm32f4xx_cryp.c **** 
 805:/home/rdu/Workspace/project_templates/mcu/stm32_ws/src/libraries/STM32F4xx_StdPeriph_Driver/src/stm32f4xx_cryp.c ****   if (NewState != DISABLE)
 1174              		.loc 1 805 0
 1175 0010 9DF80630 		ldrb	r3, [sp, #6]	@ zero_extendqisi2
 1176 0014 002B     		cmp	r3, #0
 1177 0016 07D0     		beq	.L54
 806:/home/rdu/Workspace/project_templates/mcu/stm32_ws/src/libraries/STM32F4xx_StdPeriph_Driver/src/stm32f4xx_cryp.c ****   {
 807:/home/rdu/Workspace/project_templates/mcu/stm32_ws/src/libraries/STM32F4xx_StdPeriph_Driver/src/stm32f4xx_cryp.c ****     /* Enable the selected CRYP interrupt */
 808:/home/rdu/Workspace/project_templates/mcu/stm32_ws/src/libraries/STM32F4xx_StdPeriph_Driver/src/stm32f4xx_cryp.c ****     CRYP->IMSCR |= CRYP_IT;
 1178              		.loc 1 808 0
 1179 0018 0A4B     		ldr	r3, .L57
 1180 001a 5A69     		ldr	r2, [r3, #20]
 1181 001c 9DF80730 		ldrb	r3, [sp, #7]	@ zero_extendqisi2
 1182 0020 0849     		ldr	r1, .L57
 1183 0022 1343     		orrs	r3, r3, r2
 1184 0024 4B61     		str	r3, [r1, #20]
 809:/home/rdu/Workspace/project_templates/mcu/stm32_ws/src/libraries/STM32F4xx_StdPeriph_Driver/src/stm32f4xx_cryp.c ****   }
 810:/home/rdu/Workspace/project_templates/mcu/stm32_ws/src/libraries/STM32F4xx_StdPeriph_Driver/src/stm32f4xx_cryp.c ****   else
 811:/home/rdu/Workspace/project_templates/mcu/stm32_ws/src/libraries/STM32F4xx_StdPeriph_Driver/src/stm32f4xx_cryp.c ****   {
 812:/home/rdu/Workspace/project_templates/mcu/stm32_ws/src/libraries/STM32F4xx_StdPeriph_Driver/src/stm32f4xx_cryp.c ****     /* Disable the selected CRYP interrupt */
 813:/home/rdu/Workspace/project_templates/mcu/stm32_ws/src/libraries/STM32F4xx_StdPeriph_Driver/src/stm32f4xx_cryp.c ****     CRYP->IMSCR &= (uint8_t)~CRYP_IT;
 814:/home/rdu/Workspace/project_templates/mcu/stm32_ws/src/libraries/STM32F4xx_StdPeriph_Driver/src/stm32f4xx_cryp.c ****   }
 815:/home/rdu/Workspace/project_templates/mcu/stm32_ws/src/libraries/STM32F4xx_StdPeriph_Driver/src/stm32f4xx_cryp.c **** }
 1185              		.loc 1 815 0
 1186 0026 09E0     		b	.L56
 1187              	.L54:
 813:/home/rdu/Workspace/project_templates/mcu/stm32_ws/src/libraries/STM32F4xx_StdPeriph_Driver/src/stm32f4xx_cryp.c ****   }
 1188              		.loc 1 813 0
 1189 0028 064B     		ldr	r3, .L57
 1190 002a 5B69     		ldr	r3, [r3, #20]
 1191 002c 9DF80720 		ldrb	r2, [sp, #7]
 1192 0030 D243     		mvns	r2, r2
 1193 0032 D2B2     		uxtb	r2, r2
 1194 0034 1146     		mov	r1, r2
 1195 0036 034A     		ldr	r2, .L57
 1196 0038 0B40     		ands	r3, r3, r1
 1197 003a 5361     		str	r3, [r2, #20]
 1198              	.L56:
 1199              		.loc 1 815 0
 1200 003c 00BF     		nop
 1201 003e 02B0     		add	sp, sp, #8
 1202              	.LCFI26:
 1203              		.cfi_def_cfa_offset 0
 1204              		@ sp needed
 1205 0040 7047     		bx	lr
 1206              	.L58:
 1207 0042 00BF     		.align	2
 1208              	.L57:
 1209 0044 00000650 		.word	1342570496
 1210              		.cfi_endproc
 1211              	.LFE138:
 1213              		.section	.text.CRYP_GetITStatus,"ax",%progbits
 1214              		.align	1
 1215              		.global	CRYP_GetITStatus
 1216              		.syntax unified
 1217              		.thumb
 1218              		.thumb_func
 1219              		.fpu fpv4-sp-d16
 1221              	CRYP_GetITStatus:
 1222              	.LFB139:
 816:/home/rdu/Workspace/project_templates/mcu/stm32_ws/src/libraries/STM32F4xx_StdPeriph_Driver/src/stm32f4xx_cryp.c **** 
 817:/home/rdu/Workspace/project_templates/mcu/stm32_ws/src/libraries/STM32F4xx_StdPeriph_Driver/src/stm32f4xx_cryp.c **** /**
 818:/home/rdu/Workspace/project_templates/mcu/stm32_ws/src/libraries/STM32F4xx_StdPeriph_Driver/src/stm32f4xx_cryp.c ****   * @brief  Checks whether the specified CRYP interrupt has occurred or not.
 819:/home/rdu/Workspace/project_templates/mcu/stm32_ws/src/libraries/STM32F4xx_StdPeriph_Driver/src/stm32f4xx_cryp.c ****   * @note   This function checks the status of the masked interrupt (i.e the 
 820:/home/rdu/Workspace/project_templates/mcu/stm32_ws/src/libraries/STM32F4xx_StdPeriph_Driver/src/stm32f4xx_cryp.c ****   *         interrupt should be previously enabled).     
 821:/home/rdu/Workspace/project_templates/mcu/stm32_ws/src/libraries/STM32F4xx_StdPeriph_Driver/src/stm32f4xx_cryp.c ****   * @param  CRYP_IT: specifies the CRYP (masked) interrupt source to check.
 822:/home/rdu/Workspace/project_templates/mcu/stm32_ws/src/libraries/STM32F4xx_StdPeriph_Driver/src/stm32f4xx_cryp.c ****   *           This parameter can be one of the following values:
 823:/home/rdu/Workspace/project_templates/mcu/stm32_ws/src/libraries/STM32F4xx_StdPeriph_Driver/src/stm32f4xx_cryp.c ****   *            @arg CRYP_IT_INI: Input FIFO interrupt
 824:/home/rdu/Workspace/project_templates/mcu/stm32_ws/src/libraries/STM32F4xx_StdPeriph_Driver/src/stm32f4xx_cryp.c ****   *            @arg CRYP_IT_OUTI: Output FIFO interrupt
 825:/home/rdu/Workspace/project_templates/mcu/stm32_ws/src/libraries/STM32F4xx_StdPeriph_Driver/src/stm32f4xx_cryp.c ****   * @retval The new state of CRYP_IT (SET or RESET).
 826:/home/rdu/Workspace/project_templates/mcu/stm32_ws/src/libraries/STM32F4xx_StdPeriph_Driver/src/stm32f4xx_cryp.c ****   */
 827:/home/rdu/Workspace/project_templates/mcu/stm32_ws/src/libraries/STM32F4xx_StdPeriph_Driver/src/stm32f4xx_cryp.c **** ITStatus CRYP_GetITStatus(uint8_t CRYP_IT)
 828:/home/rdu/Workspace/project_templates/mcu/stm32_ws/src/libraries/STM32F4xx_StdPeriph_Driver/src/stm32f4xx_cryp.c **** {
 1223              		.loc 1 828 0
 1224              		.cfi_startproc
 1225              		@ args = 0, pretend = 0, frame = 16
 1226              		@ frame_needed = 0, uses_anonymous_args = 0
 1227              		@ link register save eliminated.
 1228 0000 84B0     		sub	sp, sp, #16
 1229              	.LCFI27:
 1230              		.cfi_def_cfa_offset 16
 1231 0002 0346     		mov	r3, r0
 1232 0004 8DF80730 		strb	r3, [sp, #7]
 829:/home/rdu/Workspace/project_templates/mcu/stm32_ws/src/libraries/STM32F4xx_StdPeriph_Driver/src/stm32f4xx_cryp.c ****   ITStatus bitstatus = RESET;
 1233              		.loc 1 829 0
 1234 0008 0023     		movs	r3, #0
 1235 000a 8DF80F30 		strb	r3, [sp, #15]
 830:/home/rdu/Workspace/project_templates/mcu/stm32_ws/src/libraries/STM32F4xx_StdPeriph_Driver/src/stm32f4xx_cryp.c ****   /* Check the parameters */
 831:/home/rdu/Workspace/project_templates/mcu/stm32_ws/src/libraries/STM32F4xx_StdPeriph_Driver/src/stm32f4xx_cryp.c ****   assert_param(IS_CRYP_GET_IT(CRYP_IT));
 832:/home/rdu/Workspace/project_templates/mcu/stm32_ws/src/libraries/STM32F4xx_StdPeriph_Driver/src/stm32f4xx_cryp.c **** 
 833:/home/rdu/Workspace/project_templates/mcu/stm32_ws/src/libraries/STM32F4xx_StdPeriph_Driver/src/stm32f4xx_cryp.c ****   /* Check the status of the specified CRYP interrupt */
 834:/home/rdu/Workspace/project_templates/mcu/stm32_ws/src/libraries/STM32F4xx_StdPeriph_Driver/src/stm32f4xx_cryp.c ****   if ((CRYP->MISR &  CRYP_IT) != (uint8_t)RESET)
 1236              		.loc 1 834 0
 1237 000e 094B     		ldr	r3, .L63
 1238 0010 DA69     		ldr	r2, [r3, #28]
 1239 0012 9DF80730 		ldrb	r3, [sp, #7]	@ zero_extendqisi2
 1240 0016 1340     		ands	r3, r3, r2
 1241 0018 002B     		cmp	r3, #0
 1242 001a 03D0     		beq	.L60
 835:/home/rdu/Workspace/project_templates/mcu/stm32_ws/src/libraries/STM32F4xx_StdPeriph_Driver/src/stm32f4xx_cryp.c ****   {
 836:/home/rdu/Workspace/project_templates/mcu/stm32_ws/src/libraries/STM32F4xx_StdPeriph_Driver/src/stm32f4xx_cryp.c ****     /* CRYP_IT is set */
 837:/home/rdu/Workspace/project_templates/mcu/stm32_ws/src/libraries/STM32F4xx_StdPeriph_Driver/src/stm32f4xx_cryp.c ****     bitstatus = SET;
 1243              		.loc 1 837 0
 1244 001c 0123     		movs	r3, #1
 1245 001e 8DF80F30 		strb	r3, [sp, #15]
 1246 0022 02E0     		b	.L61
 1247              	.L60:
 838:/home/rdu/Workspace/project_templates/mcu/stm32_ws/src/libraries/STM32F4xx_StdPeriph_Driver/src/stm32f4xx_cryp.c ****   }
 839:/home/rdu/Workspace/project_templates/mcu/stm32_ws/src/libraries/STM32F4xx_StdPeriph_Driver/src/stm32f4xx_cryp.c ****   else
 840:/home/rdu/Workspace/project_templates/mcu/stm32_ws/src/libraries/STM32F4xx_StdPeriph_Driver/src/stm32f4xx_cryp.c ****   {
 841:/home/rdu/Workspace/project_templates/mcu/stm32_ws/src/libraries/STM32F4xx_StdPeriph_Driver/src/stm32f4xx_cryp.c ****     /* CRYP_IT is reset */
 842:/home/rdu/Workspace/project_templates/mcu/stm32_ws/src/libraries/STM32F4xx_StdPeriph_Driver/src/stm32f4xx_cryp.c ****     bitstatus = RESET;
 1248              		.loc 1 842 0
 1249 0024 0023     		movs	r3, #0
 1250 0026 8DF80F30 		strb	r3, [sp, #15]
 1251              	.L61:
 843:/home/rdu/Workspace/project_templates/mcu/stm32_ws/src/libraries/STM32F4xx_StdPeriph_Driver/src/stm32f4xx_cryp.c ****   }
 844:/home/rdu/Workspace/project_templates/mcu/stm32_ws/src/libraries/STM32F4xx_StdPeriph_Driver/src/stm32f4xx_cryp.c ****   /* Return the CRYP_IT status */
 845:/home/rdu/Workspace/project_templates/mcu/stm32_ws/src/libraries/STM32F4xx_StdPeriph_Driver/src/stm32f4xx_cryp.c ****   return bitstatus;
 1252              		.loc 1 845 0
 1253 002a 9DF80F30 		ldrb	r3, [sp, #15]	@ zero_extendqisi2
 846:/home/rdu/Workspace/project_templates/mcu/stm32_ws/src/libraries/STM32F4xx_StdPeriph_Driver/src/stm32f4xx_cryp.c **** }
 1254              		.loc 1 846 0
 1255 002e 1846     		mov	r0, r3
 1256 0030 04B0     		add	sp, sp, #16
 1257              	.LCFI28:
 1258              		.cfi_def_cfa_offset 0
 1259              		@ sp needed
 1260 0032 7047     		bx	lr
 1261              	.L64:
 1262              		.align	2
 1263              	.L63:
 1264 0034 00000650 		.word	1342570496
 1265              		.cfi_endproc
 1266              	.LFE139:
 1268              		.section	.text.CRYP_GetCmdStatus,"ax",%progbits
 1269              		.align	1
 1270              		.global	CRYP_GetCmdStatus
 1271              		.syntax unified
 1272              		.thumb
 1273              		.thumb_func
 1274              		.fpu fpv4-sp-d16
 1276              	CRYP_GetCmdStatus:
 1277              	.LFB140:
 847:/home/rdu/Workspace/project_templates/mcu/stm32_ws/src/libraries/STM32F4xx_StdPeriph_Driver/src/stm32f4xx_cryp.c **** 
 848:/home/rdu/Workspace/project_templates/mcu/stm32_ws/src/libraries/STM32F4xx_StdPeriph_Driver/src/stm32f4xx_cryp.c **** /**
 849:/home/rdu/Workspace/project_templates/mcu/stm32_ws/src/libraries/STM32F4xx_StdPeriph_Driver/src/stm32f4xx_cryp.c ****   * @brief  Returns whether CRYP peripheral is enabled or disabled.
 850:/home/rdu/Workspace/project_templates/mcu/stm32_ws/src/libraries/STM32F4xx_StdPeriph_Driver/src/stm32f4xx_cryp.c ****   * @param  none.
 851:/home/rdu/Workspace/project_templates/mcu/stm32_ws/src/libraries/STM32F4xx_StdPeriph_Driver/src/stm32f4xx_cryp.c ****   * @retval Current state of the CRYP peripheral (ENABLE or DISABLE).
 852:/home/rdu/Workspace/project_templates/mcu/stm32_ws/src/libraries/STM32F4xx_StdPeriph_Driver/src/stm32f4xx_cryp.c ****   */
 853:/home/rdu/Workspace/project_templates/mcu/stm32_ws/src/libraries/STM32F4xx_StdPeriph_Driver/src/stm32f4xx_cryp.c **** FunctionalState CRYP_GetCmdStatus(void)
 854:/home/rdu/Workspace/project_templates/mcu/stm32_ws/src/libraries/STM32F4xx_StdPeriph_Driver/src/stm32f4xx_cryp.c **** {
 1278              		.loc 1 854 0
 1279              		.cfi_startproc
 1280              		@ args = 0, pretend = 0, frame = 8
 1281              		@ frame_needed = 0, uses_anonymous_args = 0
 1282              		@ link register save eliminated.
 1283 0000 82B0     		sub	sp, sp, #8
 1284              	.LCFI29:
 1285              		.cfi_def_cfa_offset 8
 855:/home/rdu/Workspace/project_templates/mcu/stm32_ws/src/libraries/STM32F4xx_StdPeriph_Driver/src/stm32f4xx_cryp.c ****   FunctionalState state = DISABLE;
 1286              		.loc 1 855 0
 1287 0002 0023     		movs	r3, #0
 1288 0004 8DF80730 		strb	r3, [sp, #7]
 856:/home/rdu/Workspace/project_templates/mcu/stm32_ws/src/libraries/STM32F4xx_StdPeriph_Driver/src/stm32f4xx_cryp.c **** 
 857:/home/rdu/Workspace/project_templates/mcu/stm32_ws/src/libraries/STM32F4xx_StdPeriph_Driver/src/stm32f4xx_cryp.c ****   if ((CRYP->CR & CRYP_CR_CRYPEN) != 0)
 1289              		.loc 1 857 0
 1290 0008 084B     		ldr	r3, .L69
 1291 000a 1B68     		ldr	r3, [r3]
 1292 000c 03F40043 		and	r3, r3, #32768
 1293 0010 002B     		cmp	r3, #0
 1294 0012 03D0     		beq	.L66
 858:/home/rdu/Workspace/project_templates/mcu/stm32_ws/src/libraries/STM32F4xx_StdPeriph_Driver/src/stm32f4xx_cryp.c ****   {
 859:/home/rdu/Workspace/project_templates/mcu/stm32_ws/src/libraries/STM32F4xx_StdPeriph_Driver/src/stm32f4xx_cryp.c ****     /* CRYPEN bit is set */
 860:/home/rdu/Workspace/project_templates/mcu/stm32_ws/src/libraries/STM32F4xx_StdPeriph_Driver/src/stm32f4xx_cryp.c ****     state = ENABLE;
 1295              		.loc 1 860 0
 1296 0014 0123     		movs	r3, #1
 1297 0016 8DF80730 		strb	r3, [sp, #7]
 1298 001a 02E0     		b	.L67
 1299              	.L66:
 861:/home/rdu/Workspace/project_templates/mcu/stm32_ws/src/libraries/STM32F4xx_StdPeriph_Driver/src/stm32f4xx_cryp.c ****   }
 862:/home/rdu/Workspace/project_templates/mcu/stm32_ws/src/libraries/STM32F4xx_StdPeriph_Driver/src/stm32f4xx_cryp.c ****   else
 863:/home/rdu/Workspace/project_templates/mcu/stm32_ws/src/libraries/STM32F4xx_StdPeriph_Driver/src/stm32f4xx_cryp.c ****   {
 864:/home/rdu/Workspace/project_templates/mcu/stm32_ws/src/libraries/STM32F4xx_StdPeriph_Driver/src/stm32f4xx_cryp.c ****     /* CRYPEN bit is reset */
 865:/home/rdu/Workspace/project_templates/mcu/stm32_ws/src/libraries/STM32F4xx_StdPeriph_Driver/src/stm32f4xx_cryp.c ****     state = DISABLE;
 1300              		.loc 1 865 0
 1301 001c 0023     		movs	r3, #0
 1302 001e 8DF80730 		strb	r3, [sp, #7]
 1303              	.L67:
 866:/home/rdu/Workspace/project_templates/mcu/stm32_ws/src/libraries/STM32F4xx_StdPeriph_Driver/src/stm32f4xx_cryp.c ****   }
 867:/home/rdu/Workspace/project_templates/mcu/stm32_ws/src/libraries/STM32F4xx_StdPeriph_Driver/src/stm32f4xx_cryp.c ****   return state;
 1304              		.loc 1 867 0
 1305 0022 9DF80730 		ldrb	r3, [sp, #7]	@ zero_extendqisi2
 868:/home/rdu/Workspace/project_templates/mcu/stm32_ws/src/libraries/STM32F4xx_StdPeriph_Driver/src/stm32f4xx_cryp.c **** }
 1306              		.loc 1 868 0
 1307 0026 1846     		mov	r0, r3
 1308 0028 02B0     		add	sp, sp, #8
 1309              	.LCFI30:
 1310              		.cfi_def_cfa_offset 0
 1311              		@ sp needed
 1312 002a 7047     		bx	lr
 1313              	.L70:
 1314              		.align	2
 1315              	.L69:
 1316 002c 00000650 		.word	1342570496
 1317              		.cfi_endproc
 1318              	.LFE140:
 1320              		.section	.text.CRYP_GetFlagStatus,"ax",%progbits
 1321              		.align	1
 1322              		.global	CRYP_GetFlagStatus
 1323              		.syntax unified
 1324              		.thumb
 1325              		.thumb_func
 1326              		.fpu fpv4-sp-d16
 1328              	CRYP_GetFlagStatus:
 1329              	.LFB141:
 869:/home/rdu/Workspace/project_templates/mcu/stm32_ws/src/libraries/STM32F4xx_StdPeriph_Driver/src/stm32f4xx_cryp.c **** 
 870:/home/rdu/Workspace/project_templates/mcu/stm32_ws/src/libraries/STM32F4xx_StdPeriph_Driver/src/stm32f4xx_cryp.c **** /**
 871:/home/rdu/Workspace/project_templates/mcu/stm32_ws/src/libraries/STM32F4xx_StdPeriph_Driver/src/stm32f4xx_cryp.c ****   * @brief  Checks whether the specified CRYP flag is set or not.
 872:/home/rdu/Workspace/project_templates/mcu/stm32_ws/src/libraries/STM32F4xx_StdPeriph_Driver/src/stm32f4xx_cryp.c ****   * @param  CRYP_FLAG: specifies the CRYP flag to check.
 873:/home/rdu/Workspace/project_templates/mcu/stm32_ws/src/libraries/STM32F4xx_StdPeriph_Driver/src/stm32f4xx_cryp.c ****   *          This parameter can be one of the following values:
 874:/home/rdu/Workspace/project_templates/mcu/stm32_ws/src/libraries/STM32F4xx_StdPeriph_Driver/src/stm32f4xx_cryp.c ****   *            @arg CRYP_FLAG_IFEM: Input FIFO Empty flag.
 875:/home/rdu/Workspace/project_templates/mcu/stm32_ws/src/libraries/STM32F4xx_StdPeriph_Driver/src/stm32f4xx_cryp.c ****   *            @arg CRYP_FLAG_IFNF: Input FIFO Not Full flag.
 876:/home/rdu/Workspace/project_templates/mcu/stm32_ws/src/libraries/STM32F4xx_StdPeriph_Driver/src/stm32f4xx_cryp.c ****   *            @arg CRYP_FLAG_OFNE: Output FIFO Not Empty flag.
 877:/home/rdu/Workspace/project_templates/mcu/stm32_ws/src/libraries/STM32F4xx_StdPeriph_Driver/src/stm32f4xx_cryp.c ****   *            @arg CRYP_FLAG_OFFU: Output FIFO Full flag.
 878:/home/rdu/Workspace/project_templates/mcu/stm32_ws/src/libraries/STM32F4xx_StdPeriph_Driver/src/stm32f4xx_cryp.c ****   *            @arg CRYP_FLAG_BUSY: Busy flag.
 879:/home/rdu/Workspace/project_templates/mcu/stm32_ws/src/libraries/STM32F4xx_StdPeriph_Driver/src/stm32f4xx_cryp.c ****   *            @arg CRYP_FLAG_OUTRIS: Output FIFO raw interrupt flag.
 880:/home/rdu/Workspace/project_templates/mcu/stm32_ws/src/libraries/STM32F4xx_StdPeriph_Driver/src/stm32f4xx_cryp.c ****   *            @arg CRYP_FLAG_INRIS: Input FIFO raw interrupt flag.
 881:/home/rdu/Workspace/project_templates/mcu/stm32_ws/src/libraries/STM32F4xx_StdPeriph_Driver/src/stm32f4xx_cryp.c ****   * @retval The new state of CRYP_FLAG (SET or RESET).
 882:/home/rdu/Workspace/project_templates/mcu/stm32_ws/src/libraries/STM32F4xx_StdPeriph_Driver/src/stm32f4xx_cryp.c ****   */
 883:/home/rdu/Workspace/project_templates/mcu/stm32_ws/src/libraries/STM32F4xx_StdPeriph_Driver/src/stm32f4xx_cryp.c **** FlagStatus CRYP_GetFlagStatus(uint8_t CRYP_FLAG)
 884:/home/rdu/Workspace/project_templates/mcu/stm32_ws/src/libraries/STM32F4xx_StdPeriph_Driver/src/stm32f4xx_cryp.c **** {
 1330              		.loc 1 884 0
 1331              		.cfi_startproc
 1332              		@ args = 0, pretend = 0, frame = 16
 1333              		@ frame_needed = 0, uses_anonymous_args = 0
 1334              		@ link register save eliminated.
 1335 0000 84B0     		sub	sp, sp, #16
 1336              	.LCFI31:
 1337              		.cfi_def_cfa_offset 16
 1338 0002 0346     		mov	r3, r0
 1339 0004 8DF80730 		strb	r3, [sp, #7]
 885:/home/rdu/Workspace/project_templates/mcu/stm32_ws/src/libraries/STM32F4xx_StdPeriph_Driver/src/stm32f4xx_cryp.c ****   FlagStatus bitstatus = RESET;
 1340              		.loc 1 885 0
 1341 0008 0023     		movs	r3, #0
 1342 000a 8DF80F30 		strb	r3, [sp, #15]
 886:/home/rdu/Workspace/project_templates/mcu/stm32_ws/src/libraries/STM32F4xx_StdPeriph_Driver/src/stm32f4xx_cryp.c ****   uint32_t tempreg = 0;
 1343              		.loc 1 886 0
 1344 000e 0023     		movs	r3, #0
 1345 0010 0293     		str	r3, [sp, #8]
 887:/home/rdu/Workspace/project_templates/mcu/stm32_ws/src/libraries/STM32F4xx_StdPeriph_Driver/src/stm32f4xx_cryp.c **** 
 888:/home/rdu/Workspace/project_templates/mcu/stm32_ws/src/libraries/STM32F4xx_StdPeriph_Driver/src/stm32f4xx_cryp.c ****   /* Check the parameters */
 889:/home/rdu/Workspace/project_templates/mcu/stm32_ws/src/libraries/STM32F4xx_StdPeriph_Driver/src/stm32f4xx_cryp.c ****   assert_param(IS_CRYP_GET_FLAG(CRYP_FLAG));
 890:/home/rdu/Workspace/project_templates/mcu/stm32_ws/src/libraries/STM32F4xx_StdPeriph_Driver/src/stm32f4xx_cryp.c **** 
 891:/home/rdu/Workspace/project_templates/mcu/stm32_ws/src/libraries/STM32F4xx_StdPeriph_Driver/src/stm32f4xx_cryp.c ****   /* check if the FLAG is in RISR register */
 892:/home/rdu/Workspace/project_templates/mcu/stm32_ws/src/libraries/STM32F4xx_StdPeriph_Driver/src/stm32f4xx_cryp.c ****   if ((CRYP_FLAG & FLAG_MASK) != 0x00) 
 1346              		.loc 1 892 0
 1347 0012 9DF80730 		ldrb	r3, [sp, #7]	@ zero_extendqisi2
 1348 0016 03F02003 		and	r3, r3, #32
 1349 001a 002B     		cmp	r3, #0
 1350 001c 03D0     		beq	.L72
 893:/home/rdu/Workspace/project_templates/mcu/stm32_ws/src/libraries/STM32F4xx_StdPeriph_Driver/src/stm32f4xx_cryp.c ****   {
 894:/home/rdu/Workspace/project_templates/mcu/stm32_ws/src/libraries/STM32F4xx_StdPeriph_Driver/src/stm32f4xx_cryp.c ****     tempreg = CRYP->RISR;
 1351              		.loc 1 894 0
 1352 001e 0C4B     		ldr	r3, .L77
 1353 0020 9B69     		ldr	r3, [r3, #24]
 1354 0022 0293     		str	r3, [sp, #8]
 1355 0024 02E0     		b	.L73
 1356              	.L72:
 895:/home/rdu/Workspace/project_templates/mcu/stm32_ws/src/libraries/STM32F4xx_StdPeriph_Driver/src/stm32f4xx_cryp.c ****   }
 896:/home/rdu/Workspace/project_templates/mcu/stm32_ws/src/libraries/STM32F4xx_StdPeriph_Driver/src/stm32f4xx_cryp.c ****   else  /* The FLAG is in SR register */
 897:/home/rdu/Workspace/project_templates/mcu/stm32_ws/src/libraries/STM32F4xx_StdPeriph_Driver/src/stm32f4xx_cryp.c ****   {
 898:/home/rdu/Workspace/project_templates/mcu/stm32_ws/src/libraries/STM32F4xx_StdPeriph_Driver/src/stm32f4xx_cryp.c ****     tempreg = CRYP->SR;
 1357              		.loc 1 898 0
 1358 0026 0A4B     		ldr	r3, .L77
 1359 0028 5B68     		ldr	r3, [r3, #4]
 1360 002a 0293     		str	r3, [sp, #8]
 1361              	.L73:
 899:/home/rdu/Workspace/project_templates/mcu/stm32_ws/src/libraries/STM32F4xx_StdPeriph_Driver/src/stm32f4xx_cryp.c ****   }
 900:/home/rdu/Workspace/project_templates/mcu/stm32_ws/src/libraries/STM32F4xx_StdPeriph_Driver/src/stm32f4xx_cryp.c **** 
 901:/home/rdu/Workspace/project_templates/mcu/stm32_ws/src/libraries/STM32F4xx_StdPeriph_Driver/src/stm32f4xx_cryp.c **** 
 902:/home/rdu/Workspace/project_templates/mcu/stm32_ws/src/libraries/STM32F4xx_StdPeriph_Driver/src/stm32f4xx_cryp.c ****   /* Check the status of the specified CRYP flag */
 903:/home/rdu/Workspace/project_templates/mcu/stm32_ws/src/libraries/STM32F4xx_StdPeriph_Driver/src/stm32f4xx_cryp.c ****   if ((tempreg & CRYP_FLAG ) != (uint8_t)RESET)
 1362              		.loc 1 903 0
 1363 002c 9DF80720 		ldrb	r2, [sp, #7]	@ zero_extendqisi2
 1364 0030 029B     		ldr	r3, [sp, #8]
 1365 0032 1340     		ands	r3, r3, r2
 1366 0034 002B     		cmp	r3, #0
 1367 0036 03D0     		beq	.L74
 904:/home/rdu/Workspace/project_templates/mcu/stm32_ws/src/libraries/STM32F4xx_StdPeriph_Driver/src/stm32f4xx_cryp.c ****   {
 905:/home/rdu/Workspace/project_templates/mcu/stm32_ws/src/libraries/STM32F4xx_StdPeriph_Driver/src/stm32f4xx_cryp.c ****     /* CRYP_FLAG is set */
 906:/home/rdu/Workspace/project_templates/mcu/stm32_ws/src/libraries/STM32F4xx_StdPeriph_Driver/src/stm32f4xx_cryp.c ****     bitstatus = SET;
 1368              		.loc 1 906 0
 1369 0038 0123     		movs	r3, #1
 1370 003a 8DF80F30 		strb	r3, [sp, #15]
 1371 003e 02E0     		b	.L75
 1372              	.L74:
 907:/home/rdu/Workspace/project_templates/mcu/stm32_ws/src/libraries/STM32F4xx_StdPeriph_Driver/src/stm32f4xx_cryp.c ****   }
 908:/home/rdu/Workspace/project_templates/mcu/stm32_ws/src/libraries/STM32F4xx_StdPeriph_Driver/src/stm32f4xx_cryp.c ****   else
 909:/home/rdu/Workspace/project_templates/mcu/stm32_ws/src/libraries/STM32F4xx_StdPeriph_Driver/src/stm32f4xx_cryp.c ****   {
 910:/home/rdu/Workspace/project_templates/mcu/stm32_ws/src/libraries/STM32F4xx_StdPeriph_Driver/src/stm32f4xx_cryp.c ****     /* CRYP_FLAG is reset */
 911:/home/rdu/Workspace/project_templates/mcu/stm32_ws/src/libraries/STM32F4xx_StdPeriph_Driver/src/stm32f4xx_cryp.c ****     bitstatus = RESET;
 1373              		.loc 1 911 0
 1374 0040 0023     		movs	r3, #0
 1375 0042 8DF80F30 		strb	r3, [sp, #15]
 1376              	.L75:
 912:/home/rdu/Workspace/project_templates/mcu/stm32_ws/src/libraries/STM32F4xx_StdPeriph_Driver/src/stm32f4xx_cryp.c ****   }
 913:/home/rdu/Workspace/project_templates/mcu/stm32_ws/src/libraries/STM32F4xx_StdPeriph_Driver/src/stm32f4xx_cryp.c **** 
 914:/home/rdu/Workspace/project_templates/mcu/stm32_ws/src/libraries/STM32F4xx_StdPeriph_Driver/src/stm32f4xx_cryp.c ****   /* Return the CRYP_FLAG status */
 915:/home/rdu/Workspace/project_templates/mcu/stm32_ws/src/libraries/STM32F4xx_StdPeriph_Driver/src/stm32f4xx_cryp.c ****   return  bitstatus;
 1377              		.loc 1 915 0
 1378 0046 9DF80F30 		ldrb	r3, [sp, #15]	@ zero_extendqisi2
 916:/home/rdu/Workspace/project_templates/mcu/stm32_ws/src/libraries/STM32F4xx_StdPeriph_Driver/src/stm32f4xx_cryp.c **** }
 1379              		.loc 1 916 0
 1380 004a 1846     		mov	r0, r3
 1381 004c 04B0     		add	sp, sp, #16
 1382              	.LCFI32:
 1383              		.cfi_def_cfa_offset 0
 1384              		@ sp needed
 1385 004e 7047     		bx	lr
 1386              	.L78:
 1387              		.align	2
 1388              	.L77:
 1389 0050 00000650 		.word	1342570496
 1390              		.cfi_endproc
 1391              	.LFE141:
 1393              		.text
 1394              	.Letext0:
 1395              		.file 2 "/home/rdu/Software/gcc-arm-none-eabi-7-2017-q4-major/arm-none-eabi/include/machine/_defau
 1396              		.file 3 "/home/rdu/Software/gcc-arm-none-eabi-7-2017-q4-major/arm-none-eabi/include/sys/_stdint.h"
 1397              		.file 4 "/home/rdu/Workspace/project_templates/mcu/stm32_ws/src/libraries/CMSIS/CMSIS_STM32F4/Incl
 1398              		.file 5 "/home/rdu/Workspace/project_templates/mcu/stm32_ws/src/libraries/CMSIS/CMSIS_STM32F4/Devi
 1399              		.file 6 "/home/rdu/Workspace/project_templates/mcu/stm32_ws/src/libraries/CMSIS/CMSIS_STM32F4/Devi
 1400              		.file 7 "/home/rdu/Workspace/project_templates/mcu/stm32_ws/src/libraries/STM32F4xx_StdPeriph_Driv