   1              		.cpu cortex-m4
   2              		.eabi_attribute 27, 1
   3              		.eabi_attribute 28, 1
   4              		.eabi_attribute 23, 1
   5              		.eabi_attribute 24, 1
   6              		.eabi_attribute 25, 1
   7              		.eabi_attribute 26, 1
   8              		.eabi_attribute 30, 6
   9              		.eabi_attribute 34, 1
  10              		.eabi_attribute 18, 4
  11              		.file	"stm32f4xx_can.c"
  12              		.text
  13              	.Ltext0:
  14              		.cfi_sections	.debug_frame
  15              		.section	.text.CAN_DeInit,"ax",%progbits
  16              		.align	1
  17              		.global	CAN_DeInit
  18              		.syntax unified
  19              		.thumb
  20              		.thumb_func
  21              		.fpu fpv4-sp-d16
  23              	CAN_DeInit:
  24              	.LFB123:
  25              		.file 1 "/home/rdu/Workspace/project_templates/mcu/stm32_ws/src/libraries/STM32F4xx_StdPeriph_Driv
   1:/home/rdu/Workspace/project_templates/mcu/stm32_ws/src/libraries/STM32F4xx_StdPeriph_Driver/src/stm32f4xx_can.c **** /**
   2:/home/rdu/Workspace/project_templates/mcu/stm32_ws/src/libraries/STM32F4xx_StdPeriph_Driver/src/stm32f4xx_can.c ****   ******************************************************************************
   3:/home/rdu/Workspace/project_templates/mcu/stm32_ws/src/libraries/STM32F4xx_StdPeriph_Driver/src/stm32f4xx_can.c ****   * @file    stm32f4xx_can.c
   4:/home/rdu/Workspace/project_templates/mcu/stm32_ws/src/libraries/STM32F4xx_StdPeriph_Driver/src/stm32f4xx_can.c ****   * @author  MCD Application Team
   5:/home/rdu/Workspace/project_templates/mcu/stm32_ws/src/libraries/STM32F4xx_StdPeriph_Driver/src/stm32f4xx_can.c ****   * @version V1.8.0
   6:/home/rdu/Workspace/project_templates/mcu/stm32_ws/src/libraries/STM32F4xx_StdPeriph_Driver/src/stm32f4xx_can.c ****   * @date    04-November-2016
   7:/home/rdu/Workspace/project_templates/mcu/stm32_ws/src/libraries/STM32F4xx_StdPeriph_Driver/src/stm32f4xx_can.c ****   * @brief   This file provides firmware functions to manage the following 
   8:/home/rdu/Workspace/project_templates/mcu/stm32_ws/src/libraries/STM32F4xx_StdPeriph_Driver/src/stm32f4xx_can.c ****   *          functionalities of the Controller area network (CAN) peripheral:
   9:/home/rdu/Workspace/project_templates/mcu/stm32_ws/src/libraries/STM32F4xx_StdPeriph_Driver/src/stm32f4xx_can.c ****   *           + Initialization and Configuration 
  10:/home/rdu/Workspace/project_templates/mcu/stm32_ws/src/libraries/STM32F4xx_StdPeriph_Driver/src/stm32f4xx_can.c ****   *           + CAN Frames Transmission
  11:/home/rdu/Workspace/project_templates/mcu/stm32_ws/src/libraries/STM32F4xx_StdPeriph_Driver/src/stm32f4xx_can.c ****   *           + CAN Frames Reception
  12:/home/rdu/Workspace/project_templates/mcu/stm32_ws/src/libraries/STM32F4xx_StdPeriph_Driver/src/stm32f4xx_can.c ****   *           + Operation modes switch
  13:/home/rdu/Workspace/project_templates/mcu/stm32_ws/src/libraries/STM32F4xx_StdPeriph_Driver/src/stm32f4xx_can.c ****   *           + Error management
  14:/home/rdu/Workspace/project_templates/mcu/stm32_ws/src/libraries/STM32F4xx_StdPeriph_Driver/src/stm32f4xx_can.c ****   *           + Interrupts and flags
  15:/home/rdu/Workspace/project_templates/mcu/stm32_ws/src/libraries/STM32F4xx_StdPeriph_Driver/src/stm32f4xx_can.c ****   *
  16:/home/rdu/Workspace/project_templates/mcu/stm32_ws/src/libraries/STM32F4xx_StdPeriph_Driver/src/stm32f4xx_can.c **** @verbatim
  17:/home/rdu/Workspace/project_templates/mcu/stm32_ws/src/libraries/STM32F4xx_StdPeriph_Driver/src/stm32f4xx_can.c ****  ===============================================================================
  18:/home/rdu/Workspace/project_templates/mcu/stm32_ws/src/libraries/STM32F4xx_StdPeriph_Driver/src/stm32f4xx_can.c ****                         ##### How to use this driver #####
  19:/home/rdu/Workspace/project_templates/mcu/stm32_ws/src/libraries/STM32F4xx_StdPeriph_Driver/src/stm32f4xx_can.c ****  ===============================================================================
  20:/home/rdu/Workspace/project_templates/mcu/stm32_ws/src/libraries/STM32F4xx_StdPeriph_Driver/src/stm32f4xx_can.c ****     [..]
  21:/home/rdu/Workspace/project_templates/mcu/stm32_ws/src/libraries/STM32F4xx_StdPeriph_Driver/src/stm32f4xx_can.c ****       (#) Enable the CAN controller interface clock using 
  22:/home/rdu/Workspace/project_templates/mcu/stm32_ws/src/libraries/STM32F4xx_StdPeriph_Driver/src/stm32f4xx_can.c ****           RCC_APB1PeriphClockCmd(RCC_APB1Periph_CAN1, ENABLE); for CAN1 
  23:/home/rdu/Workspace/project_templates/mcu/stm32_ws/src/libraries/STM32F4xx_StdPeriph_Driver/src/stm32f4xx_can.c ****           and RCC_APB1PeriphClockCmd(RCC_APB1Periph_CAN2, ENABLE); for CAN2
  24:/home/rdu/Workspace/project_templates/mcu/stm32_ws/src/libraries/STM32F4xx_StdPeriph_Driver/src/stm32f4xx_can.c ****       -@- In case you are using CAN2 only, you have to enable the CAN1 clock.
  25:/home/rdu/Workspace/project_templates/mcu/stm32_ws/src/libraries/STM32F4xx_StdPeriph_Driver/src/stm32f4xx_can.c ****        
  26:/home/rdu/Workspace/project_templates/mcu/stm32_ws/src/libraries/STM32F4xx_StdPeriph_Driver/src/stm32f4xx_can.c ****       (#) CAN pins configuration
  27:/home/rdu/Workspace/project_templates/mcu/stm32_ws/src/libraries/STM32F4xx_StdPeriph_Driver/src/stm32f4xx_can.c ****         (++) Enable the clock for the CAN GPIOs using the following function:
  28:/home/rdu/Workspace/project_templates/mcu/stm32_ws/src/libraries/STM32F4xx_StdPeriph_Driver/src/stm32f4xx_can.c ****              RCC_AHB1PeriphClockCmd(RCC_AHB1Periph_GPIOx, ENABLE);   
  29:/home/rdu/Workspace/project_templates/mcu/stm32_ws/src/libraries/STM32F4xx_StdPeriph_Driver/src/stm32f4xx_can.c ****         (++) Connect the involved CAN pins to AF9 using the following function 
  30:/home/rdu/Workspace/project_templates/mcu/stm32_ws/src/libraries/STM32F4xx_StdPeriph_Driver/src/stm32f4xx_can.c ****              GPIO_PinAFConfig(GPIOx, GPIO_PinSourcex, GPIO_AF_CANx); 
  31:/home/rdu/Workspace/project_templates/mcu/stm32_ws/src/libraries/STM32F4xx_StdPeriph_Driver/src/stm32f4xx_can.c ****         (++) Configure these CAN pins in alternate function mode by calling
  32:/home/rdu/Workspace/project_templates/mcu/stm32_ws/src/libraries/STM32F4xx_StdPeriph_Driver/src/stm32f4xx_can.c ****              the function  GPIO_Init();
  33:/home/rdu/Workspace/project_templates/mcu/stm32_ws/src/libraries/STM32F4xx_StdPeriph_Driver/src/stm32f4xx_can.c ****       
  34:/home/rdu/Workspace/project_templates/mcu/stm32_ws/src/libraries/STM32F4xx_StdPeriph_Driver/src/stm32f4xx_can.c ****       (#) Initialize and configure the CAN using CAN_Init() and 
  35:/home/rdu/Workspace/project_templates/mcu/stm32_ws/src/libraries/STM32F4xx_StdPeriph_Driver/src/stm32f4xx_can.c ****           CAN_FilterInit() functions.   
  36:/home/rdu/Workspace/project_templates/mcu/stm32_ws/src/libraries/STM32F4xx_StdPeriph_Driver/src/stm32f4xx_can.c ****                  
  37:/home/rdu/Workspace/project_templates/mcu/stm32_ws/src/libraries/STM32F4xx_StdPeriph_Driver/src/stm32f4xx_can.c ****       (#) Transmit the desired CAN frame using CAN_Transmit() function.
  38:/home/rdu/Workspace/project_templates/mcu/stm32_ws/src/libraries/STM32F4xx_StdPeriph_Driver/src/stm32f4xx_can.c ****            
  39:/home/rdu/Workspace/project_templates/mcu/stm32_ws/src/libraries/STM32F4xx_StdPeriph_Driver/src/stm32f4xx_can.c ****       (#) Check the transmission of a CAN frame using CAN_TransmitStatus()
  40:/home/rdu/Workspace/project_templates/mcu/stm32_ws/src/libraries/STM32F4xx_StdPeriph_Driver/src/stm32f4xx_can.c ****           function.
  41:/home/rdu/Workspace/project_templates/mcu/stm32_ws/src/libraries/STM32F4xx_StdPeriph_Driver/src/stm32f4xx_can.c ****                  
  42:/home/rdu/Workspace/project_templates/mcu/stm32_ws/src/libraries/STM32F4xx_StdPeriph_Driver/src/stm32f4xx_can.c ****       (#) Cancel the transmission of a CAN frame using CAN_CancelTransmit()
  43:/home/rdu/Workspace/project_templates/mcu/stm32_ws/src/libraries/STM32F4xx_StdPeriph_Driver/src/stm32f4xx_can.c ****           function.  
  44:/home/rdu/Workspace/project_templates/mcu/stm32_ws/src/libraries/STM32F4xx_StdPeriph_Driver/src/stm32f4xx_can.c ****               
  45:/home/rdu/Workspace/project_templates/mcu/stm32_ws/src/libraries/STM32F4xx_StdPeriph_Driver/src/stm32f4xx_can.c ****       (#) Receive a CAN frame using CAN_Receive() function.
  46:/home/rdu/Workspace/project_templates/mcu/stm32_ws/src/libraries/STM32F4xx_StdPeriph_Driver/src/stm32f4xx_can.c ****            
  47:/home/rdu/Workspace/project_templates/mcu/stm32_ws/src/libraries/STM32F4xx_StdPeriph_Driver/src/stm32f4xx_can.c ****       (#) Release the receive FIFOs using CAN_FIFORelease() function.
  48:/home/rdu/Workspace/project_templates/mcu/stm32_ws/src/libraries/STM32F4xx_StdPeriph_Driver/src/stm32f4xx_can.c ****                  
  49:/home/rdu/Workspace/project_templates/mcu/stm32_ws/src/libraries/STM32F4xx_StdPeriph_Driver/src/stm32f4xx_can.c ****       (#) Return the number of pending received frames using 
  50:/home/rdu/Workspace/project_templates/mcu/stm32_ws/src/libraries/STM32F4xx_StdPeriph_Driver/src/stm32f4xx_can.c ****           CAN_MessagePending() function.            
  51:/home/rdu/Workspace/project_templates/mcu/stm32_ws/src/libraries/STM32F4xx_StdPeriph_Driver/src/stm32f4xx_can.c ****                      
  52:/home/rdu/Workspace/project_templates/mcu/stm32_ws/src/libraries/STM32F4xx_StdPeriph_Driver/src/stm32f4xx_can.c ****       (#) To control CAN events you can use one of the following two methods:
  53:/home/rdu/Workspace/project_templates/mcu/stm32_ws/src/libraries/STM32F4xx_StdPeriph_Driver/src/stm32f4xx_can.c ****         (++) Check on CAN flags using the CAN_GetFlagStatus() function.  
  54:/home/rdu/Workspace/project_templates/mcu/stm32_ws/src/libraries/STM32F4xx_StdPeriph_Driver/src/stm32f4xx_can.c ****         (++) Use CAN interrupts through the function CAN_ITConfig() at 
  55:/home/rdu/Workspace/project_templates/mcu/stm32_ws/src/libraries/STM32F4xx_StdPeriph_Driver/src/stm32f4xx_can.c ****              initialization phase and CAN_GetITStatus() function into 
  56:/home/rdu/Workspace/project_templates/mcu/stm32_ws/src/libraries/STM32F4xx_StdPeriph_Driver/src/stm32f4xx_can.c ****              interrupt routines to check if the event has occurred or not.
  57:/home/rdu/Workspace/project_templates/mcu/stm32_ws/src/libraries/STM32F4xx_StdPeriph_Driver/src/stm32f4xx_can.c ****              After checking on a flag you should clear it using CAN_ClearFlag()
  58:/home/rdu/Workspace/project_templates/mcu/stm32_ws/src/libraries/STM32F4xx_StdPeriph_Driver/src/stm32f4xx_can.c ****              function. And after checking on an interrupt event you should 
  59:/home/rdu/Workspace/project_templates/mcu/stm32_ws/src/libraries/STM32F4xx_StdPeriph_Driver/src/stm32f4xx_can.c ****              clear it using CAN_ClearITPendingBit() function.            
  60:/home/rdu/Workspace/project_templates/mcu/stm32_ws/src/libraries/STM32F4xx_StdPeriph_Driver/src/stm32f4xx_can.c **** 
  61:/home/rdu/Workspace/project_templates/mcu/stm32_ws/src/libraries/STM32F4xx_StdPeriph_Driver/src/stm32f4xx_can.c **** @endverbatim
  62:/home/rdu/Workspace/project_templates/mcu/stm32_ws/src/libraries/STM32F4xx_StdPeriph_Driver/src/stm32f4xx_can.c ****            
  63:/home/rdu/Workspace/project_templates/mcu/stm32_ws/src/libraries/STM32F4xx_StdPeriph_Driver/src/stm32f4xx_can.c ****   ******************************************************************************
  64:/home/rdu/Workspace/project_templates/mcu/stm32_ws/src/libraries/STM32F4xx_StdPeriph_Driver/src/stm32f4xx_can.c ****   * @attention
  65:/home/rdu/Workspace/project_templates/mcu/stm32_ws/src/libraries/STM32F4xx_StdPeriph_Driver/src/stm32f4xx_can.c ****   *
  66:/home/rdu/Workspace/project_templates/mcu/stm32_ws/src/libraries/STM32F4xx_StdPeriph_Driver/src/stm32f4xx_can.c ****   * <h2><center>&copy; COPYRIGHT 2016 STMicroelectronics</center></h2>
  67:/home/rdu/Workspace/project_templates/mcu/stm32_ws/src/libraries/STM32F4xx_StdPeriph_Driver/src/stm32f4xx_can.c ****   *
  68:/home/rdu/Workspace/project_templates/mcu/stm32_ws/src/libraries/STM32F4xx_StdPeriph_Driver/src/stm32f4xx_can.c ****   * Licensed under MCD-ST Liberty SW License Agreement V2, (the "License");
  69:/home/rdu/Workspace/project_templates/mcu/stm32_ws/src/libraries/STM32F4xx_StdPeriph_Driver/src/stm32f4xx_can.c ****   * You may not use this file except in compliance with the License.
  70:/home/rdu/Workspace/project_templates/mcu/stm32_ws/src/libraries/STM32F4xx_StdPeriph_Driver/src/stm32f4xx_can.c ****   * You may obtain a copy of the License at:
  71:/home/rdu/Workspace/project_templates/mcu/stm32_ws/src/libraries/STM32F4xx_StdPeriph_Driver/src/stm32f4xx_can.c ****   *
  72:/home/rdu/Workspace/project_templates/mcu/stm32_ws/src/libraries/STM32F4xx_StdPeriph_Driver/src/stm32f4xx_can.c ****   *        http://www.st.com/software_license_agreement_liberty_v2
  73:/home/rdu/Workspace/project_templates/mcu/stm32_ws/src/libraries/STM32F4xx_StdPeriph_Driver/src/stm32f4xx_can.c ****   *
  74:/home/rdu/Workspace/project_templates/mcu/stm32_ws/src/libraries/STM32F4xx_StdPeriph_Driver/src/stm32f4xx_can.c ****   * Unless required by applicable law or agreed to in writing, software 
  75:/home/rdu/Workspace/project_templates/mcu/stm32_ws/src/libraries/STM32F4xx_StdPeriph_Driver/src/stm32f4xx_can.c ****   * distributed under the License is distributed on an "AS IS" BASIS, 
  76:/home/rdu/Workspace/project_templates/mcu/stm32_ws/src/libraries/STM32F4xx_StdPeriph_Driver/src/stm32f4xx_can.c ****   * WITHOUT WARRANTIES OR CONDITIONS OF ANY KIND, either express or implied.
  77:/home/rdu/Workspace/project_templates/mcu/stm32_ws/src/libraries/STM32F4xx_StdPeriph_Driver/src/stm32f4xx_can.c ****   * See the License for the specific language governing permissions and
  78:/home/rdu/Workspace/project_templates/mcu/stm32_ws/src/libraries/STM32F4xx_StdPeriph_Driver/src/stm32f4xx_can.c ****   * limitations under the License.
  79:/home/rdu/Workspace/project_templates/mcu/stm32_ws/src/libraries/STM32F4xx_StdPeriph_Driver/src/stm32f4xx_can.c ****   *
  80:/home/rdu/Workspace/project_templates/mcu/stm32_ws/src/libraries/STM32F4xx_StdPeriph_Driver/src/stm32f4xx_can.c ****   ******************************************************************************  
  81:/home/rdu/Workspace/project_templates/mcu/stm32_ws/src/libraries/STM32F4xx_StdPeriph_Driver/src/stm32f4xx_can.c ****   */
  82:/home/rdu/Workspace/project_templates/mcu/stm32_ws/src/libraries/STM32F4xx_StdPeriph_Driver/src/stm32f4xx_can.c **** 
  83:/home/rdu/Workspace/project_templates/mcu/stm32_ws/src/libraries/STM32F4xx_StdPeriph_Driver/src/stm32f4xx_can.c **** /* Includes ------------------------------------------------------------------*/
  84:/home/rdu/Workspace/project_templates/mcu/stm32_ws/src/libraries/STM32F4xx_StdPeriph_Driver/src/stm32f4xx_can.c **** #include "stm32f4xx_can.h"
  85:/home/rdu/Workspace/project_templates/mcu/stm32_ws/src/libraries/STM32F4xx_StdPeriph_Driver/src/stm32f4xx_can.c **** #include "stm32f4xx_rcc.h"
  86:/home/rdu/Workspace/project_templates/mcu/stm32_ws/src/libraries/STM32F4xx_StdPeriph_Driver/src/stm32f4xx_can.c **** 
  87:/home/rdu/Workspace/project_templates/mcu/stm32_ws/src/libraries/STM32F4xx_StdPeriph_Driver/src/stm32f4xx_can.c **** /** @addtogroup STM32F4xx_StdPeriph_Driver
  88:/home/rdu/Workspace/project_templates/mcu/stm32_ws/src/libraries/STM32F4xx_StdPeriph_Driver/src/stm32f4xx_can.c ****   * @{
  89:/home/rdu/Workspace/project_templates/mcu/stm32_ws/src/libraries/STM32F4xx_StdPeriph_Driver/src/stm32f4xx_can.c ****   */
  90:/home/rdu/Workspace/project_templates/mcu/stm32_ws/src/libraries/STM32F4xx_StdPeriph_Driver/src/stm32f4xx_can.c **** 
  91:/home/rdu/Workspace/project_templates/mcu/stm32_ws/src/libraries/STM32F4xx_StdPeriph_Driver/src/stm32f4xx_can.c **** /** @defgroup CAN 
  92:/home/rdu/Workspace/project_templates/mcu/stm32_ws/src/libraries/STM32F4xx_StdPeriph_Driver/src/stm32f4xx_can.c ****   * @brief CAN driver modules
  93:/home/rdu/Workspace/project_templates/mcu/stm32_ws/src/libraries/STM32F4xx_StdPeriph_Driver/src/stm32f4xx_can.c ****   * @{
  94:/home/rdu/Workspace/project_templates/mcu/stm32_ws/src/libraries/STM32F4xx_StdPeriph_Driver/src/stm32f4xx_can.c ****   */ 
  95:/home/rdu/Workspace/project_templates/mcu/stm32_ws/src/libraries/STM32F4xx_StdPeriph_Driver/src/stm32f4xx_can.c **** /* Private typedef -----------------------------------------------------------*/
  96:/home/rdu/Workspace/project_templates/mcu/stm32_ws/src/libraries/STM32F4xx_StdPeriph_Driver/src/stm32f4xx_can.c **** /* Private define ------------------------------------------------------------*/
  97:/home/rdu/Workspace/project_templates/mcu/stm32_ws/src/libraries/STM32F4xx_StdPeriph_Driver/src/stm32f4xx_can.c **** 
  98:/home/rdu/Workspace/project_templates/mcu/stm32_ws/src/libraries/STM32F4xx_StdPeriph_Driver/src/stm32f4xx_can.c **** /* CAN Master Control Register bits */
  99:/home/rdu/Workspace/project_templates/mcu/stm32_ws/src/libraries/STM32F4xx_StdPeriph_Driver/src/stm32f4xx_can.c **** #define MCR_DBF           ((uint32_t)0x00010000) /* software master reset */
 100:/home/rdu/Workspace/project_templates/mcu/stm32_ws/src/libraries/STM32F4xx_StdPeriph_Driver/src/stm32f4xx_can.c **** 
 101:/home/rdu/Workspace/project_templates/mcu/stm32_ws/src/libraries/STM32F4xx_StdPeriph_Driver/src/stm32f4xx_can.c **** /* CAN Mailbox Transmit Request */
 102:/home/rdu/Workspace/project_templates/mcu/stm32_ws/src/libraries/STM32F4xx_StdPeriph_Driver/src/stm32f4xx_can.c **** #define TMIDxR_TXRQ       ((uint32_t)0x00000001) /* Transmit mailbox request */
 103:/home/rdu/Workspace/project_templates/mcu/stm32_ws/src/libraries/STM32F4xx_StdPeriph_Driver/src/stm32f4xx_can.c **** 
 104:/home/rdu/Workspace/project_templates/mcu/stm32_ws/src/libraries/STM32F4xx_StdPeriph_Driver/src/stm32f4xx_can.c **** /* CAN Filter Master Register bits */
 105:/home/rdu/Workspace/project_templates/mcu/stm32_ws/src/libraries/STM32F4xx_StdPeriph_Driver/src/stm32f4xx_can.c **** #define FMR_FINIT         ((uint32_t)0x00000001) /* Filter init mode */
 106:/home/rdu/Workspace/project_templates/mcu/stm32_ws/src/libraries/STM32F4xx_StdPeriph_Driver/src/stm32f4xx_can.c **** 
 107:/home/rdu/Workspace/project_templates/mcu/stm32_ws/src/libraries/STM32F4xx_StdPeriph_Driver/src/stm32f4xx_can.c **** /* Time out for INAK bit */
 108:/home/rdu/Workspace/project_templates/mcu/stm32_ws/src/libraries/STM32F4xx_StdPeriph_Driver/src/stm32f4xx_can.c **** #define INAK_TIMEOUT      ((uint32_t)0x0000FFFF)
 109:/home/rdu/Workspace/project_templates/mcu/stm32_ws/src/libraries/STM32F4xx_StdPeriph_Driver/src/stm32f4xx_can.c **** /* Time out for SLAK bit */
 110:/home/rdu/Workspace/project_templates/mcu/stm32_ws/src/libraries/STM32F4xx_StdPeriph_Driver/src/stm32f4xx_can.c **** #define SLAK_TIMEOUT      ((uint32_t)0x0000FFFF)
 111:/home/rdu/Workspace/project_templates/mcu/stm32_ws/src/libraries/STM32F4xx_StdPeriph_Driver/src/stm32f4xx_can.c **** 
 112:/home/rdu/Workspace/project_templates/mcu/stm32_ws/src/libraries/STM32F4xx_StdPeriph_Driver/src/stm32f4xx_can.c **** /* Flags in TSR register */
 113:/home/rdu/Workspace/project_templates/mcu/stm32_ws/src/libraries/STM32F4xx_StdPeriph_Driver/src/stm32f4xx_can.c **** #define CAN_FLAGS_TSR     ((uint32_t)0x08000000) 
 114:/home/rdu/Workspace/project_templates/mcu/stm32_ws/src/libraries/STM32F4xx_StdPeriph_Driver/src/stm32f4xx_can.c **** /* Flags in RF1R register */
 115:/home/rdu/Workspace/project_templates/mcu/stm32_ws/src/libraries/STM32F4xx_StdPeriph_Driver/src/stm32f4xx_can.c **** #define CAN_FLAGS_RF1R    ((uint32_t)0x04000000) 
 116:/home/rdu/Workspace/project_templates/mcu/stm32_ws/src/libraries/STM32F4xx_StdPeriph_Driver/src/stm32f4xx_can.c **** /* Flags in RF0R register */
 117:/home/rdu/Workspace/project_templates/mcu/stm32_ws/src/libraries/STM32F4xx_StdPeriph_Driver/src/stm32f4xx_can.c **** #define CAN_FLAGS_RF0R    ((uint32_t)0x02000000) 
 118:/home/rdu/Workspace/project_templates/mcu/stm32_ws/src/libraries/STM32F4xx_StdPeriph_Driver/src/stm32f4xx_can.c **** /* Flags in MSR register */
 119:/home/rdu/Workspace/project_templates/mcu/stm32_ws/src/libraries/STM32F4xx_StdPeriph_Driver/src/stm32f4xx_can.c **** #define CAN_FLAGS_MSR     ((uint32_t)0x01000000) 
 120:/home/rdu/Workspace/project_templates/mcu/stm32_ws/src/libraries/STM32F4xx_StdPeriph_Driver/src/stm32f4xx_can.c **** /* Flags in ESR register */
 121:/home/rdu/Workspace/project_templates/mcu/stm32_ws/src/libraries/STM32F4xx_StdPeriph_Driver/src/stm32f4xx_can.c **** #define CAN_FLAGS_ESR     ((uint32_t)0x00F00000) 
 122:/home/rdu/Workspace/project_templates/mcu/stm32_ws/src/libraries/STM32F4xx_StdPeriph_Driver/src/stm32f4xx_can.c **** 
 123:/home/rdu/Workspace/project_templates/mcu/stm32_ws/src/libraries/STM32F4xx_StdPeriph_Driver/src/stm32f4xx_can.c **** /* Mailboxes definition */
 124:/home/rdu/Workspace/project_templates/mcu/stm32_ws/src/libraries/STM32F4xx_StdPeriph_Driver/src/stm32f4xx_can.c **** #define CAN_TXMAILBOX_0   ((uint8_t)0x00)
 125:/home/rdu/Workspace/project_templates/mcu/stm32_ws/src/libraries/STM32F4xx_StdPeriph_Driver/src/stm32f4xx_can.c **** #define CAN_TXMAILBOX_1   ((uint8_t)0x01)
 126:/home/rdu/Workspace/project_templates/mcu/stm32_ws/src/libraries/STM32F4xx_StdPeriph_Driver/src/stm32f4xx_can.c **** #define CAN_TXMAILBOX_2   ((uint8_t)0x02) 
 127:/home/rdu/Workspace/project_templates/mcu/stm32_ws/src/libraries/STM32F4xx_StdPeriph_Driver/src/stm32f4xx_can.c **** 
 128:/home/rdu/Workspace/project_templates/mcu/stm32_ws/src/libraries/STM32F4xx_StdPeriph_Driver/src/stm32f4xx_can.c **** #define CAN_MODE_MASK     ((uint32_t) 0x00000003)
 129:/home/rdu/Workspace/project_templates/mcu/stm32_ws/src/libraries/STM32F4xx_StdPeriph_Driver/src/stm32f4xx_can.c **** 
 130:/home/rdu/Workspace/project_templates/mcu/stm32_ws/src/libraries/STM32F4xx_StdPeriph_Driver/src/stm32f4xx_can.c **** /* Private macro -------------------------------------------------------------*/
 131:/home/rdu/Workspace/project_templates/mcu/stm32_ws/src/libraries/STM32F4xx_StdPeriph_Driver/src/stm32f4xx_can.c **** /* Private variables ---------------------------------------------------------*/
 132:/home/rdu/Workspace/project_templates/mcu/stm32_ws/src/libraries/STM32F4xx_StdPeriph_Driver/src/stm32f4xx_can.c **** /* Private function prototypes -----------------------------------------------*/
 133:/home/rdu/Workspace/project_templates/mcu/stm32_ws/src/libraries/STM32F4xx_StdPeriph_Driver/src/stm32f4xx_can.c **** /* Private functions ---------------------------------------------------------*/
 134:/home/rdu/Workspace/project_templates/mcu/stm32_ws/src/libraries/STM32F4xx_StdPeriph_Driver/src/stm32f4xx_can.c **** static ITStatus CheckITStatus(uint32_t CAN_Reg, uint32_t It_Bit);
 135:/home/rdu/Workspace/project_templates/mcu/stm32_ws/src/libraries/STM32F4xx_StdPeriph_Driver/src/stm32f4xx_can.c **** 
 136:/home/rdu/Workspace/project_templates/mcu/stm32_ws/src/libraries/STM32F4xx_StdPeriph_Driver/src/stm32f4xx_can.c **** /** @defgroup CAN_Private_Functions
 137:/home/rdu/Workspace/project_templates/mcu/stm32_ws/src/libraries/STM32F4xx_StdPeriph_Driver/src/stm32f4xx_can.c ****   * @{
 138:/home/rdu/Workspace/project_templates/mcu/stm32_ws/src/libraries/STM32F4xx_StdPeriph_Driver/src/stm32f4xx_can.c ****   */
 139:/home/rdu/Workspace/project_templates/mcu/stm32_ws/src/libraries/STM32F4xx_StdPeriph_Driver/src/stm32f4xx_can.c **** 
 140:/home/rdu/Workspace/project_templates/mcu/stm32_ws/src/libraries/STM32F4xx_StdPeriph_Driver/src/stm32f4xx_can.c **** /** @defgroup CAN_Group1 Initialization and Configuration functions
 141:/home/rdu/Workspace/project_templates/mcu/stm32_ws/src/libraries/STM32F4xx_StdPeriph_Driver/src/stm32f4xx_can.c ****  *  @brief    Initialization and Configuration functions 
 142:/home/rdu/Workspace/project_templates/mcu/stm32_ws/src/libraries/STM32F4xx_StdPeriph_Driver/src/stm32f4xx_can.c ****  *
 143:/home/rdu/Workspace/project_templates/mcu/stm32_ws/src/libraries/STM32F4xx_StdPeriph_Driver/src/stm32f4xx_can.c **** @verbatim    
 144:/home/rdu/Workspace/project_templates/mcu/stm32_ws/src/libraries/STM32F4xx_StdPeriph_Driver/src/stm32f4xx_can.c ****  ===============================================================================
 145:/home/rdu/Workspace/project_templates/mcu/stm32_ws/src/libraries/STM32F4xx_StdPeriph_Driver/src/stm32f4xx_can.c ****               ##### Initialization and Configuration functions #####
 146:/home/rdu/Workspace/project_templates/mcu/stm32_ws/src/libraries/STM32F4xx_StdPeriph_Driver/src/stm32f4xx_can.c ****  ===============================================================================  
 147:/home/rdu/Workspace/project_templates/mcu/stm32_ws/src/libraries/STM32F4xx_StdPeriph_Driver/src/stm32f4xx_can.c ****     [..] This section provides functions allowing to 
 148:/home/rdu/Workspace/project_templates/mcu/stm32_ws/src/libraries/STM32F4xx_StdPeriph_Driver/src/stm32f4xx_can.c ****       (+) Initialize the CAN peripherals : Prescaler, operating mode, the maximum 
 149:/home/rdu/Workspace/project_templates/mcu/stm32_ws/src/libraries/STM32F4xx_StdPeriph_Driver/src/stm32f4xx_can.c ****           number of time quanta to perform resynchronization, the number of time 
 150:/home/rdu/Workspace/project_templates/mcu/stm32_ws/src/libraries/STM32F4xx_StdPeriph_Driver/src/stm32f4xx_can.c ****           quanta in Bit Segment 1 and 2 and many other modes. 
 151:/home/rdu/Workspace/project_templates/mcu/stm32_ws/src/libraries/STM32F4xx_StdPeriph_Driver/src/stm32f4xx_can.c ****           Refer to  @ref CAN_InitTypeDef  for more details.
 152:/home/rdu/Workspace/project_templates/mcu/stm32_ws/src/libraries/STM32F4xx_StdPeriph_Driver/src/stm32f4xx_can.c ****       (+) Configures the CAN reception filter.                                      
 153:/home/rdu/Workspace/project_templates/mcu/stm32_ws/src/libraries/STM32F4xx_StdPeriph_Driver/src/stm32f4xx_can.c ****       (+) Select the start bank filter for slave CAN.
 154:/home/rdu/Workspace/project_templates/mcu/stm32_ws/src/libraries/STM32F4xx_StdPeriph_Driver/src/stm32f4xx_can.c ****       (+) Enables or disables the Debug Freeze mode for CAN
 155:/home/rdu/Workspace/project_templates/mcu/stm32_ws/src/libraries/STM32F4xx_StdPeriph_Driver/src/stm32f4xx_can.c ****       (+)Enables or disables the CAN Time Trigger Operation communication mode
 156:/home/rdu/Workspace/project_templates/mcu/stm32_ws/src/libraries/STM32F4xx_StdPeriph_Driver/src/stm32f4xx_can.c ****    
 157:/home/rdu/Workspace/project_templates/mcu/stm32_ws/src/libraries/STM32F4xx_StdPeriph_Driver/src/stm32f4xx_can.c **** @endverbatim
 158:/home/rdu/Workspace/project_templates/mcu/stm32_ws/src/libraries/STM32F4xx_StdPeriph_Driver/src/stm32f4xx_can.c ****   * @{
 159:/home/rdu/Workspace/project_templates/mcu/stm32_ws/src/libraries/STM32F4xx_StdPeriph_Driver/src/stm32f4xx_can.c ****   */
 160:/home/rdu/Workspace/project_templates/mcu/stm32_ws/src/libraries/STM32F4xx_StdPeriph_Driver/src/stm32f4xx_can.c ****   
 161:/home/rdu/Workspace/project_templates/mcu/stm32_ws/src/libraries/STM32F4xx_StdPeriph_Driver/src/stm32f4xx_can.c **** /**
 162:/home/rdu/Workspace/project_templates/mcu/stm32_ws/src/libraries/STM32F4xx_StdPeriph_Driver/src/stm32f4xx_can.c ****   * @brief  Deinitializes the CAN peripheral registers to their default reset values.
 163:/home/rdu/Workspace/project_templates/mcu/stm32_ws/src/libraries/STM32F4xx_StdPeriph_Driver/src/stm32f4xx_can.c ****   * @param  CANx: where x can be 1,2 or 3 to select the CAN peripheral.
 164:/home/rdu/Workspace/project_templates/mcu/stm32_ws/src/libraries/STM32F4xx_StdPeriph_Driver/src/stm32f4xx_can.c ****   * @note   CAN3 peripheral is available only for STM32F413_423xx devices
 165:/home/rdu/Workspace/project_templates/mcu/stm32_ws/src/libraries/STM32F4xx_StdPeriph_Driver/src/stm32f4xx_can.c ****   * @retval None.
 166:/home/rdu/Workspace/project_templates/mcu/stm32_ws/src/libraries/STM32F4xx_StdPeriph_Driver/src/stm32f4xx_can.c ****   */
 167:/home/rdu/Workspace/project_templates/mcu/stm32_ws/src/libraries/STM32F4xx_StdPeriph_Driver/src/stm32f4xx_can.c **** void CAN_DeInit(CAN_TypeDef* CANx)
 168:/home/rdu/Workspace/project_templates/mcu/stm32_ws/src/libraries/STM32F4xx_StdPeriph_Driver/src/stm32f4xx_can.c **** {
  26              		.loc 1 168 0
  27              		.cfi_startproc
  28              		@ args = 0, pretend = 0, frame = 8
  29              		@ frame_needed = 0, uses_anonymous_args = 0
  30 0000 00B5     		push	{lr}
  31              	.LCFI0:
  32              		.cfi_def_cfa_offset 4
  33              		.cfi_offset 14, -4
  34 0002 83B0     		sub	sp, sp, #12
  35              	.LCFI1:
  36              		.cfi_def_cfa_offset 16
  37 0004 0190     		str	r0, [sp, #4]
 169:/home/rdu/Workspace/project_templates/mcu/stm32_ws/src/libraries/STM32F4xx_StdPeriph_Driver/src/stm32f4xx_can.c ****   /* Check the parameters */
 170:/home/rdu/Workspace/project_templates/mcu/stm32_ws/src/libraries/STM32F4xx_StdPeriph_Driver/src/stm32f4xx_can.c ****   assert_param(IS_CAN_ALL_PERIPH(CANx));
 171:/home/rdu/Workspace/project_templates/mcu/stm32_ws/src/libraries/STM32F4xx_StdPeriph_Driver/src/stm32f4xx_can.c ****  
 172:/home/rdu/Workspace/project_templates/mcu/stm32_ws/src/libraries/STM32F4xx_StdPeriph_Driver/src/stm32f4xx_can.c ****   if (CANx == CAN1)
  38              		.loc 1 172 0
  39 0006 019B     		ldr	r3, [sp, #4]
  40 0008 0D4A     		ldr	r2, .L5
  41 000a 9342     		cmp	r3, r2
  42 000c 0AD1     		bne	.L2
 173:/home/rdu/Workspace/project_templates/mcu/stm32_ws/src/libraries/STM32F4xx_StdPeriph_Driver/src/stm32f4xx_can.c ****   {
 174:/home/rdu/Workspace/project_templates/mcu/stm32_ws/src/libraries/STM32F4xx_StdPeriph_Driver/src/stm32f4xx_can.c ****     /* Enable CAN1 reset state */
 175:/home/rdu/Workspace/project_templates/mcu/stm32_ws/src/libraries/STM32F4xx_StdPeriph_Driver/src/stm32f4xx_can.c ****     RCC_APB1PeriphResetCmd(RCC_APB1Periph_CAN1, ENABLE);
  43              		.loc 1 175 0
  44 000e 0121     		movs	r1, #1
  45 0010 4FF00070 		mov	r0, #33554432
  46 0014 FFF7FEFF 		bl	RCC_APB1PeriphResetCmd
 176:/home/rdu/Workspace/project_templates/mcu/stm32_ws/src/libraries/STM32F4xx_StdPeriph_Driver/src/stm32f4xx_can.c ****     /* Release CAN1 from reset state */
 177:/home/rdu/Workspace/project_templates/mcu/stm32_ws/src/libraries/STM32F4xx_StdPeriph_Driver/src/stm32f4xx_can.c ****     RCC_APB1PeriphResetCmd(RCC_APB1Periph_CAN1, DISABLE);
  47              		.loc 1 177 0
  48 0018 0021     		movs	r1, #0
  49 001a 4FF00070 		mov	r0, #33554432
  50 001e FFF7FEFF 		bl	RCC_APB1PeriphResetCmd
 178:/home/rdu/Workspace/project_templates/mcu/stm32_ws/src/libraries/STM32F4xx_StdPeriph_Driver/src/stm32f4xx_can.c ****   }
 179:/home/rdu/Workspace/project_templates/mcu/stm32_ws/src/libraries/STM32F4xx_StdPeriph_Driver/src/stm32f4xx_can.c **** #if defined(STM32F413_423xx)
 180:/home/rdu/Workspace/project_templates/mcu/stm32_ws/src/libraries/STM32F4xx_StdPeriph_Driver/src/stm32f4xx_can.c ****   else if(CANx == CAN2)
 181:/home/rdu/Workspace/project_templates/mcu/stm32_ws/src/libraries/STM32F4xx_StdPeriph_Driver/src/stm32f4xx_can.c ****   {  
 182:/home/rdu/Workspace/project_templates/mcu/stm32_ws/src/libraries/STM32F4xx_StdPeriph_Driver/src/stm32f4xx_can.c ****     /* Enable CAN2 reset state */
 183:/home/rdu/Workspace/project_templates/mcu/stm32_ws/src/libraries/STM32F4xx_StdPeriph_Driver/src/stm32f4xx_can.c ****     RCC_APB1PeriphResetCmd(RCC_APB1Periph_CAN2, ENABLE);
 184:/home/rdu/Workspace/project_templates/mcu/stm32_ws/src/libraries/STM32F4xx_StdPeriph_Driver/src/stm32f4xx_can.c ****     /* Release CAN2 from reset state */
 185:/home/rdu/Workspace/project_templates/mcu/stm32_ws/src/libraries/STM32F4xx_StdPeriph_Driver/src/stm32f4xx_can.c ****     RCC_APB1PeriphResetCmd(RCC_APB1Periph_CAN2, DISABLE);
 186:/home/rdu/Workspace/project_templates/mcu/stm32_ws/src/libraries/STM32F4xx_StdPeriph_Driver/src/stm32f4xx_can.c ****   }
 187:/home/rdu/Workspace/project_templates/mcu/stm32_ws/src/libraries/STM32F4xx_StdPeriph_Driver/src/stm32f4xx_can.c ****   
 188:/home/rdu/Workspace/project_templates/mcu/stm32_ws/src/libraries/STM32F4xx_StdPeriph_Driver/src/stm32f4xx_can.c ****   else /* CAN3 available only for STM32F413_423xx */
 189:/home/rdu/Workspace/project_templates/mcu/stm32_ws/src/libraries/STM32F4xx_StdPeriph_Driver/src/stm32f4xx_can.c ****   {
 190:/home/rdu/Workspace/project_templates/mcu/stm32_ws/src/libraries/STM32F4xx_StdPeriph_Driver/src/stm32f4xx_can.c ****     /* Enable CAN3 reset state */
 191:/home/rdu/Workspace/project_templates/mcu/stm32_ws/src/libraries/STM32F4xx_StdPeriph_Driver/src/stm32f4xx_can.c ****     RCC_APB1PeriphResetCmd(RCC_APB1Periph_CAN3, ENABLE);
 192:/home/rdu/Workspace/project_templates/mcu/stm32_ws/src/libraries/STM32F4xx_StdPeriph_Driver/src/stm32f4xx_can.c ****     /* Release CAN3 from reset state */
 193:/home/rdu/Workspace/project_templates/mcu/stm32_ws/src/libraries/STM32F4xx_StdPeriph_Driver/src/stm32f4xx_can.c ****     RCC_APB1PeriphResetCmd(RCC_APB1Periph_CAN3, DISABLE); 
 194:/home/rdu/Workspace/project_templates/mcu/stm32_ws/src/libraries/STM32F4xx_StdPeriph_Driver/src/stm32f4xx_can.c ****   }
 195:/home/rdu/Workspace/project_templates/mcu/stm32_ws/src/libraries/STM32F4xx_StdPeriph_Driver/src/stm32f4xx_can.c **** #else
 196:/home/rdu/Workspace/project_templates/mcu/stm32_ws/src/libraries/STM32F4xx_StdPeriph_Driver/src/stm32f4xx_can.c ****   else
 197:/home/rdu/Workspace/project_templates/mcu/stm32_ws/src/libraries/STM32F4xx_StdPeriph_Driver/src/stm32f4xx_can.c ****   {
 198:/home/rdu/Workspace/project_templates/mcu/stm32_ws/src/libraries/STM32F4xx_StdPeriph_Driver/src/stm32f4xx_can.c ****     /* Enable CAN2 reset state */
 199:/home/rdu/Workspace/project_templates/mcu/stm32_ws/src/libraries/STM32F4xx_StdPeriph_Driver/src/stm32f4xx_can.c ****     RCC_APB1PeriphResetCmd(RCC_APB1Periph_CAN2, ENABLE);
 200:/home/rdu/Workspace/project_templates/mcu/stm32_ws/src/libraries/STM32F4xx_StdPeriph_Driver/src/stm32f4xx_can.c ****     /* Release CAN2 from reset state */
 201:/home/rdu/Workspace/project_templates/mcu/stm32_ws/src/libraries/STM32F4xx_StdPeriph_Driver/src/stm32f4xx_can.c ****     RCC_APB1PeriphResetCmd(RCC_APB1Periph_CAN2, DISABLE);
 202:/home/rdu/Workspace/project_templates/mcu/stm32_ws/src/libraries/STM32F4xx_StdPeriph_Driver/src/stm32f4xx_can.c ****   }
 203:/home/rdu/Workspace/project_templates/mcu/stm32_ws/src/libraries/STM32F4xx_StdPeriph_Driver/src/stm32f4xx_can.c **** #endif /* STM32F413_423xx */
 204:/home/rdu/Workspace/project_templates/mcu/stm32_ws/src/libraries/STM32F4xx_StdPeriph_Driver/src/stm32f4xx_can.c **** }
  51              		.loc 1 204 0
  52 0022 09E0     		b	.L4
  53              	.L2:
 199:/home/rdu/Workspace/project_templates/mcu/stm32_ws/src/libraries/STM32F4xx_StdPeriph_Driver/src/stm32f4xx_can.c ****     /* Release CAN2 from reset state */
  54              		.loc 1 199 0
  55 0024 0121     		movs	r1, #1
  56 0026 4FF08060 		mov	r0, #67108864
  57 002a FFF7FEFF 		bl	RCC_APB1PeriphResetCmd
 201:/home/rdu/Workspace/project_templates/mcu/stm32_ws/src/libraries/STM32F4xx_StdPeriph_Driver/src/stm32f4xx_can.c ****   }
  58              		.loc 1 201 0
  59 002e 0021     		movs	r1, #0
  60 0030 4FF08060 		mov	r0, #67108864
  61 0034 FFF7FEFF 		bl	RCC_APB1PeriphResetCmd
  62              	.L4:
  63              		.loc 1 204 0
  64 0038 00BF     		nop
  65 003a 03B0     		add	sp, sp, #12
  66              	.LCFI2:
  67              		.cfi_def_cfa_offset 4
  68              		@ sp needed
  69 003c 5DF804FB 		ldr	pc, [sp], #4
  70              	.L6:
  71              		.align	2
  72              	.L5:
  73 0040 00640040 		.word	1073767424
  74              		.cfi_endproc
  75              	.LFE123:
  77              		.section	.text.CAN_Init,"ax",%progbits
  78              		.align	1
  79              		.global	CAN_Init
  80              		.syntax unified
  81              		.thumb
  82              		.thumb_func
  83              		.fpu fpv4-sp-d16
  85              	CAN_Init:
  86              	.LFB124:
 205:/home/rdu/Workspace/project_templates/mcu/stm32_ws/src/libraries/STM32F4xx_StdPeriph_Driver/src/stm32f4xx_can.c **** 
 206:/home/rdu/Workspace/project_templates/mcu/stm32_ws/src/libraries/STM32F4xx_StdPeriph_Driver/src/stm32f4xx_can.c **** /**
 207:/home/rdu/Workspace/project_templates/mcu/stm32_ws/src/libraries/STM32F4xx_StdPeriph_Driver/src/stm32f4xx_can.c ****   * @brief  Initializes the CAN peripheral according to the specified
 208:/home/rdu/Workspace/project_templates/mcu/stm32_ws/src/libraries/STM32F4xx_StdPeriph_Driver/src/stm32f4xx_can.c ****   *         parameters in the CAN_InitStruct.
 209:/home/rdu/Workspace/project_templates/mcu/stm32_ws/src/libraries/STM32F4xx_StdPeriph_Driver/src/stm32f4xx_can.c ****   * @param  CANx: where x can be 1,2 or 3 to select the CAN peripheral.
 210:/home/rdu/Workspace/project_templates/mcu/stm32_ws/src/libraries/STM32F4xx_StdPeriph_Driver/src/stm32f4xx_can.c ****   * @param  CAN_InitStruct: pointer to a CAN_InitTypeDef structure that contains
 211:/home/rdu/Workspace/project_templates/mcu/stm32_ws/src/libraries/STM32F4xx_StdPeriph_Driver/src/stm32f4xx_can.c ****   *         the configuration information for the CAN peripheral.
 212:/home/rdu/Workspace/project_templates/mcu/stm32_ws/src/libraries/STM32F4xx_StdPeriph_Driver/src/stm32f4xx_can.c ****   * @note   CAN3 peripheral is available only for STM32F413_423xx devices
 213:/home/rdu/Workspace/project_templates/mcu/stm32_ws/src/libraries/STM32F4xx_StdPeriph_Driver/src/stm32f4xx_can.c ****   * @retval Constant indicates initialization succeed which will be 
 214:/home/rdu/Workspace/project_templates/mcu/stm32_ws/src/libraries/STM32F4xx_StdPeriph_Driver/src/stm32f4xx_can.c ****   *         CAN_InitStatus_Failed or CAN_InitStatus_Success.
 215:/home/rdu/Workspace/project_templates/mcu/stm32_ws/src/libraries/STM32F4xx_StdPeriph_Driver/src/stm32f4xx_can.c ****   */
 216:/home/rdu/Workspace/project_templates/mcu/stm32_ws/src/libraries/STM32F4xx_StdPeriph_Driver/src/stm32f4xx_can.c **** uint8_t CAN_Init(CAN_TypeDef* CANx, CAN_InitTypeDef* CAN_InitStruct)
 217:/home/rdu/Workspace/project_templates/mcu/stm32_ws/src/libraries/STM32F4xx_StdPeriph_Driver/src/stm32f4xx_can.c **** {
  87              		.loc 1 217 0
  88              		.cfi_startproc
  89              		@ args = 0, pretend = 0, frame = 16
  90              		@ frame_needed = 0, uses_anonymous_args = 0
  91              		@ link register save eliminated.
  92 0000 84B0     		sub	sp, sp, #16
  93              	.LCFI3:
  94              		.cfi_def_cfa_offset 16
  95 0002 0190     		str	r0, [sp, #4]
  96 0004 0091     		str	r1, [sp]
 218:/home/rdu/Workspace/project_templates/mcu/stm32_ws/src/libraries/STM32F4xx_StdPeriph_Driver/src/stm32f4xx_can.c ****   uint8_t InitStatus = CAN_InitStatus_Failed;
  97              		.loc 1 218 0
  98 0006 0023     		movs	r3, #0
  99 0008 8DF80F30 		strb	r3, [sp, #15]
 219:/home/rdu/Workspace/project_templates/mcu/stm32_ws/src/libraries/STM32F4xx_StdPeriph_Driver/src/stm32f4xx_can.c ****   uint32_t wait_ack = 0x00000000;
 100              		.loc 1 219 0
 101 000c 0023     		movs	r3, #0
 102 000e 0293     		str	r3, [sp, #8]
 220:/home/rdu/Workspace/project_templates/mcu/stm32_ws/src/libraries/STM32F4xx_StdPeriph_Driver/src/stm32f4xx_can.c ****   /* Check the parameters */
 221:/home/rdu/Workspace/project_templates/mcu/stm32_ws/src/libraries/STM32F4xx_StdPeriph_Driver/src/stm32f4xx_can.c ****   assert_param(IS_CAN_ALL_PERIPH(CANx));
 222:/home/rdu/Workspace/project_templates/mcu/stm32_ws/src/libraries/STM32F4xx_StdPeriph_Driver/src/stm32f4xx_can.c ****   assert_param(IS_FUNCTIONAL_STATE(CAN_InitStruct->CAN_TTCM));
 223:/home/rdu/Workspace/project_templates/mcu/stm32_ws/src/libraries/STM32F4xx_StdPeriph_Driver/src/stm32f4xx_can.c ****   assert_param(IS_FUNCTIONAL_STATE(CAN_InitStruct->CAN_ABOM));
 224:/home/rdu/Workspace/project_templates/mcu/stm32_ws/src/libraries/STM32F4xx_StdPeriph_Driver/src/stm32f4xx_can.c ****   assert_param(IS_FUNCTIONAL_STATE(CAN_InitStruct->CAN_AWUM));
 225:/home/rdu/Workspace/project_templates/mcu/stm32_ws/src/libraries/STM32F4xx_StdPeriph_Driver/src/stm32f4xx_can.c ****   assert_param(IS_FUNCTIONAL_STATE(CAN_InitStruct->CAN_NART));
 226:/home/rdu/Workspace/project_templates/mcu/stm32_ws/src/libraries/STM32F4xx_StdPeriph_Driver/src/stm32f4xx_can.c ****   assert_param(IS_FUNCTIONAL_STATE(CAN_InitStruct->CAN_RFLM));
 227:/home/rdu/Workspace/project_templates/mcu/stm32_ws/src/libraries/STM32F4xx_StdPeriph_Driver/src/stm32f4xx_can.c ****   assert_param(IS_FUNCTIONAL_STATE(CAN_InitStruct->CAN_TXFP));
 228:/home/rdu/Workspace/project_templates/mcu/stm32_ws/src/libraries/STM32F4xx_StdPeriph_Driver/src/stm32f4xx_can.c ****   assert_param(IS_CAN_MODE(CAN_InitStruct->CAN_Mode));
 229:/home/rdu/Workspace/project_templates/mcu/stm32_ws/src/libraries/STM32F4xx_StdPeriph_Driver/src/stm32f4xx_can.c ****   assert_param(IS_CAN_SJW(CAN_InitStruct->CAN_SJW));
 230:/home/rdu/Workspace/project_templates/mcu/stm32_ws/src/libraries/STM32F4xx_StdPeriph_Driver/src/stm32f4xx_can.c ****   assert_param(IS_CAN_BS1(CAN_InitStruct->CAN_BS1));
 231:/home/rdu/Workspace/project_templates/mcu/stm32_ws/src/libraries/STM32F4xx_StdPeriph_Driver/src/stm32f4xx_can.c ****   assert_param(IS_CAN_BS2(CAN_InitStruct->CAN_BS2));
 232:/home/rdu/Workspace/project_templates/mcu/stm32_ws/src/libraries/STM32F4xx_StdPeriph_Driver/src/stm32f4xx_can.c ****   assert_param(IS_CAN_PRESCALER(CAN_InitStruct->CAN_Prescaler));
 233:/home/rdu/Workspace/project_templates/mcu/stm32_ws/src/libraries/STM32F4xx_StdPeriph_Driver/src/stm32f4xx_can.c **** 
 234:/home/rdu/Workspace/project_templates/mcu/stm32_ws/src/libraries/STM32F4xx_StdPeriph_Driver/src/stm32f4xx_can.c ****   /* Exit from sleep mode */
 235:/home/rdu/Workspace/project_templates/mcu/stm32_ws/src/libraries/STM32F4xx_StdPeriph_Driver/src/stm32f4xx_can.c ****   CANx->MCR &= (~(uint32_t)CAN_MCR_SLEEP);
 103              		.loc 1 235 0
 104 0010 019B     		ldr	r3, [sp, #4]
 105 0012 1B68     		ldr	r3, [r3]
 106 0014 23F00202 		bic	r2, r3, #2
 107 0018 019B     		ldr	r3, [sp, #4]
 108 001a 1A60     		str	r2, [r3]
 236:/home/rdu/Workspace/project_templates/mcu/stm32_ws/src/libraries/STM32F4xx_StdPeriph_Driver/src/stm32f4xx_can.c **** 
 237:/home/rdu/Workspace/project_templates/mcu/stm32_ws/src/libraries/STM32F4xx_StdPeriph_Driver/src/stm32f4xx_can.c ****   /* Request initialisation */
 238:/home/rdu/Workspace/project_templates/mcu/stm32_ws/src/libraries/STM32F4xx_StdPeriph_Driver/src/stm32f4xx_can.c ****   CANx->MCR |= CAN_MCR_INRQ ;
 109              		.loc 1 238 0
 110 001c 019B     		ldr	r3, [sp, #4]
 111 001e 1B68     		ldr	r3, [r3]
 112 0020 43F00102 		orr	r2, r3, #1
 113 0024 019B     		ldr	r3, [sp, #4]
 114 0026 1A60     		str	r2, [r3]
 239:/home/rdu/Workspace/project_templates/mcu/stm32_ws/src/libraries/STM32F4xx_StdPeriph_Driver/src/stm32f4xx_can.c **** 
 240:/home/rdu/Workspace/project_templates/mcu/stm32_ws/src/libraries/STM32F4xx_StdPeriph_Driver/src/stm32f4xx_can.c ****   /* Wait the acknowledge */
 241:/home/rdu/Workspace/project_templates/mcu/stm32_ws/src/libraries/STM32F4xx_StdPeriph_Driver/src/stm32f4xx_can.c ****   while (((CANx->MSR & CAN_MSR_INAK) != CAN_MSR_INAK) && (wait_ack != INAK_TIMEOUT))
 115              		.loc 1 241 0
 116 0028 02E0     		b	.L8
 117              	.L10:
 242:/home/rdu/Workspace/project_templates/mcu/stm32_ws/src/libraries/STM32F4xx_StdPeriph_Driver/src/stm32f4xx_can.c ****   {
 243:/home/rdu/Workspace/project_templates/mcu/stm32_ws/src/libraries/STM32F4xx_StdPeriph_Driver/src/stm32f4xx_can.c ****     wait_ack++;
 118              		.loc 1 243 0
 119 002a 029B     		ldr	r3, [sp, #8]
 120 002c 0133     		adds	r3, r3, #1
 121 002e 0293     		str	r3, [sp, #8]
 122              	.L8:
 241:/home/rdu/Workspace/project_templates/mcu/stm32_ws/src/libraries/STM32F4xx_StdPeriph_Driver/src/stm32f4xx_can.c ****   {
 123              		.loc 1 241 0
 124 0030 019B     		ldr	r3, [sp, #4]
 125 0032 5B68     		ldr	r3, [r3, #4]
 126 0034 03F00103 		and	r3, r3, #1
 127 0038 012B     		cmp	r3, #1
 128 003a 04D0     		beq	.L9
 241:/home/rdu/Workspace/project_templates/mcu/stm32_ws/src/libraries/STM32F4xx_StdPeriph_Driver/src/stm32f4xx_can.c ****   {
 129              		.loc 1 241 0 is_stmt 0 discriminator 1
 130 003c 029B     		ldr	r3, [sp, #8]
 131 003e 4FF6FF72 		movw	r2, #65535
 132 0042 9342     		cmp	r3, r2
 133 0044 F1D1     		bne	.L10
 134              	.L9:
 244:/home/rdu/Workspace/project_templates/mcu/stm32_ws/src/libraries/STM32F4xx_StdPeriph_Driver/src/stm32f4xx_can.c ****   }
 245:/home/rdu/Workspace/project_templates/mcu/stm32_ws/src/libraries/STM32F4xx_StdPeriph_Driver/src/stm32f4xx_can.c **** 
 246:/home/rdu/Workspace/project_templates/mcu/stm32_ws/src/libraries/STM32F4xx_StdPeriph_Driver/src/stm32f4xx_can.c ****   /* Check acknowledge */
 247:/home/rdu/Workspace/project_templates/mcu/stm32_ws/src/libraries/STM32F4xx_StdPeriph_Driver/src/stm32f4xx_can.c ****   if ((CANx->MSR & CAN_MSR_INAK) != CAN_MSR_INAK)
 135              		.loc 1 247 0 is_stmt 1
 136 0046 019B     		ldr	r3, [sp, #4]
 137 0048 5B68     		ldr	r3, [r3, #4]
 138 004a 03F00103 		and	r3, r3, #1
 139 004e 012B     		cmp	r3, #1
 140 0050 03D0     		beq	.L11
 248:/home/rdu/Workspace/project_templates/mcu/stm32_ws/src/libraries/STM32F4xx_StdPeriph_Driver/src/stm32f4xx_can.c ****   {
 249:/home/rdu/Workspace/project_templates/mcu/stm32_ws/src/libraries/STM32F4xx_StdPeriph_Driver/src/stm32f4xx_can.c ****     InitStatus = CAN_InitStatus_Failed;
 141              		.loc 1 249 0
 142 0052 0023     		movs	r3, #0
 143 0054 8DF80F30 		strb	r3, [sp, #15]
 144 0058 9EE0     		b	.L12
 145              	.L11:
 250:/home/rdu/Workspace/project_templates/mcu/stm32_ws/src/libraries/STM32F4xx_StdPeriph_Driver/src/stm32f4xx_can.c ****   }
 251:/home/rdu/Workspace/project_templates/mcu/stm32_ws/src/libraries/STM32F4xx_StdPeriph_Driver/src/stm32f4xx_can.c ****   else 
 252:/home/rdu/Workspace/project_templates/mcu/stm32_ws/src/libraries/STM32F4xx_StdPeriph_Driver/src/stm32f4xx_can.c ****   {
 253:/home/rdu/Workspace/project_templates/mcu/stm32_ws/src/libraries/STM32F4xx_StdPeriph_Driver/src/stm32f4xx_can.c ****     /* Set the time triggered communication mode */
 254:/home/rdu/Workspace/project_templates/mcu/stm32_ws/src/libraries/STM32F4xx_StdPeriph_Driver/src/stm32f4xx_can.c ****     if (CAN_InitStruct->CAN_TTCM == ENABLE)
 146              		.loc 1 254 0
 147 005a 009B     		ldr	r3, [sp]
 148 005c 9B79     		ldrb	r3, [r3, #6]	@ zero_extendqisi2
 149 005e 012B     		cmp	r3, #1
 150 0060 06D1     		bne	.L13
 255:/home/rdu/Workspace/project_templates/mcu/stm32_ws/src/libraries/STM32F4xx_StdPeriph_Driver/src/stm32f4xx_can.c ****     {
 256:/home/rdu/Workspace/project_templates/mcu/stm32_ws/src/libraries/STM32F4xx_StdPeriph_Driver/src/stm32f4xx_can.c ****       CANx->MCR |= CAN_MCR_TTCM;
 151              		.loc 1 256 0
 152 0062 019B     		ldr	r3, [sp, #4]
 153 0064 1B68     		ldr	r3, [r3]
 154 0066 43F08002 		orr	r2, r3, #128
 155 006a 019B     		ldr	r3, [sp, #4]
 156 006c 1A60     		str	r2, [r3]
 157 006e 05E0     		b	.L14
 158              	.L13:
 257:/home/rdu/Workspace/project_templates/mcu/stm32_ws/src/libraries/STM32F4xx_StdPeriph_Driver/src/stm32f4xx_can.c ****     }
 258:/home/rdu/Workspace/project_templates/mcu/stm32_ws/src/libraries/STM32F4xx_StdPeriph_Driver/src/stm32f4xx_can.c ****     else
 259:/home/rdu/Workspace/project_templates/mcu/stm32_ws/src/libraries/STM32F4xx_StdPeriph_Driver/src/stm32f4xx_can.c ****     {
 260:/home/rdu/Workspace/project_templates/mcu/stm32_ws/src/libraries/STM32F4xx_StdPeriph_Driver/src/stm32f4xx_can.c ****       CANx->MCR &= ~(uint32_t)CAN_MCR_TTCM;
 159              		.loc 1 260 0
 160 0070 019B     		ldr	r3, [sp, #4]
 161 0072 1B68     		ldr	r3, [r3]
 162 0074 23F08002 		bic	r2, r3, #128
 163 0078 019B     		ldr	r3, [sp, #4]
 164 007a 1A60     		str	r2, [r3]
 165              	.L14:
 261:/home/rdu/Workspace/project_templates/mcu/stm32_ws/src/libraries/STM32F4xx_StdPeriph_Driver/src/stm32f4xx_can.c ****     }
 262:/home/rdu/Workspace/project_templates/mcu/stm32_ws/src/libraries/STM32F4xx_StdPeriph_Driver/src/stm32f4xx_can.c **** 
 263:/home/rdu/Workspace/project_templates/mcu/stm32_ws/src/libraries/STM32F4xx_StdPeriph_Driver/src/stm32f4xx_can.c ****     /* Set the automatic bus-off management */
 264:/home/rdu/Workspace/project_templates/mcu/stm32_ws/src/libraries/STM32F4xx_StdPeriph_Driver/src/stm32f4xx_can.c ****     if (CAN_InitStruct->CAN_ABOM == ENABLE)
 166              		.loc 1 264 0
 167 007c 009B     		ldr	r3, [sp]
 168 007e DB79     		ldrb	r3, [r3, #7]	@ zero_extendqisi2
 169 0080 012B     		cmp	r3, #1
 170 0082 06D1     		bne	.L15
 265:/home/rdu/Workspace/project_templates/mcu/stm32_ws/src/libraries/STM32F4xx_StdPeriph_Driver/src/stm32f4xx_can.c ****     {
 266:/home/rdu/Workspace/project_templates/mcu/stm32_ws/src/libraries/STM32F4xx_StdPeriph_Driver/src/stm32f4xx_can.c ****       CANx->MCR |= CAN_MCR_ABOM;
 171              		.loc 1 266 0
 172 0084 019B     		ldr	r3, [sp, #4]
 173 0086 1B68     		ldr	r3, [r3]
 174 0088 43F04002 		orr	r2, r3, #64
 175 008c 019B     		ldr	r3, [sp, #4]
 176 008e 1A60     		str	r2, [r3]
 177 0090 05E0     		b	.L16
 178              	.L15:
 267:/home/rdu/Workspace/project_templates/mcu/stm32_ws/src/libraries/STM32F4xx_StdPeriph_Driver/src/stm32f4xx_can.c ****     }
 268:/home/rdu/Workspace/project_templates/mcu/stm32_ws/src/libraries/STM32F4xx_StdPeriph_Driver/src/stm32f4xx_can.c ****     else
 269:/home/rdu/Workspace/project_templates/mcu/stm32_ws/src/libraries/STM32F4xx_StdPeriph_Driver/src/stm32f4xx_can.c ****     {
 270:/home/rdu/Workspace/project_templates/mcu/stm32_ws/src/libraries/STM32F4xx_StdPeriph_Driver/src/stm32f4xx_can.c ****       CANx->MCR &= ~(uint32_t)CAN_MCR_ABOM;
 179              		.loc 1 270 0
 180 0092 019B     		ldr	r3, [sp, #4]
 181 0094 1B68     		ldr	r3, [r3]
 182 0096 23F04002 		bic	r2, r3, #64
 183 009a 019B     		ldr	r3, [sp, #4]
 184 009c 1A60     		str	r2, [r3]
 185              	.L16:
 271:/home/rdu/Workspace/project_templates/mcu/stm32_ws/src/libraries/STM32F4xx_StdPeriph_Driver/src/stm32f4xx_can.c ****     }
 272:/home/rdu/Workspace/project_templates/mcu/stm32_ws/src/libraries/STM32F4xx_StdPeriph_Driver/src/stm32f4xx_can.c **** 
 273:/home/rdu/Workspace/project_templates/mcu/stm32_ws/src/libraries/STM32F4xx_StdPeriph_Driver/src/stm32f4xx_can.c ****     /* Set the automatic wake-up mode */
 274:/home/rdu/Workspace/project_templates/mcu/stm32_ws/src/libraries/STM32F4xx_StdPeriph_Driver/src/stm32f4xx_can.c ****     if (CAN_InitStruct->CAN_AWUM == ENABLE)
 186              		.loc 1 274 0
 187 009e 009B     		ldr	r3, [sp]
 188 00a0 1B7A     		ldrb	r3, [r3, #8]	@ zero_extendqisi2
 189 00a2 012B     		cmp	r3, #1
 190 00a4 06D1     		bne	.L17
 275:/home/rdu/Workspace/project_templates/mcu/stm32_ws/src/libraries/STM32F4xx_StdPeriph_Driver/src/stm32f4xx_can.c ****     {
 276:/home/rdu/Workspace/project_templates/mcu/stm32_ws/src/libraries/STM32F4xx_StdPeriph_Driver/src/stm32f4xx_can.c ****       CANx->MCR |= CAN_MCR_AWUM;
 191              		.loc 1 276 0
 192 00a6 019B     		ldr	r3, [sp, #4]
 193 00a8 1B68     		ldr	r3, [r3]
 194 00aa 43F02002 		orr	r2, r3, #32
 195 00ae 019B     		ldr	r3, [sp, #4]
 196 00b0 1A60     		str	r2, [r3]
 197 00b2 05E0     		b	.L18
 198              	.L17:
 277:/home/rdu/Workspace/project_templates/mcu/stm32_ws/src/libraries/STM32F4xx_StdPeriph_Driver/src/stm32f4xx_can.c ****     }
 278:/home/rdu/Workspace/project_templates/mcu/stm32_ws/src/libraries/STM32F4xx_StdPeriph_Driver/src/stm32f4xx_can.c ****     else
 279:/home/rdu/Workspace/project_templates/mcu/stm32_ws/src/libraries/STM32F4xx_StdPeriph_Driver/src/stm32f4xx_can.c ****     {
 280:/home/rdu/Workspace/project_templates/mcu/stm32_ws/src/libraries/STM32F4xx_StdPeriph_Driver/src/stm32f4xx_can.c ****       CANx->MCR &= ~(uint32_t)CAN_MCR_AWUM;
 199              		.loc 1 280 0
 200 00b4 019B     		ldr	r3, [sp, #4]
 201 00b6 1B68     		ldr	r3, [r3]
 202 00b8 23F02002 		bic	r2, r3, #32
 203 00bc 019B     		ldr	r3, [sp, #4]
 204 00be 1A60     		str	r2, [r3]
 205              	.L18:
 281:/home/rdu/Workspace/project_templates/mcu/stm32_ws/src/libraries/STM32F4xx_StdPeriph_Driver/src/stm32f4xx_can.c ****     }
 282:/home/rdu/Workspace/project_templates/mcu/stm32_ws/src/libraries/STM32F4xx_StdPeriph_Driver/src/stm32f4xx_can.c **** 
 283:/home/rdu/Workspace/project_templates/mcu/stm32_ws/src/libraries/STM32F4xx_StdPeriph_Driver/src/stm32f4xx_can.c ****     /* Set the no automatic retransmission */
 284:/home/rdu/Workspace/project_templates/mcu/stm32_ws/src/libraries/STM32F4xx_StdPeriph_Driver/src/stm32f4xx_can.c ****     if (CAN_InitStruct->CAN_NART == ENABLE)
 206              		.loc 1 284 0
 207 00c0 009B     		ldr	r3, [sp]
 208 00c2 5B7A     		ldrb	r3, [r3, #9]	@ zero_extendqisi2
 209 00c4 012B     		cmp	r3, #1
 210 00c6 06D1     		bne	.L19
 285:/home/rdu/Workspace/project_templates/mcu/stm32_ws/src/libraries/STM32F4xx_StdPeriph_Driver/src/stm32f4xx_can.c ****     {
 286:/home/rdu/Workspace/project_templates/mcu/stm32_ws/src/libraries/STM32F4xx_StdPeriph_Driver/src/stm32f4xx_can.c ****       CANx->MCR |= CAN_MCR_NART;
 211              		.loc 1 286 0
 212 00c8 019B     		ldr	r3, [sp, #4]
 213 00ca 1B68     		ldr	r3, [r3]
 214 00cc 43F01002 		orr	r2, r3, #16
 215 00d0 019B     		ldr	r3, [sp, #4]
 216 00d2 1A60     		str	r2, [r3]
 217 00d4 05E0     		b	.L20
 218              	.L19:
 287:/home/rdu/Workspace/project_templates/mcu/stm32_ws/src/libraries/STM32F4xx_StdPeriph_Driver/src/stm32f4xx_can.c ****     }
 288:/home/rdu/Workspace/project_templates/mcu/stm32_ws/src/libraries/STM32F4xx_StdPeriph_Driver/src/stm32f4xx_can.c ****     else
 289:/home/rdu/Workspace/project_templates/mcu/stm32_ws/src/libraries/STM32F4xx_StdPeriph_Driver/src/stm32f4xx_can.c ****     {
 290:/home/rdu/Workspace/project_templates/mcu/stm32_ws/src/libraries/STM32F4xx_StdPeriph_Driver/src/stm32f4xx_can.c ****       CANx->MCR &= ~(uint32_t)CAN_MCR_NART;
 219              		.loc 1 290 0
 220 00d6 019B     		ldr	r3, [sp, #4]
 221 00d8 1B68     		ldr	r3, [r3]
 222 00da 23F01002 		bic	r2, r3, #16
 223 00de 019B     		ldr	r3, [sp, #4]
 224 00e0 1A60     		str	r2, [r3]
 225              	.L20:
 291:/home/rdu/Workspace/project_templates/mcu/stm32_ws/src/libraries/STM32F4xx_StdPeriph_Driver/src/stm32f4xx_can.c ****     }
 292:/home/rdu/Workspace/project_templates/mcu/stm32_ws/src/libraries/STM32F4xx_StdPeriph_Driver/src/stm32f4xx_can.c **** 
 293:/home/rdu/Workspace/project_templates/mcu/stm32_ws/src/libraries/STM32F4xx_StdPeriph_Driver/src/stm32f4xx_can.c ****     /* Set the receive FIFO locked mode */
 294:/home/rdu/Workspace/project_templates/mcu/stm32_ws/src/libraries/STM32F4xx_StdPeriph_Driver/src/stm32f4xx_can.c ****     if (CAN_InitStruct->CAN_RFLM == ENABLE)
 226              		.loc 1 294 0
 227 00e2 009B     		ldr	r3, [sp]
 228 00e4 9B7A     		ldrb	r3, [r3, #10]	@ zero_extendqisi2
 229 00e6 012B     		cmp	r3, #1
 230 00e8 06D1     		bne	.L21
 295:/home/rdu/Workspace/project_templates/mcu/stm32_ws/src/libraries/STM32F4xx_StdPeriph_Driver/src/stm32f4xx_can.c ****     {
 296:/home/rdu/Workspace/project_templates/mcu/stm32_ws/src/libraries/STM32F4xx_StdPeriph_Driver/src/stm32f4xx_can.c ****       CANx->MCR |= CAN_MCR_RFLM;
 231              		.loc 1 296 0
 232 00ea 019B     		ldr	r3, [sp, #4]
 233 00ec 1B68     		ldr	r3, [r3]
 234 00ee 43F00802 		orr	r2, r3, #8
 235 00f2 019B     		ldr	r3, [sp, #4]
 236 00f4 1A60     		str	r2, [r3]
 237 00f6 05E0     		b	.L22
 238              	.L21:
 297:/home/rdu/Workspace/project_templates/mcu/stm32_ws/src/libraries/STM32F4xx_StdPeriph_Driver/src/stm32f4xx_can.c ****     }
 298:/home/rdu/Workspace/project_templates/mcu/stm32_ws/src/libraries/STM32F4xx_StdPeriph_Driver/src/stm32f4xx_can.c ****     else
 299:/home/rdu/Workspace/project_templates/mcu/stm32_ws/src/libraries/STM32F4xx_StdPeriph_Driver/src/stm32f4xx_can.c ****     {
 300:/home/rdu/Workspace/project_templates/mcu/stm32_ws/src/libraries/STM32F4xx_StdPeriph_Driver/src/stm32f4xx_can.c ****       CANx->MCR &= ~(uint32_t)CAN_MCR_RFLM;
 239              		.loc 1 300 0
 240 00f8 019B     		ldr	r3, [sp, #4]
 241 00fa 1B68     		ldr	r3, [r3]
 242 00fc 23F00802 		bic	r2, r3, #8
 243 0100 019B     		ldr	r3, [sp, #4]
 244 0102 1A60     		str	r2, [r3]
 245              	.L22:
 301:/home/rdu/Workspace/project_templates/mcu/stm32_ws/src/libraries/STM32F4xx_StdPeriph_Driver/src/stm32f4xx_can.c ****     }
 302:/home/rdu/Workspace/project_templates/mcu/stm32_ws/src/libraries/STM32F4xx_StdPeriph_Driver/src/stm32f4xx_can.c **** 
 303:/home/rdu/Workspace/project_templates/mcu/stm32_ws/src/libraries/STM32F4xx_StdPeriph_Driver/src/stm32f4xx_can.c ****     /* Set the transmit FIFO priority */
 304:/home/rdu/Workspace/project_templates/mcu/stm32_ws/src/libraries/STM32F4xx_StdPeriph_Driver/src/stm32f4xx_can.c ****     if (CAN_InitStruct->CAN_TXFP == ENABLE)
 246              		.loc 1 304 0
 247 0104 009B     		ldr	r3, [sp]
 248 0106 DB7A     		ldrb	r3, [r3, #11]	@ zero_extendqisi2
 249 0108 012B     		cmp	r3, #1
 250 010a 06D1     		bne	.L23
 305:/home/rdu/Workspace/project_templates/mcu/stm32_ws/src/libraries/STM32F4xx_StdPeriph_Driver/src/stm32f4xx_can.c ****     {
 306:/home/rdu/Workspace/project_templates/mcu/stm32_ws/src/libraries/STM32F4xx_StdPeriph_Driver/src/stm32f4xx_can.c ****       CANx->MCR |= CAN_MCR_TXFP;
 251              		.loc 1 306 0
 252 010c 019B     		ldr	r3, [sp, #4]
 253 010e 1B68     		ldr	r3, [r3]
 254 0110 43F00402 		orr	r2, r3, #4
 255 0114 019B     		ldr	r3, [sp, #4]
 256 0116 1A60     		str	r2, [r3]
 257 0118 05E0     		b	.L24
 258              	.L23:
 307:/home/rdu/Workspace/project_templates/mcu/stm32_ws/src/libraries/STM32F4xx_StdPeriph_Driver/src/stm32f4xx_can.c ****     }
 308:/home/rdu/Workspace/project_templates/mcu/stm32_ws/src/libraries/STM32F4xx_StdPeriph_Driver/src/stm32f4xx_can.c ****     else
 309:/home/rdu/Workspace/project_templates/mcu/stm32_ws/src/libraries/STM32F4xx_StdPeriph_Driver/src/stm32f4xx_can.c ****     {
 310:/home/rdu/Workspace/project_templates/mcu/stm32_ws/src/libraries/STM32F4xx_StdPeriph_Driver/src/stm32f4xx_can.c ****       CANx->MCR &= ~(uint32_t)CAN_MCR_TXFP;
 259              		.loc 1 310 0
 260 011a 019B     		ldr	r3, [sp, #4]
 261 011c 1B68     		ldr	r3, [r3]
 262 011e 23F00402 		bic	r2, r3, #4
 263 0122 019B     		ldr	r3, [sp, #4]
 264 0124 1A60     		str	r2, [r3]
 265              	.L24:
 311:/home/rdu/Workspace/project_templates/mcu/stm32_ws/src/libraries/STM32F4xx_StdPeriph_Driver/src/stm32f4xx_can.c ****     }
 312:/home/rdu/Workspace/project_templates/mcu/stm32_ws/src/libraries/STM32F4xx_StdPeriph_Driver/src/stm32f4xx_can.c **** 
 313:/home/rdu/Workspace/project_templates/mcu/stm32_ws/src/libraries/STM32F4xx_StdPeriph_Driver/src/stm32f4xx_can.c ****     /* Set the bit timing register */
 314:/home/rdu/Workspace/project_templates/mcu/stm32_ws/src/libraries/STM32F4xx_StdPeriph_Driver/src/stm32f4xx_can.c ****     CANx->BTR = (uint32_t)((uint32_t)CAN_InitStruct->CAN_Mode << 30) | \
 266              		.loc 1 314 0
 267 0126 009B     		ldr	r3, [sp]
 268 0128 9B78     		ldrb	r3, [r3, #2]	@ zero_extendqisi2
 269 012a 9A07     		lsls	r2, r3, #30
 315:/home/rdu/Workspace/project_templates/mcu/stm32_ws/src/libraries/STM32F4xx_StdPeriph_Driver/src/stm32f4xx_can.c ****                 ((uint32_t)CAN_InitStruct->CAN_SJW << 24) | \
 270              		.loc 1 315 0
 271 012c 009B     		ldr	r3, [sp]
 272 012e DB78     		ldrb	r3, [r3, #3]	@ zero_extendqisi2
 273 0130 1B06     		lsls	r3, r3, #24
 314:/home/rdu/Workspace/project_templates/mcu/stm32_ws/src/libraries/STM32F4xx_StdPeriph_Driver/src/stm32f4xx_can.c ****                 ((uint32_t)CAN_InitStruct->CAN_SJW << 24) | \
 274              		.loc 1 314 0
 275 0132 1A43     		orrs	r2, r2, r3
 316:/home/rdu/Workspace/project_templates/mcu/stm32_ws/src/libraries/STM32F4xx_StdPeriph_Driver/src/stm32f4xx_can.c ****                 ((uint32_t)CAN_InitStruct->CAN_BS1 << 16) | \
 276              		.loc 1 316 0
 277 0134 009B     		ldr	r3, [sp]
 278 0136 1B79     		ldrb	r3, [r3, #4]	@ zero_extendqisi2
 279 0138 1B04     		lsls	r3, r3, #16
 315:/home/rdu/Workspace/project_templates/mcu/stm32_ws/src/libraries/STM32F4xx_StdPeriph_Driver/src/stm32f4xx_can.c ****                 ((uint32_t)CAN_InitStruct->CAN_SJW << 24) | \
 280              		.loc 1 315 0
 281 013a 1A43     		orrs	r2, r2, r3
 317:/home/rdu/Workspace/project_templates/mcu/stm32_ws/src/libraries/STM32F4xx_StdPeriph_Driver/src/stm32f4xx_can.c ****                 ((uint32_t)CAN_InitStruct->CAN_BS2 << 20) | \
 282              		.loc 1 317 0
 283 013c 009B     		ldr	r3, [sp]
 284 013e 5B79     		ldrb	r3, [r3, #5]	@ zero_extendqisi2
 285 0140 1B05     		lsls	r3, r3, #20
 316:/home/rdu/Workspace/project_templates/mcu/stm32_ws/src/libraries/STM32F4xx_StdPeriph_Driver/src/stm32f4xx_can.c ****                 ((uint32_t)CAN_InitStruct->CAN_BS1 << 16) | \
 286              		.loc 1 316 0
 287 0142 1A43     		orrs	r2, r2, r3
 318:/home/rdu/Workspace/project_templates/mcu/stm32_ws/src/libraries/STM32F4xx_StdPeriph_Driver/src/stm32f4xx_can.c ****                ((uint32_t)CAN_InitStruct->CAN_Prescaler - 1);
 288              		.loc 1 318 0
 289 0144 009B     		ldr	r3, [sp]
 290 0146 1B88     		ldrh	r3, [r3]
 291 0148 013B     		subs	r3, r3, #1
 317:/home/rdu/Workspace/project_templates/mcu/stm32_ws/src/libraries/STM32F4xx_StdPeriph_Driver/src/stm32f4xx_can.c ****                 ((uint32_t)CAN_InitStruct->CAN_BS2 << 20) | \
 292              		.loc 1 317 0
 293 014a 1A43     		orrs	r2, r2, r3
 314:/home/rdu/Workspace/project_templates/mcu/stm32_ws/src/libraries/STM32F4xx_StdPeriph_Driver/src/stm32f4xx_can.c ****                 ((uint32_t)CAN_InitStruct->CAN_SJW << 24) | \
 294              		.loc 1 314 0
 295 014c 019B     		ldr	r3, [sp, #4]
 296 014e DA61     		str	r2, [r3, #28]
 319:/home/rdu/Workspace/project_templates/mcu/stm32_ws/src/libraries/STM32F4xx_StdPeriph_Driver/src/stm32f4xx_can.c **** 
 320:/home/rdu/Workspace/project_templates/mcu/stm32_ws/src/libraries/STM32F4xx_StdPeriph_Driver/src/stm32f4xx_can.c ****     /* Request leave initialisation */
 321:/home/rdu/Workspace/project_templates/mcu/stm32_ws/src/libraries/STM32F4xx_StdPeriph_Driver/src/stm32f4xx_can.c ****     CANx->MCR &= ~(uint32_t)CAN_MCR_INRQ;
 297              		.loc 1 321 0
 298 0150 019B     		ldr	r3, [sp, #4]
 299 0152 1B68     		ldr	r3, [r3]
 300 0154 23F00102 		bic	r2, r3, #1
 301 0158 019B     		ldr	r3, [sp, #4]
 302 015a 1A60     		str	r2, [r3]
 322:/home/rdu/Workspace/project_templates/mcu/stm32_ws/src/libraries/STM32F4xx_StdPeriph_Driver/src/stm32f4xx_can.c **** 
 323:/home/rdu/Workspace/project_templates/mcu/stm32_ws/src/libraries/STM32F4xx_StdPeriph_Driver/src/stm32f4xx_can.c ****    /* Wait the acknowledge */
 324:/home/rdu/Workspace/project_templates/mcu/stm32_ws/src/libraries/STM32F4xx_StdPeriph_Driver/src/stm32f4xx_can.c ****    wait_ack = 0;
 303              		.loc 1 324 0
 304 015c 0023     		movs	r3, #0
 305 015e 0293     		str	r3, [sp, #8]
 325:/home/rdu/Workspace/project_templates/mcu/stm32_ws/src/libraries/STM32F4xx_StdPeriph_Driver/src/stm32f4xx_can.c **** 
 326:/home/rdu/Workspace/project_templates/mcu/stm32_ws/src/libraries/STM32F4xx_StdPeriph_Driver/src/stm32f4xx_can.c ****    while (((CANx->MSR & CAN_MSR_INAK) == CAN_MSR_INAK) && (wait_ack != INAK_TIMEOUT))
 306              		.loc 1 326 0
 307 0160 02E0     		b	.L25
 308              	.L27:
 327:/home/rdu/Workspace/project_templates/mcu/stm32_ws/src/libraries/STM32F4xx_StdPeriph_Driver/src/stm32f4xx_can.c ****    {
 328:/home/rdu/Workspace/project_templates/mcu/stm32_ws/src/libraries/STM32F4xx_StdPeriph_Driver/src/stm32f4xx_can.c ****      wait_ack++;
 309              		.loc 1 328 0
 310 0162 029B     		ldr	r3, [sp, #8]
 311 0164 0133     		adds	r3, r3, #1
 312 0166 0293     		str	r3, [sp, #8]
 313              	.L25:
 326:/home/rdu/Workspace/project_templates/mcu/stm32_ws/src/libraries/STM32F4xx_StdPeriph_Driver/src/stm32f4xx_can.c ****    {
 314              		.loc 1 326 0
 315 0168 019B     		ldr	r3, [sp, #4]
 316 016a 5B68     		ldr	r3, [r3, #4]
 317 016c 03F00103 		and	r3, r3, #1
 318 0170 012B     		cmp	r3, #1
 319 0172 04D1     		bne	.L26
 326:/home/rdu/Workspace/project_templates/mcu/stm32_ws/src/libraries/STM32F4xx_StdPeriph_Driver/src/stm32f4xx_can.c ****    {
 320              		.loc 1 326 0 is_stmt 0 discriminator 1
 321 0174 029B     		ldr	r3, [sp, #8]
 322 0176 4FF6FF72 		movw	r2, #65535
 323 017a 9342     		cmp	r3, r2
 324 017c F1D1     		bne	.L27
 325              	.L26:
 329:/home/rdu/Workspace/project_templates/mcu/stm32_ws/src/libraries/STM32F4xx_StdPeriph_Driver/src/stm32f4xx_can.c ****    }
 330:/home/rdu/Workspace/project_templates/mcu/stm32_ws/src/libraries/STM32F4xx_StdPeriph_Driver/src/stm32f4xx_can.c **** 
 331:/home/rdu/Workspace/project_templates/mcu/stm32_ws/src/libraries/STM32F4xx_StdPeriph_Driver/src/stm32f4xx_can.c ****     /* ...and check acknowledged */
 332:/home/rdu/Workspace/project_templates/mcu/stm32_ws/src/libraries/STM32F4xx_StdPeriph_Driver/src/stm32f4xx_can.c ****     if ((CANx->MSR & CAN_MSR_INAK) == CAN_MSR_INAK)
 326              		.loc 1 332 0 is_stmt 1
 327 017e 019B     		ldr	r3, [sp, #4]
 328 0180 5B68     		ldr	r3, [r3, #4]
 329 0182 03F00103 		and	r3, r3, #1
 330 0186 012B     		cmp	r3, #1
 331 0188 03D1     		bne	.L28
 333:/home/rdu/Workspace/project_templates/mcu/stm32_ws/src/libraries/STM32F4xx_StdPeriph_Driver/src/stm32f4xx_can.c ****     {
 334:/home/rdu/Workspace/project_templates/mcu/stm32_ws/src/libraries/STM32F4xx_StdPeriph_Driver/src/stm32f4xx_can.c ****       InitStatus = CAN_InitStatus_Failed;
 332              		.loc 1 334 0
 333 018a 0023     		movs	r3, #0
 334 018c 8DF80F30 		strb	r3, [sp, #15]
 335 0190 02E0     		b	.L12
 336              	.L28:
 335:/home/rdu/Workspace/project_templates/mcu/stm32_ws/src/libraries/STM32F4xx_StdPeriph_Driver/src/stm32f4xx_can.c ****     }
 336:/home/rdu/Workspace/project_templates/mcu/stm32_ws/src/libraries/STM32F4xx_StdPeriph_Driver/src/stm32f4xx_can.c ****     else
 337:/home/rdu/Workspace/project_templates/mcu/stm32_ws/src/libraries/STM32F4xx_StdPeriph_Driver/src/stm32f4xx_can.c ****     {
 338:/home/rdu/Workspace/project_templates/mcu/stm32_ws/src/libraries/STM32F4xx_StdPeriph_Driver/src/stm32f4xx_can.c ****       InitStatus = CAN_InitStatus_Success ;
 337              		.loc 1 338 0
 338 0192 0123     		movs	r3, #1
 339 0194 8DF80F30 		strb	r3, [sp, #15]
 340              	.L12:
 339:/home/rdu/Workspace/project_templates/mcu/stm32_ws/src/libraries/STM32F4xx_StdPeriph_Driver/src/stm32f4xx_can.c ****     }
 340:/home/rdu/Workspace/project_templates/mcu/stm32_ws/src/libraries/STM32F4xx_StdPeriph_Driver/src/stm32f4xx_can.c ****   }
 341:/home/rdu/Workspace/project_templates/mcu/stm32_ws/src/libraries/STM32F4xx_StdPeriph_Driver/src/stm32f4xx_can.c **** 
 342:/home/rdu/Workspace/project_templates/mcu/stm32_ws/src/libraries/STM32F4xx_StdPeriph_Driver/src/stm32f4xx_can.c ****   /* At this step, return the status of initialization */
 343:/home/rdu/Workspace/project_templates/mcu/stm32_ws/src/libraries/STM32F4xx_StdPeriph_Driver/src/stm32f4xx_can.c ****   return InitStatus;
 341              		.loc 1 343 0
 342 0198 9DF80F30 		ldrb	r3, [sp, #15]	@ zero_extendqisi2
 344:/home/rdu/Workspace/project_templates/mcu/stm32_ws/src/libraries/STM32F4xx_StdPeriph_Driver/src/stm32f4xx_can.c **** }
 343              		.loc 1 344 0
 344 019c 1846     		mov	r0, r3
 345 019e 04B0     		add	sp, sp, #16
 346              	.LCFI4:
 347              		.cfi_def_cfa_offset 0
 348              		@ sp needed
 349 01a0 7047     		bx	lr
 350              		.cfi_endproc
 351              	.LFE124:
 353              		.section	.text.CAN_FilterInit,"ax",%progbits
 354              		.align	1
 355              		.global	CAN_FilterInit
 356              		.syntax unified
 357              		.thumb
 358              		.thumb_func
 359              		.fpu fpv4-sp-d16
 361              	CAN_FilterInit:
 362              	.LFB125:
 345:/home/rdu/Workspace/project_templates/mcu/stm32_ws/src/libraries/STM32F4xx_StdPeriph_Driver/src/stm32f4xx_can.c **** 
 346:/home/rdu/Workspace/project_templates/mcu/stm32_ws/src/libraries/STM32F4xx_StdPeriph_Driver/src/stm32f4xx_can.c **** #if defined(STM32F413_423xx)
 347:/home/rdu/Workspace/project_templates/mcu/stm32_ws/src/libraries/STM32F4xx_StdPeriph_Driver/src/stm32f4xx_can.c **** /**
 348:/home/rdu/Workspace/project_templates/mcu/stm32_ws/src/libraries/STM32F4xx_StdPeriph_Driver/src/stm32f4xx_can.c ****   * @brief  Configures the CAN reception filter according to the specified
 349:/home/rdu/Workspace/project_templates/mcu/stm32_ws/src/libraries/STM32F4xx_StdPeriph_Driver/src/stm32f4xx_can.c ****   *         parameters in the CAN_FilterInitStruct.
 350:/home/rdu/Workspace/project_templates/mcu/stm32_ws/src/libraries/STM32F4xx_StdPeriph_Driver/src/stm32f4xx_can.c ****   * @param  CANx: where x can be 1 or 3 to select the CAN peripheral.
 351:/home/rdu/Workspace/project_templates/mcu/stm32_ws/src/libraries/STM32F4xx_StdPeriph_Driver/src/stm32f4xx_can.c ****   * @param  CAN_FilterInitStruct: pointer to a CAN_FilterInitTypeDef structure that
 352:/home/rdu/Workspace/project_templates/mcu/stm32_ws/src/libraries/STM32F4xx_StdPeriph_Driver/src/stm32f4xx_can.c ****   *         contains the configuration information.
 353:/home/rdu/Workspace/project_templates/mcu/stm32_ws/src/libraries/STM32F4xx_StdPeriph_Driver/src/stm32f4xx_can.c ****   * @retval None
 354:/home/rdu/Workspace/project_templates/mcu/stm32_ws/src/libraries/STM32F4xx_StdPeriph_Driver/src/stm32f4xx_can.c ****   */
 355:/home/rdu/Workspace/project_templates/mcu/stm32_ws/src/libraries/STM32F4xx_StdPeriph_Driver/src/stm32f4xx_can.c **** void CAN_FilterInit(CAN_TypeDef* CANx, CAN_FilterInitTypeDef* CAN_FilterInitStruct)
 356:/home/rdu/Workspace/project_templates/mcu/stm32_ws/src/libraries/STM32F4xx_StdPeriph_Driver/src/stm32f4xx_can.c **** {
 357:/home/rdu/Workspace/project_templates/mcu/stm32_ws/src/libraries/STM32F4xx_StdPeriph_Driver/src/stm32f4xx_can.c ****   uint32_t filter_number_bit_pos = 0;
 358:/home/rdu/Workspace/project_templates/mcu/stm32_ws/src/libraries/STM32F4xx_StdPeriph_Driver/src/stm32f4xx_can.c ****   /* Check the parameters */
 359:/home/rdu/Workspace/project_templates/mcu/stm32_ws/src/libraries/STM32F4xx_StdPeriph_Driver/src/stm32f4xx_can.c ****   assert_param(IS_CAN_FILTER_NUMBER(CAN_FilterInitStruct->CAN_FilterNumber));
 360:/home/rdu/Workspace/project_templates/mcu/stm32_ws/src/libraries/STM32F4xx_StdPeriph_Driver/src/stm32f4xx_can.c ****   assert_param(IS_CAN_FILTER_MODE(CAN_FilterInitStruct->CAN_FilterMode));
 361:/home/rdu/Workspace/project_templates/mcu/stm32_ws/src/libraries/STM32F4xx_StdPeriph_Driver/src/stm32f4xx_can.c ****   assert_param(IS_CAN_FILTER_SCALE(CAN_FilterInitStruct->CAN_FilterScale));
 362:/home/rdu/Workspace/project_templates/mcu/stm32_ws/src/libraries/STM32F4xx_StdPeriph_Driver/src/stm32f4xx_can.c ****   assert_param(IS_CAN_FILTER_FIFO(CAN_FilterInitStruct->CAN_FilterFIFOAssignment));
 363:/home/rdu/Workspace/project_templates/mcu/stm32_ws/src/libraries/STM32F4xx_StdPeriph_Driver/src/stm32f4xx_can.c ****   assert_param(IS_FUNCTIONAL_STATE(CAN_FilterInitStruct->CAN_FilterActivation));
 364:/home/rdu/Workspace/project_templates/mcu/stm32_ws/src/libraries/STM32F4xx_StdPeriph_Driver/src/stm32f4xx_can.c ****   
 365:/home/rdu/Workspace/project_templates/mcu/stm32_ws/src/libraries/STM32F4xx_StdPeriph_Driver/src/stm32f4xx_can.c ****   filter_number_bit_pos = ((uint32_t)1) << CAN_FilterInitStruct->CAN_FilterNumber;
 366:/home/rdu/Workspace/project_templates/mcu/stm32_ws/src/libraries/STM32F4xx_StdPeriph_Driver/src/stm32f4xx_can.c **** 
 367:/home/rdu/Workspace/project_templates/mcu/stm32_ws/src/libraries/STM32F4xx_StdPeriph_Driver/src/stm32f4xx_can.c ****   /* Initialisation mode for the filter */
 368:/home/rdu/Workspace/project_templates/mcu/stm32_ws/src/libraries/STM32F4xx_StdPeriph_Driver/src/stm32f4xx_can.c ****   CANx->FMR |= FMR_FINIT;
 369:/home/rdu/Workspace/project_templates/mcu/stm32_ws/src/libraries/STM32F4xx_StdPeriph_Driver/src/stm32f4xx_can.c **** 
 370:/home/rdu/Workspace/project_templates/mcu/stm32_ws/src/libraries/STM32F4xx_StdPeriph_Driver/src/stm32f4xx_can.c ****   /* Filter Deactivation */
 371:/home/rdu/Workspace/project_templates/mcu/stm32_ws/src/libraries/STM32F4xx_StdPeriph_Driver/src/stm32f4xx_can.c ****   CANx->FA1R &= ~(uint32_t)filter_number_bit_pos;
 372:/home/rdu/Workspace/project_templates/mcu/stm32_ws/src/libraries/STM32F4xx_StdPeriph_Driver/src/stm32f4xx_can.c **** 
 373:/home/rdu/Workspace/project_templates/mcu/stm32_ws/src/libraries/STM32F4xx_StdPeriph_Driver/src/stm32f4xx_can.c ****   /* Filter Scale */
 374:/home/rdu/Workspace/project_templates/mcu/stm32_ws/src/libraries/STM32F4xx_StdPeriph_Driver/src/stm32f4xx_can.c ****   if (CAN_FilterInitStruct->CAN_FilterScale == CAN_FilterScale_16bit)
 375:/home/rdu/Workspace/project_templates/mcu/stm32_ws/src/libraries/STM32F4xx_StdPeriph_Driver/src/stm32f4xx_can.c ****   {
 376:/home/rdu/Workspace/project_templates/mcu/stm32_ws/src/libraries/STM32F4xx_StdPeriph_Driver/src/stm32f4xx_can.c ****     /* 16-bit scale for the filter */
 377:/home/rdu/Workspace/project_templates/mcu/stm32_ws/src/libraries/STM32F4xx_StdPeriph_Driver/src/stm32f4xx_can.c ****     CANx->FS1R &= ~(uint32_t)filter_number_bit_pos;
 378:/home/rdu/Workspace/project_templates/mcu/stm32_ws/src/libraries/STM32F4xx_StdPeriph_Driver/src/stm32f4xx_can.c **** 
 379:/home/rdu/Workspace/project_templates/mcu/stm32_ws/src/libraries/STM32F4xx_StdPeriph_Driver/src/stm32f4xx_can.c ****     /* First 16-bit identifier and First 16-bit mask */
 380:/home/rdu/Workspace/project_templates/mcu/stm32_ws/src/libraries/STM32F4xx_StdPeriph_Driver/src/stm32f4xx_can.c ****     /* Or First 16-bit identifier and Second 16-bit identifier */
 381:/home/rdu/Workspace/project_templates/mcu/stm32_ws/src/libraries/STM32F4xx_StdPeriph_Driver/src/stm32f4xx_can.c ****     CANx->sFilterRegister[CAN_FilterInitStruct->CAN_FilterNumber].FR1 = 
 382:/home/rdu/Workspace/project_templates/mcu/stm32_ws/src/libraries/STM32F4xx_StdPeriph_Driver/src/stm32f4xx_can.c ****        ((0x0000FFFF & (uint32_t)CAN_FilterInitStruct->CAN_FilterMaskIdLow) << 16) |
 383:/home/rdu/Workspace/project_templates/mcu/stm32_ws/src/libraries/STM32F4xx_StdPeriph_Driver/src/stm32f4xx_can.c ****         (0x0000FFFF & (uint32_t)CAN_FilterInitStruct->CAN_FilterIdLow);
 384:/home/rdu/Workspace/project_templates/mcu/stm32_ws/src/libraries/STM32F4xx_StdPeriph_Driver/src/stm32f4xx_can.c **** 
 385:/home/rdu/Workspace/project_templates/mcu/stm32_ws/src/libraries/STM32F4xx_StdPeriph_Driver/src/stm32f4xx_can.c ****     /* Second 16-bit identifier and Second 16-bit mask */
 386:/home/rdu/Workspace/project_templates/mcu/stm32_ws/src/libraries/STM32F4xx_StdPeriph_Driver/src/stm32f4xx_can.c ****     /* Or Third 16-bit identifier and Fourth 16-bit identifier */
 387:/home/rdu/Workspace/project_templates/mcu/stm32_ws/src/libraries/STM32F4xx_StdPeriph_Driver/src/stm32f4xx_can.c ****     CANx->sFilterRegister[CAN_FilterInitStruct->CAN_FilterNumber].FR2 = 
 388:/home/rdu/Workspace/project_templates/mcu/stm32_ws/src/libraries/STM32F4xx_StdPeriph_Driver/src/stm32f4xx_can.c ****        ((0x0000FFFF & (uint32_t)CAN_FilterInitStruct->CAN_FilterMaskIdHigh) << 16) |
 389:/home/rdu/Workspace/project_templates/mcu/stm32_ws/src/libraries/STM32F4xx_StdPeriph_Driver/src/stm32f4xx_can.c ****         (0x0000FFFF & (uint32_t)CAN_FilterInitStruct->CAN_FilterIdHigh);
 390:/home/rdu/Workspace/project_templates/mcu/stm32_ws/src/libraries/STM32F4xx_StdPeriph_Driver/src/stm32f4xx_can.c ****   }
 391:/home/rdu/Workspace/project_templates/mcu/stm32_ws/src/libraries/STM32F4xx_StdPeriph_Driver/src/stm32f4xx_can.c **** 
 392:/home/rdu/Workspace/project_templates/mcu/stm32_ws/src/libraries/STM32F4xx_StdPeriph_Driver/src/stm32f4xx_can.c ****   if (CAN_FilterInitStruct->CAN_FilterScale == CAN_FilterScale_32bit)
 393:/home/rdu/Workspace/project_templates/mcu/stm32_ws/src/libraries/STM32F4xx_StdPeriph_Driver/src/stm32f4xx_can.c ****   {
 394:/home/rdu/Workspace/project_templates/mcu/stm32_ws/src/libraries/STM32F4xx_StdPeriph_Driver/src/stm32f4xx_can.c ****     /* 32-bit scale for the filter */
 395:/home/rdu/Workspace/project_templates/mcu/stm32_ws/src/libraries/STM32F4xx_StdPeriph_Driver/src/stm32f4xx_can.c ****     CANx->FS1R |= filter_number_bit_pos;
 396:/home/rdu/Workspace/project_templates/mcu/stm32_ws/src/libraries/STM32F4xx_StdPeriph_Driver/src/stm32f4xx_can.c ****     /* 32-bit identifier or First 32-bit identifier */
 397:/home/rdu/Workspace/project_templates/mcu/stm32_ws/src/libraries/STM32F4xx_StdPeriph_Driver/src/stm32f4xx_can.c ****     CANx->sFilterRegister[CAN_FilterInitStruct->CAN_FilterNumber].FR1 = 
 398:/home/rdu/Workspace/project_templates/mcu/stm32_ws/src/libraries/STM32F4xx_StdPeriph_Driver/src/stm32f4xx_can.c ****        ((0x0000FFFF & (uint32_t)CAN_FilterInitStruct->CAN_FilterIdHigh) << 16) |
 399:/home/rdu/Workspace/project_templates/mcu/stm32_ws/src/libraries/STM32F4xx_StdPeriph_Driver/src/stm32f4xx_can.c ****         (0x0000FFFF & (uint32_t)CAN_FilterInitStruct->CAN_FilterIdLow);
 400:/home/rdu/Workspace/project_templates/mcu/stm32_ws/src/libraries/STM32F4xx_StdPeriph_Driver/src/stm32f4xx_can.c ****     /* 32-bit mask or Second 32-bit identifier */
 401:/home/rdu/Workspace/project_templates/mcu/stm32_ws/src/libraries/STM32F4xx_StdPeriph_Driver/src/stm32f4xx_can.c ****     CANx->sFilterRegister[CAN_FilterInitStruct->CAN_FilterNumber].FR2 = 
 402:/home/rdu/Workspace/project_templates/mcu/stm32_ws/src/libraries/STM32F4xx_StdPeriph_Driver/src/stm32f4xx_can.c ****        ((0x0000FFFF & (uint32_t)CAN_FilterInitStruct->CAN_FilterMaskIdHigh) << 16) |
 403:/home/rdu/Workspace/project_templates/mcu/stm32_ws/src/libraries/STM32F4xx_StdPeriph_Driver/src/stm32f4xx_can.c ****         (0x0000FFFF & (uint32_t)CAN_FilterInitStruct->CAN_FilterMaskIdLow);
 404:/home/rdu/Workspace/project_templates/mcu/stm32_ws/src/libraries/STM32F4xx_StdPeriph_Driver/src/stm32f4xx_can.c ****   }
 405:/home/rdu/Workspace/project_templates/mcu/stm32_ws/src/libraries/STM32F4xx_StdPeriph_Driver/src/stm32f4xx_can.c **** 
 406:/home/rdu/Workspace/project_templates/mcu/stm32_ws/src/libraries/STM32F4xx_StdPeriph_Driver/src/stm32f4xx_can.c ****   /* Filter Mode */
 407:/home/rdu/Workspace/project_templates/mcu/stm32_ws/src/libraries/STM32F4xx_StdPeriph_Driver/src/stm32f4xx_can.c ****   if (CAN_FilterInitStruct->CAN_FilterMode == CAN_FilterMode_IdMask)
 408:/home/rdu/Workspace/project_templates/mcu/stm32_ws/src/libraries/STM32F4xx_StdPeriph_Driver/src/stm32f4xx_can.c ****   {
 409:/home/rdu/Workspace/project_templates/mcu/stm32_ws/src/libraries/STM32F4xx_StdPeriph_Driver/src/stm32f4xx_can.c ****     /*Id/Mask mode for the filter*/
 410:/home/rdu/Workspace/project_templates/mcu/stm32_ws/src/libraries/STM32F4xx_StdPeriph_Driver/src/stm32f4xx_can.c ****     CANx->FM1R &= ~(uint32_t)filter_number_bit_pos;
 411:/home/rdu/Workspace/project_templates/mcu/stm32_ws/src/libraries/STM32F4xx_StdPeriph_Driver/src/stm32f4xx_can.c ****   }
 412:/home/rdu/Workspace/project_templates/mcu/stm32_ws/src/libraries/STM32F4xx_StdPeriph_Driver/src/stm32f4xx_can.c ****   else /* CAN_FilterInitStruct->CAN_FilterMode == CAN_FilterMode_IdList */
 413:/home/rdu/Workspace/project_templates/mcu/stm32_ws/src/libraries/STM32F4xx_StdPeriph_Driver/src/stm32f4xx_can.c ****   {
 414:/home/rdu/Workspace/project_templates/mcu/stm32_ws/src/libraries/STM32F4xx_StdPeriph_Driver/src/stm32f4xx_can.c ****     /*Identifier list mode for the filter*/
 415:/home/rdu/Workspace/project_templates/mcu/stm32_ws/src/libraries/STM32F4xx_StdPeriph_Driver/src/stm32f4xx_can.c ****     CANx->FM1R |= (uint32_t)filter_number_bit_pos;
 416:/home/rdu/Workspace/project_templates/mcu/stm32_ws/src/libraries/STM32F4xx_StdPeriph_Driver/src/stm32f4xx_can.c ****   }
 417:/home/rdu/Workspace/project_templates/mcu/stm32_ws/src/libraries/STM32F4xx_StdPeriph_Driver/src/stm32f4xx_can.c **** 
 418:/home/rdu/Workspace/project_templates/mcu/stm32_ws/src/libraries/STM32F4xx_StdPeriph_Driver/src/stm32f4xx_can.c ****   /* Filter FIFO assignment */
 419:/home/rdu/Workspace/project_templates/mcu/stm32_ws/src/libraries/STM32F4xx_StdPeriph_Driver/src/stm32f4xx_can.c ****   if (CAN_FilterInitStruct->CAN_FilterFIFOAssignment == CAN_Filter_FIFO0)
 420:/home/rdu/Workspace/project_templates/mcu/stm32_ws/src/libraries/STM32F4xx_StdPeriph_Driver/src/stm32f4xx_can.c ****   {
 421:/home/rdu/Workspace/project_templates/mcu/stm32_ws/src/libraries/STM32F4xx_StdPeriph_Driver/src/stm32f4xx_can.c ****     /* FIFO 0 assignation for the filter */
 422:/home/rdu/Workspace/project_templates/mcu/stm32_ws/src/libraries/STM32F4xx_StdPeriph_Driver/src/stm32f4xx_can.c ****     CANx->FFA1R &= ~(uint32_t)filter_number_bit_pos;
 423:/home/rdu/Workspace/project_templates/mcu/stm32_ws/src/libraries/STM32F4xx_StdPeriph_Driver/src/stm32f4xx_can.c ****   }
 424:/home/rdu/Workspace/project_templates/mcu/stm32_ws/src/libraries/STM32F4xx_StdPeriph_Driver/src/stm32f4xx_can.c **** 
 425:/home/rdu/Workspace/project_templates/mcu/stm32_ws/src/libraries/STM32F4xx_StdPeriph_Driver/src/stm32f4xx_can.c ****   if (CAN_FilterInitStruct->CAN_FilterFIFOAssignment == CAN_Filter_FIFO1)
 426:/home/rdu/Workspace/project_templates/mcu/stm32_ws/src/libraries/STM32F4xx_StdPeriph_Driver/src/stm32f4xx_can.c ****   {
 427:/home/rdu/Workspace/project_templates/mcu/stm32_ws/src/libraries/STM32F4xx_StdPeriph_Driver/src/stm32f4xx_can.c ****     /* FIFO 1 assignation for the filter */
 428:/home/rdu/Workspace/project_templates/mcu/stm32_ws/src/libraries/STM32F4xx_StdPeriph_Driver/src/stm32f4xx_can.c ****     CANx->FFA1R |= (uint32_t)filter_number_bit_pos;
 429:/home/rdu/Workspace/project_templates/mcu/stm32_ws/src/libraries/STM32F4xx_StdPeriph_Driver/src/stm32f4xx_can.c ****   }
 430:/home/rdu/Workspace/project_templates/mcu/stm32_ws/src/libraries/STM32F4xx_StdPeriph_Driver/src/stm32f4xx_can.c ****   
 431:/home/rdu/Workspace/project_templates/mcu/stm32_ws/src/libraries/STM32F4xx_StdPeriph_Driver/src/stm32f4xx_can.c ****   /* Filter activation */
 432:/home/rdu/Workspace/project_templates/mcu/stm32_ws/src/libraries/STM32F4xx_StdPeriph_Driver/src/stm32f4xx_can.c ****   if (CAN_FilterInitStruct->CAN_FilterActivation == ENABLE)
 433:/home/rdu/Workspace/project_templates/mcu/stm32_ws/src/libraries/STM32F4xx_StdPeriph_Driver/src/stm32f4xx_can.c ****   {
 434:/home/rdu/Workspace/project_templates/mcu/stm32_ws/src/libraries/STM32F4xx_StdPeriph_Driver/src/stm32f4xx_can.c ****     CANx->FA1R |= filter_number_bit_pos;
 435:/home/rdu/Workspace/project_templates/mcu/stm32_ws/src/libraries/STM32F4xx_StdPeriph_Driver/src/stm32f4xx_can.c ****   }
 436:/home/rdu/Workspace/project_templates/mcu/stm32_ws/src/libraries/STM32F4xx_StdPeriph_Driver/src/stm32f4xx_can.c **** 
 437:/home/rdu/Workspace/project_templates/mcu/stm32_ws/src/libraries/STM32F4xx_StdPeriph_Driver/src/stm32f4xx_can.c ****   /* Leave the initialisation mode for the filter */
 438:/home/rdu/Workspace/project_templates/mcu/stm32_ws/src/libraries/STM32F4xx_StdPeriph_Driver/src/stm32f4xx_can.c ****   CANx->FMR &= ~FMR_FINIT;
 439:/home/rdu/Workspace/project_templates/mcu/stm32_ws/src/libraries/STM32F4xx_StdPeriph_Driver/src/stm32f4xx_can.c **** }
 440:/home/rdu/Workspace/project_templates/mcu/stm32_ws/src/libraries/STM32F4xx_StdPeriph_Driver/src/stm32f4xx_can.c **** #else
 441:/home/rdu/Workspace/project_templates/mcu/stm32_ws/src/libraries/STM32F4xx_StdPeriph_Driver/src/stm32f4xx_can.c **** /**
 442:/home/rdu/Workspace/project_templates/mcu/stm32_ws/src/libraries/STM32F4xx_StdPeriph_Driver/src/stm32f4xx_can.c ****   * @brief  Configures the CAN reception filter according to the specified
 443:/home/rdu/Workspace/project_templates/mcu/stm32_ws/src/libraries/STM32F4xx_StdPeriph_Driver/src/stm32f4xx_can.c ****   *         parameters in the CAN_FilterInitStruct.
 444:/home/rdu/Workspace/project_templates/mcu/stm32_ws/src/libraries/STM32F4xx_StdPeriph_Driver/src/stm32f4xx_can.c ****   * @param  CAN_FilterInitStruct: pointer to a CAN_FilterInitTypeDef structure that
 445:/home/rdu/Workspace/project_templates/mcu/stm32_ws/src/libraries/STM32F4xx_StdPeriph_Driver/src/stm32f4xx_can.c ****   *         contains the configuration information.
 446:/home/rdu/Workspace/project_templates/mcu/stm32_ws/src/libraries/STM32F4xx_StdPeriph_Driver/src/stm32f4xx_can.c ****   * @retval None
 447:/home/rdu/Workspace/project_templates/mcu/stm32_ws/src/libraries/STM32F4xx_StdPeriph_Driver/src/stm32f4xx_can.c ****   */
 448:/home/rdu/Workspace/project_templates/mcu/stm32_ws/src/libraries/STM32F4xx_StdPeriph_Driver/src/stm32f4xx_can.c **** void CAN_FilterInit(CAN_FilterInitTypeDef* CAN_FilterInitStruct)
 449:/home/rdu/Workspace/project_templates/mcu/stm32_ws/src/libraries/STM32F4xx_StdPeriph_Driver/src/stm32f4xx_can.c **** {
 363              		.loc 1 449 0
 364              		.cfi_startproc
 365              		@ args = 0, pretend = 0, frame = 16
 366              		@ frame_needed = 0, uses_anonymous_args = 0
 367              		@ link register save eliminated.
 368 0000 10B4     		push	{r4}
 369              	.LCFI5:
 370              		.cfi_def_cfa_offset 4
 371              		.cfi_offset 4, -4
 372 0002 85B0     		sub	sp, sp, #20
 373              	.LCFI6:
 374              		.cfi_def_cfa_offset 24
 375 0004 0190     		str	r0, [sp, #4]
 450:/home/rdu/Workspace/project_templates/mcu/stm32_ws/src/libraries/STM32F4xx_StdPeriph_Driver/src/stm32f4xx_can.c ****   uint32_t filter_number_bit_pos = 0;
 376              		.loc 1 450 0
 377 0006 0023     		movs	r3, #0
 378 0008 0393     		str	r3, [sp, #12]
 451:/home/rdu/Workspace/project_templates/mcu/stm32_ws/src/libraries/STM32F4xx_StdPeriph_Driver/src/stm32f4xx_can.c ****   /* Check the parameters */
 452:/home/rdu/Workspace/project_templates/mcu/stm32_ws/src/libraries/STM32F4xx_StdPeriph_Driver/src/stm32f4xx_can.c ****   assert_param(IS_CAN_FILTER_NUMBER(CAN_FilterInitStruct->CAN_FilterNumber));
 453:/home/rdu/Workspace/project_templates/mcu/stm32_ws/src/libraries/STM32F4xx_StdPeriph_Driver/src/stm32f4xx_can.c ****   assert_param(IS_CAN_FILTER_MODE(CAN_FilterInitStruct->CAN_FilterMode));
 454:/home/rdu/Workspace/project_templates/mcu/stm32_ws/src/libraries/STM32F4xx_StdPeriph_Driver/src/stm32f4xx_can.c ****   assert_param(IS_CAN_FILTER_SCALE(CAN_FilterInitStruct->CAN_FilterScale));
 455:/home/rdu/Workspace/project_templates/mcu/stm32_ws/src/libraries/STM32F4xx_StdPeriph_Driver/src/stm32f4xx_can.c ****   assert_param(IS_CAN_FILTER_FIFO(CAN_FilterInitStruct->CAN_FilterFIFOAssignment));
 456:/home/rdu/Workspace/project_templates/mcu/stm32_ws/src/libraries/STM32F4xx_StdPeriph_Driver/src/stm32f4xx_can.c ****   assert_param(IS_FUNCTIONAL_STATE(CAN_FilterInitStruct->CAN_FilterActivation));
 457:/home/rdu/Workspace/project_templates/mcu/stm32_ws/src/libraries/STM32F4xx_StdPeriph_Driver/src/stm32f4xx_can.c **** 
 458:/home/rdu/Workspace/project_templates/mcu/stm32_ws/src/libraries/STM32F4xx_StdPeriph_Driver/src/stm32f4xx_can.c ****   filter_number_bit_pos = ((uint32_t)1) << CAN_FilterInitStruct->CAN_FilterNumber;
 379              		.loc 1 458 0
 380 000a 019B     		ldr	r3, [sp, #4]
 381 000c 9B7A     		ldrb	r3, [r3, #10]	@ zero_extendqisi2
 382 000e 1A46     		mov	r2, r3
 383 0010 0123     		movs	r3, #1
 384 0012 9340     		lsls	r3, r3, r2
 385 0014 0393     		str	r3, [sp, #12]
 459:/home/rdu/Workspace/project_templates/mcu/stm32_ws/src/libraries/STM32F4xx_StdPeriph_Driver/src/stm32f4xx_can.c **** 
 460:/home/rdu/Workspace/project_templates/mcu/stm32_ws/src/libraries/STM32F4xx_StdPeriph_Driver/src/stm32f4xx_can.c ****   /* Initialisation mode for the filter */
 461:/home/rdu/Workspace/project_templates/mcu/stm32_ws/src/libraries/STM32F4xx_StdPeriph_Driver/src/stm32f4xx_can.c ****   CAN1->FMR |= FMR_FINIT;
 386              		.loc 1 461 0
 387 0016 5A4B     		ldr	r3, .L38
 388 0018 D3F80032 		ldr	r3, [r3, #512]
 389 001c 584A     		ldr	r2, .L38
 390 001e 43F00103 		orr	r3, r3, #1
 391 0022 C2F80032 		str	r3, [r2, #512]
 462:/home/rdu/Workspace/project_templates/mcu/stm32_ws/src/libraries/STM32F4xx_StdPeriph_Driver/src/stm32f4xx_can.c **** 
 463:/home/rdu/Workspace/project_templates/mcu/stm32_ws/src/libraries/STM32F4xx_StdPeriph_Driver/src/stm32f4xx_can.c ****   /* Filter Deactivation */
 464:/home/rdu/Workspace/project_templates/mcu/stm32_ws/src/libraries/STM32F4xx_StdPeriph_Driver/src/stm32f4xx_can.c ****   CAN1->FA1R &= ~(uint32_t)filter_number_bit_pos;
 392              		.loc 1 464 0
 393 0026 564B     		ldr	r3, .L38
 394 0028 D3F81C22 		ldr	r2, [r3, #540]
 395 002c 039B     		ldr	r3, [sp, #12]
 396 002e DB43     		mvns	r3, r3
 397 0030 5349     		ldr	r1, .L38
 398 0032 1340     		ands	r3, r3, r2
 399 0034 C1F81C32 		str	r3, [r1, #540]
 465:/home/rdu/Workspace/project_templates/mcu/stm32_ws/src/libraries/STM32F4xx_StdPeriph_Driver/src/stm32f4xx_can.c **** 
 466:/home/rdu/Workspace/project_templates/mcu/stm32_ws/src/libraries/STM32F4xx_StdPeriph_Driver/src/stm32f4xx_can.c ****   /* Filter Scale */
 467:/home/rdu/Workspace/project_templates/mcu/stm32_ws/src/libraries/STM32F4xx_StdPeriph_Driver/src/stm32f4xx_can.c ****   if (CAN_FilterInitStruct->CAN_FilterScale == CAN_FilterScale_16bit)
 400              		.loc 1 467 0
 401 0038 019B     		ldr	r3, [sp, #4]
 402 003a 1B7B     		ldrb	r3, [r3, #12]	@ zero_extendqisi2
 403 003c 002B     		cmp	r3, #0
 404 003e 29D1     		bne	.L31
 468:/home/rdu/Workspace/project_templates/mcu/stm32_ws/src/libraries/STM32F4xx_StdPeriph_Driver/src/stm32f4xx_can.c ****   {
 469:/home/rdu/Workspace/project_templates/mcu/stm32_ws/src/libraries/STM32F4xx_StdPeriph_Driver/src/stm32f4xx_can.c ****     /* 16-bit scale for the filter */
 470:/home/rdu/Workspace/project_templates/mcu/stm32_ws/src/libraries/STM32F4xx_StdPeriph_Driver/src/stm32f4xx_can.c ****     CAN1->FS1R &= ~(uint32_t)filter_number_bit_pos;
 405              		.loc 1 470 0
 406 0040 4F4B     		ldr	r3, .L38
 407 0042 D3F80C22 		ldr	r2, [r3, #524]
 408 0046 039B     		ldr	r3, [sp, #12]
 409 0048 DB43     		mvns	r3, r3
 410 004a 4D49     		ldr	r1, .L38
 411 004c 1340     		ands	r3, r3, r2
 412 004e C1F80C32 		str	r3, [r1, #524]
 471:/home/rdu/Workspace/project_templates/mcu/stm32_ws/src/libraries/STM32F4xx_StdPeriph_Driver/src/stm32f4xx_can.c **** 
 472:/home/rdu/Workspace/project_templates/mcu/stm32_ws/src/libraries/STM32F4xx_StdPeriph_Driver/src/stm32f4xx_can.c ****     /* First 16-bit identifier and First 16-bit mask */
 473:/home/rdu/Workspace/project_templates/mcu/stm32_ws/src/libraries/STM32F4xx_StdPeriph_Driver/src/stm32f4xx_can.c ****     /* Or First 16-bit identifier and Second 16-bit identifier */
 474:/home/rdu/Workspace/project_templates/mcu/stm32_ws/src/libraries/STM32F4xx_StdPeriph_Driver/src/stm32f4xx_can.c ****     CAN1->sFilterRegister[CAN_FilterInitStruct->CAN_FilterNumber].FR1 = 
 475:/home/rdu/Workspace/project_templates/mcu/stm32_ws/src/libraries/STM32F4xx_StdPeriph_Driver/src/stm32f4xx_can.c ****        ((0x0000FFFF & (uint32_t)CAN_FilterInitStruct->CAN_FilterMaskIdLow) << 16) |
 413              		.loc 1 475 0
 414 0052 019B     		ldr	r3, [sp, #4]
 415 0054 DB88     		ldrh	r3, [r3, #6]
 416 0056 1B04     		lsls	r3, r3, #16
 476:/home/rdu/Workspace/project_templates/mcu/stm32_ws/src/libraries/STM32F4xx_StdPeriph_Driver/src/stm32f4xx_can.c ****         (0x0000FFFF & (uint32_t)CAN_FilterInitStruct->CAN_FilterIdLow);
 417              		.loc 1 476 0
 418 0058 019A     		ldr	r2, [sp, #4]
 419 005a 5288     		ldrh	r2, [r2, #2]
 420 005c 1446     		mov	r4, r2
 474:/home/rdu/Workspace/project_templates/mcu/stm32_ws/src/libraries/STM32F4xx_StdPeriph_Driver/src/stm32f4xx_can.c ****        ((0x0000FFFF & (uint32_t)CAN_FilterInitStruct->CAN_FilterMaskIdLow) << 16) |
 421              		.loc 1 474 0
 422 005e 4849     		ldr	r1, .L38
 423 0060 019A     		ldr	r2, [sp, #4]
 424 0062 927A     		ldrb	r2, [r2, #10]	@ zero_extendqisi2
 425 0064 1046     		mov	r0, r2
 475:/home/rdu/Workspace/project_templates/mcu/stm32_ws/src/libraries/STM32F4xx_StdPeriph_Driver/src/stm32f4xx_can.c ****         (0x0000FFFF & (uint32_t)CAN_FilterInitStruct->CAN_FilterIdLow);
 426              		.loc 1 475 0
 427 0066 43EA0402 		orr	r2, r3, r4
 474:/home/rdu/Workspace/project_templates/mcu/stm32_ws/src/libraries/STM32F4xx_StdPeriph_Driver/src/stm32f4xx_can.c ****        ((0x0000FFFF & (uint32_t)CAN_FilterInitStruct->CAN_FilterMaskIdLow) << 16) |
 428              		.loc 1 474 0
 429 006a 00F14803 		add	r3, r0, #72
 430 006e 41F83320 		str	r2, [r1, r3, lsl #3]
 477:/home/rdu/Workspace/project_templates/mcu/stm32_ws/src/libraries/STM32F4xx_StdPeriph_Driver/src/stm32f4xx_can.c **** 
 478:/home/rdu/Workspace/project_templates/mcu/stm32_ws/src/libraries/STM32F4xx_StdPeriph_Driver/src/stm32f4xx_can.c ****     /* Second 16-bit identifier and Second 16-bit mask */
 479:/home/rdu/Workspace/project_templates/mcu/stm32_ws/src/libraries/STM32F4xx_StdPeriph_Driver/src/stm32f4xx_can.c ****     /* Or Third 16-bit identifier and Fourth 16-bit identifier */
 480:/home/rdu/Workspace/project_templates/mcu/stm32_ws/src/libraries/STM32F4xx_StdPeriph_Driver/src/stm32f4xx_can.c ****     CAN1->sFilterRegister[CAN_FilterInitStruct->CAN_FilterNumber].FR2 = 
 481:/home/rdu/Workspace/project_templates/mcu/stm32_ws/src/libraries/STM32F4xx_StdPeriph_Driver/src/stm32f4xx_can.c ****        ((0x0000FFFF & (uint32_t)CAN_FilterInitStruct->CAN_FilterMaskIdHigh) << 16) |
 431              		.loc 1 481 0
 432 0072 019B     		ldr	r3, [sp, #4]
 433 0074 9B88     		ldrh	r3, [r3, #4]
 434 0076 1B04     		lsls	r3, r3, #16
 482:/home/rdu/Workspace/project_templates/mcu/stm32_ws/src/libraries/STM32F4xx_StdPeriph_Driver/src/stm32f4xx_can.c ****         (0x0000FFFF & (uint32_t)CAN_FilterInitStruct->CAN_FilterIdHigh);
 435              		.loc 1 482 0
 436 0078 019A     		ldr	r2, [sp, #4]
 437 007a 1288     		ldrh	r2, [r2]
 438 007c 1446     		mov	r4, r2
 480:/home/rdu/Workspace/project_templates/mcu/stm32_ws/src/libraries/STM32F4xx_StdPeriph_Driver/src/stm32f4xx_can.c ****        ((0x0000FFFF & (uint32_t)CAN_FilterInitStruct->CAN_FilterMaskIdHigh) << 16) |
 439              		.loc 1 480 0
 440 007e 4049     		ldr	r1, .L38
 441 0080 019A     		ldr	r2, [sp, #4]
 442 0082 927A     		ldrb	r2, [r2, #10]	@ zero_extendqisi2
 443 0084 1046     		mov	r0, r2
 481:/home/rdu/Workspace/project_templates/mcu/stm32_ws/src/libraries/STM32F4xx_StdPeriph_Driver/src/stm32f4xx_can.c ****         (0x0000FFFF & (uint32_t)CAN_FilterInitStruct->CAN_FilterIdHigh);
 444              		.loc 1 481 0
 445 0086 43EA0402 		orr	r2, r3, r4
 480:/home/rdu/Workspace/project_templates/mcu/stm32_ws/src/libraries/STM32F4xx_StdPeriph_Driver/src/stm32f4xx_can.c ****        ((0x0000FFFF & (uint32_t)CAN_FilterInitStruct->CAN_FilterMaskIdHigh) << 16) |
 446              		.loc 1 480 0
 447 008a 00F14803 		add	r3, r0, #72
 448 008e DB00     		lsls	r3, r3, #3
 449 0090 0B44     		add	r3, r3, r1
 450 0092 5A60     		str	r2, [r3, #4]
 451              	.L31:
 483:/home/rdu/Workspace/project_templates/mcu/stm32_ws/src/libraries/STM32F4xx_StdPeriph_Driver/src/stm32f4xx_can.c ****   }
 484:/home/rdu/Workspace/project_templates/mcu/stm32_ws/src/libraries/STM32F4xx_StdPeriph_Driver/src/stm32f4xx_can.c **** 
 485:/home/rdu/Workspace/project_templates/mcu/stm32_ws/src/libraries/STM32F4xx_StdPeriph_Driver/src/stm32f4xx_can.c ****   if (CAN_FilterInitStruct->CAN_FilterScale == CAN_FilterScale_32bit)
 452              		.loc 1 485 0
 453 0094 019B     		ldr	r3, [sp, #4]
 454 0096 1B7B     		ldrb	r3, [r3, #12]	@ zero_extendqisi2
 455 0098 012B     		cmp	r3, #1
 456 009a 28D1     		bne	.L32
 486:/home/rdu/Workspace/project_templates/mcu/stm32_ws/src/libraries/STM32F4xx_StdPeriph_Driver/src/stm32f4xx_can.c ****   {
 487:/home/rdu/Workspace/project_templates/mcu/stm32_ws/src/libraries/STM32F4xx_StdPeriph_Driver/src/stm32f4xx_can.c ****     /* 32-bit scale for the filter */
 488:/home/rdu/Workspace/project_templates/mcu/stm32_ws/src/libraries/STM32F4xx_StdPeriph_Driver/src/stm32f4xx_can.c ****     CAN1->FS1R |= filter_number_bit_pos;
 457              		.loc 1 488 0
 458 009c 384B     		ldr	r3, .L38
 459 009e D3F80C22 		ldr	r2, [r3, #524]
 460 00a2 3749     		ldr	r1, .L38
 461 00a4 039B     		ldr	r3, [sp, #12]
 462 00a6 1343     		orrs	r3, r3, r2
 463 00a8 C1F80C32 		str	r3, [r1, #524]
 489:/home/rdu/Workspace/project_templates/mcu/stm32_ws/src/libraries/STM32F4xx_StdPeriph_Driver/src/stm32f4xx_can.c ****     /* 32-bit identifier or First 32-bit identifier */
 490:/home/rdu/Workspace/project_templates/mcu/stm32_ws/src/libraries/STM32F4xx_StdPeriph_Driver/src/stm32f4xx_can.c ****     CAN1->sFilterRegister[CAN_FilterInitStruct->CAN_FilterNumber].FR1 = 
 491:/home/rdu/Workspace/project_templates/mcu/stm32_ws/src/libraries/STM32F4xx_StdPeriph_Driver/src/stm32f4xx_can.c ****        ((0x0000FFFF & (uint32_t)CAN_FilterInitStruct->CAN_FilterIdHigh) << 16) |
 464              		.loc 1 491 0
 465 00ac 019B     		ldr	r3, [sp, #4]
 466 00ae 1B88     		ldrh	r3, [r3]
 467 00b0 1B04     		lsls	r3, r3, #16
 492:/home/rdu/Workspace/project_templates/mcu/stm32_ws/src/libraries/STM32F4xx_StdPeriph_Driver/src/stm32f4xx_can.c ****         (0x0000FFFF & (uint32_t)CAN_FilterInitStruct->CAN_FilterIdLow);
 468              		.loc 1 492 0
 469 00b2 019A     		ldr	r2, [sp, #4]
 470 00b4 5288     		ldrh	r2, [r2, #2]
 471 00b6 1446     		mov	r4, r2
 490:/home/rdu/Workspace/project_templates/mcu/stm32_ws/src/libraries/STM32F4xx_StdPeriph_Driver/src/stm32f4xx_can.c ****        ((0x0000FFFF & (uint32_t)CAN_FilterInitStruct->CAN_FilterIdHigh) << 16) |
 472              		.loc 1 490 0
 473 00b8 3149     		ldr	r1, .L38
 474 00ba 019A     		ldr	r2, [sp, #4]
 475 00bc 927A     		ldrb	r2, [r2, #10]	@ zero_extendqisi2
 476 00be 1046     		mov	r0, r2
 491:/home/rdu/Workspace/project_templates/mcu/stm32_ws/src/libraries/STM32F4xx_StdPeriph_Driver/src/stm32f4xx_can.c ****         (0x0000FFFF & (uint32_t)CAN_FilterInitStruct->CAN_FilterIdLow);
 477              		.loc 1 491 0
 478 00c0 43EA0402 		orr	r2, r3, r4
 490:/home/rdu/Workspace/project_templates/mcu/stm32_ws/src/libraries/STM32F4xx_StdPeriph_Driver/src/stm32f4xx_can.c ****        ((0x0000FFFF & (uint32_t)CAN_FilterInitStruct->CAN_FilterIdHigh) << 16) |
 479              		.loc 1 490 0
 480 00c4 00F14803 		add	r3, r0, #72
 481 00c8 41F83320 		str	r2, [r1, r3, lsl #3]
 493:/home/rdu/Workspace/project_templates/mcu/stm32_ws/src/libraries/STM32F4xx_StdPeriph_Driver/src/stm32f4xx_can.c ****     /* 32-bit mask or Second 32-bit identifier */
 494:/home/rdu/Workspace/project_templates/mcu/stm32_ws/src/libraries/STM32F4xx_StdPeriph_Driver/src/stm32f4xx_can.c ****     CAN1->sFilterRegister[CAN_FilterInitStruct->CAN_FilterNumber].FR2 = 
 495:/home/rdu/Workspace/project_templates/mcu/stm32_ws/src/libraries/STM32F4xx_StdPeriph_Driver/src/stm32f4xx_can.c ****        ((0x0000FFFF & (uint32_t)CAN_FilterInitStruct->CAN_FilterMaskIdHigh) << 16) |
 482              		.loc 1 495 0
 483 00cc 019B     		ldr	r3, [sp, #4]
 484 00ce 9B88     		ldrh	r3, [r3, #4]
 485 00d0 1B04     		lsls	r3, r3, #16
 496:/home/rdu/Workspace/project_templates/mcu/stm32_ws/src/libraries/STM32F4xx_StdPeriph_Driver/src/stm32f4xx_can.c ****         (0x0000FFFF & (uint32_t)CAN_FilterInitStruct->CAN_FilterMaskIdLow);
 486              		.loc 1 496 0
 487 00d2 019A     		ldr	r2, [sp, #4]
 488 00d4 D288     		ldrh	r2, [r2, #6]
 489 00d6 1446     		mov	r4, r2
 494:/home/rdu/Workspace/project_templates/mcu/stm32_ws/src/libraries/STM32F4xx_StdPeriph_Driver/src/stm32f4xx_can.c ****        ((0x0000FFFF & (uint32_t)CAN_FilterInitStruct->CAN_FilterMaskIdHigh) << 16) |
 490              		.loc 1 494 0
 491 00d8 2949     		ldr	r1, .L38
 492 00da 019A     		ldr	r2, [sp, #4]
 493 00dc 927A     		ldrb	r2, [r2, #10]	@ zero_extendqisi2
 494 00de 1046     		mov	r0, r2
 495:/home/rdu/Workspace/project_templates/mcu/stm32_ws/src/libraries/STM32F4xx_StdPeriph_Driver/src/stm32f4xx_can.c ****         (0x0000FFFF & (uint32_t)CAN_FilterInitStruct->CAN_FilterMaskIdLow);
 495              		.loc 1 495 0
 496 00e0 43EA0402 		orr	r2, r3, r4
 494:/home/rdu/Workspace/project_templates/mcu/stm32_ws/src/libraries/STM32F4xx_StdPeriph_Driver/src/stm32f4xx_can.c ****        ((0x0000FFFF & (uint32_t)CAN_FilterInitStruct->CAN_FilterMaskIdHigh) << 16) |
 497              		.loc 1 494 0
 498 00e4 00F14803 		add	r3, r0, #72
 499 00e8 DB00     		lsls	r3, r3, #3
 500 00ea 0B44     		add	r3, r3, r1
 501 00ec 5A60     		str	r2, [r3, #4]
 502              	.L32:
 497:/home/rdu/Workspace/project_templates/mcu/stm32_ws/src/libraries/STM32F4xx_StdPeriph_Driver/src/stm32f4xx_can.c ****   }
 498:/home/rdu/Workspace/project_templates/mcu/stm32_ws/src/libraries/STM32F4xx_StdPeriph_Driver/src/stm32f4xx_can.c **** 
 499:/home/rdu/Workspace/project_templates/mcu/stm32_ws/src/libraries/STM32F4xx_StdPeriph_Driver/src/stm32f4xx_can.c ****   /* Filter Mode */
 500:/home/rdu/Workspace/project_templates/mcu/stm32_ws/src/libraries/STM32F4xx_StdPeriph_Driver/src/stm32f4xx_can.c ****   if (CAN_FilterInitStruct->CAN_FilterMode == CAN_FilterMode_IdMask)
 503              		.loc 1 500 0
 504 00ee 019B     		ldr	r3, [sp, #4]
 505 00f0 DB7A     		ldrb	r3, [r3, #11]	@ zero_extendqisi2
 506 00f2 002B     		cmp	r3, #0
 507 00f4 09D1     		bne	.L33
 501:/home/rdu/Workspace/project_templates/mcu/stm32_ws/src/libraries/STM32F4xx_StdPeriph_Driver/src/stm32f4xx_can.c ****   {
 502:/home/rdu/Workspace/project_templates/mcu/stm32_ws/src/libraries/STM32F4xx_StdPeriph_Driver/src/stm32f4xx_can.c ****     /*Id/Mask mode for the filter*/
 503:/home/rdu/Workspace/project_templates/mcu/stm32_ws/src/libraries/STM32F4xx_StdPeriph_Driver/src/stm32f4xx_can.c ****     CAN1->FM1R &= ~(uint32_t)filter_number_bit_pos;
 508              		.loc 1 503 0
 509 00f6 224B     		ldr	r3, .L38
 510 00f8 D3F80422 		ldr	r2, [r3, #516]
 511 00fc 039B     		ldr	r3, [sp, #12]
 512 00fe DB43     		mvns	r3, r3
 513 0100 1F49     		ldr	r1, .L38
 514 0102 1340     		ands	r3, r3, r2
 515 0104 C1F80432 		str	r3, [r1, #516]
 516 0108 07E0     		b	.L34
 517              	.L33:
 504:/home/rdu/Workspace/project_templates/mcu/stm32_ws/src/libraries/STM32F4xx_StdPeriph_Driver/src/stm32f4xx_can.c ****   }
 505:/home/rdu/Workspace/project_templates/mcu/stm32_ws/src/libraries/STM32F4xx_StdPeriph_Driver/src/stm32f4xx_can.c ****   else /* CAN_FilterInitStruct->CAN_FilterMode == CAN_FilterMode_IdList */
 506:/home/rdu/Workspace/project_templates/mcu/stm32_ws/src/libraries/STM32F4xx_StdPeriph_Driver/src/stm32f4xx_can.c ****   {
 507:/home/rdu/Workspace/project_templates/mcu/stm32_ws/src/libraries/STM32F4xx_StdPeriph_Driver/src/stm32f4xx_can.c ****     /*Identifier list mode for the filter*/
 508:/home/rdu/Workspace/project_templates/mcu/stm32_ws/src/libraries/STM32F4xx_StdPeriph_Driver/src/stm32f4xx_can.c ****     CAN1->FM1R |= (uint32_t)filter_number_bit_pos;
 518              		.loc 1 508 0
 519 010a 1D4B     		ldr	r3, .L38
 520 010c D3F80422 		ldr	r2, [r3, #516]
 521 0110 1B49     		ldr	r1, .L38
 522 0112 039B     		ldr	r3, [sp, #12]
 523 0114 1343     		orrs	r3, r3, r2
 524 0116 C1F80432 		str	r3, [r1, #516]
 525              	.L34:
 509:/home/rdu/Workspace/project_templates/mcu/stm32_ws/src/libraries/STM32F4xx_StdPeriph_Driver/src/stm32f4xx_can.c ****   }
 510:/home/rdu/Workspace/project_templates/mcu/stm32_ws/src/libraries/STM32F4xx_StdPeriph_Driver/src/stm32f4xx_can.c **** 
 511:/home/rdu/Workspace/project_templates/mcu/stm32_ws/src/libraries/STM32F4xx_StdPeriph_Driver/src/stm32f4xx_can.c ****   /* Filter FIFO assignment */
 512:/home/rdu/Workspace/project_templates/mcu/stm32_ws/src/libraries/STM32F4xx_StdPeriph_Driver/src/stm32f4xx_can.c ****   if (CAN_FilterInitStruct->CAN_FilterFIFOAssignment == CAN_Filter_FIFO0)
 526              		.loc 1 512 0
 527 011a 019B     		ldr	r3, [sp, #4]
 528 011c 1B89     		ldrh	r3, [r3, #8]
 529 011e 002B     		cmp	r3, #0
 530 0120 08D1     		bne	.L35
 513:/home/rdu/Workspace/project_templates/mcu/stm32_ws/src/libraries/STM32F4xx_StdPeriph_Driver/src/stm32f4xx_can.c ****   {
 514:/home/rdu/Workspace/project_templates/mcu/stm32_ws/src/libraries/STM32F4xx_StdPeriph_Driver/src/stm32f4xx_can.c ****     /* FIFO 0 assignation for the filter */
 515:/home/rdu/Workspace/project_templates/mcu/stm32_ws/src/libraries/STM32F4xx_StdPeriph_Driver/src/stm32f4xx_can.c ****     CAN1->FFA1R &= ~(uint32_t)filter_number_bit_pos;
 531              		.loc 1 515 0
 532 0122 174B     		ldr	r3, .L38
 533 0124 D3F81422 		ldr	r2, [r3, #532]
 534 0128 039B     		ldr	r3, [sp, #12]
 535 012a DB43     		mvns	r3, r3
 536 012c 1449     		ldr	r1, .L38
 537 012e 1340     		ands	r3, r3, r2
 538 0130 C1F81432 		str	r3, [r1, #532]
 539              	.L35:
 516:/home/rdu/Workspace/project_templates/mcu/stm32_ws/src/libraries/STM32F4xx_StdPeriph_Driver/src/stm32f4xx_can.c ****   }
 517:/home/rdu/Workspace/project_templates/mcu/stm32_ws/src/libraries/STM32F4xx_StdPeriph_Driver/src/stm32f4xx_can.c **** 
 518:/home/rdu/Workspace/project_templates/mcu/stm32_ws/src/libraries/STM32F4xx_StdPeriph_Driver/src/stm32f4xx_can.c ****   if (CAN_FilterInitStruct->CAN_FilterFIFOAssignment == CAN_Filter_FIFO1)
 540              		.loc 1 518 0
 541 0134 019B     		ldr	r3, [sp, #4]
 542 0136 1B89     		ldrh	r3, [r3, #8]
 543 0138 012B     		cmp	r3, #1
 544 013a 07D1     		bne	.L36
 519:/home/rdu/Workspace/project_templates/mcu/stm32_ws/src/libraries/STM32F4xx_StdPeriph_Driver/src/stm32f4xx_can.c ****   {
 520:/home/rdu/Workspace/project_templates/mcu/stm32_ws/src/libraries/STM32F4xx_StdPeriph_Driver/src/stm32f4xx_can.c ****     /* FIFO 1 assignation for the filter */
 521:/home/rdu/Workspace/project_templates/mcu/stm32_ws/src/libraries/STM32F4xx_StdPeriph_Driver/src/stm32f4xx_can.c ****     CAN1->FFA1R |= (uint32_t)filter_number_bit_pos;
 545              		.loc 1 521 0
 546 013c 104B     		ldr	r3, .L38
 547 013e D3F81422 		ldr	r2, [r3, #532]
 548 0142 0F49     		ldr	r1, .L38
 549 0144 039B     		ldr	r3, [sp, #12]
 550 0146 1343     		orrs	r3, r3, r2
 551 0148 C1F81432 		str	r3, [r1, #532]
 552              	.L36:
 522:/home/rdu/Workspace/project_templates/mcu/stm32_ws/src/libraries/STM32F4xx_StdPeriph_Driver/src/stm32f4xx_can.c ****   }
 523:/home/rdu/Workspace/project_templates/mcu/stm32_ws/src/libraries/STM32F4xx_StdPeriph_Driver/src/stm32f4xx_can.c ****   
 524:/home/rdu/Workspace/project_templates/mcu/stm32_ws/src/libraries/STM32F4xx_StdPeriph_Driver/src/stm32f4xx_can.c ****   /* Filter activation */
 525:/home/rdu/Workspace/project_templates/mcu/stm32_ws/src/libraries/STM32F4xx_StdPeriph_Driver/src/stm32f4xx_can.c ****   if (CAN_FilterInitStruct->CAN_FilterActivation == ENABLE)
 553              		.loc 1 525 0
 554 014c 019B     		ldr	r3, [sp, #4]
 555 014e 5B7B     		ldrb	r3, [r3, #13]	@ zero_extendqisi2
 556 0150 012B     		cmp	r3, #1
 557 0152 07D1     		bne	.L37
 526:/home/rdu/Workspace/project_templates/mcu/stm32_ws/src/libraries/STM32F4xx_StdPeriph_Driver/src/stm32f4xx_can.c ****   {
 527:/home/rdu/Workspace/project_templates/mcu/stm32_ws/src/libraries/STM32F4xx_StdPeriph_Driver/src/stm32f4xx_can.c ****     CAN1->FA1R |= filter_number_bit_pos;
 558              		.loc 1 527 0
 559 0154 0A4B     		ldr	r3, .L38
 560 0156 D3F81C22 		ldr	r2, [r3, #540]
 561 015a 0949     		ldr	r1, .L38
 562 015c 039B     		ldr	r3, [sp, #12]
 563 015e 1343     		orrs	r3, r3, r2
 564 0160 C1F81C32 		str	r3, [r1, #540]
 565              	.L37:
 528:/home/rdu/Workspace/project_templates/mcu/stm32_ws/src/libraries/STM32F4xx_StdPeriph_Driver/src/stm32f4xx_can.c ****   }
 529:/home/rdu/Workspace/project_templates/mcu/stm32_ws/src/libraries/STM32F4xx_StdPeriph_Driver/src/stm32f4xx_can.c **** 
 530:/home/rdu/Workspace/project_templates/mcu/stm32_ws/src/libraries/STM32F4xx_StdPeriph_Driver/src/stm32f4xx_can.c ****   /* Leave the initialisation mode for the filter */
 531:/home/rdu/Workspace/project_templates/mcu/stm32_ws/src/libraries/STM32F4xx_StdPeriph_Driver/src/stm32f4xx_can.c ****   CAN1->FMR &= ~FMR_FINIT;
 566              		.loc 1 531 0
 567 0164 064B     		ldr	r3, .L38
 568 0166 D3F80032 		ldr	r3, [r3, #512]
 569 016a 054A     		ldr	r2, .L38
 570 016c 23F00103 		bic	r3, r3, #1
 571 0170 C2F80032 		str	r3, [r2, #512]
 532:/home/rdu/Workspace/project_templates/mcu/stm32_ws/src/libraries/STM32F4xx_StdPeriph_Driver/src/stm32f4xx_can.c **** }
 572              		.loc 1 532 0
 573 0174 00BF     		nop
 574 0176 05B0     		add	sp, sp, #20
 575              	.LCFI7:
 576              		.cfi_def_cfa_offset 4
 577              		@ sp needed
 578 0178 5DF8044B 		ldr	r4, [sp], #4
 579              	.LCFI8:
 580              		.cfi_restore 4
 581              		.cfi_def_cfa_offset 0
 582 017c 7047     		bx	lr
 583              	.L39:
 584 017e 00BF     		.align	2
 585              	.L38:
 586 0180 00640040 		.word	1073767424
 587              		.cfi_endproc
 588              	.LFE125:
 590              		.section	.text.CAN_StructInit,"ax",%progbits
 591              		.align	1
 592              		.global	CAN_StructInit
 593              		.syntax unified
 594              		.thumb
 595              		.thumb_func
 596              		.fpu fpv4-sp-d16
 598              	CAN_StructInit:
 599              	.LFB126:
 533:/home/rdu/Workspace/project_templates/mcu/stm32_ws/src/libraries/STM32F4xx_StdPeriph_Driver/src/stm32f4xx_can.c **** #endif /* STM32F413_423xx */
 534:/home/rdu/Workspace/project_templates/mcu/stm32_ws/src/libraries/STM32F4xx_StdPeriph_Driver/src/stm32f4xx_can.c **** 
 535:/home/rdu/Workspace/project_templates/mcu/stm32_ws/src/libraries/STM32F4xx_StdPeriph_Driver/src/stm32f4xx_can.c **** /**
 536:/home/rdu/Workspace/project_templates/mcu/stm32_ws/src/libraries/STM32F4xx_StdPeriph_Driver/src/stm32f4xx_can.c ****   * @brief  Fills each CAN_InitStruct member with its default value.
 537:/home/rdu/Workspace/project_templates/mcu/stm32_ws/src/libraries/STM32F4xx_StdPeriph_Driver/src/stm32f4xx_can.c ****   * @param  CAN_InitStruct: pointer to a CAN_InitTypeDef structure which ill be initialized.
 538:/home/rdu/Workspace/project_templates/mcu/stm32_ws/src/libraries/STM32F4xx_StdPeriph_Driver/src/stm32f4xx_can.c ****   * @retval None
 539:/home/rdu/Workspace/project_templates/mcu/stm32_ws/src/libraries/STM32F4xx_StdPeriph_Driver/src/stm32f4xx_can.c ****   */
 540:/home/rdu/Workspace/project_templates/mcu/stm32_ws/src/libraries/STM32F4xx_StdPeriph_Driver/src/stm32f4xx_can.c **** void CAN_StructInit(CAN_InitTypeDef* CAN_InitStruct)
 541:/home/rdu/Workspace/project_templates/mcu/stm32_ws/src/libraries/STM32F4xx_StdPeriph_Driver/src/stm32f4xx_can.c **** {
 600              		.loc 1 541 0
 601              		.cfi_startproc
 602              		@ args = 0, pretend = 0, frame = 8
 603              		@ frame_needed = 0, uses_anonymous_args = 0
 604              		@ link register save eliminated.
 605 0000 82B0     		sub	sp, sp, #8
 606              	.LCFI9:
 607              		.cfi_def_cfa_offset 8
 608 0002 0190     		str	r0, [sp, #4]
 542:/home/rdu/Workspace/project_templates/mcu/stm32_ws/src/libraries/STM32F4xx_StdPeriph_Driver/src/stm32f4xx_can.c ****   /* Reset CAN init structure parameters values */
 543:/home/rdu/Workspace/project_templates/mcu/stm32_ws/src/libraries/STM32F4xx_StdPeriph_Driver/src/stm32f4xx_can.c ****   
 544:/home/rdu/Workspace/project_templates/mcu/stm32_ws/src/libraries/STM32F4xx_StdPeriph_Driver/src/stm32f4xx_can.c ****   /* Initialize the time triggered communication mode */
 545:/home/rdu/Workspace/project_templates/mcu/stm32_ws/src/libraries/STM32F4xx_StdPeriph_Driver/src/stm32f4xx_can.c ****   CAN_InitStruct->CAN_TTCM = DISABLE;
 609              		.loc 1 545 0
 610 0004 019B     		ldr	r3, [sp, #4]
 611 0006 0022     		movs	r2, #0
 612 0008 9A71     		strb	r2, [r3, #6]
 546:/home/rdu/Workspace/project_templates/mcu/stm32_ws/src/libraries/STM32F4xx_StdPeriph_Driver/src/stm32f4xx_can.c ****   
 547:/home/rdu/Workspace/project_templates/mcu/stm32_ws/src/libraries/STM32F4xx_StdPeriph_Driver/src/stm32f4xx_can.c ****   /* Initialize the automatic bus-off management */
 548:/home/rdu/Workspace/project_templates/mcu/stm32_ws/src/libraries/STM32F4xx_StdPeriph_Driver/src/stm32f4xx_can.c ****   CAN_InitStruct->CAN_ABOM = DISABLE;
 613              		.loc 1 548 0
 614 000a 019B     		ldr	r3, [sp, #4]
 615 000c 0022     		movs	r2, #0
 616 000e DA71     		strb	r2, [r3, #7]
 549:/home/rdu/Workspace/project_templates/mcu/stm32_ws/src/libraries/STM32F4xx_StdPeriph_Driver/src/stm32f4xx_can.c ****   
 550:/home/rdu/Workspace/project_templates/mcu/stm32_ws/src/libraries/STM32F4xx_StdPeriph_Driver/src/stm32f4xx_can.c ****   /* Initialize the automatic wake-up mode */
 551:/home/rdu/Workspace/project_templates/mcu/stm32_ws/src/libraries/STM32F4xx_StdPeriph_Driver/src/stm32f4xx_can.c ****   CAN_InitStruct->CAN_AWUM = DISABLE;
 617              		.loc 1 551 0
 618 0010 019B     		ldr	r3, [sp, #4]
 619 0012 0022     		movs	r2, #0
 620 0014 1A72     		strb	r2, [r3, #8]
 552:/home/rdu/Workspace/project_templates/mcu/stm32_ws/src/libraries/STM32F4xx_StdPeriph_Driver/src/stm32f4xx_can.c ****   
 553:/home/rdu/Workspace/project_templates/mcu/stm32_ws/src/libraries/STM32F4xx_StdPeriph_Driver/src/stm32f4xx_can.c ****   /* Initialize the no automatic retransmission */
 554:/home/rdu/Workspace/project_templates/mcu/stm32_ws/src/libraries/STM32F4xx_StdPeriph_Driver/src/stm32f4xx_can.c ****   CAN_InitStruct->CAN_NART = DISABLE;
 621              		.loc 1 554 0
 622 0016 019B     		ldr	r3, [sp, #4]
 623 0018 0022     		movs	r2, #0
 624 001a 5A72     		strb	r2, [r3, #9]
 555:/home/rdu/Workspace/project_templates/mcu/stm32_ws/src/libraries/STM32F4xx_StdPeriph_Driver/src/stm32f4xx_can.c ****   
 556:/home/rdu/Workspace/project_templates/mcu/stm32_ws/src/libraries/STM32F4xx_StdPeriph_Driver/src/stm32f4xx_can.c ****   /* Initialize the receive FIFO locked mode */
 557:/home/rdu/Workspace/project_templates/mcu/stm32_ws/src/libraries/STM32F4xx_StdPeriph_Driver/src/stm32f4xx_can.c ****   CAN_InitStruct->CAN_RFLM = DISABLE;
 625              		.loc 1 557 0
 626 001c 019B     		ldr	r3, [sp, #4]
 627 001e 0022     		movs	r2, #0
 628 0020 9A72     		strb	r2, [r3, #10]
 558:/home/rdu/Workspace/project_templates/mcu/stm32_ws/src/libraries/STM32F4xx_StdPeriph_Driver/src/stm32f4xx_can.c ****   
 559:/home/rdu/Workspace/project_templates/mcu/stm32_ws/src/libraries/STM32F4xx_StdPeriph_Driver/src/stm32f4xx_can.c ****   /* Initialize the transmit FIFO priority */
 560:/home/rdu/Workspace/project_templates/mcu/stm32_ws/src/libraries/STM32F4xx_StdPeriph_Driver/src/stm32f4xx_can.c ****   CAN_InitStruct->CAN_TXFP = DISABLE;
 629              		.loc 1 560 0
 630 0022 019B     		ldr	r3, [sp, #4]
 631 0024 0022     		movs	r2, #0
 632 0026 DA72     		strb	r2, [r3, #11]
 561:/home/rdu/Workspace/project_templates/mcu/stm32_ws/src/libraries/STM32F4xx_StdPeriph_Driver/src/stm32f4xx_can.c ****   
 562:/home/rdu/Workspace/project_templates/mcu/stm32_ws/src/libraries/STM32F4xx_StdPeriph_Driver/src/stm32f4xx_can.c ****   /* Initialize the CAN_Mode member */
 563:/home/rdu/Workspace/project_templates/mcu/stm32_ws/src/libraries/STM32F4xx_StdPeriph_Driver/src/stm32f4xx_can.c ****   CAN_InitStruct->CAN_Mode = CAN_Mode_Normal;
 633              		.loc 1 563 0
 634 0028 019B     		ldr	r3, [sp, #4]
 635 002a 0022     		movs	r2, #0
 636 002c 9A70     		strb	r2, [r3, #2]
 564:/home/rdu/Workspace/project_templates/mcu/stm32_ws/src/libraries/STM32F4xx_StdPeriph_Driver/src/stm32f4xx_can.c ****   
 565:/home/rdu/Workspace/project_templates/mcu/stm32_ws/src/libraries/STM32F4xx_StdPeriph_Driver/src/stm32f4xx_can.c ****   /* Initialize the CAN_SJW member */
 566:/home/rdu/Workspace/project_templates/mcu/stm32_ws/src/libraries/STM32F4xx_StdPeriph_Driver/src/stm32f4xx_can.c ****   CAN_InitStruct->CAN_SJW = CAN_SJW_1tq;
 637              		.loc 1 566 0
 638 002e 019B     		ldr	r3, [sp, #4]
 639 0030 0022     		movs	r2, #0
 640 0032 DA70     		strb	r2, [r3, #3]
 567:/home/rdu/Workspace/project_templates/mcu/stm32_ws/src/libraries/STM32F4xx_StdPeriph_Driver/src/stm32f4xx_can.c ****   
 568:/home/rdu/Workspace/project_templates/mcu/stm32_ws/src/libraries/STM32F4xx_StdPeriph_Driver/src/stm32f4xx_can.c ****   /* Initialize the CAN_BS1 member */
 569:/home/rdu/Workspace/project_templates/mcu/stm32_ws/src/libraries/STM32F4xx_StdPeriph_Driver/src/stm32f4xx_can.c ****   CAN_InitStruct->CAN_BS1 = CAN_BS1_4tq;
 641              		.loc 1 569 0
 642 0034 019B     		ldr	r3, [sp, #4]
 643 0036 0322     		movs	r2, #3
 644 0038 1A71     		strb	r2, [r3, #4]
 570:/home/rdu/Workspace/project_templates/mcu/stm32_ws/src/libraries/STM32F4xx_StdPeriph_Driver/src/stm32f4xx_can.c ****   
 571:/home/rdu/Workspace/project_templates/mcu/stm32_ws/src/libraries/STM32F4xx_StdPeriph_Driver/src/stm32f4xx_can.c ****   /* Initialize the CAN_BS2 member */
 572:/home/rdu/Workspace/project_templates/mcu/stm32_ws/src/libraries/STM32F4xx_StdPeriph_Driver/src/stm32f4xx_can.c ****   CAN_InitStruct->CAN_BS2 = CAN_BS2_3tq;
 645              		.loc 1 572 0
 646 003a 019B     		ldr	r3, [sp, #4]
 647 003c 0222     		movs	r2, #2
 648 003e 5A71     		strb	r2, [r3, #5]
 573:/home/rdu/Workspace/project_templates/mcu/stm32_ws/src/libraries/STM32F4xx_StdPeriph_Driver/src/stm32f4xx_can.c ****   
 574:/home/rdu/Workspace/project_templates/mcu/stm32_ws/src/libraries/STM32F4xx_StdPeriph_Driver/src/stm32f4xx_can.c ****   /* Initialize the CAN_Prescaler member */
 575:/home/rdu/Workspace/project_templates/mcu/stm32_ws/src/libraries/STM32F4xx_StdPeriph_Driver/src/stm32f4xx_can.c ****   CAN_InitStruct->CAN_Prescaler = 1;
 649              		.loc 1 575 0
 650 0040 019B     		ldr	r3, [sp, #4]
 651 0042 0122     		movs	r2, #1
 652 0044 1A80     		strh	r2, [r3]	@ movhi
 576:/home/rdu/Workspace/project_templates/mcu/stm32_ws/src/libraries/STM32F4xx_StdPeriph_Driver/src/stm32f4xx_can.c **** }
 653              		.loc 1 576 0
 654 0046 00BF     		nop
 655 0048 02B0     		add	sp, sp, #8
 656              	.LCFI10:
 657              		.cfi_def_cfa_offset 0
 658              		@ sp needed
 659 004a 7047     		bx	lr
 660              		.cfi_endproc
 661              	.LFE126:
 663              		.section	.text.CAN_SlaveStartBank,"ax",%progbits
 664              		.align	1
 665              		.global	CAN_SlaveStartBank
 666              		.syntax unified
 667              		.thumb
 668              		.thumb_func
 669              		.fpu fpv4-sp-d16
 671              	CAN_SlaveStartBank:
 672              	.LFB127:
 577:/home/rdu/Workspace/project_templates/mcu/stm32_ws/src/libraries/STM32F4xx_StdPeriph_Driver/src/stm32f4xx_can.c **** 
 578:/home/rdu/Workspace/project_templates/mcu/stm32_ws/src/libraries/STM32F4xx_StdPeriph_Driver/src/stm32f4xx_can.c **** #if defined(STM32F413_423xx)
 579:/home/rdu/Workspace/project_templates/mcu/stm32_ws/src/libraries/STM32F4xx_StdPeriph_Driver/src/stm32f4xx_can.c **** /**
 580:/home/rdu/Workspace/project_templates/mcu/stm32_ws/src/libraries/STM32F4xx_StdPeriph_Driver/src/stm32f4xx_can.c ****   * @brief  Select the start bank filter for slave CAN.
 581:/home/rdu/Workspace/project_templates/mcu/stm32_ws/src/libraries/STM32F4xx_StdPeriph_Driver/src/stm32f4xx_can.c ****   * @param  CANx: where x can be 1 or 3 to select the CAN peripheral.
 582:/home/rdu/Workspace/project_templates/mcu/stm32_ws/src/libraries/STM32F4xx_StdPeriph_Driver/src/stm32f4xx_can.c ****   * @param  CAN_BankNumber: Select the start slave bank filter from 1..27.
 583:/home/rdu/Workspace/project_templates/mcu/stm32_ws/src/libraries/STM32F4xx_StdPeriph_Driver/src/stm32f4xx_can.c ****   * @retval None
 584:/home/rdu/Workspace/project_templates/mcu/stm32_ws/src/libraries/STM32F4xx_StdPeriph_Driver/src/stm32f4xx_can.c ****   */
 585:/home/rdu/Workspace/project_templates/mcu/stm32_ws/src/libraries/STM32F4xx_StdPeriph_Driver/src/stm32f4xx_can.c **** void CAN_SlaveStartBank(CAN_TypeDef* CANx, uint8_t CAN_BankNumber) 
 586:/home/rdu/Workspace/project_templates/mcu/stm32_ws/src/libraries/STM32F4xx_StdPeriph_Driver/src/stm32f4xx_can.c **** {
 587:/home/rdu/Workspace/project_templates/mcu/stm32_ws/src/libraries/STM32F4xx_StdPeriph_Driver/src/stm32f4xx_can.c ****   /* Check the parameters */
 588:/home/rdu/Workspace/project_templates/mcu/stm32_ws/src/libraries/STM32F4xx_StdPeriph_Driver/src/stm32f4xx_can.c ****   assert_param(IS_CAN_BANKNUMBER(CAN_BankNumber));
 589:/home/rdu/Workspace/project_templates/mcu/stm32_ws/src/libraries/STM32F4xx_StdPeriph_Driver/src/stm32f4xx_can.c ****   
 590:/home/rdu/Workspace/project_templates/mcu/stm32_ws/src/libraries/STM32F4xx_StdPeriph_Driver/src/stm32f4xx_can.c ****   /* Enter Initialisation mode for the filter */
 591:/home/rdu/Workspace/project_templates/mcu/stm32_ws/src/libraries/STM32F4xx_StdPeriph_Driver/src/stm32f4xx_can.c ****   CANx->FMR |= FMR_FINIT;
 592:/home/rdu/Workspace/project_templates/mcu/stm32_ws/src/libraries/STM32F4xx_StdPeriph_Driver/src/stm32f4xx_can.c ****   
 593:/home/rdu/Workspace/project_templates/mcu/stm32_ws/src/libraries/STM32F4xx_StdPeriph_Driver/src/stm32f4xx_can.c ****   /* Select the start slave bank */
 594:/home/rdu/Workspace/project_templates/mcu/stm32_ws/src/libraries/STM32F4xx_StdPeriph_Driver/src/stm32f4xx_can.c ****   CANx->FMR &= (uint32_t)0xFFFFC0F1 ;
 595:/home/rdu/Workspace/project_templates/mcu/stm32_ws/src/libraries/STM32F4xx_StdPeriph_Driver/src/stm32f4xx_can.c ****   CANx->FMR |= (uint32_t)(CAN_BankNumber)<<8;
 596:/home/rdu/Workspace/project_templates/mcu/stm32_ws/src/libraries/STM32F4xx_StdPeriph_Driver/src/stm32f4xx_can.c ****   
 597:/home/rdu/Workspace/project_templates/mcu/stm32_ws/src/libraries/STM32F4xx_StdPeriph_Driver/src/stm32f4xx_can.c ****   /* Leave Initialisation mode for the filter */
 598:/home/rdu/Workspace/project_templates/mcu/stm32_ws/src/libraries/STM32F4xx_StdPeriph_Driver/src/stm32f4xx_can.c ****   CANx->FMR &= ~FMR_FINIT;
 599:/home/rdu/Workspace/project_templates/mcu/stm32_ws/src/libraries/STM32F4xx_StdPeriph_Driver/src/stm32f4xx_can.c **** }
 600:/home/rdu/Workspace/project_templates/mcu/stm32_ws/src/libraries/STM32F4xx_StdPeriph_Driver/src/stm32f4xx_can.c **** #else
 601:/home/rdu/Workspace/project_templates/mcu/stm32_ws/src/libraries/STM32F4xx_StdPeriph_Driver/src/stm32f4xx_can.c **** /**
 602:/home/rdu/Workspace/project_templates/mcu/stm32_ws/src/libraries/STM32F4xx_StdPeriph_Driver/src/stm32f4xx_can.c ****   * @brief  Select the start bank filter for slave CAN.
 603:/home/rdu/Workspace/project_templates/mcu/stm32_ws/src/libraries/STM32F4xx_StdPeriph_Driver/src/stm32f4xx_can.c ****   * @param  CAN_BankNumber: Select the start slave bank filter from 1..27.
 604:/home/rdu/Workspace/project_templates/mcu/stm32_ws/src/libraries/STM32F4xx_StdPeriph_Driver/src/stm32f4xx_can.c ****   * @retval None
 605:/home/rdu/Workspace/project_templates/mcu/stm32_ws/src/libraries/STM32F4xx_StdPeriph_Driver/src/stm32f4xx_can.c ****   */
 606:/home/rdu/Workspace/project_templates/mcu/stm32_ws/src/libraries/STM32F4xx_StdPeriph_Driver/src/stm32f4xx_can.c **** void CAN_SlaveStartBank(uint8_t CAN_BankNumber) 
 607:/home/rdu/Workspace/project_templates/mcu/stm32_ws/src/libraries/STM32F4xx_StdPeriph_Driver/src/stm32f4xx_can.c **** {
 673              		.loc 1 607 0
 674              		.cfi_startproc
 675              		@ args = 0, pretend = 0, frame = 8
 676              		@ frame_needed = 0, uses_anonymous_args = 0
 677              		@ link register save eliminated.
 678 0000 82B0     		sub	sp, sp, #8
 679              	.LCFI11:
 680              		.cfi_def_cfa_offset 8
 681 0002 0346     		mov	r3, r0
 682 0004 8DF80730 		strb	r3, [sp, #7]
 608:/home/rdu/Workspace/project_templates/mcu/stm32_ws/src/libraries/STM32F4xx_StdPeriph_Driver/src/stm32f4xx_can.c ****   /* Check the parameters */
 609:/home/rdu/Workspace/project_templates/mcu/stm32_ws/src/libraries/STM32F4xx_StdPeriph_Driver/src/stm32f4xx_can.c ****   assert_param(IS_CAN_BANKNUMBER(CAN_BankNumber));
 610:/home/rdu/Workspace/project_templates/mcu/stm32_ws/src/libraries/STM32F4xx_StdPeriph_Driver/src/stm32f4xx_can.c ****   
 611:/home/rdu/Workspace/project_templates/mcu/stm32_ws/src/libraries/STM32F4xx_StdPeriph_Driver/src/stm32f4xx_can.c ****   /* Enter Initialisation mode for the filter */
 612:/home/rdu/Workspace/project_templates/mcu/stm32_ws/src/libraries/STM32F4xx_StdPeriph_Driver/src/stm32f4xx_can.c ****   CAN1->FMR |= FMR_FINIT;
 683              		.loc 1 612 0
 684 0008 134B     		ldr	r3, .L42
 685 000a D3F80032 		ldr	r3, [r3, #512]
 686 000e 124A     		ldr	r2, .L42
 687 0010 43F00103 		orr	r3, r3, #1
 688 0014 C2F80032 		str	r3, [r2, #512]
 613:/home/rdu/Workspace/project_templates/mcu/stm32_ws/src/libraries/STM32F4xx_StdPeriph_Driver/src/stm32f4xx_can.c ****   
 614:/home/rdu/Workspace/project_templates/mcu/stm32_ws/src/libraries/STM32F4xx_StdPeriph_Driver/src/stm32f4xx_can.c ****   /* Select the start slave bank */
 615:/home/rdu/Workspace/project_templates/mcu/stm32_ws/src/libraries/STM32F4xx_StdPeriph_Driver/src/stm32f4xx_can.c ****   CAN1->FMR &= (uint32_t)0xFFFFC0F1 ;
 689              		.loc 1 615 0
 690 0018 0F4B     		ldr	r3, .L42
 691 001a D3F80032 		ldr	r3, [r3, #512]
 692 001e 0E4A     		ldr	r2, .L42
 693 0020 23F47C53 		bic	r3, r3, #16128
 694 0024 23F00E03 		bic	r3, r3, #14
 695 0028 C2F80032 		str	r3, [r2, #512]
 616:/home/rdu/Workspace/project_templates/mcu/stm32_ws/src/libraries/STM32F4xx_StdPeriph_Driver/src/stm32f4xx_can.c ****   CAN1->FMR |= (uint32_t)(CAN_BankNumber)<<8;
 696              		.loc 1 616 0
 697 002c 0A4B     		ldr	r3, .L42
 698 002e D3F80022 		ldr	r2, [r3, #512]
 699 0032 9DF80730 		ldrb	r3, [sp, #7]	@ zero_extendqisi2
 700 0036 1B02     		lsls	r3, r3, #8
 701 0038 0749     		ldr	r1, .L42
 702 003a 1343     		orrs	r3, r3, r2
 703 003c C1F80032 		str	r3, [r1, #512]
 617:/home/rdu/Workspace/project_templates/mcu/stm32_ws/src/libraries/STM32F4xx_StdPeriph_Driver/src/stm32f4xx_can.c ****   
 618:/home/rdu/Workspace/project_templates/mcu/stm32_ws/src/libraries/STM32F4xx_StdPeriph_Driver/src/stm32f4xx_can.c ****   /* Leave Initialisation mode for the filter */
 619:/home/rdu/Workspace/project_templates/mcu/stm32_ws/src/libraries/STM32F4xx_StdPeriph_Driver/src/stm32f4xx_can.c ****   CAN1->FMR &= ~FMR_FINIT;
 704              		.loc 1 619 0
 705 0040 054B     		ldr	r3, .L42
 706 0042 D3F80032 		ldr	r3, [r3, #512]
 707 0046 044A     		ldr	r2, .L42
 708 0048 23F00103 		bic	r3, r3, #1
 709 004c C2F80032 		str	r3, [r2, #512]
 620:/home/rdu/Workspace/project_templates/mcu/stm32_ws/src/libraries/STM32F4xx_StdPeriph_Driver/src/stm32f4xx_can.c **** }
 710              		.loc 1 620 0
 711 0050 00BF     		nop
 712 0052 02B0     		add	sp, sp, #8
 713              	.LCFI12:
 714              		.cfi_def_cfa_offset 0
 715              		@ sp needed
 716 0054 7047     		bx	lr
 717              	.L43:
 718 0056 00BF     		.align	2
 719              	.L42:
 720 0058 00640040 		.word	1073767424
 721              		.cfi_endproc
 722              	.LFE127:
 724              		.section	.text.CAN_DBGFreeze,"ax",%progbits
 725              		.align	1
 726              		.global	CAN_DBGFreeze
 727              		.syntax unified
 728              		.thumb
 729              		.thumb_func
 730              		.fpu fpv4-sp-d16
 732              	CAN_DBGFreeze:
 733              	.LFB128:
 621:/home/rdu/Workspace/project_templates/mcu/stm32_ws/src/libraries/STM32F4xx_StdPeriph_Driver/src/stm32f4xx_can.c **** #endif /* STM32F413_423xx */
 622:/home/rdu/Workspace/project_templates/mcu/stm32_ws/src/libraries/STM32F4xx_StdPeriph_Driver/src/stm32f4xx_can.c **** /**
 623:/home/rdu/Workspace/project_templates/mcu/stm32_ws/src/libraries/STM32F4xx_StdPeriph_Driver/src/stm32f4xx_can.c ****   * @brief  Enables or disables the DBG Freeze for CAN.
 624:/home/rdu/Workspace/project_templates/mcu/stm32_ws/src/libraries/STM32F4xx_StdPeriph_Driver/src/stm32f4xx_can.c ****   * @param  CANx: where x can be 1,2 or 3 to select the CAN peripheral.
 625:/home/rdu/Workspace/project_templates/mcu/stm32_ws/src/libraries/STM32F4xx_StdPeriph_Driver/src/stm32f4xx_can.c ****   * @param  NewState: new state of the CAN peripheral. 
 626:/home/rdu/Workspace/project_templates/mcu/stm32_ws/src/libraries/STM32F4xx_StdPeriph_Driver/src/stm32f4xx_can.c ****   *          This parameter can be: ENABLE (CAN reception/transmission is frozen
 627:/home/rdu/Workspace/project_templates/mcu/stm32_ws/src/libraries/STM32F4xx_StdPeriph_Driver/src/stm32f4xx_can.c ****   *          during debug. Reception FIFOs can still be accessed/controlled normally) 
 628:/home/rdu/Workspace/project_templates/mcu/stm32_ws/src/libraries/STM32F4xx_StdPeriph_Driver/src/stm32f4xx_can.c ****   *          or DISABLE (CAN is working during debug).
 629:/home/rdu/Workspace/project_templates/mcu/stm32_ws/src/libraries/STM32F4xx_StdPeriph_Driver/src/stm32f4xx_can.c ****   * @note   CAN3 peripheral is available only for STM32F413_423xx devices
 630:/home/rdu/Workspace/project_templates/mcu/stm32_ws/src/libraries/STM32F4xx_StdPeriph_Driver/src/stm32f4xx_can.c ****   * @retval None
 631:/home/rdu/Workspace/project_templates/mcu/stm32_ws/src/libraries/STM32F4xx_StdPeriph_Driver/src/stm32f4xx_can.c ****   */
 632:/home/rdu/Workspace/project_templates/mcu/stm32_ws/src/libraries/STM32F4xx_StdPeriph_Driver/src/stm32f4xx_can.c **** void CAN_DBGFreeze(CAN_TypeDef* CANx, FunctionalState NewState)
 633:/home/rdu/Workspace/project_templates/mcu/stm32_ws/src/libraries/STM32F4xx_StdPeriph_Driver/src/stm32f4xx_can.c **** {
 734              		.loc 1 633 0
 735              		.cfi_startproc
 736              		@ args = 0, pretend = 0, frame = 8
 737              		@ frame_needed = 0, uses_anonymous_args = 0
 738              		@ link register save eliminated.
 739 0000 82B0     		sub	sp, sp, #8
 740              	.LCFI13:
 741              		.cfi_def_cfa_offset 8
 742 0002 0190     		str	r0, [sp, #4]
 743 0004 0B46     		mov	r3, r1
 744 0006 8DF80330 		strb	r3, [sp, #3]
 634:/home/rdu/Workspace/project_templates/mcu/stm32_ws/src/libraries/STM32F4xx_StdPeriph_Driver/src/stm32f4xx_can.c ****   /* Check the parameters */
 635:/home/rdu/Workspace/project_templates/mcu/stm32_ws/src/libraries/STM32F4xx_StdPeriph_Driver/src/stm32f4xx_can.c ****   assert_param(IS_CAN_ALL_PERIPH(CANx));
 636:/home/rdu/Workspace/project_templates/mcu/stm32_ws/src/libraries/STM32F4xx_StdPeriph_Driver/src/stm32f4xx_can.c ****   assert_param(IS_FUNCTIONAL_STATE(NewState));
 637:/home/rdu/Workspace/project_templates/mcu/stm32_ws/src/libraries/STM32F4xx_StdPeriph_Driver/src/stm32f4xx_can.c ****   
 638:/home/rdu/Workspace/project_templates/mcu/stm32_ws/src/libraries/STM32F4xx_StdPeriph_Driver/src/stm32f4xx_can.c ****   if (NewState != DISABLE)
 745              		.loc 1 638 0
 746 000a 9DF80330 		ldrb	r3, [sp, #3]	@ zero_extendqisi2
 747 000e 002B     		cmp	r3, #0
 748 0010 06D0     		beq	.L45
 639:/home/rdu/Workspace/project_templates/mcu/stm32_ws/src/libraries/STM32F4xx_StdPeriph_Driver/src/stm32f4xx_can.c ****   {
 640:/home/rdu/Workspace/project_templates/mcu/stm32_ws/src/libraries/STM32F4xx_StdPeriph_Driver/src/stm32f4xx_can.c ****     /* Enable Debug Freeze  */
 641:/home/rdu/Workspace/project_templates/mcu/stm32_ws/src/libraries/STM32F4xx_StdPeriph_Driver/src/stm32f4xx_can.c ****     CANx->MCR |= MCR_DBF;
 749              		.loc 1 641 0
 750 0012 019B     		ldr	r3, [sp, #4]
 751 0014 1B68     		ldr	r3, [r3]
 752 0016 43F48032 		orr	r2, r3, #65536
 753 001a 019B     		ldr	r3, [sp, #4]
 754 001c 1A60     		str	r2, [r3]
 642:/home/rdu/Workspace/project_templates/mcu/stm32_ws/src/libraries/STM32F4xx_StdPeriph_Driver/src/stm32f4xx_can.c ****   }
 643:/home/rdu/Workspace/project_templates/mcu/stm32_ws/src/libraries/STM32F4xx_StdPeriph_Driver/src/stm32f4xx_can.c ****   else
 644:/home/rdu/Workspace/project_templates/mcu/stm32_ws/src/libraries/STM32F4xx_StdPeriph_Driver/src/stm32f4xx_can.c ****   {
 645:/home/rdu/Workspace/project_templates/mcu/stm32_ws/src/libraries/STM32F4xx_StdPeriph_Driver/src/stm32f4xx_can.c ****     /* Disable Debug Freeze */
 646:/home/rdu/Workspace/project_templates/mcu/stm32_ws/src/libraries/STM32F4xx_StdPeriph_Driver/src/stm32f4xx_can.c ****     CANx->MCR &= ~MCR_DBF;
 647:/home/rdu/Workspace/project_templates/mcu/stm32_ws/src/libraries/STM32F4xx_StdPeriph_Driver/src/stm32f4xx_can.c ****   }
 648:/home/rdu/Workspace/project_templates/mcu/stm32_ws/src/libraries/STM32F4xx_StdPeriph_Driver/src/stm32f4xx_can.c **** }
 755              		.loc 1 648 0
 756 001e 05E0     		b	.L47
 757              	.L45:
 646:/home/rdu/Workspace/project_templates/mcu/stm32_ws/src/libraries/STM32F4xx_StdPeriph_Driver/src/stm32f4xx_can.c ****   }
 758              		.loc 1 646 0
 759 0020 019B     		ldr	r3, [sp, #4]
 760 0022 1B68     		ldr	r3, [r3]
 761 0024 23F48032 		bic	r2, r3, #65536
 762 0028 019B     		ldr	r3, [sp, #4]
 763 002a 1A60     		str	r2, [r3]
 764              	.L47:
 765              		.loc 1 648 0
 766 002c 00BF     		nop
 767 002e 02B0     		add	sp, sp, #8
 768              	.LCFI14:
 769              		.cfi_def_cfa_offset 0
 770              		@ sp needed
 771 0030 7047     		bx	lr
 772              		.cfi_endproc
 773              	.LFE128:
 775              		.section	.text.CAN_TTComModeCmd,"ax",%progbits
 776              		.align	1
 777              		.global	CAN_TTComModeCmd
 778              		.syntax unified
 779              		.thumb
 780              		.thumb_func
 781              		.fpu fpv4-sp-d16
 783              	CAN_TTComModeCmd:
 784              	.LFB129:
 649:/home/rdu/Workspace/project_templates/mcu/stm32_ws/src/libraries/STM32F4xx_StdPeriph_Driver/src/stm32f4xx_can.c **** 
 650:/home/rdu/Workspace/project_templates/mcu/stm32_ws/src/libraries/STM32F4xx_StdPeriph_Driver/src/stm32f4xx_can.c **** 
 651:/home/rdu/Workspace/project_templates/mcu/stm32_ws/src/libraries/STM32F4xx_StdPeriph_Driver/src/stm32f4xx_can.c **** /**
 652:/home/rdu/Workspace/project_templates/mcu/stm32_ws/src/libraries/STM32F4xx_StdPeriph_Driver/src/stm32f4xx_can.c ****   * @brief  Enables or disables the CAN Time TriggerOperation communication mode.
 653:/home/rdu/Workspace/project_templates/mcu/stm32_ws/src/libraries/STM32F4xx_StdPeriph_Driver/src/stm32f4xx_can.c ****   * @note   DLC must be programmed as 8 in order Time Stamp (2 bytes) to be 
 654:/home/rdu/Workspace/project_templates/mcu/stm32_ws/src/libraries/STM32F4xx_StdPeriph_Driver/src/stm32f4xx_can.c ****   *         sent over the CAN bus.  
 655:/home/rdu/Workspace/project_templates/mcu/stm32_ws/src/libraries/STM32F4xx_StdPeriph_Driver/src/stm32f4xx_can.c ****   * @param  CANx: where x can be 1,2 or 3 to select the CAN peripheral.
 656:/home/rdu/Workspace/project_templates/mcu/stm32_ws/src/libraries/STM32F4xx_StdPeriph_Driver/src/stm32f4xx_can.c ****   * @param  NewState: Mode new state. This parameter can be: ENABLE or DISABLE.
 657:/home/rdu/Workspace/project_templates/mcu/stm32_ws/src/libraries/STM32F4xx_StdPeriph_Driver/src/stm32f4xx_can.c ****   *         When enabled, Time stamp (TIME[15:0]) value is  sent in the last two
 658:/home/rdu/Workspace/project_templates/mcu/stm32_ws/src/libraries/STM32F4xx_StdPeriph_Driver/src/stm32f4xx_can.c ****   *         data bytes of the 8-byte message: TIME[7:0] in data byte 6 and TIME[15:8] 
 659:/home/rdu/Workspace/project_templates/mcu/stm32_ws/src/libraries/STM32F4xx_StdPeriph_Driver/src/stm32f4xx_can.c ****   *         in data byte 7.
 660:/home/rdu/Workspace/project_templates/mcu/stm32_ws/src/libraries/STM32F4xx_StdPeriph_Driver/src/stm32f4xx_can.c ****   * @note   CAN3 peripheral is available only for STM32F413_423xx devices
 661:/home/rdu/Workspace/project_templates/mcu/stm32_ws/src/libraries/STM32F4xx_StdPeriph_Driver/src/stm32f4xx_can.c ****   * @retval None
 662:/home/rdu/Workspace/project_templates/mcu/stm32_ws/src/libraries/STM32F4xx_StdPeriph_Driver/src/stm32f4xx_can.c ****   */
 663:/home/rdu/Workspace/project_templates/mcu/stm32_ws/src/libraries/STM32F4xx_StdPeriph_Driver/src/stm32f4xx_can.c **** void CAN_TTComModeCmd(CAN_TypeDef* CANx, FunctionalState NewState)
 664:/home/rdu/Workspace/project_templates/mcu/stm32_ws/src/libraries/STM32F4xx_StdPeriph_Driver/src/stm32f4xx_can.c **** {
 785              		.loc 1 664 0
 786              		.cfi_startproc
 787              		@ args = 0, pretend = 0, frame = 8
 788              		@ frame_needed = 0, uses_anonymous_args = 0
 789              		@ link register save eliminated.
 790 0000 82B0     		sub	sp, sp, #8
 791              	.LCFI15:
 792              		.cfi_def_cfa_offset 8
 793 0002 0190     		str	r0, [sp, #4]
 794 0004 0B46     		mov	r3, r1
 795 0006 8DF80330 		strb	r3, [sp, #3]
 665:/home/rdu/Workspace/project_templates/mcu/stm32_ws/src/libraries/STM32F4xx_StdPeriph_Driver/src/stm32f4xx_can.c ****   /* Check the parameters */
 666:/home/rdu/Workspace/project_templates/mcu/stm32_ws/src/libraries/STM32F4xx_StdPeriph_Driver/src/stm32f4xx_can.c ****   assert_param(IS_CAN_ALL_PERIPH(CANx));
 667:/home/rdu/Workspace/project_templates/mcu/stm32_ws/src/libraries/STM32F4xx_StdPeriph_Driver/src/stm32f4xx_can.c ****   assert_param(IS_FUNCTIONAL_STATE(NewState));
 668:/home/rdu/Workspace/project_templates/mcu/stm32_ws/src/libraries/STM32F4xx_StdPeriph_Driver/src/stm32f4xx_can.c ****   if (NewState != DISABLE)
 796              		.loc 1 668 0
 797 000a 9DF80330 		ldrb	r3, [sp, #3]	@ zero_extendqisi2
 798 000e 002B     		cmp	r3, #0
 799 0010 1ED0     		beq	.L49
 669:/home/rdu/Workspace/project_templates/mcu/stm32_ws/src/libraries/STM32F4xx_StdPeriph_Driver/src/stm32f4xx_can.c ****   {
 670:/home/rdu/Workspace/project_templates/mcu/stm32_ws/src/libraries/STM32F4xx_StdPeriph_Driver/src/stm32f4xx_can.c ****     /* Enable the TTCM mode */
 671:/home/rdu/Workspace/project_templates/mcu/stm32_ws/src/libraries/STM32F4xx_StdPeriph_Driver/src/stm32f4xx_can.c ****     CANx->MCR |= CAN_MCR_TTCM;
 800              		.loc 1 671 0
 801 0012 019B     		ldr	r3, [sp, #4]
 802 0014 1B68     		ldr	r3, [r3]
 803 0016 43F08002 		orr	r2, r3, #128
 804 001a 019B     		ldr	r3, [sp, #4]
 805 001c 1A60     		str	r2, [r3]
 672:/home/rdu/Workspace/project_templates/mcu/stm32_ws/src/libraries/STM32F4xx_StdPeriph_Driver/src/stm32f4xx_can.c **** 
 673:/home/rdu/Workspace/project_templates/mcu/stm32_ws/src/libraries/STM32F4xx_StdPeriph_Driver/src/stm32f4xx_can.c ****     /* Set TGT bits */
 674:/home/rdu/Workspace/project_templates/mcu/stm32_ws/src/libraries/STM32F4xx_StdPeriph_Driver/src/stm32f4xx_can.c ****     CANx->sTxMailBox[0].TDTR |= ((uint32_t)CAN_TDT0R_TGT);
 806              		.loc 1 674 0
 807 001e 019B     		ldr	r3, [sp, #4]
 808 0020 D3F88431 		ldr	r3, [r3, #388]
 809 0024 43F48072 		orr	r2, r3, #256
 810 0028 019B     		ldr	r3, [sp, #4]
 811 002a C3F88421 		str	r2, [r3, #388]
 675:/home/rdu/Workspace/project_templates/mcu/stm32_ws/src/libraries/STM32F4xx_StdPeriph_Driver/src/stm32f4xx_can.c ****     CANx->sTxMailBox[1].TDTR |= ((uint32_t)CAN_TDT1R_TGT);
 812              		.loc 1 675 0
 813 002e 019B     		ldr	r3, [sp, #4]
 814 0030 D3F89431 		ldr	r3, [r3, #404]
 815 0034 43F48072 		orr	r2, r3, #256
 816 0038 019B     		ldr	r3, [sp, #4]
 817 003a C3F89421 		str	r2, [r3, #404]
 676:/home/rdu/Workspace/project_templates/mcu/stm32_ws/src/libraries/STM32F4xx_StdPeriph_Driver/src/stm32f4xx_can.c ****     CANx->sTxMailBox[2].TDTR |= ((uint32_t)CAN_TDT2R_TGT);
 818              		.loc 1 676 0
 819 003e 019B     		ldr	r3, [sp, #4]
 820 0040 D3F8A431 		ldr	r3, [r3, #420]
 821 0044 43F48072 		orr	r2, r3, #256
 822 0048 019B     		ldr	r3, [sp, #4]
 823 004a C3F8A421 		str	r2, [r3, #420]
 677:/home/rdu/Workspace/project_templates/mcu/stm32_ws/src/libraries/STM32F4xx_StdPeriph_Driver/src/stm32f4xx_can.c ****   }
 678:/home/rdu/Workspace/project_templates/mcu/stm32_ws/src/libraries/STM32F4xx_StdPeriph_Driver/src/stm32f4xx_can.c ****   else
 679:/home/rdu/Workspace/project_templates/mcu/stm32_ws/src/libraries/STM32F4xx_StdPeriph_Driver/src/stm32f4xx_can.c ****   {
 680:/home/rdu/Workspace/project_templates/mcu/stm32_ws/src/libraries/STM32F4xx_StdPeriph_Driver/src/stm32f4xx_can.c ****     /* Disable the TTCM mode */
 681:/home/rdu/Workspace/project_templates/mcu/stm32_ws/src/libraries/STM32F4xx_StdPeriph_Driver/src/stm32f4xx_can.c ****     CANx->MCR &= (uint32_t)(~(uint32_t)CAN_MCR_TTCM);
 682:/home/rdu/Workspace/project_templates/mcu/stm32_ws/src/libraries/STM32F4xx_StdPeriph_Driver/src/stm32f4xx_can.c **** 
 683:/home/rdu/Workspace/project_templates/mcu/stm32_ws/src/libraries/STM32F4xx_StdPeriph_Driver/src/stm32f4xx_can.c ****     /* Reset TGT bits */
 684:/home/rdu/Workspace/project_templates/mcu/stm32_ws/src/libraries/STM32F4xx_StdPeriph_Driver/src/stm32f4xx_can.c ****     CANx->sTxMailBox[0].TDTR &= ((uint32_t)~CAN_TDT0R_TGT);
 685:/home/rdu/Workspace/project_templates/mcu/stm32_ws/src/libraries/STM32F4xx_StdPeriph_Driver/src/stm32f4xx_can.c ****     CANx->sTxMailBox[1].TDTR &= ((uint32_t)~CAN_TDT1R_TGT);
 686:/home/rdu/Workspace/project_templates/mcu/stm32_ws/src/libraries/STM32F4xx_StdPeriph_Driver/src/stm32f4xx_can.c ****     CANx->sTxMailBox[2].TDTR &= ((uint32_t)~CAN_TDT2R_TGT);
 687:/home/rdu/Workspace/project_templates/mcu/stm32_ws/src/libraries/STM32F4xx_StdPeriph_Driver/src/stm32f4xx_can.c ****   }
 688:/home/rdu/Workspace/project_templates/mcu/stm32_ws/src/libraries/STM32F4xx_StdPeriph_Driver/src/stm32f4xx_can.c **** }
 824              		.loc 1 688 0
 825 004e 1DE0     		b	.L51
 826              	.L49:
 681:/home/rdu/Workspace/project_templates/mcu/stm32_ws/src/libraries/STM32F4xx_StdPeriph_Driver/src/stm32f4xx_can.c **** 
 827              		.loc 1 681 0
 828 0050 019B     		ldr	r3, [sp, #4]
 829 0052 1B68     		ldr	r3, [r3]
 830 0054 23F08002 		bic	r2, r3, #128
 831 0058 019B     		ldr	r3, [sp, #4]
 832 005a 1A60     		str	r2, [r3]
 684:/home/rdu/Workspace/project_templates/mcu/stm32_ws/src/libraries/STM32F4xx_StdPeriph_Driver/src/stm32f4xx_can.c ****     CANx->sTxMailBox[1].TDTR &= ((uint32_t)~CAN_TDT1R_TGT);
 833              		.loc 1 684 0
 834 005c 019B     		ldr	r3, [sp, #4]
 835 005e D3F88431 		ldr	r3, [r3, #388]
 836 0062 23F48072 		bic	r2, r3, #256
 837 0066 019B     		ldr	r3, [sp, #4]
 838 0068 C3F88421 		str	r2, [r3, #388]
 685:/home/rdu/Workspace/project_templates/mcu/stm32_ws/src/libraries/STM32F4xx_StdPeriph_Driver/src/stm32f4xx_can.c ****     CANx->sTxMailBox[2].TDTR &= ((uint32_t)~CAN_TDT2R_TGT);
 839              		.loc 1 685 0
 840 006c 019B     		ldr	r3, [sp, #4]
 841 006e D3F89431 		ldr	r3, [r3, #404]
 842 0072 23F48072 		bic	r2, r3, #256
 843 0076 019B     		ldr	r3, [sp, #4]
 844 0078 C3F89421 		str	r2, [r3, #404]
 686:/home/rdu/Workspace/project_templates/mcu/stm32_ws/src/libraries/STM32F4xx_StdPeriph_Driver/src/stm32f4xx_can.c ****   }
 845              		.loc 1 686 0
 846 007c 019B     		ldr	r3, [sp, #4]
 847 007e D3F8A431 		ldr	r3, [r3, #420]
 848 0082 23F48072 		bic	r2, r3, #256
 849 0086 019B     		ldr	r3, [sp, #4]
 850 0088 C3F8A421 		str	r2, [r3, #420]
 851              	.L51:
 852              		.loc 1 688 0
 853 008c 00BF     		nop
 854 008e 02B0     		add	sp, sp, #8
 855              	.LCFI16:
 856              		.cfi_def_cfa_offset 0
 857              		@ sp needed
 858 0090 7047     		bx	lr
 859              		.cfi_endproc
 860              	.LFE129:
 862              		.section	.text.CAN_Transmit,"ax",%progbits
 863              		.align	1
 864              		.global	CAN_Transmit
 865              		.syntax unified
 866              		.thumb
 867              		.thumb_func
 868              		.fpu fpv4-sp-d16
 870              	CAN_Transmit:
 871              	.LFB130:
 689:/home/rdu/Workspace/project_templates/mcu/stm32_ws/src/libraries/STM32F4xx_StdPeriph_Driver/src/stm32f4xx_can.c **** /**
 690:/home/rdu/Workspace/project_templates/mcu/stm32_ws/src/libraries/STM32F4xx_StdPeriph_Driver/src/stm32f4xx_can.c ****   * @}
 691:/home/rdu/Workspace/project_templates/mcu/stm32_ws/src/libraries/STM32F4xx_StdPeriph_Driver/src/stm32f4xx_can.c ****   */
 692:/home/rdu/Workspace/project_templates/mcu/stm32_ws/src/libraries/STM32F4xx_StdPeriph_Driver/src/stm32f4xx_can.c **** 
 693:/home/rdu/Workspace/project_templates/mcu/stm32_ws/src/libraries/STM32F4xx_StdPeriph_Driver/src/stm32f4xx_can.c **** 
 694:/home/rdu/Workspace/project_templates/mcu/stm32_ws/src/libraries/STM32F4xx_StdPeriph_Driver/src/stm32f4xx_can.c **** /** @defgroup CAN_Group2 CAN Frames Transmission functions
 695:/home/rdu/Workspace/project_templates/mcu/stm32_ws/src/libraries/STM32F4xx_StdPeriph_Driver/src/stm32f4xx_can.c ****  *  @brief    CAN Frames Transmission functions 
 696:/home/rdu/Workspace/project_templates/mcu/stm32_ws/src/libraries/STM32F4xx_StdPeriph_Driver/src/stm32f4xx_can.c ****  *
 697:/home/rdu/Workspace/project_templates/mcu/stm32_ws/src/libraries/STM32F4xx_StdPeriph_Driver/src/stm32f4xx_can.c **** @verbatim    
 698:/home/rdu/Workspace/project_templates/mcu/stm32_ws/src/libraries/STM32F4xx_StdPeriph_Driver/src/stm32f4xx_can.c ****  ===============================================================================
 699:/home/rdu/Workspace/project_templates/mcu/stm32_ws/src/libraries/STM32F4xx_StdPeriph_Driver/src/stm32f4xx_can.c ****                 ##### CAN Frames Transmission functions #####
 700:/home/rdu/Workspace/project_templates/mcu/stm32_ws/src/libraries/STM32F4xx_StdPeriph_Driver/src/stm32f4xx_can.c ****  ===============================================================================  
 701:/home/rdu/Workspace/project_templates/mcu/stm32_ws/src/libraries/STM32F4xx_StdPeriph_Driver/src/stm32f4xx_can.c ****     [..] This section provides functions allowing to 
 702:/home/rdu/Workspace/project_templates/mcu/stm32_ws/src/libraries/STM32F4xx_StdPeriph_Driver/src/stm32f4xx_can.c ****       (+) Initiate and transmit a CAN frame message (if there is an empty mailbox).
 703:/home/rdu/Workspace/project_templates/mcu/stm32_ws/src/libraries/STM32F4xx_StdPeriph_Driver/src/stm32f4xx_can.c ****       (+) Check the transmission status of a CAN Frame
 704:/home/rdu/Workspace/project_templates/mcu/stm32_ws/src/libraries/STM32F4xx_StdPeriph_Driver/src/stm32f4xx_can.c ****       (+) Cancel a transmit request
 705:/home/rdu/Workspace/project_templates/mcu/stm32_ws/src/libraries/STM32F4xx_StdPeriph_Driver/src/stm32f4xx_can.c ****    
 706:/home/rdu/Workspace/project_templates/mcu/stm32_ws/src/libraries/STM32F4xx_StdPeriph_Driver/src/stm32f4xx_can.c **** @endverbatim
 707:/home/rdu/Workspace/project_templates/mcu/stm32_ws/src/libraries/STM32F4xx_StdPeriph_Driver/src/stm32f4xx_can.c ****   * @{
 708:/home/rdu/Workspace/project_templates/mcu/stm32_ws/src/libraries/STM32F4xx_StdPeriph_Driver/src/stm32f4xx_can.c ****   */
 709:/home/rdu/Workspace/project_templates/mcu/stm32_ws/src/libraries/STM32F4xx_StdPeriph_Driver/src/stm32f4xx_can.c **** 
 710:/home/rdu/Workspace/project_templates/mcu/stm32_ws/src/libraries/STM32F4xx_StdPeriph_Driver/src/stm32f4xx_can.c **** /**
 711:/home/rdu/Workspace/project_templates/mcu/stm32_ws/src/libraries/STM32F4xx_StdPeriph_Driver/src/stm32f4xx_can.c ****   * @brief  Initiates and transmits a CAN frame message.
 712:/home/rdu/Workspace/project_templates/mcu/stm32_ws/src/libraries/STM32F4xx_StdPeriph_Driver/src/stm32f4xx_can.c ****   * @param  CANx: where x can be 1,2 or 3 to select the CAN peripheral.
 713:/home/rdu/Workspace/project_templates/mcu/stm32_ws/src/libraries/STM32F4xx_StdPeriph_Driver/src/stm32f4xx_can.c ****   * @param  TxMessage: pointer to a structure which contains CAN Id, CAN DLC and CAN data.
 714:/home/rdu/Workspace/project_templates/mcu/stm32_ws/src/libraries/STM32F4xx_StdPeriph_Driver/src/stm32f4xx_can.c ****   * @note   CAN3 peripheral is available only for STM32F413_423xx devices
 715:/home/rdu/Workspace/project_templates/mcu/stm32_ws/src/libraries/STM32F4xx_StdPeriph_Driver/src/stm32f4xx_can.c ****   * @retval The number of the mailbox that is used for transmission or
 716:/home/rdu/Workspace/project_templates/mcu/stm32_ws/src/libraries/STM32F4xx_StdPeriph_Driver/src/stm32f4xx_can.c ****   *         CAN_TxStatus_NoMailBox if there is no empty mailbox.
 717:/home/rdu/Workspace/project_templates/mcu/stm32_ws/src/libraries/STM32F4xx_StdPeriph_Driver/src/stm32f4xx_can.c ****   */
 718:/home/rdu/Workspace/project_templates/mcu/stm32_ws/src/libraries/STM32F4xx_StdPeriph_Driver/src/stm32f4xx_can.c **** uint8_t CAN_Transmit(CAN_TypeDef* CANx, CanTxMsg* TxMessage)
 719:/home/rdu/Workspace/project_templates/mcu/stm32_ws/src/libraries/STM32F4xx_StdPeriph_Driver/src/stm32f4xx_can.c **** {
 872              		.loc 1 719 0
 873              		.cfi_startproc
 874              		@ args = 0, pretend = 0, frame = 16
 875              		@ frame_needed = 0, uses_anonymous_args = 0
 876              		@ link register save eliminated.
 877 0000 84B0     		sub	sp, sp, #16
 878              	.LCFI17:
 879              		.cfi_def_cfa_offset 16
 880 0002 0190     		str	r0, [sp, #4]
 881 0004 0091     		str	r1, [sp]
 720:/home/rdu/Workspace/project_templates/mcu/stm32_ws/src/libraries/STM32F4xx_StdPeriph_Driver/src/stm32f4xx_can.c ****   uint8_t transmit_mailbox = 0;
 882              		.loc 1 720 0
 883 0006 0023     		movs	r3, #0
 884 0008 8DF80F30 		strb	r3, [sp, #15]
 721:/home/rdu/Workspace/project_templates/mcu/stm32_ws/src/libraries/STM32F4xx_StdPeriph_Driver/src/stm32f4xx_can.c ****   /* Check the parameters */
 722:/home/rdu/Workspace/project_templates/mcu/stm32_ws/src/libraries/STM32F4xx_StdPeriph_Driver/src/stm32f4xx_can.c ****   assert_param(IS_CAN_ALL_PERIPH(CANx));
 723:/home/rdu/Workspace/project_templates/mcu/stm32_ws/src/libraries/STM32F4xx_StdPeriph_Driver/src/stm32f4xx_can.c ****   assert_param(IS_CAN_IDTYPE(TxMessage->IDE));
 724:/home/rdu/Workspace/project_templates/mcu/stm32_ws/src/libraries/STM32F4xx_StdPeriph_Driver/src/stm32f4xx_can.c ****   assert_param(IS_CAN_RTR(TxMessage->RTR));
 725:/home/rdu/Workspace/project_templates/mcu/stm32_ws/src/libraries/STM32F4xx_StdPeriph_Driver/src/stm32f4xx_can.c ****   assert_param(IS_CAN_DLC(TxMessage->DLC));
 726:/home/rdu/Workspace/project_templates/mcu/stm32_ws/src/libraries/STM32F4xx_StdPeriph_Driver/src/stm32f4xx_can.c **** 
 727:/home/rdu/Workspace/project_templates/mcu/stm32_ws/src/libraries/STM32F4xx_StdPeriph_Driver/src/stm32f4xx_can.c ****   /* Select one empty transmit mailbox */
 728:/home/rdu/Workspace/project_templates/mcu/stm32_ws/src/libraries/STM32F4xx_StdPeriph_Driver/src/stm32f4xx_can.c ****   if ((CANx->TSR&CAN_TSR_TME0) == CAN_TSR_TME0)
 885              		.loc 1 728 0
 886 000c 019B     		ldr	r3, [sp, #4]
 887 000e 9B68     		ldr	r3, [r3, #8]
 888 0010 03F08063 		and	r3, r3, #67108864
 889 0014 B3F1806F 		cmp	r3, #67108864
 890 0018 03D1     		bne	.L53
 729:/home/rdu/Workspace/project_templates/mcu/stm32_ws/src/libraries/STM32F4xx_StdPeriph_Driver/src/stm32f4xx_can.c ****   {
 730:/home/rdu/Workspace/project_templates/mcu/stm32_ws/src/libraries/STM32F4xx_StdPeriph_Driver/src/stm32f4xx_can.c ****     transmit_mailbox = 0;
 891              		.loc 1 730 0
 892 001a 0023     		movs	r3, #0
 893 001c 8DF80F30 		strb	r3, [sp, #15]
 894 0020 18E0     		b	.L54
 895              	.L53:
 731:/home/rdu/Workspace/project_templates/mcu/stm32_ws/src/libraries/STM32F4xx_StdPeriph_Driver/src/stm32f4xx_can.c ****   }
 732:/home/rdu/Workspace/project_templates/mcu/stm32_ws/src/libraries/STM32F4xx_StdPeriph_Driver/src/stm32f4xx_can.c ****   else if ((CANx->TSR&CAN_TSR_TME1) == CAN_TSR_TME1)
 896              		.loc 1 732 0
 897 0022 019B     		ldr	r3, [sp, #4]
 898 0024 9B68     		ldr	r3, [r3, #8]
 899 0026 03F00063 		and	r3, r3, #134217728
 900 002a B3F1006F 		cmp	r3, #134217728
 901 002e 03D1     		bne	.L55
 733:/home/rdu/Workspace/project_templates/mcu/stm32_ws/src/libraries/STM32F4xx_StdPeriph_Driver/src/stm32f4xx_can.c ****   {
 734:/home/rdu/Workspace/project_templates/mcu/stm32_ws/src/libraries/STM32F4xx_StdPeriph_Driver/src/stm32f4xx_can.c ****     transmit_mailbox = 1;
 902              		.loc 1 734 0
 903 0030 0123     		movs	r3, #1
 904 0032 8DF80F30 		strb	r3, [sp, #15]
 905 0036 0DE0     		b	.L54
 906              	.L55:
 735:/home/rdu/Workspace/project_templates/mcu/stm32_ws/src/libraries/STM32F4xx_StdPeriph_Driver/src/stm32f4xx_can.c ****   }
 736:/home/rdu/Workspace/project_templates/mcu/stm32_ws/src/libraries/STM32F4xx_StdPeriph_Driver/src/stm32f4xx_can.c ****   else if ((CANx->TSR&CAN_TSR_TME2) == CAN_TSR_TME2)
 907              		.loc 1 736 0
 908 0038 019B     		ldr	r3, [sp, #4]
 909 003a 9B68     		ldr	r3, [r3, #8]
 910 003c 03F08053 		and	r3, r3, #268435456
 911 0040 B3F1805F 		cmp	r3, #268435456
 912 0044 03D1     		bne	.L56
 737:/home/rdu/Workspace/project_templates/mcu/stm32_ws/src/libraries/STM32F4xx_StdPeriph_Driver/src/stm32f4xx_can.c ****   {
 738:/home/rdu/Workspace/project_templates/mcu/stm32_ws/src/libraries/STM32F4xx_StdPeriph_Driver/src/stm32f4xx_can.c ****     transmit_mailbox = 2;
 913              		.loc 1 738 0
 914 0046 0223     		movs	r3, #2
 915 0048 8DF80F30 		strb	r3, [sp, #15]
 916 004c 02E0     		b	.L54
 917              	.L56:
 739:/home/rdu/Workspace/project_templates/mcu/stm32_ws/src/libraries/STM32F4xx_StdPeriph_Driver/src/stm32f4xx_can.c ****   }
 740:/home/rdu/Workspace/project_templates/mcu/stm32_ws/src/libraries/STM32F4xx_StdPeriph_Driver/src/stm32f4xx_can.c ****   else
 741:/home/rdu/Workspace/project_templates/mcu/stm32_ws/src/libraries/STM32F4xx_StdPeriph_Driver/src/stm32f4xx_can.c ****   {
 742:/home/rdu/Workspace/project_templates/mcu/stm32_ws/src/libraries/STM32F4xx_StdPeriph_Driver/src/stm32f4xx_can.c ****     transmit_mailbox = CAN_TxStatus_NoMailBox;
 918              		.loc 1 742 0
 919 004e 0423     		movs	r3, #4
 920 0050 8DF80F30 		strb	r3, [sp, #15]
 921              	.L54:
 743:/home/rdu/Workspace/project_templates/mcu/stm32_ws/src/libraries/STM32F4xx_StdPeriph_Driver/src/stm32f4xx_can.c ****   }
 744:/home/rdu/Workspace/project_templates/mcu/stm32_ws/src/libraries/STM32F4xx_StdPeriph_Driver/src/stm32f4xx_can.c **** 
 745:/home/rdu/Workspace/project_templates/mcu/stm32_ws/src/libraries/STM32F4xx_StdPeriph_Driver/src/stm32f4xx_can.c ****   if (transmit_mailbox != CAN_TxStatus_NoMailBox)
 922              		.loc 1 745 0
 923 0054 9DF80F30 		ldrb	r3, [sp, #15]	@ zero_extendqisi2
 924 0058 042B     		cmp	r3, #4
 925 005a 00F0AD80 		beq	.L57
 746:/home/rdu/Workspace/project_templates/mcu/stm32_ws/src/libraries/STM32F4xx_StdPeriph_Driver/src/stm32f4xx_can.c ****   {
 747:/home/rdu/Workspace/project_templates/mcu/stm32_ws/src/libraries/STM32F4xx_StdPeriph_Driver/src/stm32f4xx_can.c ****     /* Set up the Id */
 748:/home/rdu/Workspace/project_templates/mcu/stm32_ws/src/libraries/STM32F4xx_StdPeriph_Driver/src/stm32f4xx_can.c ****     CANx->sTxMailBox[transmit_mailbox].TIR &= TMIDxR_TXRQ;
 926              		.loc 1 748 0
 927 005e 9DF80F30 		ldrb	r3, [sp, #15]	@ zero_extendqisi2
 928 0062 019A     		ldr	r2, [sp, #4]
 929 0064 1833     		adds	r3, r3, #24
 930 0066 1B01     		lsls	r3, r3, #4
 931 0068 1344     		add	r3, r3, r2
 932 006a 1A68     		ldr	r2, [r3]
 933 006c 9DF80F30 		ldrb	r3, [sp, #15]	@ zero_extendqisi2
 934 0070 02F00102 		and	r2, r2, #1
 935 0074 0199     		ldr	r1, [sp, #4]
 936 0076 1833     		adds	r3, r3, #24
 937 0078 1B01     		lsls	r3, r3, #4
 938 007a 0B44     		add	r3, r3, r1
 939 007c 1A60     		str	r2, [r3]
 749:/home/rdu/Workspace/project_templates/mcu/stm32_ws/src/libraries/STM32F4xx_StdPeriph_Driver/src/stm32f4xx_can.c ****     if (TxMessage->IDE == CAN_Id_Standard)
 940              		.loc 1 749 0
 941 007e 009B     		ldr	r3, [sp]
 942 0080 1B7A     		ldrb	r3, [r3, #8]	@ zero_extendqisi2
 943 0082 002B     		cmp	r3, #0
 944 0084 15D1     		bne	.L58
 750:/home/rdu/Workspace/project_templates/mcu/stm32_ws/src/libraries/STM32F4xx_StdPeriph_Driver/src/stm32f4xx_can.c ****     {
 751:/home/rdu/Workspace/project_templates/mcu/stm32_ws/src/libraries/STM32F4xx_StdPeriph_Driver/src/stm32f4xx_can.c ****       assert_param(IS_CAN_STDID(TxMessage->StdId));  
 752:/home/rdu/Workspace/project_templates/mcu/stm32_ws/src/libraries/STM32F4xx_StdPeriph_Driver/src/stm32f4xx_can.c ****       CANx->sTxMailBox[transmit_mailbox].TIR |= ((TxMessage->StdId << 21) | \
 945              		.loc 1 752 0
 946 0086 9DF80F30 		ldrb	r3, [sp, #15]	@ zero_extendqisi2
 947 008a 019A     		ldr	r2, [sp, #4]
 948 008c 1833     		adds	r3, r3, #24
 949 008e 1B01     		lsls	r3, r3, #4
 950 0090 1344     		add	r3, r3, r2
 951 0092 1968     		ldr	r1, [r3]
 952 0094 009B     		ldr	r3, [sp]
 953 0096 1B68     		ldr	r3, [r3]
 954 0098 5B05     		lsls	r3, r3, #21
 753:/home/rdu/Workspace/project_templates/mcu/stm32_ws/src/libraries/STM32F4xx_StdPeriph_Driver/src/stm32f4xx_can.c ****                                                   TxMessage->RTR);
 955              		.loc 1 753 0
 956 009a 009A     		ldr	r2, [sp]
 957 009c 527A     		ldrb	r2, [r2, #9]	@ zero_extendqisi2
 752:/home/rdu/Workspace/project_templates/mcu/stm32_ws/src/libraries/STM32F4xx_StdPeriph_Driver/src/stm32f4xx_can.c ****                                                   TxMessage->RTR);
 958              		.loc 1 752 0
 959 009e 1A43     		orrs	r2, r2, r3
 960 00a0 9DF80F30 		ldrb	r3, [sp, #15]	@ zero_extendqisi2
 961 00a4 0A43     		orrs	r2, r2, r1
 962 00a6 0199     		ldr	r1, [sp, #4]
 963 00a8 1833     		adds	r3, r3, #24
 964 00aa 1B01     		lsls	r3, r3, #4
 965 00ac 0B44     		add	r3, r3, r1
 966 00ae 1A60     		str	r2, [r3]
 967 00b0 17E0     		b	.L59
 968              	.L58:
 754:/home/rdu/Workspace/project_templates/mcu/stm32_ws/src/libraries/STM32F4xx_StdPeriph_Driver/src/stm32f4xx_can.c ****     }
 755:/home/rdu/Workspace/project_templates/mcu/stm32_ws/src/libraries/STM32F4xx_StdPeriph_Driver/src/stm32f4xx_can.c ****     else
 756:/home/rdu/Workspace/project_templates/mcu/stm32_ws/src/libraries/STM32F4xx_StdPeriph_Driver/src/stm32f4xx_can.c ****     {
 757:/home/rdu/Workspace/project_templates/mcu/stm32_ws/src/libraries/STM32F4xx_StdPeriph_Driver/src/stm32f4xx_can.c ****       assert_param(IS_CAN_EXTID(TxMessage->ExtId));
 758:/home/rdu/Workspace/project_templates/mcu/stm32_ws/src/libraries/STM32F4xx_StdPeriph_Driver/src/stm32f4xx_can.c ****       CANx->sTxMailBox[transmit_mailbox].TIR |= ((TxMessage->ExtId << 3) | \
 969              		.loc 1 758 0
 970 00b2 9DF80F30 		ldrb	r3, [sp, #15]	@ zero_extendqisi2
 971 00b6 019A     		ldr	r2, [sp, #4]
 972 00b8 1833     		adds	r3, r3, #24
 973 00ba 1B01     		lsls	r3, r3, #4
 974 00bc 1344     		add	r3, r3, r2
 975 00be 1968     		ldr	r1, [r3]
 976 00c0 009B     		ldr	r3, [sp]
 977 00c2 5B68     		ldr	r3, [r3, #4]
 978 00c4 DB00     		lsls	r3, r3, #3
 759:/home/rdu/Workspace/project_templates/mcu/stm32_ws/src/libraries/STM32F4xx_StdPeriph_Driver/src/stm32f4xx_can.c ****                                                   TxMessage->IDE | \
 979              		.loc 1 759 0
 980 00c6 009A     		ldr	r2, [sp]
 981 00c8 127A     		ldrb	r2, [r2, #8]	@ zero_extendqisi2
 758:/home/rdu/Workspace/project_templates/mcu/stm32_ws/src/libraries/STM32F4xx_StdPeriph_Driver/src/stm32f4xx_can.c ****                                                   TxMessage->IDE | \
 982              		.loc 1 758 0
 983 00ca 1343     		orrs	r3, r3, r2
 760:/home/rdu/Workspace/project_templates/mcu/stm32_ws/src/libraries/STM32F4xx_StdPeriph_Driver/src/stm32f4xx_can.c ****                                                   TxMessage->RTR);
 984              		.loc 1 760 0
 985 00cc 009A     		ldr	r2, [sp]
 986 00ce 527A     		ldrb	r2, [r2, #9]	@ zero_extendqisi2
 759:/home/rdu/Workspace/project_templates/mcu/stm32_ws/src/libraries/STM32F4xx_StdPeriph_Driver/src/stm32f4xx_can.c ****                                                   TxMessage->IDE | \
 987              		.loc 1 759 0
 988 00d0 1A43     		orrs	r2, r2, r3
 758:/home/rdu/Workspace/project_templates/mcu/stm32_ws/src/libraries/STM32F4xx_StdPeriph_Driver/src/stm32f4xx_can.c ****                                                   TxMessage->IDE | \
 989              		.loc 1 758 0
 990 00d2 9DF80F30 		ldrb	r3, [sp, #15]	@ zero_extendqisi2
 991 00d6 0A43     		orrs	r2, r2, r1
 992 00d8 0199     		ldr	r1, [sp, #4]
 993 00da 1833     		adds	r3, r3, #24
 994 00dc 1B01     		lsls	r3, r3, #4
 995 00de 0B44     		add	r3, r3, r1
 996 00e0 1A60     		str	r2, [r3]
 997              	.L59:
 761:/home/rdu/Workspace/project_templates/mcu/stm32_ws/src/libraries/STM32F4xx_StdPeriph_Driver/src/stm32f4xx_can.c ****     }
 762:/home/rdu/Workspace/project_templates/mcu/stm32_ws/src/libraries/STM32F4xx_StdPeriph_Driver/src/stm32f4xx_can.c ****     
 763:/home/rdu/Workspace/project_templates/mcu/stm32_ws/src/libraries/STM32F4xx_StdPeriph_Driver/src/stm32f4xx_can.c ****     /* Set up the DLC */
 764:/home/rdu/Workspace/project_templates/mcu/stm32_ws/src/libraries/STM32F4xx_StdPeriph_Driver/src/stm32f4xx_can.c ****     TxMessage->DLC &= (uint8_t)0x0000000F;
 998              		.loc 1 764 0
 999 00e2 009B     		ldr	r3, [sp]
 1000 00e4 9B7A     		ldrb	r3, [r3, #10]	@ zero_extendqisi2
 1001 00e6 03F00F03 		and	r3, r3, #15
 1002 00ea DAB2     		uxtb	r2, r3
 1003 00ec 009B     		ldr	r3, [sp]
 1004 00ee 9A72     		strb	r2, [r3, #10]
 765:/home/rdu/Workspace/project_templates/mcu/stm32_ws/src/libraries/STM32F4xx_StdPeriph_Driver/src/stm32f4xx_can.c ****     CANx->sTxMailBox[transmit_mailbox].TDTR &= (uint32_t)0xFFFFFFF0;
 1005              		.loc 1 765 0
 1006 00f0 9DF80F30 		ldrb	r3, [sp, #15]	@ zero_extendqisi2
 1007 00f4 019A     		ldr	r2, [sp, #4]
 1008 00f6 1833     		adds	r3, r3, #24
 1009 00f8 1B01     		lsls	r3, r3, #4
 1010 00fa 1344     		add	r3, r3, r2
 1011 00fc 0433     		adds	r3, r3, #4
 1012 00fe 1A68     		ldr	r2, [r3]
 1013 0100 9DF80F30 		ldrb	r3, [sp, #15]	@ zero_extendqisi2
 1014 0104 22F00F02 		bic	r2, r2, #15
 1015 0108 0199     		ldr	r1, [sp, #4]
 1016 010a 1833     		adds	r3, r3, #24
 1017 010c 1B01     		lsls	r3, r3, #4
 1018 010e 0B44     		add	r3, r3, r1
 1019 0110 0433     		adds	r3, r3, #4
 1020 0112 1A60     		str	r2, [r3]
 766:/home/rdu/Workspace/project_templates/mcu/stm32_ws/src/libraries/STM32F4xx_StdPeriph_Driver/src/stm32f4xx_can.c ****     CANx->sTxMailBox[transmit_mailbox].TDTR |= TxMessage->DLC;
 1021              		.loc 1 766 0
 1022 0114 9DF80F30 		ldrb	r3, [sp, #15]	@ zero_extendqisi2
 1023 0118 019A     		ldr	r2, [sp, #4]
 1024 011a 1833     		adds	r3, r3, #24
 1025 011c 1B01     		lsls	r3, r3, #4
 1026 011e 1344     		add	r3, r3, r2
 1027 0120 0433     		adds	r3, r3, #4
 1028 0122 1A68     		ldr	r2, [r3]
 1029 0124 009B     		ldr	r3, [sp]
 1030 0126 9B7A     		ldrb	r3, [r3, #10]	@ zero_extendqisi2
 1031 0128 1946     		mov	r1, r3
 1032 012a 9DF80F30 		ldrb	r3, [sp, #15]	@ zero_extendqisi2
 1033 012e 0A43     		orrs	r2, r2, r1
 1034 0130 0199     		ldr	r1, [sp, #4]
 1035 0132 1833     		adds	r3, r3, #24
 1036 0134 1B01     		lsls	r3, r3, #4
 1037 0136 0B44     		add	r3, r3, r1
 1038 0138 0433     		adds	r3, r3, #4
 1039 013a 1A60     		str	r2, [r3]
 767:/home/rdu/Workspace/project_templates/mcu/stm32_ws/src/libraries/STM32F4xx_StdPeriph_Driver/src/stm32f4xx_can.c **** 
 768:/home/rdu/Workspace/project_templates/mcu/stm32_ws/src/libraries/STM32F4xx_StdPeriph_Driver/src/stm32f4xx_can.c ****     /* Set up the data field */
 769:/home/rdu/Workspace/project_templates/mcu/stm32_ws/src/libraries/STM32F4xx_StdPeriph_Driver/src/stm32f4xx_can.c ****     CANx->sTxMailBox[transmit_mailbox].TDLR = (((uint32_t)TxMessage->Data[3] << 24) | 
 1040              		.loc 1 769 0
 1041 013c 009B     		ldr	r3, [sp]
 1042 013e 9B7B     		ldrb	r3, [r3, #14]	@ zero_extendqisi2
 1043 0140 1A06     		lsls	r2, r3, #24
 770:/home/rdu/Workspace/project_templates/mcu/stm32_ws/src/libraries/STM32F4xx_StdPeriph_Driver/src/stm32f4xx_can.c ****                                              ((uint32_t)TxMessage->Data[2] << 16) |
 1044              		.loc 1 770 0
 1045 0142 009B     		ldr	r3, [sp]
 1046 0144 5B7B     		ldrb	r3, [r3, #13]	@ zero_extendqisi2
 1047 0146 1B04     		lsls	r3, r3, #16
 769:/home/rdu/Workspace/project_templates/mcu/stm32_ws/src/libraries/STM32F4xx_StdPeriph_Driver/src/stm32f4xx_can.c ****                                              ((uint32_t)TxMessage->Data[2] << 16) |
 1048              		.loc 1 769 0
 1049 0148 1A43     		orrs	r2, r2, r3
 771:/home/rdu/Workspace/project_templates/mcu/stm32_ws/src/libraries/STM32F4xx_StdPeriph_Driver/src/stm32f4xx_can.c ****                                              ((uint32_t)TxMessage->Data[1] << 8) | 
 1050              		.loc 1 771 0
 1051 014a 009B     		ldr	r3, [sp]
 1052 014c 1B7B     		ldrb	r3, [r3, #12]	@ zero_extendqisi2
 1053 014e 1B02     		lsls	r3, r3, #8
 770:/home/rdu/Workspace/project_templates/mcu/stm32_ws/src/libraries/STM32F4xx_StdPeriph_Driver/src/stm32f4xx_can.c ****                                              ((uint32_t)TxMessage->Data[2] << 16) |
 1054              		.loc 1 770 0
 1055 0150 1A43     		orrs	r2, r2, r3
 772:/home/rdu/Workspace/project_templates/mcu/stm32_ws/src/libraries/STM32F4xx_StdPeriph_Driver/src/stm32f4xx_can.c ****                                              ((uint32_t)TxMessage->Data[0]));
 1056              		.loc 1 772 0
 1057 0152 009B     		ldr	r3, [sp]
 1058 0154 DB7A     		ldrb	r3, [r3, #11]	@ zero_extendqisi2
 1059 0156 1946     		mov	r1, r3
 769:/home/rdu/Workspace/project_templates/mcu/stm32_ws/src/libraries/STM32F4xx_StdPeriph_Driver/src/stm32f4xx_can.c ****                                              ((uint32_t)TxMessage->Data[2] << 16) |
 1060              		.loc 1 769 0
 1061 0158 9DF80F30 		ldrb	r3, [sp, #15]	@ zero_extendqisi2
 771:/home/rdu/Workspace/project_templates/mcu/stm32_ws/src/libraries/STM32F4xx_StdPeriph_Driver/src/stm32f4xx_can.c ****                                              ((uint32_t)TxMessage->Data[1] << 8) | 
 1062              		.loc 1 771 0
 1063 015c 0A43     		orrs	r2, r2, r1
 769:/home/rdu/Workspace/project_templates/mcu/stm32_ws/src/libraries/STM32F4xx_StdPeriph_Driver/src/stm32f4xx_can.c ****                                              ((uint32_t)TxMessage->Data[2] << 16) |
 1064              		.loc 1 769 0
 1065 015e 0199     		ldr	r1, [sp, #4]
 1066 0160 1B01     		lsls	r3, r3, #4
 1067 0162 0B44     		add	r3, r3, r1
 1068 0164 03F5C473 		add	r3, r3, #392
 1069 0168 1A60     		str	r2, [r3]
 773:/home/rdu/Workspace/project_templates/mcu/stm32_ws/src/libraries/STM32F4xx_StdPeriph_Driver/src/stm32f4xx_can.c ****     CANx->sTxMailBox[transmit_mailbox].TDHR = (((uint32_t)TxMessage->Data[7] << 24) | 
 1070              		.loc 1 773 0
 1071 016a 009B     		ldr	r3, [sp]
 1072 016c 9B7C     		ldrb	r3, [r3, #18]	@ zero_extendqisi2
 1073 016e 1A06     		lsls	r2, r3, #24
 774:/home/rdu/Workspace/project_templates/mcu/stm32_ws/src/libraries/STM32F4xx_StdPeriph_Driver/src/stm32f4xx_can.c ****                                              ((uint32_t)TxMessage->Data[6] << 16) |
 1074              		.loc 1 774 0
 1075 0170 009B     		ldr	r3, [sp]
 1076 0172 5B7C     		ldrb	r3, [r3, #17]	@ zero_extendqisi2
 1077 0174 1B04     		lsls	r3, r3, #16
 773:/home/rdu/Workspace/project_templates/mcu/stm32_ws/src/libraries/STM32F4xx_StdPeriph_Driver/src/stm32f4xx_can.c ****     CANx->sTxMailBox[transmit_mailbox].TDHR = (((uint32_t)TxMessage->Data[7] << 24) | 
 1078              		.loc 1 773 0
 1079 0176 1A43     		orrs	r2, r2, r3
 775:/home/rdu/Workspace/project_templates/mcu/stm32_ws/src/libraries/STM32F4xx_StdPeriph_Driver/src/stm32f4xx_can.c ****                                              ((uint32_t)TxMessage->Data[5] << 8) |
 1080              		.loc 1 775 0
 1081 0178 009B     		ldr	r3, [sp]
 1082 017a 1B7C     		ldrb	r3, [r3, #16]	@ zero_extendqisi2
 1083 017c 1B02     		lsls	r3, r3, #8
 774:/home/rdu/Workspace/project_templates/mcu/stm32_ws/src/libraries/STM32F4xx_StdPeriph_Driver/src/stm32f4xx_can.c ****                                              ((uint32_t)TxMessage->Data[6] << 16) |
 1084              		.loc 1 774 0
 1085 017e 1A43     		orrs	r2, r2, r3
 776:/home/rdu/Workspace/project_templates/mcu/stm32_ws/src/libraries/STM32F4xx_StdPeriph_Driver/src/stm32f4xx_can.c ****                                              ((uint32_t)TxMessage->Data[4]));
 1086              		.loc 1 776 0
 1087 0180 009B     		ldr	r3, [sp]
 1088 0182 DB7B     		ldrb	r3, [r3, #15]	@ zero_extendqisi2
 1089 0184 1946     		mov	r1, r3
 773:/home/rdu/Workspace/project_templates/mcu/stm32_ws/src/libraries/STM32F4xx_StdPeriph_Driver/src/stm32f4xx_can.c ****                                              ((uint32_t)TxMessage->Data[6] << 16) |
 1090              		.loc 1 773 0
 1091 0186 9DF80F30 		ldrb	r3, [sp, #15]	@ zero_extendqisi2
 775:/home/rdu/Workspace/project_templates/mcu/stm32_ws/src/libraries/STM32F4xx_StdPeriph_Driver/src/stm32f4xx_can.c ****                                              ((uint32_t)TxMessage->Data[5] << 8) |
 1092              		.loc 1 775 0
 1093 018a 0A43     		orrs	r2, r2, r1
 773:/home/rdu/Workspace/project_templates/mcu/stm32_ws/src/libraries/STM32F4xx_StdPeriph_Driver/src/stm32f4xx_can.c ****                                              ((uint32_t)TxMessage->Data[6] << 16) |
 1094              		.loc 1 773 0
 1095 018c 0199     		ldr	r1, [sp, #4]
 1096 018e 1B01     		lsls	r3, r3, #4
 1097 0190 0B44     		add	r3, r3, r1
 1098 0192 03F5C673 		add	r3, r3, #396
 1099 0196 1A60     		str	r2, [r3]
 777:/home/rdu/Workspace/project_templates/mcu/stm32_ws/src/libraries/STM32F4xx_StdPeriph_Driver/src/stm32f4xx_can.c ****     /* Request transmission */
 778:/home/rdu/Workspace/project_templates/mcu/stm32_ws/src/libraries/STM32F4xx_StdPeriph_Driver/src/stm32f4xx_can.c ****     CANx->sTxMailBox[transmit_mailbox].TIR |= TMIDxR_TXRQ;
 1100              		.loc 1 778 0
 1101 0198 9DF80F30 		ldrb	r3, [sp, #15]	@ zero_extendqisi2
 1102 019c 019A     		ldr	r2, [sp, #4]
 1103 019e 1833     		adds	r3, r3, #24
 1104 01a0 1B01     		lsls	r3, r3, #4
 1105 01a2 1344     		add	r3, r3, r2
 1106 01a4 1A68     		ldr	r2, [r3]
 1107 01a6 9DF80F30 		ldrb	r3, [sp, #15]	@ zero_extendqisi2
 1108 01aa 42F00102 		orr	r2, r2, #1
 1109 01ae 0199     		ldr	r1, [sp, #4]
 1110 01b0 1833     		adds	r3, r3, #24
 1111 01b2 1B01     		lsls	r3, r3, #4
 1112 01b4 0B44     		add	r3, r3, r1
 1113 01b6 1A60     		str	r2, [r3]
 1114              	.L57:
 779:/home/rdu/Workspace/project_templates/mcu/stm32_ws/src/libraries/STM32F4xx_StdPeriph_Driver/src/stm32f4xx_can.c ****   }
 780:/home/rdu/Workspace/project_templates/mcu/stm32_ws/src/libraries/STM32F4xx_StdPeriph_Driver/src/stm32f4xx_can.c ****   return transmit_mailbox;
 1115              		.loc 1 780 0
 1116 01b8 9DF80F30 		ldrb	r3, [sp, #15]	@ zero_extendqisi2
 781:/home/rdu/Workspace/project_templates/mcu/stm32_ws/src/libraries/STM32F4xx_StdPeriph_Driver/src/stm32f4xx_can.c **** }
 1117              		.loc 1 781 0
 1118 01bc 1846     		mov	r0, r3
 1119 01be 04B0     		add	sp, sp, #16
 1120              	.LCFI18:
 1121              		.cfi_def_cfa_offset 0
 1122              		@ sp needed
 1123 01c0 7047     		bx	lr
 1124              		.cfi_endproc
 1125              	.LFE130:
 1127              		.section	.text.CAN_TransmitStatus,"ax",%progbits
 1128              		.align	1
 1129              		.global	CAN_TransmitStatus
 1130              		.syntax unified
 1131              		.thumb
 1132              		.thumb_func
 1133              		.fpu fpv4-sp-d16
 1135              	CAN_TransmitStatus:
 1136              	.LFB131:
 782:/home/rdu/Workspace/project_templates/mcu/stm32_ws/src/libraries/STM32F4xx_StdPeriph_Driver/src/stm32f4xx_can.c **** 
 783:/home/rdu/Workspace/project_templates/mcu/stm32_ws/src/libraries/STM32F4xx_StdPeriph_Driver/src/stm32f4xx_can.c **** /**
 784:/home/rdu/Workspace/project_templates/mcu/stm32_ws/src/libraries/STM32F4xx_StdPeriph_Driver/src/stm32f4xx_can.c ****   * @brief  Checks the transmission status of a CAN Frame.
 785:/home/rdu/Workspace/project_templates/mcu/stm32_ws/src/libraries/STM32F4xx_StdPeriph_Driver/src/stm32f4xx_can.c ****   * @param  CANx: where x can be 1,2 or 3 to select the CAN peripheral.
 786:/home/rdu/Workspace/project_templates/mcu/stm32_ws/src/libraries/STM32F4xx_StdPeriph_Driver/src/stm32f4xx_can.c ****   * @param  TransmitMailbox: the number of the mailbox that is used for transmission.
 787:/home/rdu/Workspace/project_templates/mcu/stm32_ws/src/libraries/STM32F4xx_StdPeriph_Driver/src/stm32f4xx_can.c ****   * @note   CAN3 peripheral is available only for STM32F413_423xx devices
 788:/home/rdu/Workspace/project_templates/mcu/stm32_ws/src/libraries/STM32F4xx_StdPeriph_Driver/src/stm32f4xx_can.c ****   * @retval CAN_TxStatus_Ok if the CAN driver transmits the message, 
 789:/home/rdu/Workspace/project_templates/mcu/stm32_ws/src/libraries/STM32F4xx_StdPeriph_Driver/src/stm32f4xx_can.c ****   *         CAN_TxStatus_Failed in an other case.
 790:/home/rdu/Workspace/project_templates/mcu/stm32_ws/src/libraries/STM32F4xx_StdPeriph_Driver/src/stm32f4xx_can.c ****   */
 791:/home/rdu/Workspace/project_templates/mcu/stm32_ws/src/libraries/STM32F4xx_StdPeriph_Driver/src/stm32f4xx_can.c **** uint8_t CAN_TransmitStatus(CAN_TypeDef* CANx, uint8_t TransmitMailbox)
 792:/home/rdu/Workspace/project_templates/mcu/stm32_ws/src/libraries/STM32F4xx_StdPeriph_Driver/src/stm32f4xx_can.c **** {
 1137              		.loc 1 792 0
 1138              		.cfi_startproc
 1139              		@ args = 0, pretend = 0, frame = 16
 1140              		@ frame_needed = 0, uses_anonymous_args = 0
 1141              		@ link register save eliminated.
 1142 0000 84B0     		sub	sp, sp, #16
 1143              	.LCFI19:
 1144              		.cfi_def_cfa_offset 16
 1145 0002 0190     		str	r0, [sp, #4]
 1146 0004 0B46     		mov	r3, r1
 1147 0006 8DF80330 		strb	r3, [sp, #3]
 793:/home/rdu/Workspace/project_templates/mcu/stm32_ws/src/libraries/STM32F4xx_StdPeriph_Driver/src/stm32f4xx_can.c ****   uint32_t state = 0;
 1148              		.loc 1 793 0
 1149 000a 0023     		movs	r3, #0
 1150 000c 0393     		str	r3, [sp, #12]
 794:/home/rdu/Workspace/project_templates/mcu/stm32_ws/src/libraries/STM32F4xx_StdPeriph_Driver/src/stm32f4xx_can.c **** 
 795:/home/rdu/Workspace/project_templates/mcu/stm32_ws/src/libraries/STM32F4xx_StdPeriph_Driver/src/stm32f4xx_can.c ****   /* Check the parameters */
 796:/home/rdu/Workspace/project_templates/mcu/stm32_ws/src/libraries/STM32F4xx_StdPeriph_Driver/src/stm32f4xx_can.c ****   assert_param(IS_CAN_ALL_PERIPH(CANx));
 797:/home/rdu/Workspace/project_templates/mcu/stm32_ws/src/libraries/STM32F4xx_StdPeriph_Driver/src/stm32f4xx_can.c ****   assert_param(IS_CAN_TRANSMITMAILBOX(TransmitMailbox));
 798:/home/rdu/Workspace/project_templates/mcu/stm32_ws/src/libraries/STM32F4xx_StdPeriph_Driver/src/stm32f4xx_can.c ****  
 799:/home/rdu/Workspace/project_templates/mcu/stm32_ws/src/libraries/STM32F4xx_StdPeriph_Driver/src/stm32f4xx_can.c ****   switch (TransmitMailbox)
 1151              		.loc 1 799 0
 1152 000e 9DF80330 		ldrb	r3, [sp, #3]	@ zero_extendqisi2
 1153 0012 012B     		cmp	r3, #1
 1154 0014 09D0     		beq	.L63
 1155 0016 022B     		cmp	r3, #2
 1156 0018 0DD0     		beq	.L64
 1157 001a 002B     		cmp	r3, #0
 1158 001c 11D1     		bne	.L78
 800:/home/rdu/Workspace/project_templates/mcu/stm32_ws/src/libraries/STM32F4xx_StdPeriph_Driver/src/stm32f4xx_can.c ****   {
 801:/home/rdu/Workspace/project_templates/mcu/stm32_ws/src/libraries/STM32F4xx_StdPeriph_Driver/src/stm32f4xx_can.c ****     case (CAN_TXMAILBOX_0): 
 802:/home/rdu/Workspace/project_templates/mcu/stm32_ws/src/libraries/STM32F4xx_StdPeriph_Driver/src/stm32f4xx_can.c ****       state =   CANx->TSR &  (CAN_TSR_RQCP0 | CAN_TSR_TXOK0 | CAN_TSR_TME0);
 1159              		.loc 1 802 0
 1160 001e 019B     		ldr	r3, [sp, #4]
 1161 0020 9A68     		ldr	r2, [r3, #8]
 1162 0022 254B     		ldr	r3, .L79
 1163 0024 1340     		ands	r3, r3, r2
 1164 0026 0393     		str	r3, [sp, #12]
 803:/home/rdu/Workspace/project_templates/mcu/stm32_ws/src/libraries/STM32F4xx_StdPeriph_Driver/src/stm32f4xx_can.c ****       break;
 1165              		.loc 1 803 0
 1166 0028 0EE0     		b	.L66
 1167              	.L63:
 804:/home/rdu/Workspace/project_templates/mcu/stm32_ws/src/libraries/STM32F4xx_StdPeriph_Driver/src/stm32f4xx_can.c ****     case (CAN_TXMAILBOX_1): 
 805:/home/rdu/Workspace/project_templates/mcu/stm32_ws/src/libraries/STM32F4xx_StdPeriph_Driver/src/stm32f4xx_can.c ****       state =   CANx->TSR &  (CAN_TSR_RQCP1 | CAN_TSR_TXOK1 | CAN_TSR_TME1);
 1168              		.loc 1 805 0
 1169 002a 019B     		ldr	r3, [sp, #4]
 1170 002c 9A68     		ldr	r2, [r3, #8]
 1171 002e 234B     		ldr	r3, .L79+4
 1172 0030 1340     		ands	r3, r3, r2
 1173 0032 0393     		str	r3, [sp, #12]
 806:/home/rdu/Workspace/project_templates/mcu/stm32_ws/src/libraries/STM32F4xx_StdPeriph_Driver/src/stm32f4xx_can.c ****       break;
 1174              		.loc 1 806 0
 1175 0034 08E0     		b	.L66
 1176              	.L64:
 807:/home/rdu/Workspace/project_templates/mcu/stm32_ws/src/libraries/STM32F4xx_StdPeriph_Driver/src/stm32f4xx_can.c ****     case (CAN_TXMAILBOX_2): 
 808:/home/rdu/Workspace/project_templates/mcu/stm32_ws/src/libraries/STM32F4xx_StdPeriph_Driver/src/stm32f4xx_can.c ****       state =   CANx->TSR &  (CAN_TSR_RQCP2 | CAN_TSR_TXOK2 | CAN_TSR_TME2);
 1177              		.loc 1 808 0
 1178 0036 019B     		ldr	r3, [sp, #4]
 1179 0038 9A68     		ldr	r2, [r3, #8]
 1180 003a 214B     		ldr	r3, .L79+8
 1181 003c 1340     		ands	r3, r3, r2
 1182 003e 0393     		str	r3, [sp, #12]
 809:/home/rdu/Workspace/project_templates/mcu/stm32_ws/src/libraries/STM32F4xx_StdPeriph_Driver/src/stm32f4xx_can.c ****       break;
 1183              		.loc 1 809 0
 1184 0040 02E0     		b	.L66
 1185              	.L78:
 810:/home/rdu/Workspace/project_templates/mcu/stm32_ws/src/libraries/STM32F4xx_StdPeriph_Driver/src/stm32f4xx_can.c ****     default:
 811:/home/rdu/Workspace/project_templates/mcu/stm32_ws/src/libraries/STM32F4xx_StdPeriph_Driver/src/stm32f4xx_can.c ****       state = CAN_TxStatus_Failed;
 1186              		.loc 1 811 0
 1187 0042 0023     		movs	r3, #0
 1188 0044 0393     		str	r3, [sp, #12]
 812:/home/rdu/Workspace/project_templates/mcu/stm32_ws/src/libraries/STM32F4xx_StdPeriph_Driver/src/stm32f4xx_can.c ****       break;
 1189              		.loc 1 812 0
 1190 0046 00BF     		nop
 1191              	.L66:
 813:/home/rdu/Workspace/project_templates/mcu/stm32_ws/src/libraries/STM32F4xx_StdPeriph_Driver/src/stm32f4xx_can.c ****   }
 814:/home/rdu/Workspace/project_templates/mcu/stm32_ws/src/libraries/STM32F4xx_StdPeriph_Driver/src/stm32f4xx_can.c ****   switch (state)
 1192              		.loc 1 814 0
 1193 0048 039B     		ldr	r3, [sp, #12]
 1194 004a 1E4A     		ldr	r2, .L79+12
 1195 004c 9342     		cmp	r3, r2
 1196 004e 1BD0     		beq	.L68
 1197 0050 1C4A     		ldr	r2, .L79+12
 1198 0052 9342     		cmp	r3, r2
 1199 0054 08D8     		bhi	.L69
 1200 0056 1C4A     		ldr	r2, .L79+16
 1201 0058 9342     		cmp	r3, r2
 1202 005a 12D0     		beq	.L70
 1203 005c 164A     		ldr	r2, .L79
 1204 005e 9342     		cmp	r3, r2
 1205 0060 18D0     		beq	.L71
 1206 0062 002B     		cmp	r3, #0
 1207 0064 0AD0     		beq	.L72
 1208 0066 1EE0     		b	.L67
 1209              	.L69:
 1210 0068 184A     		ldr	r2, .L79+20
 1211 006a 9342     		cmp	r3, r2
 1212 006c 0FD0     		beq	.L73
 1213 006e 144A     		ldr	r2, .L79+8
 1214 0070 9342     		cmp	r3, r2
 1215 0072 15D0     		beq	.L74
 1216 0074 114A     		ldr	r2, .L79+4
 1217 0076 9342     		cmp	r3, r2
 1218 0078 0FD0     		beq	.L75
 1219 007a 14E0     		b	.L67
 1220              	.L72:
 815:/home/rdu/Workspace/project_templates/mcu/stm32_ws/src/libraries/STM32F4xx_StdPeriph_Driver/src/stm32f4xx_can.c ****   {
 816:/home/rdu/Workspace/project_templates/mcu/stm32_ws/src/libraries/STM32F4xx_StdPeriph_Driver/src/stm32f4xx_can.c ****       /* transmit pending  */
 817:/home/rdu/Workspace/project_templates/mcu/stm32_ws/src/libraries/STM32F4xx_StdPeriph_Driver/src/stm32f4xx_can.c ****     case (0x0): state = CAN_TxStatus_Pending;
 1221              		.loc 1 817 0
 1222 007c 0223     		movs	r3, #2
 1223 007e 0393     		str	r3, [sp, #12]
 818:/home/rdu/Workspace/project_templates/mcu/stm32_ws/src/libraries/STM32F4xx_StdPeriph_Driver/src/stm32f4xx_can.c ****       break;
 1224              		.loc 1 818 0
 1225 0080 14E0     		b	.L76
 1226              	.L70:
 819:/home/rdu/Workspace/project_templates/mcu/stm32_ws/src/libraries/STM32F4xx_StdPeriph_Driver/src/stm32f4xx_can.c ****       /* transmit failed  */
 820:/home/rdu/Workspace/project_templates/mcu/stm32_ws/src/libraries/STM32F4xx_StdPeriph_Driver/src/stm32f4xx_can.c ****      case (CAN_TSR_RQCP0 | CAN_TSR_TME0): state = CAN_TxStatus_Failed;
 1227              		.loc 1 820 0
 1228 0082 0023     		movs	r3, #0
 1229 0084 0393     		str	r3, [sp, #12]
 821:/home/rdu/Workspace/project_templates/mcu/stm32_ws/src/libraries/STM32F4xx_StdPeriph_Driver/src/stm32f4xx_can.c ****       break;
 1230              		.loc 1 821 0
 1231 0086 11E0     		b	.L76
 1232              	.L68:
 822:/home/rdu/Workspace/project_templates/mcu/stm32_ws/src/libraries/STM32F4xx_StdPeriph_Driver/src/stm32f4xx_can.c ****      case (CAN_TSR_RQCP1 | CAN_TSR_TME1): state = CAN_TxStatus_Failed;
 1233              		.loc 1 822 0
 1234 0088 0023     		movs	r3, #0
 1235 008a 0393     		str	r3, [sp, #12]
 823:/home/rdu/Workspace/project_templates/mcu/stm32_ws/src/libraries/STM32F4xx_StdPeriph_Driver/src/stm32f4xx_can.c ****       break;
 1236              		.loc 1 823 0
 1237 008c 0EE0     		b	.L76
 1238              	.L73:
 824:/home/rdu/Workspace/project_templates/mcu/stm32_ws/src/libraries/STM32F4xx_StdPeriph_Driver/src/stm32f4xx_can.c ****      case (CAN_TSR_RQCP2 | CAN_TSR_TME2): state = CAN_TxStatus_Failed;
 1239              		.loc 1 824 0
 1240 008e 0023     		movs	r3, #0
 1241 0090 0393     		str	r3, [sp, #12]
 825:/home/rdu/Workspace/project_templates/mcu/stm32_ws/src/libraries/STM32F4xx_StdPeriph_Driver/src/stm32f4xx_can.c ****       break;
 1242              		.loc 1 825 0
 1243 0092 0BE0     		b	.L76
 1244              	.L71:
 826:/home/rdu/Workspace/project_templates/mcu/stm32_ws/src/libraries/STM32F4xx_StdPeriph_Driver/src/stm32f4xx_can.c ****       /* transmit succeeded  */
 827:/home/rdu/Workspace/project_templates/mcu/stm32_ws/src/libraries/STM32F4xx_StdPeriph_Driver/src/stm32f4xx_can.c ****     case (CAN_TSR_RQCP0 | CAN_TSR_TXOK0 | CAN_TSR_TME0):state = CAN_TxStatus_Ok;
 1245              		.loc 1 827 0
 1246 0094 0123     		movs	r3, #1
 1247 0096 0393     		str	r3, [sp, #12]
 828:/home/rdu/Workspace/project_templates/mcu/stm32_ws/src/libraries/STM32F4xx_StdPeriph_Driver/src/stm32f4xx_can.c ****       break;
 1248              		.loc 1 828 0
 1249 0098 08E0     		b	.L76
 1250              	.L75:
 829:/home/rdu/Workspace/project_templates/mcu/stm32_ws/src/libraries/STM32F4xx_StdPeriph_Driver/src/stm32f4xx_can.c ****     case (CAN_TSR_RQCP1 | CAN_TSR_TXOK1 | CAN_TSR_TME1):state = CAN_TxStatus_Ok;
 1251              		.loc 1 829 0
 1252 009a 0123     		movs	r3, #1
 1253 009c 0393     		str	r3, [sp, #12]
 830:/home/rdu/Workspace/project_templates/mcu/stm32_ws/src/libraries/STM32F4xx_StdPeriph_Driver/src/stm32f4xx_can.c ****       break;
 1254              		.loc 1 830 0
 1255 009e 05E0     		b	.L76
 1256              	.L74:
 831:/home/rdu/Workspace/project_templates/mcu/stm32_ws/src/libraries/STM32F4xx_StdPeriph_Driver/src/stm32f4xx_can.c ****     case (CAN_TSR_RQCP2 | CAN_TSR_TXOK2 | CAN_TSR_TME2):state = CAN_TxStatus_Ok;
 1257              		.loc 1 831 0
 1258 00a0 0123     		movs	r3, #1
 1259 00a2 0393     		str	r3, [sp, #12]
 832:/home/rdu/Workspace/project_templates/mcu/stm32_ws/src/libraries/STM32F4xx_StdPeriph_Driver/src/stm32f4xx_can.c ****       break;
 1260              		.loc 1 832 0
 1261 00a4 02E0     		b	.L76
 1262              	.L67:
 833:/home/rdu/Workspace/project_templates/mcu/stm32_ws/src/libraries/STM32F4xx_StdPeriph_Driver/src/stm32f4xx_can.c ****     default: state = CAN_TxStatus_Failed;
 1263              		.loc 1 833 0
 1264 00a6 0023     		movs	r3, #0
 1265 00a8 0393     		str	r3, [sp, #12]
 834:/home/rdu/Workspace/project_templates/mcu/stm32_ws/src/libraries/STM32F4xx_StdPeriph_Driver/src/stm32f4xx_can.c ****       break;
 1266              		.loc 1 834 0
 1267 00aa 00BF     		nop
 1268              	.L76:
 835:/home/rdu/Workspace/project_templates/mcu/stm32_ws/src/libraries/STM32F4xx_StdPeriph_Driver/src/stm32f4xx_can.c ****   }
 836:/home/rdu/Workspace/project_templates/mcu/stm32_ws/src/libraries/STM32F4xx_StdPeriph_Driver/src/stm32f4xx_can.c ****   return (uint8_t) state;
 1269              		.loc 1 836 0
 1270 00ac 039B     		ldr	r3, [sp, #12]
 1271 00ae DBB2     		uxtb	r3, r3
 837:/home/rdu/Workspace/project_templates/mcu/stm32_ws/src/libraries/STM32F4xx_StdPeriph_Driver/src/stm32f4xx_can.c **** }
 1272              		.loc 1 837 0
 1273 00b0 1846     		mov	r0, r3
 1274 00b2 04B0     		add	sp, sp, #16
 1275              	.LCFI20:
 1276              		.cfi_def_cfa_offset 0
 1277              		@ sp needed
 1278 00b4 7047     		bx	lr
 1279              	.L80:
 1280 00b6 00BF     		.align	2
 1281              	.L79:
 1282 00b8 03000004 		.word	67108867
 1283 00bc 00030008 		.word	134218496
 1284 00c0 00000310 		.word	268632064
 1285 00c4 00010008 		.word	134217984
 1286 00c8 01000004 		.word	67108865
 1287 00cc 00000110 		.word	268500992
 1288              		.cfi_endproc
 1289              	.LFE131:
 1291              		.section	.text.CAN_CancelTransmit,"ax",%progbits
 1292              		.align	1
 1293              		.global	CAN_CancelTransmit
 1294              		.syntax unified
 1295              		.thumb
 1296              		.thumb_func
 1297              		.fpu fpv4-sp-d16
 1299              	CAN_CancelTransmit:
 1300              	.LFB132:
 838:/home/rdu/Workspace/project_templates/mcu/stm32_ws/src/libraries/STM32F4xx_StdPeriph_Driver/src/stm32f4xx_can.c **** 
 839:/home/rdu/Workspace/project_templates/mcu/stm32_ws/src/libraries/STM32F4xx_StdPeriph_Driver/src/stm32f4xx_can.c **** /**
 840:/home/rdu/Workspace/project_templates/mcu/stm32_ws/src/libraries/STM32F4xx_StdPeriph_Driver/src/stm32f4xx_can.c ****   * @brief  Cancels a transmit request.
 841:/home/rdu/Workspace/project_templates/mcu/stm32_ws/src/libraries/STM32F4xx_StdPeriph_Driver/src/stm32f4xx_can.c ****   * @param  CANx: where x can be 1,2 or 3 to select the CAN peripheral.
 842:/home/rdu/Workspace/project_templates/mcu/stm32_ws/src/libraries/STM32F4xx_StdPeriph_Driver/src/stm32f4xx_can.c ****   * @param  Mailbox: Mailbox number.
 843:/home/rdu/Workspace/project_templates/mcu/stm32_ws/src/libraries/STM32F4xx_StdPeriph_Driver/src/stm32f4xx_can.c ****   * @note   CAN3 peripheral is available only for STM32F413_423xx devices
 844:/home/rdu/Workspace/project_templates/mcu/stm32_ws/src/libraries/STM32F4xx_StdPeriph_Driver/src/stm32f4xx_can.c ****   * @retval None
 845:/home/rdu/Workspace/project_templates/mcu/stm32_ws/src/libraries/STM32F4xx_StdPeriph_Driver/src/stm32f4xx_can.c ****   */
 846:/home/rdu/Workspace/project_templates/mcu/stm32_ws/src/libraries/STM32F4xx_StdPeriph_Driver/src/stm32f4xx_can.c **** void CAN_CancelTransmit(CAN_TypeDef* CANx, uint8_t Mailbox)
 847:/home/rdu/Workspace/project_templates/mcu/stm32_ws/src/libraries/STM32F4xx_StdPeriph_Driver/src/stm32f4xx_can.c **** {
 1301              		.loc 1 847 0
 1302              		.cfi_startproc
 1303              		@ args = 0, pretend = 0, frame = 8
 1304              		@ frame_needed = 0, uses_anonymous_args = 0
 1305              		@ link register save eliminated.
 1306 0000 82B0     		sub	sp, sp, #8
 1307              	.LCFI21:
 1308              		.cfi_def_cfa_offset 8
 1309 0002 0190     		str	r0, [sp, #4]
 1310 0004 0B46     		mov	r3, r1
 1311 0006 8DF80330 		strb	r3, [sp, #3]
 848:/home/rdu/Workspace/project_templates/mcu/stm32_ws/src/libraries/STM32F4xx_StdPeriph_Driver/src/stm32f4xx_can.c ****   /* Check the parameters */
 849:/home/rdu/Workspace/project_templates/mcu/stm32_ws/src/libraries/STM32F4xx_StdPeriph_Driver/src/stm32f4xx_can.c ****   assert_param(IS_CAN_ALL_PERIPH(CANx));
 850:/home/rdu/Workspace/project_templates/mcu/stm32_ws/src/libraries/STM32F4xx_StdPeriph_Driver/src/stm32f4xx_can.c ****   assert_param(IS_CAN_TRANSMITMAILBOX(Mailbox));
 851:/home/rdu/Workspace/project_templates/mcu/stm32_ws/src/libraries/STM32F4xx_StdPeriph_Driver/src/stm32f4xx_can.c ****   /* abort transmission */
 852:/home/rdu/Workspace/project_templates/mcu/stm32_ws/src/libraries/STM32F4xx_StdPeriph_Driver/src/stm32f4xx_can.c ****   switch (Mailbox)
 1312              		.loc 1 852 0
 1313 000a 9DF80330 		ldrb	r3, [sp, #3]	@ zero_extendqisi2
 1314 000e 012B     		cmp	r3, #1
 1315 0010 0BD0     		beq	.L83
 1316 0012 022B     		cmp	r3, #2
 1317 0014 10D0     		beq	.L84
 1318 0016 002B     		cmp	r3, #0
 1319 0018 00D0     		beq	.L85
 853:/home/rdu/Workspace/project_templates/mcu/stm32_ws/src/libraries/STM32F4xx_StdPeriph_Driver/src/stm32f4xx_can.c ****   {
 854:/home/rdu/Workspace/project_templates/mcu/stm32_ws/src/libraries/STM32F4xx_StdPeriph_Driver/src/stm32f4xx_can.c ****     case (CAN_TXMAILBOX_0): CANx->TSR |= CAN_TSR_ABRQ0;
 855:/home/rdu/Workspace/project_templates/mcu/stm32_ws/src/libraries/STM32F4xx_StdPeriph_Driver/src/stm32f4xx_can.c ****       break;
 856:/home/rdu/Workspace/project_templates/mcu/stm32_ws/src/libraries/STM32F4xx_StdPeriph_Driver/src/stm32f4xx_can.c ****     case (CAN_TXMAILBOX_1): CANx->TSR |= CAN_TSR_ABRQ1;
 857:/home/rdu/Workspace/project_templates/mcu/stm32_ws/src/libraries/STM32F4xx_StdPeriph_Driver/src/stm32f4xx_can.c ****       break;
 858:/home/rdu/Workspace/project_templates/mcu/stm32_ws/src/libraries/STM32F4xx_StdPeriph_Driver/src/stm32f4xx_can.c ****     case (CAN_TXMAILBOX_2): CANx->TSR |= CAN_TSR_ABRQ2;
 859:/home/rdu/Workspace/project_templates/mcu/stm32_ws/src/libraries/STM32F4xx_StdPeriph_Driver/src/stm32f4xx_can.c ****       break;
 860:/home/rdu/Workspace/project_templates/mcu/stm32_ws/src/libraries/STM32F4xx_StdPeriph_Driver/src/stm32f4xx_can.c ****     default:
 861:/home/rdu/Workspace/project_templates/mcu/stm32_ws/src/libraries/STM32F4xx_StdPeriph_Driver/src/stm32f4xx_can.c ****       break;
 1320              		.loc 1 861 0
 1321 001a 14E0     		b	.L86
 1322              	.L85:
 854:/home/rdu/Workspace/project_templates/mcu/stm32_ws/src/libraries/STM32F4xx_StdPeriph_Driver/src/stm32f4xx_can.c ****       break;
 1323              		.loc 1 854 0
 1324 001c 019B     		ldr	r3, [sp, #4]
 1325 001e 9B68     		ldr	r3, [r3, #8]
 1326 0020 43F08002 		orr	r2, r3, #128
 1327 0024 019B     		ldr	r3, [sp, #4]
 1328 0026 9A60     		str	r2, [r3, #8]
 855:/home/rdu/Workspace/project_templates/mcu/stm32_ws/src/libraries/STM32F4xx_StdPeriph_Driver/src/stm32f4xx_can.c ****     case (CAN_TXMAILBOX_1): CANx->TSR |= CAN_TSR_ABRQ1;
 1329              		.loc 1 855 0
 1330 0028 0DE0     		b	.L86
 1331              	.L83:
 856:/home/rdu/Workspace/project_templates/mcu/stm32_ws/src/libraries/STM32F4xx_StdPeriph_Driver/src/stm32f4xx_can.c ****       break;
 1332              		.loc 1 856 0
 1333 002a 019B     		ldr	r3, [sp, #4]
 1334 002c 9B68     		ldr	r3, [r3, #8]
 1335 002e 43F40042 		orr	r2, r3, #32768
 1336 0032 019B     		ldr	r3, [sp, #4]
 1337 0034 9A60     		str	r2, [r3, #8]
 857:/home/rdu/Workspace/project_templates/mcu/stm32_ws/src/libraries/STM32F4xx_StdPeriph_Driver/src/stm32f4xx_can.c ****     case (CAN_TXMAILBOX_2): CANx->TSR |= CAN_TSR_ABRQ2;
 1338              		.loc 1 857 0
 1339 0036 06E0     		b	.L86
 1340              	.L84:
 858:/home/rdu/Workspace/project_templates/mcu/stm32_ws/src/libraries/STM32F4xx_StdPeriph_Driver/src/stm32f4xx_can.c ****       break;
 1341              		.loc 1 858 0
 1342 0038 019B     		ldr	r3, [sp, #4]
 1343 003a 9B68     		ldr	r3, [r3, #8]
 1344 003c 43F40002 		orr	r2, r3, #8388608
 1345 0040 019B     		ldr	r3, [sp, #4]
 1346 0042 9A60     		str	r2, [r3, #8]
 859:/home/rdu/Workspace/project_templates/mcu/stm32_ws/src/libraries/STM32F4xx_StdPeriph_Driver/src/stm32f4xx_can.c ****     default:
 1347              		.loc 1 859 0
 1348 0044 00BF     		nop
 1349              	.L86:
 862:/home/rdu/Workspace/project_templates/mcu/stm32_ws/src/libraries/STM32F4xx_StdPeriph_Driver/src/stm32f4xx_can.c ****   }
 863:/home/rdu/Workspace/project_templates/mcu/stm32_ws/src/libraries/STM32F4xx_StdPeriph_Driver/src/stm32f4xx_can.c **** }
 1350              		.loc 1 863 0
 1351 0046 00BF     		nop
 1352 0048 02B0     		add	sp, sp, #8
 1353              	.LCFI22:
 1354              		.cfi_def_cfa_offset 0
 1355              		@ sp needed
 1356 004a 7047     		bx	lr
 1357              		.cfi_endproc
 1358              	.LFE132:
 1360              		.section	.text.CAN_Receive,"ax",%progbits
 1361              		.align	1
 1362              		.global	CAN_Receive
 1363              		.syntax unified
 1364              		.thumb
 1365              		.thumb_func
 1366              		.fpu fpv4-sp-d16
 1368              	CAN_Receive:
 1369              	.LFB133:
 864:/home/rdu/Workspace/project_templates/mcu/stm32_ws/src/libraries/STM32F4xx_StdPeriph_Driver/src/stm32f4xx_can.c **** /**
 865:/home/rdu/Workspace/project_templates/mcu/stm32_ws/src/libraries/STM32F4xx_StdPeriph_Driver/src/stm32f4xx_can.c ****   * @}
 866:/home/rdu/Workspace/project_templates/mcu/stm32_ws/src/libraries/STM32F4xx_StdPeriph_Driver/src/stm32f4xx_can.c ****   */
 867:/home/rdu/Workspace/project_templates/mcu/stm32_ws/src/libraries/STM32F4xx_StdPeriph_Driver/src/stm32f4xx_can.c **** 
 868:/home/rdu/Workspace/project_templates/mcu/stm32_ws/src/libraries/STM32F4xx_StdPeriph_Driver/src/stm32f4xx_can.c **** 
 869:/home/rdu/Workspace/project_templates/mcu/stm32_ws/src/libraries/STM32F4xx_StdPeriph_Driver/src/stm32f4xx_can.c **** /** @defgroup CAN_Group3 CAN Frames Reception functions
 870:/home/rdu/Workspace/project_templates/mcu/stm32_ws/src/libraries/STM32F4xx_StdPeriph_Driver/src/stm32f4xx_can.c ****  *  @brief    CAN Frames Reception functions 
 871:/home/rdu/Workspace/project_templates/mcu/stm32_ws/src/libraries/STM32F4xx_StdPeriph_Driver/src/stm32f4xx_can.c ****  *
 872:/home/rdu/Workspace/project_templates/mcu/stm32_ws/src/libraries/STM32F4xx_StdPeriph_Driver/src/stm32f4xx_can.c **** @verbatim    
 873:/home/rdu/Workspace/project_templates/mcu/stm32_ws/src/libraries/STM32F4xx_StdPeriph_Driver/src/stm32f4xx_can.c ****  ===============================================================================
 874:/home/rdu/Workspace/project_templates/mcu/stm32_ws/src/libraries/STM32F4xx_StdPeriph_Driver/src/stm32f4xx_can.c ****                 ##### CAN Frames Reception functions #####
 875:/home/rdu/Workspace/project_templates/mcu/stm32_ws/src/libraries/STM32F4xx_StdPeriph_Driver/src/stm32f4xx_can.c ****  ===============================================================================  
 876:/home/rdu/Workspace/project_templates/mcu/stm32_ws/src/libraries/STM32F4xx_StdPeriph_Driver/src/stm32f4xx_can.c ****     [..] This section provides functions allowing to 
 877:/home/rdu/Workspace/project_templates/mcu/stm32_ws/src/libraries/STM32F4xx_StdPeriph_Driver/src/stm32f4xx_can.c ****       (+) Receive a correct CAN frame
 878:/home/rdu/Workspace/project_templates/mcu/stm32_ws/src/libraries/STM32F4xx_StdPeriph_Driver/src/stm32f4xx_can.c ****       (+) Release a specified receive FIFO (2 FIFOs are available)
 879:/home/rdu/Workspace/project_templates/mcu/stm32_ws/src/libraries/STM32F4xx_StdPeriph_Driver/src/stm32f4xx_can.c ****       (+) Return the number of the pending received CAN frames
 880:/home/rdu/Workspace/project_templates/mcu/stm32_ws/src/libraries/STM32F4xx_StdPeriph_Driver/src/stm32f4xx_can.c ****    
 881:/home/rdu/Workspace/project_templates/mcu/stm32_ws/src/libraries/STM32F4xx_StdPeriph_Driver/src/stm32f4xx_can.c **** @endverbatim
 882:/home/rdu/Workspace/project_templates/mcu/stm32_ws/src/libraries/STM32F4xx_StdPeriph_Driver/src/stm32f4xx_can.c ****   * @{
 883:/home/rdu/Workspace/project_templates/mcu/stm32_ws/src/libraries/STM32F4xx_StdPeriph_Driver/src/stm32f4xx_can.c ****   */
 884:/home/rdu/Workspace/project_templates/mcu/stm32_ws/src/libraries/STM32F4xx_StdPeriph_Driver/src/stm32f4xx_can.c **** 
 885:/home/rdu/Workspace/project_templates/mcu/stm32_ws/src/libraries/STM32F4xx_StdPeriph_Driver/src/stm32f4xx_can.c **** /**
 886:/home/rdu/Workspace/project_templates/mcu/stm32_ws/src/libraries/STM32F4xx_StdPeriph_Driver/src/stm32f4xx_can.c ****   * @brief  Receives a correct CAN frame.
 887:/home/rdu/Workspace/project_templates/mcu/stm32_ws/src/libraries/STM32F4xx_StdPeriph_Driver/src/stm32f4xx_can.c ****   * @param  CANx: where x can be 1,2 or 3 to select the CAN peripheral.
 888:/home/rdu/Workspace/project_templates/mcu/stm32_ws/src/libraries/STM32F4xx_StdPeriph_Driver/src/stm32f4xx_can.c ****   * @param  FIFONumber: Receive FIFO number, CAN_FIFO0 or CAN_FIFO1.
 889:/home/rdu/Workspace/project_templates/mcu/stm32_ws/src/libraries/STM32F4xx_StdPeriph_Driver/src/stm32f4xx_can.c ****   * @param  RxMessage: pointer to a structure receive frame which contains CAN Id,
 890:/home/rdu/Workspace/project_templates/mcu/stm32_ws/src/libraries/STM32F4xx_StdPeriph_Driver/src/stm32f4xx_can.c ****   *         CAN DLC, CAN data and FMI number.
 891:/home/rdu/Workspace/project_templates/mcu/stm32_ws/src/libraries/STM32F4xx_StdPeriph_Driver/src/stm32f4xx_can.c ****   * @note   CAN3 peripheral is available only for STM32F413_423xx devices
 892:/home/rdu/Workspace/project_templates/mcu/stm32_ws/src/libraries/STM32F4xx_StdPeriph_Driver/src/stm32f4xx_can.c ****   * @retval None
 893:/home/rdu/Workspace/project_templates/mcu/stm32_ws/src/libraries/STM32F4xx_StdPeriph_Driver/src/stm32f4xx_can.c ****   */
 894:/home/rdu/Workspace/project_templates/mcu/stm32_ws/src/libraries/STM32F4xx_StdPeriph_Driver/src/stm32f4xx_can.c **** void CAN_Receive(CAN_TypeDef* CANx, uint8_t FIFONumber, CanRxMsg* RxMessage)
 895:/home/rdu/Workspace/project_templates/mcu/stm32_ws/src/libraries/STM32F4xx_StdPeriph_Driver/src/stm32f4xx_can.c **** {
 1370              		.loc 1 895 0
 1371              		.cfi_startproc
 1372              		@ args = 0, pretend = 0, frame = 16
 1373              		@ frame_needed = 0, uses_anonymous_args = 0
 1374              		@ link register save eliminated.
 1375 0000 84B0     		sub	sp, sp, #16
 1376              	.LCFI23:
 1377              		.cfi_def_cfa_offset 16
 1378 0002 0390     		str	r0, [sp, #12]
 1379 0004 0B46     		mov	r3, r1
 1380 0006 0192     		str	r2, [sp, #4]
 1381 0008 8DF80B30 		strb	r3, [sp, #11]
 896:/home/rdu/Workspace/project_templates/mcu/stm32_ws/src/libraries/STM32F4xx_StdPeriph_Driver/src/stm32f4xx_can.c ****   /* Check the parameters */
 897:/home/rdu/Workspace/project_templates/mcu/stm32_ws/src/libraries/STM32F4xx_StdPeriph_Driver/src/stm32f4xx_can.c ****   assert_param(IS_CAN_ALL_PERIPH(CANx));
 898:/home/rdu/Workspace/project_templates/mcu/stm32_ws/src/libraries/STM32F4xx_StdPeriph_Driver/src/stm32f4xx_can.c ****   assert_param(IS_CAN_FIFO(FIFONumber));
 899:/home/rdu/Workspace/project_templates/mcu/stm32_ws/src/libraries/STM32F4xx_StdPeriph_Driver/src/stm32f4xx_can.c ****   /* Get the Id */
 900:/home/rdu/Workspace/project_templates/mcu/stm32_ws/src/libraries/STM32F4xx_StdPeriph_Driver/src/stm32f4xx_can.c ****   RxMessage->IDE = (uint8_t)0x04 & CANx->sFIFOMailBox[FIFONumber].RIR;
 1382              		.loc 1 900 0
 1383 000c 9DF80B30 		ldrb	r3, [sp, #11]	@ zero_extendqisi2
 1384 0010 039A     		ldr	r2, [sp, #12]
 1385 0012 1B33     		adds	r3, r3, #27
 1386 0014 1B01     		lsls	r3, r3, #4
 1387 0016 1344     		add	r3, r3, r2
 1388 0018 1B68     		ldr	r3, [r3]
 1389 001a DBB2     		uxtb	r3, r3
 1390 001c 03F00403 		and	r3, r3, #4
 1391 0020 DAB2     		uxtb	r2, r3
 1392 0022 019B     		ldr	r3, [sp, #4]
 1393 0024 1A72     		strb	r2, [r3, #8]
 901:/home/rdu/Workspace/project_templates/mcu/stm32_ws/src/libraries/STM32F4xx_StdPeriph_Driver/src/stm32f4xx_can.c ****   if (RxMessage->IDE == CAN_Id_Standard)
 1394              		.loc 1 901 0
 1395 0026 019B     		ldr	r3, [sp, #4]
 1396 0028 1B7A     		ldrb	r3, [r3, #8]	@ zero_extendqisi2
 1397 002a 002B     		cmp	r3, #0
 1398 002c 0CD1     		bne	.L88
 902:/home/rdu/Workspace/project_templates/mcu/stm32_ws/src/libraries/STM32F4xx_StdPeriph_Driver/src/stm32f4xx_can.c ****   {
 903:/home/rdu/Workspace/project_templates/mcu/stm32_ws/src/libraries/STM32F4xx_StdPeriph_Driver/src/stm32f4xx_can.c ****     RxMessage->StdId = (uint32_t)0x000007FF & (CANx->sFIFOMailBox[FIFONumber].RIR >> 21);
 1399              		.loc 1 903 0
 1400 002e 9DF80B30 		ldrb	r3, [sp, #11]	@ zero_extendqisi2
 1401 0032 039A     		ldr	r2, [sp, #12]
 1402 0034 1B33     		adds	r3, r3, #27
 1403 0036 1B01     		lsls	r3, r3, #4
 1404 0038 1344     		add	r3, r3, r2
 1405 003a 1B68     		ldr	r3, [r3]
 1406 003c 5B0D     		lsrs	r3, r3, #21
 1407 003e C3F30A02 		ubfx	r2, r3, #0, #11
 1408 0042 019B     		ldr	r3, [sp, #4]
 1409 0044 1A60     		str	r2, [r3]
 1410 0046 0BE0     		b	.L89
 1411              	.L88:
 904:/home/rdu/Workspace/project_templates/mcu/stm32_ws/src/libraries/STM32F4xx_StdPeriph_Driver/src/stm32f4xx_can.c ****   }
 905:/home/rdu/Workspace/project_templates/mcu/stm32_ws/src/libraries/STM32F4xx_StdPeriph_Driver/src/stm32f4xx_can.c ****   else
 906:/home/rdu/Workspace/project_templates/mcu/stm32_ws/src/libraries/STM32F4xx_StdPeriph_Driver/src/stm32f4xx_can.c ****   {
 907:/home/rdu/Workspace/project_templates/mcu/stm32_ws/src/libraries/STM32F4xx_StdPeriph_Driver/src/stm32f4xx_can.c ****     RxMessage->ExtId = (uint32_t)0x1FFFFFFF & (CANx->sFIFOMailBox[FIFONumber].RIR >> 3);
 1412              		.loc 1 907 0
 1413 0048 9DF80B30 		ldrb	r3, [sp, #11]	@ zero_extendqisi2
 1414 004c 039A     		ldr	r2, [sp, #12]
 1415 004e 1B33     		adds	r3, r3, #27
 1416 0050 1B01     		lsls	r3, r3, #4
 1417 0052 1344     		add	r3, r3, r2
 1418 0054 1B68     		ldr	r3, [r3]
 1419 0056 DB08     		lsrs	r3, r3, #3
 1420 0058 23F06042 		bic	r2, r3, #-536870912
 1421 005c 019B     		ldr	r3, [sp, #4]
 1422 005e 5A60     		str	r2, [r3, #4]
 1423              	.L89:
 908:/home/rdu/Workspace/project_templates/mcu/stm32_ws/src/libraries/STM32F4xx_StdPeriph_Driver/src/stm32f4xx_can.c ****   }
 909:/home/rdu/Workspace/project_templates/mcu/stm32_ws/src/libraries/STM32F4xx_StdPeriph_Driver/src/stm32f4xx_can.c ****   
 910:/home/rdu/Workspace/project_templates/mcu/stm32_ws/src/libraries/STM32F4xx_StdPeriph_Driver/src/stm32f4xx_can.c ****   RxMessage->RTR = (uint8_t)0x02 & CANx->sFIFOMailBox[FIFONumber].RIR;
 1424              		.loc 1 910 0
 1425 0060 9DF80B30 		ldrb	r3, [sp, #11]	@ zero_extendqisi2
 1426 0064 039A     		ldr	r2, [sp, #12]
 1427 0066 1B33     		adds	r3, r3, #27
 1428 0068 1B01     		lsls	r3, r3, #4
 1429 006a 1344     		add	r3, r3, r2
 1430 006c 1B68     		ldr	r3, [r3]
 1431 006e DBB2     		uxtb	r3, r3
 1432 0070 03F00203 		and	r3, r3, #2
 1433 0074 DAB2     		uxtb	r2, r3
 1434 0076 019B     		ldr	r3, [sp, #4]
 1435 0078 5A72     		strb	r2, [r3, #9]
 911:/home/rdu/Workspace/project_templates/mcu/stm32_ws/src/libraries/STM32F4xx_StdPeriph_Driver/src/stm32f4xx_can.c ****   /* Get the DLC */
 912:/home/rdu/Workspace/project_templates/mcu/stm32_ws/src/libraries/STM32F4xx_StdPeriph_Driver/src/stm32f4xx_can.c ****   RxMessage->DLC = (uint8_t)0x0F & CANx->sFIFOMailBox[FIFONumber].RDTR;
 1436              		.loc 1 912 0
 1437 007a 9DF80B30 		ldrb	r3, [sp, #11]	@ zero_extendqisi2
 1438 007e 039A     		ldr	r2, [sp, #12]
 1439 0080 1B33     		adds	r3, r3, #27
 1440 0082 1B01     		lsls	r3, r3, #4
 1441 0084 1344     		add	r3, r3, r2
 1442 0086 0433     		adds	r3, r3, #4
 1443 0088 1B68     		ldr	r3, [r3]
 1444 008a DBB2     		uxtb	r3, r3
 1445 008c 03F00F03 		and	r3, r3, #15
 1446 0090 DAB2     		uxtb	r2, r3
 1447 0092 019B     		ldr	r3, [sp, #4]
 1448 0094 9A72     		strb	r2, [r3, #10]
 913:/home/rdu/Workspace/project_templates/mcu/stm32_ws/src/libraries/STM32F4xx_StdPeriph_Driver/src/stm32f4xx_can.c ****   /* Get the FMI */
 914:/home/rdu/Workspace/project_templates/mcu/stm32_ws/src/libraries/STM32F4xx_StdPeriph_Driver/src/stm32f4xx_can.c ****   RxMessage->FMI = (uint8_t)0xFF & (CANx->sFIFOMailBox[FIFONumber].RDTR >> 8);
 1449              		.loc 1 914 0
 1450 0096 9DF80B30 		ldrb	r3, [sp, #11]	@ zero_extendqisi2
 1451 009a 039A     		ldr	r2, [sp, #12]
 1452 009c 1B33     		adds	r3, r3, #27
 1453 009e 1B01     		lsls	r3, r3, #4
 1454 00a0 1344     		add	r3, r3, r2
 1455 00a2 0433     		adds	r3, r3, #4
 1456 00a4 1B68     		ldr	r3, [r3]
 1457 00a6 1B0A     		lsrs	r3, r3, #8
 1458 00a8 DAB2     		uxtb	r2, r3
 1459 00aa 019B     		ldr	r3, [sp, #4]
 1460 00ac DA74     		strb	r2, [r3, #19]
 915:/home/rdu/Workspace/project_templates/mcu/stm32_ws/src/libraries/STM32F4xx_StdPeriph_Driver/src/stm32f4xx_can.c ****   /* Get the data field */
 916:/home/rdu/Workspace/project_templates/mcu/stm32_ws/src/libraries/STM32F4xx_StdPeriph_Driver/src/stm32f4xx_can.c ****   RxMessage->Data[0] = (uint8_t)0xFF & CANx->sFIFOMailBox[FIFONumber].RDLR;
 1461              		.loc 1 916 0
 1462 00ae 9DF80B30 		ldrb	r3, [sp, #11]	@ zero_extendqisi2
 1463 00b2 039A     		ldr	r2, [sp, #12]
 1464 00b4 1B01     		lsls	r3, r3, #4
 1465 00b6 1344     		add	r3, r3, r2
 1466 00b8 03F5DC73 		add	r3, r3, #440
 1467 00bc 1B68     		ldr	r3, [r3]
 1468 00be DAB2     		uxtb	r2, r3
 1469 00c0 019B     		ldr	r3, [sp, #4]
 1470 00c2 DA72     		strb	r2, [r3, #11]
 917:/home/rdu/Workspace/project_templates/mcu/stm32_ws/src/libraries/STM32F4xx_StdPeriph_Driver/src/stm32f4xx_can.c ****   RxMessage->Data[1] = (uint8_t)0xFF & (CANx->sFIFOMailBox[FIFONumber].RDLR >> 8);
 1471              		.loc 1 917 0
 1472 00c4 9DF80B30 		ldrb	r3, [sp, #11]	@ zero_extendqisi2
 1473 00c8 039A     		ldr	r2, [sp, #12]
 1474 00ca 1B01     		lsls	r3, r3, #4
 1475 00cc 1344     		add	r3, r3, r2
 1476 00ce 03F5DC73 		add	r3, r3, #440
 1477 00d2 1B68     		ldr	r3, [r3]
 1478 00d4 1B0A     		lsrs	r3, r3, #8
 1479 00d6 DAB2     		uxtb	r2, r3
 1480 00d8 019B     		ldr	r3, [sp, #4]
 1481 00da 1A73     		strb	r2, [r3, #12]
 918:/home/rdu/Workspace/project_templates/mcu/stm32_ws/src/libraries/STM32F4xx_StdPeriph_Driver/src/stm32f4xx_can.c ****   RxMessage->Data[2] = (uint8_t)0xFF & (CANx->sFIFOMailBox[FIFONumber].RDLR >> 16);
 1482              		.loc 1 918 0
 1483 00dc 9DF80B30 		ldrb	r3, [sp, #11]	@ zero_extendqisi2
 1484 00e0 039A     		ldr	r2, [sp, #12]
 1485 00e2 1B01     		lsls	r3, r3, #4
 1486 00e4 1344     		add	r3, r3, r2
 1487 00e6 03F5DC73 		add	r3, r3, #440
 1488 00ea 1B68     		ldr	r3, [r3]
 1489 00ec 1B0C     		lsrs	r3, r3, #16
 1490 00ee DAB2     		uxtb	r2, r3
 1491 00f0 019B     		ldr	r3, [sp, #4]
 1492 00f2 5A73     		strb	r2, [r3, #13]
 919:/home/rdu/Workspace/project_templates/mcu/stm32_ws/src/libraries/STM32F4xx_StdPeriph_Driver/src/stm32f4xx_can.c ****   RxMessage->Data[3] = (uint8_t)0xFF & (CANx->sFIFOMailBox[FIFONumber].RDLR >> 24);
 1493              		.loc 1 919 0
 1494 00f4 9DF80B30 		ldrb	r3, [sp, #11]	@ zero_extendqisi2
 1495 00f8 039A     		ldr	r2, [sp, #12]
 1496 00fa 1B01     		lsls	r3, r3, #4
 1497 00fc 1344     		add	r3, r3, r2
 1498 00fe 03F5DC73 		add	r3, r3, #440
 1499 0102 1B68     		ldr	r3, [r3]
 1500 0104 1B0E     		lsrs	r3, r3, #24
 1501 0106 DAB2     		uxtb	r2, r3
 1502 0108 019B     		ldr	r3, [sp, #4]
 1503 010a 9A73     		strb	r2, [r3, #14]
 920:/home/rdu/Workspace/project_templates/mcu/stm32_ws/src/libraries/STM32F4xx_StdPeriph_Driver/src/stm32f4xx_can.c ****   RxMessage->Data[4] = (uint8_t)0xFF & CANx->sFIFOMailBox[FIFONumber].RDHR;
 1504              		.loc 1 920 0
 1505 010c 9DF80B30 		ldrb	r3, [sp, #11]	@ zero_extendqisi2
 1506 0110 039A     		ldr	r2, [sp, #12]
 1507 0112 1B01     		lsls	r3, r3, #4
 1508 0114 1344     		add	r3, r3, r2
 1509 0116 03F5DE73 		add	r3, r3, #444
 1510 011a 1B68     		ldr	r3, [r3]
 1511 011c DAB2     		uxtb	r2, r3
 1512 011e 019B     		ldr	r3, [sp, #4]
 1513 0120 DA73     		strb	r2, [r3, #15]
 921:/home/rdu/Workspace/project_templates/mcu/stm32_ws/src/libraries/STM32F4xx_StdPeriph_Driver/src/stm32f4xx_can.c ****   RxMessage->Data[5] = (uint8_t)0xFF & (CANx->sFIFOMailBox[FIFONumber].RDHR >> 8);
 1514              		.loc 1 921 0
 1515 0122 9DF80B30 		ldrb	r3, [sp, #11]	@ zero_extendqisi2
 1516 0126 039A     		ldr	r2, [sp, #12]
 1517 0128 1B01     		lsls	r3, r3, #4
 1518 012a 1344     		add	r3, r3, r2
 1519 012c 03F5DE73 		add	r3, r3, #444
 1520 0130 1B68     		ldr	r3, [r3]
 1521 0132 1B0A     		lsrs	r3, r3, #8
 1522 0134 DAB2     		uxtb	r2, r3
 1523 0136 019B     		ldr	r3, [sp, #4]
 1524 0138 1A74     		strb	r2, [r3, #16]
 922:/home/rdu/Workspace/project_templates/mcu/stm32_ws/src/libraries/STM32F4xx_StdPeriph_Driver/src/stm32f4xx_can.c ****   RxMessage->Data[6] = (uint8_t)0xFF & (CANx->sFIFOMailBox[FIFONumber].RDHR >> 16);
 1525              		.loc 1 922 0
 1526 013a 9DF80B30 		ldrb	r3, [sp, #11]	@ zero_extendqisi2
 1527 013e 039A     		ldr	r2, [sp, #12]
 1528 0140 1B01     		lsls	r3, r3, #4
 1529 0142 1344     		add	r3, r3, r2
 1530 0144 03F5DE73 		add	r3, r3, #444
 1531 0148 1B68     		ldr	r3, [r3]
 1532 014a 1B0C     		lsrs	r3, r3, #16
 1533 014c DAB2     		uxtb	r2, r3
 1534 014e 019B     		ldr	r3, [sp, #4]
 1535 0150 5A74     		strb	r2, [r3, #17]
 923:/home/rdu/Workspace/project_templates/mcu/stm32_ws/src/libraries/STM32F4xx_StdPeriph_Driver/src/stm32f4xx_can.c ****   RxMessage->Data[7] = (uint8_t)0xFF & (CANx->sFIFOMailBox[FIFONumber].RDHR >> 24);
 1536              		.loc 1 923 0
 1537 0152 9DF80B30 		ldrb	r3, [sp, #11]	@ zero_extendqisi2
 1538 0156 039A     		ldr	r2, [sp, #12]
 1539 0158 1B01     		lsls	r3, r3, #4
 1540 015a 1344     		add	r3, r3, r2
 1541 015c 03F5DE73 		add	r3, r3, #444
 1542 0160 1B68     		ldr	r3, [r3]
 1543 0162 1B0E     		lsrs	r3, r3, #24
 1544 0164 DAB2     		uxtb	r2, r3
 1545 0166 019B     		ldr	r3, [sp, #4]
 1546 0168 9A74     		strb	r2, [r3, #18]
 924:/home/rdu/Workspace/project_templates/mcu/stm32_ws/src/libraries/STM32F4xx_StdPeriph_Driver/src/stm32f4xx_can.c ****   /* Release the FIFO */
 925:/home/rdu/Workspace/project_templates/mcu/stm32_ws/src/libraries/STM32F4xx_StdPeriph_Driver/src/stm32f4xx_can.c ****   /* Release FIFO0 */
 926:/home/rdu/Workspace/project_templates/mcu/stm32_ws/src/libraries/STM32F4xx_StdPeriph_Driver/src/stm32f4xx_can.c ****   if (FIFONumber == CAN_FIFO0)
 1547              		.loc 1 926 0
 1548 016a 9DF80B30 		ldrb	r3, [sp, #11]	@ zero_extendqisi2
 1549 016e 002B     		cmp	r3, #0
 1550 0170 06D1     		bne	.L90
 927:/home/rdu/Workspace/project_templates/mcu/stm32_ws/src/libraries/STM32F4xx_StdPeriph_Driver/src/stm32f4xx_can.c ****   {
 928:/home/rdu/Workspace/project_templates/mcu/stm32_ws/src/libraries/STM32F4xx_StdPeriph_Driver/src/stm32f4xx_can.c ****     CANx->RF0R |= CAN_RF0R_RFOM0;
 1551              		.loc 1 928 0
 1552 0172 039B     		ldr	r3, [sp, #12]
 1553 0174 DB68     		ldr	r3, [r3, #12]
 1554 0176 43F02002 		orr	r2, r3, #32
 1555 017a 039B     		ldr	r3, [sp, #12]
 1556 017c DA60     		str	r2, [r3, #12]
 929:/home/rdu/Workspace/project_templates/mcu/stm32_ws/src/libraries/STM32F4xx_StdPeriph_Driver/src/stm32f4xx_can.c ****   }
 930:/home/rdu/Workspace/project_templates/mcu/stm32_ws/src/libraries/STM32F4xx_StdPeriph_Driver/src/stm32f4xx_can.c ****   /* Release FIFO1 */
 931:/home/rdu/Workspace/project_templates/mcu/stm32_ws/src/libraries/STM32F4xx_StdPeriph_Driver/src/stm32f4xx_can.c ****   else /* FIFONumber == CAN_FIFO1 */
 932:/home/rdu/Workspace/project_templates/mcu/stm32_ws/src/libraries/STM32F4xx_StdPeriph_Driver/src/stm32f4xx_can.c ****   {
 933:/home/rdu/Workspace/project_templates/mcu/stm32_ws/src/libraries/STM32F4xx_StdPeriph_Driver/src/stm32f4xx_can.c ****     CANx->RF1R |= CAN_RF1R_RFOM1;
 934:/home/rdu/Workspace/project_templates/mcu/stm32_ws/src/libraries/STM32F4xx_StdPeriph_Driver/src/stm32f4xx_can.c ****   }
 935:/home/rdu/Workspace/project_templates/mcu/stm32_ws/src/libraries/STM32F4xx_StdPeriph_Driver/src/stm32f4xx_can.c **** }
 1557              		.loc 1 935 0
 1558 017e 05E0     		b	.L92
 1559              	.L90:
 933:/home/rdu/Workspace/project_templates/mcu/stm32_ws/src/libraries/STM32F4xx_StdPeriph_Driver/src/stm32f4xx_can.c ****   }
 1560              		.loc 1 933 0
 1561 0180 039B     		ldr	r3, [sp, #12]
 1562 0182 1B69     		ldr	r3, [r3, #16]
 1563 0184 43F02002 		orr	r2, r3, #32
 1564 0188 039B     		ldr	r3, [sp, #12]
 1565 018a 1A61     		str	r2, [r3, #16]
 1566              	.L92:
 1567              		.loc 1 935 0
 1568 018c 00BF     		nop
 1569 018e 04B0     		add	sp, sp, #16
 1570              	.LCFI24:
 1571              		.cfi_def_cfa_offset 0
 1572              		@ sp needed
 1573 0190 7047     		bx	lr
 1574              		.cfi_endproc
 1575              	.LFE133:
 1577              		.section	.text.CAN_FIFORelease,"ax",%progbits
 1578              		.align	1
 1579              		.global	CAN_FIFORelease
 1580              		.syntax unified
 1581              		.thumb
 1582              		.thumb_func
 1583              		.fpu fpv4-sp-d16
 1585              	CAN_FIFORelease:
 1586              	.LFB134:
 936:/home/rdu/Workspace/project_templates/mcu/stm32_ws/src/libraries/STM32F4xx_StdPeriph_Driver/src/stm32f4xx_can.c **** 
 937:/home/rdu/Workspace/project_templates/mcu/stm32_ws/src/libraries/STM32F4xx_StdPeriph_Driver/src/stm32f4xx_can.c **** /**
 938:/home/rdu/Workspace/project_templates/mcu/stm32_ws/src/libraries/STM32F4xx_StdPeriph_Driver/src/stm32f4xx_can.c ****   * @brief  Releases the specified receive FIFO.
 939:/home/rdu/Workspace/project_templates/mcu/stm32_ws/src/libraries/STM32F4xx_StdPeriph_Driver/src/stm32f4xx_can.c ****   * @param  CANx: where x can be 1,2 or 3 to select the CAN peripheral.
 940:/home/rdu/Workspace/project_templates/mcu/stm32_ws/src/libraries/STM32F4xx_StdPeriph_Driver/src/stm32f4xx_can.c ****   * @param  FIFONumber: FIFO to release, CAN_FIFO0 or CAN_FIFO1.
 941:/home/rdu/Workspace/project_templates/mcu/stm32_ws/src/libraries/STM32F4xx_StdPeriph_Driver/src/stm32f4xx_can.c ****   * @note   CAN3 peripheral is available only for STM32F413_423xx devices
 942:/home/rdu/Workspace/project_templates/mcu/stm32_ws/src/libraries/STM32F4xx_StdPeriph_Driver/src/stm32f4xx_can.c ****   * @retval None
 943:/home/rdu/Workspace/project_templates/mcu/stm32_ws/src/libraries/STM32F4xx_StdPeriph_Driver/src/stm32f4xx_can.c ****   */
 944:/home/rdu/Workspace/project_templates/mcu/stm32_ws/src/libraries/STM32F4xx_StdPeriph_Driver/src/stm32f4xx_can.c **** void CAN_FIFORelease(CAN_TypeDef* CANx, uint8_t FIFONumber)
 945:/home/rdu/Workspace/project_templates/mcu/stm32_ws/src/libraries/STM32F4xx_StdPeriph_Driver/src/stm32f4xx_can.c **** {
 1587              		.loc 1 945 0
 1588              		.cfi_startproc
 1589              		@ args = 0, pretend = 0, frame = 8
 1590              		@ frame_needed = 0, uses_anonymous_args = 0
 1591              		@ link register save eliminated.
 1592 0000 82B0     		sub	sp, sp, #8
 1593              	.LCFI25:
 1594              		.cfi_def_cfa_offset 8
 1595 0002 0190     		str	r0, [sp, #4]
 1596 0004 0B46     		mov	r3, r1
 1597 0006 8DF80330 		strb	r3, [sp, #3]
 946:/home/rdu/Workspace/project_templates/mcu/stm32_ws/src/libraries/STM32F4xx_StdPeriph_Driver/src/stm32f4xx_can.c ****   /* Check the parameters */
 947:/home/rdu/Workspace/project_templates/mcu/stm32_ws/src/libraries/STM32F4xx_StdPeriph_Driver/src/stm32f4xx_can.c ****   assert_param(IS_CAN_ALL_PERIPH(CANx));
 948:/home/rdu/Workspace/project_templates/mcu/stm32_ws/src/libraries/STM32F4xx_StdPeriph_Driver/src/stm32f4xx_can.c ****   assert_param(IS_CAN_FIFO(FIFONumber));
 949:/home/rdu/Workspace/project_templates/mcu/stm32_ws/src/libraries/STM32F4xx_StdPeriph_Driver/src/stm32f4xx_can.c ****   /* Release FIFO0 */
 950:/home/rdu/Workspace/project_templates/mcu/stm32_ws/src/libraries/STM32F4xx_StdPeriph_Driver/src/stm32f4xx_can.c ****   if (FIFONumber == CAN_FIFO0)
 1598              		.loc 1 950 0
 1599 000a 9DF80330 		ldrb	r3, [sp, #3]	@ zero_extendqisi2
 1600 000e 002B     		cmp	r3, #0
 1601 0010 06D1     		bne	.L94
 951:/home/rdu/Workspace/project_templates/mcu/stm32_ws/src/libraries/STM32F4xx_StdPeriph_Driver/src/stm32f4xx_can.c ****   {
 952:/home/rdu/Workspace/project_templates/mcu/stm32_ws/src/libraries/STM32F4xx_StdPeriph_Driver/src/stm32f4xx_can.c ****     CANx->RF0R |= CAN_RF0R_RFOM0;
 1602              		.loc 1 952 0
 1603 0012 019B     		ldr	r3, [sp, #4]
 1604 0014 DB68     		ldr	r3, [r3, #12]
 1605 0016 43F02002 		orr	r2, r3, #32
 1606 001a 019B     		ldr	r3, [sp, #4]
 1607 001c DA60     		str	r2, [r3, #12]
 953:/home/rdu/Workspace/project_templates/mcu/stm32_ws/src/libraries/STM32F4xx_StdPeriph_Driver/src/stm32f4xx_can.c ****   }
 954:/home/rdu/Workspace/project_templates/mcu/stm32_ws/src/libraries/STM32F4xx_StdPeriph_Driver/src/stm32f4xx_can.c ****   /* Release FIFO1 */
 955:/home/rdu/Workspace/project_templates/mcu/stm32_ws/src/libraries/STM32F4xx_StdPeriph_Driver/src/stm32f4xx_can.c ****   else /* FIFONumber == CAN_FIFO1 */
 956:/home/rdu/Workspace/project_templates/mcu/stm32_ws/src/libraries/STM32F4xx_StdPeriph_Driver/src/stm32f4xx_can.c ****   {
 957:/home/rdu/Workspace/project_templates/mcu/stm32_ws/src/libraries/STM32F4xx_StdPeriph_Driver/src/stm32f4xx_can.c ****     CANx->RF1R |= CAN_RF1R_RFOM1;
 958:/home/rdu/Workspace/project_templates/mcu/stm32_ws/src/libraries/STM32F4xx_StdPeriph_Driver/src/stm32f4xx_can.c ****   }
 959:/home/rdu/Workspace/project_templates/mcu/stm32_ws/src/libraries/STM32F4xx_StdPeriph_Driver/src/stm32f4xx_can.c **** }
 1608              		.loc 1 959 0
 1609 001e 05E0     		b	.L96
 1610              	.L94:
 957:/home/rdu/Workspace/project_templates/mcu/stm32_ws/src/libraries/STM32F4xx_StdPeriph_Driver/src/stm32f4xx_can.c ****   }
 1611              		.loc 1 957 0
 1612 0020 019B     		ldr	r3, [sp, #4]
 1613 0022 1B69     		ldr	r3, [r3, #16]
 1614 0024 43F02002 		orr	r2, r3, #32
 1615 0028 019B     		ldr	r3, [sp, #4]
 1616 002a 1A61     		str	r2, [r3, #16]
 1617              	.L96:
 1618              		.loc 1 959 0
 1619 002c 00BF     		nop
 1620 002e 02B0     		add	sp, sp, #8
 1621              	.LCFI26:
 1622              		.cfi_def_cfa_offset 0
 1623              		@ sp needed
 1624 0030 7047     		bx	lr
 1625              		.cfi_endproc
 1626              	.LFE134:
 1628              		.section	.text.CAN_MessagePending,"ax",%progbits
 1629              		.align	1
 1630              		.global	CAN_MessagePending
 1631              		.syntax unified
 1632              		.thumb
 1633              		.thumb_func
 1634              		.fpu fpv4-sp-d16
 1636              	CAN_MessagePending:
 1637              	.LFB135:
 960:/home/rdu/Workspace/project_templates/mcu/stm32_ws/src/libraries/STM32F4xx_StdPeriph_Driver/src/stm32f4xx_can.c **** 
 961:/home/rdu/Workspace/project_templates/mcu/stm32_ws/src/libraries/STM32F4xx_StdPeriph_Driver/src/stm32f4xx_can.c **** /**
 962:/home/rdu/Workspace/project_templates/mcu/stm32_ws/src/libraries/STM32F4xx_StdPeriph_Driver/src/stm32f4xx_can.c ****   * @brief  Returns the number of pending received messages.
 963:/home/rdu/Workspace/project_templates/mcu/stm32_ws/src/libraries/STM32F4xx_StdPeriph_Driver/src/stm32f4xx_can.c ****   * @param  CANx: where x can be 1,2 or 3 to select the CAN peripheral.
 964:/home/rdu/Workspace/project_templates/mcu/stm32_ws/src/libraries/STM32F4xx_StdPeriph_Driver/src/stm32f4xx_can.c ****   * @param  FIFONumber: Receive FIFO number, CAN_FIFO0 or CAN_FIFO1.
 965:/home/rdu/Workspace/project_templates/mcu/stm32_ws/src/libraries/STM32F4xx_StdPeriph_Driver/src/stm32f4xx_can.c ****   * @note   CAN3 peripheral is available only for STM32F413_423xx devices
 966:/home/rdu/Workspace/project_templates/mcu/stm32_ws/src/libraries/STM32F4xx_StdPeriph_Driver/src/stm32f4xx_can.c ****   * @retval NbMessage : which is the number of pending message.
 967:/home/rdu/Workspace/project_templates/mcu/stm32_ws/src/libraries/STM32F4xx_StdPeriph_Driver/src/stm32f4xx_can.c ****   */
 968:/home/rdu/Workspace/project_templates/mcu/stm32_ws/src/libraries/STM32F4xx_StdPeriph_Driver/src/stm32f4xx_can.c **** uint8_t CAN_MessagePending(CAN_TypeDef* CANx, uint8_t FIFONumber)
 969:/home/rdu/Workspace/project_templates/mcu/stm32_ws/src/libraries/STM32F4xx_StdPeriph_Driver/src/stm32f4xx_can.c **** {
 1638              		.loc 1 969 0
 1639              		.cfi_startproc
 1640              		@ args = 0, pretend = 0, frame = 16
 1641              		@ frame_needed = 0, uses_anonymous_args = 0
 1642              		@ link register save eliminated.
 1643 0000 84B0     		sub	sp, sp, #16
 1644              	.LCFI27:
 1645              		.cfi_def_cfa_offset 16
 1646 0002 0190     		str	r0, [sp, #4]
 1647 0004 0B46     		mov	r3, r1
 1648 0006 8DF80330 		strb	r3, [sp, #3]
 970:/home/rdu/Workspace/project_templates/mcu/stm32_ws/src/libraries/STM32F4xx_StdPeriph_Driver/src/stm32f4xx_can.c ****   uint8_t message_pending=0;
 1649              		.loc 1 970 0
 1650 000a 0023     		movs	r3, #0
 1651 000c 8DF80F30 		strb	r3, [sp, #15]
 971:/home/rdu/Workspace/project_templates/mcu/stm32_ws/src/libraries/STM32F4xx_StdPeriph_Driver/src/stm32f4xx_can.c ****   /* Check the parameters */
 972:/home/rdu/Workspace/project_templates/mcu/stm32_ws/src/libraries/STM32F4xx_StdPeriph_Driver/src/stm32f4xx_can.c ****   assert_param(IS_CAN_ALL_PERIPH(CANx));
 973:/home/rdu/Workspace/project_templates/mcu/stm32_ws/src/libraries/STM32F4xx_StdPeriph_Driver/src/stm32f4xx_can.c ****   assert_param(IS_CAN_FIFO(FIFONumber));
 974:/home/rdu/Workspace/project_templates/mcu/stm32_ws/src/libraries/STM32F4xx_StdPeriph_Driver/src/stm32f4xx_can.c ****   if (FIFONumber == CAN_FIFO0)
 1652              		.loc 1 974 0
 1653 0010 9DF80330 		ldrb	r3, [sp, #3]	@ zero_extendqisi2
 1654 0014 002B     		cmp	r3, #0
 1655 0016 07D1     		bne	.L98
 975:/home/rdu/Workspace/project_templates/mcu/stm32_ws/src/libraries/STM32F4xx_StdPeriph_Driver/src/stm32f4xx_can.c ****   {
 976:/home/rdu/Workspace/project_templates/mcu/stm32_ws/src/libraries/STM32F4xx_StdPeriph_Driver/src/stm32f4xx_can.c ****     message_pending = (uint8_t)(CANx->RF0R&(uint32_t)0x03);
 1656              		.loc 1 976 0
 1657 0018 019B     		ldr	r3, [sp, #4]
 1658 001a DB68     		ldr	r3, [r3, #12]
 1659 001c DBB2     		uxtb	r3, r3
 1660 001e 03F00303 		and	r3, r3, #3
 1661 0022 8DF80F30 		strb	r3, [sp, #15]
 1662 0026 0EE0     		b	.L99
 1663              	.L98:
 977:/home/rdu/Workspace/project_templates/mcu/stm32_ws/src/libraries/STM32F4xx_StdPeriph_Driver/src/stm32f4xx_can.c ****   }
 978:/home/rdu/Workspace/project_templates/mcu/stm32_ws/src/libraries/STM32F4xx_StdPeriph_Driver/src/stm32f4xx_can.c ****   else if (FIFONumber == CAN_FIFO1)
 1664              		.loc 1 978 0
 1665 0028 9DF80330 		ldrb	r3, [sp, #3]	@ zero_extendqisi2
 1666 002c 012B     		cmp	r3, #1
 1667 002e 07D1     		bne	.L100
 979:/home/rdu/Workspace/project_templates/mcu/stm32_ws/src/libraries/STM32F4xx_StdPeriph_Driver/src/stm32f4xx_can.c ****   {
 980:/home/rdu/Workspace/project_templates/mcu/stm32_ws/src/libraries/STM32F4xx_StdPeriph_Driver/src/stm32f4xx_can.c ****     message_pending = (uint8_t)(CANx->RF1R&(uint32_t)0x03);
 1668              		.loc 1 980 0
 1669 0030 019B     		ldr	r3, [sp, #4]
 1670 0032 1B69     		ldr	r3, [r3, #16]
 1671 0034 DBB2     		uxtb	r3, r3
 1672 0036 03F00303 		and	r3, r3, #3
 1673 003a 8DF80F30 		strb	r3, [sp, #15]
 1674 003e 02E0     		b	.L99
 1675              	.L100:
 981:/home/rdu/Workspace/project_templates/mcu/stm32_ws/src/libraries/STM32F4xx_StdPeriph_Driver/src/stm32f4xx_can.c ****   }
 982:/home/rdu/Workspace/project_templates/mcu/stm32_ws/src/libraries/STM32F4xx_StdPeriph_Driver/src/stm32f4xx_can.c ****   else
 983:/home/rdu/Workspace/project_templates/mcu/stm32_ws/src/libraries/STM32F4xx_StdPeriph_Driver/src/stm32f4xx_can.c ****   {
 984:/home/rdu/Workspace/project_templates/mcu/stm32_ws/src/libraries/STM32F4xx_StdPeriph_Driver/src/stm32f4xx_can.c ****     message_pending = 0;
 1676              		.loc 1 984 0
 1677 0040 0023     		movs	r3, #0
 1678 0042 8DF80F30 		strb	r3, [sp, #15]
 1679              	.L99:
 985:/home/rdu/Workspace/project_templates/mcu/stm32_ws/src/libraries/STM32F4xx_StdPeriph_Driver/src/stm32f4xx_can.c ****   }
 986:/home/rdu/Workspace/project_templates/mcu/stm32_ws/src/libraries/STM32F4xx_StdPeriph_Driver/src/stm32f4xx_can.c ****   return message_pending;
 1680              		.loc 1 986 0
 1681 0046 9DF80F30 		ldrb	r3, [sp, #15]	@ zero_extendqisi2
 987:/home/rdu/Workspace/project_templates/mcu/stm32_ws/src/libraries/STM32F4xx_StdPeriph_Driver/src/stm32f4xx_can.c **** }
 1682              		.loc 1 987 0
 1683 004a 1846     		mov	r0, r3
 1684 004c 04B0     		add	sp, sp, #16
 1685              	.LCFI28:
 1686              		.cfi_def_cfa_offset 0
 1687              		@ sp needed
 1688 004e 7047     		bx	lr
 1689              		.cfi_endproc
 1690              	.LFE135:
 1692              		.section	.text.CAN_OperatingModeRequest,"ax",%progbits
 1693              		.align	1
 1694              		.global	CAN_OperatingModeRequest
 1695              		.syntax unified
 1696              		.thumb
 1697              		.thumb_func
 1698              		.fpu fpv4-sp-d16
 1700              	CAN_OperatingModeRequest:
 1701              	.LFB136:
 988:/home/rdu/Workspace/project_templates/mcu/stm32_ws/src/libraries/STM32F4xx_StdPeriph_Driver/src/stm32f4xx_can.c **** /**
 989:/home/rdu/Workspace/project_templates/mcu/stm32_ws/src/libraries/STM32F4xx_StdPeriph_Driver/src/stm32f4xx_can.c ****   * @}
 990:/home/rdu/Workspace/project_templates/mcu/stm32_ws/src/libraries/STM32F4xx_StdPeriph_Driver/src/stm32f4xx_can.c ****   */
 991:/home/rdu/Workspace/project_templates/mcu/stm32_ws/src/libraries/STM32F4xx_StdPeriph_Driver/src/stm32f4xx_can.c **** 
 992:/home/rdu/Workspace/project_templates/mcu/stm32_ws/src/libraries/STM32F4xx_StdPeriph_Driver/src/stm32f4xx_can.c **** 
 993:/home/rdu/Workspace/project_templates/mcu/stm32_ws/src/libraries/STM32F4xx_StdPeriph_Driver/src/stm32f4xx_can.c **** /** @defgroup CAN_Group4 CAN Operation modes functions
 994:/home/rdu/Workspace/project_templates/mcu/stm32_ws/src/libraries/STM32F4xx_StdPeriph_Driver/src/stm32f4xx_can.c ****  *  @brief    CAN Operation modes functions 
 995:/home/rdu/Workspace/project_templates/mcu/stm32_ws/src/libraries/STM32F4xx_StdPeriph_Driver/src/stm32f4xx_can.c ****  *
 996:/home/rdu/Workspace/project_templates/mcu/stm32_ws/src/libraries/STM32F4xx_StdPeriph_Driver/src/stm32f4xx_can.c **** @verbatim    
 997:/home/rdu/Workspace/project_templates/mcu/stm32_ws/src/libraries/STM32F4xx_StdPeriph_Driver/src/stm32f4xx_can.c ****  ===============================================================================
 998:/home/rdu/Workspace/project_templates/mcu/stm32_ws/src/libraries/STM32F4xx_StdPeriph_Driver/src/stm32f4xx_can.c ****                     ##### CAN Operation modes functions #####
 999:/home/rdu/Workspace/project_templates/mcu/stm32_ws/src/libraries/STM32F4xx_StdPeriph_Driver/src/stm32f4xx_can.c ****  ===============================================================================  
1000:/home/rdu/Workspace/project_templates/mcu/stm32_ws/src/libraries/STM32F4xx_StdPeriph_Driver/src/stm32f4xx_can.c ****     [..] This section provides functions allowing to select the CAN Operation modes
1001:/home/rdu/Workspace/project_templates/mcu/stm32_ws/src/libraries/STM32F4xx_StdPeriph_Driver/src/stm32f4xx_can.c ****       (+) sleep mode
1002:/home/rdu/Workspace/project_templates/mcu/stm32_ws/src/libraries/STM32F4xx_StdPeriph_Driver/src/stm32f4xx_can.c ****       (+) normal mode 
1003:/home/rdu/Workspace/project_templates/mcu/stm32_ws/src/libraries/STM32F4xx_StdPeriph_Driver/src/stm32f4xx_can.c ****       (+) initialization mode
1004:/home/rdu/Workspace/project_templates/mcu/stm32_ws/src/libraries/STM32F4xx_StdPeriph_Driver/src/stm32f4xx_can.c ****    
1005:/home/rdu/Workspace/project_templates/mcu/stm32_ws/src/libraries/STM32F4xx_StdPeriph_Driver/src/stm32f4xx_can.c **** @endverbatim
1006:/home/rdu/Workspace/project_templates/mcu/stm32_ws/src/libraries/STM32F4xx_StdPeriph_Driver/src/stm32f4xx_can.c ****   * @{
1007:/home/rdu/Workspace/project_templates/mcu/stm32_ws/src/libraries/STM32F4xx_StdPeriph_Driver/src/stm32f4xx_can.c ****   */
1008:/home/rdu/Workspace/project_templates/mcu/stm32_ws/src/libraries/STM32F4xx_StdPeriph_Driver/src/stm32f4xx_can.c ****   
1009:/home/rdu/Workspace/project_templates/mcu/stm32_ws/src/libraries/STM32F4xx_StdPeriph_Driver/src/stm32f4xx_can.c ****   
1010:/home/rdu/Workspace/project_templates/mcu/stm32_ws/src/libraries/STM32F4xx_StdPeriph_Driver/src/stm32f4xx_can.c **** /**
1011:/home/rdu/Workspace/project_templates/mcu/stm32_ws/src/libraries/STM32F4xx_StdPeriph_Driver/src/stm32f4xx_can.c ****   * @brief  Selects the CAN Operation mode.
1012:/home/rdu/Workspace/project_templates/mcu/stm32_ws/src/libraries/STM32F4xx_StdPeriph_Driver/src/stm32f4xx_can.c ****   * @param  CAN_OperatingMode: CAN Operating Mode.
1013:/home/rdu/Workspace/project_templates/mcu/stm32_ws/src/libraries/STM32F4xx_StdPeriph_Driver/src/stm32f4xx_can.c ****   *         This parameter can be one of @ref CAN_OperatingMode_TypeDef enumeration.
1014:/home/rdu/Workspace/project_templates/mcu/stm32_ws/src/libraries/STM32F4xx_StdPeriph_Driver/src/stm32f4xx_can.c ****   * @retval status of the requested mode which can be 
1015:/home/rdu/Workspace/project_templates/mcu/stm32_ws/src/libraries/STM32F4xx_StdPeriph_Driver/src/stm32f4xx_can.c ****   *         - CAN_ModeStatus_Failed:  CAN failed entering the specific mode 
1016:/home/rdu/Workspace/project_templates/mcu/stm32_ws/src/libraries/STM32F4xx_StdPeriph_Driver/src/stm32f4xx_can.c ****   *         - CAN_ModeStatus_Success: CAN Succeed entering the specific mode 
1017:/home/rdu/Workspace/project_templates/mcu/stm32_ws/src/libraries/STM32F4xx_StdPeriph_Driver/src/stm32f4xx_can.c ****   */
1018:/home/rdu/Workspace/project_templates/mcu/stm32_ws/src/libraries/STM32F4xx_StdPeriph_Driver/src/stm32f4xx_can.c **** uint8_t CAN_OperatingModeRequest(CAN_TypeDef* CANx, uint8_t CAN_OperatingMode)
1019:/home/rdu/Workspace/project_templates/mcu/stm32_ws/src/libraries/STM32F4xx_StdPeriph_Driver/src/stm32f4xx_can.c **** {
 1702              		.loc 1 1019 0
 1703              		.cfi_startproc
 1704              		@ args = 0, pretend = 0, frame = 16
 1705              		@ frame_needed = 0, uses_anonymous_args = 0
 1706              		@ link register save eliminated.
 1707 0000 84B0     		sub	sp, sp, #16
 1708              	.LCFI29:
 1709              		.cfi_def_cfa_offset 16
 1710 0002 0190     		str	r0, [sp, #4]
 1711 0004 0B46     		mov	r3, r1
 1712 0006 8DF80330 		strb	r3, [sp, #3]
1020:/home/rdu/Workspace/project_templates/mcu/stm32_ws/src/libraries/STM32F4xx_StdPeriph_Driver/src/stm32f4xx_can.c ****   uint8_t status = CAN_ModeStatus_Failed;
 1713              		.loc 1 1020 0
 1714 000a 0023     		movs	r3, #0
 1715 000c 8DF80F30 		strb	r3, [sp, #15]
1021:/home/rdu/Workspace/project_templates/mcu/stm32_ws/src/libraries/STM32F4xx_StdPeriph_Driver/src/stm32f4xx_can.c ****   
1022:/home/rdu/Workspace/project_templates/mcu/stm32_ws/src/libraries/STM32F4xx_StdPeriph_Driver/src/stm32f4xx_can.c ****   /* Timeout for INAK or also for SLAK bits*/
1023:/home/rdu/Workspace/project_templates/mcu/stm32_ws/src/libraries/STM32F4xx_StdPeriph_Driver/src/stm32f4xx_can.c ****   uint32_t timeout = INAK_TIMEOUT; 
 1716              		.loc 1 1023 0
 1717 0010 4FF6FF73 		movw	r3, #65535
 1718 0014 0293     		str	r3, [sp, #8]
1024:/home/rdu/Workspace/project_templates/mcu/stm32_ws/src/libraries/STM32F4xx_StdPeriph_Driver/src/stm32f4xx_can.c **** 
1025:/home/rdu/Workspace/project_templates/mcu/stm32_ws/src/libraries/STM32F4xx_StdPeriph_Driver/src/stm32f4xx_can.c ****   /* Check the parameters */
1026:/home/rdu/Workspace/project_templates/mcu/stm32_ws/src/libraries/STM32F4xx_StdPeriph_Driver/src/stm32f4xx_can.c ****   assert_param(IS_CAN_ALL_PERIPH(CANx));
1027:/home/rdu/Workspace/project_templates/mcu/stm32_ws/src/libraries/STM32F4xx_StdPeriph_Driver/src/stm32f4xx_can.c ****   assert_param(IS_CAN_OPERATING_MODE(CAN_OperatingMode));
1028:/home/rdu/Workspace/project_templates/mcu/stm32_ws/src/libraries/STM32F4xx_StdPeriph_Driver/src/stm32f4xx_can.c **** 
1029:/home/rdu/Workspace/project_templates/mcu/stm32_ws/src/libraries/STM32F4xx_StdPeriph_Driver/src/stm32f4xx_can.c ****   if (CAN_OperatingMode == CAN_OperatingMode_Initialization)
 1719              		.loc 1 1029 0
 1720 0016 9DF80330 		ldrb	r3, [sp, #3]	@ zero_extendqisi2
 1721 001a 002B     		cmp	r3, #0
 1722 001c 22D1     		bne	.L103
1030:/home/rdu/Workspace/project_templates/mcu/stm32_ws/src/libraries/STM32F4xx_StdPeriph_Driver/src/stm32f4xx_can.c ****   {
1031:/home/rdu/Workspace/project_templates/mcu/stm32_ws/src/libraries/STM32F4xx_StdPeriph_Driver/src/stm32f4xx_can.c ****     /* Request initialisation */
1032:/home/rdu/Workspace/project_templates/mcu/stm32_ws/src/libraries/STM32F4xx_StdPeriph_Driver/src/stm32f4xx_can.c ****     CANx->MCR = (uint32_t)((CANx->MCR & (uint32_t)(~(uint32_t)CAN_MCR_SLEEP)) | CAN_MCR_INRQ);
 1723              		.loc 1 1032 0
 1724 001e 019B     		ldr	r3, [sp, #4]
 1725 0020 1B68     		ldr	r3, [r3]
 1726 0022 23F00303 		bic	r3, r3, #3
 1727 0026 43F00102 		orr	r2, r3, #1
 1728 002a 019B     		ldr	r3, [sp, #4]
 1729 002c 1A60     		str	r2, [r3]
1033:/home/rdu/Workspace/project_templates/mcu/stm32_ws/src/libraries/STM32F4xx_StdPeriph_Driver/src/stm32f4xx_can.c **** 
1034:/home/rdu/Workspace/project_templates/mcu/stm32_ws/src/libraries/STM32F4xx_StdPeriph_Driver/src/stm32f4xx_can.c ****     /* Wait the acknowledge */
1035:/home/rdu/Workspace/project_templates/mcu/stm32_ws/src/libraries/STM32F4xx_StdPeriph_Driver/src/stm32f4xx_can.c ****     while (((CANx->MSR & CAN_MODE_MASK) != CAN_MSR_INAK) && (timeout != 0))
 1730              		.loc 1 1035 0
 1731 002e 02E0     		b	.L104
 1732              	.L106:
1036:/home/rdu/Workspace/project_templates/mcu/stm32_ws/src/libraries/STM32F4xx_StdPeriph_Driver/src/stm32f4xx_can.c ****     {
1037:/home/rdu/Workspace/project_templates/mcu/stm32_ws/src/libraries/STM32F4xx_StdPeriph_Driver/src/stm32f4xx_can.c ****       timeout--;
 1733              		.loc 1 1037 0
 1734 0030 029B     		ldr	r3, [sp, #8]
 1735 0032 013B     		subs	r3, r3, #1
 1736 0034 0293     		str	r3, [sp, #8]
 1737              	.L104:
1035:/home/rdu/Workspace/project_templates/mcu/stm32_ws/src/libraries/STM32F4xx_StdPeriph_Driver/src/stm32f4xx_can.c ****     {
 1738              		.loc 1 1035 0
 1739 0036 019B     		ldr	r3, [sp, #4]
 1740 0038 5B68     		ldr	r3, [r3, #4]
 1741 003a 03F00303 		and	r3, r3, #3
 1742 003e 012B     		cmp	r3, #1
 1743 0040 02D0     		beq	.L105
1035:/home/rdu/Workspace/project_templates/mcu/stm32_ws/src/libraries/STM32F4xx_StdPeriph_Driver/src/stm32f4xx_can.c ****     {
 1744              		.loc 1 1035 0 is_stmt 0 discriminator 1
 1745 0042 029B     		ldr	r3, [sp, #8]
 1746 0044 002B     		cmp	r3, #0
 1747 0046 F3D1     		bne	.L106
 1748              	.L105:
1038:/home/rdu/Workspace/project_templates/mcu/stm32_ws/src/libraries/STM32F4xx_StdPeriph_Driver/src/stm32f4xx_can.c ****     }
1039:/home/rdu/Workspace/project_templates/mcu/stm32_ws/src/libraries/STM32F4xx_StdPeriph_Driver/src/stm32f4xx_can.c ****     if ((CANx->MSR & CAN_MODE_MASK) != CAN_MSR_INAK)
 1749              		.loc 1 1039 0 is_stmt 1
 1750 0048 019B     		ldr	r3, [sp, #4]
 1751 004a 5B68     		ldr	r3, [r3, #4]
 1752 004c 03F00303 		and	r3, r3, #3
 1753 0050 012B     		cmp	r3, #1
 1754 0052 03D0     		beq	.L107
1040:/home/rdu/Workspace/project_templates/mcu/stm32_ws/src/libraries/STM32F4xx_StdPeriph_Driver/src/stm32f4xx_can.c ****     {
1041:/home/rdu/Workspace/project_templates/mcu/stm32_ws/src/libraries/STM32F4xx_StdPeriph_Driver/src/stm32f4xx_can.c ****       status = CAN_ModeStatus_Failed;
 1755              		.loc 1 1041 0
 1756 0054 0023     		movs	r3, #0
 1757 0056 8DF80F30 		strb	r3, [sp, #15]
 1758 005a 52E0     		b	.L109
 1759              	.L107:
1042:/home/rdu/Workspace/project_templates/mcu/stm32_ws/src/libraries/STM32F4xx_StdPeriph_Driver/src/stm32f4xx_can.c ****     }
1043:/home/rdu/Workspace/project_templates/mcu/stm32_ws/src/libraries/STM32F4xx_StdPeriph_Driver/src/stm32f4xx_can.c ****     else
1044:/home/rdu/Workspace/project_templates/mcu/stm32_ws/src/libraries/STM32F4xx_StdPeriph_Driver/src/stm32f4xx_can.c ****     {
1045:/home/rdu/Workspace/project_templates/mcu/stm32_ws/src/libraries/STM32F4xx_StdPeriph_Driver/src/stm32f4xx_can.c ****       status = CAN_ModeStatus_Success;
 1760              		.loc 1 1045 0
 1761 005c 0123     		movs	r3, #1
 1762 005e 8DF80F30 		strb	r3, [sp, #15]
 1763 0062 4EE0     		b	.L109
 1764              	.L103:
1046:/home/rdu/Workspace/project_templates/mcu/stm32_ws/src/libraries/STM32F4xx_StdPeriph_Driver/src/stm32f4xx_can.c ****     }
1047:/home/rdu/Workspace/project_templates/mcu/stm32_ws/src/libraries/STM32F4xx_StdPeriph_Driver/src/stm32f4xx_can.c ****   }
1048:/home/rdu/Workspace/project_templates/mcu/stm32_ws/src/libraries/STM32F4xx_StdPeriph_Driver/src/stm32f4xx_can.c ****   else  if (CAN_OperatingMode == CAN_OperatingMode_Normal)
 1765              		.loc 1 1048 0
 1766 0064 9DF80330 		ldrb	r3, [sp, #3]	@ zero_extendqisi2
 1767 0068 012B     		cmp	r3, #1
 1768 006a 20D1     		bne	.L110
1049:/home/rdu/Workspace/project_templates/mcu/stm32_ws/src/libraries/STM32F4xx_StdPeriph_Driver/src/stm32f4xx_can.c ****   {
1050:/home/rdu/Workspace/project_templates/mcu/stm32_ws/src/libraries/STM32F4xx_StdPeriph_Driver/src/stm32f4xx_can.c ****     /* Request leave initialisation and sleep mode  and enter Normal mode */
1051:/home/rdu/Workspace/project_templates/mcu/stm32_ws/src/libraries/STM32F4xx_StdPeriph_Driver/src/stm32f4xx_can.c ****     CANx->MCR &= (uint32_t)(~(CAN_MCR_SLEEP|CAN_MCR_INRQ));
 1769              		.loc 1 1051 0
 1770 006c 019B     		ldr	r3, [sp, #4]
 1771 006e 1B68     		ldr	r3, [r3]
 1772 0070 23F00302 		bic	r2, r3, #3
 1773 0074 019B     		ldr	r3, [sp, #4]
 1774 0076 1A60     		str	r2, [r3]
1052:/home/rdu/Workspace/project_templates/mcu/stm32_ws/src/libraries/STM32F4xx_StdPeriph_Driver/src/stm32f4xx_can.c **** 
1053:/home/rdu/Workspace/project_templates/mcu/stm32_ws/src/libraries/STM32F4xx_StdPeriph_Driver/src/stm32f4xx_can.c ****     /* Wait the acknowledge */
1054:/home/rdu/Workspace/project_templates/mcu/stm32_ws/src/libraries/STM32F4xx_StdPeriph_Driver/src/stm32f4xx_can.c ****     while (((CANx->MSR & CAN_MODE_MASK) != 0) && (timeout!=0))
 1775              		.loc 1 1054 0
 1776 0078 02E0     		b	.L111
 1777              	.L113:
1055:/home/rdu/Workspace/project_templates/mcu/stm32_ws/src/libraries/STM32F4xx_StdPeriph_Driver/src/stm32f4xx_can.c ****     {
1056:/home/rdu/Workspace/project_templates/mcu/stm32_ws/src/libraries/STM32F4xx_StdPeriph_Driver/src/stm32f4xx_can.c ****       timeout--;
 1778              		.loc 1 1056 0
 1779 007a 029B     		ldr	r3, [sp, #8]
 1780 007c 013B     		subs	r3, r3, #1
 1781 007e 0293     		str	r3, [sp, #8]
 1782              	.L111:
1054:/home/rdu/Workspace/project_templates/mcu/stm32_ws/src/libraries/STM32F4xx_StdPeriph_Driver/src/stm32f4xx_can.c ****     {
 1783              		.loc 1 1054 0
 1784 0080 019B     		ldr	r3, [sp, #4]
 1785 0082 5B68     		ldr	r3, [r3, #4]
 1786 0084 03F00303 		and	r3, r3, #3
 1787 0088 002B     		cmp	r3, #0
 1788 008a 02D0     		beq	.L112
1054:/home/rdu/Workspace/project_templates/mcu/stm32_ws/src/libraries/STM32F4xx_StdPeriph_Driver/src/stm32f4xx_can.c ****     {
 1789              		.loc 1 1054 0 is_stmt 0 discriminator 1
 1790 008c 029B     		ldr	r3, [sp, #8]
 1791 008e 002B     		cmp	r3, #0
 1792 0090 F3D1     		bne	.L113
 1793              	.L112:
1057:/home/rdu/Workspace/project_templates/mcu/stm32_ws/src/libraries/STM32F4xx_StdPeriph_Driver/src/stm32f4xx_can.c ****     }
1058:/home/rdu/Workspace/project_templates/mcu/stm32_ws/src/libraries/STM32F4xx_StdPeriph_Driver/src/stm32f4xx_can.c ****     if ((CANx->MSR & CAN_MODE_MASK) != 0)
 1794              		.loc 1 1058 0 is_stmt 1
 1795 0092 019B     		ldr	r3, [sp, #4]
 1796 0094 5B68     		ldr	r3, [r3, #4]
 1797 0096 03F00303 		and	r3, r3, #3
 1798 009a 002B     		cmp	r3, #0
 1799 009c 03D0     		beq	.L114
1059:/home/rdu/Workspace/project_templates/mcu/stm32_ws/src/libraries/STM32F4xx_StdPeriph_Driver/src/stm32f4xx_can.c ****     {
1060:/home/rdu/Workspace/project_templates/mcu/stm32_ws/src/libraries/STM32F4xx_StdPeriph_Driver/src/stm32f4xx_can.c ****       status = CAN_ModeStatus_Failed;
 1800              		.loc 1 1060 0
 1801 009e 0023     		movs	r3, #0
 1802 00a0 8DF80F30 		strb	r3, [sp, #15]
 1803 00a4 2DE0     		b	.L109
 1804              	.L114:
1061:/home/rdu/Workspace/project_templates/mcu/stm32_ws/src/libraries/STM32F4xx_StdPeriph_Driver/src/stm32f4xx_can.c ****     }
1062:/home/rdu/Workspace/project_templates/mcu/stm32_ws/src/libraries/STM32F4xx_StdPeriph_Driver/src/stm32f4xx_can.c ****     else
1063:/home/rdu/Workspace/project_templates/mcu/stm32_ws/src/libraries/STM32F4xx_StdPeriph_Driver/src/stm32f4xx_can.c ****     {
1064:/home/rdu/Workspace/project_templates/mcu/stm32_ws/src/libraries/STM32F4xx_StdPeriph_Driver/src/stm32f4xx_can.c ****       status = CAN_ModeStatus_Success;
 1805              		.loc 1 1064 0
 1806 00a6 0123     		movs	r3, #1
 1807 00a8 8DF80F30 		strb	r3, [sp, #15]
 1808 00ac 29E0     		b	.L109
 1809              	.L110:
1065:/home/rdu/Workspace/project_templates/mcu/stm32_ws/src/libraries/STM32F4xx_StdPeriph_Driver/src/stm32f4xx_can.c ****     }
1066:/home/rdu/Workspace/project_templates/mcu/stm32_ws/src/libraries/STM32F4xx_StdPeriph_Driver/src/stm32f4xx_can.c ****   }
1067:/home/rdu/Workspace/project_templates/mcu/stm32_ws/src/libraries/STM32F4xx_StdPeriph_Driver/src/stm32f4xx_can.c ****   else  if (CAN_OperatingMode == CAN_OperatingMode_Sleep)
 1810              		.loc 1 1067 0
 1811 00ae 9DF80330 		ldrb	r3, [sp, #3]	@ zero_extendqisi2
 1812 00b2 022B     		cmp	r3, #2
 1813 00b4 22D1     		bne	.L116
1068:/home/rdu/Workspace/project_templates/mcu/stm32_ws/src/libraries/STM32F4xx_StdPeriph_Driver/src/stm32f4xx_can.c ****   {
1069:/home/rdu/Workspace/project_templates/mcu/stm32_ws/src/libraries/STM32F4xx_StdPeriph_Driver/src/stm32f4xx_can.c ****     /* Request Sleep mode */
1070:/home/rdu/Workspace/project_templates/mcu/stm32_ws/src/libraries/STM32F4xx_StdPeriph_Driver/src/stm32f4xx_can.c ****     CANx->MCR = (uint32_t)((CANx->MCR & (uint32_t)(~(uint32_t)CAN_MCR_INRQ)) | CAN_MCR_SLEEP);
 1814              		.loc 1 1070 0
 1815 00b6 019B     		ldr	r3, [sp, #4]
 1816 00b8 1B68     		ldr	r3, [r3]
 1817 00ba 23F00303 		bic	r3, r3, #3
 1818 00be 43F00202 		orr	r2, r3, #2
 1819 00c2 019B     		ldr	r3, [sp, #4]
 1820 00c4 1A60     		str	r2, [r3]
1071:/home/rdu/Workspace/project_templates/mcu/stm32_ws/src/libraries/STM32F4xx_StdPeriph_Driver/src/stm32f4xx_can.c **** 
1072:/home/rdu/Workspace/project_templates/mcu/stm32_ws/src/libraries/STM32F4xx_StdPeriph_Driver/src/stm32f4xx_can.c ****     /* Wait the acknowledge */
1073:/home/rdu/Workspace/project_templates/mcu/stm32_ws/src/libraries/STM32F4xx_StdPeriph_Driver/src/stm32f4xx_can.c ****     while (((CANx->MSR & CAN_MODE_MASK) != CAN_MSR_SLAK) && (timeout!=0))
 1821              		.loc 1 1073 0
 1822 00c6 02E0     		b	.L117
 1823              	.L119:
1074:/home/rdu/Workspace/project_templates/mcu/stm32_ws/src/libraries/STM32F4xx_StdPeriph_Driver/src/stm32f4xx_can.c ****     {
1075:/home/rdu/Workspace/project_templates/mcu/stm32_ws/src/libraries/STM32F4xx_StdPeriph_Driver/src/stm32f4xx_can.c ****       timeout--;
 1824              		.loc 1 1075 0
 1825 00c8 029B     		ldr	r3, [sp, #8]
 1826 00ca 013B     		subs	r3, r3, #1
 1827 00cc 0293     		str	r3, [sp, #8]
 1828              	.L117:
1073:/home/rdu/Workspace/project_templates/mcu/stm32_ws/src/libraries/STM32F4xx_StdPeriph_Driver/src/stm32f4xx_can.c ****     {
 1829              		.loc 1 1073 0
 1830 00ce 019B     		ldr	r3, [sp, #4]
 1831 00d0 5B68     		ldr	r3, [r3, #4]
 1832 00d2 03F00303 		and	r3, r3, #3
 1833 00d6 022B     		cmp	r3, #2
 1834 00d8 02D0     		beq	.L118
1073:/home/rdu/Workspace/project_templates/mcu/stm32_ws/src/libraries/STM32F4xx_StdPeriph_Driver/src/stm32f4xx_can.c ****     {
 1835              		.loc 1 1073 0 is_stmt 0 discriminator 1
 1836 00da 029B     		ldr	r3, [sp, #8]
 1837 00dc 002B     		cmp	r3, #0
 1838 00de F3D1     		bne	.L119
 1839              	.L118:
1076:/home/rdu/Workspace/project_templates/mcu/stm32_ws/src/libraries/STM32F4xx_StdPeriph_Driver/src/stm32f4xx_can.c ****     }
1077:/home/rdu/Workspace/project_templates/mcu/stm32_ws/src/libraries/STM32F4xx_StdPeriph_Driver/src/stm32f4xx_can.c ****     if ((CANx->MSR & CAN_MODE_MASK) != CAN_MSR_SLAK)
 1840              		.loc 1 1077 0 is_stmt 1
 1841 00e0 019B     		ldr	r3, [sp, #4]
 1842 00e2 5B68     		ldr	r3, [r3, #4]
 1843 00e4 03F00303 		and	r3, r3, #3
 1844 00e8 022B     		cmp	r3, #2
 1845 00ea 03D0     		beq	.L120
1078:/home/rdu/Workspace/project_templates/mcu/stm32_ws/src/libraries/STM32F4xx_StdPeriph_Driver/src/stm32f4xx_can.c ****     {
1079:/home/rdu/Workspace/project_templates/mcu/stm32_ws/src/libraries/STM32F4xx_StdPeriph_Driver/src/stm32f4xx_can.c ****       status = CAN_ModeStatus_Failed;
 1846              		.loc 1 1079 0
 1847 00ec 0023     		movs	r3, #0
 1848 00ee 8DF80F30 		strb	r3, [sp, #15]
 1849 00f2 06E0     		b	.L109
 1850              	.L120:
1080:/home/rdu/Workspace/project_templates/mcu/stm32_ws/src/libraries/STM32F4xx_StdPeriph_Driver/src/stm32f4xx_can.c ****     }
1081:/home/rdu/Workspace/project_templates/mcu/stm32_ws/src/libraries/STM32F4xx_StdPeriph_Driver/src/stm32f4xx_can.c ****     else
1082:/home/rdu/Workspace/project_templates/mcu/stm32_ws/src/libraries/STM32F4xx_StdPeriph_Driver/src/stm32f4xx_can.c ****     {
1083:/home/rdu/Workspace/project_templates/mcu/stm32_ws/src/libraries/STM32F4xx_StdPeriph_Driver/src/stm32f4xx_can.c ****       status = CAN_ModeStatus_Success;
 1851              		.loc 1 1083 0
 1852 00f4 0123     		movs	r3, #1
 1853 00f6 8DF80F30 		strb	r3, [sp, #15]
 1854 00fa 02E0     		b	.L109
 1855              	.L116:
1084:/home/rdu/Workspace/project_templates/mcu/stm32_ws/src/libraries/STM32F4xx_StdPeriph_Driver/src/stm32f4xx_can.c ****     }
1085:/home/rdu/Workspace/project_templates/mcu/stm32_ws/src/libraries/STM32F4xx_StdPeriph_Driver/src/stm32f4xx_can.c ****   }
1086:/home/rdu/Workspace/project_templates/mcu/stm32_ws/src/libraries/STM32F4xx_StdPeriph_Driver/src/stm32f4xx_can.c ****   else
1087:/home/rdu/Workspace/project_templates/mcu/stm32_ws/src/libraries/STM32F4xx_StdPeriph_Driver/src/stm32f4xx_can.c ****   {
1088:/home/rdu/Workspace/project_templates/mcu/stm32_ws/src/libraries/STM32F4xx_StdPeriph_Driver/src/stm32f4xx_can.c ****     status = CAN_ModeStatus_Failed;
 1856              		.loc 1 1088 0
 1857 00fc 0023     		movs	r3, #0
 1858 00fe 8DF80F30 		strb	r3, [sp, #15]
 1859              	.L109:
1089:/home/rdu/Workspace/project_templates/mcu/stm32_ws/src/libraries/STM32F4xx_StdPeriph_Driver/src/stm32f4xx_can.c ****   }
1090:/home/rdu/Workspace/project_templates/mcu/stm32_ws/src/libraries/STM32F4xx_StdPeriph_Driver/src/stm32f4xx_can.c **** 
1091:/home/rdu/Workspace/project_templates/mcu/stm32_ws/src/libraries/STM32F4xx_StdPeriph_Driver/src/stm32f4xx_can.c ****   return  (uint8_t) status;
 1860              		.loc 1 1091 0
 1861 0102 9DF80F30 		ldrb	r3, [sp, #15]	@ zero_extendqisi2
1092:/home/rdu/Workspace/project_templates/mcu/stm32_ws/src/libraries/STM32F4xx_StdPeriph_Driver/src/stm32f4xx_can.c **** }
 1862              		.loc 1 1092 0
 1863 0106 1846     		mov	r0, r3
 1864 0108 04B0     		add	sp, sp, #16
 1865              	.LCFI30:
 1866              		.cfi_def_cfa_offset 0
 1867              		@ sp needed
 1868 010a 7047     		bx	lr
 1869              		.cfi_endproc
 1870              	.LFE136:
 1872              		.section	.text.CAN_Sleep,"ax",%progbits
 1873              		.align	1
 1874              		.global	CAN_Sleep
 1875              		.syntax unified
 1876              		.thumb
 1877              		.thumb_func
 1878              		.fpu fpv4-sp-d16
 1880              	CAN_Sleep:
 1881              	.LFB137:
1093:/home/rdu/Workspace/project_templates/mcu/stm32_ws/src/libraries/STM32F4xx_StdPeriph_Driver/src/stm32f4xx_can.c **** 
1094:/home/rdu/Workspace/project_templates/mcu/stm32_ws/src/libraries/STM32F4xx_StdPeriph_Driver/src/stm32f4xx_can.c **** /**
1095:/home/rdu/Workspace/project_templates/mcu/stm32_ws/src/libraries/STM32F4xx_StdPeriph_Driver/src/stm32f4xx_can.c ****   * @brief  Enters the Sleep (low power) mode.
1096:/home/rdu/Workspace/project_templates/mcu/stm32_ws/src/libraries/STM32F4xx_StdPeriph_Driver/src/stm32f4xx_can.c ****   * @param  CANx: where x can be 1,2 or 3 to select the CAN peripheral.
1097:/home/rdu/Workspace/project_templates/mcu/stm32_ws/src/libraries/STM32F4xx_StdPeriph_Driver/src/stm32f4xx_can.c ****   * @note   CAN3 peripheral is available only for STM32F413_423xx devices
1098:/home/rdu/Workspace/project_templates/mcu/stm32_ws/src/libraries/STM32F4xx_StdPeriph_Driver/src/stm32f4xx_can.c ****   * @retval CAN_Sleep_Ok if sleep entered, CAN_Sleep_Failed otherwise.
1099:/home/rdu/Workspace/project_templates/mcu/stm32_ws/src/libraries/STM32F4xx_StdPeriph_Driver/src/stm32f4xx_can.c ****   */
1100:/home/rdu/Workspace/project_templates/mcu/stm32_ws/src/libraries/STM32F4xx_StdPeriph_Driver/src/stm32f4xx_can.c **** uint8_t CAN_Sleep(CAN_TypeDef* CANx)
1101:/home/rdu/Workspace/project_templates/mcu/stm32_ws/src/libraries/STM32F4xx_StdPeriph_Driver/src/stm32f4xx_can.c **** {
 1882              		.loc 1 1101 0
 1883              		.cfi_startproc
 1884              		@ args = 0, pretend = 0, frame = 16
 1885              		@ frame_needed = 0, uses_anonymous_args = 0
 1886              		@ link register save eliminated.
 1887 0000 84B0     		sub	sp, sp, #16
 1888              	.LCFI31:
 1889              		.cfi_def_cfa_offset 16
 1890 0002 0190     		str	r0, [sp, #4]
1102:/home/rdu/Workspace/project_templates/mcu/stm32_ws/src/libraries/STM32F4xx_StdPeriph_Driver/src/stm32f4xx_can.c ****   uint8_t sleepstatus = CAN_Sleep_Failed;
 1891              		.loc 1 1102 0
 1892 0004 0023     		movs	r3, #0
 1893 0006 8DF80F30 		strb	r3, [sp, #15]
1103:/home/rdu/Workspace/project_templates/mcu/stm32_ws/src/libraries/STM32F4xx_StdPeriph_Driver/src/stm32f4xx_can.c ****   
1104:/home/rdu/Workspace/project_templates/mcu/stm32_ws/src/libraries/STM32F4xx_StdPeriph_Driver/src/stm32f4xx_can.c ****   /* Check the parameters */
1105:/home/rdu/Workspace/project_templates/mcu/stm32_ws/src/libraries/STM32F4xx_StdPeriph_Driver/src/stm32f4xx_can.c ****   assert_param(IS_CAN_ALL_PERIPH(CANx));
1106:/home/rdu/Workspace/project_templates/mcu/stm32_ws/src/libraries/STM32F4xx_StdPeriph_Driver/src/stm32f4xx_can.c ****     
1107:/home/rdu/Workspace/project_templates/mcu/stm32_ws/src/libraries/STM32F4xx_StdPeriph_Driver/src/stm32f4xx_can.c ****   /* Request Sleep mode */
1108:/home/rdu/Workspace/project_templates/mcu/stm32_ws/src/libraries/STM32F4xx_StdPeriph_Driver/src/stm32f4xx_can.c ****    CANx->MCR = (((CANx->MCR) & (uint32_t)(~(uint32_t)CAN_MCR_INRQ)) | CAN_MCR_SLEEP);
 1894              		.loc 1 1108 0
 1895 000a 019B     		ldr	r3, [sp, #4]
 1896 000c 1B68     		ldr	r3, [r3]
 1897 000e 23F00303 		bic	r3, r3, #3
 1898 0012 43F00202 		orr	r2, r3, #2
 1899 0016 019B     		ldr	r3, [sp, #4]
 1900 0018 1A60     		str	r2, [r3]
1109:/home/rdu/Workspace/project_templates/mcu/stm32_ws/src/libraries/STM32F4xx_StdPeriph_Driver/src/stm32f4xx_can.c ****    
1110:/home/rdu/Workspace/project_templates/mcu/stm32_ws/src/libraries/STM32F4xx_StdPeriph_Driver/src/stm32f4xx_can.c ****   /* Sleep mode status */
1111:/home/rdu/Workspace/project_templates/mcu/stm32_ws/src/libraries/STM32F4xx_StdPeriph_Driver/src/stm32f4xx_can.c ****   if ((CANx->MSR & (CAN_MSR_SLAK|CAN_MSR_INAK)) == CAN_MSR_SLAK)
 1901              		.loc 1 1111 0
 1902 001a 019B     		ldr	r3, [sp, #4]
 1903 001c 5B68     		ldr	r3, [r3, #4]
 1904 001e 03F00303 		and	r3, r3, #3
 1905 0022 022B     		cmp	r3, #2
 1906 0024 02D1     		bne	.L124
1112:/home/rdu/Workspace/project_templates/mcu/stm32_ws/src/libraries/STM32F4xx_StdPeriph_Driver/src/stm32f4xx_can.c ****   {
1113:/home/rdu/Workspace/project_templates/mcu/stm32_ws/src/libraries/STM32F4xx_StdPeriph_Driver/src/stm32f4xx_can.c ****     /* Sleep mode not entered */
1114:/home/rdu/Workspace/project_templates/mcu/stm32_ws/src/libraries/STM32F4xx_StdPeriph_Driver/src/stm32f4xx_can.c ****     sleepstatus =  CAN_Sleep_Ok;
 1907              		.loc 1 1114 0
 1908 0026 0123     		movs	r3, #1
 1909 0028 8DF80F30 		strb	r3, [sp, #15]
 1910              	.L124:
1115:/home/rdu/Workspace/project_templates/mcu/stm32_ws/src/libraries/STM32F4xx_StdPeriph_Driver/src/stm32f4xx_can.c ****   }
1116:/home/rdu/Workspace/project_templates/mcu/stm32_ws/src/libraries/STM32F4xx_StdPeriph_Driver/src/stm32f4xx_can.c ****   /* return sleep mode status */
1117:/home/rdu/Workspace/project_templates/mcu/stm32_ws/src/libraries/STM32F4xx_StdPeriph_Driver/src/stm32f4xx_can.c ****    return (uint8_t)sleepstatus;
 1911              		.loc 1 1117 0
 1912 002c 9DF80F30 		ldrb	r3, [sp, #15]	@ zero_extendqisi2
1118:/home/rdu/Workspace/project_templates/mcu/stm32_ws/src/libraries/STM32F4xx_StdPeriph_Driver/src/stm32f4xx_can.c **** }
 1913              		.loc 1 1118 0
 1914 0030 1846     		mov	r0, r3
 1915 0032 04B0     		add	sp, sp, #16
 1916              	.LCFI32:
 1917              		.cfi_def_cfa_offset 0
 1918              		@ sp needed
 1919 0034 7047     		bx	lr
 1920              		.cfi_endproc
 1921              	.LFE137:
 1923              		.section	.text.CAN_WakeUp,"ax",%progbits
 1924              		.align	1
 1925              		.global	CAN_WakeUp
 1926              		.syntax unified
 1927              		.thumb
 1928              		.thumb_func
 1929              		.fpu fpv4-sp-d16
 1931              	CAN_WakeUp:
 1932              	.LFB138:
1119:/home/rdu/Workspace/project_templates/mcu/stm32_ws/src/libraries/STM32F4xx_StdPeriph_Driver/src/stm32f4xx_can.c **** 
1120:/home/rdu/Workspace/project_templates/mcu/stm32_ws/src/libraries/STM32F4xx_StdPeriph_Driver/src/stm32f4xx_can.c **** /**
1121:/home/rdu/Workspace/project_templates/mcu/stm32_ws/src/libraries/STM32F4xx_StdPeriph_Driver/src/stm32f4xx_can.c ****   * @brief  Wakes up the CAN peripheral from sleep mode .
1122:/home/rdu/Workspace/project_templates/mcu/stm32_ws/src/libraries/STM32F4xx_StdPeriph_Driver/src/stm32f4xx_can.c ****   * @param  CANx: where x can be 1,2 or 3 to select the CAN peripheral.
1123:/home/rdu/Workspace/project_templates/mcu/stm32_ws/src/libraries/STM32F4xx_StdPeriph_Driver/src/stm32f4xx_can.c ****   * @note   CAN3 peripheral is available only for STM32F413_423xx devices
1124:/home/rdu/Workspace/project_templates/mcu/stm32_ws/src/libraries/STM32F4xx_StdPeriph_Driver/src/stm32f4xx_can.c ****   * @retval CAN_WakeUp_Ok if sleep mode left, CAN_WakeUp_Failed otherwise.
1125:/home/rdu/Workspace/project_templates/mcu/stm32_ws/src/libraries/STM32F4xx_StdPeriph_Driver/src/stm32f4xx_can.c ****   */
1126:/home/rdu/Workspace/project_templates/mcu/stm32_ws/src/libraries/STM32F4xx_StdPeriph_Driver/src/stm32f4xx_can.c **** uint8_t CAN_WakeUp(CAN_TypeDef* CANx)
1127:/home/rdu/Workspace/project_templates/mcu/stm32_ws/src/libraries/STM32F4xx_StdPeriph_Driver/src/stm32f4xx_can.c **** {
 1933              		.loc 1 1127 0
 1934              		.cfi_startproc
 1935              		@ args = 0, pretend = 0, frame = 16
 1936              		@ frame_needed = 0, uses_anonymous_args = 0
 1937              		@ link register save eliminated.
 1938 0000 84B0     		sub	sp, sp, #16
 1939              	.LCFI33:
 1940              		.cfi_def_cfa_offset 16
 1941 0002 0190     		str	r0, [sp, #4]
1128:/home/rdu/Workspace/project_templates/mcu/stm32_ws/src/libraries/STM32F4xx_StdPeriph_Driver/src/stm32f4xx_can.c ****   uint32_t wait_slak = SLAK_TIMEOUT;
 1942              		.loc 1 1128 0
 1943 0004 4FF6FF73 		movw	r3, #65535
 1944 0008 0393     		str	r3, [sp, #12]
1129:/home/rdu/Workspace/project_templates/mcu/stm32_ws/src/libraries/STM32F4xx_StdPeriph_Driver/src/stm32f4xx_can.c ****   uint8_t wakeupstatus = CAN_WakeUp_Failed;
 1945              		.loc 1 1129 0
 1946 000a 0023     		movs	r3, #0
 1947 000c 8DF80B30 		strb	r3, [sp, #11]
1130:/home/rdu/Workspace/project_templates/mcu/stm32_ws/src/libraries/STM32F4xx_StdPeriph_Driver/src/stm32f4xx_can.c ****   
1131:/home/rdu/Workspace/project_templates/mcu/stm32_ws/src/libraries/STM32F4xx_StdPeriph_Driver/src/stm32f4xx_can.c ****   /* Check the parameters */
1132:/home/rdu/Workspace/project_templates/mcu/stm32_ws/src/libraries/STM32F4xx_StdPeriph_Driver/src/stm32f4xx_can.c ****   assert_param(IS_CAN_ALL_PERIPH(CANx));
1133:/home/rdu/Workspace/project_templates/mcu/stm32_ws/src/libraries/STM32F4xx_StdPeriph_Driver/src/stm32f4xx_can.c ****     
1134:/home/rdu/Workspace/project_templates/mcu/stm32_ws/src/libraries/STM32F4xx_StdPeriph_Driver/src/stm32f4xx_can.c ****   /* Wake up request */
1135:/home/rdu/Workspace/project_templates/mcu/stm32_ws/src/libraries/STM32F4xx_StdPeriph_Driver/src/stm32f4xx_can.c ****   CANx->MCR &= ~(uint32_t)CAN_MCR_SLEEP;
 1948              		.loc 1 1135 0
 1949 0010 019B     		ldr	r3, [sp, #4]
 1950 0012 1B68     		ldr	r3, [r3]
 1951 0014 23F00202 		bic	r2, r3, #2
 1952 0018 019B     		ldr	r3, [sp, #4]
 1953 001a 1A60     		str	r2, [r3]
1136:/home/rdu/Workspace/project_templates/mcu/stm32_ws/src/libraries/STM32F4xx_StdPeriph_Driver/src/stm32f4xx_can.c ****     
1137:/home/rdu/Workspace/project_templates/mcu/stm32_ws/src/libraries/STM32F4xx_StdPeriph_Driver/src/stm32f4xx_can.c ****   /* Sleep mode status */
1138:/home/rdu/Workspace/project_templates/mcu/stm32_ws/src/libraries/STM32F4xx_StdPeriph_Driver/src/stm32f4xx_can.c ****   while(((CANx->MSR & CAN_MSR_SLAK) == CAN_MSR_SLAK)&&(wait_slak!=0x00))
 1954              		.loc 1 1138 0
 1955 001c 02E0     		b	.L127
 1956              	.L129:
1139:/home/rdu/Workspace/project_templates/mcu/stm32_ws/src/libraries/STM32F4xx_StdPeriph_Driver/src/stm32f4xx_can.c ****   {
1140:/home/rdu/Workspace/project_templates/mcu/stm32_ws/src/libraries/STM32F4xx_StdPeriph_Driver/src/stm32f4xx_can.c ****    wait_slak--;
 1957              		.loc 1 1140 0
 1958 001e 039B     		ldr	r3, [sp, #12]
 1959 0020 013B     		subs	r3, r3, #1
 1960 0022 0393     		str	r3, [sp, #12]
 1961              	.L127:
1138:/home/rdu/Workspace/project_templates/mcu/stm32_ws/src/libraries/STM32F4xx_StdPeriph_Driver/src/stm32f4xx_can.c ****   {
 1962              		.loc 1 1138 0
 1963 0024 019B     		ldr	r3, [sp, #4]
 1964 0026 5B68     		ldr	r3, [r3, #4]
 1965 0028 03F00203 		and	r3, r3, #2
 1966 002c 022B     		cmp	r3, #2
 1967 002e 02D1     		bne	.L128
1138:/home/rdu/Workspace/project_templates/mcu/stm32_ws/src/libraries/STM32F4xx_StdPeriph_Driver/src/stm32f4xx_can.c ****   {
 1968              		.loc 1 1138 0 is_stmt 0 discriminator 1
 1969 0030 039B     		ldr	r3, [sp, #12]
 1970 0032 002B     		cmp	r3, #0
 1971 0034 F3D1     		bne	.L129
 1972              	.L128:
1141:/home/rdu/Workspace/project_templates/mcu/stm32_ws/src/libraries/STM32F4xx_StdPeriph_Driver/src/stm32f4xx_can.c ****   }
1142:/home/rdu/Workspace/project_templates/mcu/stm32_ws/src/libraries/STM32F4xx_StdPeriph_Driver/src/stm32f4xx_can.c ****   if((CANx->MSR & CAN_MSR_SLAK) != CAN_MSR_SLAK)
 1973              		.loc 1 1142 0 is_stmt 1
 1974 0036 019B     		ldr	r3, [sp, #4]
 1975 0038 5B68     		ldr	r3, [r3, #4]
 1976 003a 03F00203 		and	r3, r3, #2
 1977 003e 022B     		cmp	r3, #2
 1978 0040 02D0     		beq	.L130
1143:/home/rdu/Workspace/project_templates/mcu/stm32_ws/src/libraries/STM32F4xx_StdPeriph_Driver/src/stm32f4xx_can.c ****   {
1144:/home/rdu/Workspace/project_templates/mcu/stm32_ws/src/libraries/STM32F4xx_StdPeriph_Driver/src/stm32f4xx_can.c ****    /* wake up done : Sleep mode exited */
1145:/home/rdu/Workspace/project_templates/mcu/stm32_ws/src/libraries/STM32F4xx_StdPeriph_Driver/src/stm32f4xx_can.c ****     wakeupstatus = CAN_WakeUp_Ok;
 1979              		.loc 1 1145 0
 1980 0042 0123     		movs	r3, #1
 1981 0044 8DF80B30 		strb	r3, [sp, #11]
 1982              	.L130:
1146:/home/rdu/Workspace/project_templates/mcu/stm32_ws/src/libraries/STM32F4xx_StdPeriph_Driver/src/stm32f4xx_can.c ****   }
1147:/home/rdu/Workspace/project_templates/mcu/stm32_ws/src/libraries/STM32F4xx_StdPeriph_Driver/src/stm32f4xx_can.c ****   /* return wakeup status */
1148:/home/rdu/Workspace/project_templates/mcu/stm32_ws/src/libraries/STM32F4xx_StdPeriph_Driver/src/stm32f4xx_can.c ****   return (uint8_t)wakeupstatus;
 1983              		.loc 1 1148 0
 1984 0048 9DF80B30 		ldrb	r3, [sp, #11]	@ zero_extendqisi2
1149:/home/rdu/Workspace/project_templates/mcu/stm32_ws/src/libraries/STM32F4xx_StdPeriph_Driver/src/stm32f4xx_can.c **** }
 1985              		.loc 1 1149 0
 1986 004c 1846     		mov	r0, r3
 1987 004e 04B0     		add	sp, sp, #16
 1988              	.LCFI34:
 1989              		.cfi_def_cfa_offset 0
 1990              		@ sp needed
 1991 0050 7047     		bx	lr
 1992              		.cfi_endproc
 1993              	.LFE138:
 1995              		.section	.text.CAN_GetLastErrorCode,"ax",%progbits
 1996              		.align	1
 1997              		.global	CAN_GetLastErrorCode
 1998              		.syntax unified
 1999              		.thumb
 2000              		.thumb_func
 2001              		.fpu fpv4-sp-d16
 2003              	CAN_GetLastErrorCode:
 2004              	.LFB139:
1150:/home/rdu/Workspace/project_templates/mcu/stm32_ws/src/libraries/STM32F4xx_StdPeriph_Driver/src/stm32f4xx_can.c **** /**
1151:/home/rdu/Workspace/project_templates/mcu/stm32_ws/src/libraries/STM32F4xx_StdPeriph_Driver/src/stm32f4xx_can.c ****   * @}
1152:/home/rdu/Workspace/project_templates/mcu/stm32_ws/src/libraries/STM32F4xx_StdPeriph_Driver/src/stm32f4xx_can.c ****   */
1153:/home/rdu/Workspace/project_templates/mcu/stm32_ws/src/libraries/STM32F4xx_StdPeriph_Driver/src/stm32f4xx_can.c **** 
1154:/home/rdu/Workspace/project_templates/mcu/stm32_ws/src/libraries/STM32F4xx_StdPeriph_Driver/src/stm32f4xx_can.c **** 
1155:/home/rdu/Workspace/project_templates/mcu/stm32_ws/src/libraries/STM32F4xx_StdPeriph_Driver/src/stm32f4xx_can.c **** /** @defgroup CAN_Group5 CAN Bus Error management functions
1156:/home/rdu/Workspace/project_templates/mcu/stm32_ws/src/libraries/STM32F4xx_StdPeriph_Driver/src/stm32f4xx_can.c ****  *  @brief    CAN Bus Error management functions 
1157:/home/rdu/Workspace/project_templates/mcu/stm32_ws/src/libraries/STM32F4xx_StdPeriph_Driver/src/stm32f4xx_can.c ****  *
1158:/home/rdu/Workspace/project_templates/mcu/stm32_ws/src/libraries/STM32F4xx_StdPeriph_Driver/src/stm32f4xx_can.c **** @verbatim    
1159:/home/rdu/Workspace/project_templates/mcu/stm32_ws/src/libraries/STM32F4xx_StdPeriph_Driver/src/stm32f4xx_can.c ****  ===============================================================================
1160:/home/rdu/Workspace/project_templates/mcu/stm32_ws/src/libraries/STM32F4xx_StdPeriph_Driver/src/stm32f4xx_can.c ****                 ##### CAN Bus Error management functions #####
1161:/home/rdu/Workspace/project_templates/mcu/stm32_ws/src/libraries/STM32F4xx_StdPeriph_Driver/src/stm32f4xx_can.c ****  ===============================================================================  
1162:/home/rdu/Workspace/project_templates/mcu/stm32_ws/src/libraries/STM32F4xx_StdPeriph_Driver/src/stm32f4xx_can.c ****     [..] This section provides functions allowing to 
1163:/home/rdu/Workspace/project_templates/mcu/stm32_ws/src/libraries/STM32F4xx_StdPeriph_Driver/src/stm32f4xx_can.c ****       (+) Return the CANx's last error code (LEC)
1164:/home/rdu/Workspace/project_templates/mcu/stm32_ws/src/libraries/STM32F4xx_StdPeriph_Driver/src/stm32f4xx_can.c ****       (+) Return the CANx Receive Error Counter (REC)
1165:/home/rdu/Workspace/project_templates/mcu/stm32_ws/src/libraries/STM32F4xx_StdPeriph_Driver/src/stm32f4xx_can.c ****       (+) Return the LSB of the 9-bit CANx Transmit Error Counter(TEC).
1166:/home/rdu/Workspace/project_templates/mcu/stm32_ws/src/libraries/STM32F4xx_StdPeriph_Driver/src/stm32f4xx_can.c ****    
1167:/home/rdu/Workspace/project_templates/mcu/stm32_ws/src/libraries/STM32F4xx_StdPeriph_Driver/src/stm32f4xx_can.c ****       -@- If TEC is greater than 255, The CAN is in bus-off state.
1168:/home/rdu/Workspace/project_templates/mcu/stm32_ws/src/libraries/STM32F4xx_StdPeriph_Driver/src/stm32f4xx_can.c ****       -@- if REC or TEC are greater than 96, an Error warning flag occurs.
1169:/home/rdu/Workspace/project_templates/mcu/stm32_ws/src/libraries/STM32F4xx_StdPeriph_Driver/src/stm32f4xx_can.c ****       -@- if REC or TEC are greater than 127, an Error Passive Flag occurs.
1170:/home/rdu/Workspace/project_templates/mcu/stm32_ws/src/libraries/STM32F4xx_StdPeriph_Driver/src/stm32f4xx_can.c ****                         
1171:/home/rdu/Workspace/project_templates/mcu/stm32_ws/src/libraries/STM32F4xx_StdPeriph_Driver/src/stm32f4xx_can.c **** @endverbatim
1172:/home/rdu/Workspace/project_templates/mcu/stm32_ws/src/libraries/STM32F4xx_StdPeriph_Driver/src/stm32f4xx_can.c ****   * @{
1173:/home/rdu/Workspace/project_templates/mcu/stm32_ws/src/libraries/STM32F4xx_StdPeriph_Driver/src/stm32f4xx_can.c ****   */
1174:/home/rdu/Workspace/project_templates/mcu/stm32_ws/src/libraries/STM32F4xx_StdPeriph_Driver/src/stm32f4xx_can.c ****   
1175:/home/rdu/Workspace/project_templates/mcu/stm32_ws/src/libraries/STM32F4xx_StdPeriph_Driver/src/stm32f4xx_can.c **** /**
1176:/home/rdu/Workspace/project_templates/mcu/stm32_ws/src/libraries/STM32F4xx_StdPeriph_Driver/src/stm32f4xx_can.c ****   * @brief  Returns the CANx's last error code (LEC).
1177:/home/rdu/Workspace/project_templates/mcu/stm32_ws/src/libraries/STM32F4xx_StdPeriph_Driver/src/stm32f4xx_can.c ****   * @param  CANx: where x can be 1,2 or 3 to select the CAN peripheral.
1178:/home/rdu/Workspace/project_templates/mcu/stm32_ws/src/libraries/STM32F4xx_StdPeriph_Driver/src/stm32f4xx_can.c ****   * @retval Error code: 
1179:/home/rdu/Workspace/project_templates/mcu/stm32_ws/src/libraries/STM32F4xx_StdPeriph_Driver/src/stm32f4xx_can.c ****   *          - CAN_ERRORCODE_NoErr: No Error  
1180:/home/rdu/Workspace/project_templates/mcu/stm32_ws/src/libraries/STM32F4xx_StdPeriph_Driver/src/stm32f4xx_can.c ****   *          - CAN_ERRORCODE_StuffErr: Stuff Error
1181:/home/rdu/Workspace/project_templates/mcu/stm32_ws/src/libraries/STM32F4xx_StdPeriph_Driver/src/stm32f4xx_can.c ****   *          - CAN_ERRORCODE_FormErr: Form Error
1182:/home/rdu/Workspace/project_templates/mcu/stm32_ws/src/libraries/STM32F4xx_StdPeriph_Driver/src/stm32f4xx_can.c ****   *          - CAN_ERRORCODE_ACKErr : Acknowledgment Error
1183:/home/rdu/Workspace/project_templates/mcu/stm32_ws/src/libraries/STM32F4xx_StdPeriph_Driver/src/stm32f4xx_can.c ****   *          - CAN_ERRORCODE_BitRecessiveErr: Bit Recessive Error
1184:/home/rdu/Workspace/project_templates/mcu/stm32_ws/src/libraries/STM32F4xx_StdPeriph_Driver/src/stm32f4xx_can.c ****   *          - CAN_ERRORCODE_BitDominantErr: Bit Dominant Error
1185:/home/rdu/Workspace/project_templates/mcu/stm32_ws/src/libraries/STM32F4xx_StdPeriph_Driver/src/stm32f4xx_can.c ****   *          - CAN_ERRORCODE_CRCErr: CRC Error
1186:/home/rdu/Workspace/project_templates/mcu/stm32_ws/src/libraries/STM32F4xx_StdPeriph_Driver/src/stm32f4xx_can.c ****   *          - CAN_ERRORCODE_SoftwareSetErr: Software Set Error  
1187:/home/rdu/Workspace/project_templates/mcu/stm32_ws/src/libraries/STM32F4xx_StdPeriph_Driver/src/stm32f4xx_can.c ****   */
1188:/home/rdu/Workspace/project_templates/mcu/stm32_ws/src/libraries/STM32F4xx_StdPeriph_Driver/src/stm32f4xx_can.c **** uint8_t CAN_GetLastErrorCode(CAN_TypeDef* CANx)
1189:/home/rdu/Workspace/project_templates/mcu/stm32_ws/src/libraries/STM32F4xx_StdPeriph_Driver/src/stm32f4xx_can.c **** {
 2005              		.loc 1 1189 0
 2006              		.cfi_startproc
 2007              		@ args = 0, pretend = 0, frame = 16
 2008              		@ frame_needed = 0, uses_anonymous_args = 0
 2009              		@ link register save eliminated.
 2010 0000 84B0     		sub	sp, sp, #16
 2011              	.LCFI35:
 2012              		.cfi_def_cfa_offset 16
 2013 0002 0190     		str	r0, [sp, #4]
1190:/home/rdu/Workspace/project_templates/mcu/stm32_ws/src/libraries/STM32F4xx_StdPeriph_Driver/src/stm32f4xx_can.c ****   uint8_t errorcode=0;
 2014              		.loc 1 1190 0
 2015 0004 0023     		movs	r3, #0
 2016 0006 8DF80F30 		strb	r3, [sp, #15]
1191:/home/rdu/Workspace/project_templates/mcu/stm32_ws/src/libraries/STM32F4xx_StdPeriph_Driver/src/stm32f4xx_can.c ****   
1192:/home/rdu/Workspace/project_templates/mcu/stm32_ws/src/libraries/STM32F4xx_StdPeriph_Driver/src/stm32f4xx_can.c ****   /* Check the parameters */
1193:/home/rdu/Workspace/project_templates/mcu/stm32_ws/src/libraries/STM32F4xx_StdPeriph_Driver/src/stm32f4xx_can.c ****   assert_param(IS_CAN_ALL_PERIPH(CANx));
1194:/home/rdu/Workspace/project_templates/mcu/stm32_ws/src/libraries/STM32F4xx_StdPeriph_Driver/src/stm32f4xx_can.c ****   
1195:/home/rdu/Workspace/project_templates/mcu/stm32_ws/src/libraries/STM32F4xx_StdPeriph_Driver/src/stm32f4xx_can.c ****   /* Get the error code*/
1196:/home/rdu/Workspace/project_templates/mcu/stm32_ws/src/libraries/STM32F4xx_StdPeriph_Driver/src/stm32f4xx_can.c ****   errorcode = (((uint8_t)CANx->ESR) & (uint8_t)CAN_ESR_LEC);
 2017              		.loc 1 1196 0
 2018 000a 019B     		ldr	r3, [sp, #4]
 2019 000c 9B69     		ldr	r3, [r3, #24]
 2020 000e DBB2     		uxtb	r3, r3
 2021 0010 03F07003 		and	r3, r3, #112
 2022 0014 8DF80F30 		strb	r3, [sp, #15]
1197:/home/rdu/Workspace/project_templates/mcu/stm32_ws/src/libraries/STM32F4xx_StdPeriph_Driver/src/stm32f4xx_can.c ****   
1198:/home/rdu/Workspace/project_templates/mcu/stm32_ws/src/libraries/STM32F4xx_StdPeriph_Driver/src/stm32f4xx_can.c ****   /* Return the error code*/
1199:/home/rdu/Workspace/project_templates/mcu/stm32_ws/src/libraries/STM32F4xx_StdPeriph_Driver/src/stm32f4xx_can.c ****   return errorcode;
 2023              		.loc 1 1199 0
 2024 0018 9DF80F30 		ldrb	r3, [sp, #15]	@ zero_extendqisi2
1200:/home/rdu/Workspace/project_templates/mcu/stm32_ws/src/libraries/STM32F4xx_StdPeriph_Driver/src/stm32f4xx_can.c **** }
 2025              		.loc 1 1200 0
 2026 001c 1846     		mov	r0, r3
 2027 001e 04B0     		add	sp, sp, #16
 2028              	.LCFI36:
 2029              		.cfi_def_cfa_offset 0
 2030              		@ sp needed
 2031 0020 7047     		bx	lr
 2032              		.cfi_endproc
 2033              	.LFE139:
 2035              		.section	.text.CAN_GetReceiveErrorCounter,"ax",%progbits
 2036              		.align	1
 2037              		.global	CAN_GetReceiveErrorCounter
 2038              		.syntax unified
 2039              		.thumb
 2040              		.thumb_func
 2041              		.fpu fpv4-sp-d16
 2043              	CAN_GetReceiveErrorCounter:
 2044              	.LFB140:
1201:/home/rdu/Workspace/project_templates/mcu/stm32_ws/src/libraries/STM32F4xx_StdPeriph_Driver/src/stm32f4xx_can.c **** 
1202:/home/rdu/Workspace/project_templates/mcu/stm32_ws/src/libraries/STM32F4xx_StdPeriph_Driver/src/stm32f4xx_can.c **** /**
1203:/home/rdu/Workspace/project_templates/mcu/stm32_ws/src/libraries/STM32F4xx_StdPeriph_Driver/src/stm32f4xx_can.c ****   * @brief  Returns the CANx Receive Error Counter (REC).
1204:/home/rdu/Workspace/project_templates/mcu/stm32_ws/src/libraries/STM32F4xx_StdPeriph_Driver/src/stm32f4xx_can.c ****   * @note   In case of an error during reception, this counter is incremented 
1205:/home/rdu/Workspace/project_templates/mcu/stm32_ws/src/libraries/STM32F4xx_StdPeriph_Driver/src/stm32f4xx_can.c ****   *         by 1 or by 8 depending on the error condition as defined by the CAN 
1206:/home/rdu/Workspace/project_templates/mcu/stm32_ws/src/libraries/STM32F4xx_StdPeriph_Driver/src/stm32f4xx_can.c ****   *         standard. After every successful reception, the counter is 
1207:/home/rdu/Workspace/project_templates/mcu/stm32_ws/src/libraries/STM32F4xx_StdPeriph_Driver/src/stm32f4xx_can.c ****   *         decremented by 1 or reset to 120 if its value was higher than 128. 
1208:/home/rdu/Workspace/project_templates/mcu/stm32_ws/src/libraries/STM32F4xx_StdPeriph_Driver/src/stm32f4xx_can.c ****   *         When the counter value exceeds 127, the CAN controller enters the 
1209:/home/rdu/Workspace/project_templates/mcu/stm32_ws/src/libraries/STM32F4xx_StdPeriph_Driver/src/stm32f4xx_can.c ****   *         error passive state.  
1210:/home/rdu/Workspace/project_templates/mcu/stm32_ws/src/libraries/STM32F4xx_StdPeriph_Driver/src/stm32f4xx_can.c ****   * @param  CANx: where x can be 1,2 or 3 to select the CAN peripheral.
1211:/home/rdu/Workspace/project_templates/mcu/stm32_ws/src/libraries/STM32F4xx_StdPeriph_Driver/src/stm32f4xx_can.c ****   * @note   CAN3 peripheral is available only for STM32F413_423xx devices
1212:/home/rdu/Workspace/project_templates/mcu/stm32_ws/src/libraries/STM32F4xx_StdPeriph_Driver/src/stm32f4xx_can.c ****   * @retval CAN Receive Error Counter. 
1213:/home/rdu/Workspace/project_templates/mcu/stm32_ws/src/libraries/STM32F4xx_StdPeriph_Driver/src/stm32f4xx_can.c ****   */
1214:/home/rdu/Workspace/project_templates/mcu/stm32_ws/src/libraries/STM32F4xx_StdPeriph_Driver/src/stm32f4xx_can.c **** uint8_t CAN_GetReceiveErrorCounter(CAN_TypeDef* CANx)
1215:/home/rdu/Workspace/project_templates/mcu/stm32_ws/src/libraries/STM32F4xx_StdPeriph_Driver/src/stm32f4xx_can.c **** {
 2045              		.loc 1 1215 0
 2046              		.cfi_startproc
 2047              		@ args = 0, pretend = 0, frame = 16
 2048              		@ frame_needed = 0, uses_anonymous_args = 0
 2049              		@ link register save eliminated.
 2050 0000 84B0     		sub	sp, sp, #16
 2051              	.LCFI37:
 2052              		.cfi_def_cfa_offset 16
 2053 0002 0190     		str	r0, [sp, #4]
1216:/home/rdu/Workspace/project_templates/mcu/stm32_ws/src/libraries/STM32F4xx_StdPeriph_Driver/src/stm32f4xx_can.c ****   uint8_t counter=0;
 2054              		.loc 1 1216 0
 2055 0004 0023     		movs	r3, #0
 2056 0006 8DF80F30 		strb	r3, [sp, #15]
1217:/home/rdu/Workspace/project_templates/mcu/stm32_ws/src/libraries/STM32F4xx_StdPeriph_Driver/src/stm32f4xx_can.c ****   
1218:/home/rdu/Workspace/project_templates/mcu/stm32_ws/src/libraries/STM32F4xx_StdPeriph_Driver/src/stm32f4xx_can.c ****   /* Check the parameters */
1219:/home/rdu/Workspace/project_templates/mcu/stm32_ws/src/libraries/STM32F4xx_StdPeriph_Driver/src/stm32f4xx_can.c ****   assert_param(IS_CAN_ALL_PERIPH(CANx));
1220:/home/rdu/Workspace/project_templates/mcu/stm32_ws/src/libraries/STM32F4xx_StdPeriph_Driver/src/stm32f4xx_can.c ****   
1221:/home/rdu/Workspace/project_templates/mcu/stm32_ws/src/libraries/STM32F4xx_StdPeriph_Driver/src/stm32f4xx_can.c ****   /* Get the Receive Error Counter*/
1222:/home/rdu/Workspace/project_templates/mcu/stm32_ws/src/libraries/STM32F4xx_StdPeriph_Driver/src/stm32f4xx_can.c ****   counter = (uint8_t)((CANx->ESR & CAN_ESR_REC)>> 24);
 2057              		.loc 1 1222 0
 2058 000a 019B     		ldr	r3, [sp, #4]
 2059 000c 9B69     		ldr	r3, [r3, #24]
 2060 000e 1B0E     		lsrs	r3, r3, #24
 2061 0010 8DF80F30 		strb	r3, [sp, #15]
1223:/home/rdu/Workspace/project_templates/mcu/stm32_ws/src/libraries/STM32F4xx_StdPeriph_Driver/src/stm32f4xx_can.c ****   
1224:/home/rdu/Workspace/project_templates/mcu/stm32_ws/src/libraries/STM32F4xx_StdPeriph_Driver/src/stm32f4xx_can.c ****   /* Return the Receive Error Counter*/
1225:/home/rdu/Workspace/project_templates/mcu/stm32_ws/src/libraries/STM32F4xx_StdPeriph_Driver/src/stm32f4xx_can.c ****   return counter;
 2062              		.loc 1 1225 0
 2063 0014 9DF80F30 		ldrb	r3, [sp, #15]	@ zero_extendqisi2
1226:/home/rdu/Workspace/project_templates/mcu/stm32_ws/src/libraries/STM32F4xx_StdPeriph_Driver/src/stm32f4xx_can.c **** }
 2064              		.loc 1 1226 0
 2065 0018 1846     		mov	r0, r3
 2066 001a 04B0     		add	sp, sp, #16
 2067              	.LCFI38:
 2068              		.cfi_def_cfa_offset 0
 2069              		@ sp needed
 2070 001c 7047     		bx	lr
 2071              		.cfi_endproc
 2072              	.LFE140:
 2074              		.section	.text.CAN_GetLSBTransmitErrorCounter,"ax",%progbits
 2075              		.align	1
 2076              		.global	CAN_GetLSBTransmitErrorCounter
 2077              		.syntax unified
 2078              		.thumb
 2079              		.thumb_func
 2080              		.fpu fpv4-sp-d16
 2082              	CAN_GetLSBTransmitErrorCounter:
 2083              	.LFB141:
1227:/home/rdu/Workspace/project_templates/mcu/stm32_ws/src/libraries/STM32F4xx_StdPeriph_Driver/src/stm32f4xx_can.c **** 
1228:/home/rdu/Workspace/project_templates/mcu/stm32_ws/src/libraries/STM32F4xx_StdPeriph_Driver/src/stm32f4xx_can.c **** 
1229:/home/rdu/Workspace/project_templates/mcu/stm32_ws/src/libraries/STM32F4xx_StdPeriph_Driver/src/stm32f4xx_can.c **** /**
1230:/home/rdu/Workspace/project_templates/mcu/stm32_ws/src/libraries/STM32F4xx_StdPeriph_Driver/src/stm32f4xx_can.c ****   * @brief  Returns the LSB of the 9-bit CANx Transmit Error Counter(TEC).
1231:/home/rdu/Workspace/project_templates/mcu/stm32_ws/src/libraries/STM32F4xx_StdPeriph_Driver/src/stm32f4xx_can.c ****   * @param  CANx: where x can be 1,2 or 3 to select the CAN peripheral.
1232:/home/rdu/Workspace/project_templates/mcu/stm32_ws/src/libraries/STM32F4xx_StdPeriph_Driver/src/stm32f4xx_can.c ****   * @note   CAN3 peripheral is available only for STM32F413_423xx devices
1233:/home/rdu/Workspace/project_templates/mcu/stm32_ws/src/libraries/STM32F4xx_StdPeriph_Driver/src/stm32f4xx_can.c ****   * @retval LSB of the 9-bit CAN Transmit Error Counter. 
1234:/home/rdu/Workspace/project_templates/mcu/stm32_ws/src/libraries/STM32F4xx_StdPeriph_Driver/src/stm32f4xx_can.c ****   */
1235:/home/rdu/Workspace/project_templates/mcu/stm32_ws/src/libraries/STM32F4xx_StdPeriph_Driver/src/stm32f4xx_can.c **** uint8_t CAN_GetLSBTransmitErrorCounter(CAN_TypeDef* CANx)
1236:/home/rdu/Workspace/project_templates/mcu/stm32_ws/src/libraries/STM32F4xx_StdPeriph_Driver/src/stm32f4xx_can.c **** {
 2084              		.loc 1 1236 0
 2085              		.cfi_startproc
 2086              		@ args = 0, pretend = 0, frame = 16
 2087              		@ frame_needed = 0, uses_anonymous_args = 0
 2088              		@ link register save eliminated.
 2089 0000 84B0     		sub	sp, sp, #16
 2090              	.LCFI39:
 2091              		.cfi_def_cfa_offset 16
 2092 0002 0190     		str	r0, [sp, #4]
1237:/home/rdu/Workspace/project_templates/mcu/stm32_ws/src/libraries/STM32F4xx_StdPeriph_Driver/src/stm32f4xx_can.c ****   uint8_t counter=0;
 2093              		.loc 1 1237 0
 2094 0004 0023     		movs	r3, #0
 2095 0006 8DF80F30 		strb	r3, [sp, #15]
1238:/home/rdu/Workspace/project_templates/mcu/stm32_ws/src/libraries/STM32F4xx_StdPeriph_Driver/src/stm32f4xx_can.c ****   
1239:/home/rdu/Workspace/project_templates/mcu/stm32_ws/src/libraries/STM32F4xx_StdPeriph_Driver/src/stm32f4xx_can.c ****   /* Check the parameters */
1240:/home/rdu/Workspace/project_templates/mcu/stm32_ws/src/libraries/STM32F4xx_StdPeriph_Driver/src/stm32f4xx_can.c ****   assert_param(IS_CAN_ALL_PERIPH(CANx));
1241:/home/rdu/Workspace/project_templates/mcu/stm32_ws/src/libraries/STM32F4xx_StdPeriph_Driver/src/stm32f4xx_can.c ****   
1242:/home/rdu/Workspace/project_templates/mcu/stm32_ws/src/libraries/STM32F4xx_StdPeriph_Driver/src/stm32f4xx_can.c ****   /* Get the LSB of the 9-bit CANx Transmit Error Counter(TEC) */
1243:/home/rdu/Workspace/project_templates/mcu/stm32_ws/src/libraries/STM32F4xx_StdPeriph_Driver/src/stm32f4xx_can.c ****   counter = (uint8_t)((CANx->ESR & CAN_ESR_TEC)>> 16);
 2096              		.loc 1 1243 0
 2097 000a 019B     		ldr	r3, [sp, #4]
 2098 000c 9B69     		ldr	r3, [r3, #24]
 2099 000e 1B0C     		lsrs	r3, r3, #16
 2100 0010 8DF80F30 		strb	r3, [sp, #15]
1244:/home/rdu/Workspace/project_templates/mcu/stm32_ws/src/libraries/STM32F4xx_StdPeriph_Driver/src/stm32f4xx_can.c ****   
1245:/home/rdu/Workspace/project_templates/mcu/stm32_ws/src/libraries/STM32F4xx_StdPeriph_Driver/src/stm32f4xx_can.c ****   /* Return the LSB of the 9-bit CANx Transmit Error Counter(TEC) */
1246:/home/rdu/Workspace/project_templates/mcu/stm32_ws/src/libraries/STM32F4xx_StdPeriph_Driver/src/stm32f4xx_can.c ****   return counter;
 2101              		.loc 1 1246 0
 2102 0014 9DF80F30 		ldrb	r3, [sp, #15]	@ zero_extendqisi2
1247:/home/rdu/Workspace/project_templates/mcu/stm32_ws/src/libraries/STM32F4xx_StdPeriph_Driver/src/stm32f4xx_can.c **** }
 2103              		.loc 1 1247 0
 2104 0018 1846     		mov	r0, r3
 2105 001a 04B0     		add	sp, sp, #16
 2106              	.LCFI40:
 2107              		.cfi_def_cfa_offset 0
 2108              		@ sp needed
 2109 001c 7047     		bx	lr
 2110              		.cfi_endproc
 2111              	.LFE141:
 2113              		.section	.text.CAN_ITConfig,"ax",%progbits
 2114              		.align	1
 2115              		.global	CAN_ITConfig
 2116              		.syntax unified
 2117              		.thumb
 2118              		.thumb_func
 2119              		.fpu fpv4-sp-d16
 2121              	CAN_ITConfig:
 2122              	.LFB142:
1248:/home/rdu/Workspace/project_templates/mcu/stm32_ws/src/libraries/STM32F4xx_StdPeriph_Driver/src/stm32f4xx_can.c **** /**
1249:/home/rdu/Workspace/project_templates/mcu/stm32_ws/src/libraries/STM32F4xx_StdPeriph_Driver/src/stm32f4xx_can.c ****   * @}
1250:/home/rdu/Workspace/project_templates/mcu/stm32_ws/src/libraries/STM32F4xx_StdPeriph_Driver/src/stm32f4xx_can.c ****   */
1251:/home/rdu/Workspace/project_templates/mcu/stm32_ws/src/libraries/STM32F4xx_StdPeriph_Driver/src/stm32f4xx_can.c **** 
1252:/home/rdu/Workspace/project_templates/mcu/stm32_ws/src/libraries/STM32F4xx_StdPeriph_Driver/src/stm32f4xx_can.c **** /** @defgroup CAN_Group6 Interrupts and flags management functions
1253:/home/rdu/Workspace/project_templates/mcu/stm32_ws/src/libraries/STM32F4xx_StdPeriph_Driver/src/stm32f4xx_can.c ****  *  @brief   Interrupts and flags management functions
1254:/home/rdu/Workspace/project_templates/mcu/stm32_ws/src/libraries/STM32F4xx_StdPeriph_Driver/src/stm32f4xx_can.c ****  *
1255:/home/rdu/Workspace/project_templates/mcu/stm32_ws/src/libraries/STM32F4xx_StdPeriph_Driver/src/stm32f4xx_can.c **** @verbatim   
1256:/home/rdu/Workspace/project_templates/mcu/stm32_ws/src/libraries/STM32F4xx_StdPeriph_Driver/src/stm32f4xx_can.c ****  ===============================================================================
1257:/home/rdu/Workspace/project_templates/mcu/stm32_ws/src/libraries/STM32F4xx_StdPeriph_Driver/src/stm32f4xx_can.c ****               ##### Interrupts and flags management functions #####
1258:/home/rdu/Workspace/project_templates/mcu/stm32_ws/src/libraries/STM32F4xx_StdPeriph_Driver/src/stm32f4xx_can.c ****  ===============================================================================  
1259:/home/rdu/Workspace/project_templates/mcu/stm32_ws/src/libraries/STM32F4xx_StdPeriph_Driver/src/stm32f4xx_can.c **** 
1260:/home/rdu/Workspace/project_templates/mcu/stm32_ws/src/libraries/STM32F4xx_StdPeriph_Driver/src/stm32f4xx_can.c ****      [..] This section provides functions allowing to configure the CAN Interrupts 
1261:/home/rdu/Workspace/project_templates/mcu/stm32_ws/src/libraries/STM32F4xx_StdPeriph_Driver/src/stm32f4xx_can.c ****           and to get the status and clear flags and Interrupts pending bits.
1262:/home/rdu/Workspace/project_templates/mcu/stm32_ws/src/libraries/STM32F4xx_StdPeriph_Driver/src/stm32f4xx_can.c ****   
1263:/home/rdu/Workspace/project_templates/mcu/stm32_ws/src/libraries/STM32F4xx_StdPeriph_Driver/src/stm32f4xx_can.c ****           The CAN provides 14 Interrupts sources and 15 Flags:
1264:/home/rdu/Workspace/project_templates/mcu/stm32_ws/src/libraries/STM32F4xx_StdPeriph_Driver/src/stm32f4xx_can.c **** 
1265:/home/rdu/Workspace/project_templates/mcu/stm32_ws/src/libraries/STM32F4xx_StdPeriph_Driver/src/stm32f4xx_can.c ****    
1266:/home/rdu/Workspace/project_templates/mcu/stm32_ws/src/libraries/STM32F4xx_StdPeriph_Driver/src/stm32f4xx_can.c ****   *** Flags ***
1267:/home/rdu/Workspace/project_templates/mcu/stm32_ws/src/libraries/STM32F4xx_StdPeriph_Driver/src/stm32f4xx_can.c ****   =============
1268:/home/rdu/Workspace/project_templates/mcu/stm32_ws/src/libraries/STM32F4xx_StdPeriph_Driver/src/stm32f4xx_can.c ****     [..] The 15 flags can be divided on 4 groups: 
1269:/home/rdu/Workspace/project_templates/mcu/stm32_ws/src/libraries/STM32F4xx_StdPeriph_Driver/src/stm32f4xx_can.c **** 
1270:/home/rdu/Workspace/project_templates/mcu/stm32_ws/src/libraries/STM32F4xx_StdPeriph_Driver/src/stm32f4xx_can.c ****       (+) Transmit Flags
1271:/home/rdu/Workspace/project_templates/mcu/stm32_ws/src/libraries/STM32F4xx_StdPeriph_Driver/src/stm32f4xx_can.c ****         (++) CAN_FLAG_RQCP0, 
1272:/home/rdu/Workspace/project_templates/mcu/stm32_ws/src/libraries/STM32F4xx_StdPeriph_Driver/src/stm32f4xx_can.c ****         (++) CAN_FLAG_RQCP1, 
1273:/home/rdu/Workspace/project_templates/mcu/stm32_ws/src/libraries/STM32F4xx_StdPeriph_Driver/src/stm32f4xx_can.c ****         (++) CAN_FLAG_RQCP2  : Request completed MailBoxes 0, 1 and 2  Flags
1274:/home/rdu/Workspace/project_templates/mcu/stm32_ws/src/libraries/STM32F4xx_StdPeriph_Driver/src/stm32f4xx_can.c ****                                Set when the last request (transmit or abort)
1275:/home/rdu/Workspace/project_templates/mcu/stm32_ws/src/libraries/STM32F4xx_StdPeriph_Driver/src/stm32f4xx_can.c ****                                has been performed. 
1276:/home/rdu/Workspace/project_templates/mcu/stm32_ws/src/libraries/STM32F4xx_StdPeriph_Driver/src/stm32f4xx_can.c **** 
1277:/home/rdu/Workspace/project_templates/mcu/stm32_ws/src/libraries/STM32F4xx_StdPeriph_Driver/src/stm32f4xx_can.c ****       (+) Receive Flags
1278:/home/rdu/Workspace/project_templates/mcu/stm32_ws/src/libraries/STM32F4xx_StdPeriph_Driver/src/stm32f4xx_can.c **** 
1279:/home/rdu/Workspace/project_templates/mcu/stm32_ws/src/libraries/STM32F4xx_StdPeriph_Driver/src/stm32f4xx_can.c **** 
1280:/home/rdu/Workspace/project_templates/mcu/stm32_ws/src/libraries/STM32F4xx_StdPeriph_Driver/src/stm32f4xx_can.c ****         (++) CAN_FLAG_FMP0,
1281:/home/rdu/Workspace/project_templates/mcu/stm32_ws/src/libraries/STM32F4xx_StdPeriph_Driver/src/stm32f4xx_can.c ****         (++) CAN_FLAG_FMP1   : FIFO 0 and 1 Message Pending Flags 
1282:/home/rdu/Workspace/project_templates/mcu/stm32_ws/src/libraries/STM32F4xx_StdPeriph_Driver/src/stm32f4xx_can.c ****                                set to signal that messages are pending in the receive 
1283:/home/rdu/Workspace/project_templates/mcu/stm32_ws/src/libraries/STM32F4xx_StdPeriph_Driver/src/stm32f4xx_can.c ****                                FIFO.
1284:/home/rdu/Workspace/project_templates/mcu/stm32_ws/src/libraries/STM32F4xx_StdPeriph_Driver/src/stm32f4xx_can.c ****                                These Flags are cleared only by hardware. 
1285:/home/rdu/Workspace/project_templates/mcu/stm32_ws/src/libraries/STM32F4xx_StdPeriph_Driver/src/stm32f4xx_can.c **** 
1286:/home/rdu/Workspace/project_templates/mcu/stm32_ws/src/libraries/STM32F4xx_StdPeriph_Driver/src/stm32f4xx_can.c ****         (++) CAN_FLAG_FF0,
1287:/home/rdu/Workspace/project_templates/mcu/stm32_ws/src/libraries/STM32F4xx_StdPeriph_Driver/src/stm32f4xx_can.c ****         (++) CAN_FLAG_FF1    : FIFO 0 and 1 Full Flags
1288:/home/rdu/Workspace/project_templates/mcu/stm32_ws/src/libraries/STM32F4xx_StdPeriph_Driver/src/stm32f4xx_can.c ****                                set when three messages are stored in the selected 
1289:/home/rdu/Workspace/project_templates/mcu/stm32_ws/src/libraries/STM32F4xx_StdPeriph_Driver/src/stm32f4xx_can.c ****                                FIFO.                        
1290:/home/rdu/Workspace/project_templates/mcu/stm32_ws/src/libraries/STM32F4xx_StdPeriph_Driver/src/stm32f4xx_can.c **** 
1291:/home/rdu/Workspace/project_templates/mcu/stm32_ws/src/libraries/STM32F4xx_StdPeriph_Driver/src/stm32f4xx_can.c ****         (++) CAN_FLAG_FOV0              
1292:/home/rdu/Workspace/project_templates/mcu/stm32_ws/src/libraries/STM32F4xx_StdPeriph_Driver/src/stm32f4xx_can.c ****         (++) CAN_FLAG_FOV1   : FIFO 0 and 1 Overrun Flags
1293:/home/rdu/Workspace/project_templates/mcu/stm32_ws/src/libraries/STM32F4xx_StdPeriph_Driver/src/stm32f4xx_can.c ****                                set when a new message has been received and passed 
1294:/home/rdu/Workspace/project_templates/mcu/stm32_ws/src/libraries/STM32F4xx_StdPeriph_Driver/src/stm32f4xx_can.c ****                                the filter while the FIFO was full.         
1295:/home/rdu/Workspace/project_templates/mcu/stm32_ws/src/libraries/STM32F4xx_StdPeriph_Driver/src/stm32f4xx_can.c **** 
1296:/home/rdu/Workspace/project_templates/mcu/stm32_ws/src/libraries/STM32F4xx_StdPeriph_Driver/src/stm32f4xx_can.c ****       (+) Operating Mode Flags
1297:/home/rdu/Workspace/project_templates/mcu/stm32_ws/src/libraries/STM32F4xx_StdPeriph_Driver/src/stm32f4xx_can.c **** 
1298:/home/rdu/Workspace/project_templates/mcu/stm32_ws/src/libraries/STM32F4xx_StdPeriph_Driver/src/stm32f4xx_can.c ****         (++) CAN_FLAG_WKU    : Wake up Flag
1299:/home/rdu/Workspace/project_templates/mcu/stm32_ws/src/libraries/STM32F4xx_StdPeriph_Driver/src/stm32f4xx_can.c ****                                set to signal that a SOF bit has been detected while 
1300:/home/rdu/Workspace/project_templates/mcu/stm32_ws/src/libraries/STM32F4xx_StdPeriph_Driver/src/stm32f4xx_can.c ****                                the CAN hardware was in Sleep mode. 
1301:/home/rdu/Workspace/project_templates/mcu/stm32_ws/src/libraries/STM32F4xx_StdPeriph_Driver/src/stm32f4xx_can.c ****         
1302:/home/rdu/Workspace/project_templates/mcu/stm32_ws/src/libraries/STM32F4xx_StdPeriph_Driver/src/stm32f4xx_can.c ****         (++) CAN_FLAG_SLAK   : Sleep acknowledge Flag
1303:/home/rdu/Workspace/project_templates/mcu/stm32_ws/src/libraries/STM32F4xx_StdPeriph_Driver/src/stm32f4xx_can.c ****                                Set to signal that the CAN has entered Sleep Mode. 
1304:/home/rdu/Workspace/project_templates/mcu/stm32_ws/src/libraries/STM32F4xx_StdPeriph_Driver/src/stm32f4xx_can.c ****     
1305:/home/rdu/Workspace/project_templates/mcu/stm32_ws/src/libraries/STM32F4xx_StdPeriph_Driver/src/stm32f4xx_can.c ****       (+) Error Flags
1306:/home/rdu/Workspace/project_templates/mcu/stm32_ws/src/libraries/STM32F4xx_StdPeriph_Driver/src/stm32f4xx_can.c **** 
1307:/home/rdu/Workspace/project_templates/mcu/stm32_ws/src/libraries/STM32F4xx_StdPeriph_Driver/src/stm32f4xx_can.c ****         (++) CAN_FLAG_EWG    : Error Warning Flag
1308:/home/rdu/Workspace/project_templates/mcu/stm32_ws/src/libraries/STM32F4xx_StdPeriph_Driver/src/stm32f4xx_can.c ****                                Set when the warning limit has been reached (Receive 
1309:/home/rdu/Workspace/project_templates/mcu/stm32_ws/src/libraries/STM32F4xx_StdPeriph_Driver/src/stm32f4xx_can.c ****                                Error Counter or Transmit Error Counter greater than 96). 
1310:/home/rdu/Workspace/project_templates/mcu/stm32_ws/src/libraries/STM32F4xx_StdPeriph_Driver/src/stm32f4xx_can.c ****                                This Flag is cleared only by hardware.
1311:/home/rdu/Workspace/project_templates/mcu/stm32_ws/src/libraries/STM32F4xx_StdPeriph_Driver/src/stm32f4xx_can.c ****                             
1312:/home/rdu/Workspace/project_templates/mcu/stm32_ws/src/libraries/STM32F4xx_StdPeriph_Driver/src/stm32f4xx_can.c ****         (++) CAN_FLAG_EPV    : Error Passive Flag
1313:/home/rdu/Workspace/project_templates/mcu/stm32_ws/src/libraries/STM32F4xx_StdPeriph_Driver/src/stm32f4xx_can.c ****                                Set when the Error Passive limit has been reached 
1314:/home/rdu/Workspace/project_templates/mcu/stm32_ws/src/libraries/STM32F4xx_StdPeriph_Driver/src/stm32f4xx_can.c ****                                (Receive Error Counter or Transmit Error Counter 
1315:/home/rdu/Workspace/project_templates/mcu/stm32_ws/src/libraries/STM32F4xx_StdPeriph_Driver/src/stm32f4xx_can.c ****                                greater than 127).
1316:/home/rdu/Workspace/project_templates/mcu/stm32_ws/src/libraries/STM32F4xx_StdPeriph_Driver/src/stm32f4xx_can.c ****                                This Flag is cleared only by hardware.
1317:/home/rdu/Workspace/project_templates/mcu/stm32_ws/src/libraries/STM32F4xx_StdPeriph_Driver/src/stm32f4xx_can.c ****                              
1318:/home/rdu/Workspace/project_templates/mcu/stm32_ws/src/libraries/STM32F4xx_StdPeriph_Driver/src/stm32f4xx_can.c ****         (++) CAN_FLAG_BOF    : Bus-Off Flag
1319:/home/rdu/Workspace/project_templates/mcu/stm32_ws/src/libraries/STM32F4xx_StdPeriph_Driver/src/stm32f4xx_can.c ****                                set when CAN enters the bus-off state. The bus-off 
1320:/home/rdu/Workspace/project_templates/mcu/stm32_ws/src/libraries/STM32F4xx_StdPeriph_Driver/src/stm32f4xx_can.c ****                                state is entered on TEC overflow, greater than 255.
1321:/home/rdu/Workspace/project_templates/mcu/stm32_ws/src/libraries/STM32F4xx_StdPeriph_Driver/src/stm32f4xx_can.c ****                                This Flag is cleared only by hardware.
1322:/home/rdu/Workspace/project_templates/mcu/stm32_ws/src/libraries/STM32F4xx_StdPeriph_Driver/src/stm32f4xx_can.c ****                                    
1323:/home/rdu/Workspace/project_templates/mcu/stm32_ws/src/libraries/STM32F4xx_StdPeriph_Driver/src/stm32f4xx_can.c ****         (++) CAN_FLAG_LEC    : Last error code Flag
1324:/home/rdu/Workspace/project_templates/mcu/stm32_ws/src/libraries/STM32F4xx_StdPeriph_Driver/src/stm32f4xx_can.c ****                                set If a message has been transferred (reception or
1325:/home/rdu/Workspace/project_templates/mcu/stm32_ws/src/libraries/STM32F4xx_StdPeriph_Driver/src/stm32f4xx_can.c ****                                transmission) with error, and the error code is hold.              
1326:/home/rdu/Workspace/project_templates/mcu/stm32_ws/src/libraries/STM32F4xx_StdPeriph_Driver/src/stm32f4xx_can.c ****                            
1327:/home/rdu/Workspace/project_templates/mcu/stm32_ws/src/libraries/STM32F4xx_StdPeriph_Driver/src/stm32f4xx_can.c ****   *** Interrupts ***
1328:/home/rdu/Workspace/project_templates/mcu/stm32_ws/src/libraries/STM32F4xx_StdPeriph_Driver/src/stm32f4xx_can.c ****   ==================
1329:/home/rdu/Workspace/project_templates/mcu/stm32_ws/src/libraries/STM32F4xx_StdPeriph_Driver/src/stm32f4xx_can.c ****     [..] The 14 interrupts can be divided on 4 groups: 
1330:/home/rdu/Workspace/project_templates/mcu/stm32_ws/src/libraries/STM32F4xx_StdPeriph_Driver/src/stm32f4xx_can.c ****   
1331:/home/rdu/Workspace/project_templates/mcu/stm32_ws/src/libraries/STM32F4xx_StdPeriph_Driver/src/stm32f4xx_can.c ****       (+) Transmit interrupt
1332:/home/rdu/Workspace/project_templates/mcu/stm32_ws/src/libraries/STM32F4xx_StdPeriph_Driver/src/stm32f4xx_can.c ****   
1333:/home/rdu/Workspace/project_templates/mcu/stm32_ws/src/libraries/STM32F4xx_StdPeriph_Driver/src/stm32f4xx_can.c ****         (++) CAN_IT_TME   :  Transmit mailbox empty Interrupt
1334:/home/rdu/Workspace/project_templates/mcu/stm32_ws/src/libraries/STM32F4xx_StdPeriph_Driver/src/stm32f4xx_can.c ****                              if enabled, this interrupt source is pending when 
1335:/home/rdu/Workspace/project_templates/mcu/stm32_ws/src/libraries/STM32F4xx_StdPeriph_Driver/src/stm32f4xx_can.c ****                              no transmit request are pending for Tx mailboxes.      
1336:/home/rdu/Workspace/project_templates/mcu/stm32_ws/src/libraries/STM32F4xx_StdPeriph_Driver/src/stm32f4xx_can.c **** 
1337:/home/rdu/Workspace/project_templates/mcu/stm32_ws/src/libraries/STM32F4xx_StdPeriph_Driver/src/stm32f4xx_can.c ****       (+) Receive Interrupts
1338:/home/rdu/Workspace/project_templates/mcu/stm32_ws/src/libraries/STM32F4xx_StdPeriph_Driver/src/stm32f4xx_can.c ****          
1339:/home/rdu/Workspace/project_templates/mcu/stm32_ws/src/libraries/STM32F4xx_StdPeriph_Driver/src/stm32f4xx_can.c ****         (++) CAN_IT_FMP0,
1340:/home/rdu/Workspace/project_templates/mcu/stm32_ws/src/libraries/STM32F4xx_StdPeriph_Driver/src/stm32f4xx_can.c ****         (++) CAN_IT_FMP1    :  FIFO 0 and FIFO1 message pending Interrupts
1341:/home/rdu/Workspace/project_templates/mcu/stm32_ws/src/libraries/STM32F4xx_StdPeriph_Driver/src/stm32f4xx_can.c ****                                if enabled, these interrupt sources are pending 
1342:/home/rdu/Workspace/project_templates/mcu/stm32_ws/src/libraries/STM32F4xx_StdPeriph_Driver/src/stm32f4xx_can.c ****                                when messages are pending in the receive FIFO.
1343:/home/rdu/Workspace/project_templates/mcu/stm32_ws/src/libraries/STM32F4xx_StdPeriph_Driver/src/stm32f4xx_can.c ****                                The corresponding interrupt pending bits are cleared 
1344:/home/rdu/Workspace/project_templates/mcu/stm32_ws/src/libraries/STM32F4xx_StdPeriph_Driver/src/stm32f4xx_can.c ****                                only by hardware.
1345:/home/rdu/Workspace/project_templates/mcu/stm32_ws/src/libraries/STM32F4xx_StdPeriph_Driver/src/stm32f4xx_can.c ****                 
1346:/home/rdu/Workspace/project_templates/mcu/stm32_ws/src/libraries/STM32F4xx_StdPeriph_Driver/src/stm32f4xx_can.c ****         (++) CAN_IT_FF0,              
1347:/home/rdu/Workspace/project_templates/mcu/stm32_ws/src/libraries/STM32F4xx_StdPeriph_Driver/src/stm32f4xx_can.c ****         (++) CAN_IT_FF1     :  FIFO 0 and FIFO1 full Interrupts
1348:/home/rdu/Workspace/project_templates/mcu/stm32_ws/src/libraries/STM32F4xx_StdPeriph_Driver/src/stm32f4xx_can.c ****                                if enabled, these interrupt sources are pending 
1349:/home/rdu/Workspace/project_templates/mcu/stm32_ws/src/libraries/STM32F4xx_StdPeriph_Driver/src/stm32f4xx_can.c ****                                when three messages are stored in the selected FIFO.
1350:/home/rdu/Workspace/project_templates/mcu/stm32_ws/src/libraries/STM32F4xx_StdPeriph_Driver/src/stm32f4xx_can.c ****         
1351:/home/rdu/Workspace/project_templates/mcu/stm32_ws/src/libraries/STM32F4xx_StdPeriph_Driver/src/stm32f4xx_can.c ****         (++) CAN_IT_FOV0,        
1352:/home/rdu/Workspace/project_templates/mcu/stm32_ws/src/libraries/STM32F4xx_StdPeriph_Driver/src/stm32f4xx_can.c ****         (++) CAN_IT_FOV1    :  FIFO 0 and FIFO1 overrun Interrupts        
1353:/home/rdu/Workspace/project_templates/mcu/stm32_ws/src/libraries/STM32F4xx_StdPeriph_Driver/src/stm32f4xx_can.c ****                                if enabled, these interrupt sources are pending 
1354:/home/rdu/Workspace/project_templates/mcu/stm32_ws/src/libraries/STM32F4xx_StdPeriph_Driver/src/stm32f4xx_can.c ****                                when a new message has been received and passed 
1355:/home/rdu/Workspace/project_templates/mcu/stm32_ws/src/libraries/STM32F4xx_StdPeriph_Driver/src/stm32f4xx_can.c ****                                the filter while the FIFO was full.
1356:/home/rdu/Workspace/project_templates/mcu/stm32_ws/src/libraries/STM32F4xx_StdPeriph_Driver/src/stm32f4xx_can.c **** 
1357:/home/rdu/Workspace/project_templates/mcu/stm32_ws/src/libraries/STM32F4xx_StdPeriph_Driver/src/stm32f4xx_can.c ****       (+) Operating Mode Interrupts
1358:/home/rdu/Workspace/project_templates/mcu/stm32_ws/src/libraries/STM32F4xx_StdPeriph_Driver/src/stm32f4xx_can.c ****          
1359:/home/rdu/Workspace/project_templates/mcu/stm32_ws/src/libraries/STM32F4xx_StdPeriph_Driver/src/stm32f4xx_can.c ****         (++) CAN_IT_WKU     :  Wake-up Interrupt
1360:/home/rdu/Workspace/project_templates/mcu/stm32_ws/src/libraries/STM32F4xx_StdPeriph_Driver/src/stm32f4xx_can.c ****                                if enabled, this interrupt source is pending when 
1361:/home/rdu/Workspace/project_templates/mcu/stm32_ws/src/libraries/STM32F4xx_StdPeriph_Driver/src/stm32f4xx_can.c ****                                a SOF bit has been detected while the CAN hardware 
1362:/home/rdu/Workspace/project_templates/mcu/stm32_ws/src/libraries/STM32F4xx_StdPeriph_Driver/src/stm32f4xx_can.c ****                                was in Sleep mode.
1363:/home/rdu/Workspace/project_templates/mcu/stm32_ws/src/libraries/STM32F4xx_StdPeriph_Driver/src/stm32f4xx_can.c ****                                   
1364:/home/rdu/Workspace/project_templates/mcu/stm32_ws/src/libraries/STM32F4xx_StdPeriph_Driver/src/stm32f4xx_can.c ****         (++) CAN_IT_SLK     :  Sleep acknowledge Interrupt
1365:/home/rdu/Workspace/project_templates/mcu/stm32_ws/src/libraries/STM32F4xx_StdPeriph_Driver/src/stm32f4xx_can.c ****                                if enabled, this interrupt source is pending when 
1366:/home/rdu/Workspace/project_templates/mcu/stm32_ws/src/libraries/STM32F4xx_StdPeriph_Driver/src/stm32f4xx_can.c ****                                the CAN has entered Sleep Mode.       
1367:/home/rdu/Workspace/project_templates/mcu/stm32_ws/src/libraries/STM32F4xx_StdPeriph_Driver/src/stm32f4xx_can.c **** 
1368:/home/rdu/Workspace/project_templates/mcu/stm32_ws/src/libraries/STM32F4xx_StdPeriph_Driver/src/stm32f4xx_can.c ****       (+) Error Interrupts 
1369:/home/rdu/Workspace/project_templates/mcu/stm32_ws/src/libraries/STM32F4xx_StdPeriph_Driver/src/stm32f4xx_can.c ****         
1370:/home/rdu/Workspace/project_templates/mcu/stm32_ws/src/libraries/STM32F4xx_StdPeriph_Driver/src/stm32f4xx_can.c ****         (++) CAN_IT_EWG     :  Error warning Interrupt 
1371:/home/rdu/Workspace/project_templates/mcu/stm32_ws/src/libraries/STM32F4xx_StdPeriph_Driver/src/stm32f4xx_can.c ****                                if enabled, this interrupt source is pending when
1372:/home/rdu/Workspace/project_templates/mcu/stm32_ws/src/libraries/STM32F4xx_StdPeriph_Driver/src/stm32f4xx_can.c ****                                the warning limit has been reached (Receive Error 
1373:/home/rdu/Workspace/project_templates/mcu/stm32_ws/src/libraries/STM32F4xx_StdPeriph_Driver/src/stm32f4xx_can.c ****                                Counter or Transmit Error Counter=96). 
1374:/home/rdu/Workspace/project_templates/mcu/stm32_ws/src/libraries/STM32F4xx_StdPeriph_Driver/src/stm32f4xx_can.c ****                                
1375:/home/rdu/Workspace/project_templates/mcu/stm32_ws/src/libraries/STM32F4xx_StdPeriph_Driver/src/stm32f4xx_can.c ****         (++) CAN_IT_EPV     :  Error passive Interrupt        
1376:/home/rdu/Workspace/project_templates/mcu/stm32_ws/src/libraries/STM32F4xx_StdPeriph_Driver/src/stm32f4xx_can.c ****                                if enabled, this interrupt source is pending when
1377:/home/rdu/Workspace/project_templates/mcu/stm32_ws/src/libraries/STM32F4xx_StdPeriph_Driver/src/stm32f4xx_can.c ****                                the Error Passive limit has been reached (Receive 
1378:/home/rdu/Workspace/project_templates/mcu/stm32_ws/src/libraries/STM32F4xx_StdPeriph_Driver/src/stm32f4xx_can.c ****                                Error Counter or Transmit Error Counter>127).
1379:/home/rdu/Workspace/project_templates/mcu/stm32_ws/src/libraries/STM32F4xx_StdPeriph_Driver/src/stm32f4xx_can.c ****                           
1380:/home/rdu/Workspace/project_templates/mcu/stm32_ws/src/libraries/STM32F4xx_StdPeriph_Driver/src/stm32f4xx_can.c ****         (++) CAN_IT_BOF     :  Bus-off Interrupt
1381:/home/rdu/Workspace/project_templates/mcu/stm32_ws/src/libraries/STM32F4xx_StdPeriph_Driver/src/stm32f4xx_can.c ****                                if enabled, this interrupt source is pending when
1382:/home/rdu/Workspace/project_templates/mcu/stm32_ws/src/libraries/STM32F4xx_StdPeriph_Driver/src/stm32f4xx_can.c ****                                CAN enters the bus-off state. The bus-off state is 
1383:/home/rdu/Workspace/project_templates/mcu/stm32_ws/src/libraries/STM32F4xx_StdPeriph_Driver/src/stm32f4xx_can.c ****                                entered on TEC overflow, greater than 255.
1384:/home/rdu/Workspace/project_templates/mcu/stm32_ws/src/libraries/STM32F4xx_StdPeriph_Driver/src/stm32f4xx_can.c ****                                This Flag is cleared only by hardware.
1385:/home/rdu/Workspace/project_templates/mcu/stm32_ws/src/libraries/STM32F4xx_StdPeriph_Driver/src/stm32f4xx_can.c ****                                   
1386:/home/rdu/Workspace/project_templates/mcu/stm32_ws/src/libraries/STM32F4xx_StdPeriph_Driver/src/stm32f4xx_can.c ****         (++) CAN_IT_LEC     :  Last error code Interrupt        
1387:/home/rdu/Workspace/project_templates/mcu/stm32_ws/src/libraries/STM32F4xx_StdPeriph_Driver/src/stm32f4xx_can.c ****                                if enabled, this interrupt source is pending  when
1388:/home/rdu/Workspace/project_templates/mcu/stm32_ws/src/libraries/STM32F4xx_StdPeriph_Driver/src/stm32f4xx_can.c ****                                a message has been transferred (reception or
1389:/home/rdu/Workspace/project_templates/mcu/stm32_ws/src/libraries/STM32F4xx_StdPeriph_Driver/src/stm32f4xx_can.c ****                                transmission) with error, and the error code is hold.
1390:/home/rdu/Workspace/project_templates/mcu/stm32_ws/src/libraries/STM32F4xx_StdPeriph_Driver/src/stm32f4xx_can.c ****                           
1391:/home/rdu/Workspace/project_templates/mcu/stm32_ws/src/libraries/STM32F4xx_StdPeriph_Driver/src/stm32f4xx_can.c ****         (++) CAN_IT_ERR     :  Error Interrupt
1392:/home/rdu/Workspace/project_templates/mcu/stm32_ws/src/libraries/STM32F4xx_StdPeriph_Driver/src/stm32f4xx_can.c ****                                if enabled, this interrupt source is pending when 
1393:/home/rdu/Workspace/project_templates/mcu/stm32_ws/src/libraries/STM32F4xx_StdPeriph_Driver/src/stm32f4xx_can.c ****                                an error condition is pending.      
1394:/home/rdu/Workspace/project_templates/mcu/stm32_ws/src/libraries/STM32F4xx_StdPeriph_Driver/src/stm32f4xx_can.c ****                       
1395:/home/rdu/Workspace/project_templates/mcu/stm32_ws/src/libraries/STM32F4xx_StdPeriph_Driver/src/stm32f4xx_can.c ****     [..] Managing the CAN controller events :
1396:/home/rdu/Workspace/project_templates/mcu/stm32_ws/src/libraries/STM32F4xx_StdPeriph_Driver/src/stm32f4xx_can.c ****  
1397:/home/rdu/Workspace/project_templates/mcu/stm32_ws/src/libraries/STM32F4xx_StdPeriph_Driver/src/stm32f4xx_can.c ****          The user should identify which mode will be used in his application to 
1398:/home/rdu/Workspace/project_templates/mcu/stm32_ws/src/libraries/STM32F4xx_StdPeriph_Driver/src/stm32f4xx_can.c ****          manage the CAN controller events: Polling mode or Interrupt mode.
1399:/home/rdu/Workspace/project_templates/mcu/stm32_ws/src/libraries/STM32F4xx_StdPeriph_Driver/src/stm32f4xx_can.c ****   
1400:/home/rdu/Workspace/project_templates/mcu/stm32_ws/src/libraries/STM32F4xx_StdPeriph_Driver/src/stm32f4xx_can.c ****       (#) In the Polling Mode it is advised to use the following functions:
1401:/home/rdu/Workspace/project_templates/mcu/stm32_ws/src/libraries/STM32F4xx_StdPeriph_Driver/src/stm32f4xx_can.c ****         (++) CAN_GetFlagStatus() : to check if flags events occur. 
1402:/home/rdu/Workspace/project_templates/mcu/stm32_ws/src/libraries/STM32F4xx_StdPeriph_Driver/src/stm32f4xx_can.c ****         (++) CAN_ClearFlag()     : to clear the flags events.
1403:/home/rdu/Workspace/project_templates/mcu/stm32_ws/src/libraries/STM32F4xx_StdPeriph_Driver/src/stm32f4xx_can.c ****   
1404:/home/rdu/Workspace/project_templates/mcu/stm32_ws/src/libraries/STM32F4xx_StdPeriph_Driver/src/stm32f4xx_can.c **** 
1405:/home/rdu/Workspace/project_templates/mcu/stm32_ws/src/libraries/STM32F4xx_StdPeriph_Driver/src/stm32f4xx_can.c ****   
1406:/home/rdu/Workspace/project_templates/mcu/stm32_ws/src/libraries/STM32F4xx_StdPeriph_Driver/src/stm32f4xx_can.c ****       (#) In the Interrupt Mode it is advised to use the following functions:
1407:/home/rdu/Workspace/project_templates/mcu/stm32_ws/src/libraries/STM32F4xx_StdPeriph_Driver/src/stm32f4xx_can.c ****         (++) CAN_ITConfig()       : to enable or disable the interrupt source.
1408:/home/rdu/Workspace/project_templates/mcu/stm32_ws/src/libraries/STM32F4xx_StdPeriph_Driver/src/stm32f4xx_can.c ****         (++) CAN_GetITStatus()    : to check if Interrupt occurs.
1409:/home/rdu/Workspace/project_templates/mcu/stm32_ws/src/libraries/STM32F4xx_StdPeriph_Driver/src/stm32f4xx_can.c ****         (++) CAN_ClearITPendingBit() : to clear the Interrupt pending Bit 
1410:/home/rdu/Workspace/project_templates/mcu/stm32_ws/src/libraries/STM32F4xx_StdPeriph_Driver/src/stm32f4xx_can.c ****             (corresponding Flag).
1411:/home/rdu/Workspace/project_templates/mcu/stm32_ws/src/libraries/STM32F4xx_StdPeriph_Driver/src/stm32f4xx_can.c ****         -@@-  This function has no impact on CAN_IT_FMP0 and CAN_IT_FMP1 Interrupts 
1412:/home/rdu/Workspace/project_templates/mcu/stm32_ws/src/libraries/STM32F4xx_StdPeriph_Driver/src/stm32f4xx_can.c ****              pending bits since there are cleared only by hardware. 
1413:/home/rdu/Workspace/project_templates/mcu/stm32_ws/src/libraries/STM32F4xx_StdPeriph_Driver/src/stm32f4xx_can.c ****   
1414:/home/rdu/Workspace/project_templates/mcu/stm32_ws/src/libraries/STM32F4xx_StdPeriph_Driver/src/stm32f4xx_can.c **** @endverbatim
1415:/home/rdu/Workspace/project_templates/mcu/stm32_ws/src/libraries/STM32F4xx_StdPeriph_Driver/src/stm32f4xx_can.c ****   * @{
1416:/home/rdu/Workspace/project_templates/mcu/stm32_ws/src/libraries/STM32F4xx_StdPeriph_Driver/src/stm32f4xx_can.c ****   */ 
1417:/home/rdu/Workspace/project_templates/mcu/stm32_ws/src/libraries/STM32F4xx_StdPeriph_Driver/src/stm32f4xx_can.c **** /**
1418:/home/rdu/Workspace/project_templates/mcu/stm32_ws/src/libraries/STM32F4xx_StdPeriph_Driver/src/stm32f4xx_can.c ****   * @brief  Enables or disables the specified CANx interrupts.
1419:/home/rdu/Workspace/project_templates/mcu/stm32_ws/src/libraries/STM32F4xx_StdPeriph_Driver/src/stm32f4xx_can.c ****   * @param  CANx: where x can be 1,2 or 3 to select the CAN peripheral.
1420:/home/rdu/Workspace/project_templates/mcu/stm32_ws/src/libraries/STM32F4xx_StdPeriph_Driver/src/stm32f4xx_can.c ****   * @param  CAN_IT: specifies the CAN interrupt sources to be enabled or disabled.
1421:/home/rdu/Workspace/project_templates/mcu/stm32_ws/src/libraries/STM32F4xx_StdPeriph_Driver/src/stm32f4xx_can.c ****   *          This parameter can be: 
1422:/home/rdu/Workspace/project_templates/mcu/stm32_ws/src/libraries/STM32F4xx_StdPeriph_Driver/src/stm32f4xx_can.c ****   *            @arg CAN_IT_TME: Transmit mailbox empty Interrupt 
1423:/home/rdu/Workspace/project_templates/mcu/stm32_ws/src/libraries/STM32F4xx_StdPeriph_Driver/src/stm32f4xx_can.c ****   *            @arg CAN_IT_FMP0: FIFO 0 message pending Interrupt 
1424:/home/rdu/Workspace/project_templates/mcu/stm32_ws/src/libraries/STM32F4xx_StdPeriph_Driver/src/stm32f4xx_can.c ****   *            @arg CAN_IT_FF0: FIFO 0 full Interrupt
1425:/home/rdu/Workspace/project_templates/mcu/stm32_ws/src/libraries/STM32F4xx_StdPeriph_Driver/src/stm32f4xx_can.c ****   *            @arg CAN_IT_FOV0: FIFO 0 overrun Interrupt
1426:/home/rdu/Workspace/project_templates/mcu/stm32_ws/src/libraries/STM32F4xx_StdPeriph_Driver/src/stm32f4xx_can.c ****   *            @arg CAN_IT_FMP1: FIFO 1 message pending Interrupt 
1427:/home/rdu/Workspace/project_templates/mcu/stm32_ws/src/libraries/STM32F4xx_StdPeriph_Driver/src/stm32f4xx_can.c ****   *            @arg CAN_IT_FF1: FIFO 1 full Interrupt
1428:/home/rdu/Workspace/project_templates/mcu/stm32_ws/src/libraries/STM32F4xx_StdPeriph_Driver/src/stm32f4xx_can.c ****   *            @arg CAN_IT_FOV1: FIFO 1 overrun Interrupt
1429:/home/rdu/Workspace/project_templates/mcu/stm32_ws/src/libraries/STM32F4xx_StdPeriph_Driver/src/stm32f4xx_can.c ****   *            @arg CAN_IT_WKU: Wake-up Interrupt
1430:/home/rdu/Workspace/project_templates/mcu/stm32_ws/src/libraries/STM32F4xx_StdPeriph_Driver/src/stm32f4xx_can.c ****   *            @arg CAN_IT_SLK: Sleep acknowledge Interrupt  
1431:/home/rdu/Workspace/project_templates/mcu/stm32_ws/src/libraries/STM32F4xx_StdPeriph_Driver/src/stm32f4xx_can.c ****   *            @arg CAN_IT_EWG: Error warning Interrupt
1432:/home/rdu/Workspace/project_templates/mcu/stm32_ws/src/libraries/STM32F4xx_StdPeriph_Driver/src/stm32f4xx_can.c ****   *            @arg CAN_IT_EPV: Error passive Interrupt
1433:/home/rdu/Workspace/project_templates/mcu/stm32_ws/src/libraries/STM32F4xx_StdPeriph_Driver/src/stm32f4xx_can.c ****   *            @arg CAN_IT_BOF: Bus-off Interrupt  
1434:/home/rdu/Workspace/project_templates/mcu/stm32_ws/src/libraries/STM32F4xx_StdPeriph_Driver/src/stm32f4xx_can.c ****   *            @arg CAN_IT_LEC: Last error code Interrupt
1435:/home/rdu/Workspace/project_templates/mcu/stm32_ws/src/libraries/STM32F4xx_StdPeriph_Driver/src/stm32f4xx_can.c ****   *            @arg CAN_IT_ERR: Error Interrupt
1436:/home/rdu/Workspace/project_templates/mcu/stm32_ws/src/libraries/STM32F4xx_StdPeriph_Driver/src/stm32f4xx_can.c ****   * @param  NewState: new state of the CAN interrupts.
1437:/home/rdu/Workspace/project_templates/mcu/stm32_ws/src/libraries/STM32F4xx_StdPeriph_Driver/src/stm32f4xx_can.c ****   * @note   CAN3 peripheral is available only for STM32F413_423xx devices
1438:/home/rdu/Workspace/project_templates/mcu/stm32_ws/src/libraries/STM32F4xx_StdPeriph_Driver/src/stm32f4xx_can.c ****   *          This parameter can be: ENABLE or DISABLE.
1439:/home/rdu/Workspace/project_templates/mcu/stm32_ws/src/libraries/STM32F4xx_StdPeriph_Driver/src/stm32f4xx_can.c ****   * @retval None
1440:/home/rdu/Workspace/project_templates/mcu/stm32_ws/src/libraries/STM32F4xx_StdPeriph_Driver/src/stm32f4xx_can.c ****   */
1441:/home/rdu/Workspace/project_templates/mcu/stm32_ws/src/libraries/STM32F4xx_StdPeriph_Driver/src/stm32f4xx_can.c **** void CAN_ITConfig(CAN_TypeDef* CANx, uint32_t CAN_IT, FunctionalState NewState)
1442:/home/rdu/Workspace/project_templates/mcu/stm32_ws/src/libraries/STM32F4xx_StdPeriph_Driver/src/stm32f4xx_can.c **** {
 2123              		.loc 1 1442 0
 2124              		.cfi_startproc
 2125              		@ args = 0, pretend = 0, frame = 16
 2126              		@ frame_needed = 0, uses_anonymous_args = 0
 2127              		@ link register save eliminated.
 2128 0000 84B0     		sub	sp, sp, #16
 2129              	.LCFI41:
 2130              		.cfi_def_cfa_offset 16
 2131 0002 0390     		str	r0, [sp, #12]
 2132 0004 0291     		str	r1, [sp, #8]
 2133 0006 1346     		mov	r3, r2
 2134 0008 8DF80730 		strb	r3, [sp, #7]
1443:/home/rdu/Workspace/project_templates/mcu/stm32_ws/src/libraries/STM32F4xx_StdPeriph_Driver/src/stm32f4xx_can.c ****   /* Check the parameters */
1444:/home/rdu/Workspace/project_templates/mcu/stm32_ws/src/libraries/STM32F4xx_StdPeriph_Driver/src/stm32f4xx_can.c ****   assert_param(IS_CAN_ALL_PERIPH(CANx));
1445:/home/rdu/Workspace/project_templates/mcu/stm32_ws/src/libraries/STM32F4xx_StdPeriph_Driver/src/stm32f4xx_can.c ****   assert_param(IS_CAN_IT(CAN_IT));
1446:/home/rdu/Workspace/project_templates/mcu/stm32_ws/src/libraries/STM32F4xx_StdPeriph_Driver/src/stm32f4xx_can.c ****   assert_param(IS_FUNCTIONAL_STATE(NewState));
1447:/home/rdu/Workspace/project_templates/mcu/stm32_ws/src/libraries/STM32F4xx_StdPeriph_Driver/src/stm32f4xx_can.c **** 
1448:/home/rdu/Workspace/project_templates/mcu/stm32_ws/src/libraries/STM32F4xx_StdPeriph_Driver/src/stm32f4xx_can.c ****   if (NewState != DISABLE)
 2135              		.loc 1 1448 0
 2136 000c 9DF80730 		ldrb	r3, [sp, #7]	@ zero_extendqisi2
 2137 0010 002B     		cmp	r3, #0
 2138 0012 06D0     		beq	.L139
1449:/home/rdu/Workspace/project_templates/mcu/stm32_ws/src/libraries/STM32F4xx_StdPeriph_Driver/src/stm32f4xx_can.c ****   {
1450:/home/rdu/Workspace/project_templates/mcu/stm32_ws/src/libraries/STM32F4xx_StdPeriph_Driver/src/stm32f4xx_can.c ****     /* Enable the selected CANx interrupt */
1451:/home/rdu/Workspace/project_templates/mcu/stm32_ws/src/libraries/STM32F4xx_StdPeriph_Driver/src/stm32f4xx_can.c ****     CANx->IER |= CAN_IT;
 2139              		.loc 1 1451 0
 2140 0014 039B     		ldr	r3, [sp, #12]
 2141 0016 5A69     		ldr	r2, [r3, #20]
 2142 0018 029B     		ldr	r3, [sp, #8]
 2143 001a 1A43     		orrs	r2, r2, r3
 2144 001c 039B     		ldr	r3, [sp, #12]
 2145 001e 5A61     		str	r2, [r3, #20]
1452:/home/rdu/Workspace/project_templates/mcu/stm32_ws/src/libraries/STM32F4xx_StdPeriph_Driver/src/stm32f4xx_can.c ****   }
1453:/home/rdu/Workspace/project_templates/mcu/stm32_ws/src/libraries/STM32F4xx_StdPeriph_Driver/src/stm32f4xx_can.c ****   else
1454:/home/rdu/Workspace/project_templates/mcu/stm32_ws/src/libraries/STM32F4xx_StdPeriph_Driver/src/stm32f4xx_can.c ****   {
1455:/home/rdu/Workspace/project_templates/mcu/stm32_ws/src/libraries/STM32F4xx_StdPeriph_Driver/src/stm32f4xx_can.c ****     /* Disable the selected CANx interrupt */
1456:/home/rdu/Workspace/project_templates/mcu/stm32_ws/src/libraries/STM32F4xx_StdPeriph_Driver/src/stm32f4xx_can.c ****     CANx->IER &= ~CAN_IT;
1457:/home/rdu/Workspace/project_templates/mcu/stm32_ws/src/libraries/STM32F4xx_StdPeriph_Driver/src/stm32f4xx_can.c ****   }
1458:/home/rdu/Workspace/project_templates/mcu/stm32_ws/src/libraries/STM32F4xx_StdPeriph_Driver/src/stm32f4xx_can.c **** }
 2146              		.loc 1 1458 0
 2147 0020 06E0     		b	.L141
 2148              	.L139:
1456:/home/rdu/Workspace/project_templates/mcu/stm32_ws/src/libraries/STM32F4xx_StdPeriph_Driver/src/stm32f4xx_can.c ****   }
 2149              		.loc 1 1456 0
 2150 0022 039B     		ldr	r3, [sp, #12]
 2151 0024 5A69     		ldr	r2, [r3, #20]
 2152 0026 029B     		ldr	r3, [sp, #8]
 2153 0028 DB43     		mvns	r3, r3
 2154 002a 1A40     		ands	r2, r2, r3
 2155 002c 039B     		ldr	r3, [sp, #12]
 2156 002e 5A61     		str	r2, [r3, #20]
 2157              	.L141:
 2158              		.loc 1 1458 0
 2159 0030 00BF     		nop
 2160 0032 04B0     		add	sp, sp, #16
 2161              	.LCFI42:
 2162              		.cfi_def_cfa_offset 0
 2163              		@ sp needed
 2164 0034 7047     		bx	lr
 2165              		.cfi_endproc
 2166              	.LFE142:
 2168              		.section	.text.CAN_GetFlagStatus,"ax",%progbits
 2169              		.align	1
 2170              		.global	CAN_GetFlagStatus
 2171              		.syntax unified
 2172              		.thumb
 2173              		.thumb_func
 2174              		.fpu fpv4-sp-d16
 2176              	CAN_GetFlagStatus:
 2177              	.LFB143:
1459:/home/rdu/Workspace/project_templates/mcu/stm32_ws/src/libraries/STM32F4xx_StdPeriph_Driver/src/stm32f4xx_can.c **** /**
1460:/home/rdu/Workspace/project_templates/mcu/stm32_ws/src/libraries/STM32F4xx_StdPeriph_Driver/src/stm32f4xx_can.c ****   * @brief  Checks whether the specified CAN flag is set or not.
1461:/home/rdu/Workspace/project_templates/mcu/stm32_ws/src/libraries/STM32F4xx_StdPeriph_Driver/src/stm32f4xx_can.c ****   * @param  CANx: where x can be 1,2 or 3 to select the CAN peripheral.
1462:/home/rdu/Workspace/project_templates/mcu/stm32_ws/src/libraries/STM32F4xx_StdPeriph_Driver/src/stm32f4xx_can.c ****   * @param  CAN_FLAG: specifies the flag to check.
1463:/home/rdu/Workspace/project_templates/mcu/stm32_ws/src/libraries/STM32F4xx_StdPeriph_Driver/src/stm32f4xx_can.c ****   *          This parameter can be one of the following values:
1464:/home/rdu/Workspace/project_templates/mcu/stm32_ws/src/libraries/STM32F4xx_StdPeriph_Driver/src/stm32f4xx_can.c ****   *            @arg CAN_FLAG_RQCP0: Request MailBox0 Flag
1465:/home/rdu/Workspace/project_templates/mcu/stm32_ws/src/libraries/STM32F4xx_StdPeriph_Driver/src/stm32f4xx_can.c ****   *            @arg CAN_FLAG_RQCP1: Request MailBox1 Flag
1466:/home/rdu/Workspace/project_templates/mcu/stm32_ws/src/libraries/STM32F4xx_StdPeriph_Driver/src/stm32f4xx_can.c ****   *            @arg CAN_FLAG_RQCP2: Request MailBox2 Flag
1467:/home/rdu/Workspace/project_templates/mcu/stm32_ws/src/libraries/STM32F4xx_StdPeriph_Driver/src/stm32f4xx_can.c ****   *            @arg CAN_FLAG_FMP0: FIFO 0 Message Pending Flag   
1468:/home/rdu/Workspace/project_templates/mcu/stm32_ws/src/libraries/STM32F4xx_StdPeriph_Driver/src/stm32f4xx_can.c ****   *            @arg CAN_FLAG_FF0: FIFO 0 Full Flag       
1469:/home/rdu/Workspace/project_templates/mcu/stm32_ws/src/libraries/STM32F4xx_StdPeriph_Driver/src/stm32f4xx_can.c ****   *            @arg CAN_FLAG_FOV0: FIFO 0 Overrun Flag 
1470:/home/rdu/Workspace/project_templates/mcu/stm32_ws/src/libraries/STM32F4xx_StdPeriph_Driver/src/stm32f4xx_can.c ****   *            @arg CAN_FLAG_FMP1: FIFO 1 Message Pending Flag   
1471:/home/rdu/Workspace/project_templates/mcu/stm32_ws/src/libraries/STM32F4xx_StdPeriph_Driver/src/stm32f4xx_can.c ****   *            @arg CAN_FLAG_FF1: FIFO 1 Full Flag        
1472:/home/rdu/Workspace/project_templates/mcu/stm32_ws/src/libraries/STM32F4xx_StdPeriph_Driver/src/stm32f4xx_can.c ****   *            @arg CAN_FLAG_FOV1: FIFO 1 Overrun Flag     
1473:/home/rdu/Workspace/project_templates/mcu/stm32_ws/src/libraries/STM32F4xx_StdPeriph_Driver/src/stm32f4xx_can.c ****   *            @arg CAN_FLAG_WKU: Wake up Flag
1474:/home/rdu/Workspace/project_templates/mcu/stm32_ws/src/libraries/STM32F4xx_StdPeriph_Driver/src/stm32f4xx_can.c ****   *            @arg CAN_FLAG_SLAK: Sleep acknowledge Flag 
1475:/home/rdu/Workspace/project_templates/mcu/stm32_ws/src/libraries/STM32F4xx_StdPeriph_Driver/src/stm32f4xx_can.c ****   *            @arg CAN_FLAG_EWG: Error Warning Flag
1476:/home/rdu/Workspace/project_templates/mcu/stm32_ws/src/libraries/STM32F4xx_StdPeriph_Driver/src/stm32f4xx_can.c ****   *            @arg CAN_FLAG_EPV: Error Passive Flag  
1477:/home/rdu/Workspace/project_templates/mcu/stm32_ws/src/libraries/STM32F4xx_StdPeriph_Driver/src/stm32f4xx_can.c ****   *            @arg CAN_FLAG_BOF: Bus-Off Flag    
1478:/home/rdu/Workspace/project_templates/mcu/stm32_ws/src/libraries/STM32F4xx_StdPeriph_Driver/src/stm32f4xx_can.c ****   *            @arg CAN_FLAG_LEC: Last error code Flag
1479:/home/rdu/Workspace/project_templates/mcu/stm32_ws/src/libraries/STM32F4xx_StdPeriph_Driver/src/stm32f4xx_can.c ****   * @note   CAN3 peripheral is available only for STM32F413_423xx devices
1480:/home/rdu/Workspace/project_templates/mcu/stm32_ws/src/libraries/STM32F4xx_StdPeriph_Driver/src/stm32f4xx_can.c ****   * @retval The new state of CAN_FLAG (SET or RESET).
1481:/home/rdu/Workspace/project_templates/mcu/stm32_ws/src/libraries/STM32F4xx_StdPeriph_Driver/src/stm32f4xx_can.c ****   */
1482:/home/rdu/Workspace/project_templates/mcu/stm32_ws/src/libraries/STM32F4xx_StdPeriph_Driver/src/stm32f4xx_can.c **** FlagStatus CAN_GetFlagStatus(CAN_TypeDef* CANx, uint32_t CAN_FLAG)
1483:/home/rdu/Workspace/project_templates/mcu/stm32_ws/src/libraries/STM32F4xx_StdPeriph_Driver/src/stm32f4xx_can.c **** {
 2178              		.loc 1 1483 0
 2179              		.cfi_startproc
 2180              		@ args = 0, pretend = 0, frame = 16
 2181              		@ frame_needed = 0, uses_anonymous_args = 0
 2182              		@ link register save eliminated.
 2183 0000 84B0     		sub	sp, sp, #16
 2184              	.LCFI43:
 2185              		.cfi_def_cfa_offset 16
 2186 0002 0190     		str	r0, [sp, #4]
 2187 0004 0091     		str	r1, [sp]
1484:/home/rdu/Workspace/project_templates/mcu/stm32_ws/src/libraries/STM32F4xx_StdPeriph_Driver/src/stm32f4xx_can.c ****   FlagStatus bitstatus = RESET;
 2188              		.loc 1 1484 0
 2189 0006 0023     		movs	r3, #0
 2190 0008 8DF80F30 		strb	r3, [sp, #15]
1485:/home/rdu/Workspace/project_templates/mcu/stm32_ws/src/libraries/STM32F4xx_StdPeriph_Driver/src/stm32f4xx_can.c ****   
1486:/home/rdu/Workspace/project_templates/mcu/stm32_ws/src/libraries/STM32F4xx_StdPeriph_Driver/src/stm32f4xx_can.c ****   /* Check the parameters */
1487:/home/rdu/Workspace/project_templates/mcu/stm32_ws/src/libraries/STM32F4xx_StdPeriph_Driver/src/stm32f4xx_can.c ****   assert_param(IS_CAN_ALL_PERIPH(CANx));
1488:/home/rdu/Workspace/project_templates/mcu/stm32_ws/src/libraries/STM32F4xx_StdPeriph_Driver/src/stm32f4xx_can.c ****   assert_param(IS_CAN_GET_FLAG(CAN_FLAG));
1489:/home/rdu/Workspace/project_templates/mcu/stm32_ws/src/libraries/STM32F4xx_StdPeriph_Driver/src/stm32f4xx_can.c ****   
1490:/home/rdu/Workspace/project_templates/mcu/stm32_ws/src/libraries/STM32F4xx_StdPeriph_Driver/src/stm32f4xx_can.c **** 
1491:/home/rdu/Workspace/project_templates/mcu/stm32_ws/src/libraries/STM32F4xx_StdPeriph_Driver/src/stm32f4xx_can.c ****   if((CAN_FLAG & CAN_FLAGS_ESR) != (uint32_t)RESET)
 2191              		.loc 1 1491 0
 2192 000c 009B     		ldr	r3, [sp]
 2193 000e 03F47003 		and	r3, r3, #15728640
 2194 0012 002B     		cmp	r3, #0
 2195 0014 0FD0     		beq	.L143
1492:/home/rdu/Workspace/project_templates/mcu/stm32_ws/src/libraries/STM32F4xx_StdPeriph_Driver/src/stm32f4xx_can.c ****   { 
1493:/home/rdu/Workspace/project_templates/mcu/stm32_ws/src/libraries/STM32F4xx_StdPeriph_Driver/src/stm32f4xx_can.c ****     /* Check the status of the specified CAN flag */
1494:/home/rdu/Workspace/project_templates/mcu/stm32_ws/src/libraries/STM32F4xx_StdPeriph_Driver/src/stm32f4xx_can.c ****     if ((CANx->ESR & (CAN_FLAG & 0x000FFFFF)) != (uint32_t)RESET)
 2196              		.loc 1 1494 0
 2197 0016 019B     		ldr	r3, [sp, #4]
 2198 0018 9A69     		ldr	r2, [r3, #24]
 2199 001a 009B     		ldr	r3, [sp]
 2200 001c 1340     		ands	r3, r3, r2
 2201 001e C3F31303 		ubfx	r3, r3, #0, #20
 2202 0022 002B     		cmp	r3, #0
 2203 0024 03D0     		beq	.L144
1495:/home/rdu/Workspace/project_templates/mcu/stm32_ws/src/libraries/STM32F4xx_StdPeriph_Driver/src/stm32f4xx_can.c ****     { 
1496:/home/rdu/Workspace/project_templates/mcu/stm32_ws/src/libraries/STM32F4xx_StdPeriph_Driver/src/stm32f4xx_can.c ****       /* CAN_FLAG is set */
1497:/home/rdu/Workspace/project_templates/mcu/stm32_ws/src/libraries/STM32F4xx_StdPeriph_Driver/src/stm32f4xx_can.c ****       bitstatus = SET;
 2204              		.loc 1 1497 0
 2205 0026 0123     		movs	r3, #1
 2206 0028 8DF80F30 		strb	r3, [sp, #15]
 2207 002c 51E0     		b	.L146
 2208              	.L144:
1498:/home/rdu/Workspace/project_templates/mcu/stm32_ws/src/libraries/STM32F4xx_StdPeriph_Driver/src/stm32f4xx_can.c ****     }
1499:/home/rdu/Workspace/project_templates/mcu/stm32_ws/src/libraries/STM32F4xx_StdPeriph_Driver/src/stm32f4xx_can.c ****     else
1500:/home/rdu/Workspace/project_templates/mcu/stm32_ws/src/libraries/STM32F4xx_StdPeriph_Driver/src/stm32f4xx_can.c ****     { 
1501:/home/rdu/Workspace/project_templates/mcu/stm32_ws/src/libraries/STM32F4xx_StdPeriph_Driver/src/stm32f4xx_can.c ****       /* CAN_FLAG is reset */
1502:/home/rdu/Workspace/project_templates/mcu/stm32_ws/src/libraries/STM32F4xx_StdPeriph_Driver/src/stm32f4xx_can.c ****       bitstatus = RESET;
 2209              		.loc 1 1502 0
 2210 002e 0023     		movs	r3, #0
 2211 0030 8DF80F30 		strb	r3, [sp, #15]
 2212 0034 4DE0     		b	.L146
 2213              	.L143:
1503:/home/rdu/Workspace/project_templates/mcu/stm32_ws/src/libraries/STM32F4xx_StdPeriph_Driver/src/stm32f4xx_can.c ****     }
1504:/home/rdu/Workspace/project_templates/mcu/stm32_ws/src/libraries/STM32F4xx_StdPeriph_Driver/src/stm32f4xx_can.c ****   }
1505:/home/rdu/Workspace/project_templates/mcu/stm32_ws/src/libraries/STM32F4xx_StdPeriph_Driver/src/stm32f4xx_can.c ****   else if((CAN_FLAG & CAN_FLAGS_MSR) != (uint32_t)RESET)
 2214              		.loc 1 1505 0
 2215 0036 009B     		ldr	r3, [sp]
 2216 0038 03F08073 		and	r3, r3, #16777216
 2217 003c 002B     		cmp	r3, #0
 2218 003e 0FD0     		beq	.L147
1506:/home/rdu/Workspace/project_templates/mcu/stm32_ws/src/libraries/STM32F4xx_StdPeriph_Driver/src/stm32f4xx_can.c ****   { 
1507:/home/rdu/Workspace/project_templates/mcu/stm32_ws/src/libraries/STM32F4xx_StdPeriph_Driver/src/stm32f4xx_can.c ****     /* Check the status of the specified CAN flag */
1508:/home/rdu/Workspace/project_templates/mcu/stm32_ws/src/libraries/STM32F4xx_StdPeriph_Driver/src/stm32f4xx_can.c ****     if ((CANx->MSR & (CAN_FLAG & 0x000FFFFF)) != (uint32_t)RESET)
 2219              		.loc 1 1508 0
 2220 0040 019B     		ldr	r3, [sp, #4]
 2221 0042 5A68     		ldr	r2, [r3, #4]
 2222 0044 009B     		ldr	r3, [sp]
 2223 0046 1340     		ands	r3, r3, r2
 2224 0048 C3F31303 		ubfx	r3, r3, #0, #20
 2225 004c 002B     		cmp	r3, #0
 2226 004e 03D0     		beq	.L148
1509:/home/rdu/Workspace/project_templates/mcu/stm32_ws/src/libraries/STM32F4xx_StdPeriph_Driver/src/stm32f4xx_can.c ****     { 
1510:/home/rdu/Workspace/project_templates/mcu/stm32_ws/src/libraries/STM32F4xx_StdPeriph_Driver/src/stm32f4xx_can.c ****       /* CAN_FLAG is set */
1511:/home/rdu/Workspace/project_templates/mcu/stm32_ws/src/libraries/STM32F4xx_StdPeriph_Driver/src/stm32f4xx_can.c ****       bitstatus = SET;
 2227              		.loc 1 1511 0
 2228 0050 0123     		movs	r3, #1
 2229 0052 8DF80F30 		strb	r3, [sp, #15]
 2230 0056 3CE0     		b	.L146
 2231              	.L148:
1512:/home/rdu/Workspace/project_templates/mcu/stm32_ws/src/libraries/STM32F4xx_StdPeriph_Driver/src/stm32f4xx_can.c ****     }
1513:/home/rdu/Workspace/project_templates/mcu/stm32_ws/src/libraries/STM32F4xx_StdPeriph_Driver/src/stm32f4xx_can.c ****     else
1514:/home/rdu/Workspace/project_templates/mcu/stm32_ws/src/libraries/STM32F4xx_StdPeriph_Driver/src/stm32f4xx_can.c ****     { 
1515:/home/rdu/Workspace/project_templates/mcu/stm32_ws/src/libraries/STM32F4xx_StdPeriph_Driver/src/stm32f4xx_can.c ****       /* CAN_FLAG is reset */
1516:/home/rdu/Workspace/project_templates/mcu/stm32_ws/src/libraries/STM32F4xx_StdPeriph_Driver/src/stm32f4xx_can.c ****       bitstatus = RESET;
 2232              		.loc 1 1516 0
 2233 0058 0023     		movs	r3, #0
 2234 005a 8DF80F30 		strb	r3, [sp, #15]
 2235 005e 38E0     		b	.L146
 2236              	.L147:
1517:/home/rdu/Workspace/project_templates/mcu/stm32_ws/src/libraries/STM32F4xx_StdPeriph_Driver/src/stm32f4xx_can.c ****     }
1518:/home/rdu/Workspace/project_templates/mcu/stm32_ws/src/libraries/STM32F4xx_StdPeriph_Driver/src/stm32f4xx_can.c ****   }
1519:/home/rdu/Workspace/project_templates/mcu/stm32_ws/src/libraries/STM32F4xx_StdPeriph_Driver/src/stm32f4xx_can.c ****   else if((CAN_FLAG & CAN_FLAGS_TSR) != (uint32_t)RESET)
 2237              		.loc 1 1519 0
 2238 0060 009B     		ldr	r3, [sp]
 2239 0062 03F00063 		and	r3, r3, #134217728
 2240 0066 002B     		cmp	r3, #0
 2241 0068 0FD0     		beq	.L150
1520:/home/rdu/Workspace/project_templates/mcu/stm32_ws/src/libraries/STM32F4xx_StdPeriph_Driver/src/stm32f4xx_can.c ****   { 
1521:/home/rdu/Workspace/project_templates/mcu/stm32_ws/src/libraries/STM32F4xx_StdPeriph_Driver/src/stm32f4xx_can.c ****     /* Check the status of the specified CAN flag */
1522:/home/rdu/Workspace/project_templates/mcu/stm32_ws/src/libraries/STM32F4xx_StdPeriph_Driver/src/stm32f4xx_can.c ****     if ((CANx->TSR & (CAN_FLAG & 0x000FFFFF)) != (uint32_t)RESET)
 2242              		.loc 1 1522 0
 2243 006a 019B     		ldr	r3, [sp, #4]
 2244 006c 9A68     		ldr	r2, [r3, #8]
 2245 006e 009B     		ldr	r3, [sp]
 2246 0070 1340     		ands	r3, r3, r2
 2247 0072 C3F31303 		ubfx	r3, r3, #0, #20
 2248 0076 002B     		cmp	r3, #0
 2249 0078 03D0     		beq	.L151
1523:/home/rdu/Workspace/project_templates/mcu/stm32_ws/src/libraries/STM32F4xx_StdPeriph_Driver/src/stm32f4xx_can.c ****     { 
1524:/home/rdu/Workspace/project_templates/mcu/stm32_ws/src/libraries/STM32F4xx_StdPeriph_Driver/src/stm32f4xx_can.c ****       /* CAN_FLAG is set */
1525:/home/rdu/Workspace/project_templates/mcu/stm32_ws/src/libraries/STM32F4xx_StdPeriph_Driver/src/stm32f4xx_can.c ****       bitstatus = SET;
 2250              		.loc 1 1525 0
 2251 007a 0123     		movs	r3, #1
 2252 007c 8DF80F30 		strb	r3, [sp, #15]
 2253 0080 27E0     		b	.L146
 2254              	.L151:
1526:/home/rdu/Workspace/project_templates/mcu/stm32_ws/src/libraries/STM32F4xx_StdPeriph_Driver/src/stm32f4xx_can.c ****     }
1527:/home/rdu/Workspace/project_templates/mcu/stm32_ws/src/libraries/STM32F4xx_StdPeriph_Driver/src/stm32f4xx_can.c ****     else
1528:/home/rdu/Workspace/project_templates/mcu/stm32_ws/src/libraries/STM32F4xx_StdPeriph_Driver/src/stm32f4xx_can.c ****     { 
1529:/home/rdu/Workspace/project_templates/mcu/stm32_ws/src/libraries/STM32F4xx_StdPeriph_Driver/src/stm32f4xx_can.c ****       /* CAN_FLAG is reset */
1530:/home/rdu/Workspace/project_templates/mcu/stm32_ws/src/libraries/STM32F4xx_StdPeriph_Driver/src/stm32f4xx_can.c ****       bitstatus = RESET;
 2255              		.loc 1 1530 0
 2256 0082 0023     		movs	r3, #0
 2257 0084 8DF80F30 		strb	r3, [sp, #15]
 2258 0088 23E0     		b	.L146
 2259              	.L150:
1531:/home/rdu/Workspace/project_templates/mcu/stm32_ws/src/libraries/STM32F4xx_StdPeriph_Driver/src/stm32f4xx_can.c ****     }
1532:/home/rdu/Workspace/project_templates/mcu/stm32_ws/src/libraries/STM32F4xx_StdPeriph_Driver/src/stm32f4xx_can.c ****   }
1533:/home/rdu/Workspace/project_templates/mcu/stm32_ws/src/libraries/STM32F4xx_StdPeriph_Driver/src/stm32f4xx_can.c ****   else if((CAN_FLAG & CAN_FLAGS_RF0R) != (uint32_t)RESET)
 2260              		.loc 1 1533 0
 2261 008a 009B     		ldr	r3, [sp]
 2262 008c 03F00073 		and	r3, r3, #33554432
 2263 0090 002B     		cmp	r3, #0
 2264 0092 0FD0     		beq	.L153
1534:/home/rdu/Workspace/project_templates/mcu/stm32_ws/src/libraries/STM32F4xx_StdPeriph_Driver/src/stm32f4xx_can.c ****   { 
1535:/home/rdu/Workspace/project_templates/mcu/stm32_ws/src/libraries/STM32F4xx_StdPeriph_Driver/src/stm32f4xx_can.c ****     /* Check the status of the specified CAN flag */
1536:/home/rdu/Workspace/project_templates/mcu/stm32_ws/src/libraries/STM32F4xx_StdPeriph_Driver/src/stm32f4xx_can.c ****     if ((CANx->RF0R & (CAN_FLAG & 0x000FFFFF)) != (uint32_t)RESET)
 2265              		.loc 1 1536 0
 2266 0094 019B     		ldr	r3, [sp, #4]
 2267 0096 DA68     		ldr	r2, [r3, #12]
 2268 0098 009B     		ldr	r3, [sp]
 2269 009a 1340     		ands	r3, r3, r2
 2270 009c C3F31303 		ubfx	r3, r3, #0, #20
 2271 00a0 002B     		cmp	r3, #0
 2272 00a2 03D0     		beq	.L154
1537:/home/rdu/Workspace/project_templates/mcu/stm32_ws/src/libraries/STM32F4xx_StdPeriph_Driver/src/stm32f4xx_can.c ****     { 
1538:/home/rdu/Workspace/project_templates/mcu/stm32_ws/src/libraries/STM32F4xx_StdPeriph_Driver/src/stm32f4xx_can.c ****       /* CAN_FLAG is set */
1539:/home/rdu/Workspace/project_templates/mcu/stm32_ws/src/libraries/STM32F4xx_StdPeriph_Driver/src/stm32f4xx_can.c ****       bitstatus = SET;
 2273              		.loc 1 1539 0
 2274 00a4 0123     		movs	r3, #1
 2275 00a6 8DF80F30 		strb	r3, [sp, #15]
 2276 00aa 12E0     		b	.L146
 2277              	.L154:
1540:/home/rdu/Workspace/project_templates/mcu/stm32_ws/src/libraries/STM32F4xx_StdPeriph_Driver/src/stm32f4xx_can.c ****     }
1541:/home/rdu/Workspace/project_templates/mcu/stm32_ws/src/libraries/STM32F4xx_StdPeriph_Driver/src/stm32f4xx_can.c ****     else
1542:/home/rdu/Workspace/project_templates/mcu/stm32_ws/src/libraries/STM32F4xx_StdPeriph_Driver/src/stm32f4xx_can.c ****     { 
1543:/home/rdu/Workspace/project_templates/mcu/stm32_ws/src/libraries/STM32F4xx_StdPeriph_Driver/src/stm32f4xx_can.c ****       /* CAN_FLAG is reset */
1544:/home/rdu/Workspace/project_templates/mcu/stm32_ws/src/libraries/STM32F4xx_StdPeriph_Driver/src/stm32f4xx_can.c ****       bitstatus = RESET;
 2278              		.loc 1 1544 0
 2279 00ac 0023     		movs	r3, #0
 2280 00ae 8DF80F30 		strb	r3, [sp, #15]
 2281 00b2 0EE0     		b	.L146
 2282              	.L153:
1545:/home/rdu/Workspace/project_templates/mcu/stm32_ws/src/libraries/STM32F4xx_StdPeriph_Driver/src/stm32f4xx_can.c ****     }
1546:/home/rdu/Workspace/project_templates/mcu/stm32_ws/src/libraries/STM32F4xx_StdPeriph_Driver/src/stm32f4xx_can.c ****   }
1547:/home/rdu/Workspace/project_templates/mcu/stm32_ws/src/libraries/STM32F4xx_StdPeriph_Driver/src/stm32f4xx_can.c ****   else /* If(CAN_FLAG & CAN_FLAGS_RF1R != (uint32_t)RESET) */
1548:/home/rdu/Workspace/project_templates/mcu/stm32_ws/src/libraries/STM32F4xx_StdPeriph_Driver/src/stm32f4xx_can.c ****   { 
1549:/home/rdu/Workspace/project_templates/mcu/stm32_ws/src/libraries/STM32F4xx_StdPeriph_Driver/src/stm32f4xx_can.c ****     /* Check the status of the specified CAN flag */
1550:/home/rdu/Workspace/project_templates/mcu/stm32_ws/src/libraries/STM32F4xx_StdPeriph_Driver/src/stm32f4xx_can.c ****     if ((uint32_t)(CANx->RF1R & (CAN_FLAG & 0x000FFFFF)) != (uint32_t)RESET)
 2283              		.loc 1 1550 0
 2284 00b4 019B     		ldr	r3, [sp, #4]
 2285 00b6 1A69     		ldr	r2, [r3, #16]
 2286 00b8 009B     		ldr	r3, [sp]
 2287 00ba 1340     		ands	r3, r3, r2
 2288 00bc C3F31303 		ubfx	r3, r3, #0, #20
 2289 00c0 002B     		cmp	r3, #0
 2290 00c2 03D0     		beq	.L156
1551:/home/rdu/Workspace/project_templates/mcu/stm32_ws/src/libraries/STM32F4xx_StdPeriph_Driver/src/stm32f4xx_can.c ****     { 
1552:/home/rdu/Workspace/project_templates/mcu/stm32_ws/src/libraries/STM32F4xx_StdPeriph_Driver/src/stm32f4xx_can.c ****       /* CAN_FLAG is set */
1553:/home/rdu/Workspace/project_templates/mcu/stm32_ws/src/libraries/STM32F4xx_StdPeriph_Driver/src/stm32f4xx_can.c ****       bitstatus = SET;
 2291              		.loc 1 1553 0
 2292 00c4 0123     		movs	r3, #1
 2293 00c6 8DF80F30 		strb	r3, [sp, #15]
 2294 00ca 02E0     		b	.L146
 2295              	.L156:
1554:/home/rdu/Workspace/project_templates/mcu/stm32_ws/src/libraries/STM32F4xx_StdPeriph_Driver/src/stm32f4xx_can.c ****     }
1555:/home/rdu/Workspace/project_templates/mcu/stm32_ws/src/libraries/STM32F4xx_StdPeriph_Driver/src/stm32f4xx_can.c ****     else
1556:/home/rdu/Workspace/project_templates/mcu/stm32_ws/src/libraries/STM32F4xx_StdPeriph_Driver/src/stm32f4xx_can.c ****     { 
1557:/home/rdu/Workspace/project_templates/mcu/stm32_ws/src/libraries/STM32F4xx_StdPeriph_Driver/src/stm32f4xx_can.c ****       /* CAN_FLAG is reset */
1558:/home/rdu/Workspace/project_templates/mcu/stm32_ws/src/libraries/STM32F4xx_StdPeriph_Driver/src/stm32f4xx_can.c ****       bitstatus = RESET;
 2296              		.loc 1 1558 0
 2297 00cc 0023     		movs	r3, #0
 2298 00ce 8DF80F30 		strb	r3, [sp, #15]
 2299              	.L146:
1559:/home/rdu/Workspace/project_templates/mcu/stm32_ws/src/libraries/STM32F4xx_StdPeriph_Driver/src/stm32f4xx_can.c ****     }
1560:/home/rdu/Workspace/project_templates/mcu/stm32_ws/src/libraries/STM32F4xx_StdPeriph_Driver/src/stm32f4xx_can.c ****   }
1561:/home/rdu/Workspace/project_templates/mcu/stm32_ws/src/libraries/STM32F4xx_StdPeriph_Driver/src/stm32f4xx_can.c ****   /* Return the CAN_FLAG status */
1562:/home/rdu/Workspace/project_templates/mcu/stm32_ws/src/libraries/STM32F4xx_StdPeriph_Driver/src/stm32f4xx_can.c ****   return  bitstatus;
 2300              		.loc 1 1562 0
 2301 00d2 9DF80F30 		ldrb	r3, [sp, #15]	@ zero_extendqisi2
1563:/home/rdu/Workspace/project_templates/mcu/stm32_ws/src/libraries/STM32F4xx_StdPeriph_Driver/src/stm32f4xx_can.c **** }
 2302              		.loc 1 1563 0
 2303 00d6 1846     		mov	r0, r3
 2304 00d8 04B0     		add	sp, sp, #16
 2305              	.LCFI44:
 2306              		.cfi_def_cfa_offset 0
 2307              		@ sp needed
 2308 00da 7047     		bx	lr
 2309              		.cfi_endproc
 2310              	.LFE143:
 2312              		.section	.text.CAN_ClearFlag,"ax",%progbits
 2313              		.align	1
 2314              		.global	CAN_ClearFlag
 2315              		.syntax unified
 2316              		.thumb
 2317              		.thumb_func
 2318              		.fpu fpv4-sp-d16
 2320              	CAN_ClearFlag:
 2321              	.LFB144:
1564:/home/rdu/Workspace/project_templates/mcu/stm32_ws/src/libraries/STM32F4xx_StdPeriph_Driver/src/stm32f4xx_can.c **** 
1565:/home/rdu/Workspace/project_templates/mcu/stm32_ws/src/libraries/STM32F4xx_StdPeriph_Driver/src/stm32f4xx_can.c **** /**
1566:/home/rdu/Workspace/project_templates/mcu/stm32_ws/src/libraries/STM32F4xx_StdPeriph_Driver/src/stm32f4xx_can.c ****   * @brief  Clears the CAN's pending flags.
1567:/home/rdu/Workspace/project_templates/mcu/stm32_ws/src/libraries/STM32F4xx_StdPeriph_Driver/src/stm32f4xx_can.c ****   * @param  CANx: where x can be 1,2 or 3 to select the CAN peripheral.
1568:/home/rdu/Workspace/project_templates/mcu/stm32_ws/src/libraries/STM32F4xx_StdPeriph_Driver/src/stm32f4xx_can.c ****   * @param  CAN_FLAG: specifies the flag to clear.
1569:/home/rdu/Workspace/project_templates/mcu/stm32_ws/src/libraries/STM32F4xx_StdPeriph_Driver/src/stm32f4xx_can.c ****   *          This parameter can be one of the following values:
1570:/home/rdu/Workspace/project_templates/mcu/stm32_ws/src/libraries/STM32F4xx_StdPeriph_Driver/src/stm32f4xx_can.c ****   *            @arg CAN_FLAG_RQCP0: Request MailBox0 Flag
1571:/home/rdu/Workspace/project_templates/mcu/stm32_ws/src/libraries/STM32F4xx_StdPeriph_Driver/src/stm32f4xx_can.c ****   *            @arg CAN_FLAG_RQCP1: Request MailBox1 Flag
1572:/home/rdu/Workspace/project_templates/mcu/stm32_ws/src/libraries/STM32F4xx_StdPeriph_Driver/src/stm32f4xx_can.c ****   *            @arg CAN_FLAG_RQCP2: Request MailBox2 Flag 
1573:/home/rdu/Workspace/project_templates/mcu/stm32_ws/src/libraries/STM32F4xx_StdPeriph_Driver/src/stm32f4xx_can.c ****   *            @arg CAN_FLAG_FF0: FIFO 0 Full Flag       
1574:/home/rdu/Workspace/project_templates/mcu/stm32_ws/src/libraries/STM32F4xx_StdPeriph_Driver/src/stm32f4xx_can.c ****   *            @arg CAN_FLAG_FOV0: FIFO 0 Overrun Flag  
1575:/home/rdu/Workspace/project_templates/mcu/stm32_ws/src/libraries/STM32F4xx_StdPeriph_Driver/src/stm32f4xx_can.c ****   *            @arg CAN_FLAG_FF1: FIFO 1 Full Flag        
1576:/home/rdu/Workspace/project_templates/mcu/stm32_ws/src/libraries/STM32F4xx_StdPeriph_Driver/src/stm32f4xx_can.c ****   *            @arg CAN_FLAG_FOV1: FIFO 1 Overrun Flag     
1577:/home/rdu/Workspace/project_templates/mcu/stm32_ws/src/libraries/STM32F4xx_StdPeriph_Driver/src/stm32f4xx_can.c ****   *            @arg CAN_FLAG_WKU: Wake up Flag
1578:/home/rdu/Workspace/project_templates/mcu/stm32_ws/src/libraries/STM32F4xx_StdPeriph_Driver/src/stm32f4xx_can.c ****   *            @arg CAN_FLAG_SLAK: Sleep acknowledge Flag    
1579:/home/rdu/Workspace/project_templates/mcu/stm32_ws/src/libraries/STM32F4xx_StdPeriph_Driver/src/stm32f4xx_can.c ****   *            @arg CAN_FLAG_LEC: Last error code Flag
1580:/home/rdu/Workspace/project_templates/mcu/stm32_ws/src/libraries/STM32F4xx_StdPeriph_Driver/src/stm32f4xx_can.c ****   * @note   CAN3 peripheral is available only for STM32F413_423xx devices
1581:/home/rdu/Workspace/project_templates/mcu/stm32_ws/src/libraries/STM32F4xx_StdPeriph_Driver/src/stm32f4xx_can.c ****   * @retval None
1582:/home/rdu/Workspace/project_templates/mcu/stm32_ws/src/libraries/STM32F4xx_StdPeriph_Driver/src/stm32f4xx_can.c ****   */
1583:/home/rdu/Workspace/project_templates/mcu/stm32_ws/src/libraries/STM32F4xx_StdPeriph_Driver/src/stm32f4xx_can.c **** void CAN_ClearFlag(CAN_TypeDef* CANx, uint32_t CAN_FLAG)
1584:/home/rdu/Workspace/project_templates/mcu/stm32_ws/src/libraries/STM32F4xx_StdPeriph_Driver/src/stm32f4xx_can.c **** {
 2322              		.loc 1 1584 0
 2323              		.cfi_startproc
 2324              		@ args = 0, pretend = 0, frame = 16
 2325              		@ frame_needed = 0, uses_anonymous_args = 0
 2326              		@ link register save eliminated.
 2327 0000 84B0     		sub	sp, sp, #16
 2328              	.LCFI45:
 2329              		.cfi_def_cfa_offset 16
 2330 0002 0190     		str	r0, [sp, #4]
 2331 0004 0091     		str	r1, [sp]
1585:/home/rdu/Workspace/project_templates/mcu/stm32_ws/src/libraries/STM32F4xx_StdPeriph_Driver/src/stm32f4xx_can.c ****   uint32_t flagtmp=0;
 2332              		.loc 1 1585 0
 2333 0006 0023     		movs	r3, #0
 2334 0008 0393     		str	r3, [sp, #12]
1586:/home/rdu/Workspace/project_templates/mcu/stm32_ws/src/libraries/STM32F4xx_StdPeriph_Driver/src/stm32f4xx_can.c ****   /* Check the parameters */
1587:/home/rdu/Workspace/project_templates/mcu/stm32_ws/src/libraries/STM32F4xx_StdPeriph_Driver/src/stm32f4xx_can.c ****   assert_param(IS_CAN_ALL_PERIPH(CANx));
1588:/home/rdu/Workspace/project_templates/mcu/stm32_ws/src/libraries/STM32F4xx_StdPeriph_Driver/src/stm32f4xx_can.c ****   assert_param(IS_CAN_CLEAR_FLAG(CAN_FLAG));
1589:/home/rdu/Workspace/project_templates/mcu/stm32_ws/src/libraries/STM32F4xx_StdPeriph_Driver/src/stm32f4xx_can.c ****   
1590:/home/rdu/Workspace/project_templates/mcu/stm32_ws/src/libraries/STM32F4xx_StdPeriph_Driver/src/stm32f4xx_can.c ****   if (CAN_FLAG == CAN_FLAG_LEC) /* ESR register */
 2335              		.loc 1 1590 0
 2336 000a 009B     		ldr	r3, [sp]
 2337 000c 154A     		ldr	r2, .L165
 2338 000e 9342     		cmp	r3, r2
 2339 0010 03D1     		bne	.L159
1591:/home/rdu/Workspace/project_templates/mcu/stm32_ws/src/libraries/STM32F4xx_StdPeriph_Driver/src/stm32f4xx_can.c ****   {
1592:/home/rdu/Workspace/project_templates/mcu/stm32_ws/src/libraries/STM32F4xx_StdPeriph_Driver/src/stm32f4xx_can.c ****     /* Clear the selected CAN flags */
1593:/home/rdu/Workspace/project_templates/mcu/stm32_ws/src/libraries/STM32F4xx_StdPeriph_Driver/src/stm32f4xx_can.c ****     CANx->ESR = (uint32_t)RESET;
 2340              		.loc 1 1593 0
 2341 0012 019B     		ldr	r3, [sp, #4]
 2342 0014 0022     		movs	r2, #0
 2343 0016 9A61     		str	r2, [r3, #24]
1594:/home/rdu/Workspace/project_templates/mcu/stm32_ws/src/libraries/STM32F4xx_StdPeriph_Driver/src/stm32f4xx_can.c ****   }
1595:/home/rdu/Workspace/project_templates/mcu/stm32_ws/src/libraries/STM32F4xx_StdPeriph_Driver/src/stm32f4xx_can.c ****   else /* MSR or TSR or RF0R or RF1R */
1596:/home/rdu/Workspace/project_templates/mcu/stm32_ws/src/libraries/STM32F4xx_StdPeriph_Driver/src/stm32f4xx_can.c ****   {
1597:/home/rdu/Workspace/project_templates/mcu/stm32_ws/src/libraries/STM32F4xx_StdPeriph_Driver/src/stm32f4xx_can.c ****     flagtmp = CAN_FLAG & 0x000FFFFF;
1598:/home/rdu/Workspace/project_templates/mcu/stm32_ws/src/libraries/STM32F4xx_StdPeriph_Driver/src/stm32f4xx_can.c **** 
1599:/home/rdu/Workspace/project_templates/mcu/stm32_ws/src/libraries/STM32F4xx_StdPeriph_Driver/src/stm32f4xx_can.c ****     if ((CAN_FLAG & CAN_FLAGS_RF0R)!=(uint32_t)RESET)
1600:/home/rdu/Workspace/project_templates/mcu/stm32_ws/src/libraries/STM32F4xx_StdPeriph_Driver/src/stm32f4xx_can.c ****     {
1601:/home/rdu/Workspace/project_templates/mcu/stm32_ws/src/libraries/STM32F4xx_StdPeriph_Driver/src/stm32f4xx_can.c ****       /* Receive Flags */
1602:/home/rdu/Workspace/project_templates/mcu/stm32_ws/src/libraries/STM32F4xx_StdPeriph_Driver/src/stm32f4xx_can.c ****       CANx->RF0R = (uint32_t)(flagtmp);
1603:/home/rdu/Workspace/project_templates/mcu/stm32_ws/src/libraries/STM32F4xx_StdPeriph_Driver/src/stm32f4xx_can.c ****     }
1604:/home/rdu/Workspace/project_templates/mcu/stm32_ws/src/libraries/STM32F4xx_StdPeriph_Driver/src/stm32f4xx_can.c ****     else if ((CAN_FLAG & CAN_FLAGS_RF1R)!=(uint32_t)RESET)
1605:/home/rdu/Workspace/project_templates/mcu/stm32_ws/src/libraries/STM32F4xx_StdPeriph_Driver/src/stm32f4xx_can.c ****     {
1606:/home/rdu/Workspace/project_templates/mcu/stm32_ws/src/libraries/STM32F4xx_StdPeriph_Driver/src/stm32f4xx_can.c ****       /* Receive Flags */
1607:/home/rdu/Workspace/project_templates/mcu/stm32_ws/src/libraries/STM32F4xx_StdPeriph_Driver/src/stm32f4xx_can.c ****       CANx->RF1R = (uint32_t)(flagtmp);
1608:/home/rdu/Workspace/project_templates/mcu/stm32_ws/src/libraries/STM32F4xx_StdPeriph_Driver/src/stm32f4xx_can.c ****     }
1609:/home/rdu/Workspace/project_templates/mcu/stm32_ws/src/libraries/STM32F4xx_StdPeriph_Driver/src/stm32f4xx_can.c ****     else if ((CAN_FLAG & CAN_FLAGS_TSR)!=(uint32_t)RESET)
1610:/home/rdu/Workspace/project_templates/mcu/stm32_ws/src/libraries/STM32F4xx_StdPeriph_Driver/src/stm32f4xx_can.c ****     {
1611:/home/rdu/Workspace/project_templates/mcu/stm32_ws/src/libraries/STM32F4xx_StdPeriph_Driver/src/stm32f4xx_can.c ****       /* Transmit Flags */
1612:/home/rdu/Workspace/project_templates/mcu/stm32_ws/src/libraries/STM32F4xx_StdPeriph_Driver/src/stm32f4xx_can.c ****       CANx->TSR = (uint32_t)(flagtmp);
1613:/home/rdu/Workspace/project_templates/mcu/stm32_ws/src/libraries/STM32F4xx_StdPeriph_Driver/src/stm32f4xx_can.c ****     }
1614:/home/rdu/Workspace/project_templates/mcu/stm32_ws/src/libraries/STM32F4xx_StdPeriph_Driver/src/stm32f4xx_can.c ****     else /* If((CAN_FLAG & CAN_FLAGS_MSR)!=(uint32_t)RESET) */
1615:/home/rdu/Workspace/project_templates/mcu/stm32_ws/src/libraries/STM32F4xx_StdPeriph_Driver/src/stm32f4xx_can.c ****     {
1616:/home/rdu/Workspace/project_templates/mcu/stm32_ws/src/libraries/STM32F4xx_StdPeriph_Driver/src/stm32f4xx_can.c ****       /* Operating mode Flags */
1617:/home/rdu/Workspace/project_templates/mcu/stm32_ws/src/libraries/STM32F4xx_StdPeriph_Driver/src/stm32f4xx_can.c ****       CANx->MSR = (uint32_t)(flagtmp);
1618:/home/rdu/Workspace/project_templates/mcu/stm32_ws/src/libraries/STM32F4xx_StdPeriph_Driver/src/stm32f4xx_can.c ****     }
1619:/home/rdu/Workspace/project_templates/mcu/stm32_ws/src/libraries/STM32F4xx_StdPeriph_Driver/src/stm32f4xx_can.c ****   }
1620:/home/rdu/Workspace/project_templates/mcu/stm32_ws/src/libraries/STM32F4xx_StdPeriph_Driver/src/stm32f4xx_can.c **** }
 2344              		.loc 1 1620 0
 2345 0018 21E0     		b	.L164
 2346              	.L159:
1597:/home/rdu/Workspace/project_templates/mcu/stm32_ws/src/libraries/STM32F4xx_StdPeriph_Driver/src/stm32f4xx_can.c **** 
 2347              		.loc 1 1597 0
 2348 001a 009B     		ldr	r3, [sp]
 2349 001c C3F31303 		ubfx	r3, r3, #0, #20
 2350 0020 0393     		str	r3, [sp, #12]
1599:/home/rdu/Workspace/project_templates/mcu/stm32_ws/src/libraries/STM32F4xx_StdPeriph_Driver/src/stm32f4xx_can.c ****     {
 2351              		.loc 1 1599 0
 2352 0022 009B     		ldr	r3, [sp]
 2353 0024 03F00073 		and	r3, r3, #33554432
 2354 0028 002B     		cmp	r3, #0
 2355 002a 03D0     		beq	.L161
1602:/home/rdu/Workspace/project_templates/mcu/stm32_ws/src/libraries/STM32F4xx_StdPeriph_Driver/src/stm32f4xx_can.c ****     }
 2356              		.loc 1 1602 0
 2357 002c 019B     		ldr	r3, [sp, #4]
 2358 002e 039A     		ldr	r2, [sp, #12]
 2359 0030 DA60     		str	r2, [r3, #12]
 2360              		.loc 1 1620 0
 2361 0032 14E0     		b	.L164
 2362              	.L161:
1604:/home/rdu/Workspace/project_templates/mcu/stm32_ws/src/libraries/STM32F4xx_StdPeriph_Driver/src/stm32f4xx_can.c ****     {
 2363              		.loc 1 1604 0
 2364 0034 009B     		ldr	r3, [sp]
 2365 0036 03F08063 		and	r3, r3, #67108864
 2366 003a 002B     		cmp	r3, #0
 2367 003c 03D0     		beq	.L162
1607:/home/rdu/Workspace/project_templates/mcu/stm32_ws/src/libraries/STM32F4xx_StdPeriph_Driver/src/stm32f4xx_can.c ****     }
 2368              		.loc 1 1607 0
 2369 003e 019B     		ldr	r3, [sp, #4]
 2370 0040 039A     		ldr	r2, [sp, #12]
 2371 0042 1A61     		str	r2, [r3, #16]
 2372              		.loc 1 1620 0
 2373 0044 0BE0     		b	.L164
 2374              	.L162:
1609:/home/rdu/Workspace/project_templates/mcu/stm32_ws/src/libraries/STM32F4xx_StdPeriph_Driver/src/stm32f4xx_can.c ****     {
 2375              		.loc 1 1609 0
 2376 0046 009B     		ldr	r3, [sp]
 2377 0048 03F00063 		and	r3, r3, #134217728
 2378 004c 002B     		cmp	r3, #0
 2379 004e 03D0     		beq	.L163
1612:/home/rdu/Workspace/project_templates/mcu/stm32_ws/src/libraries/STM32F4xx_StdPeriph_Driver/src/stm32f4xx_can.c ****     }
 2380              		.loc 1 1612 0
 2381 0050 019B     		ldr	r3, [sp, #4]
 2382 0052 039A     		ldr	r2, [sp, #12]
 2383 0054 9A60     		str	r2, [r3, #8]
 2384              		.loc 1 1620 0
 2385 0056 02E0     		b	.L164
 2386              	.L163:
1617:/home/rdu/Workspace/project_templates/mcu/stm32_ws/src/libraries/STM32F4xx_StdPeriph_Driver/src/stm32f4xx_can.c ****     }
 2387              		.loc 1 1617 0
 2388 0058 019B     		ldr	r3, [sp, #4]
 2389 005a 039A     		ldr	r2, [sp, #12]
 2390 005c 5A60     		str	r2, [r3, #4]
 2391              	.L164:
 2392              		.loc 1 1620 0
 2393 005e 00BF     		nop
 2394 0060 04B0     		add	sp, sp, #16
 2395              	.LCFI46:
 2396              		.cfi_def_cfa_offset 0
 2397              		@ sp needed
 2398 0062 7047     		bx	lr
 2399              	.L166:
 2400              		.align	2
 2401              	.L165:
 2402 0064 7000F030 		.word	821035120
 2403              		.cfi_endproc
 2404              	.LFE144:
 2406              		.section	.text.CAN_GetITStatus,"ax",%progbits
 2407              		.align	1
 2408              		.global	CAN_GetITStatus
 2409              		.syntax unified
 2410              		.thumb
 2411              		.thumb_func
 2412              		.fpu fpv4-sp-d16
 2414              	CAN_GetITStatus:
 2415              	.LFB145:
1621:/home/rdu/Workspace/project_templates/mcu/stm32_ws/src/libraries/STM32F4xx_StdPeriph_Driver/src/stm32f4xx_can.c **** 
1622:/home/rdu/Workspace/project_templates/mcu/stm32_ws/src/libraries/STM32F4xx_StdPeriph_Driver/src/stm32f4xx_can.c **** /**
1623:/home/rdu/Workspace/project_templates/mcu/stm32_ws/src/libraries/STM32F4xx_StdPeriph_Driver/src/stm32f4xx_can.c ****   * @brief  Checks whether the specified CANx interrupt has occurred or not.
1624:/home/rdu/Workspace/project_templates/mcu/stm32_ws/src/libraries/STM32F4xx_StdPeriph_Driver/src/stm32f4xx_can.c ****   * @param  CANx: where x can be 1,2 or 3 to select the CAN peripheral.
1625:/home/rdu/Workspace/project_templates/mcu/stm32_ws/src/libraries/STM32F4xx_StdPeriph_Driver/src/stm32f4xx_can.c ****   * @param  CAN_IT: specifies the CAN interrupt source to check.
1626:/home/rdu/Workspace/project_templates/mcu/stm32_ws/src/libraries/STM32F4xx_StdPeriph_Driver/src/stm32f4xx_can.c ****   *          This parameter can be one of the following values:
1627:/home/rdu/Workspace/project_templates/mcu/stm32_ws/src/libraries/STM32F4xx_StdPeriph_Driver/src/stm32f4xx_can.c ****   *            @arg CAN_IT_TME: Transmit mailbox empty Interrupt 
1628:/home/rdu/Workspace/project_templates/mcu/stm32_ws/src/libraries/STM32F4xx_StdPeriph_Driver/src/stm32f4xx_can.c ****   *            @arg CAN_IT_FMP0: FIFO 0 message pending Interrupt 
1629:/home/rdu/Workspace/project_templates/mcu/stm32_ws/src/libraries/STM32F4xx_StdPeriph_Driver/src/stm32f4xx_can.c ****   *            @arg CAN_IT_FF0: FIFO 0 full Interrupt
1630:/home/rdu/Workspace/project_templates/mcu/stm32_ws/src/libraries/STM32F4xx_StdPeriph_Driver/src/stm32f4xx_can.c ****   *            @arg CAN_IT_FOV0: FIFO 0 overrun Interrupt
1631:/home/rdu/Workspace/project_templates/mcu/stm32_ws/src/libraries/STM32F4xx_StdPeriph_Driver/src/stm32f4xx_can.c ****   *            @arg CAN_IT_FMP1: FIFO 1 message pending Interrupt 
1632:/home/rdu/Workspace/project_templates/mcu/stm32_ws/src/libraries/STM32F4xx_StdPeriph_Driver/src/stm32f4xx_can.c ****   *            @arg CAN_IT_FF1: FIFO 1 full Interrupt
1633:/home/rdu/Workspace/project_templates/mcu/stm32_ws/src/libraries/STM32F4xx_StdPeriph_Driver/src/stm32f4xx_can.c ****   *            @arg CAN_IT_FOV1: FIFO 1 overrun Interrupt
1634:/home/rdu/Workspace/project_templates/mcu/stm32_ws/src/libraries/STM32F4xx_StdPeriph_Driver/src/stm32f4xx_can.c ****   *            @arg CAN_IT_WKU: Wake-up Interrupt
1635:/home/rdu/Workspace/project_templates/mcu/stm32_ws/src/libraries/STM32F4xx_StdPeriph_Driver/src/stm32f4xx_can.c ****   *            @arg CAN_IT_SLK: Sleep acknowledge Interrupt  
1636:/home/rdu/Workspace/project_templates/mcu/stm32_ws/src/libraries/STM32F4xx_StdPeriph_Driver/src/stm32f4xx_can.c ****   *            @arg CAN_IT_EWG: Error warning Interrupt
1637:/home/rdu/Workspace/project_templates/mcu/stm32_ws/src/libraries/STM32F4xx_StdPeriph_Driver/src/stm32f4xx_can.c ****   *            @arg CAN_IT_EPV: Error passive Interrupt
1638:/home/rdu/Workspace/project_templates/mcu/stm32_ws/src/libraries/STM32F4xx_StdPeriph_Driver/src/stm32f4xx_can.c ****   *            @arg CAN_IT_BOF: Bus-off Interrupt  
1639:/home/rdu/Workspace/project_templates/mcu/stm32_ws/src/libraries/STM32F4xx_StdPeriph_Driver/src/stm32f4xx_can.c ****   *            @arg CAN_IT_LEC: Last error code Interrupt
1640:/home/rdu/Workspace/project_templates/mcu/stm32_ws/src/libraries/STM32F4xx_StdPeriph_Driver/src/stm32f4xx_can.c ****   *            @arg CAN_IT_ERR: Error Interrupt
1641:/home/rdu/Workspace/project_templates/mcu/stm32_ws/src/libraries/STM32F4xx_StdPeriph_Driver/src/stm32f4xx_can.c ****   * @note   CAN3 peripheral is available only for STM32F413_423xx devices
1642:/home/rdu/Workspace/project_templates/mcu/stm32_ws/src/libraries/STM32F4xx_StdPeriph_Driver/src/stm32f4xx_can.c ****   * @retval The current state of CAN_IT (SET or RESET).
1643:/home/rdu/Workspace/project_templates/mcu/stm32_ws/src/libraries/STM32F4xx_StdPeriph_Driver/src/stm32f4xx_can.c ****   */
1644:/home/rdu/Workspace/project_templates/mcu/stm32_ws/src/libraries/STM32F4xx_StdPeriph_Driver/src/stm32f4xx_can.c **** ITStatus CAN_GetITStatus(CAN_TypeDef* CANx, uint32_t CAN_IT)
1645:/home/rdu/Workspace/project_templates/mcu/stm32_ws/src/libraries/STM32F4xx_StdPeriph_Driver/src/stm32f4xx_can.c **** {
 2416              		.loc 1 1645 0
 2417              		.cfi_startproc
 2418              		@ args = 0, pretend = 0, frame = 16
 2419              		@ frame_needed = 0, uses_anonymous_args = 0
 2420 0000 00B5     		push	{lr}
 2421              	.LCFI47:
 2422              		.cfi_def_cfa_offset 4
 2423              		.cfi_offset 14, -4
 2424 0002 85B0     		sub	sp, sp, #20
 2425              	.LCFI48:
 2426              		.cfi_def_cfa_offset 24
 2427 0004 0190     		str	r0, [sp, #4]
 2428 0006 0091     		str	r1, [sp]
1646:/home/rdu/Workspace/project_templates/mcu/stm32_ws/src/libraries/STM32F4xx_StdPeriph_Driver/src/stm32f4xx_can.c ****   ITStatus itstatus = RESET;
 2429              		.loc 1 1646 0
 2430 0008 0023     		movs	r3, #0
 2431 000a 8DF80F30 		strb	r3, [sp, #15]
1647:/home/rdu/Workspace/project_templates/mcu/stm32_ws/src/libraries/STM32F4xx_StdPeriph_Driver/src/stm32f4xx_can.c ****   /* Check the parameters */
1648:/home/rdu/Workspace/project_templates/mcu/stm32_ws/src/libraries/STM32F4xx_StdPeriph_Driver/src/stm32f4xx_can.c ****   assert_param(IS_CAN_ALL_PERIPH(CANx));
1649:/home/rdu/Workspace/project_templates/mcu/stm32_ws/src/libraries/STM32F4xx_StdPeriph_Driver/src/stm32f4xx_can.c ****   assert_param(IS_CAN_IT(CAN_IT));
1650:/home/rdu/Workspace/project_templates/mcu/stm32_ws/src/libraries/STM32F4xx_StdPeriph_Driver/src/stm32f4xx_can.c ****   
1651:/home/rdu/Workspace/project_templates/mcu/stm32_ws/src/libraries/STM32F4xx_StdPeriph_Driver/src/stm32f4xx_can.c ****   /* check the interrupt enable bit */
1652:/home/rdu/Workspace/project_templates/mcu/stm32_ws/src/libraries/STM32F4xx_StdPeriph_Driver/src/stm32f4xx_can.c ****  if((CANx->IER & CAN_IT) != RESET)
 2432              		.loc 1 1652 0
 2433 000e 019B     		ldr	r3, [sp, #4]
 2434 0010 5A69     		ldr	r2, [r3, #20]
 2435 0012 009B     		ldr	r3, [sp]
 2436 0014 1340     		ands	r3, r3, r2
 2437 0016 002B     		cmp	r3, #0
 2438 0018 00F0C280 		beq	.L168
1653:/home/rdu/Workspace/project_templates/mcu/stm32_ws/src/libraries/STM32F4xx_StdPeriph_Driver/src/stm32f4xx_can.c ****  {
1654:/home/rdu/Workspace/project_templates/mcu/stm32_ws/src/libraries/STM32F4xx_StdPeriph_Driver/src/stm32f4xx_can.c ****    /* in case the Interrupt is enabled, .... */
1655:/home/rdu/Workspace/project_templates/mcu/stm32_ws/src/libraries/STM32F4xx_StdPeriph_Driver/src/stm32f4xx_can.c ****     switch (CAN_IT)
 2439              		.loc 1 1655 0
 2440 001c 009B     		ldr	r3, [sp]
 2441 001e 402B     		cmp	r3, #64
 2442 0020 69D0     		beq	.L170
 2443 0022 402B     		cmp	r3, #64
 2444 0024 0FD8     		bhi	.L171
 2445 0026 042B     		cmp	r3, #4
 2446 0028 3DD0     		beq	.L172
 2447 002a 042B     		cmp	r3, #4
 2448 002c 04D8     		bhi	.L173
 2449 002e 012B     		cmp	r3, #1
 2450 0030 25D0     		beq	.L174
 2451 0032 022B     		cmp	r3, #2
 2452 0034 2DD0     		beq	.L175
 2453 0036 AEE0     		b	.L169
 2454              	.L173:
 2455 0038 102B     		cmp	r3, #16
 2456 003a 48D0     		beq	.L176
 2457 003c 202B     		cmp	r3, #32
 2458 003e 50D0     		beq	.L177
 2459 0040 082B     		cmp	r3, #8
 2460 0042 3AD0     		beq	.L178
 2461 0044 A7E0     		b	.L169
 2462              	.L171:
 2463 0046 B3F5006F 		cmp	r3, #2048
 2464 004a 00F09080 		beq	.L179
 2465 004e B3F5006F 		cmp	r3, #2048
 2466 0052 09D8     		bhi	.L180
 2467 0054 B3F5007F 		cmp	r3, #512
 2468 0058 75D0     		beq	.L181
 2469 005a B3F5806F 		cmp	r3, #1024
 2470 005e 7CD0     		beq	.L182
 2471 0060 B3F5807F 		cmp	r3, #256
 2472 0064 65D0     		beq	.L183
 2473 0066 96E0     		b	.L169
 2474              	.L180:
 2475 0068 B3F5803F 		cmp	r3, #65536
 2476 006c 4DD0     		beq	.L184
 2477 006e B3F5003F 		cmp	r3, #131072
 2478 0072 54D0     		beq	.L185
 2479 0074 B3F5004F 		cmp	r3, #32768
 2480 0078 00F08380 		beq	.L186
 2481 007c 8BE0     		b	.L169
 2482              	.L174:
1656:/home/rdu/Workspace/project_templates/mcu/stm32_ws/src/libraries/STM32F4xx_StdPeriph_Driver/src/stm32f4xx_can.c ****     {
1657:/home/rdu/Workspace/project_templates/mcu/stm32_ws/src/libraries/STM32F4xx_StdPeriph_Driver/src/stm32f4xx_can.c ****       case CAN_IT_TME:
1658:/home/rdu/Workspace/project_templates/mcu/stm32_ws/src/libraries/STM32F4xx_StdPeriph_Driver/src/stm32f4xx_can.c ****         /* Check CAN_TSR_RQCPx bits */
1659:/home/rdu/Workspace/project_templates/mcu/stm32_ws/src/libraries/STM32F4xx_StdPeriph_Driver/src/stm32f4xx_can.c ****         itstatus = CheckITStatus(CANx->TSR, CAN_TSR_RQCP0|CAN_TSR_RQCP1|CAN_TSR_RQCP2);  
 2483              		.loc 1 1659 0
 2484 007e 019B     		ldr	r3, [sp, #4]
 2485 0080 9B68     		ldr	r3, [r3, #8]
 2486 0082 4C49     		ldr	r1, .L190
 2487 0084 1846     		mov	r0, r3
 2488 0086 FFF7FEFF 		bl	CheckITStatus
 2489 008a 0346     		mov	r3, r0
 2490 008c 8DF80F30 		strb	r3, [sp, #15]
1660:/home/rdu/Workspace/project_templates/mcu/stm32_ws/src/libraries/STM32F4xx_StdPeriph_Driver/src/stm32f4xx_can.c ****         break;
 2491              		.loc 1 1660 0
 2492 0090 89E0     		b	.L188
 2493              	.L175:
1661:/home/rdu/Workspace/project_templates/mcu/stm32_ws/src/libraries/STM32F4xx_StdPeriph_Driver/src/stm32f4xx_can.c ****       case CAN_IT_FMP0:
1662:/home/rdu/Workspace/project_templates/mcu/stm32_ws/src/libraries/STM32F4xx_StdPeriph_Driver/src/stm32f4xx_can.c ****         /* Check CAN_RF0R_FMP0 bit */
1663:/home/rdu/Workspace/project_templates/mcu/stm32_ws/src/libraries/STM32F4xx_StdPeriph_Driver/src/stm32f4xx_can.c ****         itstatus = CheckITStatus(CANx->RF0R, CAN_RF0R_FMP0);  
 2494              		.loc 1 1663 0
 2495 0092 019B     		ldr	r3, [sp, #4]
 2496 0094 DB68     		ldr	r3, [r3, #12]
 2497 0096 0321     		movs	r1, #3
 2498 0098 1846     		mov	r0, r3
 2499 009a FFF7FEFF 		bl	CheckITStatus
 2500 009e 0346     		mov	r3, r0
 2501 00a0 8DF80F30 		strb	r3, [sp, #15]
1664:/home/rdu/Workspace/project_templates/mcu/stm32_ws/src/libraries/STM32F4xx_StdPeriph_Driver/src/stm32f4xx_can.c ****         break;
 2502              		.loc 1 1664 0
 2503 00a4 7FE0     		b	.L188
 2504              	.L172:
1665:/home/rdu/Workspace/project_templates/mcu/stm32_ws/src/libraries/STM32F4xx_StdPeriph_Driver/src/stm32f4xx_can.c ****       case CAN_IT_FF0:
1666:/home/rdu/Workspace/project_templates/mcu/stm32_ws/src/libraries/STM32F4xx_StdPeriph_Driver/src/stm32f4xx_can.c ****         /* Check CAN_RF0R_FULL0 bit */
1667:/home/rdu/Workspace/project_templates/mcu/stm32_ws/src/libraries/STM32F4xx_StdPeriph_Driver/src/stm32f4xx_can.c ****         itstatus = CheckITStatus(CANx->RF0R, CAN_RF0R_FULL0);  
 2505              		.loc 1 1667 0
 2506 00a6 019B     		ldr	r3, [sp, #4]
 2507 00a8 DB68     		ldr	r3, [r3, #12]
 2508 00aa 0821     		movs	r1, #8
 2509 00ac 1846     		mov	r0, r3
 2510 00ae FFF7FEFF 		bl	CheckITStatus
 2511 00b2 0346     		mov	r3, r0
 2512 00b4 8DF80F30 		strb	r3, [sp, #15]
1668:/home/rdu/Workspace/project_templates/mcu/stm32_ws/src/libraries/STM32F4xx_StdPeriph_Driver/src/stm32f4xx_can.c ****         break;
 2513              		.loc 1 1668 0
 2514 00b8 75E0     		b	.L188
 2515              	.L178:
1669:/home/rdu/Workspace/project_templates/mcu/stm32_ws/src/libraries/STM32F4xx_StdPeriph_Driver/src/stm32f4xx_can.c ****       case CAN_IT_FOV0:
1670:/home/rdu/Workspace/project_templates/mcu/stm32_ws/src/libraries/STM32F4xx_StdPeriph_Driver/src/stm32f4xx_can.c ****         /* Check CAN_RF0R_FOVR0 bit */
1671:/home/rdu/Workspace/project_templates/mcu/stm32_ws/src/libraries/STM32F4xx_StdPeriph_Driver/src/stm32f4xx_can.c ****         itstatus = CheckITStatus(CANx->RF0R, CAN_RF0R_FOVR0);  
 2516              		.loc 1 1671 0
 2517 00ba 019B     		ldr	r3, [sp, #4]
 2518 00bc DB68     		ldr	r3, [r3, #12]
 2519 00be 1021     		movs	r1, #16
 2520 00c0 1846     		mov	r0, r3
 2521 00c2 FFF7FEFF 		bl	CheckITStatus
 2522 00c6 0346     		mov	r3, r0
 2523 00c8 8DF80F30 		strb	r3, [sp, #15]
1672:/home/rdu/Workspace/project_templates/mcu/stm32_ws/src/libraries/STM32F4xx_StdPeriph_Driver/src/stm32f4xx_can.c ****         break;
 2524              		.loc 1 1672 0
 2525 00cc 6BE0     		b	.L188
 2526              	.L176:
1673:/home/rdu/Workspace/project_templates/mcu/stm32_ws/src/libraries/STM32F4xx_StdPeriph_Driver/src/stm32f4xx_can.c ****       case CAN_IT_FMP1:
1674:/home/rdu/Workspace/project_templates/mcu/stm32_ws/src/libraries/STM32F4xx_StdPeriph_Driver/src/stm32f4xx_can.c ****         /* Check CAN_RF1R_FMP1 bit */
1675:/home/rdu/Workspace/project_templates/mcu/stm32_ws/src/libraries/STM32F4xx_StdPeriph_Driver/src/stm32f4xx_can.c ****         itstatus = CheckITStatus(CANx->RF1R, CAN_RF1R_FMP1);  
 2527              		.loc 1 1675 0
 2528 00ce 019B     		ldr	r3, [sp, #4]
 2529 00d0 1B69     		ldr	r3, [r3, #16]
 2530 00d2 0321     		movs	r1, #3
 2531 00d4 1846     		mov	r0, r3
 2532 00d6 FFF7FEFF 		bl	CheckITStatus
 2533 00da 0346     		mov	r3, r0
 2534 00dc 8DF80F30 		strb	r3, [sp, #15]
1676:/home/rdu/Workspace/project_templates/mcu/stm32_ws/src/libraries/STM32F4xx_StdPeriph_Driver/src/stm32f4xx_can.c ****         break;
 2535              		.loc 1 1676 0
 2536 00e0 61E0     		b	.L188
 2537              	.L177:
1677:/home/rdu/Workspace/project_templates/mcu/stm32_ws/src/libraries/STM32F4xx_StdPeriph_Driver/src/stm32f4xx_can.c ****       case CAN_IT_FF1:
1678:/home/rdu/Workspace/project_templates/mcu/stm32_ws/src/libraries/STM32F4xx_StdPeriph_Driver/src/stm32f4xx_can.c ****         /* Check CAN_RF1R_FULL1 bit */
1679:/home/rdu/Workspace/project_templates/mcu/stm32_ws/src/libraries/STM32F4xx_StdPeriph_Driver/src/stm32f4xx_can.c ****         itstatus = CheckITStatus(CANx->RF1R, CAN_RF1R_FULL1);  
 2538              		.loc 1 1679 0
 2539 00e2 019B     		ldr	r3, [sp, #4]
 2540 00e4 1B69     		ldr	r3, [r3, #16]
 2541 00e6 0821     		movs	r1, #8
 2542 00e8 1846     		mov	r0, r3
 2543 00ea FFF7FEFF 		bl	CheckITStatus
 2544 00ee 0346     		mov	r3, r0
 2545 00f0 8DF80F30 		strb	r3, [sp, #15]
1680:/home/rdu/Workspace/project_templates/mcu/stm32_ws/src/libraries/STM32F4xx_StdPeriph_Driver/src/stm32f4xx_can.c ****         break;
 2546              		.loc 1 1680 0
 2547 00f4 57E0     		b	.L188
 2548              	.L170:
1681:/home/rdu/Workspace/project_templates/mcu/stm32_ws/src/libraries/STM32F4xx_StdPeriph_Driver/src/stm32f4xx_can.c ****       case CAN_IT_FOV1:
1682:/home/rdu/Workspace/project_templates/mcu/stm32_ws/src/libraries/STM32F4xx_StdPeriph_Driver/src/stm32f4xx_can.c ****         /* Check CAN_RF1R_FOVR1 bit */
1683:/home/rdu/Workspace/project_templates/mcu/stm32_ws/src/libraries/STM32F4xx_StdPeriph_Driver/src/stm32f4xx_can.c ****         itstatus = CheckITStatus(CANx->RF1R, CAN_RF1R_FOVR1);  
 2549              		.loc 1 1683 0
 2550 00f6 019B     		ldr	r3, [sp, #4]
 2551 00f8 1B69     		ldr	r3, [r3, #16]
 2552 00fa 1021     		movs	r1, #16
 2553 00fc 1846     		mov	r0, r3
 2554 00fe FFF7FEFF 		bl	CheckITStatus
 2555 0102 0346     		mov	r3, r0
 2556 0104 8DF80F30 		strb	r3, [sp, #15]
1684:/home/rdu/Workspace/project_templates/mcu/stm32_ws/src/libraries/STM32F4xx_StdPeriph_Driver/src/stm32f4xx_can.c ****         break;
 2557              		.loc 1 1684 0
 2558 0108 4DE0     		b	.L188
 2559              	.L184:
1685:/home/rdu/Workspace/project_templates/mcu/stm32_ws/src/libraries/STM32F4xx_StdPeriph_Driver/src/stm32f4xx_can.c ****       case CAN_IT_WKU:
1686:/home/rdu/Workspace/project_templates/mcu/stm32_ws/src/libraries/STM32F4xx_StdPeriph_Driver/src/stm32f4xx_can.c ****         /* Check CAN_MSR_WKUI bit */
1687:/home/rdu/Workspace/project_templates/mcu/stm32_ws/src/libraries/STM32F4xx_StdPeriph_Driver/src/stm32f4xx_can.c ****         itstatus = CheckITStatus(CANx->MSR, CAN_MSR_WKUI);  
 2560              		.loc 1 1687 0
 2561 010a 019B     		ldr	r3, [sp, #4]
 2562 010c 5B68     		ldr	r3, [r3, #4]
 2563 010e 0821     		movs	r1, #8
 2564 0110 1846     		mov	r0, r3
 2565 0112 FFF7FEFF 		bl	CheckITStatus
 2566 0116 0346     		mov	r3, r0
 2567 0118 8DF80F30 		strb	r3, [sp, #15]
1688:/home/rdu/Workspace/project_templates/mcu/stm32_ws/src/libraries/STM32F4xx_StdPeriph_Driver/src/stm32f4xx_can.c ****         break;
 2568              		.loc 1 1688 0
 2569 011c 43E0     		b	.L188
 2570              	.L185:
1689:/home/rdu/Workspace/project_templates/mcu/stm32_ws/src/libraries/STM32F4xx_StdPeriph_Driver/src/stm32f4xx_can.c ****       case CAN_IT_SLK:
1690:/home/rdu/Workspace/project_templates/mcu/stm32_ws/src/libraries/STM32F4xx_StdPeriph_Driver/src/stm32f4xx_can.c ****         /* Check CAN_MSR_SLAKI bit */
1691:/home/rdu/Workspace/project_templates/mcu/stm32_ws/src/libraries/STM32F4xx_StdPeriph_Driver/src/stm32f4xx_can.c ****         itstatus = CheckITStatus(CANx->MSR, CAN_MSR_SLAKI);  
 2571              		.loc 1 1691 0
 2572 011e 019B     		ldr	r3, [sp, #4]
 2573 0120 5B68     		ldr	r3, [r3, #4]
 2574 0122 1021     		movs	r1, #16
 2575 0124 1846     		mov	r0, r3
 2576 0126 FFF7FEFF 		bl	CheckITStatus
 2577 012a 0346     		mov	r3, r0
 2578 012c 8DF80F30 		strb	r3, [sp, #15]
1692:/home/rdu/Workspace/project_templates/mcu/stm32_ws/src/libraries/STM32F4xx_StdPeriph_Driver/src/stm32f4xx_can.c ****         break;
 2579              		.loc 1 1692 0
 2580 0130 39E0     		b	.L188
 2581              	.L183:
1693:/home/rdu/Workspace/project_templates/mcu/stm32_ws/src/libraries/STM32F4xx_StdPeriph_Driver/src/stm32f4xx_can.c ****       case CAN_IT_EWG:
1694:/home/rdu/Workspace/project_templates/mcu/stm32_ws/src/libraries/STM32F4xx_StdPeriph_Driver/src/stm32f4xx_can.c ****         /* Check CAN_ESR_EWGF bit */
1695:/home/rdu/Workspace/project_templates/mcu/stm32_ws/src/libraries/STM32F4xx_StdPeriph_Driver/src/stm32f4xx_can.c ****         itstatus = CheckITStatus(CANx->ESR, CAN_ESR_EWGF);  
 2582              		.loc 1 1695 0
 2583 0132 019B     		ldr	r3, [sp, #4]
 2584 0134 9B69     		ldr	r3, [r3, #24]
 2585 0136 0121     		movs	r1, #1
 2586 0138 1846     		mov	r0, r3
 2587 013a FFF7FEFF 		bl	CheckITStatus
 2588 013e 0346     		mov	r3, r0
 2589 0140 8DF80F30 		strb	r3, [sp, #15]
1696:/home/rdu/Workspace/project_templates/mcu/stm32_ws/src/libraries/STM32F4xx_StdPeriph_Driver/src/stm32f4xx_can.c ****         break;
 2590              		.loc 1 1696 0
 2591 0144 2FE0     		b	.L188
 2592              	.L181:
1697:/home/rdu/Workspace/project_templates/mcu/stm32_ws/src/libraries/STM32F4xx_StdPeriph_Driver/src/stm32f4xx_can.c ****       case CAN_IT_EPV:
1698:/home/rdu/Workspace/project_templates/mcu/stm32_ws/src/libraries/STM32F4xx_StdPeriph_Driver/src/stm32f4xx_can.c ****         /* Check CAN_ESR_EPVF bit */
1699:/home/rdu/Workspace/project_templates/mcu/stm32_ws/src/libraries/STM32F4xx_StdPeriph_Driver/src/stm32f4xx_can.c ****         itstatus = CheckITStatus(CANx->ESR, CAN_ESR_EPVF);  
 2593              		.loc 1 1699 0
 2594 0146 019B     		ldr	r3, [sp, #4]
 2595 0148 9B69     		ldr	r3, [r3, #24]
 2596 014a 0221     		movs	r1, #2
 2597 014c 1846     		mov	r0, r3
 2598 014e FFF7FEFF 		bl	CheckITStatus
 2599 0152 0346     		mov	r3, r0
 2600 0154 8DF80F30 		strb	r3, [sp, #15]
1700:/home/rdu/Workspace/project_templates/mcu/stm32_ws/src/libraries/STM32F4xx_StdPeriph_Driver/src/stm32f4xx_can.c ****         break;
 2601              		.loc 1 1700 0
 2602 0158 25E0     		b	.L188
 2603              	.L182:
1701:/home/rdu/Workspace/project_templates/mcu/stm32_ws/src/libraries/STM32F4xx_StdPeriph_Driver/src/stm32f4xx_can.c ****       case CAN_IT_BOF:
1702:/home/rdu/Workspace/project_templates/mcu/stm32_ws/src/libraries/STM32F4xx_StdPeriph_Driver/src/stm32f4xx_can.c ****         /* Check CAN_ESR_BOFF bit */
1703:/home/rdu/Workspace/project_templates/mcu/stm32_ws/src/libraries/STM32F4xx_StdPeriph_Driver/src/stm32f4xx_can.c ****         itstatus = CheckITStatus(CANx->ESR, CAN_ESR_BOFF);  
 2604              		.loc 1 1703 0
 2605 015a 019B     		ldr	r3, [sp, #4]
 2606 015c 9B69     		ldr	r3, [r3, #24]
 2607 015e 0421     		movs	r1, #4
 2608 0160 1846     		mov	r0, r3
 2609 0162 FFF7FEFF 		bl	CheckITStatus
 2610 0166 0346     		mov	r3, r0
 2611 0168 8DF80F30 		strb	r3, [sp, #15]
1704:/home/rdu/Workspace/project_templates/mcu/stm32_ws/src/libraries/STM32F4xx_StdPeriph_Driver/src/stm32f4xx_can.c ****         break;
 2612              		.loc 1 1704 0
 2613 016c 1BE0     		b	.L188
 2614              	.L179:
1705:/home/rdu/Workspace/project_templates/mcu/stm32_ws/src/libraries/STM32F4xx_StdPeriph_Driver/src/stm32f4xx_can.c ****       case CAN_IT_LEC:
1706:/home/rdu/Workspace/project_templates/mcu/stm32_ws/src/libraries/STM32F4xx_StdPeriph_Driver/src/stm32f4xx_can.c ****         /* Check CAN_ESR_LEC bit */
1707:/home/rdu/Workspace/project_templates/mcu/stm32_ws/src/libraries/STM32F4xx_StdPeriph_Driver/src/stm32f4xx_can.c ****         itstatus = CheckITStatus(CANx->ESR, CAN_ESR_LEC);  
 2615              		.loc 1 1707 0
 2616 016e 019B     		ldr	r3, [sp, #4]
 2617 0170 9B69     		ldr	r3, [r3, #24]
 2618 0172 7021     		movs	r1, #112
 2619 0174 1846     		mov	r0, r3
 2620 0176 FFF7FEFF 		bl	CheckITStatus
 2621 017a 0346     		mov	r3, r0
 2622 017c 8DF80F30 		strb	r3, [sp, #15]
1708:/home/rdu/Workspace/project_templates/mcu/stm32_ws/src/libraries/STM32F4xx_StdPeriph_Driver/src/stm32f4xx_can.c ****         break;
 2623              		.loc 1 1708 0
 2624 0180 11E0     		b	.L188
 2625              	.L186:
1709:/home/rdu/Workspace/project_templates/mcu/stm32_ws/src/libraries/STM32F4xx_StdPeriph_Driver/src/stm32f4xx_can.c ****       case CAN_IT_ERR:
1710:/home/rdu/Workspace/project_templates/mcu/stm32_ws/src/libraries/STM32F4xx_StdPeriph_Driver/src/stm32f4xx_can.c ****         /* Check CAN_MSR_ERRI bit */ 
1711:/home/rdu/Workspace/project_templates/mcu/stm32_ws/src/libraries/STM32F4xx_StdPeriph_Driver/src/stm32f4xx_can.c ****         itstatus = CheckITStatus(CANx->MSR, CAN_MSR_ERRI); 
 2626              		.loc 1 1711 0
 2627 0182 019B     		ldr	r3, [sp, #4]
 2628 0184 5B68     		ldr	r3, [r3, #4]
 2629 0186 0421     		movs	r1, #4
 2630 0188 1846     		mov	r0, r3
 2631 018a FFF7FEFF 		bl	CheckITStatus
 2632 018e 0346     		mov	r3, r0
 2633 0190 8DF80F30 		strb	r3, [sp, #15]
1712:/home/rdu/Workspace/project_templates/mcu/stm32_ws/src/libraries/STM32F4xx_StdPeriph_Driver/src/stm32f4xx_can.c ****         break;
 2634              		.loc 1 1712 0
 2635 0194 07E0     		b	.L188
 2636              	.L169:
1713:/home/rdu/Workspace/project_templates/mcu/stm32_ws/src/libraries/STM32F4xx_StdPeriph_Driver/src/stm32f4xx_can.c ****       default:
1714:/home/rdu/Workspace/project_templates/mcu/stm32_ws/src/libraries/STM32F4xx_StdPeriph_Driver/src/stm32f4xx_can.c ****         /* in case of error, return RESET */
1715:/home/rdu/Workspace/project_templates/mcu/stm32_ws/src/libraries/STM32F4xx_StdPeriph_Driver/src/stm32f4xx_can.c ****         itstatus = RESET;
 2637              		.loc 1 1715 0
 2638 0196 0023     		movs	r3, #0
 2639 0198 8DF80F30 		strb	r3, [sp, #15]
1716:/home/rdu/Workspace/project_templates/mcu/stm32_ws/src/libraries/STM32F4xx_StdPeriph_Driver/src/stm32f4xx_can.c ****         break;
 2640              		.loc 1 1716 0
 2641 019c 00BF     		nop
 2642 019e 02E0     		b	.L188
 2643              	.L168:
1717:/home/rdu/Workspace/project_templates/mcu/stm32_ws/src/libraries/STM32F4xx_StdPeriph_Driver/src/stm32f4xx_can.c ****     }
1718:/home/rdu/Workspace/project_templates/mcu/stm32_ws/src/libraries/STM32F4xx_StdPeriph_Driver/src/stm32f4xx_can.c ****   }
1719:/home/rdu/Workspace/project_templates/mcu/stm32_ws/src/libraries/STM32F4xx_StdPeriph_Driver/src/stm32f4xx_can.c ****   else
1720:/home/rdu/Workspace/project_templates/mcu/stm32_ws/src/libraries/STM32F4xx_StdPeriph_Driver/src/stm32f4xx_can.c ****   {
1721:/home/rdu/Workspace/project_templates/mcu/stm32_ws/src/libraries/STM32F4xx_StdPeriph_Driver/src/stm32f4xx_can.c ****    /* in case the Interrupt is not enabled, return RESET */
1722:/home/rdu/Workspace/project_templates/mcu/stm32_ws/src/libraries/STM32F4xx_StdPeriph_Driver/src/stm32f4xx_can.c ****     itstatus  = RESET;
 2644              		.loc 1 1722 0
 2645 01a0 0023     		movs	r3, #0
 2646 01a2 8DF80F30 		strb	r3, [sp, #15]
 2647              	.L188:
1723:/home/rdu/Workspace/project_templates/mcu/stm32_ws/src/libraries/STM32F4xx_StdPeriph_Driver/src/stm32f4xx_can.c ****   }
1724:/home/rdu/Workspace/project_templates/mcu/stm32_ws/src/libraries/STM32F4xx_StdPeriph_Driver/src/stm32f4xx_can.c ****   
1725:/home/rdu/Workspace/project_templates/mcu/stm32_ws/src/libraries/STM32F4xx_StdPeriph_Driver/src/stm32f4xx_can.c ****   /* Return the CAN_IT status */
1726:/home/rdu/Workspace/project_templates/mcu/stm32_ws/src/libraries/STM32F4xx_StdPeriph_Driver/src/stm32f4xx_can.c ****   return  itstatus;
 2648              		.loc 1 1726 0
 2649 01a6 9DF80F30 		ldrb	r3, [sp, #15]	@ zero_extendqisi2
1727:/home/rdu/Workspace/project_templates/mcu/stm32_ws/src/libraries/STM32F4xx_StdPeriph_Driver/src/stm32f4xx_can.c **** }
 2650              		.loc 1 1727 0
 2651 01aa 1846     		mov	r0, r3
 2652 01ac 05B0     		add	sp, sp, #20
 2653              	.LCFI49:
 2654              		.cfi_def_cfa_offset 4
 2655              		@ sp needed
 2656 01ae 5DF804FB 		ldr	pc, [sp], #4
 2657              	.L191:
 2658 01b2 00BF     		.align	2
 2659              	.L190:
 2660 01b4 01010100 		.word	65793
 2661              		.cfi_endproc
 2662              	.LFE145:
 2664              		.section	.text.CAN_ClearITPendingBit,"ax",%progbits
 2665              		.align	1
 2666              		.global	CAN_ClearITPendingBit
 2667              		.syntax unified
 2668              		.thumb
 2669              		.thumb_func
 2670              		.fpu fpv4-sp-d16
 2672              	CAN_ClearITPendingBit:
 2673              	.LFB146:
1728:/home/rdu/Workspace/project_templates/mcu/stm32_ws/src/libraries/STM32F4xx_StdPeriph_Driver/src/stm32f4xx_can.c **** 
1729:/home/rdu/Workspace/project_templates/mcu/stm32_ws/src/libraries/STM32F4xx_StdPeriph_Driver/src/stm32f4xx_can.c **** /**
1730:/home/rdu/Workspace/project_templates/mcu/stm32_ws/src/libraries/STM32F4xx_StdPeriph_Driver/src/stm32f4xx_can.c ****   * @brief  Clears the CANx's interrupt pending bits.
1731:/home/rdu/Workspace/project_templates/mcu/stm32_ws/src/libraries/STM32F4xx_StdPeriph_Driver/src/stm32f4xx_can.c ****   * @param  CANx: where x can be 1,2 or 3 to select the CAN peripheral.
1732:/home/rdu/Workspace/project_templates/mcu/stm32_ws/src/libraries/STM32F4xx_StdPeriph_Driver/src/stm32f4xx_can.c ****   * @param  CAN_IT: specifies the interrupt pending bit to clear.
1733:/home/rdu/Workspace/project_templates/mcu/stm32_ws/src/libraries/STM32F4xx_StdPeriph_Driver/src/stm32f4xx_can.c ****   *          This parameter can be one of the following values:
1734:/home/rdu/Workspace/project_templates/mcu/stm32_ws/src/libraries/STM32F4xx_StdPeriph_Driver/src/stm32f4xx_can.c ****   *            @arg CAN_IT_TME: Transmit mailbox empty Interrupt
1735:/home/rdu/Workspace/project_templates/mcu/stm32_ws/src/libraries/STM32F4xx_StdPeriph_Driver/src/stm32f4xx_can.c ****   *            @arg CAN_IT_FF0: FIFO 0 full Interrupt
1736:/home/rdu/Workspace/project_templates/mcu/stm32_ws/src/libraries/STM32F4xx_StdPeriph_Driver/src/stm32f4xx_can.c ****   *            @arg CAN_IT_FOV0: FIFO 0 overrun Interrupt
1737:/home/rdu/Workspace/project_templates/mcu/stm32_ws/src/libraries/STM32F4xx_StdPeriph_Driver/src/stm32f4xx_can.c ****   *            @arg CAN_IT_FF1: FIFO 1 full Interrupt
1738:/home/rdu/Workspace/project_templates/mcu/stm32_ws/src/libraries/STM32F4xx_StdPeriph_Driver/src/stm32f4xx_can.c ****   *            @arg CAN_IT_FOV1: FIFO 1 overrun Interrupt
1739:/home/rdu/Workspace/project_templates/mcu/stm32_ws/src/libraries/STM32F4xx_StdPeriph_Driver/src/stm32f4xx_can.c ****   *            @arg CAN_IT_WKU: Wake-up Interrupt
1740:/home/rdu/Workspace/project_templates/mcu/stm32_ws/src/libraries/STM32F4xx_StdPeriph_Driver/src/stm32f4xx_can.c ****   *            @arg CAN_IT_SLK: Sleep acknowledge Interrupt  
1741:/home/rdu/Workspace/project_templates/mcu/stm32_ws/src/libraries/STM32F4xx_StdPeriph_Driver/src/stm32f4xx_can.c ****   *            @arg CAN_IT_EWG: Error warning Interrupt
1742:/home/rdu/Workspace/project_templates/mcu/stm32_ws/src/libraries/STM32F4xx_StdPeriph_Driver/src/stm32f4xx_can.c ****   *            @arg CAN_IT_EPV: Error passive Interrupt
1743:/home/rdu/Workspace/project_templates/mcu/stm32_ws/src/libraries/STM32F4xx_StdPeriph_Driver/src/stm32f4xx_can.c ****   *            @arg CAN_IT_BOF: Bus-off Interrupt  
1744:/home/rdu/Workspace/project_templates/mcu/stm32_ws/src/libraries/STM32F4xx_StdPeriph_Driver/src/stm32f4xx_can.c ****   *            @arg CAN_IT_LEC: Last error code Interrupt
1745:/home/rdu/Workspace/project_templates/mcu/stm32_ws/src/libraries/STM32F4xx_StdPeriph_Driver/src/stm32f4xx_can.c ****   *            @arg CAN_IT_ERR: Error Interrupt
1746:/home/rdu/Workspace/project_templates/mcu/stm32_ws/src/libraries/STM32F4xx_StdPeriph_Driver/src/stm32f4xx_can.c ****   * @note   CAN3 peripheral is available only for STM32F413_423xx devices
1747:/home/rdu/Workspace/project_templates/mcu/stm32_ws/src/libraries/STM32F4xx_StdPeriph_Driver/src/stm32f4xx_can.c ****   * @retval None
1748:/home/rdu/Workspace/project_templates/mcu/stm32_ws/src/libraries/STM32F4xx_StdPeriph_Driver/src/stm32f4xx_can.c ****   */
1749:/home/rdu/Workspace/project_templates/mcu/stm32_ws/src/libraries/STM32F4xx_StdPeriph_Driver/src/stm32f4xx_can.c **** void CAN_ClearITPendingBit(CAN_TypeDef* CANx, uint32_t CAN_IT)
1750:/home/rdu/Workspace/project_templates/mcu/stm32_ws/src/libraries/STM32F4xx_StdPeriph_Driver/src/stm32f4xx_can.c **** {
 2674              		.loc 1 1750 0
 2675              		.cfi_startproc
 2676              		@ args = 0, pretend = 0, frame = 8
 2677              		@ frame_needed = 0, uses_anonymous_args = 0
 2678              		@ link register save eliminated.
 2679 0000 82B0     		sub	sp, sp, #8
 2680              	.LCFI50:
 2681              		.cfi_def_cfa_offset 8
 2682 0002 0190     		str	r0, [sp, #4]
 2683 0004 0091     		str	r1, [sp]
1751:/home/rdu/Workspace/project_templates/mcu/stm32_ws/src/libraries/STM32F4xx_StdPeriph_Driver/src/stm32f4xx_can.c ****   /* Check the parameters */
1752:/home/rdu/Workspace/project_templates/mcu/stm32_ws/src/libraries/STM32F4xx_StdPeriph_Driver/src/stm32f4xx_can.c ****   assert_param(IS_CAN_ALL_PERIPH(CANx));
1753:/home/rdu/Workspace/project_templates/mcu/stm32_ws/src/libraries/STM32F4xx_StdPeriph_Driver/src/stm32f4xx_can.c ****   assert_param(IS_CAN_CLEAR_IT(CAN_IT));
1754:/home/rdu/Workspace/project_templates/mcu/stm32_ws/src/libraries/STM32F4xx_StdPeriph_Driver/src/stm32f4xx_can.c **** 
1755:/home/rdu/Workspace/project_templates/mcu/stm32_ws/src/libraries/STM32F4xx_StdPeriph_Driver/src/stm32f4xx_can.c ****   switch (CAN_IT)
 2684              		.loc 1 1755 0
 2685 0006 009B     		ldr	r3, [sp]
 2686 0008 B3F5807F 		cmp	r3, #256
 2687 000c 43D0     		beq	.L194
 2688 000e B3F5807F 		cmp	r3, #256
 2689 0012 0DD8     		bhi	.L195
 2690 0014 082B     		cmp	r3, #8
 2691 0016 2AD0     		beq	.L196
 2692 0018 082B     		cmp	r3, #8
 2693 001a 04D8     		bhi	.L197
 2694 001c 012B     		cmp	r3, #1
 2695 001e 1ED0     		beq	.L198
 2696 0020 042B     		cmp	r3, #4
 2697 0022 20D0     		beq	.L199
1756:/home/rdu/Workspace/project_templates/mcu/stm32_ws/src/libraries/STM32F4xx_StdPeriph_Driver/src/stm32f4xx_can.c ****   {
1757:/home/rdu/Workspace/project_templates/mcu/stm32_ws/src/libraries/STM32F4xx_StdPeriph_Driver/src/stm32f4xx_can.c ****     case CAN_IT_TME:
1758:/home/rdu/Workspace/project_templates/mcu/stm32_ws/src/libraries/STM32F4xx_StdPeriph_Driver/src/stm32f4xx_can.c ****       /* Clear CAN_TSR_RQCPx (rc_w1)*/
1759:/home/rdu/Workspace/project_templates/mcu/stm32_ws/src/libraries/STM32F4xx_StdPeriph_Driver/src/stm32f4xx_can.c ****       CANx->TSR = CAN_TSR_RQCP0|CAN_TSR_RQCP1|CAN_TSR_RQCP2;  
1760:/home/rdu/Workspace/project_templates/mcu/stm32_ws/src/libraries/STM32F4xx_StdPeriph_Driver/src/stm32f4xx_can.c ****       break;
1761:/home/rdu/Workspace/project_templates/mcu/stm32_ws/src/libraries/STM32F4xx_StdPeriph_Driver/src/stm32f4xx_can.c ****     case CAN_IT_FF0:
1762:/home/rdu/Workspace/project_templates/mcu/stm32_ws/src/libraries/STM32F4xx_StdPeriph_Driver/src/stm32f4xx_can.c ****       /* Clear CAN_RF0R_FULL0 (rc_w1)*/
1763:/home/rdu/Workspace/project_templates/mcu/stm32_ws/src/libraries/STM32F4xx_StdPeriph_Driver/src/stm32f4xx_can.c ****       CANx->RF0R = CAN_RF0R_FULL0; 
1764:/home/rdu/Workspace/project_templates/mcu/stm32_ws/src/libraries/STM32F4xx_StdPeriph_Driver/src/stm32f4xx_can.c ****       break;
1765:/home/rdu/Workspace/project_templates/mcu/stm32_ws/src/libraries/STM32F4xx_StdPeriph_Driver/src/stm32f4xx_can.c ****     case CAN_IT_FOV0:
1766:/home/rdu/Workspace/project_templates/mcu/stm32_ws/src/libraries/STM32F4xx_StdPeriph_Driver/src/stm32f4xx_can.c ****       /* Clear CAN_RF0R_FOVR0 (rc_w1)*/
1767:/home/rdu/Workspace/project_templates/mcu/stm32_ws/src/libraries/STM32F4xx_StdPeriph_Driver/src/stm32f4xx_can.c ****       CANx->RF0R = CAN_RF0R_FOVR0; 
1768:/home/rdu/Workspace/project_templates/mcu/stm32_ws/src/libraries/STM32F4xx_StdPeriph_Driver/src/stm32f4xx_can.c ****       break;
1769:/home/rdu/Workspace/project_templates/mcu/stm32_ws/src/libraries/STM32F4xx_StdPeriph_Driver/src/stm32f4xx_can.c ****     case CAN_IT_FF1:
1770:/home/rdu/Workspace/project_templates/mcu/stm32_ws/src/libraries/STM32F4xx_StdPeriph_Driver/src/stm32f4xx_can.c ****       /* Clear CAN_RF1R_FULL1 (rc_w1)*/
1771:/home/rdu/Workspace/project_templates/mcu/stm32_ws/src/libraries/STM32F4xx_StdPeriph_Driver/src/stm32f4xx_can.c ****       CANx->RF1R = CAN_RF1R_FULL1;  
1772:/home/rdu/Workspace/project_templates/mcu/stm32_ws/src/libraries/STM32F4xx_StdPeriph_Driver/src/stm32f4xx_can.c ****       break;
1773:/home/rdu/Workspace/project_templates/mcu/stm32_ws/src/libraries/STM32F4xx_StdPeriph_Driver/src/stm32f4xx_can.c ****     case CAN_IT_FOV1:
1774:/home/rdu/Workspace/project_templates/mcu/stm32_ws/src/libraries/STM32F4xx_StdPeriph_Driver/src/stm32f4xx_can.c ****       /* Clear CAN_RF1R_FOVR1 (rc_w1)*/
1775:/home/rdu/Workspace/project_templates/mcu/stm32_ws/src/libraries/STM32F4xx_StdPeriph_Driver/src/stm32f4xx_can.c ****       CANx->RF1R = CAN_RF1R_FOVR1; 
1776:/home/rdu/Workspace/project_templates/mcu/stm32_ws/src/libraries/STM32F4xx_StdPeriph_Driver/src/stm32f4xx_can.c ****       break;
1777:/home/rdu/Workspace/project_templates/mcu/stm32_ws/src/libraries/STM32F4xx_StdPeriph_Driver/src/stm32f4xx_can.c ****     case CAN_IT_WKU:
1778:/home/rdu/Workspace/project_templates/mcu/stm32_ws/src/libraries/STM32F4xx_StdPeriph_Driver/src/stm32f4xx_can.c ****       /* Clear CAN_MSR_WKUI (rc_w1)*/
1779:/home/rdu/Workspace/project_templates/mcu/stm32_ws/src/libraries/STM32F4xx_StdPeriph_Driver/src/stm32f4xx_can.c ****       CANx->MSR = CAN_MSR_WKUI;  
1780:/home/rdu/Workspace/project_templates/mcu/stm32_ws/src/libraries/STM32F4xx_StdPeriph_Driver/src/stm32f4xx_can.c ****       break;
1781:/home/rdu/Workspace/project_templates/mcu/stm32_ws/src/libraries/STM32F4xx_StdPeriph_Driver/src/stm32f4xx_can.c ****     case CAN_IT_SLK:
1782:/home/rdu/Workspace/project_templates/mcu/stm32_ws/src/libraries/STM32F4xx_StdPeriph_Driver/src/stm32f4xx_can.c ****       /* Clear CAN_MSR_SLAKI (rc_w1)*/ 
1783:/home/rdu/Workspace/project_templates/mcu/stm32_ws/src/libraries/STM32F4xx_StdPeriph_Driver/src/stm32f4xx_can.c ****       CANx->MSR = CAN_MSR_SLAKI;   
1784:/home/rdu/Workspace/project_templates/mcu/stm32_ws/src/libraries/STM32F4xx_StdPeriph_Driver/src/stm32f4xx_can.c ****       break;
1785:/home/rdu/Workspace/project_templates/mcu/stm32_ws/src/libraries/STM32F4xx_StdPeriph_Driver/src/stm32f4xx_can.c ****     case CAN_IT_EWG:
1786:/home/rdu/Workspace/project_templates/mcu/stm32_ws/src/libraries/STM32F4xx_StdPeriph_Driver/src/stm32f4xx_can.c ****       /* Clear CAN_MSR_ERRI (rc_w1) */
1787:/home/rdu/Workspace/project_templates/mcu/stm32_ws/src/libraries/STM32F4xx_StdPeriph_Driver/src/stm32f4xx_can.c ****       CANx->MSR = CAN_MSR_ERRI;
1788:/home/rdu/Workspace/project_templates/mcu/stm32_ws/src/libraries/STM32F4xx_StdPeriph_Driver/src/stm32f4xx_can.c ****        /* @note the corresponding Flag is cleared by hardware depending on the CAN Bus status*/ 
1789:/home/rdu/Workspace/project_templates/mcu/stm32_ws/src/libraries/STM32F4xx_StdPeriph_Driver/src/stm32f4xx_can.c ****       break;
1790:/home/rdu/Workspace/project_templates/mcu/stm32_ws/src/libraries/STM32F4xx_StdPeriph_Driver/src/stm32f4xx_can.c ****     case CAN_IT_EPV:
1791:/home/rdu/Workspace/project_templates/mcu/stm32_ws/src/libraries/STM32F4xx_StdPeriph_Driver/src/stm32f4xx_can.c ****       /* Clear CAN_MSR_ERRI (rc_w1) */
1792:/home/rdu/Workspace/project_templates/mcu/stm32_ws/src/libraries/STM32F4xx_StdPeriph_Driver/src/stm32f4xx_can.c ****       CANx->MSR = CAN_MSR_ERRI; 
1793:/home/rdu/Workspace/project_templates/mcu/stm32_ws/src/libraries/STM32F4xx_StdPeriph_Driver/src/stm32f4xx_can.c ****        /* @note the corresponding Flag is cleared by hardware depending on the CAN Bus status*/
1794:/home/rdu/Workspace/project_templates/mcu/stm32_ws/src/libraries/STM32F4xx_StdPeriph_Driver/src/stm32f4xx_can.c ****       break;
1795:/home/rdu/Workspace/project_templates/mcu/stm32_ws/src/libraries/STM32F4xx_StdPeriph_Driver/src/stm32f4xx_can.c ****     case CAN_IT_BOF:
1796:/home/rdu/Workspace/project_templates/mcu/stm32_ws/src/libraries/STM32F4xx_StdPeriph_Driver/src/stm32f4xx_can.c ****       /* Clear CAN_MSR_ERRI (rc_w1) */ 
1797:/home/rdu/Workspace/project_templates/mcu/stm32_ws/src/libraries/STM32F4xx_StdPeriph_Driver/src/stm32f4xx_can.c ****       CANx->MSR = CAN_MSR_ERRI; 
1798:/home/rdu/Workspace/project_templates/mcu/stm32_ws/src/libraries/STM32F4xx_StdPeriph_Driver/src/stm32f4xx_can.c ****        /* @note the corresponding Flag is cleared by hardware depending on the CAN Bus status*/
1799:/home/rdu/Workspace/project_templates/mcu/stm32_ws/src/libraries/STM32F4xx_StdPeriph_Driver/src/stm32f4xx_can.c ****        break;
1800:/home/rdu/Workspace/project_templates/mcu/stm32_ws/src/libraries/STM32F4xx_StdPeriph_Driver/src/stm32f4xx_can.c ****     case CAN_IT_LEC:
1801:/home/rdu/Workspace/project_templates/mcu/stm32_ws/src/libraries/STM32F4xx_StdPeriph_Driver/src/stm32f4xx_can.c ****       /*  Clear LEC bits */
1802:/home/rdu/Workspace/project_templates/mcu/stm32_ws/src/libraries/STM32F4xx_StdPeriph_Driver/src/stm32f4xx_can.c ****       CANx->ESR = RESET; 
1803:/home/rdu/Workspace/project_templates/mcu/stm32_ws/src/libraries/STM32F4xx_StdPeriph_Driver/src/stm32f4xx_can.c ****       /* Clear CAN_MSR_ERRI (rc_w1) */
1804:/home/rdu/Workspace/project_templates/mcu/stm32_ws/src/libraries/STM32F4xx_StdPeriph_Driver/src/stm32f4xx_can.c ****       CANx->MSR = CAN_MSR_ERRI; 
1805:/home/rdu/Workspace/project_templates/mcu/stm32_ws/src/libraries/STM32F4xx_StdPeriph_Driver/src/stm32f4xx_can.c ****       break;
1806:/home/rdu/Workspace/project_templates/mcu/stm32_ws/src/libraries/STM32F4xx_StdPeriph_Driver/src/stm32f4xx_can.c ****     case CAN_IT_ERR:
1807:/home/rdu/Workspace/project_templates/mcu/stm32_ws/src/libraries/STM32F4xx_StdPeriph_Driver/src/stm32f4xx_can.c ****       /*Clear LEC bits */
1808:/home/rdu/Workspace/project_templates/mcu/stm32_ws/src/libraries/STM32F4xx_StdPeriph_Driver/src/stm32f4xx_can.c ****       CANx->ESR = RESET; 
1809:/home/rdu/Workspace/project_templates/mcu/stm32_ws/src/libraries/STM32F4xx_StdPeriph_Driver/src/stm32f4xx_can.c ****       /* Clear CAN_MSR_ERRI (rc_w1) */
1810:/home/rdu/Workspace/project_templates/mcu/stm32_ws/src/libraries/STM32F4xx_StdPeriph_Driver/src/stm32f4xx_can.c ****       CANx->MSR = CAN_MSR_ERRI; 
1811:/home/rdu/Workspace/project_templates/mcu/stm32_ws/src/libraries/STM32F4xx_StdPeriph_Driver/src/stm32f4xx_can.c ****        /* @note BOFF, EPVF and EWGF Flags are cleared by hardware depending on the CAN Bus status*/
1812:/home/rdu/Workspace/project_templates/mcu/stm32_ws/src/libraries/STM32F4xx_StdPeriph_Driver/src/stm32f4xx_can.c ****        break;
1813:/home/rdu/Workspace/project_templates/mcu/stm32_ws/src/libraries/STM32F4xx_StdPeriph_Driver/src/stm32f4xx_can.c ****     default:
1814:/home/rdu/Workspace/project_templates/mcu/stm32_ws/src/libraries/STM32F4xx_StdPeriph_Driver/src/stm32f4xx_can.c ****        break;
 2698              		.loc 1 1814 0
 2699 0024 51E0     		b	.L209
 2700              	.L197:
1755:/home/rdu/Workspace/project_templates/mcu/stm32_ws/src/libraries/STM32F4xx_StdPeriph_Driver/src/stm32f4xx_can.c ****   {
 2701              		.loc 1 1755 0
 2702 0026 202B     		cmp	r3, #32
 2703 0028 25D0     		beq	.L200
 2704 002a 402B     		cmp	r3, #64
 2705 002c 27D0     		beq	.L201
 2706              		.loc 1 1814 0
 2707 002e 4CE0     		b	.L209
 2708              	.L195:
1755:/home/rdu/Workspace/project_templates/mcu/stm32_ws/src/libraries/STM32F4xx_StdPeriph_Driver/src/stm32f4xx_can.c ****   {
 2709              		.loc 1 1755 0
 2710 0030 B3F5006F 		cmp	r3, #2048
 2711 0034 3BD0     		beq	.L202
 2712 0036 B3F5006F 		cmp	r3, #2048
 2713 003a 06D8     		bhi	.L203
 2714 003c B3F5007F 		cmp	r3, #512
 2715 0040 2DD0     		beq	.L204
 2716 0042 B3F5806F 		cmp	r3, #1024
 2717 0046 2ED0     		beq	.L205
 2718              		.loc 1 1814 0
 2719 0048 3FE0     		b	.L209
 2720              	.L203:
1755:/home/rdu/Workspace/project_templates/mcu/stm32_ws/src/libraries/STM32F4xx_StdPeriph_Driver/src/stm32f4xx_can.c ****   {
 2721              		.loc 1 1755 0
 2722 004a B3F5803F 		cmp	r3, #65536
 2723 004e 1AD0     		beq	.L206
 2724 0050 B3F5003F 		cmp	r3, #131072
 2725 0054 1BD0     		beq	.L207
 2726 0056 B3F5004F 		cmp	r3, #32768
 2727 005a 2FD0     		beq	.L208
 2728              		.loc 1 1814 0
 2729 005c 35E0     		b	.L209
 2730              	.L198:
1759:/home/rdu/Workspace/project_templates/mcu/stm32_ws/src/libraries/STM32F4xx_StdPeriph_Driver/src/stm32f4xx_can.c ****       break;
 2731              		.loc 1 1759 0
 2732 005e 019B     		ldr	r3, [sp, #4]
 2733 0060 1B4A     		ldr	r2, .L210
 2734 0062 9A60     		str	r2, [r3, #8]
1760:/home/rdu/Workspace/project_templates/mcu/stm32_ws/src/libraries/STM32F4xx_StdPeriph_Driver/src/stm32f4xx_can.c ****     case CAN_IT_FF0:
 2735              		.loc 1 1760 0
 2736 0064 31E0     		b	.L209
 2737              	.L199:
1763:/home/rdu/Workspace/project_templates/mcu/stm32_ws/src/libraries/STM32F4xx_StdPeriph_Driver/src/stm32f4xx_can.c ****       break;
 2738              		.loc 1 1763 0
 2739 0066 019B     		ldr	r3, [sp, #4]
 2740 0068 0822     		movs	r2, #8
 2741 006a DA60     		str	r2, [r3, #12]
1764:/home/rdu/Workspace/project_templates/mcu/stm32_ws/src/libraries/STM32F4xx_StdPeriph_Driver/src/stm32f4xx_can.c ****     case CAN_IT_FOV0:
 2742              		.loc 1 1764 0
 2743 006c 2DE0     		b	.L209
 2744              	.L196:
1767:/home/rdu/Workspace/project_templates/mcu/stm32_ws/src/libraries/STM32F4xx_StdPeriph_Driver/src/stm32f4xx_can.c ****       break;
 2745              		.loc 1 1767 0
 2746 006e 019B     		ldr	r3, [sp, #4]
 2747 0070 1022     		movs	r2, #16
 2748 0072 DA60     		str	r2, [r3, #12]
1768:/home/rdu/Workspace/project_templates/mcu/stm32_ws/src/libraries/STM32F4xx_StdPeriph_Driver/src/stm32f4xx_can.c ****     case CAN_IT_FF1:
 2749              		.loc 1 1768 0
 2750 0074 29E0     		b	.L209
 2751              	.L200:
1771:/home/rdu/Workspace/project_templates/mcu/stm32_ws/src/libraries/STM32F4xx_StdPeriph_Driver/src/stm32f4xx_can.c ****       break;
 2752              		.loc 1 1771 0
 2753 0076 019B     		ldr	r3, [sp, #4]
 2754 0078 0822     		movs	r2, #8
 2755 007a 1A61     		str	r2, [r3, #16]
1772:/home/rdu/Workspace/project_templates/mcu/stm32_ws/src/libraries/STM32F4xx_StdPeriph_Driver/src/stm32f4xx_can.c ****     case CAN_IT_FOV1:
 2756              		.loc 1 1772 0
 2757 007c 25E0     		b	.L209
 2758              	.L201:
1775:/home/rdu/Workspace/project_templates/mcu/stm32_ws/src/libraries/STM32F4xx_StdPeriph_Driver/src/stm32f4xx_can.c ****       break;
 2759              		.loc 1 1775 0
 2760 007e 019B     		ldr	r3, [sp, #4]
 2761 0080 1022     		movs	r2, #16
 2762 0082 1A61     		str	r2, [r3, #16]
1776:/home/rdu/Workspace/project_templates/mcu/stm32_ws/src/libraries/STM32F4xx_StdPeriph_Driver/src/stm32f4xx_can.c ****     case CAN_IT_WKU:
 2763              		.loc 1 1776 0
 2764 0084 21E0     		b	.L209
 2765              	.L206:
1779:/home/rdu/Workspace/project_templates/mcu/stm32_ws/src/libraries/STM32F4xx_StdPeriph_Driver/src/stm32f4xx_can.c ****       break;
 2766              		.loc 1 1779 0
 2767 0086 019B     		ldr	r3, [sp, #4]
 2768 0088 0822     		movs	r2, #8
 2769 008a 5A60     		str	r2, [r3, #4]
1780:/home/rdu/Workspace/project_templates/mcu/stm32_ws/src/libraries/STM32F4xx_StdPeriph_Driver/src/stm32f4xx_can.c ****     case CAN_IT_SLK:
 2770              		.loc 1 1780 0
 2771 008c 1DE0     		b	.L209
 2772              	.L207:
1783:/home/rdu/Workspace/project_templates/mcu/stm32_ws/src/libraries/STM32F4xx_StdPeriph_Driver/src/stm32f4xx_can.c ****       break;
 2773              		.loc 1 1783 0
 2774 008e 019B     		ldr	r3, [sp, #4]
 2775 0090 1022     		movs	r2, #16
 2776 0092 5A60     		str	r2, [r3, #4]
1784:/home/rdu/Workspace/project_templates/mcu/stm32_ws/src/libraries/STM32F4xx_StdPeriph_Driver/src/stm32f4xx_can.c ****     case CAN_IT_EWG:
 2777              		.loc 1 1784 0
 2778 0094 19E0     		b	.L209
 2779              	.L194:
1787:/home/rdu/Workspace/project_templates/mcu/stm32_ws/src/libraries/STM32F4xx_StdPeriph_Driver/src/stm32f4xx_can.c ****        /* @note the corresponding Flag is cleared by hardware depending on the CAN Bus status*/ 
 2780              		.loc 1 1787 0
 2781 0096 019B     		ldr	r3, [sp, #4]
 2782 0098 0422     		movs	r2, #4
 2783 009a 5A60     		str	r2, [r3, #4]
1789:/home/rdu/Workspace/project_templates/mcu/stm32_ws/src/libraries/STM32F4xx_StdPeriph_Driver/src/stm32f4xx_can.c ****     case CAN_IT_EPV:
 2784              		.loc 1 1789 0
 2785 009c 15E0     		b	.L209
 2786              	.L204:
1792:/home/rdu/Workspace/project_templates/mcu/stm32_ws/src/libraries/STM32F4xx_StdPeriph_Driver/src/stm32f4xx_can.c ****        /* @note the corresponding Flag is cleared by hardware depending on the CAN Bus status*/
 2787              		.loc 1 1792 0
 2788 009e 019B     		ldr	r3, [sp, #4]
 2789 00a0 0422     		movs	r2, #4
 2790 00a2 5A60     		str	r2, [r3, #4]
1794:/home/rdu/Workspace/project_templates/mcu/stm32_ws/src/libraries/STM32F4xx_StdPeriph_Driver/src/stm32f4xx_can.c ****     case CAN_IT_BOF:
 2791              		.loc 1 1794 0
 2792 00a4 11E0     		b	.L209
 2793              	.L205:
1797:/home/rdu/Workspace/project_templates/mcu/stm32_ws/src/libraries/STM32F4xx_StdPeriph_Driver/src/stm32f4xx_can.c ****        /* @note the corresponding Flag is cleared by hardware depending on the CAN Bus status*/
 2794              		.loc 1 1797 0
 2795 00a6 019B     		ldr	r3, [sp, #4]
 2796 00a8 0422     		movs	r2, #4
 2797 00aa 5A60     		str	r2, [r3, #4]
1799:/home/rdu/Workspace/project_templates/mcu/stm32_ws/src/libraries/STM32F4xx_StdPeriph_Driver/src/stm32f4xx_can.c ****     case CAN_IT_LEC:
 2798              		.loc 1 1799 0
 2799 00ac 0DE0     		b	.L209
 2800              	.L202:
1802:/home/rdu/Workspace/project_templates/mcu/stm32_ws/src/libraries/STM32F4xx_StdPeriph_Driver/src/stm32f4xx_can.c ****       /* Clear CAN_MSR_ERRI (rc_w1) */
 2801              		.loc 1 1802 0
 2802 00ae 019B     		ldr	r3, [sp, #4]
 2803 00b0 0022     		movs	r2, #0
 2804 00b2 9A61     		str	r2, [r3, #24]
1804:/home/rdu/Workspace/project_templates/mcu/stm32_ws/src/libraries/STM32F4xx_StdPeriph_Driver/src/stm32f4xx_can.c ****       break;
 2805              		.loc 1 1804 0
 2806 00b4 019B     		ldr	r3, [sp, #4]
 2807 00b6 0422     		movs	r2, #4
 2808 00b8 5A60     		str	r2, [r3, #4]
1805:/home/rdu/Workspace/project_templates/mcu/stm32_ws/src/libraries/STM32F4xx_StdPeriph_Driver/src/stm32f4xx_can.c ****     case CAN_IT_ERR:
 2809              		.loc 1 1805 0
 2810 00ba 06E0     		b	.L209
 2811              	.L208:
1808:/home/rdu/Workspace/project_templates/mcu/stm32_ws/src/libraries/STM32F4xx_StdPeriph_Driver/src/stm32f4xx_can.c ****       /* Clear CAN_MSR_ERRI (rc_w1) */
 2812              		.loc 1 1808 0
 2813 00bc 019B     		ldr	r3, [sp, #4]
 2814 00be 0022     		movs	r2, #0
 2815 00c0 9A61     		str	r2, [r3, #24]
1810:/home/rdu/Workspace/project_templates/mcu/stm32_ws/src/libraries/STM32F4xx_StdPeriph_Driver/src/stm32f4xx_can.c ****        /* @note BOFF, EPVF and EWGF Flags are cleared by hardware depending on the CAN Bus status*/
 2816              		.loc 1 1810 0
 2817 00c2 019B     		ldr	r3, [sp, #4]
 2818 00c4 0422     		movs	r2, #4
 2819 00c6 5A60     		str	r2, [r3, #4]
1812:/home/rdu/Workspace/project_templates/mcu/stm32_ws/src/libraries/STM32F4xx_StdPeriph_Driver/src/stm32f4xx_can.c ****     default:
 2820              		.loc 1 1812 0
 2821 00c8 00BF     		nop
 2822              	.L209:
1815:/home/rdu/Workspace/project_templates/mcu/stm32_ws/src/libraries/STM32F4xx_StdPeriph_Driver/src/stm32f4xx_can.c ****    }
1816:/home/rdu/Workspace/project_templates/mcu/stm32_ws/src/libraries/STM32F4xx_StdPeriph_Driver/src/stm32f4xx_can.c **** }
 2823              		.loc 1 1816 0
 2824 00ca 00BF     		nop
 2825 00cc 02B0     		add	sp, sp, #8
 2826              	.LCFI51:
 2827              		.cfi_def_cfa_offset 0
 2828              		@ sp needed
 2829 00ce 7047     		bx	lr
 2830              	.L211:
 2831              		.align	2
 2832              	.L210:
 2833 00d0 01010100 		.word	65793
 2834              		.cfi_endproc
 2835              	.LFE146:
 2837              		.section	.text.CheckITStatus,"ax",%progbits
 2838              		.align	1
 2839              		.syntax unified
 2840              		.thumb
 2841              		.thumb_func
 2842              		.fpu fpv4-sp-d16
 2844              	CheckITStatus:
 2845              	.LFB147:
1817:/home/rdu/Workspace/project_templates/mcu/stm32_ws/src/libraries/STM32F4xx_StdPeriph_Driver/src/stm32f4xx_can.c ****  /**
1818:/home/rdu/Workspace/project_templates/mcu/stm32_ws/src/libraries/STM32F4xx_StdPeriph_Driver/src/stm32f4xx_can.c ****   * @}
1819:/home/rdu/Workspace/project_templates/mcu/stm32_ws/src/libraries/STM32F4xx_StdPeriph_Driver/src/stm32f4xx_can.c ****   */
1820:/home/rdu/Workspace/project_templates/mcu/stm32_ws/src/libraries/STM32F4xx_StdPeriph_Driver/src/stm32f4xx_can.c **** 
1821:/home/rdu/Workspace/project_templates/mcu/stm32_ws/src/libraries/STM32F4xx_StdPeriph_Driver/src/stm32f4xx_can.c **** /**
1822:/home/rdu/Workspace/project_templates/mcu/stm32_ws/src/libraries/STM32F4xx_StdPeriph_Driver/src/stm32f4xx_can.c ****   * @brief  Checks whether the CAN interrupt has occurred or not.
1823:/home/rdu/Workspace/project_templates/mcu/stm32_ws/src/libraries/STM32F4xx_StdPeriph_Driver/src/stm32f4xx_can.c ****   * @param  CAN_Reg: specifies the CAN interrupt register to check.
1824:/home/rdu/Workspace/project_templates/mcu/stm32_ws/src/libraries/STM32F4xx_StdPeriph_Driver/src/stm32f4xx_can.c ****   * @param  It_Bit: specifies the interrupt source bit to check.
1825:/home/rdu/Workspace/project_templates/mcu/stm32_ws/src/libraries/STM32F4xx_StdPeriph_Driver/src/stm32f4xx_can.c ****   * @retval The new state of the CAN Interrupt (SET or RESET).
1826:/home/rdu/Workspace/project_templates/mcu/stm32_ws/src/libraries/STM32F4xx_StdPeriph_Driver/src/stm32f4xx_can.c ****   */
1827:/home/rdu/Workspace/project_templates/mcu/stm32_ws/src/libraries/STM32F4xx_StdPeriph_Driver/src/stm32f4xx_can.c **** static ITStatus CheckITStatus(uint32_t CAN_Reg, uint32_t It_Bit)
1828:/home/rdu/Workspace/project_templates/mcu/stm32_ws/src/libraries/STM32F4xx_StdPeriph_Driver/src/stm32f4xx_can.c **** {
 2846              		.loc 1 1828 0
 2847              		.cfi_startproc
 2848              		@ args = 0, pretend = 0, frame = 16
 2849              		@ frame_needed = 0, uses_anonymous_args = 0
 2850              		@ link register save eliminated.
 2851 0000 84B0     		sub	sp, sp, #16
 2852              	.LCFI52:
 2853              		.cfi_def_cfa_offset 16
 2854 0002 0190     		str	r0, [sp, #4]
 2855 0004 0091     		str	r1, [sp]
1829:/home/rdu/Workspace/project_templates/mcu/stm32_ws/src/libraries/STM32F4xx_StdPeriph_Driver/src/stm32f4xx_can.c ****   ITStatus pendingbitstatus = RESET;
 2856              		.loc 1 1829 0
 2857 0006 0023     		movs	r3, #0
 2858 0008 8DF80F30 		strb	r3, [sp, #15]
1830:/home/rdu/Workspace/project_templates/mcu/stm32_ws/src/libraries/STM32F4xx_StdPeriph_Driver/src/stm32f4xx_can.c ****   
1831:/home/rdu/Workspace/project_templates/mcu/stm32_ws/src/libraries/STM32F4xx_StdPeriph_Driver/src/stm32f4xx_can.c ****   if ((CAN_Reg & It_Bit) != (uint32_t)RESET)
 2859              		.loc 1 1831 0
 2860 000c 019A     		ldr	r2, [sp, #4]
 2861 000e 009B     		ldr	r3, [sp]
 2862 0010 1340     		ands	r3, r3, r2
 2863 0012 002B     		cmp	r3, #0
 2864 0014 03D0     		beq	.L213
1832:/home/rdu/Workspace/project_templates/mcu/stm32_ws/src/libraries/STM32F4xx_StdPeriph_Driver/src/stm32f4xx_can.c ****   {
1833:/home/rdu/Workspace/project_templates/mcu/stm32_ws/src/libraries/STM32F4xx_StdPeriph_Driver/src/stm32f4xx_can.c ****     /* CAN_IT is set */
1834:/home/rdu/Workspace/project_templates/mcu/stm32_ws/src/libraries/STM32F4xx_StdPeriph_Driver/src/stm32f4xx_can.c ****     pendingbitstatus = SET;
 2865              		.loc 1 1834 0
 2866 0016 0123     		movs	r3, #1
 2867 0018 8DF80F30 		strb	r3, [sp, #15]
 2868 001c 02E0     		b	.L214
 2869              	.L213:
1835:/home/rdu/Workspace/project_templates/mcu/stm32_ws/src/libraries/STM32F4xx_StdPeriph_Driver/src/stm32f4xx_can.c ****   }
1836:/home/rdu/Workspace/project_templates/mcu/stm32_ws/src/libraries/STM32F4xx_StdPeriph_Driver/src/stm32f4xx_can.c ****   else
1837:/home/rdu/Workspace/project_templates/mcu/stm32_ws/src/libraries/STM32F4xx_StdPeriph_Driver/src/stm32f4xx_can.c ****   {
1838:/home/rdu/Workspace/project_templates/mcu/stm32_ws/src/libraries/STM32F4xx_StdPeriph_Driver/src/stm32f4xx_can.c ****     /* CAN_IT is reset */
1839:/home/rdu/Workspace/project_templates/mcu/stm32_ws/src/libraries/STM32F4xx_StdPeriph_Driver/src/stm32f4xx_can.c ****     pendingbitstatus = RESET;
 2870              		.loc 1 1839 0
 2871 001e 0023     		movs	r3, #0
 2872 0020 8DF80F30 		strb	r3, [sp, #15]
 2873              	.L214:
1840:/home/rdu/Workspace/project_templates/mcu/stm32_ws/src/libraries/STM32F4xx_StdPeriph_Driver/src/stm32f4xx_can.c ****   }
1841:/home/rdu/Workspace/project_templates/mcu/stm32_ws/src/libraries/STM32F4xx_StdPeriph_Driver/src/stm32f4xx_can.c ****   return pendingbitstatus;
 2874              		.loc 1 1841 0
 2875 0024 9DF80F30 		ldrb	r3, [sp, #15]	@ zero_extendqisi2
1842:/home/rdu/Workspace/project_templates/mcu/stm32_ws/src/libraries/STM32F4xx_StdPeriph_Driver/src/stm32f4xx_can.c **** }
 2876              		.loc 1 1842 0
 2877 0028 1846     		mov	r0, r3
 2878 002a 04B0     		add	sp, sp, #16
 2879              	.LCFI53:
 2880              		.cfi_def_cfa_offset 0
 2881              		@ sp needed
 2882 002c 7047     		bx	lr
 2883              		.cfi_endproc
 2884              	.LFE147:
 2886              		.text
 2887              	.Letext0:
 2888              		.file 2 "/home/rdu/Software/gcc-arm-none-eabi-7-2017-q4-major/arm-none-eabi/include/machine/_defau
 2889              		.file 3 "/home/rdu/Software/gcc-arm-none-eabi-7-2017-q4-major/arm-none-eabi/include/sys/_stdint.h"
 2890              		.file 4 "/home/rdu/Workspace/project_templates/mcu/stm32_ws/src/libraries/CMSIS/CMSIS_STM32F4/Incl
 2891              		.file 5 "/home/rdu/Workspace/project_templates/mcu/stm32_ws/src/libraries/CMSIS/CMSIS_STM32F4/Devi
 2892              		.file 6 "/home/rdu/Workspace/project_templates/mcu/stm32_ws/src/libraries/CMSIS/CMSIS_STM32F4/Devi
 2893              		.file 7 "/home/rdu/Workspace/project_templates/mcu/stm32_ws/src/libraries/STM32F4xx_StdPeriph_Driv
DEFINED SYMBOLS
                            *ABS*:0000000000000000 stm32f4xx_can.c
     /tmp/ccHTy1Zm.s:16     .text.CAN_DeInit:0000000000000000 $t
     /tmp/ccHTy1Zm.s:23     .text.CAN_DeInit:0000000000000000 CAN_DeInit
     /tmp/ccHTy1Zm.s:73     .text.CAN_DeInit:0000000000000040 $d
     /tmp/ccHTy1Zm.s:78     .text.CAN_Init:0000000000000000 $t
     /tmp/ccHTy1Zm.s:85     .text.CAN_Init:0000000000000000 CAN_Init
     /tmp/ccHTy1Zm.s:354    .text.CAN_FilterInit:0000000000000000 $t
     /tmp/ccHTy1Zm.s:361    .text.CAN_FilterInit:0000000000000000 CAN_FilterInit
     /tmp/ccHTy1Zm.s:586    .text.CAN_FilterInit:0000000000000180 $d
     /tmp/ccHTy1Zm.s:591    .text.CAN_StructInit:0000000000000000 $t
     /tmp/ccHTy1Zm.s:598    .text.CAN_StructInit:0000000000000000 CAN_StructInit
     /tmp/ccHTy1Zm.s:664    .text.CAN_SlaveStartBank:0000000000000000 $t
     /tmp/ccHTy1Zm.s:671    .text.CAN_SlaveStartBank:0000000000000000 CAN_SlaveStartBank
     /tmp/ccHTy1Zm.s:720    .text.CAN_SlaveStartBank:0000000000000058 $d
     /tmp/ccHTy1Zm.s:725    .text.CAN_DBGFreeze:0000000000000000 $t
     /tmp/ccHTy1Zm.s:732    .text.CAN_DBGFreeze:0000000000000000 CAN_DBGFreeze
     /tmp/ccHTy1Zm.s:776    .text.CAN_TTComModeCmd:0000000000000000 $t
     /tmp/ccHTy1Zm.s:783    .text.CAN_TTComModeCmd:0000000000000000 CAN_TTComModeCmd
     /tmp/ccHTy1Zm.s:863    .text.CAN_Transmit:0000000000000000 $t
     /tmp/ccHTy1Zm.s:870    .text.CAN_Transmit:0000000000000000 CAN_Transmit
     /tmp/ccHTy1Zm.s:1128   .text.CAN_TransmitStatus:0000000000000000 $t
     /tmp/ccHTy1Zm.s:1135   .text.CAN_TransmitStatus:0000000000000000 CAN_TransmitStatus
     /tmp/ccHTy1Zm.s:1282   .text.CAN_TransmitStatus:00000000000000b8 $d
     /tmp/ccHTy1Zm.s:1292   .text.CAN_CancelTransmit:0000000000000000 $t
     /tmp/ccHTy1Zm.s:1299   .text.CAN_CancelTransmit:0000000000000000 CAN_CancelTransmit
     /tmp/ccHTy1Zm.s:1361   .text.CAN_Receive:0000000000000000 $t
     /tmp/ccHTy1Zm.s:1368   .text.CAN_Receive:0000000000000000 CAN_Receive
     /tmp/ccHTy1Zm.s:1578   .text.CAN_FIFORelease:0000000000000000 $t
     /tmp/ccHTy1Zm.s:1585   .text.CAN_FIFORelease:0000000000000000 CAN_FIFORelease
     /tmp/ccHTy1Zm.s:1629   .text.CAN_MessagePending:0000000000000000 $t
     /tmp/ccHTy1Zm.s:1636   .text.CAN_MessagePending:0000000000000000 CAN_MessagePending
     /tmp/ccHTy1Zm.s:1693   .text.CAN_OperatingModeRequest:0000000000000000 $t
     /tmp/ccHTy1Zm.s:1700   .text.CAN_OperatingModeRequest:0000000000000000 CAN_OperatingModeRequest
     /tmp/ccHTy1Zm.s:1873   .text.CAN_Sleep:0000000000000000 $t
     /tmp/ccHTy1Zm.s:1880   .text.CAN_Sleep:0000000000000000 CAN_Sleep
     /tmp/ccHTy1Zm.s:1924   .text.CAN_WakeUp:0000000000000000 $t
     /tmp/ccHTy1Zm.s:1931   .text.CAN_WakeUp:0000000000000000 CAN_WakeUp
     /tmp/ccHTy1Zm.s:1996   .text.CAN_GetLastErrorCode:0000000000000000 $t
     /tmp/ccHTy1Zm.s:2003   .text.CAN_GetLastErrorCode:0000000000000000 CAN_GetLastErrorCode
     /tmp/ccHTy1Zm.s:2036   .text.CAN_GetReceiveErrorCounter:0000000000000000 $t
     /tmp/ccHTy1Zm.s:2043   .text.CAN_GetReceiveErrorCounter:0000000000000000 CAN_GetReceiveErrorCounter
     /tmp/ccHTy1Zm.s:2075   .text.CAN_GetLSBTransmitErrorCounter:0000000000000000 $t
     /tmp/ccHTy1Zm.s:2082   .text.CAN_GetLSBTransmitErrorCounter:0000000000000000 CAN_GetLSBTransmitErrorCounter
     /tmp/ccHTy1Zm.s:2114   .text.CAN_ITConfig:0000000000000000 $t
     /tmp/ccHTy1Zm.s:2121   .text.CAN_ITConfig:0000000000000000 CAN_ITConfig
     /tmp/ccHTy1Zm.s:2169   .text.CAN_GetFlagStatus:0000000000000000 $t
     /tmp/ccHTy1Zm.s:2176   .text.CAN_GetFlagStatus:0000000000000000 CAN_GetFlagStatus
     /tmp/ccHTy1Zm.s:2313   .text.CAN_ClearFlag:0000000000000000 $t
     /tmp/ccHTy1Zm.s:2320   .text.CAN_ClearFlag:0000000000000000 CAN_ClearFlag
     /tmp/ccHTy1Zm.s:2402   .text.CAN_ClearFlag:0000000000000064 $d
     /tmp/ccHTy1Zm.s:2407   .text.CAN_GetITStatus:0000000000000000 $t
     /tmp/ccHTy1Zm.s:2414   .text.CAN_GetITStatus:0000000000000000 CAN_GetITStatus
     /tmp/ccHTy1Zm.s:2844   .text.CheckITStatus:0000000000000000 CheckITStatus
     /tmp/ccHTy1Zm.s:2660   .text.CAN_GetITStatus:00000000000001b4 $d
     /tmp/ccHTy1Zm.s:2665   .text.CAN_ClearITPendingBit:0000000000000000 $t
     /tmp/ccHTy1Zm.s:2672   .text.CAN_ClearITPendingBit:0000000000000000 CAN_ClearITPendingBit
     /tmp/ccHTy1Zm.s:2833   .text.CAN_ClearITPendingBit:00000000000000d0 $d
     /tmp/ccHTy1Zm.s:2838   .text.CheckITStatus:0000000000000000 $t

UNDEFINED SYMBOLS
RCC_APB1PeriphResetCmd
