   1              		.cpu cortex-m4
   2              		.eabi_attribute 27, 1
   3              		.eabi_attribute 28, 1
   4              		.eabi_attribute 23, 1
   5              		.eabi_attribute 24, 1
   6              		.eabi_attribute 25, 1
   7              		.eabi_attribute 26, 1
   8              		.eabi_attribute 30, 6
   9              		.eabi_attribute 34, 1
  10              		.eabi_attribute 18, 4
  11              		.file	"timers.c"
  12              		.text
  13              	.Ltext0:
  14              		.cfi_sections	.debug_frame
  15              		.section	.bss.xActiveTimerList1,"aw",%nobits
  16              		.align	2
  19              	xActiveTimerList1:
  20 0000 00000000 		.space	20
  20      00000000 
  20      00000000 
  20      00000000 
  20      00000000 
  21              		.section	.bss.xActiveTimerList2,"aw",%nobits
  22              		.align	2
  25              	xActiveTimerList2:
  26 0000 00000000 		.space	20
  26      00000000 
  26      00000000 
  26      00000000 
  26      00000000 
  27              		.section	.bss.pxCurrentTimerList,"aw",%nobits
  28              		.align	2
  31              	pxCurrentTimerList:
  32 0000 00000000 		.space	4
  33              		.section	.bss.pxOverflowTimerList,"aw",%nobits
  34              		.align	2
  37              	pxOverflowTimerList:
  38 0000 00000000 		.space	4
  39              		.section	.bss.xTimerQueue,"aw",%nobits
  40              		.align	2
  43              	xTimerQueue:
  44 0000 00000000 		.space	4
  45              		.section	.bss.xTimerTaskHandle,"aw",%nobits
  46              		.align	2
  49              	xTimerTaskHandle:
  50 0000 00000000 		.space	4
  51              		.section	.rodata
  52              		.align	2
  53              	.LC0:
  54 0000 546D7220 		.ascii	"Tmr Svc\000"
  54      53766300 
  55              		.section	.text.xTimerCreateTimerTask,"ax",%progbits
  56              		.align	1
  57              		.global	xTimerCreateTimerTask
  58              		.syntax unified
  59              		.thumb
  60              		.thumb_func
  61              		.fpu fpv4-sp-d16
  63              	xTimerCreateTimerTask:
  64              	.LFB5:
  65              		.file 1 "/home/rdu/Workspace/project_templates/mcu/stm32_ws/src/libraries/FreeRTOS/Source/timers.c
   1:/home/rdu/Workspace/project_templates/mcu/stm32_ws/src/libraries/FreeRTOS/Source/timers.c **** /*
   2:/home/rdu/Workspace/project_templates/mcu/stm32_ws/src/libraries/FreeRTOS/Source/timers.c ****  * FreeRTOS Kernel V10.1.1
   3:/home/rdu/Workspace/project_templates/mcu/stm32_ws/src/libraries/FreeRTOS/Source/timers.c ****  * Copyright (C) 2018 Amazon.com, Inc. or its affiliates.  All Rights Reserved.
   4:/home/rdu/Workspace/project_templates/mcu/stm32_ws/src/libraries/FreeRTOS/Source/timers.c ****  *
   5:/home/rdu/Workspace/project_templates/mcu/stm32_ws/src/libraries/FreeRTOS/Source/timers.c ****  * Permission is hereby granted, free of charge, to any person obtaining a copy of
   6:/home/rdu/Workspace/project_templates/mcu/stm32_ws/src/libraries/FreeRTOS/Source/timers.c ****  * this software and associated documentation files (the "Software"), to deal in
   7:/home/rdu/Workspace/project_templates/mcu/stm32_ws/src/libraries/FreeRTOS/Source/timers.c ****  * the Software without restriction, including without limitation the rights to
   8:/home/rdu/Workspace/project_templates/mcu/stm32_ws/src/libraries/FreeRTOS/Source/timers.c ****  * use, copy, modify, merge, publish, distribute, sublicense, and/or sell copies of
   9:/home/rdu/Workspace/project_templates/mcu/stm32_ws/src/libraries/FreeRTOS/Source/timers.c ****  * the Software, and to permit persons to whom the Software is furnished to do so,
  10:/home/rdu/Workspace/project_templates/mcu/stm32_ws/src/libraries/FreeRTOS/Source/timers.c ****  * subject to the following conditions:
  11:/home/rdu/Workspace/project_templates/mcu/stm32_ws/src/libraries/FreeRTOS/Source/timers.c ****  *
  12:/home/rdu/Workspace/project_templates/mcu/stm32_ws/src/libraries/FreeRTOS/Source/timers.c ****  * The above copyright notice and this permission notice shall be included in all
  13:/home/rdu/Workspace/project_templates/mcu/stm32_ws/src/libraries/FreeRTOS/Source/timers.c ****  * copies or substantial portions of the Software.
  14:/home/rdu/Workspace/project_templates/mcu/stm32_ws/src/libraries/FreeRTOS/Source/timers.c ****  *
  15:/home/rdu/Workspace/project_templates/mcu/stm32_ws/src/libraries/FreeRTOS/Source/timers.c ****  * THE SOFTWARE IS PROVIDED "AS IS", WITHOUT WARRANTY OF ANY KIND, EXPRESS OR
  16:/home/rdu/Workspace/project_templates/mcu/stm32_ws/src/libraries/FreeRTOS/Source/timers.c ****  * IMPLIED, INCLUDING BUT NOT LIMITED TO THE WARRANTIES OF MERCHANTABILITY, FITNESS
  17:/home/rdu/Workspace/project_templates/mcu/stm32_ws/src/libraries/FreeRTOS/Source/timers.c ****  * FOR A PARTICULAR PURPOSE AND NONINFRINGEMENT. IN NO EVENT SHALL THE AUTHORS OR
  18:/home/rdu/Workspace/project_templates/mcu/stm32_ws/src/libraries/FreeRTOS/Source/timers.c ****  * COPYRIGHT HOLDERS BE LIABLE FOR ANY CLAIM, DAMAGES OR OTHER LIABILITY, WHETHER
  19:/home/rdu/Workspace/project_templates/mcu/stm32_ws/src/libraries/FreeRTOS/Source/timers.c ****  * IN AN ACTION OF CONTRACT, TORT OR OTHERWISE, ARISING FROM, OUT OF OR IN
  20:/home/rdu/Workspace/project_templates/mcu/stm32_ws/src/libraries/FreeRTOS/Source/timers.c ****  * CONNECTION WITH THE SOFTWARE OR THE USE OR OTHER DEALINGS IN THE SOFTWARE.
  21:/home/rdu/Workspace/project_templates/mcu/stm32_ws/src/libraries/FreeRTOS/Source/timers.c ****  *
  22:/home/rdu/Workspace/project_templates/mcu/stm32_ws/src/libraries/FreeRTOS/Source/timers.c ****  * http://www.FreeRTOS.org
  23:/home/rdu/Workspace/project_templates/mcu/stm32_ws/src/libraries/FreeRTOS/Source/timers.c ****  * http://aws.amazon.com/freertos
  24:/home/rdu/Workspace/project_templates/mcu/stm32_ws/src/libraries/FreeRTOS/Source/timers.c ****  *
  25:/home/rdu/Workspace/project_templates/mcu/stm32_ws/src/libraries/FreeRTOS/Source/timers.c ****  * 1 tab == 4 spaces!
  26:/home/rdu/Workspace/project_templates/mcu/stm32_ws/src/libraries/FreeRTOS/Source/timers.c ****  */
  27:/home/rdu/Workspace/project_templates/mcu/stm32_ws/src/libraries/FreeRTOS/Source/timers.c **** 
  28:/home/rdu/Workspace/project_templates/mcu/stm32_ws/src/libraries/FreeRTOS/Source/timers.c **** /* Standard includes. */
  29:/home/rdu/Workspace/project_templates/mcu/stm32_ws/src/libraries/FreeRTOS/Source/timers.c **** #include <stdlib.h>
  30:/home/rdu/Workspace/project_templates/mcu/stm32_ws/src/libraries/FreeRTOS/Source/timers.c **** 
  31:/home/rdu/Workspace/project_templates/mcu/stm32_ws/src/libraries/FreeRTOS/Source/timers.c **** /* Defining MPU_WRAPPERS_INCLUDED_FROM_API_FILE prevents task.h from redefining
  32:/home/rdu/Workspace/project_templates/mcu/stm32_ws/src/libraries/FreeRTOS/Source/timers.c **** all the API functions to use the MPU wrappers.  That should only be done when
  33:/home/rdu/Workspace/project_templates/mcu/stm32_ws/src/libraries/FreeRTOS/Source/timers.c **** task.h is included from an application file. */
  34:/home/rdu/Workspace/project_templates/mcu/stm32_ws/src/libraries/FreeRTOS/Source/timers.c **** #define MPU_WRAPPERS_INCLUDED_FROM_API_FILE
  35:/home/rdu/Workspace/project_templates/mcu/stm32_ws/src/libraries/FreeRTOS/Source/timers.c **** 
  36:/home/rdu/Workspace/project_templates/mcu/stm32_ws/src/libraries/FreeRTOS/Source/timers.c **** #include "FreeRTOS.h"
  37:/home/rdu/Workspace/project_templates/mcu/stm32_ws/src/libraries/FreeRTOS/Source/timers.c **** #include "task.h"
  38:/home/rdu/Workspace/project_templates/mcu/stm32_ws/src/libraries/FreeRTOS/Source/timers.c **** #include "queue.h"
  39:/home/rdu/Workspace/project_templates/mcu/stm32_ws/src/libraries/FreeRTOS/Source/timers.c **** #include "timers.h"
  40:/home/rdu/Workspace/project_templates/mcu/stm32_ws/src/libraries/FreeRTOS/Source/timers.c **** 
  41:/home/rdu/Workspace/project_templates/mcu/stm32_ws/src/libraries/FreeRTOS/Source/timers.c **** #if ( INCLUDE_xTimerPendFunctionCall == 1 ) && ( configUSE_TIMERS == 0 )
  42:/home/rdu/Workspace/project_templates/mcu/stm32_ws/src/libraries/FreeRTOS/Source/timers.c **** 	#error configUSE_TIMERS must be set to 1 to make the xTimerPendFunctionCall() function available.
  43:/home/rdu/Workspace/project_templates/mcu/stm32_ws/src/libraries/FreeRTOS/Source/timers.c **** #endif
  44:/home/rdu/Workspace/project_templates/mcu/stm32_ws/src/libraries/FreeRTOS/Source/timers.c **** 
  45:/home/rdu/Workspace/project_templates/mcu/stm32_ws/src/libraries/FreeRTOS/Source/timers.c **** /* Lint e9021, e961 and e750 are suppressed as a MISRA exception justified
  46:/home/rdu/Workspace/project_templates/mcu/stm32_ws/src/libraries/FreeRTOS/Source/timers.c **** because the MPU ports require MPU_WRAPPERS_INCLUDED_FROM_API_FILE to be defined
  47:/home/rdu/Workspace/project_templates/mcu/stm32_ws/src/libraries/FreeRTOS/Source/timers.c **** for the header files above, but not in this file, in order to generate the
  48:/home/rdu/Workspace/project_templates/mcu/stm32_ws/src/libraries/FreeRTOS/Source/timers.c **** correct privileged Vs unprivileged linkage and placement. */
  49:/home/rdu/Workspace/project_templates/mcu/stm32_ws/src/libraries/FreeRTOS/Source/timers.c **** #undef MPU_WRAPPERS_INCLUDED_FROM_API_FILE /*lint !e9021 !e961 !e750. */
  50:/home/rdu/Workspace/project_templates/mcu/stm32_ws/src/libraries/FreeRTOS/Source/timers.c **** 
  51:/home/rdu/Workspace/project_templates/mcu/stm32_ws/src/libraries/FreeRTOS/Source/timers.c **** 
  52:/home/rdu/Workspace/project_templates/mcu/stm32_ws/src/libraries/FreeRTOS/Source/timers.c **** /* This entire source file will be skipped if the application is not configured
  53:/home/rdu/Workspace/project_templates/mcu/stm32_ws/src/libraries/FreeRTOS/Source/timers.c **** to include software timer functionality.  This #if is closed at the very bottom
  54:/home/rdu/Workspace/project_templates/mcu/stm32_ws/src/libraries/FreeRTOS/Source/timers.c **** of this file.  If you want to include software timer functionality then ensure
  55:/home/rdu/Workspace/project_templates/mcu/stm32_ws/src/libraries/FreeRTOS/Source/timers.c **** configUSE_TIMERS is set to 1 in FreeRTOSConfig.h. */
  56:/home/rdu/Workspace/project_templates/mcu/stm32_ws/src/libraries/FreeRTOS/Source/timers.c **** #if ( configUSE_TIMERS == 1 )
  57:/home/rdu/Workspace/project_templates/mcu/stm32_ws/src/libraries/FreeRTOS/Source/timers.c **** 
  58:/home/rdu/Workspace/project_templates/mcu/stm32_ws/src/libraries/FreeRTOS/Source/timers.c **** /* Misc definitions. */
  59:/home/rdu/Workspace/project_templates/mcu/stm32_ws/src/libraries/FreeRTOS/Source/timers.c **** #define tmrNO_DELAY		( TickType_t ) 0U
  60:/home/rdu/Workspace/project_templates/mcu/stm32_ws/src/libraries/FreeRTOS/Source/timers.c **** 
  61:/home/rdu/Workspace/project_templates/mcu/stm32_ws/src/libraries/FreeRTOS/Source/timers.c **** /* The name assigned to the timer service task.  This can be overridden by
  62:/home/rdu/Workspace/project_templates/mcu/stm32_ws/src/libraries/FreeRTOS/Source/timers.c **** defining trmTIMER_SERVICE_TASK_NAME in FreeRTOSConfig.h. */
  63:/home/rdu/Workspace/project_templates/mcu/stm32_ws/src/libraries/FreeRTOS/Source/timers.c **** #ifndef configTIMER_SERVICE_TASK_NAME
  64:/home/rdu/Workspace/project_templates/mcu/stm32_ws/src/libraries/FreeRTOS/Source/timers.c **** 	#define configTIMER_SERVICE_TASK_NAME "Tmr Svc"
  65:/home/rdu/Workspace/project_templates/mcu/stm32_ws/src/libraries/FreeRTOS/Source/timers.c **** #endif
  66:/home/rdu/Workspace/project_templates/mcu/stm32_ws/src/libraries/FreeRTOS/Source/timers.c **** 
  67:/home/rdu/Workspace/project_templates/mcu/stm32_ws/src/libraries/FreeRTOS/Source/timers.c **** /* The definition of the timers themselves. */
  68:/home/rdu/Workspace/project_templates/mcu/stm32_ws/src/libraries/FreeRTOS/Source/timers.c **** typedef struct tmrTimerControl /* The old naming convention is used to prevent breaking kernel awar
  69:/home/rdu/Workspace/project_templates/mcu/stm32_ws/src/libraries/FreeRTOS/Source/timers.c **** {
  70:/home/rdu/Workspace/project_templates/mcu/stm32_ws/src/libraries/FreeRTOS/Source/timers.c **** 	const char				*pcTimerName;		/*<< Text name.  This is not used by the kernel, it is included simpl
  71:/home/rdu/Workspace/project_templates/mcu/stm32_ws/src/libraries/FreeRTOS/Source/timers.c **** 	ListItem_t				xTimerListItem;		/*<< Standard linked list item as used by all kernel features for e
  72:/home/rdu/Workspace/project_templates/mcu/stm32_ws/src/libraries/FreeRTOS/Source/timers.c **** 	TickType_t				xTimerPeriodInTicks;/*<< How quickly and often the timer expires. */
  73:/home/rdu/Workspace/project_templates/mcu/stm32_ws/src/libraries/FreeRTOS/Source/timers.c **** 	UBaseType_t				uxAutoReload;		/*<< Set to pdTRUE if the timer should be automatically restarted on
  74:/home/rdu/Workspace/project_templates/mcu/stm32_ws/src/libraries/FreeRTOS/Source/timers.c **** 	void 					*pvTimerID;			/*<< An ID to identify the timer.  This allows the timer to be identified 
  75:/home/rdu/Workspace/project_templates/mcu/stm32_ws/src/libraries/FreeRTOS/Source/timers.c **** 	TimerCallbackFunction_t	pxCallbackFunction;	/*<< The function that will be called when the timer e
  76:/home/rdu/Workspace/project_templates/mcu/stm32_ws/src/libraries/FreeRTOS/Source/timers.c **** 	#if( configUSE_TRACE_FACILITY == 1 )
  77:/home/rdu/Workspace/project_templates/mcu/stm32_ws/src/libraries/FreeRTOS/Source/timers.c **** 		UBaseType_t			uxTimerNumber;		/*<< An ID assigned by trace tools such as FreeRTOS+Trace */
  78:/home/rdu/Workspace/project_templates/mcu/stm32_ws/src/libraries/FreeRTOS/Source/timers.c **** 	#endif
  79:/home/rdu/Workspace/project_templates/mcu/stm32_ws/src/libraries/FreeRTOS/Source/timers.c **** 
  80:/home/rdu/Workspace/project_templates/mcu/stm32_ws/src/libraries/FreeRTOS/Source/timers.c **** 	#if( ( configSUPPORT_STATIC_ALLOCATION == 1 ) && ( configSUPPORT_DYNAMIC_ALLOCATION == 1 ) )
  81:/home/rdu/Workspace/project_templates/mcu/stm32_ws/src/libraries/FreeRTOS/Source/timers.c **** 		uint8_t 			ucStaticallyAllocated; /*<< Set to pdTRUE if the timer was created statically so no at
  82:/home/rdu/Workspace/project_templates/mcu/stm32_ws/src/libraries/FreeRTOS/Source/timers.c **** 	#endif
  83:/home/rdu/Workspace/project_templates/mcu/stm32_ws/src/libraries/FreeRTOS/Source/timers.c **** } xTIMER;
  84:/home/rdu/Workspace/project_templates/mcu/stm32_ws/src/libraries/FreeRTOS/Source/timers.c **** 
  85:/home/rdu/Workspace/project_templates/mcu/stm32_ws/src/libraries/FreeRTOS/Source/timers.c **** /* The old xTIMER name is maintained above then typedefed to the new Timer_t
  86:/home/rdu/Workspace/project_templates/mcu/stm32_ws/src/libraries/FreeRTOS/Source/timers.c **** name below to enable the use of older kernel aware debuggers. */
  87:/home/rdu/Workspace/project_templates/mcu/stm32_ws/src/libraries/FreeRTOS/Source/timers.c **** typedef xTIMER Timer_t;
  88:/home/rdu/Workspace/project_templates/mcu/stm32_ws/src/libraries/FreeRTOS/Source/timers.c **** 
  89:/home/rdu/Workspace/project_templates/mcu/stm32_ws/src/libraries/FreeRTOS/Source/timers.c **** /* The definition of messages that can be sent and received on the timer queue.
  90:/home/rdu/Workspace/project_templates/mcu/stm32_ws/src/libraries/FreeRTOS/Source/timers.c **** Two types of message can be queued - messages that manipulate a software timer,
  91:/home/rdu/Workspace/project_templates/mcu/stm32_ws/src/libraries/FreeRTOS/Source/timers.c **** and messages that request the execution of a non-timer related callback.  The
  92:/home/rdu/Workspace/project_templates/mcu/stm32_ws/src/libraries/FreeRTOS/Source/timers.c **** two message types are defined in two separate structures, xTimerParametersType
  93:/home/rdu/Workspace/project_templates/mcu/stm32_ws/src/libraries/FreeRTOS/Source/timers.c **** and xCallbackParametersType respectively. */
  94:/home/rdu/Workspace/project_templates/mcu/stm32_ws/src/libraries/FreeRTOS/Source/timers.c **** typedef struct tmrTimerParameters
  95:/home/rdu/Workspace/project_templates/mcu/stm32_ws/src/libraries/FreeRTOS/Source/timers.c **** {
  96:/home/rdu/Workspace/project_templates/mcu/stm32_ws/src/libraries/FreeRTOS/Source/timers.c **** 	TickType_t			xMessageValue;		/*<< An optional value used by a subset of commands, for example, whe
  97:/home/rdu/Workspace/project_templates/mcu/stm32_ws/src/libraries/FreeRTOS/Source/timers.c **** 	Timer_t *			pxTimer;			/*<< The timer to which the command will be applied. */
  98:/home/rdu/Workspace/project_templates/mcu/stm32_ws/src/libraries/FreeRTOS/Source/timers.c **** } TimerParameter_t;
  99:/home/rdu/Workspace/project_templates/mcu/stm32_ws/src/libraries/FreeRTOS/Source/timers.c **** 
 100:/home/rdu/Workspace/project_templates/mcu/stm32_ws/src/libraries/FreeRTOS/Source/timers.c **** 
 101:/home/rdu/Workspace/project_templates/mcu/stm32_ws/src/libraries/FreeRTOS/Source/timers.c **** typedef struct tmrCallbackParameters
 102:/home/rdu/Workspace/project_templates/mcu/stm32_ws/src/libraries/FreeRTOS/Source/timers.c **** {
 103:/home/rdu/Workspace/project_templates/mcu/stm32_ws/src/libraries/FreeRTOS/Source/timers.c **** 	PendedFunction_t	pxCallbackFunction;	/* << The callback function to execute. */
 104:/home/rdu/Workspace/project_templates/mcu/stm32_ws/src/libraries/FreeRTOS/Source/timers.c **** 	void *pvParameter1;						/* << The value that will be used as the callback functions first paramet
 105:/home/rdu/Workspace/project_templates/mcu/stm32_ws/src/libraries/FreeRTOS/Source/timers.c **** 	uint32_t ulParameter2;					/* << The value that will be used as the callback functions second para
 106:/home/rdu/Workspace/project_templates/mcu/stm32_ws/src/libraries/FreeRTOS/Source/timers.c **** } CallbackParameters_t;
 107:/home/rdu/Workspace/project_templates/mcu/stm32_ws/src/libraries/FreeRTOS/Source/timers.c **** 
 108:/home/rdu/Workspace/project_templates/mcu/stm32_ws/src/libraries/FreeRTOS/Source/timers.c **** /* The structure that contains the two message types, along with an identifier
 109:/home/rdu/Workspace/project_templates/mcu/stm32_ws/src/libraries/FreeRTOS/Source/timers.c **** that is used to determine which message type is valid. */
 110:/home/rdu/Workspace/project_templates/mcu/stm32_ws/src/libraries/FreeRTOS/Source/timers.c **** typedef struct tmrTimerQueueMessage
 111:/home/rdu/Workspace/project_templates/mcu/stm32_ws/src/libraries/FreeRTOS/Source/timers.c **** {
 112:/home/rdu/Workspace/project_templates/mcu/stm32_ws/src/libraries/FreeRTOS/Source/timers.c **** 	BaseType_t			xMessageID;			/*<< The command being sent to the timer service task. */
 113:/home/rdu/Workspace/project_templates/mcu/stm32_ws/src/libraries/FreeRTOS/Source/timers.c **** 	union
 114:/home/rdu/Workspace/project_templates/mcu/stm32_ws/src/libraries/FreeRTOS/Source/timers.c **** 	{
 115:/home/rdu/Workspace/project_templates/mcu/stm32_ws/src/libraries/FreeRTOS/Source/timers.c **** 		TimerParameter_t xTimerParameters;
 116:/home/rdu/Workspace/project_templates/mcu/stm32_ws/src/libraries/FreeRTOS/Source/timers.c **** 
 117:/home/rdu/Workspace/project_templates/mcu/stm32_ws/src/libraries/FreeRTOS/Source/timers.c **** 		/* Don't include xCallbackParameters if it is not going to be used as
 118:/home/rdu/Workspace/project_templates/mcu/stm32_ws/src/libraries/FreeRTOS/Source/timers.c **** 		it makes the structure (and therefore the timer queue) larger. */
 119:/home/rdu/Workspace/project_templates/mcu/stm32_ws/src/libraries/FreeRTOS/Source/timers.c **** 		#if ( INCLUDE_xTimerPendFunctionCall == 1 )
 120:/home/rdu/Workspace/project_templates/mcu/stm32_ws/src/libraries/FreeRTOS/Source/timers.c **** 			CallbackParameters_t xCallbackParameters;
 121:/home/rdu/Workspace/project_templates/mcu/stm32_ws/src/libraries/FreeRTOS/Source/timers.c **** 		#endif /* INCLUDE_xTimerPendFunctionCall */
 122:/home/rdu/Workspace/project_templates/mcu/stm32_ws/src/libraries/FreeRTOS/Source/timers.c **** 	} u;
 123:/home/rdu/Workspace/project_templates/mcu/stm32_ws/src/libraries/FreeRTOS/Source/timers.c **** } DaemonTaskMessage_t;
 124:/home/rdu/Workspace/project_templates/mcu/stm32_ws/src/libraries/FreeRTOS/Source/timers.c **** 
 125:/home/rdu/Workspace/project_templates/mcu/stm32_ws/src/libraries/FreeRTOS/Source/timers.c **** /*lint -save -e956 A manual analysis and inspection has been used to determine
 126:/home/rdu/Workspace/project_templates/mcu/stm32_ws/src/libraries/FreeRTOS/Source/timers.c **** which static variables must be declared volatile. */
 127:/home/rdu/Workspace/project_templates/mcu/stm32_ws/src/libraries/FreeRTOS/Source/timers.c **** 
 128:/home/rdu/Workspace/project_templates/mcu/stm32_ws/src/libraries/FreeRTOS/Source/timers.c **** /* The list in which active timers are stored.  Timers are referenced in expire
 129:/home/rdu/Workspace/project_templates/mcu/stm32_ws/src/libraries/FreeRTOS/Source/timers.c **** time order, with the nearest expiry time at the front of the list.  Only the
 130:/home/rdu/Workspace/project_templates/mcu/stm32_ws/src/libraries/FreeRTOS/Source/timers.c **** timer service task is allowed to access these lists. 
 131:/home/rdu/Workspace/project_templates/mcu/stm32_ws/src/libraries/FreeRTOS/Source/timers.c **** xActiveTimerList1 and xActiveTimerList2 could be at function scope but that
 132:/home/rdu/Workspace/project_templates/mcu/stm32_ws/src/libraries/FreeRTOS/Source/timers.c **** breaks some kernel aware debuggers, and debuggers that reply on removing the
 133:/home/rdu/Workspace/project_templates/mcu/stm32_ws/src/libraries/FreeRTOS/Source/timers.c **** static qualifier. */
 134:/home/rdu/Workspace/project_templates/mcu/stm32_ws/src/libraries/FreeRTOS/Source/timers.c **** PRIVILEGED_DATA static List_t xActiveTimerList1;
 135:/home/rdu/Workspace/project_templates/mcu/stm32_ws/src/libraries/FreeRTOS/Source/timers.c **** PRIVILEGED_DATA static List_t xActiveTimerList2;
 136:/home/rdu/Workspace/project_templates/mcu/stm32_ws/src/libraries/FreeRTOS/Source/timers.c **** PRIVILEGED_DATA static List_t *pxCurrentTimerList;
 137:/home/rdu/Workspace/project_templates/mcu/stm32_ws/src/libraries/FreeRTOS/Source/timers.c **** PRIVILEGED_DATA static List_t *pxOverflowTimerList;
 138:/home/rdu/Workspace/project_templates/mcu/stm32_ws/src/libraries/FreeRTOS/Source/timers.c **** 
 139:/home/rdu/Workspace/project_templates/mcu/stm32_ws/src/libraries/FreeRTOS/Source/timers.c **** /* A queue that is used to send commands to the timer service task. */
 140:/home/rdu/Workspace/project_templates/mcu/stm32_ws/src/libraries/FreeRTOS/Source/timers.c **** PRIVILEGED_DATA static QueueHandle_t xTimerQueue = NULL;
 141:/home/rdu/Workspace/project_templates/mcu/stm32_ws/src/libraries/FreeRTOS/Source/timers.c **** PRIVILEGED_DATA static TaskHandle_t xTimerTaskHandle = NULL;
 142:/home/rdu/Workspace/project_templates/mcu/stm32_ws/src/libraries/FreeRTOS/Source/timers.c **** 
 143:/home/rdu/Workspace/project_templates/mcu/stm32_ws/src/libraries/FreeRTOS/Source/timers.c **** /*lint -restore */
 144:/home/rdu/Workspace/project_templates/mcu/stm32_ws/src/libraries/FreeRTOS/Source/timers.c **** 
 145:/home/rdu/Workspace/project_templates/mcu/stm32_ws/src/libraries/FreeRTOS/Source/timers.c **** /*-----------------------------------------------------------*/
 146:/home/rdu/Workspace/project_templates/mcu/stm32_ws/src/libraries/FreeRTOS/Source/timers.c **** 
 147:/home/rdu/Workspace/project_templates/mcu/stm32_ws/src/libraries/FreeRTOS/Source/timers.c **** #if( configSUPPORT_STATIC_ALLOCATION == 1 )
 148:/home/rdu/Workspace/project_templates/mcu/stm32_ws/src/libraries/FreeRTOS/Source/timers.c **** 
 149:/home/rdu/Workspace/project_templates/mcu/stm32_ws/src/libraries/FreeRTOS/Source/timers.c **** 	/* If static allocation is supported then the application must provide the
 150:/home/rdu/Workspace/project_templates/mcu/stm32_ws/src/libraries/FreeRTOS/Source/timers.c **** 	following callback function - which enables the application to optionally
 151:/home/rdu/Workspace/project_templates/mcu/stm32_ws/src/libraries/FreeRTOS/Source/timers.c **** 	provide the memory that will be used by the timer task as the task's stack
 152:/home/rdu/Workspace/project_templates/mcu/stm32_ws/src/libraries/FreeRTOS/Source/timers.c **** 	and TCB. */
 153:/home/rdu/Workspace/project_templates/mcu/stm32_ws/src/libraries/FreeRTOS/Source/timers.c **** 	extern void vApplicationGetTimerTaskMemory( StaticTask_t **ppxTimerTaskTCBBuffer, StackType_t **pp
 154:/home/rdu/Workspace/project_templates/mcu/stm32_ws/src/libraries/FreeRTOS/Source/timers.c **** 
 155:/home/rdu/Workspace/project_templates/mcu/stm32_ws/src/libraries/FreeRTOS/Source/timers.c **** #endif
 156:/home/rdu/Workspace/project_templates/mcu/stm32_ws/src/libraries/FreeRTOS/Source/timers.c **** 
 157:/home/rdu/Workspace/project_templates/mcu/stm32_ws/src/libraries/FreeRTOS/Source/timers.c **** /*
 158:/home/rdu/Workspace/project_templates/mcu/stm32_ws/src/libraries/FreeRTOS/Source/timers.c ****  * Initialise the infrastructure used by the timer service task if it has not
 159:/home/rdu/Workspace/project_templates/mcu/stm32_ws/src/libraries/FreeRTOS/Source/timers.c ****  * been initialised already.
 160:/home/rdu/Workspace/project_templates/mcu/stm32_ws/src/libraries/FreeRTOS/Source/timers.c ****  */
 161:/home/rdu/Workspace/project_templates/mcu/stm32_ws/src/libraries/FreeRTOS/Source/timers.c **** static void prvCheckForValidListAndQueue( void ) PRIVILEGED_FUNCTION;
 162:/home/rdu/Workspace/project_templates/mcu/stm32_ws/src/libraries/FreeRTOS/Source/timers.c **** 
 163:/home/rdu/Workspace/project_templates/mcu/stm32_ws/src/libraries/FreeRTOS/Source/timers.c **** /*
 164:/home/rdu/Workspace/project_templates/mcu/stm32_ws/src/libraries/FreeRTOS/Source/timers.c ****  * The timer service task (daemon).  Timer functionality is controlled by this
 165:/home/rdu/Workspace/project_templates/mcu/stm32_ws/src/libraries/FreeRTOS/Source/timers.c ****  * task.  Other tasks communicate with the timer service task using the
 166:/home/rdu/Workspace/project_templates/mcu/stm32_ws/src/libraries/FreeRTOS/Source/timers.c ****  * xTimerQueue queue.
 167:/home/rdu/Workspace/project_templates/mcu/stm32_ws/src/libraries/FreeRTOS/Source/timers.c ****  */
 168:/home/rdu/Workspace/project_templates/mcu/stm32_ws/src/libraries/FreeRTOS/Source/timers.c **** static void prvTimerTask( void *pvParameters ) PRIVILEGED_FUNCTION;
 169:/home/rdu/Workspace/project_templates/mcu/stm32_ws/src/libraries/FreeRTOS/Source/timers.c **** 
 170:/home/rdu/Workspace/project_templates/mcu/stm32_ws/src/libraries/FreeRTOS/Source/timers.c **** /*
 171:/home/rdu/Workspace/project_templates/mcu/stm32_ws/src/libraries/FreeRTOS/Source/timers.c ****  * Called by the timer service task to interpret and process a command it
 172:/home/rdu/Workspace/project_templates/mcu/stm32_ws/src/libraries/FreeRTOS/Source/timers.c ****  * received on the timer queue.
 173:/home/rdu/Workspace/project_templates/mcu/stm32_ws/src/libraries/FreeRTOS/Source/timers.c ****  */
 174:/home/rdu/Workspace/project_templates/mcu/stm32_ws/src/libraries/FreeRTOS/Source/timers.c **** static void prvProcessReceivedCommands( void ) PRIVILEGED_FUNCTION;
 175:/home/rdu/Workspace/project_templates/mcu/stm32_ws/src/libraries/FreeRTOS/Source/timers.c **** 
 176:/home/rdu/Workspace/project_templates/mcu/stm32_ws/src/libraries/FreeRTOS/Source/timers.c **** /*
 177:/home/rdu/Workspace/project_templates/mcu/stm32_ws/src/libraries/FreeRTOS/Source/timers.c ****  * Insert the timer into either xActiveTimerList1, or xActiveTimerList2,
 178:/home/rdu/Workspace/project_templates/mcu/stm32_ws/src/libraries/FreeRTOS/Source/timers.c ****  * depending on if the expire time causes a timer counter overflow.
 179:/home/rdu/Workspace/project_templates/mcu/stm32_ws/src/libraries/FreeRTOS/Source/timers.c ****  */
 180:/home/rdu/Workspace/project_templates/mcu/stm32_ws/src/libraries/FreeRTOS/Source/timers.c **** static BaseType_t prvInsertTimerInActiveList( Timer_t * const pxTimer, const TickType_t xNextExpiry
 181:/home/rdu/Workspace/project_templates/mcu/stm32_ws/src/libraries/FreeRTOS/Source/timers.c **** 
 182:/home/rdu/Workspace/project_templates/mcu/stm32_ws/src/libraries/FreeRTOS/Source/timers.c **** /*
 183:/home/rdu/Workspace/project_templates/mcu/stm32_ws/src/libraries/FreeRTOS/Source/timers.c ****  * An active timer has reached its expire time.  Reload the timer if it is an
 184:/home/rdu/Workspace/project_templates/mcu/stm32_ws/src/libraries/FreeRTOS/Source/timers.c ****  * auto reload timer, then call its callback.
 185:/home/rdu/Workspace/project_templates/mcu/stm32_ws/src/libraries/FreeRTOS/Source/timers.c ****  */
 186:/home/rdu/Workspace/project_templates/mcu/stm32_ws/src/libraries/FreeRTOS/Source/timers.c **** static void prvProcessExpiredTimer( const TickType_t xNextExpireTime, const TickType_t xTimeNow ) P
 187:/home/rdu/Workspace/project_templates/mcu/stm32_ws/src/libraries/FreeRTOS/Source/timers.c **** 
 188:/home/rdu/Workspace/project_templates/mcu/stm32_ws/src/libraries/FreeRTOS/Source/timers.c **** /*
 189:/home/rdu/Workspace/project_templates/mcu/stm32_ws/src/libraries/FreeRTOS/Source/timers.c ****  * The tick count has overflowed.  Switch the timer lists after ensuring the
 190:/home/rdu/Workspace/project_templates/mcu/stm32_ws/src/libraries/FreeRTOS/Source/timers.c ****  * current timer list does not still reference some timers.
 191:/home/rdu/Workspace/project_templates/mcu/stm32_ws/src/libraries/FreeRTOS/Source/timers.c ****  */
 192:/home/rdu/Workspace/project_templates/mcu/stm32_ws/src/libraries/FreeRTOS/Source/timers.c **** static void prvSwitchTimerLists( void ) PRIVILEGED_FUNCTION;
 193:/home/rdu/Workspace/project_templates/mcu/stm32_ws/src/libraries/FreeRTOS/Source/timers.c **** 
 194:/home/rdu/Workspace/project_templates/mcu/stm32_ws/src/libraries/FreeRTOS/Source/timers.c **** /*
 195:/home/rdu/Workspace/project_templates/mcu/stm32_ws/src/libraries/FreeRTOS/Source/timers.c ****  * Obtain the current tick count, setting *pxTimerListsWereSwitched to pdTRUE
 196:/home/rdu/Workspace/project_templates/mcu/stm32_ws/src/libraries/FreeRTOS/Source/timers.c ****  * if a tick count overflow occurred since prvSampleTimeNow() was last called.
 197:/home/rdu/Workspace/project_templates/mcu/stm32_ws/src/libraries/FreeRTOS/Source/timers.c ****  */
 198:/home/rdu/Workspace/project_templates/mcu/stm32_ws/src/libraries/FreeRTOS/Source/timers.c **** static TickType_t prvSampleTimeNow( BaseType_t * const pxTimerListsWereSwitched ) PRIVILEGED_FUNCTI
 199:/home/rdu/Workspace/project_templates/mcu/stm32_ws/src/libraries/FreeRTOS/Source/timers.c **** 
 200:/home/rdu/Workspace/project_templates/mcu/stm32_ws/src/libraries/FreeRTOS/Source/timers.c **** /*
 201:/home/rdu/Workspace/project_templates/mcu/stm32_ws/src/libraries/FreeRTOS/Source/timers.c ****  * If the timer list contains any active timers then return the expire time of
 202:/home/rdu/Workspace/project_templates/mcu/stm32_ws/src/libraries/FreeRTOS/Source/timers.c ****  * the timer that will expire first and set *pxListWasEmpty to false.  If the
 203:/home/rdu/Workspace/project_templates/mcu/stm32_ws/src/libraries/FreeRTOS/Source/timers.c ****  * timer list does not contain any timers then return 0 and set *pxListWasEmpty
 204:/home/rdu/Workspace/project_templates/mcu/stm32_ws/src/libraries/FreeRTOS/Source/timers.c ****  * to pdTRUE.
 205:/home/rdu/Workspace/project_templates/mcu/stm32_ws/src/libraries/FreeRTOS/Source/timers.c ****  */
 206:/home/rdu/Workspace/project_templates/mcu/stm32_ws/src/libraries/FreeRTOS/Source/timers.c **** static TickType_t prvGetNextExpireTime( BaseType_t * const pxListWasEmpty ) PRIVILEGED_FUNCTION;
 207:/home/rdu/Workspace/project_templates/mcu/stm32_ws/src/libraries/FreeRTOS/Source/timers.c **** 
 208:/home/rdu/Workspace/project_templates/mcu/stm32_ws/src/libraries/FreeRTOS/Source/timers.c **** /*
 209:/home/rdu/Workspace/project_templates/mcu/stm32_ws/src/libraries/FreeRTOS/Source/timers.c ****  * If a timer has expired, process it.  Otherwise, block the timer service task
 210:/home/rdu/Workspace/project_templates/mcu/stm32_ws/src/libraries/FreeRTOS/Source/timers.c ****  * until either a timer does expire or a command is received.
 211:/home/rdu/Workspace/project_templates/mcu/stm32_ws/src/libraries/FreeRTOS/Source/timers.c ****  */
 212:/home/rdu/Workspace/project_templates/mcu/stm32_ws/src/libraries/FreeRTOS/Source/timers.c **** static void prvProcessTimerOrBlockTask( const TickType_t xNextExpireTime, BaseType_t xListWasEmpty 
 213:/home/rdu/Workspace/project_templates/mcu/stm32_ws/src/libraries/FreeRTOS/Source/timers.c **** 
 214:/home/rdu/Workspace/project_templates/mcu/stm32_ws/src/libraries/FreeRTOS/Source/timers.c **** /*
 215:/home/rdu/Workspace/project_templates/mcu/stm32_ws/src/libraries/FreeRTOS/Source/timers.c ****  * Called after a Timer_t structure has been allocated either statically or
 216:/home/rdu/Workspace/project_templates/mcu/stm32_ws/src/libraries/FreeRTOS/Source/timers.c ****  * dynamically to fill in the structure's members.
 217:/home/rdu/Workspace/project_templates/mcu/stm32_ws/src/libraries/FreeRTOS/Source/timers.c ****  */
 218:/home/rdu/Workspace/project_templates/mcu/stm32_ws/src/libraries/FreeRTOS/Source/timers.c **** static void prvInitialiseNewTimer(	const char * const pcTimerName,			/*lint !e971 Unqualified char 
 219:/home/rdu/Workspace/project_templates/mcu/stm32_ws/src/libraries/FreeRTOS/Source/timers.c **** 									const TickType_t xTimerPeriodInTicks,
 220:/home/rdu/Workspace/project_templates/mcu/stm32_ws/src/libraries/FreeRTOS/Source/timers.c **** 									const UBaseType_t uxAutoReload,
 221:/home/rdu/Workspace/project_templates/mcu/stm32_ws/src/libraries/FreeRTOS/Source/timers.c **** 									void * const pvTimerID,
 222:/home/rdu/Workspace/project_templates/mcu/stm32_ws/src/libraries/FreeRTOS/Source/timers.c **** 									TimerCallbackFunction_t pxCallbackFunction,
 223:/home/rdu/Workspace/project_templates/mcu/stm32_ws/src/libraries/FreeRTOS/Source/timers.c **** 									Timer_t *pxNewTimer ) PRIVILEGED_FUNCTION;
 224:/home/rdu/Workspace/project_templates/mcu/stm32_ws/src/libraries/FreeRTOS/Source/timers.c **** /*-----------------------------------------------------------*/
 225:/home/rdu/Workspace/project_templates/mcu/stm32_ws/src/libraries/FreeRTOS/Source/timers.c **** 
 226:/home/rdu/Workspace/project_templates/mcu/stm32_ws/src/libraries/FreeRTOS/Source/timers.c **** BaseType_t xTimerCreateTimerTask( void )
 227:/home/rdu/Workspace/project_templates/mcu/stm32_ws/src/libraries/FreeRTOS/Source/timers.c **** {
  66              		.loc 1 227 0
  67              		.cfi_startproc
  68              		@ args = 0, pretend = 0, frame = 8
  69              		@ frame_needed = 0, uses_anonymous_args = 0
  70 0000 00B5     		push	{lr}
  71              	.LCFI0:
  72              		.cfi_def_cfa_offset 4
  73              		.cfi_offset 14, -4
  74 0002 85B0     		sub	sp, sp, #20
  75              	.LCFI1:
  76              		.cfi_def_cfa_offset 24
 228:/home/rdu/Workspace/project_templates/mcu/stm32_ws/src/libraries/FreeRTOS/Source/timers.c **** BaseType_t xReturn = pdFAIL;
  77              		.loc 1 228 0
  78 0004 0023     		movs	r3, #0
  79 0006 0393     		str	r3, [sp, #12]
 229:/home/rdu/Workspace/project_templates/mcu/stm32_ws/src/libraries/FreeRTOS/Source/timers.c **** 
 230:/home/rdu/Workspace/project_templates/mcu/stm32_ws/src/libraries/FreeRTOS/Source/timers.c **** 	/* This function is called when the scheduler is started if
 231:/home/rdu/Workspace/project_templates/mcu/stm32_ws/src/libraries/FreeRTOS/Source/timers.c **** 	configUSE_TIMERS is set to 1.  Check that the infrastructure used by the
 232:/home/rdu/Workspace/project_templates/mcu/stm32_ws/src/libraries/FreeRTOS/Source/timers.c **** 	timer service task has been created/initialised.  If timers have already
 233:/home/rdu/Workspace/project_templates/mcu/stm32_ws/src/libraries/FreeRTOS/Source/timers.c **** 	been created then the initialisation will already have been performed. */
 234:/home/rdu/Workspace/project_templates/mcu/stm32_ws/src/libraries/FreeRTOS/Source/timers.c **** 	prvCheckForValidListAndQueue();
  80              		.loc 1 234 0
  81 0008 FFF7FEFF 		bl	prvCheckForValidListAndQueue
 235:/home/rdu/Workspace/project_templates/mcu/stm32_ws/src/libraries/FreeRTOS/Source/timers.c **** 
 236:/home/rdu/Workspace/project_templates/mcu/stm32_ws/src/libraries/FreeRTOS/Source/timers.c **** 	if( xTimerQueue != NULL )
  82              		.loc 1 236 0
  83 000c 104B     		ldr	r3, .L6
  84 000e 1B68     		ldr	r3, [r3]
  85 0010 002B     		cmp	r3, #0
  86 0012 0BD0     		beq	.L2
 237:/home/rdu/Workspace/project_templates/mcu/stm32_ws/src/libraries/FreeRTOS/Source/timers.c **** 	{
 238:/home/rdu/Workspace/project_templates/mcu/stm32_ws/src/libraries/FreeRTOS/Source/timers.c **** 		#if( configSUPPORT_STATIC_ALLOCATION == 1 )
 239:/home/rdu/Workspace/project_templates/mcu/stm32_ws/src/libraries/FreeRTOS/Source/timers.c **** 		{
 240:/home/rdu/Workspace/project_templates/mcu/stm32_ws/src/libraries/FreeRTOS/Source/timers.c **** 			StaticTask_t *pxTimerTaskTCBBuffer = NULL;
 241:/home/rdu/Workspace/project_templates/mcu/stm32_ws/src/libraries/FreeRTOS/Source/timers.c **** 			StackType_t *pxTimerTaskStackBuffer = NULL;
 242:/home/rdu/Workspace/project_templates/mcu/stm32_ws/src/libraries/FreeRTOS/Source/timers.c **** 			uint32_t ulTimerTaskStackSize;
 243:/home/rdu/Workspace/project_templates/mcu/stm32_ws/src/libraries/FreeRTOS/Source/timers.c **** 
 244:/home/rdu/Workspace/project_templates/mcu/stm32_ws/src/libraries/FreeRTOS/Source/timers.c **** 			vApplicationGetTimerTaskMemory( &pxTimerTaskTCBBuffer, &pxTimerTaskStackBuffer, &ulTimerTaskStac
 245:/home/rdu/Workspace/project_templates/mcu/stm32_ws/src/libraries/FreeRTOS/Source/timers.c **** 			xTimerTaskHandle = xTaskCreateStatic(	prvTimerTask,
 246:/home/rdu/Workspace/project_templates/mcu/stm32_ws/src/libraries/FreeRTOS/Source/timers.c **** 													configTIMER_SERVICE_TASK_NAME,
 247:/home/rdu/Workspace/project_templates/mcu/stm32_ws/src/libraries/FreeRTOS/Source/timers.c **** 													ulTimerTaskStackSize,
 248:/home/rdu/Workspace/project_templates/mcu/stm32_ws/src/libraries/FreeRTOS/Source/timers.c **** 													NULL,
 249:/home/rdu/Workspace/project_templates/mcu/stm32_ws/src/libraries/FreeRTOS/Source/timers.c **** 													( ( UBaseType_t ) configTIMER_TASK_PRIORITY ) | portPRIVILEGE_BIT,
 250:/home/rdu/Workspace/project_templates/mcu/stm32_ws/src/libraries/FreeRTOS/Source/timers.c **** 													pxTimerTaskStackBuffer,
 251:/home/rdu/Workspace/project_templates/mcu/stm32_ws/src/libraries/FreeRTOS/Source/timers.c **** 													pxTimerTaskTCBBuffer );
 252:/home/rdu/Workspace/project_templates/mcu/stm32_ws/src/libraries/FreeRTOS/Source/timers.c **** 
 253:/home/rdu/Workspace/project_templates/mcu/stm32_ws/src/libraries/FreeRTOS/Source/timers.c **** 			if( xTimerTaskHandle != NULL )
 254:/home/rdu/Workspace/project_templates/mcu/stm32_ws/src/libraries/FreeRTOS/Source/timers.c **** 			{
 255:/home/rdu/Workspace/project_templates/mcu/stm32_ws/src/libraries/FreeRTOS/Source/timers.c **** 				xReturn = pdPASS;
 256:/home/rdu/Workspace/project_templates/mcu/stm32_ws/src/libraries/FreeRTOS/Source/timers.c **** 			}
 257:/home/rdu/Workspace/project_templates/mcu/stm32_ws/src/libraries/FreeRTOS/Source/timers.c **** 		}
 258:/home/rdu/Workspace/project_templates/mcu/stm32_ws/src/libraries/FreeRTOS/Source/timers.c **** 		#else
 259:/home/rdu/Workspace/project_templates/mcu/stm32_ws/src/libraries/FreeRTOS/Source/timers.c **** 		{
 260:/home/rdu/Workspace/project_templates/mcu/stm32_ws/src/libraries/FreeRTOS/Source/timers.c **** 			xReturn = xTaskCreate(	prvTimerTask,
  87              		.loc 1 260 0
  88 0014 0F4B     		ldr	r3, .L6+4
  89 0016 0193     		str	r3, [sp, #4]
  90 0018 0223     		movs	r3, #2
  91 001a 0093     		str	r3, [sp]
  92 001c 0023     		movs	r3, #0
  93 001e 4FF48272 		mov	r2, #260
  94 0022 0D49     		ldr	r1, .L6+8
  95 0024 0D48     		ldr	r0, .L6+12
  96 0026 FFF7FEFF 		bl	xTaskCreate
  97 002a 0390     		str	r0, [sp, #12]
  98              	.L2:
 261:/home/rdu/Workspace/project_templates/mcu/stm32_ws/src/libraries/FreeRTOS/Source/timers.c **** 									configTIMER_SERVICE_TASK_NAME,
 262:/home/rdu/Workspace/project_templates/mcu/stm32_ws/src/libraries/FreeRTOS/Source/timers.c **** 									configTIMER_TASK_STACK_DEPTH,
 263:/home/rdu/Workspace/project_templates/mcu/stm32_ws/src/libraries/FreeRTOS/Source/timers.c **** 									NULL,
 264:/home/rdu/Workspace/project_templates/mcu/stm32_ws/src/libraries/FreeRTOS/Source/timers.c **** 									( ( UBaseType_t ) configTIMER_TASK_PRIORITY ) | portPRIVILEGE_BIT,
 265:/home/rdu/Workspace/project_templates/mcu/stm32_ws/src/libraries/FreeRTOS/Source/timers.c **** 									&xTimerTaskHandle );
 266:/home/rdu/Workspace/project_templates/mcu/stm32_ws/src/libraries/FreeRTOS/Source/timers.c **** 		}
 267:/home/rdu/Workspace/project_templates/mcu/stm32_ws/src/libraries/FreeRTOS/Source/timers.c **** 		#endif /* configSUPPORT_STATIC_ALLOCATION */
 268:/home/rdu/Workspace/project_templates/mcu/stm32_ws/src/libraries/FreeRTOS/Source/timers.c **** 	}
 269:/home/rdu/Workspace/project_templates/mcu/stm32_ws/src/libraries/FreeRTOS/Source/timers.c **** 	else
 270:/home/rdu/Workspace/project_templates/mcu/stm32_ws/src/libraries/FreeRTOS/Source/timers.c **** 	{
 271:/home/rdu/Workspace/project_templates/mcu/stm32_ws/src/libraries/FreeRTOS/Source/timers.c **** 		mtCOVERAGE_TEST_MARKER();
 272:/home/rdu/Workspace/project_templates/mcu/stm32_ws/src/libraries/FreeRTOS/Source/timers.c **** 	}
 273:/home/rdu/Workspace/project_templates/mcu/stm32_ws/src/libraries/FreeRTOS/Source/timers.c **** 
 274:/home/rdu/Workspace/project_templates/mcu/stm32_ws/src/libraries/FreeRTOS/Source/timers.c **** 	configASSERT( xReturn );
  99              		.loc 1 274 0
 100 002c 039B     		ldr	r3, [sp, #12]
 101 002e 002B     		cmp	r3, #0
 102 0030 09D1     		bne	.L3
 103              	.LBB30:
 104              	.LBB31:
 105              		.file 2 "/home/rdu/Workspace/project_templates/mcu/stm32_ws/src/libraries/FreeRTOS/Source/portable
   1:/home/rdu/Workspace/project_templates/mcu/stm32_ws/src/libraries/FreeRTOS/Source/portable/GCC/ARM_CM4F/portmacro.h **** /*
   2:/home/rdu/Workspace/project_templates/mcu/stm32_ws/src/libraries/FreeRTOS/Source/portable/GCC/ARM_CM4F/portmacro.h ****  * FreeRTOS Kernel V10.1.1
   3:/home/rdu/Workspace/project_templates/mcu/stm32_ws/src/libraries/FreeRTOS/Source/portable/GCC/ARM_CM4F/portmacro.h ****  * Copyright (C) 2018 Amazon.com, Inc. or its affiliates.  All Rights Reserved.
   4:/home/rdu/Workspace/project_templates/mcu/stm32_ws/src/libraries/FreeRTOS/Source/portable/GCC/ARM_CM4F/portmacro.h ****  *
   5:/home/rdu/Workspace/project_templates/mcu/stm32_ws/src/libraries/FreeRTOS/Source/portable/GCC/ARM_CM4F/portmacro.h ****  * Permission is hereby granted, free of charge, to any person obtaining a copy of
   6:/home/rdu/Workspace/project_templates/mcu/stm32_ws/src/libraries/FreeRTOS/Source/portable/GCC/ARM_CM4F/portmacro.h ****  * this software and associated documentation files (the "Software"), to deal in
   7:/home/rdu/Workspace/project_templates/mcu/stm32_ws/src/libraries/FreeRTOS/Source/portable/GCC/ARM_CM4F/portmacro.h ****  * the Software without restriction, including without limitation the rights to
   8:/home/rdu/Workspace/project_templates/mcu/stm32_ws/src/libraries/FreeRTOS/Source/portable/GCC/ARM_CM4F/portmacro.h ****  * use, copy, modify, merge, publish, distribute, sublicense, and/or sell copies of
   9:/home/rdu/Workspace/project_templates/mcu/stm32_ws/src/libraries/FreeRTOS/Source/portable/GCC/ARM_CM4F/portmacro.h ****  * the Software, and to permit persons to whom the Software is furnished to do so,
  10:/home/rdu/Workspace/project_templates/mcu/stm32_ws/src/libraries/FreeRTOS/Source/portable/GCC/ARM_CM4F/portmacro.h ****  * subject to the following conditions:
  11:/home/rdu/Workspace/project_templates/mcu/stm32_ws/src/libraries/FreeRTOS/Source/portable/GCC/ARM_CM4F/portmacro.h ****  *
  12:/home/rdu/Workspace/project_templates/mcu/stm32_ws/src/libraries/FreeRTOS/Source/portable/GCC/ARM_CM4F/portmacro.h ****  * The above copyright notice and this permission notice shall be included in all
  13:/home/rdu/Workspace/project_templates/mcu/stm32_ws/src/libraries/FreeRTOS/Source/portable/GCC/ARM_CM4F/portmacro.h ****  * copies or substantial portions of the Software.
  14:/home/rdu/Workspace/project_templates/mcu/stm32_ws/src/libraries/FreeRTOS/Source/portable/GCC/ARM_CM4F/portmacro.h ****  *
  15:/home/rdu/Workspace/project_templates/mcu/stm32_ws/src/libraries/FreeRTOS/Source/portable/GCC/ARM_CM4F/portmacro.h ****  * THE SOFTWARE IS PROVIDED "AS IS", WITHOUT WARRANTY OF ANY KIND, EXPRESS OR
  16:/home/rdu/Workspace/project_templates/mcu/stm32_ws/src/libraries/FreeRTOS/Source/portable/GCC/ARM_CM4F/portmacro.h ****  * IMPLIED, INCLUDING BUT NOT LIMITED TO THE WARRANTIES OF MERCHANTABILITY, FITNESS
  17:/home/rdu/Workspace/project_templates/mcu/stm32_ws/src/libraries/FreeRTOS/Source/portable/GCC/ARM_CM4F/portmacro.h ****  * FOR A PARTICULAR PURPOSE AND NONINFRINGEMENT. IN NO EVENT SHALL THE AUTHORS OR
  18:/home/rdu/Workspace/project_templates/mcu/stm32_ws/src/libraries/FreeRTOS/Source/portable/GCC/ARM_CM4F/portmacro.h ****  * COPYRIGHT HOLDERS BE LIABLE FOR ANY CLAIM, DAMAGES OR OTHER LIABILITY, WHETHER
  19:/home/rdu/Workspace/project_templates/mcu/stm32_ws/src/libraries/FreeRTOS/Source/portable/GCC/ARM_CM4F/portmacro.h ****  * IN AN ACTION OF CONTRACT, TORT OR OTHERWISE, ARISING FROM, OUT OF OR IN
  20:/home/rdu/Workspace/project_templates/mcu/stm32_ws/src/libraries/FreeRTOS/Source/portable/GCC/ARM_CM4F/portmacro.h ****  * CONNECTION WITH THE SOFTWARE OR THE USE OR OTHER DEALINGS IN THE SOFTWARE.
  21:/home/rdu/Workspace/project_templates/mcu/stm32_ws/src/libraries/FreeRTOS/Source/portable/GCC/ARM_CM4F/portmacro.h ****  *
  22:/home/rdu/Workspace/project_templates/mcu/stm32_ws/src/libraries/FreeRTOS/Source/portable/GCC/ARM_CM4F/portmacro.h ****  * http://www.FreeRTOS.org
  23:/home/rdu/Workspace/project_templates/mcu/stm32_ws/src/libraries/FreeRTOS/Source/portable/GCC/ARM_CM4F/portmacro.h ****  * http://aws.amazon.com/freertos
  24:/home/rdu/Workspace/project_templates/mcu/stm32_ws/src/libraries/FreeRTOS/Source/portable/GCC/ARM_CM4F/portmacro.h ****  *
  25:/home/rdu/Workspace/project_templates/mcu/stm32_ws/src/libraries/FreeRTOS/Source/portable/GCC/ARM_CM4F/portmacro.h ****  * 1 tab == 4 spaces!
  26:/home/rdu/Workspace/project_templates/mcu/stm32_ws/src/libraries/FreeRTOS/Source/portable/GCC/ARM_CM4F/portmacro.h ****  */
  27:/home/rdu/Workspace/project_templates/mcu/stm32_ws/src/libraries/FreeRTOS/Source/portable/GCC/ARM_CM4F/portmacro.h **** 
  28:/home/rdu/Workspace/project_templates/mcu/stm32_ws/src/libraries/FreeRTOS/Source/portable/GCC/ARM_CM4F/portmacro.h **** 
  29:/home/rdu/Workspace/project_templates/mcu/stm32_ws/src/libraries/FreeRTOS/Source/portable/GCC/ARM_CM4F/portmacro.h **** #ifndef PORTMACRO_H
  30:/home/rdu/Workspace/project_templates/mcu/stm32_ws/src/libraries/FreeRTOS/Source/portable/GCC/ARM_CM4F/portmacro.h **** #define PORTMACRO_H
  31:/home/rdu/Workspace/project_templates/mcu/stm32_ws/src/libraries/FreeRTOS/Source/portable/GCC/ARM_CM4F/portmacro.h **** 
  32:/home/rdu/Workspace/project_templates/mcu/stm32_ws/src/libraries/FreeRTOS/Source/portable/GCC/ARM_CM4F/portmacro.h **** #ifdef __cplusplus
  33:/home/rdu/Workspace/project_templates/mcu/stm32_ws/src/libraries/FreeRTOS/Source/portable/GCC/ARM_CM4F/portmacro.h **** extern "C" {
  34:/home/rdu/Workspace/project_templates/mcu/stm32_ws/src/libraries/FreeRTOS/Source/portable/GCC/ARM_CM4F/portmacro.h **** #endif
  35:/home/rdu/Workspace/project_templates/mcu/stm32_ws/src/libraries/FreeRTOS/Source/portable/GCC/ARM_CM4F/portmacro.h **** 
  36:/home/rdu/Workspace/project_templates/mcu/stm32_ws/src/libraries/FreeRTOS/Source/portable/GCC/ARM_CM4F/portmacro.h **** /*-----------------------------------------------------------
  37:/home/rdu/Workspace/project_templates/mcu/stm32_ws/src/libraries/FreeRTOS/Source/portable/GCC/ARM_CM4F/portmacro.h ****  * Port specific definitions.
  38:/home/rdu/Workspace/project_templates/mcu/stm32_ws/src/libraries/FreeRTOS/Source/portable/GCC/ARM_CM4F/portmacro.h ****  *
  39:/home/rdu/Workspace/project_templates/mcu/stm32_ws/src/libraries/FreeRTOS/Source/portable/GCC/ARM_CM4F/portmacro.h ****  * The settings in this file configure FreeRTOS correctly for the
  40:/home/rdu/Workspace/project_templates/mcu/stm32_ws/src/libraries/FreeRTOS/Source/portable/GCC/ARM_CM4F/portmacro.h ****  * given hardware and compiler.
  41:/home/rdu/Workspace/project_templates/mcu/stm32_ws/src/libraries/FreeRTOS/Source/portable/GCC/ARM_CM4F/portmacro.h ****  *
  42:/home/rdu/Workspace/project_templates/mcu/stm32_ws/src/libraries/FreeRTOS/Source/portable/GCC/ARM_CM4F/portmacro.h ****  * These settings should not be altered.
  43:/home/rdu/Workspace/project_templates/mcu/stm32_ws/src/libraries/FreeRTOS/Source/portable/GCC/ARM_CM4F/portmacro.h ****  *-----------------------------------------------------------
  44:/home/rdu/Workspace/project_templates/mcu/stm32_ws/src/libraries/FreeRTOS/Source/portable/GCC/ARM_CM4F/portmacro.h ****  */
  45:/home/rdu/Workspace/project_templates/mcu/stm32_ws/src/libraries/FreeRTOS/Source/portable/GCC/ARM_CM4F/portmacro.h **** 
  46:/home/rdu/Workspace/project_templates/mcu/stm32_ws/src/libraries/FreeRTOS/Source/portable/GCC/ARM_CM4F/portmacro.h **** /* Type definitions. */
  47:/home/rdu/Workspace/project_templates/mcu/stm32_ws/src/libraries/FreeRTOS/Source/portable/GCC/ARM_CM4F/portmacro.h **** #define portCHAR		char
  48:/home/rdu/Workspace/project_templates/mcu/stm32_ws/src/libraries/FreeRTOS/Source/portable/GCC/ARM_CM4F/portmacro.h **** #define portFLOAT		float
  49:/home/rdu/Workspace/project_templates/mcu/stm32_ws/src/libraries/FreeRTOS/Source/portable/GCC/ARM_CM4F/portmacro.h **** #define portDOUBLE		double
  50:/home/rdu/Workspace/project_templates/mcu/stm32_ws/src/libraries/FreeRTOS/Source/portable/GCC/ARM_CM4F/portmacro.h **** #define portLONG		long
  51:/home/rdu/Workspace/project_templates/mcu/stm32_ws/src/libraries/FreeRTOS/Source/portable/GCC/ARM_CM4F/portmacro.h **** #define portSHORT		short
  52:/home/rdu/Workspace/project_templates/mcu/stm32_ws/src/libraries/FreeRTOS/Source/portable/GCC/ARM_CM4F/portmacro.h **** #define portSTACK_TYPE	uint32_t
  53:/home/rdu/Workspace/project_templates/mcu/stm32_ws/src/libraries/FreeRTOS/Source/portable/GCC/ARM_CM4F/portmacro.h **** #define portBASE_TYPE	long
  54:/home/rdu/Workspace/project_templates/mcu/stm32_ws/src/libraries/FreeRTOS/Source/portable/GCC/ARM_CM4F/portmacro.h **** 
  55:/home/rdu/Workspace/project_templates/mcu/stm32_ws/src/libraries/FreeRTOS/Source/portable/GCC/ARM_CM4F/portmacro.h **** typedef portSTACK_TYPE StackType_t;
  56:/home/rdu/Workspace/project_templates/mcu/stm32_ws/src/libraries/FreeRTOS/Source/portable/GCC/ARM_CM4F/portmacro.h **** typedef long BaseType_t;
  57:/home/rdu/Workspace/project_templates/mcu/stm32_ws/src/libraries/FreeRTOS/Source/portable/GCC/ARM_CM4F/portmacro.h **** typedef unsigned long UBaseType_t;
  58:/home/rdu/Workspace/project_templates/mcu/stm32_ws/src/libraries/FreeRTOS/Source/portable/GCC/ARM_CM4F/portmacro.h **** 
  59:/home/rdu/Workspace/project_templates/mcu/stm32_ws/src/libraries/FreeRTOS/Source/portable/GCC/ARM_CM4F/portmacro.h **** #if( configUSE_16_BIT_TICKS == 1 )
  60:/home/rdu/Workspace/project_templates/mcu/stm32_ws/src/libraries/FreeRTOS/Source/portable/GCC/ARM_CM4F/portmacro.h **** 	typedef uint16_t TickType_t;
  61:/home/rdu/Workspace/project_templates/mcu/stm32_ws/src/libraries/FreeRTOS/Source/portable/GCC/ARM_CM4F/portmacro.h **** 	#define portMAX_DELAY ( TickType_t ) 0xffff
  62:/home/rdu/Workspace/project_templates/mcu/stm32_ws/src/libraries/FreeRTOS/Source/portable/GCC/ARM_CM4F/portmacro.h **** #else
  63:/home/rdu/Workspace/project_templates/mcu/stm32_ws/src/libraries/FreeRTOS/Source/portable/GCC/ARM_CM4F/portmacro.h **** 	typedef uint32_t TickType_t;
  64:/home/rdu/Workspace/project_templates/mcu/stm32_ws/src/libraries/FreeRTOS/Source/portable/GCC/ARM_CM4F/portmacro.h **** 	#define portMAX_DELAY ( TickType_t ) 0xffffffffUL
  65:/home/rdu/Workspace/project_templates/mcu/stm32_ws/src/libraries/FreeRTOS/Source/portable/GCC/ARM_CM4F/portmacro.h **** 
  66:/home/rdu/Workspace/project_templates/mcu/stm32_ws/src/libraries/FreeRTOS/Source/portable/GCC/ARM_CM4F/portmacro.h **** 	/* 32-bit tick type on a 32-bit architecture, so reads of the tick count do
  67:/home/rdu/Workspace/project_templates/mcu/stm32_ws/src/libraries/FreeRTOS/Source/portable/GCC/ARM_CM4F/portmacro.h **** 	not need to be guarded with a critical section. */
  68:/home/rdu/Workspace/project_templates/mcu/stm32_ws/src/libraries/FreeRTOS/Source/portable/GCC/ARM_CM4F/portmacro.h **** 	#define portTICK_TYPE_IS_ATOMIC 1
  69:/home/rdu/Workspace/project_templates/mcu/stm32_ws/src/libraries/FreeRTOS/Source/portable/GCC/ARM_CM4F/portmacro.h **** #endif
  70:/home/rdu/Workspace/project_templates/mcu/stm32_ws/src/libraries/FreeRTOS/Source/portable/GCC/ARM_CM4F/portmacro.h **** /*-----------------------------------------------------------*/
  71:/home/rdu/Workspace/project_templates/mcu/stm32_ws/src/libraries/FreeRTOS/Source/portable/GCC/ARM_CM4F/portmacro.h **** 
  72:/home/rdu/Workspace/project_templates/mcu/stm32_ws/src/libraries/FreeRTOS/Source/portable/GCC/ARM_CM4F/portmacro.h **** /* Architecture specifics. */
  73:/home/rdu/Workspace/project_templates/mcu/stm32_ws/src/libraries/FreeRTOS/Source/portable/GCC/ARM_CM4F/portmacro.h **** #define portSTACK_GROWTH			( -1 )
  74:/home/rdu/Workspace/project_templates/mcu/stm32_ws/src/libraries/FreeRTOS/Source/portable/GCC/ARM_CM4F/portmacro.h **** #define portTICK_PERIOD_MS			( ( TickType_t ) 1000 / configTICK_RATE_HZ )
  75:/home/rdu/Workspace/project_templates/mcu/stm32_ws/src/libraries/FreeRTOS/Source/portable/GCC/ARM_CM4F/portmacro.h **** #define portBYTE_ALIGNMENT			8
  76:/home/rdu/Workspace/project_templates/mcu/stm32_ws/src/libraries/FreeRTOS/Source/portable/GCC/ARM_CM4F/portmacro.h **** /*-----------------------------------------------------------*/
  77:/home/rdu/Workspace/project_templates/mcu/stm32_ws/src/libraries/FreeRTOS/Source/portable/GCC/ARM_CM4F/portmacro.h **** 
  78:/home/rdu/Workspace/project_templates/mcu/stm32_ws/src/libraries/FreeRTOS/Source/portable/GCC/ARM_CM4F/portmacro.h **** /* Scheduler utilities. */
  79:/home/rdu/Workspace/project_templates/mcu/stm32_ws/src/libraries/FreeRTOS/Source/portable/GCC/ARM_CM4F/portmacro.h **** #define portYIELD() 															\
  80:/home/rdu/Workspace/project_templates/mcu/stm32_ws/src/libraries/FreeRTOS/Source/portable/GCC/ARM_CM4F/portmacro.h **** {																				\
  81:/home/rdu/Workspace/project_templates/mcu/stm32_ws/src/libraries/FreeRTOS/Source/portable/GCC/ARM_CM4F/portmacro.h **** 	/* Set a PendSV to request a context switch. */								\
  82:/home/rdu/Workspace/project_templates/mcu/stm32_ws/src/libraries/FreeRTOS/Source/portable/GCC/ARM_CM4F/portmacro.h **** 	portNVIC_INT_CTRL_REG = portNVIC_PENDSVSET_BIT;								\
  83:/home/rdu/Workspace/project_templates/mcu/stm32_ws/src/libraries/FreeRTOS/Source/portable/GCC/ARM_CM4F/portmacro.h **** 																				\
  84:/home/rdu/Workspace/project_templates/mcu/stm32_ws/src/libraries/FreeRTOS/Source/portable/GCC/ARM_CM4F/portmacro.h **** 	/* Barriers are normally not required but do ensure the code is completely	\
  85:/home/rdu/Workspace/project_templates/mcu/stm32_ws/src/libraries/FreeRTOS/Source/portable/GCC/ARM_CM4F/portmacro.h **** 	within the specified behaviour for the architecture. */						\
  86:/home/rdu/Workspace/project_templates/mcu/stm32_ws/src/libraries/FreeRTOS/Source/portable/GCC/ARM_CM4F/portmacro.h **** 	__asm volatile( "dsb" ::: "memory" );										\
  87:/home/rdu/Workspace/project_templates/mcu/stm32_ws/src/libraries/FreeRTOS/Source/portable/GCC/ARM_CM4F/portmacro.h **** 	__asm volatile( "isb" );													\
  88:/home/rdu/Workspace/project_templates/mcu/stm32_ws/src/libraries/FreeRTOS/Source/portable/GCC/ARM_CM4F/portmacro.h **** }
  89:/home/rdu/Workspace/project_templates/mcu/stm32_ws/src/libraries/FreeRTOS/Source/portable/GCC/ARM_CM4F/portmacro.h **** 
  90:/home/rdu/Workspace/project_templates/mcu/stm32_ws/src/libraries/FreeRTOS/Source/portable/GCC/ARM_CM4F/portmacro.h **** #define portNVIC_INT_CTRL_REG		( * ( ( volatile uint32_t * ) 0xe000ed04 ) )
  91:/home/rdu/Workspace/project_templates/mcu/stm32_ws/src/libraries/FreeRTOS/Source/portable/GCC/ARM_CM4F/portmacro.h **** #define portNVIC_PENDSVSET_BIT		( 1UL << 28UL )
  92:/home/rdu/Workspace/project_templates/mcu/stm32_ws/src/libraries/FreeRTOS/Source/portable/GCC/ARM_CM4F/portmacro.h **** #define portEND_SWITCHING_ISR( xSwitchRequired ) if( xSwitchRequired != pdFALSE ) portYIELD()
  93:/home/rdu/Workspace/project_templates/mcu/stm32_ws/src/libraries/FreeRTOS/Source/portable/GCC/ARM_CM4F/portmacro.h **** #define portYIELD_FROM_ISR( x ) portEND_SWITCHING_ISR( x )
  94:/home/rdu/Workspace/project_templates/mcu/stm32_ws/src/libraries/FreeRTOS/Source/portable/GCC/ARM_CM4F/portmacro.h **** /*-----------------------------------------------------------*/
  95:/home/rdu/Workspace/project_templates/mcu/stm32_ws/src/libraries/FreeRTOS/Source/portable/GCC/ARM_CM4F/portmacro.h **** 
  96:/home/rdu/Workspace/project_templates/mcu/stm32_ws/src/libraries/FreeRTOS/Source/portable/GCC/ARM_CM4F/portmacro.h **** /* Critical section management. */
  97:/home/rdu/Workspace/project_templates/mcu/stm32_ws/src/libraries/FreeRTOS/Source/portable/GCC/ARM_CM4F/portmacro.h **** extern void vPortEnterCritical( void );
  98:/home/rdu/Workspace/project_templates/mcu/stm32_ws/src/libraries/FreeRTOS/Source/portable/GCC/ARM_CM4F/portmacro.h **** extern void vPortExitCritical( void );
  99:/home/rdu/Workspace/project_templates/mcu/stm32_ws/src/libraries/FreeRTOS/Source/portable/GCC/ARM_CM4F/portmacro.h **** #define portSET_INTERRUPT_MASK_FROM_ISR()		ulPortRaiseBASEPRI()
 100:/home/rdu/Workspace/project_templates/mcu/stm32_ws/src/libraries/FreeRTOS/Source/portable/GCC/ARM_CM4F/portmacro.h **** #define portCLEAR_INTERRUPT_MASK_FROM_ISR(x)	vPortSetBASEPRI(x)
 101:/home/rdu/Workspace/project_templates/mcu/stm32_ws/src/libraries/FreeRTOS/Source/portable/GCC/ARM_CM4F/portmacro.h **** #define portDISABLE_INTERRUPTS()				vPortRaiseBASEPRI()
 102:/home/rdu/Workspace/project_templates/mcu/stm32_ws/src/libraries/FreeRTOS/Source/portable/GCC/ARM_CM4F/portmacro.h **** #define portENABLE_INTERRUPTS()					vPortSetBASEPRI(0)
 103:/home/rdu/Workspace/project_templates/mcu/stm32_ws/src/libraries/FreeRTOS/Source/portable/GCC/ARM_CM4F/portmacro.h **** #define portENTER_CRITICAL()					vPortEnterCritical()
 104:/home/rdu/Workspace/project_templates/mcu/stm32_ws/src/libraries/FreeRTOS/Source/portable/GCC/ARM_CM4F/portmacro.h **** #define portEXIT_CRITICAL()						vPortExitCritical()
 105:/home/rdu/Workspace/project_templates/mcu/stm32_ws/src/libraries/FreeRTOS/Source/portable/GCC/ARM_CM4F/portmacro.h **** 
 106:/home/rdu/Workspace/project_templates/mcu/stm32_ws/src/libraries/FreeRTOS/Source/portable/GCC/ARM_CM4F/portmacro.h **** /*-----------------------------------------------------------*/
 107:/home/rdu/Workspace/project_templates/mcu/stm32_ws/src/libraries/FreeRTOS/Source/portable/GCC/ARM_CM4F/portmacro.h **** 
 108:/home/rdu/Workspace/project_templates/mcu/stm32_ws/src/libraries/FreeRTOS/Source/portable/GCC/ARM_CM4F/portmacro.h **** /* Task function macros as described on the FreeRTOS.org WEB site.  These are
 109:/home/rdu/Workspace/project_templates/mcu/stm32_ws/src/libraries/FreeRTOS/Source/portable/GCC/ARM_CM4F/portmacro.h **** not necessary for to use this port.  They are defined so the common demo files
 110:/home/rdu/Workspace/project_templates/mcu/stm32_ws/src/libraries/FreeRTOS/Source/portable/GCC/ARM_CM4F/portmacro.h **** (which build with all the ports) will build. */
 111:/home/rdu/Workspace/project_templates/mcu/stm32_ws/src/libraries/FreeRTOS/Source/portable/GCC/ARM_CM4F/portmacro.h **** #define portTASK_FUNCTION_PROTO( vFunction, pvParameters ) void vFunction( void *pvParameters )
 112:/home/rdu/Workspace/project_templates/mcu/stm32_ws/src/libraries/FreeRTOS/Source/portable/GCC/ARM_CM4F/portmacro.h **** #define portTASK_FUNCTION( vFunction, pvParameters ) void vFunction( void *pvParameters )
 113:/home/rdu/Workspace/project_templates/mcu/stm32_ws/src/libraries/FreeRTOS/Source/portable/GCC/ARM_CM4F/portmacro.h **** /*-----------------------------------------------------------*/
 114:/home/rdu/Workspace/project_templates/mcu/stm32_ws/src/libraries/FreeRTOS/Source/portable/GCC/ARM_CM4F/portmacro.h **** 
 115:/home/rdu/Workspace/project_templates/mcu/stm32_ws/src/libraries/FreeRTOS/Source/portable/GCC/ARM_CM4F/portmacro.h **** /* Tickless idle/low power functionality. */
 116:/home/rdu/Workspace/project_templates/mcu/stm32_ws/src/libraries/FreeRTOS/Source/portable/GCC/ARM_CM4F/portmacro.h **** #ifndef portSUPPRESS_TICKS_AND_SLEEP
 117:/home/rdu/Workspace/project_templates/mcu/stm32_ws/src/libraries/FreeRTOS/Source/portable/GCC/ARM_CM4F/portmacro.h **** 	extern void vPortSuppressTicksAndSleep( TickType_t xExpectedIdleTime );
 118:/home/rdu/Workspace/project_templates/mcu/stm32_ws/src/libraries/FreeRTOS/Source/portable/GCC/ARM_CM4F/portmacro.h **** 	#define portSUPPRESS_TICKS_AND_SLEEP( xExpectedIdleTime ) vPortSuppressTicksAndSleep( xExpectedIdl
 119:/home/rdu/Workspace/project_templates/mcu/stm32_ws/src/libraries/FreeRTOS/Source/portable/GCC/ARM_CM4F/portmacro.h **** #endif
 120:/home/rdu/Workspace/project_templates/mcu/stm32_ws/src/libraries/FreeRTOS/Source/portable/GCC/ARM_CM4F/portmacro.h **** /*-----------------------------------------------------------*/
 121:/home/rdu/Workspace/project_templates/mcu/stm32_ws/src/libraries/FreeRTOS/Source/portable/GCC/ARM_CM4F/portmacro.h **** 
 122:/home/rdu/Workspace/project_templates/mcu/stm32_ws/src/libraries/FreeRTOS/Source/portable/GCC/ARM_CM4F/portmacro.h **** /* Architecture specific optimisations. */
 123:/home/rdu/Workspace/project_templates/mcu/stm32_ws/src/libraries/FreeRTOS/Source/portable/GCC/ARM_CM4F/portmacro.h **** #ifndef configUSE_PORT_OPTIMISED_TASK_SELECTION
 124:/home/rdu/Workspace/project_templates/mcu/stm32_ws/src/libraries/FreeRTOS/Source/portable/GCC/ARM_CM4F/portmacro.h **** 	#define configUSE_PORT_OPTIMISED_TASK_SELECTION 1
 125:/home/rdu/Workspace/project_templates/mcu/stm32_ws/src/libraries/FreeRTOS/Source/portable/GCC/ARM_CM4F/portmacro.h **** #endif
 126:/home/rdu/Workspace/project_templates/mcu/stm32_ws/src/libraries/FreeRTOS/Source/portable/GCC/ARM_CM4F/portmacro.h **** 
 127:/home/rdu/Workspace/project_templates/mcu/stm32_ws/src/libraries/FreeRTOS/Source/portable/GCC/ARM_CM4F/portmacro.h **** #if configUSE_PORT_OPTIMISED_TASK_SELECTION == 1
 128:/home/rdu/Workspace/project_templates/mcu/stm32_ws/src/libraries/FreeRTOS/Source/portable/GCC/ARM_CM4F/portmacro.h **** 
 129:/home/rdu/Workspace/project_templates/mcu/stm32_ws/src/libraries/FreeRTOS/Source/portable/GCC/ARM_CM4F/portmacro.h **** 	/* Generic helper function. */
 130:/home/rdu/Workspace/project_templates/mcu/stm32_ws/src/libraries/FreeRTOS/Source/portable/GCC/ARM_CM4F/portmacro.h **** 	__attribute__( ( always_inline ) ) static inline uint8_t ucPortCountLeadingZeros( uint32_t ulBitma
 131:/home/rdu/Workspace/project_templates/mcu/stm32_ws/src/libraries/FreeRTOS/Source/portable/GCC/ARM_CM4F/portmacro.h **** 	{
 132:/home/rdu/Workspace/project_templates/mcu/stm32_ws/src/libraries/FreeRTOS/Source/portable/GCC/ARM_CM4F/portmacro.h **** 	uint8_t ucReturn;
 133:/home/rdu/Workspace/project_templates/mcu/stm32_ws/src/libraries/FreeRTOS/Source/portable/GCC/ARM_CM4F/portmacro.h **** 
 134:/home/rdu/Workspace/project_templates/mcu/stm32_ws/src/libraries/FreeRTOS/Source/portable/GCC/ARM_CM4F/portmacro.h **** 		__asm volatile ( "clz %0, %1" : "=r" ( ucReturn ) : "r" ( ulBitmap ) : "memory" );
 135:/home/rdu/Workspace/project_templates/mcu/stm32_ws/src/libraries/FreeRTOS/Source/portable/GCC/ARM_CM4F/portmacro.h **** 		return ucReturn;
 136:/home/rdu/Workspace/project_templates/mcu/stm32_ws/src/libraries/FreeRTOS/Source/portable/GCC/ARM_CM4F/portmacro.h **** 	}
 137:/home/rdu/Workspace/project_templates/mcu/stm32_ws/src/libraries/FreeRTOS/Source/portable/GCC/ARM_CM4F/portmacro.h **** 
 138:/home/rdu/Workspace/project_templates/mcu/stm32_ws/src/libraries/FreeRTOS/Source/portable/GCC/ARM_CM4F/portmacro.h **** 	/* Check the configuration. */
 139:/home/rdu/Workspace/project_templates/mcu/stm32_ws/src/libraries/FreeRTOS/Source/portable/GCC/ARM_CM4F/portmacro.h **** 	#if( configMAX_PRIORITIES > 32 )
 140:/home/rdu/Workspace/project_templates/mcu/stm32_ws/src/libraries/FreeRTOS/Source/portable/GCC/ARM_CM4F/portmacro.h **** 		#error configUSE_PORT_OPTIMISED_TASK_SELECTION can only be set to 1 when configMAX_PRIORITIES is 
 141:/home/rdu/Workspace/project_templates/mcu/stm32_ws/src/libraries/FreeRTOS/Source/portable/GCC/ARM_CM4F/portmacro.h **** 	#endif
 142:/home/rdu/Workspace/project_templates/mcu/stm32_ws/src/libraries/FreeRTOS/Source/portable/GCC/ARM_CM4F/portmacro.h **** 
 143:/home/rdu/Workspace/project_templates/mcu/stm32_ws/src/libraries/FreeRTOS/Source/portable/GCC/ARM_CM4F/portmacro.h **** 	/* Store/clear the ready priorities in a bit map. */
 144:/home/rdu/Workspace/project_templates/mcu/stm32_ws/src/libraries/FreeRTOS/Source/portable/GCC/ARM_CM4F/portmacro.h **** 	#define portRECORD_READY_PRIORITY( uxPriority, uxReadyPriorities ) ( uxReadyPriorities ) |= ( 1UL 
 145:/home/rdu/Workspace/project_templates/mcu/stm32_ws/src/libraries/FreeRTOS/Source/portable/GCC/ARM_CM4F/portmacro.h **** 	#define portRESET_READY_PRIORITY( uxPriority, uxReadyPriorities ) ( uxReadyPriorities ) &= ~( 1UL 
 146:/home/rdu/Workspace/project_templates/mcu/stm32_ws/src/libraries/FreeRTOS/Source/portable/GCC/ARM_CM4F/portmacro.h **** 
 147:/home/rdu/Workspace/project_templates/mcu/stm32_ws/src/libraries/FreeRTOS/Source/portable/GCC/ARM_CM4F/portmacro.h **** 	/*-----------------------------------------------------------*/
 148:/home/rdu/Workspace/project_templates/mcu/stm32_ws/src/libraries/FreeRTOS/Source/portable/GCC/ARM_CM4F/portmacro.h **** 
 149:/home/rdu/Workspace/project_templates/mcu/stm32_ws/src/libraries/FreeRTOS/Source/portable/GCC/ARM_CM4F/portmacro.h **** 	#define portGET_HIGHEST_PRIORITY( uxTopPriority, uxReadyPriorities ) uxTopPriority = ( 31UL - ( ui
 150:/home/rdu/Workspace/project_templates/mcu/stm32_ws/src/libraries/FreeRTOS/Source/portable/GCC/ARM_CM4F/portmacro.h **** 
 151:/home/rdu/Workspace/project_templates/mcu/stm32_ws/src/libraries/FreeRTOS/Source/portable/GCC/ARM_CM4F/portmacro.h **** #endif /* configUSE_PORT_OPTIMISED_TASK_SELECTION */
 152:/home/rdu/Workspace/project_templates/mcu/stm32_ws/src/libraries/FreeRTOS/Source/portable/GCC/ARM_CM4F/portmacro.h **** 
 153:/home/rdu/Workspace/project_templates/mcu/stm32_ws/src/libraries/FreeRTOS/Source/portable/GCC/ARM_CM4F/portmacro.h **** /*-----------------------------------------------------------*/
 154:/home/rdu/Workspace/project_templates/mcu/stm32_ws/src/libraries/FreeRTOS/Source/portable/GCC/ARM_CM4F/portmacro.h **** 
 155:/home/rdu/Workspace/project_templates/mcu/stm32_ws/src/libraries/FreeRTOS/Source/portable/GCC/ARM_CM4F/portmacro.h **** #ifdef configASSERT
 156:/home/rdu/Workspace/project_templates/mcu/stm32_ws/src/libraries/FreeRTOS/Source/portable/GCC/ARM_CM4F/portmacro.h **** 	void vPortValidateInterruptPriority( void );
 157:/home/rdu/Workspace/project_templates/mcu/stm32_ws/src/libraries/FreeRTOS/Source/portable/GCC/ARM_CM4F/portmacro.h **** 	#define portASSERT_IF_INTERRUPT_PRIORITY_INVALID() 	vPortValidateInterruptPriority()
 158:/home/rdu/Workspace/project_templates/mcu/stm32_ws/src/libraries/FreeRTOS/Source/portable/GCC/ARM_CM4F/portmacro.h **** #endif
 159:/home/rdu/Workspace/project_templates/mcu/stm32_ws/src/libraries/FreeRTOS/Source/portable/GCC/ARM_CM4F/portmacro.h **** 
 160:/home/rdu/Workspace/project_templates/mcu/stm32_ws/src/libraries/FreeRTOS/Source/portable/GCC/ARM_CM4F/portmacro.h **** /* portNOP() is not required by this port. */
 161:/home/rdu/Workspace/project_templates/mcu/stm32_ws/src/libraries/FreeRTOS/Source/portable/GCC/ARM_CM4F/portmacro.h **** #define portNOP()
 162:/home/rdu/Workspace/project_templates/mcu/stm32_ws/src/libraries/FreeRTOS/Source/portable/GCC/ARM_CM4F/portmacro.h **** 
 163:/home/rdu/Workspace/project_templates/mcu/stm32_ws/src/libraries/FreeRTOS/Source/portable/GCC/ARM_CM4F/portmacro.h **** #define portINLINE	__inline
 164:/home/rdu/Workspace/project_templates/mcu/stm32_ws/src/libraries/FreeRTOS/Source/portable/GCC/ARM_CM4F/portmacro.h **** 
 165:/home/rdu/Workspace/project_templates/mcu/stm32_ws/src/libraries/FreeRTOS/Source/portable/GCC/ARM_CM4F/portmacro.h **** #ifndef portFORCE_INLINE
 166:/home/rdu/Workspace/project_templates/mcu/stm32_ws/src/libraries/FreeRTOS/Source/portable/GCC/ARM_CM4F/portmacro.h **** 	#define portFORCE_INLINE inline __attribute__(( always_inline))
 167:/home/rdu/Workspace/project_templates/mcu/stm32_ws/src/libraries/FreeRTOS/Source/portable/GCC/ARM_CM4F/portmacro.h **** #endif
 168:/home/rdu/Workspace/project_templates/mcu/stm32_ws/src/libraries/FreeRTOS/Source/portable/GCC/ARM_CM4F/portmacro.h **** 
 169:/home/rdu/Workspace/project_templates/mcu/stm32_ws/src/libraries/FreeRTOS/Source/portable/GCC/ARM_CM4F/portmacro.h **** portFORCE_INLINE static BaseType_t xPortIsInsideInterrupt( void )
 170:/home/rdu/Workspace/project_templates/mcu/stm32_ws/src/libraries/FreeRTOS/Source/portable/GCC/ARM_CM4F/portmacro.h **** {
 171:/home/rdu/Workspace/project_templates/mcu/stm32_ws/src/libraries/FreeRTOS/Source/portable/GCC/ARM_CM4F/portmacro.h **** uint32_t ulCurrentInterrupt;
 172:/home/rdu/Workspace/project_templates/mcu/stm32_ws/src/libraries/FreeRTOS/Source/portable/GCC/ARM_CM4F/portmacro.h **** BaseType_t xReturn;
 173:/home/rdu/Workspace/project_templates/mcu/stm32_ws/src/libraries/FreeRTOS/Source/portable/GCC/ARM_CM4F/portmacro.h **** 
 174:/home/rdu/Workspace/project_templates/mcu/stm32_ws/src/libraries/FreeRTOS/Source/portable/GCC/ARM_CM4F/portmacro.h **** 	/* Obtain the number of the currently executing interrupt. */
 175:/home/rdu/Workspace/project_templates/mcu/stm32_ws/src/libraries/FreeRTOS/Source/portable/GCC/ARM_CM4F/portmacro.h **** 	__asm volatile( "mrs %0, ipsr" : "=r"( ulCurrentInterrupt ) :: "memory" );
 176:/home/rdu/Workspace/project_templates/mcu/stm32_ws/src/libraries/FreeRTOS/Source/portable/GCC/ARM_CM4F/portmacro.h **** 
 177:/home/rdu/Workspace/project_templates/mcu/stm32_ws/src/libraries/FreeRTOS/Source/portable/GCC/ARM_CM4F/portmacro.h **** 	if( ulCurrentInterrupt == 0 )
 178:/home/rdu/Workspace/project_templates/mcu/stm32_ws/src/libraries/FreeRTOS/Source/portable/GCC/ARM_CM4F/portmacro.h **** 	{
 179:/home/rdu/Workspace/project_templates/mcu/stm32_ws/src/libraries/FreeRTOS/Source/portable/GCC/ARM_CM4F/portmacro.h **** 		xReturn = pdFALSE;
 180:/home/rdu/Workspace/project_templates/mcu/stm32_ws/src/libraries/FreeRTOS/Source/portable/GCC/ARM_CM4F/portmacro.h **** 	}
 181:/home/rdu/Workspace/project_templates/mcu/stm32_ws/src/libraries/FreeRTOS/Source/portable/GCC/ARM_CM4F/portmacro.h **** 	else
 182:/home/rdu/Workspace/project_templates/mcu/stm32_ws/src/libraries/FreeRTOS/Source/portable/GCC/ARM_CM4F/portmacro.h **** 	{
 183:/home/rdu/Workspace/project_templates/mcu/stm32_ws/src/libraries/FreeRTOS/Source/portable/GCC/ARM_CM4F/portmacro.h **** 		xReturn = pdTRUE;
 184:/home/rdu/Workspace/project_templates/mcu/stm32_ws/src/libraries/FreeRTOS/Source/portable/GCC/ARM_CM4F/portmacro.h **** 	}
 185:/home/rdu/Workspace/project_templates/mcu/stm32_ws/src/libraries/FreeRTOS/Source/portable/GCC/ARM_CM4F/portmacro.h **** 
 186:/home/rdu/Workspace/project_templates/mcu/stm32_ws/src/libraries/FreeRTOS/Source/portable/GCC/ARM_CM4F/portmacro.h **** 	return xReturn;
 187:/home/rdu/Workspace/project_templates/mcu/stm32_ws/src/libraries/FreeRTOS/Source/portable/GCC/ARM_CM4F/portmacro.h **** }
 188:/home/rdu/Workspace/project_templates/mcu/stm32_ws/src/libraries/FreeRTOS/Source/portable/GCC/ARM_CM4F/portmacro.h **** 
 189:/home/rdu/Workspace/project_templates/mcu/stm32_ws/src/libraries/FreeRTOS/Source/portable/GCC/ARM_CM4F/portmacro.h **** /*-----------------------------------------------------------*/
 190:/home/rdu/Workspace/project_templates/mcu/stm32_ws/src/libraries/FreeRTOS/Source/portable/GCC/ARM_CM4F/portmacro.h **** 
 191:/home/rdu/Workspace/project_templates/mcu/stm32_ws/src/libraries/FreeRTOS/Source/portable/GCC/ARM_CM4F/portmacro.h **** portFORCE_INLINE static void vPortRaiseBASEPRI( void )
 192:/home/rdu/Workspace/project_templates/mcu/stm32_ws/src/libraries/FreeRTOS/Source/portable/GCC/ARM_CM4F/portmacro.h **** {
 193:/home/rdu/Workspace/project_templates/mcu/stm32_ws/src/libraries/FreeRTOS/Source/portable/GCC/ARM_CM4F/portmacro.h **** uint32_t ulNewBASEPRI;
 194:/home/rdu/Workspace/project_templates/mcu/stm32_ws/src/libraries/FreeRTOS/Source/portable/GCC/ARM_CM4F/portmacro.h **** 
 195:/home/rdu/Workspace/project_templates/mcu/stm32_ws/src/libraries/FreeRTOS/Source/portable/GCC/ARM_CM4F/portmacro.h **** 	__asm volatile
 106              		.loc 2 195 0 discriminator 1
 107              		.syntax unified
 108              	@ 195 "/home/rdu/Workspace/project_templates/mcu/stm32_ws/src/libraries/FreeRTOS/Source/portable/GC
 109 0032 4FF05003 			mov r3, #80												
 110 0036 83F31188 		msr basepri, r3											
 111 003a BFF36F8F 		isb														
 112 003e BFF34F8F 		dsb														
 113              	
 114              	@ 0 "" 2
 115              		.thumb
 116              		.syntax unified
 117 0042 0293     		str	r3, [sp, #8]
 118              	.L4:
 119              	.LBE31:
 120              	.LBE30:
 121              		.loc 1 274 0 discriminator 1
 122 0044 FEE7     		b	.L4
 123              	.L3:
 275:/home/rdu/Workspace/project_templates/mcu/stm32_ws/src/libraries/FreeRTOS/Source/timers.c **** 	return xReturn;
 124              		.loc 1 275 0
 125 0046 039B     		ldr	r3, [sp, #12]
 276:/home/rdu/Workspace/project_templates/mcu/stm32_ws/src/libraries/FreeRTOS/Source/timers.c **** }
 126              		.loc 1 276 0
 127 0048 1846     		mov	r0, r3
 128 004a 05B0     		add	sp, sp, #20
 129              	.LCFI2:
 130              		.cfi_def_cfa_offset 4
 131              		@ sp needed
 132 004c 5DF804FB 		ldr	pc, [sp], #4
 133              	.L7:
 134              		.align	2
 135              	.L6:
 136 0050 00000000 		.word	xTimerQueue
 137 0054 00000000 		.word	xTimerTaskHandle
 138 0058 00000000 		.word	.LC0
 139 005c 00000000 		.word	prvTimerTask
 140              		.cfi_endproc
 141              	.LFE5:
 143              		.section	.text.xTimerCreate,"ax",%progbits
 144              		.align	1
 145              		.global	xTimerCreate
 146              		.syntax unified
 147              		.thumb
 148              		.thumb_func
 149              		.fpu fpv4-sp-d16
 151              	xTimerCreate:
 152              	.LFB6:
 277:/home/rdu/Workspace/project_templates/mcu/stm32_ws/src/libraries/FreeRTOS/Source/timers.c **** /*-----------------------------------------------------------*/
 278:/home/rdu/Workspace/project_templates/mcu/stm32_ws/src/libraries/FreeRTOS/Source/timers.c **** 
 279:/home/rdu/Workspace/project_templates/mcu/stm32_ws/src/libraries/FreeRTOS/Source/timers.c **** #if( configSUPPORT_DYNAMIC_ALLOCATION == 1 )
 280:/home/rdu/Workspace/project_templates/mcu/stm32_ws/src/libraries/FreeRTOS/Source/timers.c **** 
 281:/home/rdu/Workspace/project_templates/mcu/stm32_ws/src/libraries/FreeRTOS/Source/timers.c **** 	TimerHandle_t xTimerCreate(	const char * const pcTimerName,			/*lint !e971 Unqualified char types 
 282:/home/rdu/Workspace/project_templates/mcu/stm32_ws/src/libraries/FreeRTOS/Source/timers.c **** 								const TickType_t xTimerPeriodInTicks,
 283:/home/rdu/Workspace/project_templates/mcu/stm32_ws/src/libraries/FreeRTOS/Source/timers.c **** 								const UBaseType_t uxAutoReload,
 284:/home/rdu/Workspace/project_templates/mcu/stm32_ws/src/libraries/FreeRTOS/Source/timers.c **** 								void * const pvTimerID,
 285:/home/rdu/Workspace/project_templates/mcu/stm32_ws/src/libraries/FreeRTOS/Source/timers.c **** 								TimerCallbackFunction_t pxCallbackFunction )
 286:/home/rdu/Workspace/project_templates/mcu/stm32_ws/src/libraries/FreeRTOS/Source/timers.c **** 	{
 153              		.loc 1 286 0
 154              		.cfi_startproc
 155              		@ args = 4, pretend = 0, frame = 24
 156              		@ frame_needed = 0, uses_anonymous_args = 0
 157 0000 00B5     		push	{lr}
 158              	.LCFI3:
 159              		.cfi_def_cfa_offset 4
 160              		.cfi_offset 14, -4
 161 0002 89B0     		sub	sp, sp, #36
 162              	.LCFI4:
 163              		.cfi_def_cfa_offset 40
 164 0004 0590     		str	r0, [sp, #20]
 165 0006 0491     		str	r1, [sp, #16]
 166 0008 0392     		str	r2, [sp, #12]
 167 000a 0293     		str	r3, [sp, #8]
 287:/home/rdu/Workspace/project_templates/mcu/stm32_ws/src/libraries/FreeRTOS/Source/timers.c **** 	Timer_t *pxNewTimer;
 288:/home/rdu/Workspace/project_templates/mcu/stm32_ws/src/libraries/FreeRTOS/Source/timers.c **** 
 289:/home/rdu/Workspace/project_templates/mcu/stm32_ws/src/libraries/FreeRTOS/Source/timers.c **** 		pxNewTimer = ( Timer_t * ) pvPortMalloc( sizeof( Timer_t ) ); /*lint !e9087 !e9079 All values ret
 168              		.loc 1 289 0
 169 000c 2C20     		movs	r0, #44
 170 000e FFF7FEFF 		bl	pvPortMalloc
 171 0012 0790     		str	r0, [sp, #28]
 290:/home/rdu/Workspace/project_templates/mcu/stm32_ws/src/libraries/FreeRTOS/Source/timers.c **** 
 291:/home/rdu/Workspace/project_templates/mcu/stm32_ws/src/libraries/FreeRTOS/Source/timers.c **** 		if( pxNewTimer != NULL )
 172              		.loc 1 291 0
 173 0014 079B     		ldr	r3, [sp, #28]
 174 0016 002B     		cmp	r3, #0
 175 0018 09D0     		beq	.L9
 292:/home/rdu/Workspace/project_templates/mcu/stm32_ws/src/libraries/FreeRTOS/Source/timers.c **** 		{
 293:/home/rdu/Workspace/project_templates/mcu/stm32_ws/src/libraries/FreeRTOS/Source/timers.c **** 			prvInitialiseNewTimer( pcTimerName, xTimerPeriodInTicks, uxAutoReload, pvTimerID, pxCallbackFunc
 176              		.loc 1 293 0
 177 001a 079B     		ldr	r3, [sp, #28]
 178 001c 0193     		str	r3, [sp, #4]
 179 001e 0A9B     		ldr	r3, [sp, #40]
 180 0020 0093     		str	r3, [sp]
 181 0022 029B     		ldr	r3, [sp, #8]
 182 0024 039A     		ldr	r2, [sp, #12]
 183 0026 0499     		ldr	r1, [sp, #16]
 184 0028 0598     		ldr	r0, [sp, #20]
 185 002a FFF7FEFF 		bl	prvInitialiseNewTimer
 186              	.L9:
 294:/home/rdu/Workspace/project_templates/mcu/stm32_ws/src/libraries/FreeRTOS/Source/timers.c **** 
 295:/home/rdu/Workspace/project_templates/mcu/stm32_ws/src/libraries/FreeRTOS/Source/timers.c **** 			#if( configSUPPORT_STATIC_ALLOCATION == 1 )
 296:/home/rdu/Workspace/project_templates/mcu/stm32_ws/src/libraries/FreeRTOS/Source/timers.c **** 			{
 297:/home/rdu/Workspace/project_templates/mcu/stm32_ws/src/libraries/FreeRTOS/Source/timers.c **** 				/* Timers can be created statically or dynamically, so note this
 298:/home/rdu/Workspace/project_templates/mcu/stm32_ws/src/libraries/FreeRTOS/Source/timers.c **** 				timer was created dynamically in case the timer is later
 299:/home/rdu/Workspace/project_templates/mcu/stm32_ws/src/libraries/FreeRTOS/Source/timers.c **** 				deleted. */
 300:/home/rdu/Workspace/project_templates/mcu/stm32_ws/src/libraries/FreeRTOS/Source/timers.c **** 				pxNewTimer->ucStaticallyAllocated = pdFALSE;
 301:/home/rdu/Workspace/project_templates/mcu/stm32_ws/src/libraries/FreeRTOS/Source/timers.c **** 			}
 302:/home/rdu/Workspace/project_templates/mcu/stm32_ws/src/libraries/FreeRTOS/Source/timers.c **** 			#endif /* configSUPPORT_STATIC_ALLOCATION */
 303:/home/rdu/Workspace/project_templates/mcu/stm32_ws/src/libraries/FreeRTOS/Source/timers.c **** 		}
 304:/home/rdu/Workspace/project_templates/mcu/stm32_ws/src/libraries/FreeRTOS/Source/timers.c **** 
 305:/home/rdu/Workspace/project_templates/mcu/stm32_ws/src/libraries/FreeRTOS/Source/timers.c **** 		return pxNewTimer;
 187              		.loc 1 305 0
 188 002e 079B     		ldr	r3, [sp, #28]
 306:/home/rdu/Workspace/project_templates/mcu/stm32_ws/src/libraries/FreeRTOS/Source/timers.c **** 	}
 189              		.loc 1 306 0
 190 0030 1846     		mov	r0, r3
 191 0032 09B0     		add	sp, sp, #36
 192              	.LCFI5:
 193              		.cfi_def_cfa_offset 4
 194              		@ sp needed
 195 0034 5DF804FB 		ldr	pc, [sp], #4
 196              		.cfi_endproc
 197              	.LFE6:
 199              		.section	.text.prvInitialiseNewTimer,"ax",%progbits
 200              		.align	1
 201              		.syntax unified
 202              		.thumb
 203              		.thumb_func
 204              		.fpu fpv4-sp-d16
 206              	prvInitialiseNewTimer:
 207              	.LFB7:
 307:/home/rdu/Workspace/project_templates/mcu/stm32_ws/src/libraries/FreeRTOS/Source/timers.c **** 
 308:/home/rdu/Workspace/project_templates/mcu/stm32_ws/src/libraries/FreeRTOS/Source/timers.c **** #endif /* configSUPPORT_STATIC_ALLOCATION */
 309:/home/rdu/Workspace/project_templates/mcu/stm32_ws/src/libraries/FreeRTOS/Source/timers.c **** /*-----------------------------------------------------------*/
 310:/home/rdu/Workspace/project_templates/mcu/stm32_ws/src/libraries/FreeRTOS/Source/timers.c **** 
 311:/home/rdu/Workspace/project_templates/mcu/stm32_ws/src/libraries/FreeRTOS/Source/timers.c **** #if( configSUPPORT_STATIC_ALLOCATION == 1 )
 312:/home/rdu/Workspace/project_templates/mcu/stm32_ws/src/libraries/FreeRTOS/Source/timers.c **** 
 313:/home/rdu/Workspace/project_templates/mcu/stm32_ws/src/libraries/FreeRTOS/Source/timers.c **** 	TimerHandle_t xTimerCreateStatic(	const char * const pcTimerName,		/*lint !e971 Unqualified char t
 314:/home/rdu/Workspace/project_templates/mcu/stm32_ws/src/libraries/FreeRTOS/Source/timers.c **** 										const TickType_t xTimerPeriodInTicks,
 315:/home/rdu/Workspace/project_templates/mcu/stm32_ws/src/libraries/FreeRTOS/Source/timers.c **** 										const UBaseType_t uxAutoReload,
 316:/home/rdu/Workspace/project_templates/mcu/stm32_ws/src/libraries/FreeRTOS/Source/timers.c **** 										void * const pvTimerID,
 317:/home/rdu/Workspace/project_templates/mcu/stm32_ws/src/libraries/FreeRTOS/Source/timers.c **** 										TimerCallbackFunction_t pxCallbackFunction,
 318:/home/rdu/Workspace/project_templates/mcu/stm32_ws/src/libraries/FreeRTOS/Source/timers.c **** 										StaticTimer_t *pxTimerBuffer )
 319:/home/rdu/Workspace/project_templates/mcu/stm32_ws/src/libraries/FreeRTOS/Source/timers.c **** 	{
 320:/home/rdu/Workspace/project_templates/mcu/stm32_ws/src/libraries/FreeRTOS/Source/timers.c **** 	Timer_t *pxNewTimer;
 321:/home/rdu/Workspace/project_templates/mcu/stm32_ws/src/libraries/FreeRTOS/Source/timers.c **** 
 322:/home/rdu/Workspace/project_templates/mcu/stm32_ws/src/libraries/FreeRTOS/Source/timers.c **** 		#if( configASSERT_DEFINED == 1 )
 323:/home/rdu/Workspace/project_templates/mcu/stm32_ws/src/libraries/FreeRTOS/Source/timers.c **** 		{
 324:/home/rdu/Workspace/project_templates/mcu/stm32_ws/src/libraries/FreeRTOS/Source/timers.c **** 			/* Sanity check that the size of the structure used to declare a
 325:/home/rdu/Workspace/project_templates/mcu/stm32_ws/src/libraries/FreeRTOS/Source/timers.c **** 			variable of type StaticTimer_t equals the size of the real timer
 326:/home/rdu/Workspace/project_templates/mcu/stm32_ws/src/libraries/FreeRTOS/Source/timers.c **** 			structure. */
 327:/home/rdu/Workspace/project_templates/mcu/stm32_ws/src/libraries/FreeRTOS/Source/timers.c **** 			volatile size_t xSize = sizeof( StaticTimer_t );
 328:/home/rdu/Workspace/project_templates/mcu/stm32_ws/src/libraries/FreeRTOS/Source/timers.c **** 			configASSERT( xSize == sizeof( Timer_t ) );
 329:/home/rdu/Workspace/project_templates/mcu/stm32_ws/src/libraries/FreeRTOS/Source/timers.c **** 			( void ) xSize; /* Keeps lint quiet when configASSERT() is not defined. */
 330:/home/rdu/Workspace/project_templates/mcu/stm32_ws/src/libraries/FreeRTOS/Source/timers.c **** 		}
 331:/home/rdu/Workspace/project_templates/mcu/stm32_ws/src/libraries/FreeRTOS/Source/timers.c **** 		#endif /* configASSERT_DEFINED */
 332:/home/rdu/Workspace/project_templates/mcu/stm32_ws/src/libraries/FreeRTOS/Source/timers.c **** 
 333:/home/rdu/Workspace/project_templates/mcu/stm32_ws/src/libraries/FreeRTOS/Source/timers.c **** 		/* A pointer to a StaticTimer_t structure MUST be provided, use it. */
 334:/home/rdu/Workspace/project_templates/mcu/stm32_ws/src/libraries/FreeRTOS/Source/timers.c **** 		configASSERT( pxTimerBuffer );
 335:/home/rdu/Workspace/project_templates/mcu/stm32_ws/src/libraries/FreeRTOS/Source/timers.c **** 		pxNewTimer = ( Timer_t * ) pxTimerBuffer; /*lint !e740 !e9087 StaticTimer_t is a pointer to a Tim
 336:/home/rdu/Workspace/project_templates/mcu/stm32_ws/src/libraries/FreeRTOS/Source/timers.c **** 
 337:/home/rdu/Workspace/project_templates/mcu/stm32_ws/src/libraries/FreeRTOS/Source/timers.c **** 		if( pxNewTimer != NULL )
 338:/home/rdu/Workspace/project_templates/mcu/stm32_ws/src/libraries/FreeRTOS/Source/timers.c **** 		{
 339:/home/rdu/Workspace/project_templates/mcu/stm32_ws/src/libraries/FreeRTOS/Source/timers.c **** 			prvInitialiseNewTimer( pcTimerName, xTimerPeriodInTicks, uxAutoReload, pvTimerID, pxCallbackFunc
 340:/home/rdu/Workspace/project_templates/mcu/stm32_ws/src/libraries/FreeRTOS/Source/timers.c **** 
 341:/home/rdu/Workspace/project_templates/mcu/stm32_ws/src/libraries/FreeRTOS/Source/timers.c **** 			#if( configSUPPORT_DYNAMIC_ALLOCATION == 1 )
 342:/home/rdu/Workspace/project_templates/mcu/stm32_ws/src/libraries/FreeRTOS/Source/timers.c **** 			{
 343:/home/rdu/Workspace/project_templates/mcu/stm32_ws/src/libraries/FreeRTOS/Source/timers.c **** 				/* Timers can be created statically or dynamically so note this
 344:/home/rdu/Workspace/project_templates/mcu/stm32_ws/src/libraries/FreeRTOS/Source/timers.c **** 				timer was created statically in case it is later deleted. */
 345:/home/rdu/Workspace/project_templates/mcu/stm32_ws/src/libraries/FreeRTOS/Source/timers.c **** 				pxNewTimer->ucStaticallyAllocated = pdTRUE;
 346:/home/rdu/Workspace/project_templates/mcu/stm32_ws/src/libraries/FreeRTOS/Source/timers.c **** 			}
 347:/home/rdu/Workspace/project_templates/mcu/stm32_ws/src/libraries/FreeRTOS/Source/timers.c **** 			#endif /* configSUPPORT_DYNAMIC_ALLOCATION */
 348:/home/rdu/Workspace/project_templates/mcu/stm32_ws/src/libraries/FreeRTOS/Source/timers.c **** 		}
 349:/home/rdu/Workspace/project_templates/mcu/stm32_ws/src/libraries/FreeRTOS/Source/timers.c **** 
 350:/home/rdu/Workspace/project_templates/mcu/stm32_ws/src/libraries/FreeRTOS/Source/timers.c **** 		return pxNewTimer;
 351:/home/rdu/Workspace/project_templates/mcu/stm32_ws/src/libraries/FreeRTOS/Source/timers.c **** 	}
 352:/home/rdu/Workspace/project_templates/mcu/stm32_ws/src/libraries/FreeRTOS/Source/timers.c **** 
 353:/home/rdu/Workspace/project_templates/mcu/stm32_ws/src/libraries/FreeRTOS/Source/timers.c **** #endif /* configSUPPORT_STATIC_ALLOCATION */
 354:/home/rdu/Workspace/project_templates/mcu/stm32_ws/src/libraries/FreeRTOS/Source/timers.c **** /*-----------------------------------------------------------*/
 355:/home/rdu/Workspace/project_templates/mcu/stm32_ws/src/libraries/FreeRTOS/Source/timers.c **** 
 356:/home/rdu/Workspace/project_templates/mcu/stm32_ws/src/libraries/FreeRTOS/Source/timers.c **** static void prvInitialiseNewTimer(	const char * const pcTimerName,			/*lint !e971 Unqualified char 
 357:/home/rdu/Workspace/project_templates/mcu/stm32_ws/src/libraries/FreeRTOS/Source/timers.c **** 									const TickType_t xTimerPeriodInTicks,
 358:/home/rdu/Workspace/project_templates/mcu/stm32_ws/src/libraries/FreeRTOS/Source/timers.c **** 									const UBaseType_t uxAutoReload,
 359:/home/rdu/Workspace/project_templates/mcu/stm32_ws/src/libraries/FreeRTOS/Source/timers.c **** 									void * const pvTimerID,
 360:/home/rdu/Workspace/project_templates/mcu/stm32_ws/src/libraries/FreeRTOS/Source/timers.c **** 									TimerCallbackFunction_t pxCallbackFunction,
 361:/home/rdu/Workspace/project_templates/mcu/stm32_ws/src/libraries/FreeRTOS/Source/timers.c **** 									Timer_t *pxNewTimer )
 362:/home/rdu/Workspace/project_templates/mcu/stm32_ws/src/libraries/FreeRTOS/Source/timers.c **** {
 208              		.loc 1 362 0
 209              		.cfi_startproc
 210              		@ args = 8, pretend = 0, frame = 24
 211              		@ frame_needed = 0, uses_anonymous_args = 0
 212 0000 00B5     		push	{lr}
 213              	.LCFI6:
 214              		.cfi_def_cfa_offset 4
 215              		.cfi_offset 14, -4
 216 0002 87B0     		sub	sp, sp, #28
 217              	.LCFI7:
 218              		.cfi_def_cfa_offset 32
 219 0004 0390     		str	r0, [sp, #12]
 220 0006 0291     		str	r1, [sp, #8]
 221 0008 0192     		str	r2, [sp, #4]
 222 000a 0093     		str	r3, [sp]
 363:/home/rdu/Workspace/project_templates/mcu/stm32_ws/src/libraries/FreeRTOS/Source/timers.c **** 	/* 0 is not a valid value for xTimerPeriodInTicks. */
 364:/home/rdu/Workspace/project_templates/mcu/stm32_ws/src/libraries/FreeRTOS/Source/timers.c **** 	configASSERT( ( xTimerPeriodInTicks > 0 ) );
 223              		.loc 1 364 0
 224 000c 029B     		ldr	r3, [sp, #8]
 225 000e 002B     		cmp	r3, #0
 226 0010 09D1     		bne	.L12
 227              	.LBB32:
 228              	.LBB33:
 229              		.loc 2 195 0 discriminator 1
 230              		.syntax unified
 231              	@ 195 "/home/rdu/Workspace/project_templates/mcu/stm32_ws/src/libraries/FreeRTOS/Source/portable/GC
 232 0012 4FF05003 			mov r3, #80												
 233 0016 83F31188 		msr basepri, r3											
 234 001a BFF36F8F 		isb														
 235 001e BFF34F8F 		dsb														
 236              	
 237              	@ 0 "" 2
 238              		.thumb
 239              		.syntax unified
 240 0022 0593     		str	r3, [sp, #20]
 241              	.L13:
 242              	.LBE33:
 243              	.LBE32:
 244              		.loc 1 364 0 discriminator 1
 245 0024 FEE7     		b	.L13
 246              	.L12:
 365:/home/rdu/Workspace/project_templates/mcu/stm32_ws/src/libraries/FreeRTOS/Source/timers.c **** 
 366:/home/rdu/Workspace/project_templates/mcu/stm32_ws/src/libraries/FreeRTOS/Source/timers.c **** 	if( pxNewTimer != NULL )
 247              		.loc 1 366 0
 248 0026 099B     		ldr	r3, [sp, #36]
 249 0028 002B     		cmp	r3, #0
 250 002a 15D0     		beq	.L15
 367:/home/rdu/Workspace/project_templates/mcu/stm32_ws/src/libraries/FreeRTOS/Source/timers.c **** 	{
 368:/home/rdu/Workspace/project_templates/mcu/stm32_ws/src/libraries/FreeRTOS/Source/timers.c **** 		/* Ensure the infrastructure used by the timer service task has been
 369:/home/rdu/Workspace/project_templates/mcu/stm32_ws/src/libraries/FreeRTOS/Source/timers.c **** 		created/initialised. */
 370:/home/rdu/Workspace/project_templates/mcu/stm32_ws/src/libraries/FreeRTOS/Source/timers.c **** 		prvCheckForValidListAndQueue();
 251              		.loc 1 370 0
 252 002c FFF7FEFF 		bl	prvCheckForValidListAndQueue
 371:/home/rdu/Workspace/project_templates/mcu/stm32_ws/src/libraries/FreeRTOS/Source/timers.c **** 
 372:/home/rdu/Workspace/project_templates/mcu/stm32_ws/src/libraries/FreeRTOS/Source/timers.c **** 		/* Initialise the timer structure members using the function
 373:/home/rdu/Workspace/project_templates/mcu/stm32_ws/src/libraries/FreeRTOS/Source/timers.c **** 		parameters. */
 374:/home/rdu/Workspace/project_templates/mcu/stm32_ws/src/libraries/FreeRTOS/Source/timers.c **** 		pxNewTimer->pcTimerName = pcTimerName;
 253              		.loc 1 374 0
 254 0030 099B     		ldr	r3, [sp, #36]
 255 0032 039A     		ldr	r2, [sp, #12]
 256 0034 1A60     		str	r2, [r3]
 375:/home/rdu/Workspace/project_templates/mcu/stm32_ws/src/libraries/FreeRTOS/Source/timers.c **** 		pxNewTimer->xTimerPeriodInTicks = xTimerPeriodInTicks;
 257              		.loc 1 375 0
 258 0036 099B     		ldr	r3, [sp, #36]
 259 0038 029A     		ldr	r2, [sp, #8]
 260 003a 9A61     		str	r2, [r3, #24]
 376:/home/rdu/Workspace/project_templates/mcu/stm32_ws/src/libraries/FreeRTOS/Source/timers.c **** 		pxNewTimer->uxAutoReload = uxAutoReload;
 261              		.loc 1 376 0
 262 003c 099B     		ldr	r3, [sp, #36]
 263 003e 019A     		ldr	r2, [sp, #4]
 264 0040 DA61     		str	r2, [r3, #28]
 377:/home/rdu/Workspace/project_templates/mcu/stm32_ws/src/libraries/FreeRTOS/Source/timers.c **** 		pxNewTimer->pvTimerID = pvTimerID;
 265              		.loc 1 377 0
 266 0042 099B     		ldr	r3, [sp, #36]
 267 0044 009A     		ldr	r2, [sp]
 268 0046 1A62     		str	r2, [r3, #32]
 378:/home/rdu/Workspace/project_templates/mcu/stm32_ws/src/libraries/FreeRTOS/Source/timers.c **** 		pxNewTimer->pxCallbackFunction = pxCallbackFunction;
 269              		.loc 1 378 0
 270 0048 099B     		ldr	r3, [sp, #36]
 271 004a 089A     		ldr	r2, [sp, #32]
 272 004c 5A62     		str	r2, [r3, #36]
 379:/home/rdu/Workspace/project_templates/mcu/stm32_ws/src/libraries/FreeRTOS/Source/timers.c **** 		vListInitialiseItem( &( pxNewTimer->xTimerListItem ) );
 273              		.loc 1 379 0
 274 004e 099B     		ldr	r3, [sp, #36]
 275 0050 0433     		adds	r3, r3, #4
 276 0052 1846     		mov	r0, r3
 277 0054 FFF7FEFF 		bl	vListInitialiseItem
 278              	.L15:
 380:/home/rdu/Workspace/project_templates/mcu/stm32_ws/src/libraries/FreeRTOS/Source/timers.c **** 		traceTIMER_CREATE( pxNewTimer );
 381:/home/rdu/Workspace/project_templates/mcu/stm32_ws/src/libraries/FreeRTOS/Source/timers.c **** 	}
 382:/home/rdu/Workspace/project_templates/mcu/stm32_ws/src/libraries/FreeRTOS/Source/timers.c **** }
 279              		.loc 1 382 0
 280 0058 00BF     		nop
 281 005a 07B0     		add	sp, sp, #28
 282              	.LCFI8:
 283              		.cfi_def_cfa_offset 4
 284              		@ sp needed
 285 005c 5DF804FB 		ldr	pc, [sp], #4
 286              		.cfi_endproc
 287              	.LFE7:
 289              		.section	.text.xTimerGenericCommand,"ax",%progbits
 290              		.align	1
 291              		.global	xTimerGenericCommand
 292              		.syntax unified
 293              		.thumb
 294              		.thumb_func
 295              		.fpu fpv4-sp-d16
 297              	xTimerGenericCommand:
 298              	.LFB8:
 383:/home/rdu/Workspace/project_templates/mcu/stm32_ws/src/libraries/FreeRTOS/Source/timers.c **** /*-----------------------------------------------------------*/
 384:/home/rdu/Workspace/project_templates/mcu/stm32_ws/src/libraries/FreeRTOS/Source/timers.c **** 
 385:/home/rdu/Workspace/project_templates/mcu/stm32_ws/src/libraries/FreeRTOS/Source/timers.c **** BaseType_t xTimerGenericCommand( TimerHandle_t xTimer, const BaseType_t xCommandID, const TickType_
 386:/home/rdu/Workspace/project_templates/mcu/stm32_ws/src/libraries/FreeRTOS/Source/timers.c **** {
 299              		.loc 1 386 0
 300              		.cfi_startproc
 301              		@ args = 4, pretend = 0, frame = 40
 302              		@ frame_needed = 0, uses_anonymous_args = 0
 303 0000 00B5     		push	{lr}
 304              	.LCFI9:
 305              		.cfi_def_cfa_offset 4
 306              		.cfi_offset 14, -4
 307 0002 8BB0     		sub	sp, sp, #44
 308              	.LCFI10:
 309              		.cfi_def_cfa_offset 48
 310 0004 0390     		str	r0, [sp, #12]
 311 0006 0291     		str	r1, [sp, #8]
 312 0008 0192     		str	r2, [sp, #4]
 313 000a 0093     		str	r3, [sp]
 387:/home/rdu/Workspace/project_templates/mcu/stm32_ws/src/libraries/FreeRTOS/Source/timers.c **** BaseType_t xReturn = pdFAIL;
 314              		.loc 1 387 0
 315 000c 0023     		movs	r3, #0
 316 000e 0993     		str	r3, [sp, #36]
 388:/home/rdu/Workspace/project_templates/mcu/stm32_ws/src/libraries/FreeRTOS/Source/timers.c **** DaemonTaskMessage_t xMessage;
 389:/home/rdu/Workspace/project_templates/mcu/stm32_ws/src/libraries/FreeRTOS/Source/timers.c **** 
 390:/home/rdu/Workspace/project_templates/mcu/stm32_ws/src/libraries/FreeRTOS/Source/timers.c **** 	configASSERT( xTimer );
 317              		.loc 1 390 0
 318 0010 039B     		ldr	r3, [sp, #12]
 319 0012 002B     		cmp	r3, #0
 320 0014 09D1     		bne	.L17
 321              	.LBB34:
 322              	.LBB35:
 323              		.loc 2 195 0 discriminator 1
 324              		.syntax unified
 325              	@ 195 "/home/rdu/Workspace/project_templates/mcu/stm32_ws/src/libraries/FreeRTOS/Source/portable/GC
 326 0016 4FF05003 			mov r3, #80												
 327 001a 83F31188 		msr basepri, r3											
 328 001e BFF36F8F 		isb														
 329 0022 BFF34F8F 		dsb														
 330              	
 331              	@ 0 "" 2
 332              		.thumb
 333              		.syntax unified
 334 0026 0893     		str	r3, [sp, #32]
 335              	.L18:
 336              	.LBE35:
 337              	.LBE34:
 338              		.loc 1 390 0 discriminator 1
 339 0028 FEE7     		b	.L18
 340              	.L17:
 391:/home/rdu/Workspace/project_templates/mcu/stm32_ws/src/libraries/FreeRTOS/Source/timers.c **** 
 392:/home/rdu/Workspace/project_templates/mcu/stm32_ws/src/libraries/FreeRTOS/Source/timers.c **** 	/* Send a message to the timer service task to perform a particular action
 393:/home/rdu/Workspace/project_templates/mcu/stm32_ws/src/libraries/FreeRTOS/Source/timers.c **** 	on a particular timer definition. */
 394:/home/rdu/Workspace/project_templates/mcu/stm32_ws/src/libraries/FreeRTOS/Source/timers.c **** 	if( xTimerQueue != NULL )
 341              		.loc 1 394 0
 342 002a 184B     		ldr	r3, .L25
 343 002c 1B68     		ldr	r3, [r3]
 344 002e 002B     		cmp	r3, #0
 345 0030 27D0     		beq	.L19
 395:/home/rdu/Workspace/project_templates/mcu/stm32_ws/src/libraries/FreeRTOS/Source/timers.c **** 	{
 396:/home/rdu/Workspace/project_templates/mcu/stm32_ws/src/libraries/FreeRTOS/Source/timers.c **** 		/* Send a command to the timer service task to start the xTimer timer. */
 397:/home/rdu/Workspace/project_templates/mcu/stm32_ws/src/libraries/FreeRTOS/Source/timers.c **** 		xMessage.xMessageID = xCommandID;
 346              		.loc 1 397 0
 347 0032 029B     		ldr	r3, [sp, #8]
 348 0034 0593     		str	r3, [sp, #20]
 398:/home/rdu/Workspace/project_templates/mcu/stm32_ws/src/libraries/FreeRTOS/Source/timers.c **** 		xMessage.u.xTimerParameters.xMessageValue = xOptionalValue;
 349              		.loc 1 398 0
 350 0036 019B     		ldr	r3, [sp, #4]
 351 0038 0693     		str	r3, [sp, #24]
 399:/home/rdu/Workspace/project_templates/mcu/stm32_ws/src/libraries/FreeRTOS/Source/timers.c **** 		xMessage.u.xTimerParameters.pxTimer = xTimer;
 352              		.loc 1 399 0
 353 003a 039B     		ldr	r3, [sp, #12]
 354 003c 0793     		str	r3, [sp, #28]
 400:/home/rdu/Workspace/project_templates/mcu/stm32_ws/src/libraries/FreeRTOS/Source/timers.c **** 
 401:/home/rdu/Workspace/project_templates/mcu/stm32_ws/src/libraries/FreeRTOS/Source/timers.c **** 		if( xCommandID < tmrFIRST_FROM_ISR_COMMAND )
 355              		.loc 1 401 0
 356 003e 029B     		ldr	r3, [sp, #8]
 357 0040 052B     		cmp	r3, #5
 358 0042 16DC     		bgt	.L20
 402:/home/rdu/Workspace/project_templates/mcu/stm32_ws/src/libraries/FreeRTOS/Source/timers.c **** 		{
 403:/home/rdu/Workspace/project_templates/mcu/stm32_ws/src/libraries/FreeRTOS/Source/timers.c **** 			if( xTaskGetSchedulerState() == taskSCHEDULER_RUNNING )
 359              		.loc 1 403 0
 360 0044 FFF7FEFF 		bl	xTaskGetSchedulerState
 361 0048 0346     		mov	r3, r0
 362 004a 022B     		cmp	r3, #2
 363 004c 08D1     		bne	.L21
 404:/home/rdu/Workspace/project_templates/mcu/stm32_ws/src/libraries/FreeRTOS/Source/timers.c **** 			{
 405:/home/rdu/Workspace/project_templates/mcu/stm32_ws/src/libraries/FreeRTOS/Source/timers.c **** 				xReturn = xQueueSendToBack( xTimerQueue, &xMessage, xTicksToWait );
 364              		.loc 1 405 0
 365 004e 0F4B     		ldr	r3, .L25
 366 0050 1868     		ldr	r0, [r3]
 367 0052 05A9     		add	r1, sp, #20
 368 0054 0023     		movs	r3, #0
 369 0056 0C9A     		ldr	r2, [sp, #48]
 370 0058 FFF7FEFF 		bl	xQueueGenericSend
 371 005c 0990     		str	r0, [sp, #36]
 372 005e 10E0     		b	.L19
 373              	.L21:
 406:/home/rdu/Workspace/project_templates/mcu/stm32_ws/src/libraries/FreeRTOS/Source/timers.c **** 			}
 407:/home/rdu/Workspace/project_templates/mcu/stm32_ws/src/libraries/FreeRTOS/Source/timers.c **** 			else
 408:/home/rdu/Workspace/project_templates/mcu/stm32_ws/src/libraries/FreeRTOS/Source/timers.c **** 			{
 409:/home/rdu/Workspace/project_templates/mcu/stm32_ws/src/libraries/FreeRTOS/Source/timers.c **** 				xReturn = xQueueSendToBack( xTimerQueue, &xMessage, tmrNO_DELAY );
 374              		.loc 1 409 0
 375 0060 0A4B     		ldr	r3, .L25
 376 0062 1868     		ldr	r0, [r3]
 377 0064 05A9     		add	r1, sp, #20
 378 0066 0023     		movs	r3, #0
 379 0068 0022     		movs	r2, #0
 380 006a FFF7FEFF 		bl	xQueueGenericSend
 381 006e 0990     		str	r0, [sp, #36]
 382 0070 07E0     		b	.L19
 383              	.L20:
 410:/home/rdu/Workspace/project_templates/mcu/stm32_ws/src/libraries/FreeRTOS/Source/timers.c **** 			}
 411:/home/rdu/Workspace/project_templates/mcu/stm32_ws/src/libraries/FreeRTOS/Source/timers.c **** 		}
 412:/home/rdu/Workspace/project_templates/mcu/stm32_ws/src/libraries/FreeRTOS/Source/timers.c **** 		else
 413:/home/rdu/Workspace/project_templates/mcu/stm32_ws/src/libraries/FreeRTOS/Source/timers.c **** 		{
 414:/home/rdu/Workspace/project_templates/mcu/stm32_ws/src/libraries/FreeRTOS/Source/timers.c **** 			xReturn = xQueueSendToBackFromISR( xTimerQueue, &xMessage, pxHigherPriorityTaskWoken );
 384              		.loc 1 414 0
 385 0072 064B     		ldr	r3, .L25
 386 0074 1868     		ldr	r0, [r3]
 387 0076 05A9     		add	r1, sp, #20
 388 0078 0023     		movs	r3, #0
 389 007a 009A     		ldr	r2, [sp]
 390 007c FFF7FEFF 		bl	xQueueGenericSendFromISR
 391 0080 0990     		str	r0, [sp, #36]
 392              	.L19:
 415:/home/rdu/Workspace/project_templates/mcu/stm32_ws/src/libraries/FreeRTOS/Source/timers.c **** 		}
 416:/home/rdu/Workspace/project_templates/mcu/stm32_ws/src/libraries/FreeRTOS/Source/timers.c **** 
 417:/home/rdu/Workspace/project_templates/mcu/stm32_ws/src/libraries/FreeRTOS/Source/timers.c **** 		traceTIMER_COMMAND_SEND( xTimer, xCommandID, xOptionalValue, xReturn );
 418:/home/rdu/Workspace/project_templates/mcu/stm32_ws/src/libraries/FreeRTOS/Source/timers.c **** 	}
 419:/home/rdu/Workspace/project_templates/mcu/stm32_ws/src/libraries/FreeRTOS/Source/timers.c **** 	else
 420:/home/rdu/Workspace/project_templates/mcu/stm32_ws/src/libraries/FreeRTOS/Source/timers.c **** 	{
 421:/home/rdu/Workspace/project_templates/mcu/stm32_ws/src/libraries/FreeRTOS/Source/timers.c **** 		mtCOVERAGE_TEST_MARKER();
 422:/home/rdu/Workspace/project_templates/mcu/stm32_ws/src/libraries/FreeRTOS/Source/timers.c **** 	}
 423:/home/rdu/Workspace/project_templates/mcu/stm32_ws/src/libraries/FreeRTOS/Source/timers.c **** 
 424:/home/rdu/Workspace/project_templates/mcu/stm32_ws/src/libraries/FreeRTOS/Source/timers.c **** 	return xReturn;
 393              		.loc 1 424 0
 394 0082 099B     		ldr	r3, [sp, #36]
 425:/home/rdu/Workspace/project_templates/mcu/stm32_ws/src/libraries/FreeRTOS/Source/timers.c **** }
 395              		.loc 1 425 0
 396 0084 1846     		mov	r0, r3
 397 0086 0BB0     		add	sp, sp, #44
 398              	.LCFI11:
 399              		.cfi_def_cfa_offset 4
 400              		@ sp needed
 401 0088 5DF804FB 		ldr	pc, [sp], #4
 402              	.L26:
 403              		.align	2
 404              	.L25:
 405 008c 00000000 		.word	xTimerQueue
 406              		.cfi_endproc
 407              	.LFE8:
 409              		.section	.text.xTimerGetTimerDaemonTaskHandle,"ax",%progbits
 410              		.align	1
 411              		.global	xTimerGetTimerDaemonTaskHandle
 412              		.syntax unified
 413              		.thumb
 414              		.thumb_func
 415              		.fpu fpv4-sp-d16
 417              	xTimerGetTimerDaemonTaskHandle:
 418              	.LFB9:
 426:/home/rdu/Workspace/project_templates/mcu/stm32_ws/src/libraries/FreeRTOS/Source/timers.c **** /*-----------------------------------------------------------*/
 427:/home/rdu/Workspace/project_templates/mcu/stm32_ws/src/libraries/FreeRTOS/Source/timers.c **** 
 428:/home/rdu/Workspace/project_templates/mcu/stm32_ws/src/libraries/FreeRTOS/Source/timers.c **** TaskHandle_t xTimerGetTimerDaemonTaskHandle( void )
 429:/home/rdu/Workspace/project_templates/mcu/stm32_ws/src/libraries/FreeRTOS/Source/timers.c **** {
 419              		.loc 1 429 0
 420              		.cfi_startproc
 421              		@ args = 0, pretend = 0, frame = 8
 422              		@ frame_needed = 0, uses_anonymous_args = 0
 423              		@ link register save eliminated.
 424 0000 82B0     		sub	sp, sp, #8
 425              	.LCFI12:
 426              		.cfi_def_cfa_offset 8
 430:/home/rdu/Workspace/project_templates/mcu/stm32_ws/src/libraries/FreeRTOS/Source/timers.c **** 	/* If xTimerGetTimerDaemonTaskHandle() is called before the scheduler has been
 431:/home/rdu/Workspace/project_templates/mcu/stm32_ws/src/libraries/FreeRTOS/Source/timers.c **** 	started, then xTimerTaskHandle will be NULL. */
 432:/home/rdu/Workspace/project_templates/mcu/stm32_ws/src/libraries/FreeRTOS/Source/timers.c **** 	configASSERT( ( xTimerTaskHandle != NULL ) );
 427              		.loc 1 432 0
 428 0002 094B     		ldr	r3, .L31
 429 0004 1B68     		ldr	r3, [r3]
 430 0006 002B     		cmp	r3, #0
 431 0008 09D1     		bne	.L28
 432              	.LBB36:
 433              	.LBB37:
 434              		.loc 2 195 0 discriminator 1
 435              		.syntax unified
 436              	@ 195 "/home/rdu/Workspace/project_templates/mcu/stm32_ws/src/libraries/FreeRTOS/Source/portable/GC
 437 000a 4FF05003 			mov r3, #80												
 438 000e 83F31188 		msr basepri, r3											
 439 0012 BFF36F8F 		isb														
 440 0016 BFF34F8F 		dsb														
 441              	
 442              	@ 0 "" 2
 443              		.thumb
 444              		.syntax unified
 445 001a 0193     		str	r3, [sp, #4]
 446              	.L29:
 447              	.LBE37:
 448              	.LBE36:
 449              		.loc 1 432 0 discriminator 1
 450 001c FEE7     		b	.L29
 451              	.L28:
 433:/home/rdu/Workspace/project_templates/mcu/stm32_ws/src/libraries/FreeRTOS/Source/timers.c **** 	return xTimerTaskHandle;
 452              		.loc 1 433 0
 453 001e 024B     		ldr	r3, .L31
 454 0020 1B68     		ldr	r3, [r3]
 434:/home/rdu/Workspace/project_templates/mcu/stm32_ws/src/libraries/FreeRTOS/Source/timers.c **** }
 455              		.loc 1 434 0
 456 0022 1846     		mov	r0, r3
 457 0024 02B0     		add	sp, sp, #8
 458              	.LCFI13:
 459              		.cfi_def_cfa_offset 0
 460              		@ sp needed
 461 0026 7047     		bx	lr
 462              	.L32:
 463              		.align	2
 464              	.L31:
 465 0028 00000000 		.word	xTimerTaskHandle
 466              		.cfi_endproc
 467              	.LFE9:
 469              		.section	.text.xTimerGetPeriod,"ax",%progbits
 470              		.align	1
 471              		.global	xTimerGetPeriod
 472              		.syntax unified
 473              		.thumb
 474              		.thumb_func
 475              		.fpu fpv4-sp-d16
 477              	xTimerGetPeriod:
 478              	.LFB10:
 435:/home/rdu/Workspace/project_templates/mcu/stm32_ws/src/libraries/FreeRTOS/Source/timers.c **** /*-----------------------------------------------------------*/
 436:/home/rdu/Workspace/project_templates/mcu/stm32_ws/src/libraries/FreeRTOS/Source/timers.c **** 
 437:/home/rdu/Workspace/project_templates/mcu/stm32_ws/src/libraries/FreeRTOS/Source/timers.c **** TickType_t xTimerGetPeriod( TimerHandle_t xTimer )
 438:/home/rdu/Workspace/project_templates/mcu/stm32_ws/src/libraries/FreeRTOS/Source/timers.c **** {
 479              		.loc 1 438 0
 480              		.cfi_startproc
 481              		@ args = 0, pretend = 0, frame = 16
 482              		@ frame_needed = 0, uses_anonymous_args = 0
 483              		@ link register save eliminated.
 484 0000 84B0     		sub	sp, sp, #16
 485              	.LCFI14:
 486              		.cfi_def_cfa_offset 16
 487 0002 0190     		str	r0, [sp, #4]
 439:/home/rdu/Workspace/project_templates/mcu/stm32_ws/src/libraries/FreeRTOS/Source/timers.c **** Timer_t *pxTimer = xTimer;
 488              		.loc 1 439 0
 489 0004 019B     		ldr	r3, [sp, #4]
 490 0006 0393     		str	r3, [sp, #12]
 440:/home/rdu/Workspace/project_templates/mcu/stm32_ws/src/libraries/FreeRTOS/Source/timers.c **** 
 441:/home/rdu/Workspace/project_templates/mcu/stm32_ws/src/libraries/FreeRTOS/Source/timers.c **** 	configASSERT( xTimer );
 491              		.loc 1 441 0
 492 0008 019B     		ldr	r3, [sp, #4]
 493 000a 002B     		cmp	r3, #0
 494 000c 09D1     		bne	.L34
 495              	.LBB38:
 496              	.LBB39:
 497              		.loc 2 195 0 discriminator 1
 498              		.syntax unified
 499              	@ 195 "/home/rdu/Workspace/project_templates/mcu/stm32_ws/src/libraries/FreeRTOS/Source/portable/GC
 500 000e 4FF05003 			mov r3, #80												
 501 0012 83F31188 		msr basepri, r3											
 502 0016 BFF36F8F 		isb														
 503 001a BFF34F8F 		dsb														
 504              	
 505              	@ 0 "" 2
 506              		.thumb
 507              		.syntax unified
 508 001e 0293     		str	r3, [sp, #8]
 509              	.L35:
 510              	.LBE39:
 511              	.LBE38:
 512              		.loc 1 441 0 discriminator 1
 513 0020 FEE7     		b	.L35
 514              	.L34:
 442:/home/rdu/Workspace/project_templates/mcu/stm32_ws/src/libraries/FreeRTOS/Source/timers.c **** 	return pxTimer->xTimerPeriodInTicks;
 515              		.loc 1 442 0
 516 0022 039B     		ldr	r3, [sp, #12]
 517 0024 9B69     		ldr	r3, [r3, #24]
 443:/home/rdu/Workspace/project_templates/mcu/stm32_ws/src/libraries/FreeRTOS/Source/timers.c **** }
 518              		.loc 1 443 0
 519 0026 1846     		mov	r0, r3
 520 0028 04B0     		add	sp, sp, #16
 521              	.LCFI15:
 522              		.cfi_def_cfa_offset 0
 523              		@ sp needed
 524 002a 7047     		bx	lr
 525              		.cfi_endproc
 526              	.LFE10:
 528              		.section	.text.xTimerGetExpiryTime,"ax",%progbits
 529              		.align	1
 530              		.global	xTimerGetExpiryTime
 531              		.syntax unified
 532              		.thumb
 533              		.thumb_func
 534              		.fpu fpv4-sp-d16
 536              	xTimerGetExpiryTime:
 537              	.LFB11:
 444:/home/rdu/Workspace/project_templates/mcu/stm32_ws/src/libraries/FreeRTOS/Source/timers.c **** /*-----------------------------------------------------------*/
 445:/home/rdu/Workspace/project_templates/mcu/stm32_ws/src/libraries/FreeRTOS/Source/timers.c **** 
 446:/home/rdu/Workspace/project_templates/mcu/stm32_ws/src/libraries/FreeRTOS/Source/timers.c **** TickType_t xTimerGetExpiryTime( TimerHandle_t xTimer )
 447:/home/rdu/Workspace/project_templates/mcu/stm32_ws/src/libraries/FreeRTOS/Source/timers.c **** {
 538              		.loc 1 447 0
 539              		.cfi_startproc
 540              		@ args = 0, pretend = 0, frame = 24
 541              		@ frame_needed = 0, uses_anonymous_args = 0
 542              		@ link register save eliminated.
 543 0000 86B0     		sub	sp, sp, #24
 544              	.LCFI16:
 545              		.cfi_def_cfa_offset 24
 546 0002 0190     		str	r0, [sp, #4]
 448:/home/rdu/Workspace/project_templates/mcu/stm32_ws/src/libraries/FreeRTOS/Source/timers.c **** Timer_t * pxTimer =  xTimer;
 547              		.loc 1 448 0
 548 0004 019B     		ldr	r3, [sp, #4]
 549 0006 0593     		str	r3, [sp, #20]
 449:/home/rdu/Workspace/project_templates/mcu/stm32_ws/src/libraries/FreeRTOS/Source/timers.c **** TickType_t xReturn;
 450:/home/rdu/Workspace/project_templates/mcu/stm32_ws/src/libraries/FreeRTOS/Source/timers.c **** 
 451:/home/rdu/Workspace/project_templates/mcu/stm32_ws/src/libraries/FreeRTOS/Source/timers.c **** 	configASSERT( xTimer );
 550              		.loc 1 451 0
 551 0008 019B     		ldr	r3, [sp, #4]
 552 000a 002B     		cmp	r3, #0
 553 000c 09D1     		bne	.L38
 554              	.LBB40:
 555              	.LBB41:
 556              		.loc 2 195 0 discriminator 1
 557              		.syntax unified
 558              	@ 195 "/home/rdu/Workspace/project_templates/mcu/stm32_ws/src/libraries/FreeRTOS/Source/portable/GC
 559 000e 4FF05003 			mov r3, #80												
 560 0012 83F31188 		msr basepri, r3											
 561 0016 BFF36F8F 		isb														
 562 001a BFF34F8F 		dsb														
 563              	
 564              	@ 0 "" 2
 565              		.thumb
 566              		.syntax unified
 567 001e 0393     		str	r3, [sp, #12]
 568              	.L39:
 569              	.LBE41:
 570              	.LBE40:
 571              		.loc 1 451 0 discriminator 1
 572 0020 FEE7     		b	.L39
 573              	.L38:
 452:/home/rdu/Workspace/project_templates/mcu/stm32_ws/src/libraries/FreeRTOS/Source/timers.c **** 	xReturn = listGET_LIST_ITEM_VALUE( &( pxTimer->xTimerListItem ) );
 574              		.loc 1 452 0
 575 0022 059B     		ldr	r3, [sp, #20]
 576 0024 5B68     		ldr	r3, [r3, #4]
 577 0026 0493     		str	r3, [sp, #16]
 453:/home/rdu/Workspace/project_templates/mcu/stm32_ws/src/libraries/FreeRTOS/Source/timers.c **** 	return xReturn;
 578              		.loc 1 453 0
 579 0028 049B     		ldr	r3, [sp, #16]
 454:/home/rdu/Workspace/project_templates/mcu/stm32_ws/src/libraries/FreeRTOS/Source/timers.c **** }
 580              		.loc 1 454 0
 581 002a 1846     		mov	r0, r3
 582 002c 06B0     		add	sp, sp, #24
 583              	.LCFI17:
 584              		.cfi_def_cfa_offset 0
 585              		@ sp needed
 586 002e 7047     		bx	lr
 587              		.cfi_endproc
 588              	.LFE11:
 590              		.section	.text.pcTimerGetName,"ax",%progbits
 591              		.align	1
 592              		.global	pcTimerGetName
 593              		.syntax unified
 594              		.thumb
 595              		.thumb_func
 596              		.fpu fpv4-sp-d16
 598              	pcTimerGetName:
 599              	.LFB12:
 455:/home/rdu/Workspace/project_templates/mcu/stm32_ws/src/libraries/FreeRTOS/Source/timers.c **** /*-----------------------------------------------------------*/
 456:/home/rdu/Workspace/project_templates/mcu/stm32_ws/src/libraries/FreeRTOS/Source/timers.c **** 
 457:/home/rdu/Workspace/project_templates/mcu/stm32_ws/src/libraries/FreeRTOS/Source/timers.c **** const char * pcTimerGetName( TimerHandle_t xTimer ) /*lint !e971 Unqualified char types are allowed
 458:/home/rdu/Workspace/project_templates/mcu/stm32_ws/src/libraries/FreeRTOS/Source/timers.c **** {
 600              		.loc 1 458 0
 601              		.cfi_startproc
 602              		@ args = 0, pretend = 0, frame = 16
 603              		@ frame_needed = 0, uses_anonymous_args = 0
 604              		@ link register save eliminated.
 605 0000 84B0     		sub	sp, sp, #16
 606              	.LCFI18:
 607              		.cfi_def_cfa_offset 16
 608 0002 0190     		str	r0, [sp, #4]
 459:/home/rdu/Workspace/project_templates/mcu/stm32_ws/src/libraries/FreeRTOS/Source/timers.c **** Timer_t *pxTimer = xTimer;
 609              		.loc 1 459 0
 610 0004 019B     		ldr	r3, [sp, #4]
 611 0006 0393     		str	r3, [sp, #12]
 460:/home/rdu/Workspace/project_templates/mcu/stm32_ws/src/libraries/FreeRTOS/Source/timers.c **** 
 461:/home/rdu/Workspace/project_templates/mcu/stm32_ws/src/libraries/FreeRTOS/Source/timers.c **** 	configASSERT( xTimer );
 612              		.loc 1 461 0
 613 0008 019B     		ldr	r3, [sp, #4]
 614 000a 002B     		cmp	r3, #0
 615 000c 09D1     		bne	.L42
 616              	.LBB42:
 617              	.LBB43:
 618              		.loc 2 195 0 discriminator 1
 619              		.syntax unified
 620              	@ 195 "/home/rdu/Workspace/project_templates/mcu/stm32_ws/src/libraries/FreeRTOS/Source/portable/GC
 621 000e 4FF05003 			mov r3, #80												
 622 0012 83F31188 		msr basepri, r3											
 623 0016 BFF36F8F 		isb														
 624 001a BFF34F8F 		dsb														
 625              	
 626              	@ 0 "" 2
 627              		.thumb
 628              		.syntax unified
 629 001e 0293     		str	r3, [sp, #8]
 630              	.L43:
 631              	.LBE43:
 632              	.LBE42:
 633              		.loc 1 461 0 discriminator 1
 634 0020 FEE7     		b	.L43
 635              	.L42:
 462:/home/rdu/Workspace/project_templates/mcu/stm32_ws/src/libraries/FreeRTOS/Source/timers.c **** 	return pxTimer->pcTimerName;
 636              		.loc 1 462 0
 637 0022 039B     		ldr	r3, [sp, #12]
 638 0024 1B68     		ldr	r3, [r3]
 463:/home/rdu/Workspace/project_templates/mcu/stm32_ws/src/libraries/FreeRTOS/Source/timers.c **** }
 639              		.loc 1 463 0
 640 0026 1846     		mov	r0, r3
 641 0028 04B0     		add	sp, sp, #16
 642              	.LCFI19:
 643              		.cfi_def_cfa_offset 0
 644              		@ sp needed
 645 002a 7047     		bx	lr
 646              		.cfi_endproc
 647              	.LFE12:
 649              		.section	.text.prvProcessExpiredTimer,"ax",%progbits
 650              		.align	1
 651              		.syntax unified
 652              		.thumb
 653              		.thumb_func
 654              		.fpu fpv4-sp-d16
 656              	prvProcessExpiredTimer:
 657              	.LFB13:
 464:/home/rdu/Workspace/project_templates/mcu/stm32_ws/src/libraries/FreeRTOS/Source/timers.c **** /*-----------------------------------------------------------*/
 465:/home/rdu/Workspace/project_templates/mcu/stm32_ws/src/libraries/FreeRTOS/Source/timers.c **** 
 466:/home/rdu/Workspace/project_templates/mcu/stm32_ws/src/libraries/FreeRTOS/Source/timers.c **** static void prvProcessExpiredTimer( const TickType_t xNextExpireTime, const TickType_t xTimeNow )
 467:/home/rdu/Workspace/project_templates/mcu/stm32_ws/src/libraries/FreeRTOS/Source/timers.c **** {
 658              		.loc 1 467 0
 659              		.cfi_startproc
 660              		@ args = 0, pretend = 0, frame = 24
 661              		@ frame_needed = 0, uses_anonymous_args = 0
 662 0000 00B5     		push	{lr}
 663              	.LCFI20:
 664              		.cfi_def_cfa_offset 4
 665              		.cfi_offset 14, -4
 666 0002 89B0     		sub	sp, sp, #36
 667              	.LCFI21:
 668              		.cfi_def_cfa_offset 40
 669 0004 0390     		str	r0, [sp, #12]
 670 0006 0291     		str	r1, [sp, #8]
 468:/home/rdu/Workspace/project_templates/mcu/stm32_ws/src/libraries/FreeRTOS/Source/timers.c **** BaseType_t xResult;
 469:/home/rdu/Workspace/project_templates/mcu/stm32_ws/src/libraries/FreeRTOS/Source/timers.c **** Timer_t * const pxTimer = ( Timer_t * ) listGET_OWNER_OF_HEAD_ENTRY( pxCurrentTimerList ); /*lint !
 671              		.loc 1 469 0
 672 0008 1B4B     		ldr	r3, .L48
 673 000a 1B68     		ldr	r3, [r3]
 674 000c DB68     		ldr	r3, [r3, #12]
 675 000e DB68     		ldr	r3, [r3, #12]
 676 0010 0793     		str	r3, [sp, #28]
 470:/home/rdu/Workspace/project_templates/mcu/stm32_ws/src/libraries/FreeRTOS/Source/timers.c **** 
 471:/home/rdu/Workspace/project_templates/mcu/stm32_ws/src/libraries/FreeRTOS/Source/timers.c **** 	/* Remove the timer from the list of active timers.  A check has already
 472:/home/rdu/Workspace/project_templates/mcu/stm32_ws/src/libraries/FreeRTOS/Source/timers.c **** 	been performed to ensure the list is not empty. */
 473:/home/rdu/Workspace/project_templates/mcu/stm32_ws/src/libraries/FreeRTOS/Source/timers.c **** 	( void ) uxListRemove( &( pxTimer->xTimerListItem ) );
 677              		.loc 1 473 0
 678 0012 079B     		ldr	r3, [sp, #28]
 679 0014 0433     		adds	r3, r3, #4
 680 0016 1846     		mov	r0, r3
 681 0018 FFF7FEFF 		bl	uxListRemove
 474:/home/rdu/Workspace/project_templates/mcu/stm32_ws/src/libraries/FreeRTOS/Source/timers.c **** 	traceTIMER_EXPIRED( pxTimer );
 475:/home/rdu/Workspace/project_templates/mcu/stm32_ws/src/libraries/FreeRTOS/Source/timers.c **** 
 476:/home/rdu/Workspace/project_templates/mcu/stm32_ws/src/libraries/FreeRTOS/Source/timers.c **** 	/* If the timer is an auto reload timer then calculate the next
 477:/home/rdu/Workspace/project_templates/mcu/stm32_ws/src/libraries/FreeRTOS/Source/timers.c **** 	expiry time and re-insert the timer in the list of active timers. */
 478:/home/rdu/Workspace/project_templates/mcu/stm32_ws/src/libraries/FreeRTOS/Source/timers.c **** 	if( pxTimer->uxAutoReload == ( UBaseType_t ) pdTRUE )
 682              		.loc 1 478 0
 683 001c 079B     		ldr	r3, [sp, #28]
 684 001e DB69     		ldr	r3, [r3, #28]
 685 0020 012B     		cmp	r3, #1
 686 0022 21D1     		bne	.L46
 479:/home/rdu/Workspace/project_templates/mcu/stm32_ws/src/libraries/FreeRTOS/Source/timers.c **** 	{
 480:/home/rdu/Workspace/project_templates/mcu/stm32_ws/src/libraries/FreeRTOS/Source/timers.c **** 		/* The timer is inserted into a list using a time relative to anything
 481:/home/rdu/Workspace/project_templates/mcu/stm32_ws/src/libraries/FreeRTOS/Source/timers.c **** 		other than the current time.  It will therefore be inserted into the
 482:/home/rdu/Workspace/project_templates/mcu/stm32_ws/src/libraries/FreeRTOS/Source/timers.c **** 		correct list relative to the time this task thinks it is now. */
 483:/home/rdu/Workspace/project_templates/mcu/stm32_ws/src/libraries/FreeRTOS/Source/timers.c **** 		if( prvInsertTimerInActiveList( pxTimer, ( xNextExpireTime + pxTimer->xTimerPeriodInTicks ), xTim
 687              		.loc 1 483 0
 688 0024 079B     		ldr	r3, [sp, #28]
 689 0026 9A69     		ldr	r2, [r3, #24]
 690 0028 039B     		ldr	r3, [sp, #12]
 691 002a D118     		adds	r1, r2, r3
 692 002c 039B     		ldr	r3, [sp, #12]
 693 002e 029A     		ldr	r2, [sp, #8]
 694 0030 0798     		ldr	r0, [sp, #28]
 695 0032 FFF7FEFF 		bl	prvInsertTimerInActiveList
 696 0036 0346     		mov	r3, r0
 697 0038 002B     		cmp	r3, #0
 698 003a 15D0     		beq	.L46
 484:/home/rdu/Workspace/project_templates/mcu/stm32_ws/src/libraries/FreeRTOS/Source/timers.c **** 		{
 485:/home/rdu/Workspace/project_templates/mcu/stm32_ws/src/libraries/FreeRTOS/Source/timers.c **** 			/* The timer expired before it was added to the active timer
 486:/home/rdu/Workspace/project_templates/mcu/stm32_ws/src/libraries/FreeRTOS/Source/timers.c **** 			list.  Reload it now.  */
 487:/home/rdu/Workspace/project_templates/mcu/stm32_ws/src/libraries/FreeRTOS/Source/timers.c **** 			xResult = xTimerGenericCommand( pxTimer, tmrCOMMAND_START_DONT_TRACE, xNextExpireTime, NULL, tmr
 699              		.loc 1 487 0
 700 003c 0023     		movs	r3, #0
 701 003e 0093     		str	r3, [sp]
 702 0040 0023     		movs	r3, #0
 703 0042 039A     		ldr	r2, [sp, #12]
 704 0044 0021     		movs	r1, #0
 705 0046 0798     		ldr	r0, [sp, #28]
 706 0048 FFF7FEFF 		bl	xTimerGenericCommand
 707 004c 0690     		str	r0, [sp, #24]
 488:/home/rdu/Workspace/project_templates/mcu/stm32_ws/src/libraries/FreeRTOS/Source/timers.c **** 			configASSERT( xResult );
 708              		.loc 1 488 0
 709 004e 069B     		ldr	r3, [sp, #24]
 710 0050 002B     		cmp	r3, #0
 711 0052 09D1     		bne	.L46
 712              	.LBB44:
 713              	.LBB45:
 714              		.loc 2 195 0 discriminator 1
 715              		.syntax unified
 716              	@ 195 "/home/rdu/Workspace/project_templates/mcu/stm32_ws/src/libraries/FreeRTOS/Source/portable/GC
 717 0054 4FF05003 			mov r3, #80												
 718 0058 83F31188 		msr basepri, r3											
 719 005c BFF36F8F 		isb														
 720 0060 BFF34F8F 		dsb														
 721              	
 722              	@ 0 "" 2
 723              		.thumb
 724              		.syntax unified
 725 0064 0593     		str	r3, [sp, #20]
 726              	.L47:
 727              	.LBE45:
 728              	.LBE44:
 729              		.loc 1 488 0 discriminator 1
 730 0066 FEE7     		b	.L47
 731              	.L46:
 489:/home/rdu/Workspace/project_templates/mcu/stm32_ws/src/libraries/FreeRTOS/Source/timers.c **** 			( void ) xResult;
 490:/home/rdu/Workspace/project_templates/mcu/stm32_ws/src/libraries/FreeRTOS/Source/timers.c **** 		}
 491:/home/rdu/Workspace/project_templates/mcu/stm32_ws/src/libraries/FreeRTOS/Source/timers.c **** 		else
 492:/home/rdu/Workspace/project_templates/mcu/stm32_ws/src/libraries/FreeRTOS/Source/timers.c **** 		{
 493:/home/rdu/Workspace/project_templates/mcu/stm32_ws/src/libraries/FreeRTOS/Source/timers.c **** 			mtCOVERAGE_TEST_MARKER();
 494:/home/rdu/Workspace/project_templates/mcu/stm32_ws/src/libraries/FreeRTOS/Source/timers.c **** 		}
 495:/home/rdu/Workspace/project_templates/mcu/stm32_ws/src/libraries/FreeRTOS/Source/timers.c **** 	}
 496:/home/rdu/Workspace/project_templates/mcu/stm32_ws/src/libraries/FreeRTOS/Source/timers.c **** 	else
 497:/home/rdu/Workspace/project_templates/mcu/stm32_ws/src/libraries/FreeRTOS/Source/timers.c **** 	{
 498:/home/rdu/Workspace/project_templates/mcu/stm32_ws/src/libraries/FreeRTOS/Source/timers.c **** 		mtCOVERAGE_TEST_MARKER();
 499:/home/rdu/Workspace/project_templates/mcu/stm32_ws/src/libraries/FreeRTOS/Source/timers.c **** 	}
 500:/home/rdu/Workspace/project_templates/mcu/stm32_ws/src/libraries/FreeRTOS/Source/timers.c **** 
 501:/home/rdu/Workspace/project_templates/mcu/stm32_ws/src/libraries/FreeRTOS/Source/timers.c **** 	/* Call the timer callback. */
 502:/home/rdu/Workspace/project_templates/mcu/stm32_ws/src/libraries/FreeRTOS/Source/timers.c **** 	pxTimer->pxCallbackFunction( ( TimerHandle_t ) pxTimer );
 732              		.loc 1 502 0
 733 0068 079B     		ldr	r3, [sp, #28]
 734 006a 5B6A     		ldr	r3, [r3, #36]
 735 006c 0798     		ldr	r0, [sp, #28]
 736 006e 9847     		blx	r3
 737              	.LVL0:
 503:/home/rdu/Workspace/project_templates/mcu/stm32_ws/src/libraries/FreeRTOS/Source/timers.c **** }
 738              		.loc 1 503 0
 739 0070 00BF     		nop
 740 0072 09B0     		add	sp, sp, #36
 741              	.LCFI22:
 742              		.cfi_def_cfa_offset 4
 743              		@ sp needed
 744 0074 5DF804FB 		ldr	pc, [sp], #4
 745              	.L49:
 746              		.align	2
 747              	.L48:
 748 0078 00000000 		.word	pxCurrentTimerList
 749              		.cfi_endproc
 750              	.LFE13:
 752              		.section	.text.prvTimerTask,"ax",%progbits
 753              		.align	1
 754              		.syntax unified
 755              		.thumb
 756              		.thumb_func
 757              		.fpu fpv4-sp-d16
 759              	prvTimerTask:
 760              	.LFB14:
 504:/home/rdu/Workspace/project_templates/mcu/stm32_ws/src/libraries/FreeRTOS/Source/timers.c **** /*-----------------------------------------------------------*/
 505:/home/rdu/Workspace/project_templates/mcu/stm32_ws/src/libraries/FreeRTOS/Source/timers.c **** 
 506:/home/rdu/Workspace/project_templates/mcu/stm32_ws/src/libraries/FreeRTOS/Source/timers.c **** static void prvTimerTask( void *pvParameters )
 507:/home/rdu/Workspace/project_templates/mcu/stm32_ws/src/libraries/FreeRTOS/Source/timers.c **** {
 761              		.loc 1 507 0
 762              		.cfi_startproc
 763              		@ args = 0, pretend = 0, frame = 16
 764              		@ frame_needed = 0, uses_anonymous_args = 0
 765 0000 00B5     		push	{lr}
 766              	.LCFI23:
 767              		.cfi_def_cfa_offset 4
 768              		.cfi_offset 14, -4
 769 0002 85B0     		sub	sp, sp, #20
 770              	.LCFI24:
 771              		.cfi_def_cfa_offset 24
 772 0004 0190     		str	r0, [sp, #4]
 773              	.L51:
 508:/home/rdu/Workspace/project_templates/mcu/stm32_ws/src/libraries/FreeRTOS/Source/timers.c **** TickType_t xNextExpireTime;
 509:/home/rdu/Workspace/project_templates/mcu/stm32_ws/src/libraries/FreeRTOS/Source/timers.c **** BaseType_t xListWasEmpty;
 510:/home/rdu/Workspace/project_templates/mcu/stm32_ws/src/libraries/FreeRTOS/Source/timers.c **** 
 511:/home/rdu/Workspace/project_templates/mcu/stm32_ws/src/libraries/FreeRTOS/Source/timers.c **** 	/* Just to avoid compiler warnings. */
 512:/home/rdu/Workspace/project_templates/mcu/stm32_ws/src/libraries/FreeRTOS/Source/timers.c **** 	( void ) pvParameters;
 513:/home/rdu/Workspace/project_templates/mcu/stm32_ws/src/libraries/FreeRTOS/Source/timers.c **** 
 514:/home/rdu/Workspace/project_templates/mcu/stm32_ws/src/libraries/FreeRTOS/Source/timers.c **** 	#if( configUSE_DAEMON_TASK_STARTUP_HOOK == 1 )
 515:/home/rdu/Workspace/project_templates/mcu/stm32_ws/src/libraries/FreeRTOS/Source/timers.c **** 	{
 516:/home/rdu/Workspace/project_templates/mcu/stm32_ws/src/libraries/FreeRTOS/Source/timers.c **** 		extern void vApplicationDaemonTaskStartupHook( void );
 517:/home/rdu/Workspace/project_templates/mcu/stm32_ws/src/libraries/FreeRTOS/Source/timers.c **** 
 518:/home/rdu/Workspace/project_templates/mcu/stm32_ws/src/libraries/FreeRTOS/Source/timers.c **** 		/* Allow the application writer to execute some code in the context of
 519:/home/rdu/Workspace/project_templates/mcu/stm32_ws/src/libraries/FreeRTOS/Source/timers.c **** 		this task at the point the task starts executing.  This is useful if the
 520:/home/rdu/Workspace/project_templates/mcu/stm32_ws/src/libraries/FreeRTOS/Source/timers.c **** 		application includes initialisation code that would benefit from
 521:/home/rdu/Workspace/project_templates/mcu/stm32_ws/src/libraries/FreeRTOS/Source/timers.c **** 		executing after the scheduler has been started. */
 522:/home/rdu/Workspace/project_templates/mcu/stm32_ws/src/libraries/FreeRTOS/Source/timers.c **** 		vApplicationDaemonTaskStartupHook();
 523:/home/rdu/Workspace/project_templates/mcu/stm32_ws/src/libraries/FreeRTOS/Source/timers.c **** 	}
 524:/home/rdu/Workspace/project_templates/mcu/stm32_ws/src/libraries/FreeRTOS/Source/timers.c **** 	#endif /* configUSE_DAEMON_TASK_STARTUP_HOOK */
 525:/home/rdu/Workspace/project_templates/mcu/stm32_ws/src/libraries/FreeRTOS/Source/timers.c **** 
 526:/home/rdu/Workspace/project_templates/mcu/stm32_ws/src/libraries/FreeRTOS/Source/timers.c **** 	for( ;; )
 527:/home/rdu/Workspace/project_templates/mcu/stm32_ws/src/libraries/FreeRTOS/Source/timers.c **** 	{
 528:/home/rdu/Workspace/project_templates/mcu/stm32_ws/src/libraries/FreeRTOS/Source/timers.c **** 		/* Query the timers list to see if it contains any timers, and if so,
 529:/home/rdu/Workspace/project_templates/mcu/stm32_ws/src/libraries/FreeRTOS/Source/timers.c **** 		obtain the time at which the next timer will expire. */
 530:/home/rdu/Workspace/project_templates/mcu/stm32_ws/src/libraries/FreeRTOS/Source/timers.c **** 		xNextExpireTime = prvGetNextExpireTime( &xListWasEmpty );
 774              		.loc 1 530 0 discriminator 1
 775 0006 02AB     		add	r3, sp, #8
 776 0008 1846     		mov	r0, r3
 777 000a FFF7FEFF 		bl	prvGetNextExpireTime
 778 000e 0390     		str	r0, [sp, #12]
 531:/home/rdu/Workspace/project_templates/mcu/stm32_ws/src/libraries/FreeRTOS/Source/timers.c **** 
 532:/home/rdu/Workspace/project_templates/mcu/stm32_ws/src/libraries/FreeRTOS/Source/timers.c **** 		/* If a timer has expired, process it.  Otherwise, block this task
 533:/home/rdu/Workspace/project_templates/mcu/stm32_ws/src/libraries/FreeRTOS/Source/timers.c **** 		until either a timer does expire, or a command is received. */
 534:/home/rdu/Workspace/project_templates/mcu/stm32_ws/src/libraries/FreeRTOS/Source/timers.c **** 		prvProcessTimerOrBlockTask( xNextExpireTime, xListWasEmpty );
 779              		.loc 1 534 0 discriminator 1
 780 0010 029B     		ldr	r3, [sp, #8]
 781 0012 1946     		mov	r1, r3
 782 0014 0398     		ldr	r0, [sp, #12]
 783 0016 FFF7FEFF 		bl	prvProcessTimerOrBlockTask
 535:/home/rdu/Workspace/project_templates/mcu/stm32_ws/src/libraries/FreeRTOS/Source/timers.c **** 
 536:/home/rdu/Workspace/project_templates/mcu/stm32_ws/src/libraries/FreeRTOS/Source/timers.c **** 		/* Empty the command queue. */
 537:/home/rdu/Workspace/project_templates/mcu/stm32_ws/src/libraries/FreeRTOS/Source/timers.c **** 		prvProcessReceivedCommands();
 784              		.loc 1 537 0 discriminator 1
 785 001a FFF7FEFF 		bl	prvProcessReceivedCommands
 530:/home/rdu/Workspace/project_templates/mcu/stm32_ws/src/libraries/FreeRTOS/Source/timers.c **** 
 786              		.loc 1 530 0 discriminator 1
 787 001e F2E7     		b	.L51
 788              		.cfi_endproc
 789              	.LFE14:
 791              		.section	.text.prvProcessTimerOrBlockTask,"ax",%progbits
 792              		.align	1
 793              		.syntax unified
 794              		.thumb
 795              		.thumb_func
 796              		.fpu fpv4-sp-d16
 798              	prvProcessTimerOrBlockTask:
 799              	.LFB15:
 538:/home/rdu/Workspace/project_templates/mcu/stm32_ws/src/libraries/FreeRTOS/Source/timers.c **** 	}
 539:/home/rdu/Workspace/project_templates/mcu/stm32_ws/src/libraries/FreeRTOS/Source/timers.c **** }
 540:/home/rdu/Workspace/project_templates/mcu/stm32_ws/src/libraries/FreeRTOS/Source/timers.c **** /*-----------------------------------------------------------*/
 541:/home/rdu/Workspace/project_templates/mcu/stm32_ws/src/libraries/FreeRTOS/Source/timers.c **** 
 542:/home/rdu/Workspace/project_templates/mcu/stm32_ws/src/libraries/FreeRTOS/Source/timers.c **** static void prvProcessTimerOrBlockTask( const TickType_t xNextExpireTime, BaseType_t xListWasEmpty 
 543:/home/rdu/Workspace/project_templates/mcu/stm32_ws/src/libraries/FreeRTOS/Source/timers.c **** {
 800              		.loc 1 543 0
 801              		.cfi_startproc
 802              		@ args = 0, pretend = 0, frame = 16
 803              		@ frame_needed = 0, uses_anonymous_args = 0
 804 0000 00B5     		push	{lr}
 805              	.LCFI25:
 806              		.cfi_def_cfa_offset 4
 807              		.cfi_offset 14, -4
 808 0002 85B0     		sub	sp, sp, #20
 809              	.LCFI26:
 810              		.cfi_def_cfa_offset 24
 811 0004 0190     		str	r0, [sp, #4]
 812 0006 0091     		str	r1, [sp]
 544:/home/rdu/Workspace/project_templates/mcu/stm32_ws/src/libraries/FreeRTOS/Source/timers.c **** TickType_t xTimeNow;
 545:/home/rdu/Workspace/project_templates/mcu/stm32_ws/src/libraries/FreeRTOS/Source/timers.c **** BaseType_t xTimerListsWereSwitched;
 546:/home/rdu/Workspace/project_templates/mcu/stm32_ws/src/libraries/FreeRTOS/Source/timers.c **** 
 547:/home/rdu/Workspace/project_templates/mcu/stm32_ws/src/libraries/FreeRTOS/Source/timers.c **** 	vTaskSuspendAll();
 813              		.loc 1 547 0
 814 0008 FFF7FEFF 		bl	vTaskSuspendAll
 548:/home/rdu/Workspace/project_templates/mcu/stm32_ws/src/libraries/FreeRTOS/Source/timers.c **** 	{
 549:/home/rdu/Workspace/project_templates/mcu/stm32_ws/src/libraries/FreeRTOS/Source/timers.c **** 		/* Obtain the time now to make an assessment as to whether the timer
 550:/home/rdu/Workspace/project_templates/mcu/stm32_ws/src/libraries/FreeRTOS/Source/timers.c **** 		has expired or not.  If obtaining the time causes the lists to switch
 551:/home/rdu/Workspace/project_templates/mcu/stm32_ws/src/libraries/FreeRTOS/Source/timers.c **** 		then don't process this timer as any timers that remained in the list
 552:/home/rdu/Workspace/project_templates/mcu/stm32_ws/src/libraries/FreeRTOS/Source/timers.c **** 		when the lists were switched will have been processed within the
 553:/home/rdu/Workspace/project_templates/mcu/stm32_ws/src/libraries/FreeRTOS/Source/timers.c **** 		prvSampleTimeNow() function. */
 554:/home/rdu/Workspace/project_templates/mcu/stm32_ws/src/libraries/FreeRTOS/Source/timers.c **** 		xTimeNow = prvSampleTimeNow( &xTimerListsWereSwitched );
 815              		.loc 1 554 0
 816 000c 02AB     		add	r3, sp, #8
 817 000e 1846     		mov	r0, r3
 818 0010 FFF7FEFF 		bl	prvSampleTimeNow
 819 0014 0390     		str	r0, [sp, #12]
 555:/home/rdu/Workspace/project_templates/mcu/stm32_ws/src/libraries/FreeRTOS/Source/timers.c **** 		if( xTimerListsWereSwitched == pdFALSE )
 820              		.loc 1 555 0
 821 0016 029B     		ldr	r3, [sp, #8]
 822 0018 002B     		cmp	r3, #0
 823 001a 30D1     		bne	.L53
 556:/home/rdu/Workspace/project_templates/mcu/stm32_ws/src/libraries/FreeRTOS/Source/timers.c **** 		{
 557:/home/rdu/Workspace/project_templates/mcu/stm32_ws/src/libraries/FreeRTOS/Source/timers.c **** 			/* The tick count has not overflowed, has the timer expired? */
 558:/home/rdu/Workspace/project_templates/mcu/stm32_ws/src/libraries/FreeRTOS/Source/timers.c **** 			if( ( xListWasEmpty == pdFALSE ) && ( xNextExpireTime <= xTimeNow ) )
 824              		.loc 1 558 0
 825 001c 009B     		ldr	r3, [sp]
 826 001e 002B     		cmp	r3, #0
 827 0020 0AD1     		bne	.L54
 828              		.loc 1 558 0 is_stmt 0 discriminator 1
 829 0022 019A     		ldr	r2, [sp, #4]
 830 0024 039B     		ldr	r3, [sp, #12]
 831 0026 9A42     		cmp	r2, r3
 832 0028 06D8     		bhi	.L54
 559:/home/rdu/Workspace/project_templates/mcu/stm32_ws/src/libraries/FreeRTOS/Source/timers.c **** 			{
 560:/home/rdu/Workspace/project_templates/mcu/stm32_ws/src/libraries/FreeRTOS/Source/timers.c **** 				( void ) xTaskResumeAll();
 833              		.loc 1 560 0 is_stmt 1
 834 002a FFF7FEFF 		bl	xTaskResumeAll
 561:/home/rdu/Workspace/project_templates/mcu/stm32_ws/src/libraries/FreeRTOS/Source/timers.c **** 				prvProcessExpiredTimer( xNextExpireTime, xTimeNow );
 835              		.loc 1 561 0
 836 002e 0399     		ldr	r1, [sp, #12]
 837 0030 0198     		ldr	r0, [sp, #4]
 838 0032 FFF7FEFF 		bl	prvProcessExpiredTimer
 562:/home/rdu/Workspace/project_templates/mcu/stm32_ws/src/libraries/FreeRTOS/Source/timers.c **** 			}
 563:/home/rdu/Workspace/project_templates/mcu/stm32_ws/src/libraries/FreeRTOS/Source/timers.c **** 			else
 564:/home/rdu/Workspace/project_templates/mcu/stm32_ws/src/libraries/FreeRTOS/Source/timers.c **** 			{
 565:/home/rdu/Workspace/project_templates/mcu/stm32_ws/src/libraries/FreeRTOS/Source/timers.c **** 				/* The tick count has not overflowed, and the next expire
 566:/home/rdu/Workspace/project_templates/mcu/stm32_ws/src/libraries/FreeRTOS/Source/timers.c **** 				time has not been reached yet.  This task should therefore
 567:/home/rdu/Workspace/project_templates/mcu/stm32_ws/src/libraries/FreeRTOS/Source/timers.c **** 				block to wait for the next expire time or a command to be
 568:/home/rdu/Workspace/project_templates/mcu/stm32_ws/src/libraries/FreeRTOS/Source/timers.c **** 				received - whichever comes first.  The following line cannot
 569:/home/rdu/Workspace/project_templates/mcu/stm32_ws/src/libraries/FreeRTOS/Source/timers.c **** 				be reached unless xNextExpireTime > xTimeNow, except in the
 570:/home/rdu/Workspace/project_templates/mcu/stm32_ws/src/libraries/FreeRTOS/Source/timers.c **** 				case when the current timer list is empty. */
 571:/home/rdu/Workspace/project_templates/mcu/stm32_ws/src/libraries/FreeRTOS/Source/timers.c **** 				if( xListWasEmpty != pdFALSE )
 572:/home/rdu/Workspace/project_templates/mcu/stm32_ws/src/libraries/FreeRTOS/Source/timers.c **** 				{
 573:/home/rdu/Workspace/project_templates/mcu/stm32_ws/src/libraries/FreeRTOS/Source/timers.c **** 					/* The current timer list is empty - is the overflow list
 574:/home/rdu/Workspace/project_templates/mcu/stm32_ws/src/libraries/FreeRTOS/Source/timers.c **** 					also empty? */
 575:/home/rdu/Workspace/project_templates/mcu/stm32_ws/src/libraries/FreeRTOS/Source/timers.c **** 					xListWasEmpty = listLIST_IS_EMPTY( pxOverflowTimerList );
 576:/home/rdu/Workspace/project_templates/mcu/stm32_ws/src/libraries/FreeRTOS/Source/timers.c **** 				}
 577:/home/rdu/Workspace/project_templates/mcu/stm32_ws/src/libraries/FreeRTOS/Source/timers.c **** 
 578:/home/rdu/Workspace/project_templates/mcu/stm32_ws/src/libraries/FreeRTOS/Source/timers.c **** 				vQueueWaitForMessageRestricted( xTimerQueue, ( xNextExpireTime - xTimeNow ), xListWasEmpty );
 579:/home/rdu/Workspace/project_templates/mcu/stm32_ws/src/libraries/FreeRTOS/Source/timers.c **** 
 580:/home/rdu/Workspace/project_templates/mcu/stm32_ws/src/libraries/FreeRTOS/Source/timers.c **** 				if( xTaskResumeAll() == pdFALSE )
 581:/home/rdu/Workspace/project_templates/mcu/stm32_ws/src/libraries/FreeRTOS/Source/timers.c **** 				{
 582:/home/rdu/Workspace/project_templates/mcu/stm32_ws/src/libraries/FreeRTOS/Source/timers.c **** 					/* Yield to wait for either a command to arrive, or the
 583:/home/rdu/Workspace/project_templates/mcu/stm32_ws/src/libraries/FreeRTOS/Source/timers.c **** 					block time to expire.  If a command arrived between the
 584:/home/rdu/Workspace/project_templates/mcu/stm32_ws/src/libraries/FreeRTOS/Source/timers.c **** 					critical section being exited and this yield then the yield
 585:/home/rdu/Workspace/project_templates/mcu/stm32_ws/src/libraries/FreeRTOS/Source/timers.c **** 					will not cause the task to block. */
 586:/home/rdu/Workspace/project_templates/mcu/stm32_ws/src/libraries/FreeRTOS/Source/timers.c **** 					portYIELD_WITHIN_API();
 587:/home/rdu/Workspace/project_templates/mcu/stm32_ws/src/libraries/FreeRTOS/Source/timers.c **** 				}
 588:/home/rdu/Workspace/project_templates/mcu/stm32_ws/src/libraries/FreeRTOS/Source/timers.c **** 				else
 589:/home/rdu/Workspace/project_templates/mcu/stm32_ws/src/libraries/FreeRTOS/Source/timers.c **** 				{
 590:/home/rdu/Workspace/project_templates/mcu/stm32_ws/src/libraries/FreeRTOS/Source/timers.c **** 					mtCOVERAGE_TEST_MARKER();
 591:/home/rdu/Workspace/project_templates/mcu/stm32_ws/src/libraries/FreeRTOS/Source/timers.c **** 				}
 592:/home/rdu/Workspace/project_templates/mcu/stm32_ws/src/libraries/FreeRTOS/Source/timers.c **** 			}
 593:/home/rdu/Workspace/project_templates/mcu/stm32_ws/src/libraries/FreeRTOS/Source/timers.c **** 		}
 594:/home/rdu/Workspace/project_templates/mcu/stm32_ws/src/libraries/FreeRTOS/Source/timers.c **** 		else
 595:/home/rdu/Workspace/project_templates/mcu/stm32_ws/src/libraries/FreeRTOS/Source/timers.c **** 		{
 596:/home/rdu/Workspace/project_templates/mcu/stm32_ws/src/libraries/FreeRTOS/Source/timers.c **** 			( void ) xTaskResumeAll();
 597:/home/rdu/Workspace/project_templates/mcu/stm32_ws/src/libraries/FreeRTOS/Source/timers.c **** 		}
 598:/home/rdu/Workspace/project_templates/mcu/stm32_ws/src/libraries/FreeRTOS/Source/timers.c **** 	}
 599:/home/rdu/Workspace/project_templates/mcu/stm32_ws/src/libraries/FreeRTOS/Source/timers.c **** }
 839              		.loc 1 599 0
 840 0036 24E0     		b	.L60
 841              	.L54:
 571:/home/rdu/Workspace/project_templates/mcu/stm32_ws/src/libraries/FreeRTOS/Source/timers.c **** 				{
 842              		.loc 1 571 0
 843 0038 009B     		ldr	r3, [sp]
 844 003a 002B     		cmp	r3, #0
 845 003c 08D0     		beq	.L56
 575:/home/rdu/Workspace/project_templates/mcu/stm32_ws/src/libraries/FreeRTOS/Source/timers.c **** 				}
 846              		.loc 1 575 0
 847 003e 134B     		ldr	r3, .L61
 848 0040 1B68     		ldr	r3, [r3]
 849 0042 1B68     		ldr	r3, [r3]
 850 0044 002B     		cmp	r3, #0
 851 0046 01D1     		bne	.L57
 575:/home/rdu/Workspace/project_templates/mcu/stm32_ws/src/libraries/FreeRTOS/Source/timers.c **** 				}
 852              		.loc 1 575 0 is_stmt 0 discriminator 1
 853 0048 0123     		movs	r3, #1
 854 004a 00E0     		b	.L58
 855              	.L57:
 575:/home/rdu/Workspace/project_templates/mcu/stm32_ws/src/libraries/FreeRTOS/Source/timers.c **** 				}
 856              		.loc 1 575 0 discriminator 2
 857 004c 0023     		movs	r3, #0
 858              	.L58:
 575:/home/rdu/Workspace/project_templates/mcu/stm32_ws/src/libraries/FreeRTOS/Source/timers.c **** 				}
 859              		.loc 1 575 0 discriminator 4
 860 004e 0093     		str	r3, [sp]
 861              	.L56:
 578:/home/rdu/Workspace/project_templates/mcu/stm32_ws/src/libraries/FreeRTOS/Source/timers.c **** 
 862              		.loc 1 578 0 is_stmt 1
 863 0050 0F4B     		ldr	r3, .L61+4
 864 0052 1868     		ldr	r0, [r3]
 865 0054 019A     		ldr	r2, [sp, #4]
 866 0056 039B     		ldr	r3, [sp, #12]
 867 0058 D31A     		subs	r3, r2, r3
 868 005a 009A     		ldr	r2, [sp]
 869 005c 1946     		mov	r1, r3
 870 005e FFF7FEFF 		bl	vQueueWaitForMessageRestricted
 580:/home/rdu/Workspace/project_templates/mcu/stm32_ws/src/libraries/FreeRTOS/Source/timers.c **** 				{
 871              		.loc 1 580 0
 872 0062 FFF7FEFF 		bl	xTaskResumeAll
 873 0066 0346     		mov	r3, r0
 874 0068 002B     		cmp	r3, #0
 875 006a 0AD1     		bne	.L60
 586:/home/rdu/Workspace/project_templates/mcu/stm32_ws/src/libraries/FreeRTOS/Source/timers.c **** 				}
 876              		.loc 1 586 0
 877 006c 094B     		ldr	r3, .L61+8
 878 006e 4FF08052 		mov	r2, #268435456
 879 0072 1A60     		str	r2, [r3]
 880              		.syntax unified
 881              	@ 586 "/home/rdu/Workspace/project_templates/mcu/stm32_ws/src/libraries/FreeRTOS/Source/timers.c" 1
 882 0074 BFF34F8F 		dsb
 883              	@ 0 "" 2
 884              	@ 586 "/home/rdu/Workspace/project_templates/mcu/stm32_ws/src/libraries/FreeRTOS/Source/timers.c" 1
 885 0078 BFF36F8F 		isb
 886              	@ 0 "" 2
 887              		.loc 1 599 0
 888              		.thumb
 889              		.syntax unified
 890 007c 01E0     		b	.L60
 891              	.L53:
 596:/home/rdu/Workspace/project_templates/mcu/stm32_ws/src/libraries/FreeRTOS/Source/timers.c **** 		}
 892              		.loc 1 596 0
 893 007e FFF7FEFF 		bl	xTaskResumeAll
 894              	.L60:
 895              		.loc 1 599 0
 896 0082 00BF     		nop
 897 0084 05B0     		add	sp, sp, #20
 898              	.LCFI27:
 899              		.cfi_def_cfa_offset 4
 900              		@ sp needed
 901 0086 5DF804FB 		ldr	pc, [sp], #4
 902              	.L62:
 903 008a 00BF     		.align	2
 904              	.L61:
 905 008c 00000000 		.word	pxOverflowTimerList
 906 0090 00000000 		.word	xTimerQueue
 907 0094 04ED00E0 		.word	-536810236
 908              		.cfi_endproc
 909              	.LFE15:
 911              		.section	.text.prvGetNextExpireTime,"ax",%progbits
 912              		.align	1
 913              		.syntax unified
 914              		.thumb
 915              		.thumb_func
 916              		.fpu fpv4-sp-d16
 918              	prvGetNextExpireTime:
 919              	.LFB16:
 600:/home/rdu/Workspace/project_templates/mcu/stm32_ws/src/libraries/FreeRTOS/Source/timers.c **** /*-----------------------------------------------------------*/
 601:/home/rdu/Workspace/project_templates/mcu/stm32_ws/src/libraries/FreeRTOS/Source/timers.c **** 
 602:/home/rdu/Workspace/project_templates/mcu/stm32_ws/src/libraries/FreeRTOS/Source/timers.c **** static TickType_t prvGetNextExpireTime( BaseType_t * const pxListWasEmpty )
 603:/home/rdu/Workspace/project_templates/mcu/stm32_ws/src/libraries/FreeRTOS/Source/timers.c **** {
 920              		.loc 1 603 0
 921              		.cfi_startproc
 922              		@ args = 0, pretend = 0, frame = 16
 923              		@ frame_needed = 0, uses_anonymous_args = 0
 924              		@ link register save eliminated.
 925 0000 84B0     		sub	sp, sp, #16
 926              	.LCFI28:
 927              		.cfi_def_cfa_offset 16
 928 0002 0190     		str	r0, [sp, #4]
 604:/home/rdu/Workspace/project_templates/mcu/stm32_ws/src/libraries/FreeRTOS/Source/timers.c **** TickType_t xNextExpireTime;
 605:/home/rdu/Workspace/project_templates/mcu/stm32_ws/src/libraries/FreeRTOS/Source/timers.c **** 
 606:/home/rdu/Workspace/project_templates/mcu/stm32_ws/src/libraries/FreeRTOS/Source/timers.c **** 	/* Timers are listed in expiry time order, with the head of the list
 607:/home/rdu/Workspace/project_templates/mcu/stm32_ws/src/libraries/FreeRTOS/Source/timers.c **** 	referencing the task that will expire first.  Obtain the time at which
 608:/home/rdu/Workspace/project_templates/mcu/stm32_ws/src/libraries/FreeRTOS/Source/timers.c **** 	the timer with the nearest expiry time will expire.  If there are no
 609:/home/rdu/Workspace/project_templates/mcu/stm32_ws/src/libraries/FreeRTOS/Source/timers.c **** 	active timers then just set the next expire time to 0.  That will cause
 610:/home/rdu/Workspace/project_templates/mcu/stm32_ws/src/libraries/FreeRTOS/Source/timers.c **** 	this task to unblock when the tick count overflows, at which point the
 611:/home/rdu/Workspace/project_templates/mcu/stm32_ws/src/libraries/FreeRTOS/Source/timers.c **** 	timer lists will be switched and the next expiry time can be
 612:/home/rdu/Workspace/project_templates/mcu/stm32_ws/src/libraries/FreeRTOS/Source/timers.c **** 	re-assessed.  */
 613:/home/rdu/Workspace/project_templates/mcu/stm32_ws/src/libraries/FreeRTOS/Source/timers.c **** 	*pxListWasEmpty = listLIST_IS_EMPTY( pxCurrentTimerList );
 929              		.loc 1 613 0
 930 0004 0C4B     		ldr	r3, .L69
 931 0006 1B68     		ldr	r3, [r3]
 932 0008 1B68     		ldr	r3, [r3]
 933 000a 002B     		cmp	r3, #0
 934 000c 01D1     		bne	.L64
 935              		.loc 1 613 0 is_stmt 0 discriminator 1
 936 000e 0122     		movs	r2, #1
 937 0010 00E0     		b	.L65
 938              	.L64:
 939              		.loc 1 613 0 discriminator 2
 940 0012 0022     		movs	r2, #0
 941              	.L65:
 942              		.loc 1 613 0 discriminator 4
 943 0014 019B     		ldr	r3, [sp, #4]
 944 0016 1A60     		str	r2, [r3]
 614:/home/rdu/Workspace/project_templates/mcu/stm32_ws/src/libraries/FreeRTOS/Source/timers.c **** 	if( *pxListWasEmpty == pdFALSE )
 945              		.loc 1 614 0 is_stmt 1 discriminator 4
 946 0018 019B     		ldr	r3, [sp, #4]
 947 001a 1B68     		ldr	r3, [r3]
 948 001c 002B     		cmp	r3, #0
 949 001e 05D1     		bne	.L66
 615:/home/rdu/Workspace/project_templates/mcu/stm32_ws/src/libraries/FreeRTOS/Source/timers.c **** 	{
 616:/home/rdu/Workspace/project_templates/mcu/stm32_ws/src/libraries/FreeRTOS/Source/timers.c **** 		xNextExpireTime = listGET_ITEM_VALUE_OF_HEAD_ENTRY( pxCurrentTimerList );
 950              		.loc 1 616 0
 951 0020 054B     		ldr	r3, .L69
 952 0022 1B68     		ldr	r3, [r3]
 953 0024 DB68     		ldr	r3, [r3, #12]
 954 0026 1B68     		ldr	r3, [r3]
 955 0028 0393     		str	r3, [sp, #12]
 956 002a 01E0     		b	.L67
 957              	.L66:
 617:/home/rdu/Workspace/project_templates/mcu/stm32_ws/src/libraries/FreeRTOS/Source/timers.c **** 	}
 618:/home/rdu/Workspace/project_templates/mcu/stm32_ws/src/libraries/FreeRTOS/Source/timers.c **** 	else
 619:/home/rdu/Workspace/project_templates/mcu/stm32_ws/src/libraries/FreeRTOS/Source/timers.c **** 	{
 620:/home/rdu/Workspace/project_templates/mcu/stm32_ws/src/libraries/FreeRTOS/Source/timers.c **** 		/* Ensure the task unblocks when the tick count rolls over. */
 621:/home/rdu/Workspace/project_templates/mcu/stm32_ws/src/libraries/FreeRTOS/Source/timers.c **** 		xNextExpireTime = ( TickType_t ) 0U;
 958              		.loc 1 621 0
 959 002c 0023     		movs	r3, #0
 960 002e 0393     		str	r3, [sp, #12]
 961              	.L67:
 622:/home/rdu/Workspace/project_templates/mcu/stm32_ws/src/libraries/FreeRTOS/Source/timers.c **** 	}
 623:/home/rdu/Workspace/project_templates/mcu/stm32_ws/src/libraries/FreeRTOS/Source/timers.c **** 
 624:/home/rdu/Workspace/project_templates/mcu/stm32_ws/src/libraries/FreeRTOS/Source/timers.c **** 	return xNextExpireTime;
 962              		.loc 1 624 0
 963 0030 039B     		ldr	r3, [sp, #12]
 625:/home/rdu/Workspace/project_templates/mcu/stm32_ws/src/libraries/FreeRTOS/Source/timers.c **** }
 964              		.loc 1 625 0
 965 0032 1846     		mov	r0, r3
 966 0034 04B0     		add	sp, sp, #16
 967              	.LCFI29:
 968              		.cfi_def_cfa_offset 0
 969              		@ sp needed
 970 0036 7047     		bx	lr
 971              	.L70:
 972              		.align	2
 973              	.L69:
 974 0038 00000000 		.word	pxCurrentTimerList
 975              		.cfi_endproc
 976              	.LFE16:
 978              		.section	.text.prvSampleTimeNow,"ax",%progbits
 979              		.align	1
 980              		.syntax unified
 981              		.thumb
 982              		.thumb_func
 983              		.fpu fpv4-sp-d16
 985              	prvSampleTimeNow:
 986              	.LFB17:
 626:/home/rdu/Workspace/project_templates/mcu/stm32_ws/src/libraries/FreeRTOS/Source/timers.c **** /*-----------------------------------------------------------*/
 627:/home/rdu/Workspace/project_templates/mcu/stm32_ws/src/libraries/FreeRTOS/Source/timers.c **** 
 628:/home/rdu/Workspace/project_templates/mcu/stm32_ws/src/libraries/FreeRTOS/Source/timers.c **** static TickType_t prvSampleTimeNow( BaseType_t * const pxTimerListsWereSwitched )
 629:/home/rdu/Workspace/project_templates/mcu/stm32_ws/src/libraries/FreeRTOS/Source/timers.c **** {
 987              		.loc 1 629 0
 988              		.cfi_startproc
 989              		@ args = 0, pretend = 0, frame = 16
 990              		@ frame_needed = 0, uses_anonymous_args = 0
 991 0000 00B5     		push	{lr}
 992              	.LCFI30:
 993              		.cfi_def_cfa_offset 4
 994              		.cfi_offset 14, -4
 995 0002 85B0     		sub	sp, sp, #20
 996              	.LCFI31:
 997              		.cfi_def_cfa_offset 24
 998 0004 0190     		str	r0, [sp, #4]
 630:/home/rdu/Workspace/project_templates/mcu/stm32_ws/src/libraries/FreeRTOS/Source/timers.c **** TickType_t xTimeNow;
 631:/home/rdu/Workspace/project_templates/mcu/stm32_ws/src/libraries/FreeRTOS/Source/timers.c **** PRIVILEGED_DATA static TickType_t xLastTime = ( TickType_t ) 0U; /*lint !e956 Variable is only acce
 632:/home/rdu/Workspace/project_templates/mcu/stm32_ws/src/libraries/FreeRTOS/Source/timers.c **** 
 633:/home/rdu/Workspace/project_templates/mcu/stm32_ws/src/libraries/FreeRTOS/Source/timers.c **** 	xTimeNow = xTaskGetTickCount();
 999              		.loc 1 633 0
 1000 0006 FFF7FEFF 		bl	xTaskGetTickCount
 1001 000a 0390     		str	r0, [sp, #12]
 634:/home/rdu/Workspace/project_templates/mcu/stm32_ws/src/libraries/FreeRTOS/Source/timers.c **** 
 635:/home/rdu/Workspace/project_templates/mcu/stm32_ws/src/libraries/FreeRTOS/Source/timers.c **** 	if( xTimeNow < xLastTime )
 1002              		.loc 1 635 0
 1003 000c 0A4B     		ldr	r3, .L75
 1004 000e 1B68     		ldr	r3, [r3]
 1005 0010 039A     		ldr	r2, [sp, #12]
 1006 0012 9A42     		cmp	r2, r3
 1007 0014 05D2     		bcs	.L72
 636:/home/rdu/Workspace/project_templates/mcu/stm32_ws/src/libraries/FreeRTOS/Source/timers.c **** 	{
 637:/home/rdu/Workspace/project_templates/mcu/stm32_ws/src/libraries/FreeRTOS/Source/timers.c **** 		prvSwitchTimerLists();
 1008              		.loc 1 637 0
 1009 0016 FFF7FEFF 		bl	prvSwitchTimerLists
 638:/home/rdu/Workspace/project_templates/mcu/stm32_ws/src/libraries/FreeRTOS/Source/timers.c **** 		*pxTimerListsWereSwitched = pdTRUE;
 1010              		.loc 1 638 0
 1011 001a 019B     		ldr	r3, [sp, #4]
 1012 001c 0122     		movs	r2, #1
 1013 001e 1A60     		str	r2, [r3]
 1014 0020 02E0     		b	.L73
 1015              	.L72:
 639:/home/rdu/Workspace/project_templates/mcu/stm32_ws/src/libraries/FreeRTOS/Source/timers.c **** 	}
 640:/home/rdu/Workspace/project_templates/mcu/stm32_ws/src/libraries/FreeRTOS/Source/timers.c **** 	else
 641:/home/rdu/Workspace/project_templates/mcu/stm32_ws/src/libraries/FreeRTOS/Source/timers.c **** 	{
 642:/home/rdu/Workspace/project_templates/mcu/stm32_ws/src/libraries/FreeRTOS/Source/timers.c **** 		*pxTimerListsWereSwitched = pdFALSE;
 1016              		.loc 1 642 0
 1017 0022 019B     		ldr	r3, [sp, #4]
 1018 0024 0022     		movs	r2, #0
 1019 0026 1A60     		str	r2, [r3]
 1020              	.L73:
 643:/home/rdu/Workspace/project_templates/mcu/stm32_ws/src/libraries/FreeRTOS/Source/timers.c **** 	}
 644:/home/rdu/Workspace/project_templates/mcu/stm32_ws/src/libraries/FreeRTOS/Source/timers.c **** 
 645:/home/rdu/Workspace/project_templates/mcu/stm32_ws/src/libraries/FreeRTOS/Source/timers.c **** 	xLastTime = xTimeNow;
 1021              		.loc 1 645 0
 1022 0028 034A     		ldr	r2, .L75
 1023 002a 039B     		ldr	r3, [sp, #12]
 1024 002c 1360     		str	r3, [r2]
 646:/home/rdu/Workspace/project_templates/mcu/stm32_ws/src/libraries/FreeRTOS/Source/timers.c **** 
 647:/home/rdu/Workspace/project_templates/mcu/stm32_ws/src/libraries/FreeRTOS/Source/timers.c **** 	return xTimeNow;
 1025              		.loc 1 647 0
 1026 002e 039B     		ldr	r3, [sp, #12]
 648:/home/rdu/Workspace/project_templates/mcu/stm32_ws/src/libraries/FreeRTOS/Source/timers.c **** }
 1027              		.loc 1 648 0
 1028 0030 1846     		mov	r0, r3
 1029 0032 05B0     		add	sp, sp, #20
 1030              	.LCFI32:
 1031              		.cfi_def_cfa_offset 4
 1032              		@ sp needed
 1033 0034 5DF804FB 		ldr	pc, [sp], #4
 1034              	.L76:
 1035              		.align	2
 1036              	.L75:
 1037 0038 00000000 		.word	xLastTime.6689
 1038              		.cfi_endproc
 1039              	.LFE17:
 1041              		.section	.text.prvInsertTimerInActiveList,"ax",%progbits
 1042              		.align	1
 1043              		.syntax unified
 1044              		.thumb
 1045              		.thumb_func
 1046              		.fpu fpv4-sp-d16
 1048              	prvInsertTimerInActiveList:
 1049              	.LFB18:
 649:/home/rdu/Workspace/project_templates/mcu/stm32_ws/src/libraries/FreeRTOS/Source/timers.c **** /*-----------------------------------------------------------*/
 650:/home/rdu/Workspace/project_templates/mcu/stm32_ws/src/libraries/FreeRTOS/Source/timers.c **** 
 651:/home/rdu/Workspace/project_templates/mcu/stm32_ws/src/libraries/FreeRTOS/Source/timers.c **** static BaseType_t prvInsertTimerInActiveList( Timer_t * const pxTimer, const TickType_t xNextExpiry
 652:/home/rdu/Workspace/project_templates/mcu/stm32_ws/src/libraries/FreeRTOS/Source/timers.c **** {
 1050              		.loc 1 652 0
 1051              		.cfi_startproc
 1052              		@ args = 0, pretend = 0, frame = 24
 1053              		@ frame_needed = 0, uses_anonymous_args = 0
 1054 0000 00B5     		push	{lr}
 1055              	.LCFI33:
 1056              		.cfi_def_cfa_offset 4
 1057              		.cfi_offset 14, -4
 1058 0002 87B0     		sub	sp, sp, #28
 1059              	.LCFI34:
 1060              		.cfi_def_cfa_offset 32
 1061 0004 0390     		str	r0, [sp, #12]
 1062 0006 0291     		str	r1, [sp, #8]
 1063 0008 0192     		str	r2, [sp, #4]
 1064 000a 0093     		str	r3, [sp]
 653:/home/rdu/Workspace/project_templates/mcu/stm32_ws/src/libraries/FreeRTOS/Source/timers.c **** BaseType_t xProcessTimerNow = pdFALSE;
 1065              		.loc 1 653 0
 1066 000c 0023     		movs	r3, #0
 1067 000e 0593     		str	r3, [sp, #20]
 654:/home/rdu/Workspace/project_templates/mcu/stm32_ws/src/libraries/FreeRTOS/Source/timers.c **** 
 655:/home/rdu/Workspace/project_templates/mcu/stm32_ws/src/libraries/FreeRTOS/Source/timers.c **** 	listSET_LIST_ITEM_VALUE( &( pxTimer->xTimerListItem ), xNextExpiryTime );
 1068              		.loc 1 655 0
 1069 0010 039B     		ldr	r3, [sp, #12]
 1070 0012 029A     		ldr	r2, [sp, #8]
 1071 0014 5A60     		str	r2, [r3, #4]
 656:/home/rdu/Workspace/project_templates/mcu/stm32_ws/src/libraries/FreeRTOS/Source/timers.c **** 	listSET_LIST_ITEM_OWNER( &( pxTimer->xTimerListItem ), pxTimer );
 1072              		.loc 1 656 0
 1073 0016 039B     		ldr	r3, [sp, #12]
 1074 0018 039A     		ldr	r2, [sp, #12]
 1075 001a 1A61     		str	r2, [r3, #16]
 657:/home/rdu/Workspace/project_templates/mcu/stm32_ws/src/libraries/FreeRTOS/Source/timers.c **** 
 658:/home/rdu/Workspace/project_templates/mcu/stm32_ws/src/libraries/FreeRTOS/Source/timers.c **** 	if( xNextExpiryTime <= xTimeNow )
 1076              		.loc 1 658 0
 1077 001c 029A     		ldr	r2, [sp, #8]
 1078 001e 019B     		ldr	r3, [sp, #4]
 1079 0020 9A42     		cmp	r2, r3
 1080 0022 12D8     		bhi	.L78
 659:/home/rdu/Workspace/project_templates/mcu/stm32_ws/src/libraries/FreeRTOS/Source/timers.c **** 	{
 660:/home/rdu/Workspace/project_templates/mcu/stm32_ws/src/libraries/FreeRTOS/Source/timers.c **** 		/* Has the expiry time elapsed between the command to start/reset a
 661:/home/rdu/Workspace/project_templates/mcu/stm32_ws/src/libraries/FreeRTOS/Source/timers.c **** 		timer was issued, and the time the command was processed? */
 662:/home/rdu/Workspace/project_templates/mcu/stm32_ws/src/libraries/FreeRTOS/Source/timers.c **** 		if( ( ( TickType_t ) ( xTimeNow - xCommandTime ) ) >= pxTimer->xTimerPeriodInTicks ) /*lint !e961
 1081              		.loc 1 662 0
 1082 0024 019A     		ldr	r2, [sp, #4]
 1083 0026 009B     		ldr	r3, [sp]
 1084 0028 D21A     		subs	r2, r2, r3
 1085 002a 039B     		ldr	r3, [sp, #12]
 1086 002c 9B69     		ldr	r3, [r3, #24]
 1087 002e 9A42     		cmp	r2, r3
 1088 0030 02D3     		bcc	.L79
 663:/home/rdu/Workspace/project_templates/mcu/stm32_ws/src/libraries/FreeRTOS/Source/timers.c **** 		{
 664:/home/rdu/Workspace/project_templates/mcu/stm32_ws/src/libraries/FreeRTOS/Source/timers.c **** 			/* The time between a command being issued and the command being
 665:/home/rdu/Workspace/project_templates/mcu/stm32_ws/src/libraries/FreeRTOS/Source/timers.c **** 			processed actually exceeds the timers period.  */
 666:/home/rdu/Workspace/project_templates/mcu/stm32_ws/src/libraries/FreeRTOS/Source/timers.c **** 			xProcessTimerNow = pdTRUE;
 1089              		.loc 1 666 0
 1090 0032 0123     		movs	r3, #1
 1091 0034 0593     		str	r3, [sp, #20]
 1092 0036 1BE0     		b	.L81
 1093              	.L79:
 667:/home/rdu/Workspace/project_templates/mcu/stm32_ws/src/libraries/FreeRTOS/Source/timers.c **** 		}
 668:/home/rdu/Workspace/project_templates/mcu/stm32_ws/src/libraries/FreeRTOS/Source/timers.c **** 		else
 669:/home/rdu/Workspace/project_templates/mcu/stm32_ws/src/libraries/FreeRTOS/Source/timers.c **** 		{
 670:/home/rdu/Workspace/project_templates/mcu/stm32_ws/src/libraries/FreeRTOS/Source/timers.c **** 			vListInsert( pxOverflowTimerList, &( pxTimer->xTimerListItem ) );
 1094              		.loc 1 670 0
 1095 0038 104B     		ldr	r3, .L84
 1096 003a 1A68     		ldr	r2, [r3]
 1097 003c 039B     		ldr	r3, [sp, #12]
 1098 003e 0433     		adds	r3, r3, #4
 1099 0040 1946     		mov	r1, r3
 1100 0042 1046     		mov	r0, r2
 1101 0044 FFF7FEFF 		bl	vListInsert
 1102 0048 12E0     		b	.L81
 1103              	.L78:
 671:/home/rdu/Workspace/project_templates/mcu/stm32_ws/src/libraries/FreeRTOS/Source/timers.c **** 		}
 672:/home/rdu/Workspace/project_templates/mcu/stm32_ws/src/libraries/FreeRTOS/Source/timers.c **** 	}
 673:/home/rdu/Workspace/project_templates/mcu/stm32_ws/src/libraries/FreeRTOS/Source/timers.c **** 	else
 674:/home/rdu/Workspace/project_templates/mcu/stm32_ws/src/libraries/FreeRTOS/Source/timers.c **** 	{
 675:/home/rdu/Workspace/project_templates/mcu/stm32_ws/src/libraries/FreeRTOS/Source/timers.c **** 		if( ( xTimeNow < xCommandTime ) && ( xNextExpiryTime >= xCommandTime ) )
 1104              		.loc 1 675 0
 1105 004a 019A     		ldr	r2, [sp, #4]
 1106 004c 009B     		ldr	r3, [sp]
 1107 004e 9A42     		cmp	r2, r3
 1108 0050 06D2     		bcs	.L82
 1109              		.loc 1 675 0 is_stmt 0 discriminator 1
 1110 0052 029A     		ldr	r2, [sp, #8]
 1111 0054 009B     		ldr	r3, [sp]
 1112 0056 9A42     		cmp	r2, r3
 1113 0058 02D3     		bcc	.L82
 676:/home/rdu/Workspace/project_templates/mcu/stm32_ws/src/libraries/FreeRTOS/Source/timers.c **** 		{
 677:/home/rdu/Workspace/project_templates/mcu/stm32_ws/src/libraries/FreeRTOS/Source/timers.c **** 			/* If, since the command was issued, the tick count has overflowed
 678:/home/rdu/Workspace/project_templates/mcu/stm32_ws/src/libraries/FreeRTOS/Source/timers.c **** 			but the expiry time has not, then the timer must have already passed
 679:/home/rdu/Workspace/project_templates/mcu/stm32_ws/src/libraries/FreeRTOS/Source/timers.c **** 			its expiry time and should be processed immediately. */
 680:/home/rdu/Workspace/project_templates/mcu/stm32_ws/src/libraries/FreeRTOS/Source/timers.c **** 			xProcessTimerNow = pdTRUE;
 1114              		.loc 1 680 0 is_stmt 1
 1115 005a 0123     		movs	r3, #1
 1116 005c 0593     		str	r3, [sp, #20]
 1117 005e 07E0     		b	.L81
 1118              	.L82:
 681:/home/rdu/Workspace/project_templates/mcu/stm32_ws/src/libraries/FreeRTOS/Source/timers.c **** 		}
 682:/home/rdu/Workspace/project_templates/mcu/stm32_ws/src/libraries/FreeRTOS/Source/timers.c **** 		else
 683:/home/rdu/Workspace/project_templates/mcu/stm32_ws/src/libraries/FreeRTOS/Source/timers.c **** 		{
 684:/home/rdu/Workspace/project_templates/mcu/stm32_ws/src/libraries/FreeRTOS/Source/timers.c **** 			vListInsert( pxCurrentTimerList, &( pxTimer->xTimerListItem ) );
 1119              		.loc 1 684 0
 1120 0060 074B     		ldr	r3, .L84+4
 1121 0062 1A68     		ldr	r2, [r3]
 1122 0064 039B     		ldr	r3, [sp, #12]
 1123 0066 0433     		adds	r3, r3, #4
 1124 0068 1946     		mov	r1, r3
 1125 006a 1046     		mov	r0, r2
 1126 006c FFF7FEFF 		bl	vListInsert
 1127              	.L81:
 685:/home/rdu/Workspace/project_templates/mcu/stm32_ws/src/libraries/FreeRTOS/Source/timers.c **** 		}
 686:/home/rdu/Workspace/project_templates/mcu/stm32_ws/src/libraries/FreeRTOS/Source/timers.c **** 	}
 687:/home/rdu/Workspace/project_templates/mcu/stm32_ws/src/libraries/FreeRTOS/Source/timers.c **** 
 688:/home/rdu/Workspace/project_templates/mcu/stm32_ws/src/libraries/FreeRTOS/Source/timers.c **** 	return xProcessTimerNow;
 1128              		.loc 1 688 0
 1129 0070 059B     		ldr	r3, [sp, #20]
 689:/home/rdu/Workspace/project_templates/mcu/stm32_ws/src/libraries/FreeRTOS/Source/timers.c **** }
 1130              		.loc 1 689 0
 1131 0072 1846     		mov	r0, r3
 1132 0074 07B0     		add	sp, sp, #28
 1133              	.LCFI35:
 1134              		.cfi_def_cfa_offset 4
 1135              		@ sp needed
 1136 0076 5DF804FB 		ldr	pc, [sp], #4
 1137              	.L85:
 1138 007a 00BF     		.align	2
 1139              	.L84:
 1140 007c 00000000 		.word	pxOverflowTimerList
 1141 0080 00000000 		.word	pxCurrentTimerList
 1142              		.cfi_endproc
 1143              	.LFE18:
 1145              		.section	.text.prvProcessReceivedCommands,"ax",%progbits
 1146              		.align	1
 1147              		.syntax unified
 1148              		.thumb
 1149              		.thumb_func
 1150              		.fpu fpv4-sp-d16
 1152              	prvProcessReceivedCommands:
 1153              	.LFB19:
 690:/home/rdu/Workspace/project_templates/mcu/stm32_ws/src/libraries/FreeRTOS/Source/timers.c **** /*-----------------------------------------------------------*/
 691:/home/rdu/Workspace/project_templates/mcu/stm32_ws/src/libraries/FreeRTOS/Source/timers.c **** 
 692:/home/rdu/Workspace/project_templates/mcu/stm32_ws/src/libraries/FreeRTOS/Source/timers.c **** static void	prvProcessReceivedCommands( void )
 693:/home/rdu/Workspace/project_templates/mcu/stm32_ws/src/libraries/FreeRTOS/Source/timers.c **** {
 1154              		.loc 1 693 0
 1155              		.cfi_startproc
 1156              		@ args = 0, pretend = 0, frame = 40
 1157              		@ frame_needed = 0, uses_anonymous_args = 0
 1158 0000 00B5     		push	{lr}
 1159              	.LCFI36:
 1160              		.cfi_def_cfa_offset 4
 1161              		.cfi_offset 14, -4
 1162 0002 8DB0     		sub	sp, sp, #52
 1163              	.LCFI37:
 1164              		.cfi_def_cfa_offset 56
 694:/home/rdu/Workspace/project_templates/mcu/stm32_ws/src/libraries/FreeRTOS/Source/timers.c **** DaemonTaskMessage_t xMessage;
 695:/home/rdu/Workspace/project_templates/mcu/stm32_ws/src/libraries/FreeRTOS/Source/timers.c **** Timer_t *pxTimer;
 696:/home/rdu/Workspace/project_templates/mcu/stm32_ws/src/libraries/FreeRTOS/Source/timers.c **** BaseType_t xTimerListsWereSwitched, xResult;
 697:/home/rdu/Workspace/project_templates/mcu/stm32_ws/src/libraries/FreeRTOS/Source/timers.c **** TickType_t xTimeNow;
 698:/home/rdu/Workspace/project_templates/mcu/stm32_ws/src/libraries/FreeRTOS/Source/timers.c **** 
 699:/home/rdu/Workspace/project_templates/mcu/stm32_ws/src/libraries/FreeRTOS/Source/timers.c **** 	while( xQueueReceive( xTimerQueue, &xMessage, tmrNO_DELAY ) != pdFAIL ) /*lint !e603 xMessage does
 1165              		.loc 1 699 0
 1166 0004 79E0     		b	.L87
 1167              	.L99:
 700:/home/rdu/Workspace/project_templates/mcu/stm32_ws/src/libraries/FreeRTOS/Source/timers.c **** 	{
 701:/home/rdu/Workspace/project_templates/mcu/stm32_ws/src/libraries/FreeRTOS/Source/timers.c **** 		#if ( INCLUDE_xTimerPendFunctionCall == 1 )
 702:/home/rdu/Workspace/project_templates/mcu/stm32_ws/src/libraries/FreeRTOS/Source/timers.c **** 		{
 703:/home/rdu/Workspace/project_templates/mcu/stm32_ws/src/libraries/FreeRTOS/Source/timers.c **** 			/* Negative commands are pended function calls rather than timer
 704:/home/rdu/Workspace/project_templates/mcu/stm32_ws/src/libraries/FreeRTOS/Source/timers.c **** 			commands. */
 705:/home/rdu/Workspace/project_templates/mcu/stm32_ws/src/libraries/FreeRTOS/Source/timers.c **** 			if( xMessage.xMessageID < ( BaseType_t ) 0 )
 706:/home/rdu/Workspace/project_templates/mcu/stm32_ws/src/libraries/FreeRTOS/Source/timers.c **** 			{
 707:/home/rdu/Workspace/project_templates/mcu/stm32_ws/src/libraries/FreeRTOS/Source/timers.c **** 				const CallbackParameters_t * const pxCallback = &( xMessage.u.xCallbackParameters );
 708:/home/rdu/Workspace/project_templates/mcu/stm32_ws/src/libraries/FreeRTOS/Source/timers.c **** 
 709:/home/rdu/Workspace/project_templates/mcu/stm32_ws/src/libraries/FreeRTOS/Source/timers.c **** 				/* The timer uses the xCallbackParameters member to request a
 710:/home/rdu/Workspace/project_templates/mcu/stm32_ws/src/libraries/FreeRTOS/Source/timers.c **** 				callback be executed.  Check the callback is not NULL. */
 711:/home/rdu/Workspace/project_templates/mcu/stm32_ws/src/libraries/FreeRTOS/Source/timers.c **** 				configASSERT( pxCallback );
 712:/home/rdu/Workspace/project_templates/mcu/stm32_ws/src/libraries/FreeRTOS/Source/timers.c **** 
 713:/home/rdu/Workspace/project_templates/mcu/stm32_ws/src/libraries/FreeRTOS/Source/timers.c **** 				/* Call the function. */
 714:/home/rdu/Workspace/project_templates/mcu/stm32_ws/src/libraries/FreeRTOS/Source/timers.c **** 				pxCallback->pxCallbackFunction( pxCallback->pvParameter1, pxCallback->ulParameter2 );
 715:/home/rdu/Workspace/project_templates/mcu/stm32_ws/src/libraries/FreeRTOS/Source/timers.c **** 			}
 716:/home/rdu/Workspace/project_templates/mcu/stm32_ws/src/libraries/FreeRTOS/Source/timers.c **** 			else
 717:/home/rdu/Workspace/project_templates/mcu/stm32_ws/src/libraries/FreeRTOS/Source/timers.c **** 			{
 718:/home/rdu/Workspace/project_templates/mcu/stm32_ws/src/libraries/FreeRTOS/Source/timers.c **** 				mtCOVERAGE_TEST_MARKER();
 719:/home/rdu/Workspace/project_templates/mcu/stm32_ws/src/libraries/FreeRTOS/Source/timers.c **** 			}
 720:/home/rdu/Workspace/project_templates/mcu/stm32_ws/src/libraries/FreeRTOS/Source/timers.c **** 		}
 721:/home/rdu/Workspace/project_templates/mcu/stm32_ws/src/libraries/FreeRTOS/Source/timers.c **** 		#endif /* INCLUDE_xTimerPendFunctionCall */
 722:/home/rdu/Workspace/project_templates/mcu/stm32_ws/src/libraries/FreeRTOS/Source/timers.c **** 
 723:/home/rdu/Workspace/project_templates/mcu/stm32_ws/src/libraries/FreeRTOS/Source/timers.c **** 		/* Commands that are positive are timer commands rather than pended
 724:/home/rdu/Workspace/project_templates/mcu/stm32_ws/src/libraries/FreeRTOS/Source/timers.c **** 		function calls. */
 725:/home/rdu/Workspace/project_templates/mcu/stm32_ws/src/libraries/FreeRTOS/Source/timers.c **** 		if( xMessage.xMessageID >= ( BaseType_t ) 0 )
 1168              		.loc 1 725 0
 1169 0006 049B     		ldr	r3, [sp, #16]
 1170 0008 002B     		cmp	r3, #0
 1171 000a 75DB     		blt	.L100
 726:/home/rdu/Workspace/project_templates/mcu/stm32_ws/src/libraries/FreeRTOS/Source/timers.c **** 		{
 727:/home/rdu/Workspace/project_templates/mcu/stm32_ws/src/libraries/FreeRTOS/Source/timers.c **** 			/* The messages uses the xTimerParameters member to work on a
 728:/home/rdu/Workspace/project_templates/mcu/stm32_ws/src/libraries/FreeRTOS/Source/timers.c **** 			software timer. */
 729:/home/rdu/Workspace/project_templates/mcu/stm32_ws/src/libraries/FreeRTOS/Source/timers.c **** 			pxTimer = xMessage.u.xTimerParameters.pxTimer;
 1172              		.loc 1 729 0
 1173 000c 069B     		ldr	r3, [sp, #24]
 1174 000e 0B93     		str	r3, [sp, #44]
 730:/home/rdu/Workspace/project_templates/mcu/stm32_ws/src/libraries/FreeRTOS/Source/timers.c **** 
 731:/home/rdu/Workspace/project_templates/mcu/stm32_ws/src/libraries/FreeRTOS/Source/timers.c **** 			if( listIS_CONTAINED_WITHIN( NULL, &( pxTimer->xTimerListItem ) ) == pdFALSE ) /*lint !e961. The
 1175              		.loc 1 731 0
 1176 0010 0B9B     		ldr	r3, [sp, #44]
 1177 0012 5B69     		ldr	r3, [r3, #20]
 1178 0014 002B     		cmp	r3, #0
 1179 0016 04D0     		beq	.L88
 732:/home/rdu/Workspace/project_templates/mcu/stm32_ws/src/libraries/FreeRTOS/Source/timers.c **** 			{
 733:/home/rdu/Workspace/project_templates/mcu/stm32_ws/src/libraries/FreeRTOS/Source/timers.c **** 				/* The timer is in a list, remove it. */
 734:/home/rdu/Workspace/project_templates/mcu/stm32_ws/src/libraries/FreeRTOS/Source/timers.c **** 				( void ) uxListRemove( &( pxTimer->xTimerListItem ) );
 1180              		.loc 1 734 0
 1181 0018 0B9B     		ldr	r3, [sp, #44]
 1182 001a 0433     		adds	r3, r3, #4
 1183 001c 1846     		mov	r0, r3
 1184 001e FFF7FEFF 		bl	uxListRemove
 1185              	.L88:
 735:/home/rdu/Workspace/project_templates/mcu/stm32_ws/src/libraries/FreeRTOS/Source/timers.c **** 			}
 736:/home/rdu/Workspace/project_templates/mcu/stm32_ws/src/libraries/FreeRTOS/Source/timers.c **** 			else
 737:/home/rdu/Workspace/project_templates/mcu/stm32_ws/src/libraries/FreeRTOS/Source/timers.c **** 			{
 738:/home/rdu/Workspace/project_templates/mcu/stm32_ws/src/libraries/FreeRTOS/Source/timers.c **** 				mtCOVERAGE_TEST_MARKER();
 739:/home/rdu/Workspace/project_templates/mcu/stm32_ws/src/libraries/FreeRTOS/Source/timers.c **** 			}
 740:/home/rdu/Workspace/project_templates/mcu/stm32_ws/src/libraries/FreeRTOS/Source/timers.c **** 
 741:/home/rdu/Workspace/project_templates/mcu/stm32_ws/src/libraries/FreeRTOS/Source/timers.c **** 			traceTIMER_COMMAND_RECEIVED( pxTimer, xMessage.xMessageID, xMessage.u.xTimerParameters.xMessageV
 742:/home/rdu/Workspace/project_templates/mcu/stm32_ws/src/libraries/FreeRTOS/Source/timers.c **** 
 743:/home/rdu/Workspace/project_templates/mcu/stm32_ws/src/libraries/FreeRTOS/Source/timers.c **** 			/* In this case the xTimerListsWereSwitched parameter is not used, but
 744:/home/rdu/Workspace/project_templates/mcu/stm32_ws/src/libraries/FreeRTOS/Source/timers.c **** 			it must be present in the function call.  prvSampleTimeNow() must be
 745:/home/rdu/Workspace/project_templates/mcu/stm32_ws/src/libraries/FreeRTOS/Source/timers.c **** 			called after the message is received from xTimerQueue so there is no
 746:/home/rdu/Workspace/project_templates/mcu/stm32_ws/src/libraries/FreeRTOS/Source/timers.c **** 			possibility of a higher priority task adding a message to the message
 747:/home/rdu/Workspace/project_templates/mcu/stm32_ws/src/libraries/FreeRTOS/Source/timers.c **** 			queue with a time that is ahead of the timer daemon task (because it
 748:/home/rdu/Workspace/project_templates/mcu/stm32_ws/src/libraries/FreeRTOS/Source/timers.c **** 			pre-empted the timer daemon task after the xTimeNow value was set). */
 749:/home/rdu/Workspace/project_templates/mcu/stm32_ws/src/libraries/FreeRTOS/Source/timers.c **** 			xTimeNow = prvSampleTimeNow( &xTimerListsWereSwitched );
 1186              		.loc 1 749 0
 1187 0022 03AB     		add	r3, sp, #12
 1188 0024 1846     		mov	r0, r3
 1189 0026 FFF7FEFF 		bl	prvSampleTimeNow
 1190 002a 0A90     		str	r0, [sp, #40]
 750:/home/rdu/Workspace/project_templates/mcu/stm32_ws/src/libraries/FreeRTOS/Source/timers.c **** 
 751:/home/rdu/Workspace/project_templates/mcu/stm32_ws/src/libraries/FreeRTOS/Source/timers.c **** 			switch( xMessage.xMessageID )
 1191              		.loc 1 751 0
 1192 002c 049B     		ldr	r3, [sp, #16]
 1193 002e 092B     		cmp	r3, #9
 1194 0030 63D8     		bhi	.L87
 1195 0032 01A2     		adr	r2, .L91
 1196 0034 52F823F0 		ldr	pc, [r2, r3, lsl #2]
 1197              		.p2align 2
 1198              	.L91:
 1199 0038 61000000 		.word	.L90+1
 1200 003c 61000000 		.word	.L90+1
 1201 0040 61000000 		.word	.L90+1
 1202 0044 FB000000 		.word	.L87+1
 1203 0048 BB000000 		.word	.L93+1
 1204 004c F1000000 		.word	.L94+1
 1205 0050 61000000 		.word	.L90+1
 1206 0054 61000000 		.word	.L90+1
 1207 0058 FB000000 		.word	.L87+1
 1208 005c BB000000 		.word	.L93+1
 1209              		.p2align 1
 1210              	.L90:
 752:/home/rdu/Workspace/project_templates/mcu/stm32_ws/src/libraries/FreeRTOS/Source/timers.c **** 			{
 753:/home/rdu/Workspace/project_templates/mcu/stm32_ws/src/libraries/FreeRTOS/Source/timers.c **** 				case tmrCOMMAND_START :
 754:/home/rdu/Workspace/project_templates/mcu/stm32_ws/src/libraries/FreeRTOS/Source/timers.c **** 			    case tmrCOMMAND_START_FROM_ISR :
 755:/home/rdu/Workspace/project_templates/mcu/stm32_ws/src/libraries/FreeRTOS/Source/timers.c **** 			    case tmrCOMMAND_RESET :
 756:/home/rdu/Workspace/project_templates/mcu/stm32_ws/src/libraries/FreeRTOS/Source/timers.c **** 			    case tmrCOMMAND_RESET_FROM_ISR :
 757:/home/rdu/Workspace/project_templates/mcu/stm32_ws/src/libraries/FreeRTOS/Source/timers.c **** 				case tmrCOMMAND_START_DONT_TRACE :
 758:/home/rdu/Workspace/project_templates/mcu/stm32_ws/src/libraries/FreeRTOS/Source/timers.c **** 					/* Start or restart a timer. */
 759:/home/rdu/Workspace/project_templates/mcu/stm32_ws/src/libraries/FreeRTOS/Source/timers.c **** 					if( prvInsertTimerInActiveList( pxTimer,  xMessage.u.xTimerParameters.xMessageValue + pxTimer-
 1211              		.loc 1 759 0
 1212 0060 059A     		ldr	r2, [sp, #20]
 1213 0062 0B9B     		ldr	r3, [sp, #44]
 1214 0064 9B69     		ldr	r3, [r3, #24]
 1215 0066 D118     		adds	r1, r2, r3
 1216 0068 059B     		ldr	r3, [sp, #20]
 1217 006a 0A9A     		ldr	r2, [sp, #40]
 1218 006c 0B98     		ldr	r0, [sp, #44]
 1219 006e FFF7FEFF 		bl	prvInsertTimerInActiveList
 1220 0072 0346     		mov	r3, r0
 1221 0074 002B     		cmp	r3, #0
 1222 0076 40D0     		beq	.L87
 760:/home/rdu/Workspace/project_templates/mcu/stm32_ws/src/libraries/FreeRTOS/Source/timers.c **** 					{
 761:/home/rdu/Workspace/project_templates/mcu/stm32_ws/src/libraries/FreeRTOS/Source/timers.c **** 						/* The timer expired before it was added to the active
 762:/home/rdu/Workspace/project_templates/mcu/stm32_ws/src/libraries/FreeRTOS/Source/timers.c **** 						timer list.  Process it now. */
 763:/home/rdu/Workspace/project_templates/mcu/stm32_ws/src/libraries/FreeRTOS/Source/timers.c **** 						pxTimer->pxCallbackFunction( ( TimerHandle_t ) pxTimer );
 1223              		.loc 1 763 0
 1224 0078 0B9B     		ldr	r3, [sp, #44]
 1225 007a 5B6A     		ldr	r3, [r3, #36]
 1226 007c 0B98     		ldr	r0, [sp, #44]
 1227 007e 9847     		blx	r3
 1228              	.LVL1:
 764:/home/rdu/Workspace/project_templates/mcu/stm32_ws/src/libraries/FreeRTOS/Source/timers.c **** 						traceTIMER_EXPIRED( pxTimer );
 765:/home/rdu/Workspace/project_templates/mcu/stm32_ws/src/libraries/FreeRTOS/Source/timers.c **** 
 766:/home/rdu/Workspace/project_templates/mcu/stm32_ws/src/libraries/FreeRTOS/Source/timers.c **** 						if( pxTimer->uxAutoReload == ( UBaseType_t ) pdTRUE )
 1229              		.loc 1 766 0
 1230 0080 0B9B     		ldr	r3, [sp, #44]
 1231 0082 DB69     		ldr	r3, [r3, #28]
 1232 0084 012B     		cmp	r3, #1
 1233 0086 38D1     		bne	.L87
 767:/home/rdu/Workspace/project_templates/mcu/stm32_ws/src/libraries/FreeRTOS/Source/timers.c **** 						{
 768:/home/rdu/Workspace/project_templates/mcu/stm32_ws/src/libraries/FreeRTOS/Source/timers.c **** 							xResult = xTimerGenericCommand( pxTimer, tmrCOMMAND_START_DONT_TRACE, xMessage.u.xTimerParam
 1234              		.loc 1 768 0
 1235 0088 059A     		ldr	r2, [sp, #20]
 1236 008a 0B9B     		ldr	r3, [sp, #44]
 1237 008c 9B69     		ldr	r3, [r3, #24]
 1238 008e 1A44     		add	r2, r2, r3
 1239 0090 0023     		movs	r3, #0
 1240 0092 0093     		str	r3, [sp]
 1241 0094 0023     		movs	r3, #0
 1242 0096 0021     		movs	r1, #0
 1243 0098 0B98     		ldr	r0, [sp, #44]
 1244 009a FFF7FEFF 		bl	xTimerGenericCommand
 1245 009e 0990     		str	r0, [sp, #36]
 769:/home/rdu/Workspace/project_templates/mcu/stm32_ws/src/libraries/FreeRTOS/Source/timers.c **** 							configASSERT( xResult );
 1246              		.loc 1 769 0
 1247 00a0 099B     		ldr	r3, [sp, #36]
 1248 00a2 002B     		cmp	r3, #0
 1249 00a4 29D1     		bne	.L87
 1250              	.LBB46:
 1251              	.LBB47:
 1252              		.loc 2 195 0 discriminator 1
 1253              		.syntax unified
 1254              	@ 195 "/home/rdu/Workspace/project_templates/mcu/stm32_ws/src/libraries/FreeRTOS/Source/portable/GC
 1255 00a6 4FF05003 			mov r3, #80												
 1256 00aa 83F31188 		msr basepri, r3											
 1257 00ae BFF36F8F 		isb														
 1258 00b2 BFF34F8F 		dsb														
 1259              	
 1260              	@ 0 "" 2
 1261              		.thumb
 1262              		.syntax unified
 1263 00b6 0893     		str	r3, [sp, #32]
 1264              	.L96:
 1265              	.LBE47:
 1266              	.LBE46:
 1267              		.loc 1 769 0 discriminator 1
 1268 00b8 FEE7     		b	.L96
 1269              	.L93:
 770:/home/rdu/Workspace/project_templates/mcu/stm32_ws/src/libraries/FreeRTOS/Source/timers.c **** 							( void ) xResult;
 771:/home/rdu/Workspace/project_templates/mcu/stm32_ws/src/libraries/FreeRTOS/Source/timers.c **** 						}
 772:/home/rdu/Workspace/project_templates/mcu/stm32_ws/src/libraries/FreeRTOS/Source/timers.c **** 						else
 773:/home/rdu/Workspace/project_templates/mcu/stm32_ws/src/libraries/FreeRTOS/Source/timers.c **** 						{
 774:/home/rdu/Workspace/project_templates/mcu/stm32_ws/src/libraries/FreeRTOS/Source/timers.c **** 							mtCOVERAGE_TEST_MARKER();
 775:/home/rdu/Workspace/project_templates/mcu/stm32_ws/src/libraries/FreeRTOS/Source/timers.c **** 						}
 776:/home/rdu/Workspace/project_templates/mcu/stm32_ws/src/libraries/FreeRTOS/Source/timers.c **** 					}
 777:/home/rdu/Workspace/project_templates/mcu/stm32_ws/src/libraries/FreeRTOS/Source/timers.c **** 					else
 778:/home/rdu/Workspace/project_templates/mcu/stm32_ws/src/libraries/FreeRTOS/Source/timers.c **** 					{
 779:/home/rdu/Workspace/project_templates/mcu/stm32_ws/src/libraries/FreeRTOS/Source/timers.c **** 						mtCOVERAGE_TEST_MARKER();
 780:/home/rdu/Workspace/project_templates/mcu/stm32_ws/src/libraries/FreeRTOS/Source/timers.c **** 					}
 781:/home/rdu/Workspace/project_templates/mcu/stm32_ws/src/libraries/FreeRTOS/Source/timers.c **** 					break;
 782:/home/rdu/Workspace/project_templates/mcu/stm32_ws/src/libraries/FreeRTOS/Source/timers.c **** 
 783:/home/rdu/Workspace/project_templates/mcu/stm32_ws/src/libraries/FreeRTOS/Source/timers.c **** 				case tmrCOMMAND_STOP :
 784:/home/rdu/Workspace/project_templates/mcu/stm32_ws/src/libraries/FreeRTOS/Source/timers.c **** 				case tmrCOMMAND_STOP_FROM_ISR :
 785:/home/rdu/Workspace/project_templates/mcu/stm32_ws/src/libraries/FreeRTOS/Source/timers.c **** 					/* The timer has already been removed from the active list.
 786:/home/rdu/Workspace/project_templates/mcu/stm32_ws/src/libraries/FreeRTOS/Source/timers.c **** 					There is nothing to do here. */
 787:/home/rdu/Workspace/project_templates/mcu/stm32_ws/src/libraries/FreeRTOS/Source/timers.c **** 					break;
 788:/home/rdu/Workspace/project_templates/mcu/stm32_ws/src/libraries/FreeRTOS/Source/timers.c **** 
 789:/home/rdu/Workspace/project_templates/mcu/stm32_ws/src/libraries/FreeRTOS/Source/timers.c **** 				case tmrCOMMAND_CHANGE_PERIOD :
 790:/home/rdu/Workspace/project_templates/mcu/stm32_ws/src/libraries/FreeRTOS/Source/timers.c **** 				case tmrCOMMAND_CHANGE_PERIOD_FROM_ISR :
 791:/home/rdu/Workspace/project_templates/mcu/stm32_ws/src/libraries/FreeRTOS/Source/timers.c **** 					pxTimer->xTimerPeriodInTicks = xMessage.u.xTimerParameters.xMessageValue;
 1270              		.loc 1 791 0
 1271 00ba 059A     		ldr	r2, [sp, #20]
 1272 00bc 0B9B     		ldr	r3, [sp, #44]
 1273 00be 9A61     		str	r2, [r3, #24]
 792:/home/rdu/Workspace/project_templates/mcu/stm32_ws/src/libraries/FreeRTOS/Source/timers.c **** 					configASSERT( ( pxTimer->xTimerPeriodInTicks > 0 ) );
 1274              		.loc 1 792 0
 1275 00c0 0B9B     		ldr	r3, [sp, #44]
 1276 00c2 9B69     		ldr	r3, [r3, #24]
 1277 00c4 002B     		cmp	r3, #0
 1278 00c6 09D1     		bne	.L97
 1279              	.LBB48:
 1280              	.LBB49:
 1281              		.loc 2 195 0 discriminator 1
 1282              		.syntax unified
 1283              	@ 195 "/home/rdu/Workspace/project_templates/mcu/stm32_ws/src/libraries/FreeRTOS/Source/portable/GC
 1284 00c8 4FF05003 			mov r3, #80												
 1285 00cc 83F31188 		msr basepri, r3											
 1286 00d0 BFF36F8F 		isb														
 1287 00d4 BFF34F8F 		dsb														
 1288              	
 1289              	@ 0 "" 2
 1290              		.thumb
 1291              		.syntax unified
 1292 00d8 0793     		str	r3, [sp, #28]
 1293              	.L98:
 1294              	.LBE49:
 1295              	.LBE48:
 1296              		.loc 1 792 0 discriminator 4
 1297 00da FEE7     		b	.L98
 1298              	.L97:
 793:/home/rdu/Workspace/project_templates/mcu/stm32_ws/src/libraries/FreeRTOS/Source/timers.c **** 
 794:/home/rdu/Workspace/project_templates/mcu/stm32_ws/src/libraries/FreeRTOS/Source/timers.c **** 					/* The new period does not really have a reference, and can
 795:/home/rdu/Workspace/project_templates/mcu/stm32_ws/src/libraries/FreeRTOS/Source/timers.c **** 					be longer or shorter than the old one.  The command time is
 796:/home/rdu/Workspace/project_templates/mcu/stm32_ws/src/libraries/FreeRTOS/Source/timers.c **** 					therefore set to the current time, and as the period cannot
 797:/home/rdu/Workspace/project_templates/mcu/stm32_ws/src/libraries/FreeRTOS/Source/timers.c **** 					be zero the next expiry time can only be in the future,
 798:/home/rdu/Workspace/project_templates/mcu/stm32_ws/src/libraries/FreeRTOS/Source/timers.c **** 					meaning (unlike for the xTimerStart() case above) there is
 799:/home/rdu/Workspace/project_templates/mcu/stm32_ws/src/libraries/FreeRTOS/Source/timers.c **** 					no fail case that needs to be handled here. */
 800:/home/rdu/Workspace/project_templates/mcu/stm32_ws/src/libraries/FreeRTOS/Source/timers.c **** 					( void ) prvInsertTimerInActiveList( pxTimer, ( xTimeNow + pxTimer->xTimerPeriodInTicks ), xTi
 1299              		.loc 1 800 0
 1300 00dc 0B9B     		ldr	r3, [sp, #44]
 1301 00de 9A69     		ldr	r2, [r3, #24]
 1302 00e0 0A9B     		ldr	r3, [sp, #40]
 1303 00e2 D118     		adds	r1, r2, r3
 1304 00e4 0A9B     		ldr	r3, [sp, #40]
 1305 00e6 0A9A     		ldr	r2, [sp, #40]
 1306 00e8 0B98     		ldr	r0, [sp, #44]
 1307 00ea FFF7FEFF 		bl	prvInsertTimerInActiveList
 801:/home/rdu/Workspace/project_templates/mcu/stm32_ws/src/libraries/FreeRTOS/Source/timers.c **** 					break;
 1308              		.loc 1 801 0
 1309 00ee 04E0     		b	.L87
 1310              	.L94:
 802:/home/rdu/Workspace/project_templates/mcu/stm32_ws/src/libraries/FreeRTOS/Source/timers.c **** 
 803:/home/rdu/Workspace/project_templates/mcu/stm32_ws/src/libraries/FreeRTOS/Source/timers.c **** 				case tmrCOMMAND_DELETE :
 804:/home/rdu/Workspace/project_templates/mcu/stm32_ws/src/libraries/FreeRTOS/Source/timers.c **** 					/* The timer has already been removed from the active list,
 805:/home/rdu/Workspace/project_templates/mcu/stm32_ws/src/libraries/FreeRTOS/Source/timers.c **** 					just free up the memory if the memory was dynamically
 806:/home/rdu/Workspace/project_templates/mcu/stm32_ws/src/libraries/FreeRTOS/Source/timers.c **** 					allocated. */
 807:/home/rdu/Workspace/project_templates/mcu/stm32_ws/src/libraries/FreeRTOS/Source/timers.c **** 					#if( ( configSUPPORT_DYNAMIC_ALLOCATION == 1 ) && ( configSUPPORT_STATIC_ALLOCATION == 0 ) )
 808:/home/rdu/Workspace/project_templates/mcu/stm32_ws/src/libraries/FreeRTOS/Source/timers.c **** 					{
 809:/home/rdu/Workspace/project_templates/mcu/stm32_ws/src/libraries/FreeRTOS/Source/timers.c **** 						/* The timer can only have been allocated dynamically -
 810:/home/rdu/Workspace/project_templates/mcu/stm32_ws/src/libraries/FreeRTOS/Source/timers.c **** 						free it again. */
 811:/home/rdu/Workspace/project_templates/mcu/stm32_ws/src/libraries/FreeRTOS/Source/timers.c **** 						vPortFree( pxTimer );
 1311              		.loc 1 811 0
 1312 00f0 0B98     		ldr	r0, [sp, #44]
 1313 00f2 FFF7FEFF 		bl	vPortFree
 812:/home/rdu/Workspace/project_templates/mcu/stm32_ws/src/libraries/FreeRTOS/Source/timers.c **** 					}
 813:/home/rdu/Workspace/project_templates/mcu/stm32_ws/src/libraries/FreeRTOS/Source/timers.c **** 					#elif( ( configSUPPORT_DYNAMIC_ALLOCATION == 1 ) && ( configSUPPORT_STATIC_ALLOCATION == 1 ) )
 814:/home/rdu/Workspace/project_templates/mcu/stm32_ws/src/libraries/FreeRTOS/Source/timers.c **** 					{
 815:/home/rdu/Workspace/project_templates/mcu/stm32_ws/src/libraries/FreeRTOS/Source/timers.c **** 						/* The timer could have been allocated statically or
 816:/home/rdu/Workspace/project_templates/mcu/stm32_ws/src/libraries/FreeRTOS/Source/timers.c **** 						dynamically, so check before attempting to free the
 817:/home/rdu/Workspace/project_templates/mcu/stm32_ws/src/libraries/FreeRTOS/Source/timers.c **** 						memory. */
 818:/home/rdu/Workspace/project_templates/mcu/stm32_ws/src/libraries/FreeRTOS/Source/timers.c **** 						if( pxTimer->ucStaticallyAllocated == ( uint8_t ) pdFALSE )
 819:/home/rdu/Workspace/project_templates/mcu/stm32_ws/src/libraries/FreeRTOS/Source/timers.c **** 						{
 820:/home/rdu/Workspace/project_templates/mcu/stm32_ws/src/libraries/FreeRTOS/Source/timers.c **** 							vPortFree( pxTimer );
 821:/home/rdu/Workspace/project_templates/mcu/stm32_ws/src/libraries/FreeRTOS/Source/timers.c **** 						}
 822:/home/rdu/Workspace/project_templates/mcu/stm32_ws/src/libraries/FreeRTOS/Source/timers.c **** 						else
 823:/home/rdu/Workspace/project_templates/mcu/stm32_ws/src/libraries/FreeRTOS/Source/timers.c **** 						{
 824:/home/rdu/Workspace/project_templates/mcu/stm32_ws/src/libraries/FreeRTOS/Source/timers.c **** 							mtCOVERAGE_TEST_MARKER();
 825:/home/rdu/Workspace/project_templates/mcu/stm32_ws/src/libraries/FreeRTOS/Source/timers.c **** 						}
 826:/home/rdu/Workspace/project_templates/mcu/stm32_ws/src/libraries/FreeRTOS/Source/timers.c **** 					}
 827:/home/rdu/Workspace/project_templates/mcu/stm32_ws/src/libraries/FreeRTOS/Source/timers.c **** 					#endif /* configSUPPORT_DYNAMIC_ALLOCATION */
 828:/home/rdu/Workspace/project_templates/mcu/stm32_ws/src/libraries/FreeRTOS/Source/timers.c **** 					break;
 1314              		.loc 1 828 0
 1315 00f6 00E0     		b	.L87
 1316              	.L100:
 829:/home/rdu/Workspace/project_templates/mcu/stm32_ws/src/libraries/FreeRTOS/Source/timers.c **** 
 830:/home/rdu/Workspace/project_templates/mcu/stm32_ws/src/libraries/FreeRTOS/Source/timers.c **** 				default	:
 831:/home/rdu/Workspace/project_templates/mcu/stm32_ws/src/libraries/FreeRTOS/Source/timers.c **** 					/* Don't expect to get here. */
 832:/home/rdu/Workspace/project_templates/mcu/stm32_ws/src/libraries/FreeRTOS/Source/timers.c **** 					break;
 833:/home/rdu/Workspace/project_templates/mcu/stm32_ws/src/libraries/FreeRTOS/Source/timers.c **** 			}
 834:/home/rdu/Workspace/project_templates/mcu/stm32_ws/src/libraries/FreeRTOS/Source/timers.c **** 		}
 1317              		.loc 1 834 0
 1318 00f8 00BF     		nop
 1319              	.L87:
 699:/home/rdu/Workspace/project_templates/mcu/stm32_ws/src/libraries/FreeRTOS/Source/timers.c **** 	{
 1320              		.loc 1 699 0
 1321 00fa 074B     		ldr	r3, .L101
 1322 00fc 1B68     		ldr	r3, [r3]
 1323 00fe 04A9     		add	r1, sp, #16
 1324 0100 0022     		movs	r2, #0
 1325 0102 1846     		mov	r0, r3
 1326 0104 FFF7FEFF 		bl	xQueueReceive
 1327 0108 0346     		mov	r3, r0
 1328 010a 002B     		cmp	r3, #0
 1329 010c 7FF47BAF 		bne	.L99
 835:/home/rdu/Workspace/project_templates/mcu/stm32_ws/src/libraries/FreeRTOS/Source/timers.c **** 	}
 836:/home/rdu/Workspace/project_templates/mcu/stm32_ws/src/libraries/FreeRTOS/Source/timers.c **** }
 1330              		.loc 1 836 0
 1331 0110 00BF     		nop
 1332 0112 0DB0     		add	sp, sp, #52
 1333              	.LCFI38:
 1334              		.cfi_def_cfa_offset 4
 1335              		@ sp needed
 1336 0114 5DF804FB 		ldr	pc, [sp], #4
 1337              	.L102:
 1338              		.align	2
 1339              	.L101:
 1340 0118 00000000 		.word	xTimerQueue
 1341              		.cfi_endproc
 1342              	.LFE19:
 1344              		.section	.text.prvSwitchTimerLists,"ax",%progbits
 1345              		.align	1
 1346              		.syntax unified
 1347              		.thumb
 1348              		.thumb_func
 1349              		.fpu fpv4-sp-d16
 1351              	prvSwitchTimerLists:
 1352              	.LFB20:
 837:/home/rdu/Workspace/project_templates/mcu/stm32_ws/src/libraries/FreeRTOS/Source/timers.c **** /*-----------------------------------------------------------*/
 838:/home/rdu/Workspace/project_templates/mcu/stm32_ws/src/libraries/FreeRTOS/Source/timers.c **** 
 839:/home/rdu/Workspace/project_templates/mcu/stm32_ws/src/libraries/FreeRTOS/Source/timers.c **** static void prvSwitchTimerLists( void )
 840:/home/rdu/Workspace/project_templates/mcu/stm32_ws/src/libraries/FreeRTOS/Source/timers.c **** {
 1353              		.loc 1 840 0
 1354              		.cfi_startproc
 1355              		@ args = 0, pretend = 0, frame = 24
 1356              		@ frame_needed = 0, uses_anonymous_args = 0
 1357 0000 00B5     		push	{lr}
 1358              	.LCFI39:
 1359              		.cfi_def_cfa_offset 4
 1360              		.cfi_offset 14, -4
 1361 0002 89B0     		sub	sp, sp, #36
 1362              	.LCFI40:
 1363              		.cfi_def_cfa_offset 40
 841:/home/rdu/Workspace/project_templates/mcu/stm32_ws/src/libraries/FreeRTOS/Source/timers.c **** TickType_t xNextExpireTime, xReloadTime;
 842:/home/rdu/Workspace/project_templates/mcu/stm32_ws/src/libraries/FreeRTOS/Source/timers.c **** List_t *pxTemp;
 843:/home/rdu/Workspace/project_templates/mcu/stm32_ws/src/libraries/FreeRTOS/Source/timers.c **** Timer_t *pxTimer;
 844:/home/rdu/Workspace/project_templates/mcu/stm32_ws/src/libraries/FreeRTOS/Source/timers.c **** BaseType_t xResult;
 845:/home/rdu/Workspace/project_templates/mcu/stm32_ws/src/libraries/FreeRTOS/Source/timers.c **** 
 846:/home/rdu/Workspace/project_templates/mcu/stm32_ws/src/libraries/FreeRTOS/Source/timers.c **** 	/* The tick count has overflowed.  The timer lists must be switched.
 847:/home/rdu/Workspace/project_templates/mcu/stm32_ws/src/libraries/FreeRTOS/Source/timers.c **** 	If there are any timers still referenced from the current timer list
 848:/home/rdu/Workspace/project_templates/mcu/stm32_ws/src/libraries/FreeRTOS/Source/timers.c **** 	then they must have expired and should be processed before the lists
 849:/home/rdu/Workspace/project_templates/mcu/stm32_ws/src/libraries/FreeRTOS/Source/timers.c **** 	are switched. */
 850:/home/rdu/Workspace/project_templates/mcu/stm32_ws/src/libraries/FreeRTOS/Source/timers.c **** 	while( listLIST_IS_EMPTY( pxCurrentTimerList ) == pdFALSE )
 1364              		.loc 1 850 0
 1365 0004 44E0     		b	.L104
 1366              	.L107:
 851:/home/rdu/Workspace/project_templates/mcu/stm32_ws/src/libraries/FreeRTOS/Source/timers.c **** 	{
 852:/home/rdu/Workspace/project_templates/mcu/stm32_ws/src/libraries/FreeRTOS/Source/timers.c **** 		xNextExpireTime = listGET_ITEM_VALUE_OF_HEAD_ENTRY( pxCurrentTimerList );
 1367              		.loc 1 852 0
 1368 0006 2C4B     		ldr	r3, .L108
 1369 0008 1B68     		ldr	r3, [r3]
 1370 000a DB68     		ldr	r3, [r3, #12]
 1371 000c 1B68     		ldr	r3, [r3]
 1372 000e 0693     		str	r3, [sp, #24]
 853:/home/rdu/Workspace/project_templates/mcu/stm32_ws/src/libraries/FreeRTOS/Source/timers.c **** 
 854:/home/rdu/Workspace/project_templates/mcu/stm32_ws/src/libraries/FreeRTOS/Source/timers.c **** 		/* Remove the timer from the list. */
 855:/home/rdu/Workspace/project_templates/mcu/stm32_ws/src/libraries/FreeRTOS/Source/timers.c **** 		pxTimer = ( Timer_t * ) listGET_OWNER_OF_HEAD_ENTRY( pxCurrentTimerList ); /*lint !e9087 !e9079 v
 1373              		.loc 1 855 0
 1374 0010 294B     		ldr	r3, .L108
 1375 0012 1B68     		ldr	r3, [r3]
 1376 0014 DB68     		ldr	r3, [r3, #12]
 1377 0016 DB68     		ldr	r3, [r3, #12]
 1378 0018 0593     		str	r3, [sp, #20]
 856:/home/rdu/Workspace/project_templates/mcu/stm32_ws/src/libraries/FreeRTOS/Source/timers.c **** 		( void ) uxListRemove( &( pxTimer->xTimerListItem ) );
 1379              		.loc 1 856 0
 1380 001a 059B     		ldr	r3, [sp, #20]
 1381 001c 0433     		adds	r3, r3, #4
 1382 001e 1846     		mov	r0, r3
 1383 0020 FFF7FEFF 		bl	uxListRemove
 857:/home/rdu/Workspace/project_templates/mcu/stm32_ws/src/libraries/FreeRTOS/Source/timers.c **** 		traceTIMER_EXPIRED( pxTimer );
 858:/home/rdu/Workspace/project_templates/mcu/stm32_ws/src/libraries/FreeRTOS/Source/timers.c **** 
 859:/home/rdu/Workspace/project_templates/mcu/stm32_ws/src/libraries/FreeRTOS/Source/timers.c **** 		/* Execute its callback, then send a command to restart the timer if
 860:/home/rdu/Workspace/project_templates/mcu/stm32_ws/src/libraries/FreeRTOS/Source/timers.c **** 		it is an auto-reload timer.  It cannot be restarted here as the lists
 861:/home/rdu/Workspace/project_templates/mcu/stm32_ws/src/libraries/FreeRTOS/Source/timers.c **** 		have not yet been switched. */
 862:/home/rdu/Workspace/project_templates/mcu/stm32_ws/src/libraries/FreeRTOS/Source/timers.c **** 		pxTimer->pxCallbackFunction( ( TimerHandle_t ) pxTimer );
 1384              		.loc 1 862 0
 1385 0024 059B     		ldr	r3, [sp, #20]
 1386 0026 5B6A     		ldr	r3, [r3, #36]
 1387 0028 0598     		ldr	r0, [sp, #20]
 1388 002a 9847     		blx	r3
 1389              	.LVL2:
 863:/home/rdu/Workspace/project_templates/mcu/stm32_ws/src/libraries/FreeRTOS/Source/timers.c **** 
 864:/home/rdu/Workspace/project_templates/mcu/stm32_ws/src/libraries/FreeRTOS/Source/timers.c **** 		if( pxTimer->uxAutoReload == ( UBaseType_t ) pdTRUE )
 1390              		.loc 1 864 0
 1391 002c 059B     		ldr	r3, [sp, #20]
 1392 002e DB69     		ldr	r3, [r3, #28]
 1393 0030 012B     		cmp	r3, #1
 1394 0032 2DD1     		bne	.L104
 865:/home/rdu/Workspace/project_templates/mcu/stm32_ws/src/libraries/FreeRTOS/Source/timers.c **** 		{
 866:/home/rdu/Workspace/project_templates/mcu/stm32_ws/src/libraries/FreeRTOS/Source/timers.c **** 			/* Calculate the reload value, and if the reload value results in
 867:/home/rdu/Workspace/project_templates/mcu/stm32_ws/src/libraries/FreeRTOS/Source/timers.c **** 			the timer going into the same timer list then it has already expired
 868:/home/rdu/Workspace/project_templates/mcu/stm32_ws/src/libraries/FreeRTOS/Source/timers.c **** 			and the timer should be re-inserted into the current list so it is
 869:/home/rdu/Workspace/project_templates/mcu/stm32_ws/src/libraries/FreeRTOS/Source/timers.c **** 			processed again within this loop.  Otherwise a command should be sent
 870:/home/rdu/Workspace/project_templates/mcu/stm32_ws/src/libraries/FreeRTOS/Source/timers.c **** 			to restart the timer to ensure it is only inserted into a list after
 871:/home/rdu/Workspace/project_templates/mcu/stm32_ws/src/libraries/FreeRTOS/Source/timers.c **** 			the lists have been swapped. */
 872:/home/rdu/Workspace/project_templates/mcu/stm32_ws/src/libraries/FreeRTOS/Source/timers.c **** 			xReloadTime = ( xNextExpireTime + pxTimer->xTimerPeriodInTicks );
 1395              		.loc 1 872 0
 1396 0034 059B     		ldr	r3, [sp, #20]
 1397 0036 9B69     		ldr	r3, [r3, #24]
 1398 0038 069A     		ldr	r2, [sp, #24]
 1399 003a 1344     		add	r3, r3, r2
 1400 003c 0493     		str	r3, [sp, #16]
 873:/home/rdu/Workspace/project_templates/mcu/stm32_ws/src/libraries/FreeRTOS/Source/timers.c **** 			if( xReloadTime > xNextExpireTime )
 1401              		.loc 1 873 0
 1402 003e 049A     		ldr	r2, [sp, #16]
 1403 0040 069B     		ldr	r3, [sp, #24]
 1404 0042 9A42     		cmp	r2, r3
 1405 0044 0ED9     		bls	.L105
 874:/home/rdu/Workspace/project_templates/mcu/stm32_ws/src/libraries/FreeRTOS/Source/timers.c **** 			{
 875:/home/rdu/Workspace/project_templates/mcu/stm32_ws/src/libraries/FreeRTOS/Source/timers.c **** 				listSET_LIST_ITEM_VALUE( &( pxTimer->xTimerListItem ), xReloadTime );
 1406              		.loc 1 875 0
 1407 0046 059B     		ldr	r3, [sp, #20]
 1408 0048 049A     		ldr	r2, [sp, #16]
 1409 004a 5A60     		str	r2, [r3, #4]
 876:/home/rdu/Workspace/project_templates/mcu/stm32_ws/src/libraries/FreeRTOS/Source/timers.c **** 				listSET_LIST_ITEM_OWNER( &( pxTimer->xTimerListItem ), pxTimer );
 1410              		.loc 1 876 0
 1411 004c 059B     		ldr	r3, [sp, #20]
 1412 004e 059A     		ldr	r2, [sp, #20]
 1413 0050 1A61     		str	r2, [r3, #16]
 877:/home/rdu/Workspace/project_templates/mcu/stm32_ws/src/libraries/FreeRTOS/Source/timers.c **** 				vListInsert( pxCurrentTimerList, &( pxTimer->xTimerListItem ) );
 1414              		.loc 1 877 0
 1415 0052 194B     		ldr	r3, .L108
 1416 0054 1A68     		ldr	r2, [r3]
 1417 0056 059B     		ldr	r3, [sp, #20]
 1418 0058 0433     		adds	r3, r3, #4
 1419 005a 1946     		mov	r1, r3
 1420 005c 1046     		mov	r0, r2
 1421 005e FFF7FEFF 		bl	vListInsert
 1422 0062 15E0     		b	.L104
 1423              	.L105:
 878:/home/rdu/Workspace/project_templates/mcu/stm32_ws/src/libraries/FreeRTOS/Source/timers.c **** 			}
 879:/home/rdu/Workspace/project_templates/mcu/stm32_ws/src/libraries/FreeRTOS/Source/timers.c **** 			else
 880:/home/rdu/Workspace/project_templates/mcu/stm32_ws/src/libraries/FreeRTOS/Source/timers.c **** 			{
 881:/home/rdu/Workspace/project_templates/mcu/stm32_ws/src/libraries/FreeRTOS/Source/timers.c **** 				xResult = xTimerGenericCommand( pxTimer, tmrCOMMAND_START_DONT_TRACE, xNextExpireTime, NULL, tm
 1424              		.loc 1 881 0
 1425 0064 0023     		movs	r3, #0
 1426 0066 0093     		str	r3, [sp]
 1427 0068 0023     		movs	r3, #0
 1428 006a 069A     		ldr	r2, [sp, #24]
 1429 006c 0021     		movs	r1, #0
 1430 006e 0598     		ldr	r0, [sp, #20]
 1431 0070 FFF7FEFF 		bl	xTimerGenericCommand
 1432 0074 0390     		str	r0, [sp, #12]
 882:/home/rdu/Workspace/project_templates/mcu/stm32_ws/src/libraries/FreeRTOS/Source/timers.c **** 				configASSERT( xResult );
 1433              		.loc 1 882 0
 1434 0076 039B     		ldr	r3, [sp, #12]
 1435 0078 002B     		cmp	r3, #0
 1436 007a 09D1     		bne	.L104
 1437              	.LBB50:
 1438              	.LBB51:
 1439              		.loc 2 195 0 discriminator 1
 1440              		.syntax unified
 1441              	@ 195 "/home/rdu/Workspace/project_templates/mcu/stm32_ws/src/libraries/FreeRTOS/Source/portable/GC
 1442 007c 4FF05003 			mov r3, #80												
 1443 0080 83F31188 		msr basepri, r3											
 1444 0084 BFF36F8F 		isb														
 1445 0088 BFF34F8F 		dsb														
 1446              	
 1447              	@ 0 "" 2
 1448              		.thumb
 1449              		.syntax unified
 1450 008c 0293     		str	r3, [sp, #8]
 1451              	.L106:
 1452              	.LBE51:
 1453              	.LBE50:
 1454              		.loc 1 882 0 discriminator 1
 1455 008e FEE7     		b	.L106
 1456              	.L104:
 850:/home/rdu/Workspace/project_templates/mcu/stm32_ws/src/libraries/FreeRTOS/Source/timers.c **** 	{
 1457              		.loc 1 850 0
 1458 0090 094B     		ldr	r3, .L108
 1459 0092 1B68     		ldr	r3, [r3]
 1460 0094 1B68     		ldr	r3, [r3]
 1461 0096 002B     		cmp	r3, #0
 1462 0098 B5D1     		bne	.L107
 883:/home/rdu/Workspace/project_templates/mcu/stm32_ws/src/libraries/FreeRTOS/Source/timers.c **** 				( void ) xResult;
 884:/home/rdu/Workspace/project_templates/mcu/stm32_ws/src/libraries/FreeRTOS/Source/timers.c **** 			}
 885:/home/rdu/Workspace/project_templates/mcu/stm32_ws/src/libraries/FreeRTOS/Source/timers.c **** 		}
 886:/home/rdu/Workspace/project_templates/mcu/stm32_ws/src/libraries/FreeRTOS/Source/timers.c **** 		else
 887:/home/rdu/Workspace/project_templates/mcu/stm32_ws/src/libraries/FreeRTOS/Source/timers.c **** 		{
 888:/home/rdu/Workspace/project_templates/mcu/stm32_ws/src/libraries/FreeRTOS/Source/timers.c **** 			mtCOVERAGE_TEST_MARKER();
 889:/home/rdu/Workspace/project_templates/mcu/stm32_ws/src/libraries/FreeRTOS/Source/timers.c **** 		}
 890:/home/rdu/Workspace/project_templates/mcu/stm32_ws/src/libraries/FreeRTOS/Source/timers.c **** 	}
 891:/home/rdu/Workspace/project_templates/mcu/stm32_ws/src/libraries/FreeRTOS/Source/timers.c **** 
 892:/home/rdu/Workspace/project_templates/mcu/stm32_ws/src/libraries/FreeRTOS/Source/timers.c **** 	pxTemp = pxCurrentTimerList;
 1463              		.loc 1 892 0
 1464 009a 074B     		ldr	r3, .L108
 1465 009c 1B68     		ldr	r3, [r3]
 1466 009e 0793     		str	r3, [sp, #28]
 893:/home/rdu/Workspace/project_templates/mcu/stm32_ws/src/libraries/FreeRTOS/Source/timers.c **** 	pxCurrentTimerList = pxOverflowTimerList;
 1467              		.loc 1 893 0
 1468 00a0 064B     		ldr	r3, .L108+4
 1469 00a2 1B68     		ldr	r3, [r3]
 1470 00a4 044A     		ldr	r2, .L108
 1471 00a6 1360     		str	r3, [r2]
 894:/home/rdu/Workspace/project_templates/mcu/stm32_ws/src/libraries/FreeRTOS/Source/timers.c **** 	pxOverflowTimerList = pxTemp;
 1472              		.loc 1 894 0
 1473 00a8 044A     		ldr	r2, .L108+4
 1474 00aa 079B     		ldr	r3, [sp, #28]
 1475 00ac 1360     		str	r3, [r2]
 895:/home/rdu/Workspace/project_templates/mcu/stm32_ws/src/libraries/FreeRTOS/Source/timers.c **** }
 1476              		.loc 1 895 0
 1477 00ae 00BF     		nop
 1478 00b0 09B0     		add	sp, sp, #36
 1479              	.LCFI41:
 1480              		.cfi_def_cfa_offset 4
 1481              		@ sp needed
 1482 00b2 5DF804FB 		ldr	pc, [sp], #4
 1483              	.L109:
 1484 00b6 00BF     		.align	2
 1485              	.L108:
 1486 00b8 00000000 		.word	pxCurrentTimerList
 1487 00bc 00000000 		.word	pxOverflowTimerList
 1488              		.cfi_endproc
 1489              	.LFE20:
 1491              		.section	.rodata
 1492              		.align	2
 1493              	.LC1:
 1494 0008 546D7251 		.ascii	"TmrQ\000"
 1494      00
 1495              		.section	.text.prvCheckForValidListAndQueue,"ax",%progbits
 1496              		.align	1
 1497              		.syntax unified
 1498              		.thumb
 1499              		.thumb_func
 1500              		.fpu fpv4-sp-d16
 1502              	prvCheckForValidListAndQueue:
 1503              	.LFB21:
 896:/home/rdu/Workspace/project_templates/mcu/stm32_ws/src/libraries/FreeRTOS/Source/timers.c **** /*-----------------------------------------------------------*/
 897:/home/rdu/Workspace/project_templates/mcu/stm32_ws/src/libraries/FreeRTOS/Source/timers.c **** 
 898:/home/rdu/Workspace/project_templates/mcu/stm32_ws/src/libraries/FreeRTOS/Source/timers.c **** static void prvCheckForValidListAndQueue( void )
 899:/home/rdu/Workspace/project_templates/mcu/stm32_ws/src/libraries/FreeRTOS/Source/timers.c **** {
 1504              		.loc 1 899 0
 1505              		.cfi_startproc
 1506              		@ args = 0, pretend = 0, frame = 0
 1507              		@ frame_needed = 0, uses_anonymous_args = 0
 1508 0000 08B5     		push	{r3, lr}
 1509              	.LCFI42:
 1510              		.cfi_def_cfa_offset 8
 1511              		.cfi_offset 3, -8
 1512              		.cfi_offset 14, -4
 900:/home/rdu/Workspace/project_templates/mcu/stm32_ws/src/libraries/FreeRTOS/Source/timers.c **** 	/* Check that the list from which active timers are referenced, and the
 901:/home/rdu/Workspace/project_templates/mcu/stm32_ws/src/libraries/FreeRTOS/Source/timers.c **** 	queue used to communicate with the timer service, have been
 902:/home/rdu/Workspace/project_templates/mcu/stm32_ws/src/libraries/FreeRTOS/Source/timers.c **** 	initialised. */
 903:/home/rdu/Workspace/project_templates/mcu/stm32_ws/src/libraries/FreeRTOS/Source/timers.c **** 	taskENTER_CRITICAL();
 1513              		.loc 1 903 0
 1514 0002 FFF7FEFF 		bl	vPortEnterCritical
 904:/home/rdu/Workspace/project_templates/mcu/stm32_ws/src/libraries/FreeRTOS/Source/timers.c **** 	{
 905:/home/rdu/Workspace/project_templates/mcu/stm32_ws/src/libraries/FreeRTOS/Source/timers.c **** 		if( xTimerQueue == NULL )
 1515              		.loc 1 905 0
 1516 0006 134B     		ldr	r3, .L112
 1517 0008 1B68     		ldr	r3, [r3]
 1518 000a 002B     		cmp	r3, #0
 1519 000c 1DD1     		bne	.L111
 906:/home/rdu/Workspace/project_templates/mcu/stm32_ws/src/libraries/FreeRTOS/Source/timers.c **** 		{
 907:/home/rdu/Workspace/project_templates/mcu/stm32_ws/src/libraries/FreeRTOS/Source/timers.c **** 			vListInitialise( &xActiveTimerList1 );
 1520              		.loc 1 907 0
 1521 000e 1248     		ldr	r0, .L112+4
 1522 0010 FFF7FEFF 		bl	vListInitialise
 908:/home/rdu/Workspace/project_templates/mcu/stm32_ws/src/libraries/FreeRTOS/Source/timers.c **** 			vListInitialise( &xActiveTimerList2 );
 1523              		.loc 1 908 0
 1524 0014 1148     		ldr	r0, .L112+8
 1525 0016 FFF7FEFF 		bl	vListInitialise
 909:/home/rdu/Workspace/project_templates/mcu/stm32_ws/src/libraries/FreeRTOS/Source/timers.c **** 			pxCurrentTimerList = &xActiveTimerList1;
 1526              		.loc 1 909 0
 1527 001a 114B     		ldr	r3, .L112+12
 1528 001c 0E4A     		ldr	r2, .L112+4
 1529 001e 1A60     		str	r2, [r3]
 910:/home/rdu/Workspace/project_templates/mcu/stm32_ws/src/libraries/FreeRTOS/Source/timers.c **** 			pxOverflowTimerList = &xActiveTimerList2;
 1530              		.loc 1 910 0
 1531 0020 104B     		ldr	r3, .L112+16
 1532 0022 0E4A     		ldr	r2, .L112+8
 1533 0024 1A60     		str	r2, [r3]
 911:/home/rdu/Workspace/project_templates/mcu/stm32_ws/src/libraries/FreeRTOS/Source/timers.c **** 
 912:/home/rdu/Workspace/project_templates/mcu/stm32_ws/src/libraries/FreeRTOS/Source/timers.c **** 			#if( configSUPPORT_STATIC_ALLOCATION == 1 )
 913:/home/rdu/Workspace/project_templates/mcu/stm32_ws/src/libraries/FreeRTOS/Source/timers.c **** 			{
 914:/home/rdu/Workspace/project_templates/mcu/stm32_ws/src/libraries/FreeRTOS/Source/timers.c **** 				/* The timer queue is allocated statically in case
 915:/home/rdu/Workspace/project_templates/mcu/stm32_ws/src/libraries/FreeRTOS/Source/timers.c **** 				configSUPPORT_DYNAMIC_ALLOCATION is 0. */
 916:/home/rdu/Workspace/project_templates/mcu/stm32_ws/src/libraries/FreeRTOS/Source/timers.c **** 				static StaticQueue_t xStaticTimerQueue; /*lint !e956 Ok to declare in this manner to prevent ad
 917:/home/rdu/Workspace/project_templates/mcu/stm32_ws/src/libraries/FreeRTOS/Source/timers.c **** 				static uint8_t ucStaticTimerQueueStorage[ ( size_t ) configTIMER_QUEUE_LENGTH * sizeof( DaemonT
 918:/home/rdu/Workspace/project_templates/mcu/stm32_ws/src/libraries/FreeRTOS/Source/timers.c **** 
 919:/home/rdu/Workspace/project_templates/mcu/stm32_ws/src/libraries/FreeRTOS/Source/timers.c **** 				xTimerQueue = xQueueCreateStatic( ( UBaseType_t ) configTIMER_QUEUE_LENGTH, ( UBaseType_t ) siz
 920:/home/rdu/Workspace/project_templates/mcu/stm32_ws/src/libraries/FreeRTOS/Source/timers.c **** 			}
 921:/home/rdu/Workspace/project_templates/mcu/stm32_ws/src/libraries/FreeRTOS/Source/timers.c **** 			#else
 922:/home/rdu/Workspace/project_templates/mcu/stm32_ws/src/libraries/FreeRTOS/Source/timers.c **** 			{
 923:/home/rdu/Workspace/project_templates/mcu/stm32_ws/src/libraries/FreeRTOS/Source/timers.c **** 				xTimerQueue = xQueueCreate( ( UBaseType_t ) configTIMER_QUEUE_LENGTH, sizeof( DaemonTaskMessage
 1534              		.loc 1 923 0
 1535 0026 0022     		movs	r2, #0
 1536 0028 0C21     		movs	r1, #12
 1537 002a 0A20     		movs	r0, #10
 1538 002c FFF7FEFF 		bl	xQueueGenericCreate
 1539 0030 0246     		mov	r2, r0
 1540 0032 084B     		ldr	r3, .L112
 1541 0034 1A60     		str	r2, [r3]
 924:/home/rdu/Workspace/project_templates/mcu/stm32_ws/src/libraries/FreeRTOS/Source/timers.c **** 			}
 925:/home/rdu/Workspace/project_templates/mcu/stm32_ws/src/libraries/FreeRTOS/Source/timers.c **** 			#endif
 926:/home/rdu/Workspace/project_templates/mcu/stm32_ws/src/libraries/FreeRTOS/Source/timers.c **** 
 927:/home/rdu/Workspace/project_templates/mcu/stm32_ws/src/libraries/FreeRTOS/Source/timers.c **** 			#if ( configQUEUE_REGISTRY_SIZE > 0 )
 928:/home/rdu/Workspace/project_templates/mcu/stm32_ws/src/libraries/FreeRTOS/Source/timers.c **** 			{
 929:/home/rdu/Workspace/project_templates/mcu/stm32_ws/src/libraries/FreeRTOS/Source/timers.c **** 				if( xTimerQueue != NULL )
 1542              		.loc 1 929 0
 1543 0036 074B     		ldr	r3, .L112
 1544 0038 1B68     		ldr	r3, [r3]
 1545 003a 002B     		cmp	r3, #0
 1546 003c 05D0     		beq	.L111
 930:/home/rdu/Workspace/project_templates/mcu/stm32_ws/src/libraries/FreeRTOS/Source/timers.c **** 				{
 931:/home/rdu/Workspace/project_templates/mcu/stm32_ws/src/libraries/FreeRTOS/Source/timers.c **** 					vQueueAddToRegistry( xTimerQueue, "TmrQ" );
 1547              		.loc 1 931 0
 1548 003e 054B     		ldr	r3, .L112
 1549 0040 1B68     		ldr	r3, [r3]
 1550 0042 0949     		ldr	r1, .L112+20
 1551 0044 1846     		mov	r0, r3
 1552 0046 FFF7FEFF 		bl	vQueueAddToRegistry
 1553              	.L111:
 932:/home/rdu/Workspace/project_templates/mcu/stm32_ws/src/libraries/FreeRTOS/Source/timers.c **** 				}
 933:/home/rdu/Workspace/project_templates/mcu/stm32_ws/src/libraries/FreeRTOS/Source/timers.c **** 				else
 934:/home/rdu/Workspace/project_templates/mcu/stm32_ws/src/libraries/FreeRTOS/Source/timers.c **** 				{
 935:/home/rdu/Workspace/project_templates/mcu/stm32_ws/src/libraries/FreeRTOS/Source/timers.c **** 					mtCOVERAGE_TEST_MARKER();
 936:/home/rdu/Workspace/project_templates/mcu/stm32_ws/src/libraries/FreeRTOS/Source/timers.c **** 				}
 937:/home/rdu/Workspace/project_templates/mcu/stm32_ws/src/libraries/FreeRTOS/Source/timers.c **** 			}
 938:/home/rdu/Workspace/project_templates/mcu/stm32_ws/src/libraries/FreeRTOS/Source/timers.c **** 			#endif /* configQUEUE_REGISTRY_SIZE */
 939:/home/rdu/Workspace/project_templates/mcu/stm32_ws/src/libraries/FreeRTOS/Source/timers.c **** 		}
 940:/home/rdu/Workspace/project_templates/mcu/stm32_ws/src/libraries/FreeRTOS/Source/timers.c **** 		else
 941:/home/rdu/Workspace/project_templates/mcu/stm32_ws/src/libraries/FreeRTOS/Source/timers.c **** 		{
 942:/home/rdu/Workspace/project_templates/mcu/stm32_ws/src/libraries/FreeRTOS/Source/timers.c **** 			mtCOVERAGE_TEST_MARKER();
 943:/home/rdu/Workspace/project_templates/mcu/stm32_ws/src/libraries/FreeRTOS/Source/timers.c **** 		}
 944:/home/rdu/Workspace/project_templates/mcu/stm32_ws/src/libraries/FreeRTOS/Source/timers.c **** 	}
 945:/home/rdu/Workspace/project_templates/mcu/stm32_ws/src/libraries/FreeRTOS/Source/timers.c **** 	taskEXIT_CRITICAL();
 1554              		.loc 1 945 0
 1555 004a FFF7FEFF 		bl	vPortExitCritical
 946:/home/rdu/Workspace/project_templates/mcu/stm32_ws/src/libraries/FreeRTOS/Source/timers.c **** }
 1556              		.loc 1 946 0
 1557 004e 00BF     		nop
 1558 0050 08BD     		pop	{r3, pc}
 1559              	.L113:
 1560 0052 00BF     		.align	2
 1561              	.L112:
 1562 0054 00000000 		.word	xTimerQueue
 1563 0058 00000000 		.word	xActiveTimerList1
 1564 005c 00000000 		.word	xActiveTimerList2
 1565 0060 00000000 		.word	pxCurrentTimerList
 1566 0064 00000000 		.word	pxOverflowTimerList
 1567 0068 08000000 		.word	.LC1
 1568              		.cfi_endproc
 1569              	.LFE21:
 1571              		.section	.text.xTimerIsTimerActive,"ax",%progbits
 1572              		.align	1
 1573              		.global	xTimerIsTimerActive
 1574              		.syntax unified
 1575              		.thumb
 1576              		.thumb_func
 1577              		.fpu fpv4-sp-d16
 1579              	xTimerIsTimerActive:
 1580              	.LFB22:
 947:/home/rdu/Workspace/project_templates/mcu/stm32_ws/src/libraries/FreeRTOS/Source/timers.c **** /*-----------------------------------------------------------*/
 948:/home/rdu/Workspace/project_templates/mcu/stm32_ws/src/libraries/FreeRTOS/Source/timers.c **** 
 949:/home/rdu/Workspace/project_templates/mcu/stm32_ws/src/libraries/FreeRTOS/Source/timers.c **** BaseType_t xTimerIsTimerActive( TimerHandle_t xTimer )
 950:/home/rdu/Workspace/project_templates/mcu/stm32_ws/src/libraries/FreeRTOS/Source/timers.c **** {
 1581              		.loc 1 950 0
 1582              		.cfi_startproc
 1583              		@ args = 0, pretend = 0, frame = 24
 1584              		@ frame_needed = 0, uses_anonymous_args = 0
 1585 0000 00B5     		push	{lr}
 1586              	.LCFI43:
 1587              		.cfi_def_cfa_offset 4
 1588              		.cfi_offset 14, -4
 1589 0002 87B0     		sub	sp, sp, #28
 1590              	.LCFI44:
 1591              		.cfi_def_cfa_offset 32
 1592 0004 0190     		str	r0, [sp, #4]
 951:/home/rdu/Workspace/project_templates/mcu/stm32_ws/src/libraries/FreeRTOS/Source/timers.c **** BaseType_t xTimerIsInActiveList;
 952:/home/rdu/Workspace/project_templates/mcu/stm32_ws/src/libraries/FreeRTOS/Source/timers.c **** Timer_t *pxTimer = xTimer;
 1593              		.loc 1 952 0
 1594 0006 019B     		ldr	r3, [sp, #4]
 1595 0008 0493     		str	r3, [sp, #16]
 953:/home/rdu/Workspace/project_templates/mcu/stm32_ws/src/libraries/FreeRTOS/Source/timers.c **** 
 954:/home/rdu/Workspace/project_templates/mcu/stm32_ws/src/libraries/FreeRTOS/Source/timers.c **** 	configASSERT( xTimer );
 1596              		.loc 1 954 0
 1597 000a 019B     		ldr	r3, [sp, #4]
 1598 000c 002B     		cmp	r3, #0
 1599 000e 09D1     		bne	.L115
 1600              	.LBB52:
 1601              	.LBB53:
 1602              		.loc 2 195 0 discriminator 1
 1603              		.syntax unified
 1604              	@ 195 "/home/rdu/Workspace/project_templates/mcu/stm32_ws/src/libraries/FreeRTOS/Source/portable/GC
 1605 0010 4FF05003 			mov r3, #80												
 1606 0014 83F31188 		msr basepri, r3											
 1607 0018 BFF36F8F 		isb														
 1608 001c BFF34F8F 		dsb														
 1609              	
 1610              	@ 0 "" 2
 1611              		.thumb
 1612              		.syntax unified
 1613 0020 0393     		str	r3, [sp, #12]
 1614              	.L116:
 1615              	.LBE53:
 1616              	.LBE52:
 1617              		.loc 1 954 0 discriminator 1
 1618 0022 FEE7     		b	.L116
 1619              	.L115:
 955:/home/rdu/Workspace/project_templates/mcu/stm32_ws/src/libraries/FreeRTOS/Source/timers.c **** 
 956:/home/rdu/Workspace/project_templates/mcu/stm32_ws/src/libraries/FreeRTOS/Source/timers.c **** 	/* Is the timer in the list of active timers? */
 957:/home/rdu/Workspace/project_templates/mcu/stm32_ws/src/libraries/FreeRTOS/Source/timers.c **** 	taskENTER_CRITICAL();
 1620              		.loc 1 957 0
 1621 0024 FFF7FEFF 		bl	vPortEnterCritical
 958:/home/rdu/Workspace/project_templates/mcu/stm32_ws/src/libraries/FreeRTOS/Source/timers.c **** 	{
 959:/home/rdu/Workspace/project_templates/mcu/stm32_ws/src/libraries/FreeRTOS/Source/timers.c **** 		/* Checking to see if it is in the NULL list in effect checks to see if
 960:/home/rdu/Workspace/project_templates/mcu/stm32_ws/src/libraries/FreeRTOS/Source/timers.c **** 		it is referenced from either the current or the overflow timer lists in
 961:/home/rdu/Workspace/project_templates/mcu/stm32_ws/src/libraries/FreeRTOS/Source/timers.c **** 		one go, but the logic has to be reversed, hence the '!'. */
 962:/home/rdu/Workspace/project_templates/mcu/stm32_ws/src/libraries/FreeRTOS/Source/timers.c **** 		if( listIS_CONTAINED_WITHIN( NULL, &( pxTimer->xTimerListItem ) ) == pdTRUE )
 1622              		.loc 1 962 0
 1623 0028 049B     		ldr	r3, [sp, #16]
 1624 002a 5B69     		ldr	r3, [r3, #20]
 1625 002c 002B     		cmp	r3, #0
 1626 002e 02D1     		bne	.L117
 963:/home/rdu/Workspace/project_templates/mcu/stm32_ws/src/libraries/FreeRTOS/Source/timers.c **** 		{
 964:/home/rdu/Workspace/project_templates/mcu/stm32_ws/src/libraries/FreeRTOS/Source/timers.c **** 			xTimerIsInActiveList = pdFALSE;
 1627              		.loc 1 964 0
 1628 0030 0023     		movs	r3, #0
 1629 0032 0593     		str	r3, [sp, #20]
 1630 0034 01E0     		b	.L118
 1631              	.L117:
 965:/home/rdu/Workspace/project_templates/mcu/stm32_ws/src/libraries/FreeRTOS/Source/timers.c **** 		}
 966:/home/rdu/Workspace/project_templates/mcu/stm32_ws/src/libraries/FreeRTOS/Source/timers.c **** 		else
 967:/home/rdu/Workspace/project_templates/mcu/stm32_ws/src/libraries/FreeRTOS/Source/timers.c **** 		{
 968:/home/rdu/Workspace/project_templates/mcu/stm32_ws/src/libraries/FreeRTOS/Source/timers.c **** 			xTimerIsInActiveList = pdTRUE;
 1632              		.loc 1 968 0
 1633 0036 0123     		movs	r3, #1
 1634 0038 0593     		str	r3, [sp, #20]
 1635              	.L118:
 969:/home/rdu/Workspace/project_templates/mcu/stm32_ws/src/libraries/FreeRTOS/Source/timers.c **** 		}
 970:/home/rdu/Workspace/project_templates/mcu/stm32_ws/src/libraries/FreeRTOS/Source/timers.c **** 	}
 971:/home/rdu/Workspace/project_templates/mcu/stm32_ws/src/libraries/FreeRTOS/Source/timers.c **** 	taskEXIT_CRITICAL();
 1636              		.loc 1 971 0
 1637 003a FFF7FEFF 		bl	vPortExitCritical
 972:/home/rdu/Workspace/project_templates/mcu/stm32_ws/src/libraries/FreeRTOS/Source/timers.c **** 
 973:/home/rdu/Workspace/project_templates/mcu/stm32_ws/src/libraries/FreeRTOS/Source/timers.c **** 	return xTimerIsInActiveList;
 1638              		.loc 1 973 0
 1639 003e 059B     		ldr	r3, [sp, #20]
 974:/home/rdu/Workspace/project_templates/mcu/stm32_ws/src/libraries/FreeRTOS/Source/timers.c **** } /*lint !e818 Can't be pointer to const due to the typedef. */
 1640              		.loc 1 974 0
 1641 0040 1846     		mov	r0, r3
 1642 0042 07B0     		add	sp, sp, #28
 1643              	.LCFI45:
 1644              		.cfi_def_cfa_offset 4
 1645              		@ sp needed
 1646 0044 5DF804FB 		ldr	pc, [sp], #4
 1647              		.cfi_endproc
 1648              	.LFE22:
 1650              		.section	.text.pvTimerGetTimerID,"ax",%progbits
 1651              		.align	1
 1652              		.global	pvTimerGetTimerID
 1653              		.syntax unified
 1654              		.thumb
 1655              		.thumb_func
 1656              		.fpu fpv4-sp-d16
 1658              	pvTimerGetTimerID:
 1659              	.LFB23:
 975:/home/rdu/Workspace/project_templates/mcu/stm32_ws/src/libraries/FreeRTOS/Source/timers.c **** /*-----------------------------------------------------------*/
 976:/home/rdu/Workspace/project_templates/mcu/stm32_ws/src/libraries/FreeRTOS/Source/timers.c **** 
 977:/home/rdu/Workspace/project_templates/mcu/stm32_ws/src/libraries/FreeRTOS/Source/timers.c **** void *pvTimerGetTimerID( const TimerHandle_t xTimer )
 978:/home/rdu/Workspace/project_templates/mcu/stm32_ws/src/libraries/FreeRTOS/Source/timers.c **** {
 1660              		.loc 1 978 0
 1661              		.cfi_startproc
 1662              		@ args = 0, pretend = 0, frame = 24
 1663              		@ frame_needed = 0, uses_anonymous_args = 0
 1664 0000 00B5     		push	{lr}
 1665              	.LCFI46:
 1666              		.cfi_def_cfa_offset 4
 1667              		.cfi_offset 14, -4
 1668 0002 87B0     		sub	sp, sp, #28
 1669              	.LCFI47:
 1670              		.cfi_def_cfa_offset 32
 1671 0004 0190     		str	r0, [sp, #4]
 979:/home/rdu/Workspace/project_templates/mcu/stm32_ws/src/libraries/FreeRTOS/Source/timers.c **** Timer_t * const pxTimer = xTimer;
 1672              		.loc 1 979 0
 1673 0006 019B     		ldr	r3, [sp, #4]
 1674 0008 0593     		str	r3, [sp, #20]
 980:/home/rdu/Workspace/project_templates/mcu/stm32_ws/src/libraries/FreeRTOS/Source/timers.c **** void *pvReturn;
 981:/home/rdu/Workspace/project_templates/mcu/stm32_ws/src/libraries/FreeRTOS/Source/timers.c **** 
 982:/home/rdu/Workspace/project_templates/mcu/stm32_ws/src/libraries/FreeRTOS/Source/timers.c **** 	configASSERT( xTimer );
 1675              		.loc 1 982 0
 1676 000a 019B     		ldr	r3, [sp, #4]
 1677 000c 002B     		cmp	r3, #0
 1678 000e 09D1     		bne	.L121
 1679              	.LBB54:
 1680              	.LBB55:
 1681              		.loc 2 195 0 discriminator 1
 1682              		.syntax unified
 1683              	@ 195 "/home/rdu/Workspace/project_templates/mcu/stm32_ws/src/libraries/FreeRTOS/Source/portable/GC
 1684 0010 4FF05003 			mov r3, #80												
 1685 0014 83F31188 		msr basepri, r3											
 1686 0018 BFF36F8F 		isb														
 1687 001c BFF34F8F 		dsb														
 1688              	
 1689              	@ 0 "" 2
 1690              		.thumb
 1691              		.syntax unified
 1692 0020 0393     		str	r3, [sp, #12]
 1693              	.L122:
 1694              	.LBE55:
 1695              	.LBE54:
 1696              		.loc 1 982 0 discriminator 1
 1697 0022 FEE7     		b	.L122
 1698              	.L121:
 983:/home/rdu/Workspace/project_templates/mcu/stm32_ws/src/libraries/FreeRTOS/Source/timers.c **** 
 984:/home/rdu/Workspace/project_templates/mcu/stm32_ws/src/libraries/FreeRTOS/Source/timers.c **** 	taskENTER_CRITICAL();
 1699              		.loc 1 984 0
 1700 0024 FFF7FEFF 		bl	vPortEnterCritical
 985:/home/rdu/Workspace/project_templates/mcu/stm32_ws/src/libraries/FreeRTOS/Source/timers.c **** 	{
 986:/home/rdu/Workspace/project_templates/mcu/stm32_ws/src/libraries/FreeRTOS/Source/timers.c **** 		pvReturn = pxTimer->pvTimerID;
 1701              		.loc 1 986 0
 1702 0028 059B     		ldr	r3, [sp, #20]
 1703 002a 1B6A     		ldr	r3, [r3, #32]
 1704 002c 0493     		str	r3, [sp, #16]
 987:/home/rdu/Workspace/project_templates/mcu/stm32_ws/src/libraries/FreeRTOS/Source/timers.c **** 	}
 988:/home/rdu/Workspace/project_templates/mcu/stm32_ws/src/libraries/FreeRTOS/Source/timers.c **** 	taskEXIT_CRITICAL();
 1705              		.loc 1 988 0
 1706 002e FFF7FEFF 		bl	vPortExitCritical
 989:/home/rdu/Workspace/project_templates/mcu/stm32_ws/src/libraries/FreeRTOS/Source/timers.c **** 
 990:/home/rdu/Workspace/project_templates/mcu/stm32_ws/src/libraries/FreeRTOS/Source/timers.c **** 	return pvReturn;
 1707              		.loc 1 990 0
 1708 0032 049B     		ldr	r3, [sp, #16]
 991:/home/rdu/Workspace/project_templates/mcu/stm32_ws/src/libraries/FreeRTOS/Source/timers.c **** }
 1709              		.loc 1 991 0
 1710 0034 1846     		mov	r0, r3
 1711 0036 07B0     		add	sp, sp, #28
 1712              	.LCFI48:
 1713              		.cfi_def_cfa_offset 4
 1714              		@ sp needed
 1715 0038 5DF804FB 		ldr	pc, [sp], #4
 1716              		.cfi_endproc
 1717              	.LFE23:
 1719              		.section	.text.vTimerSetTimerID,"ax",%progbits
 1720              		.align	1
 1721              		.global	vTimerSetTimerID
 1722              		.syntax unified
 1723              		.thumb
 1724              		.thumb_func
 1725              		.fpu fpv4-sp-d16
 1727              	vTimerSetTimerID:
 1728              	.LFB24:
 992:/home/rdu/Workspace/project_templates/mcu/stm32_ws/src/libraries/FreeRTOS/Source/timers.c **** /*-----------------------------------------------------------*/
 993:/home/rdu/Workspace/project_templates/mcu/stm32_ws/src/libraries/FreeRTOS/Source/timers.c **** 
 994:/home/rdu/Workspace/project_templates/mcu/stm32_ws/src/libraries/FreeRTOS/Source/timers.c **** void vTimerSetTimerID( TimerHandle_t xTimer, void *pvNewID )
 995:/home/rdu/Workspace/project_templates/mcu/stm32_ws/src/libraries/FreeRTOS/Source/timers.c **** {
 1729              		.loc 1 995 0
 1730              		.cfi_startproc
 1731              		@ args = 0, pretend = 0, frame = 16
 1732              		@ frame_needed = 0, uses_anonymous_args = 0
 1733 0000 00B5     		push	{lr}
 1734              	.LCFI49:
 1735              		.cfi_def_cfa_offset 4
 1736              		.cfi_offset 14, -4
 1737 0002 85B0     		sub	sp, sp, #20
 1738              	.LCFI50:
 1739              		.cfi_def_cfa_offset 24
 1740 0004 0190     		str	r0, [sp, #4]
 1741 0006 0091     		str	r1, [sp]
 996:/home/rdu/Workspace/project_templates/mcu/stm32_ws/src/libraries/FreeRTOS/Source/timers.c **** Timer_t * const pxTimer = xTimer;
 1742              		.loc 1 996 0
 1743 0008 019B     		ldr	r3, [sp, #4]
 1744 000a 0393     		str	r3, [sp, #12]
 997:/home/rdu/Workspace/project_templates/mcu/stm32_ws/src/libraries/FreeRTOS/Source/timers.c **** 
 998:/home/rdu/Workspace/project_templates/mcu/stm32_ws/src/libraries/FreeRTOS/Source/timers.c **** 	configASSERT( xTimer );
 1745              		.loc 1 998 0
 1746 000c 019B     		ldr	r3, [sp, #4]
 1747 000e 002B     		cmp	r3, #0
 1748 0010 09D1     		bne	.L125
 1749              	.LBB56:
 1750              	.LBB57:
 1751              		.loc 2 195 0 discriminator 1
 1752              		.syntax unified
 1753              	@ 195 "/home/rdu/Workspace/project_templates/mcu/stm32_ws/src/libraries/FreeRTOS/Source/portable/GC
 1754 0012 4FF05003 			mov r3, #80												
 1755 0016 83F31188 		msr basepri, r3											
 1756 001a BFF36F8F 		isb														
 1757 001e BFF34F8F 		dsb														
 1758              	
 1759              	@ 0 "" 2
 1760              		.thumb
 1761              		.syntax unified
 1762 0022 0293     		str	r3, [sp, #8]
 1763              	.L126:
 1764              	.LBE57:
 1765              	.LBE56:
 1766              		.loc 1 998 0 discriminator 1
 1767 0024 FEE7     		b	.L126
 1768              	.L125:
 999:/home/rdu/Workspace/project_templates/mcu/stm32_ws/src/libraries/FreeRTOS/Source/timers.c **** 
1000:/home/rdu/Workspace/project_templates/mcu/stm32_ws/src/libraries/FreeRTOS/Source/timers.c **** 	taskENTER_CRITICAL();
 1769              		.loc 1 1000 0
 1770 0026 FFF7FEFF 		bl	vPortEnterCritical
1001:/home/rdu/Workspace/project_templates/mcu/stm32_ws/src/libraries/FreeRTOS/Source/timers.c **** 	{
1002:/home/rdu/Workspace/project_templates/mcu/stm32_ws/src/libraries/FreeRTOS/Source/timers.c **** 		pxTimer->pvTimerID = pvNewID;
 1771              		.loc 1 1002 0
 1772 002a 039B     		ldr	r3, [sp, #12]
 1773 002c 009A     		ldr	r2, [sp]
 1774 002e 1A62     		str	r2, [r3, #32]
1003:/home/rdu/Workspace/project_templates/mcu/stm32_ws/src/libraries/FreeRTOS/Source/timers.c **** 	}
1004:/home/rdu/Workspace/project_templates/mcu/stm32_ws/src/libraries/FreeRTOS/Source/timers.c **** 	taskEXIT_CRITICAL();
 1775              		.loc 1 1004 0
 1776 0030 FFF7FEFF 		bl	vPortExitCritical
1005:/home/rdu/Workspace/project_templates/mcu/stm32_ws/src/libraries/FreeRTOS/Source/timers.c **** }
 1777              		.loc 1 1005 0
 1778 0034 00BF     		nop
 1779 0036 05B0     		add	sp, sp, #20
 1780              	.LCFI51:
 1781              		.cfi_def_cfa_offset 4
 1782              		@ sp needed
 1783 0038 5DF804FB 		ldr	pc, [sp], #4
 1784              		.cfi_endproc
 1785              	.LFE24:
 1787              		.section	.text.uxTimerGetTimerNumber,"ax",%progbits
 1788              		.align	1
 1789              		.global	uxTimerGetTimerNumber
 1790              		.syntax unified
 1791              		.thumb
 1792              		.thumb_func
 1793              		.fpu fpv4-sp-d16
 1795              	uxTimerGetTimerNumber:
 1796              	.LFB25:
1006:/home/rdu/Workspace/project_templates/mcu/stm32_ws/src/libraries/FreeRTOS/Source/timers.c **** /*-----------------------------------------------------------*/
1007:/home/rdu/Workspace/project_templates/mcu/stm32_ws/src/libraries/FreeRTOS/Source/timers.c **** 
1008:/home/rdu/Workspace/project_templates/mcu/stm32_ws/src/libraries/FreeRTOS/Source/timers.c **** #if( INCLUDE_xTimerPendFunctionCall == 1 )
1009:/home/rdu/Workspace/project_templates/mcu/stm32_ws/src/libraries/FreeRTOS/Source/timers.c **** 
1010:/home/rdu/Workspace/project_templates/mcu/stm32_ws/src/libraries/FreeRTOS/Source/timers.c **** 	BaseType_t xTimerPendFunctionCallFromISR( PendedFunction_t xFunctionToPend, void *pvParameter1, ui
1011:/home/rdu/Workspace/project_templates/mcu/stm32_ws/src/libraries/FreeRTOS/Source/timers.c **** 	{
1012:/home/rdu/Workspace/project_templates/mcu/stm32_ws/src/libraries/FreeRTOS/Source/timers.c **** 	DaemonTaskMessage_t xMessage;
1013:/home/rdu/Workspace/project_templates/mcu/stm32_ws/src/libraries/FreeRTOS/Source/timers.c **** 	BaseType_t xReturn;
1014:/home/rdu/Workspace/project_templates/mcu/stm32_ws/src/libraries/FreeRTOS/Source/timers.c **** 
1015:/home/rdu/Workspace/project_templates/mcu/stm32_ws/src/libraries/FreeRTOS/Source/timers.c **** 		/* Complete the message with the function parameters and post it to the
1016:/home/rdu/Workspace/project_templates/mcu/stm32_ws/src/libraries/FreeRTOS/Source/timers.c **** 		daemon task. */
1017:/home/rdu/Workspace/project_templates/mcu/stm32_ws/src/libraries/FreeRTOS/Source/timers.c **** 		xMessage.xMessageID = tmrCOMMAND_EXECUTE_CALLBACK_FROM_ISR;
1018:/home/rdu/Workspace/project_templates/mcu/stm32_ws/src/libraries/FreeRTOS/Source/timers.c **** 		xMessage.u.xCallbackParameters.pxCallbackFunction = xFunctionToPend;
1019:/home/rdu/Workspace/project_templates/mcu/stm32_ws/src/libraries/FreeRTOS/Source/timers.c **** 		xMessage.u.xCallbackParameters.pvParameter1 = pvParameter1;
1020:/home/rdu/Workspace/project_templates/mcu/stm32_ws/src/libraries/FreeRTOS/Source/timers.c **** 		xMessage.u.xCallbackParameters.ulParameter2 = ulParameter2;
1021:/home/rdu/Workspace/project_templates/mcu/stm32_ws/src/libraries/FreeRTOS/Source/timers.c **** 
1022:/home/rdu/Workspace/project_templates/mcu/stm32_ws/src/libraries/FreeRTOS/Source/timers.c **** 		xReturn = xQueueSendFromISR( xTimerQueue, &xMessage, pxHigherPriorityTaskWoken );
1023:/home/rdu/Workspace/project_templates/mcu/stm32_ws/src/libraries/FreeRTOS/Source/timers.c **** 
1024:/home/rdu/Workspace/project_templates/mcu/stm32_ws/src/libraries/FreeRTOS/Source/timers.c **** 		tracePEND_FUNC_CALL_FROM_ISR( xFunctionToPend, pvParameter1, ulParameter2, xReturn );
1025:/home/rdu/Workspace/project_templates/mcu/stm32_ws/src/libraries/FreeRTOS/Source/timers.c **** 
1026:/home/rdu/Workspace/project_templates/mcu/stm32_ws/src/libraries/FreeRTOS/Source/timers.c **** 		return xReturn;
1027:/home/rdu/Workspace/project_templates/mcu/stm32_ws/src/libraries/FreeRTOS/Source/timers.c **** 	}
1028:/home/rdu/Workspace/project_templates/mcu/stm32_ws/src/libraries/FreeRTOS/Source/timers.c **** 
1029:/home/rdu/Workspace/project_templates/mcu/stm32_ws/src/libraries/FreeRTOS/Source/timers.c **** #endif /* INCLUDE_xTimerPendFunctionCall */
1030:/home/rdu/Workspace/project_templates/mcu/stm32_ws/src/libraries/FreeRTOS/Source/timers.c **** /*-----------------------------------------------------------*/
1031:/home/rdu/Workspace/project_templates/mcu/stm32_ws/src/libraries/FreeRTOS/Source/timers.c **** 
1032:/home/rdu/Workspace/project_templates/mcu/stm32_ws/src/libraries/FreeRTOS/Source/timers.c **** #if( INCLUDE_xTimerPendFunctionCall == 1 )
1033:/home/rdu/Workspace/project_templates/mcu/stm32_ws/src/libraries/FreeRTOS/Source/timers.c **** 
1034:/home/rdu/Workspace/project_templates/mcu/stm32_ws/src/libraries/FreeRTOS/Source/timers.c **** 	BaseType_t xTimerPendFunctionCall( PendedFunction_t xFunctionToPend, void *pvParameter1, uint32_t 
1035:/home/rdu/Workspace/project_templates/mcu/stm32_ws/src/libraries/FreeRTOS/Source/timers.c **** 	{
1036:/home/rdu/Workspace/project_templates/mcu/stm32_ws/src/libraries/FreeRTOS/Source/timers.c **** 	DaemonTaskMessage_t xMessage;
1037:/home/rdu/Workspace/project_templates/mcu/stm32_ws/src/libraries/FreeRTOS/Source/timers.c **** 	BaseType_t xReturn;
1038:/home/rdu/Workspace/project_templates/mcu/stm32_ws/src/libraries/FreeRTOS/Source/timers.c **** 
1039:/home/rdu/Workspace/project_templates/mcu/stm32_ws/src/libraries/FreeRTOS/Source/timers.c **** 		/* This function can only be called after a timer has been created or
1040:/home/rdu/Workspace/project_templates/mcu/stm32_ws/src/libraries/FreeRTOS/Source/timers.c **** 		after the scheduler has been started because, until then, the timer
1041:/home/rdu/Workspace/project_templates/mcu/stm32_ws/src/libraries/FreeRTOS/Source/timers.c **** 		queue does not exist. */
1042:/home/rdu/Workspace/project_templates/mcu/stm32_ws/src/libraries/FreeRTOS/Source/timers.c **** 		configASSERT( xTimerQueue );
1043:/home/rdu/Workspace/project_templates/mcu/stm32_ws/src/libraries/FreeRTOS/Source/timers.c **** 
1044:/home/rdu/Workspace/project_templates/mcu/stm32_ws/src/libraries/FreeRTOS/Source/timers.c **** 		/* Complete the message with the function parameters and post it to the
1045:/home/rdu/Workspace/project_templates/mcu/stm32_ws/src/libraries/FreeRTOS/Source/timers.c **** 		daemon task. */
1046:/home/rdu/Workspace/project_templates/mcu/stm32_ws/src/libraries/FreeRTOS/Source/timers.c **** 		xMessage.xMessageID = tmrCOMMAND_EXECUTE_CALLBACK;
1047:/home/rdu/Workspace/project_templates/mcu/stm32_ws/src/libraries/FreeRTOS/Source/timers.c **** 		xMessage.u.xCallbackParameters.pxCallbackFunction = xFunctionToPend;
1048:/home/rdu/Workspace/project_templates/mcu/stm32_ws/src/libraries/FreeRTOS/Source/timers.c **** 		xMessage.u.xCallbackParameters.pvParameter1 = pvParameter1;
1049:/home/rdu/Workspace/project_templates/mcu/stm32_ws/src/libraries/FreeRTOS/Source/timers.c **** 		xMessage.u.xCallbackParameters.ulParameter2 = ulParameter2;
1050:/home/rdu/Workspace/project_templates/mcu/stm32_ws/src/libraries/FreeRTOS/Source/timers.c **** 
1051:/home/rdu/Workspace/project_templates/mcu/stm32_ws/src/libraries/FreeRTOS/Source/timers.c **** 		xReturn = xQueueSendToBack( xTimerQueue, &xMessage, xTicksToWait );
1052:/home/rdu/Workspace/project_templates/mcu/stm32_ws/src/libraries/FreeRTOS/Source/timers.c **** 
1053:/home/rdu/Workspace/project_templates/mcu/stm32_ws/src/libraries/FreeRTOS/Source/timers.c **** 		tracePEND_FUNC_CALL( xFunctionToPend, pvParameter1, ulParameter2, xReturn );
1054:/home/rdu/Workspace/project_templates/mcu/stm32_ws/src/libraries/FreeRTOS/Source/timers.c **** 
1055:/home/rdu/Workspace/project_templates/mcu/stm32_ws/src/libraries/FreeRTOS/Source/timers.c **** 		return xReturn;
1056:/home/rdu/Workspace/project_templates/mcu/stm32_ws/src/libraries/FreeRTOS/Source/timers.c **** 	}
1057:/home/rdu/Workspace/project_templates/mcu/stm32_ws/src/libraries/FreeRTOS/Source/timers.c **** 
1058:/home/rdu/Workspace/project_templates/mcu/stm32_ws/src/libraries/FreeRTOS/Source/timers.c **** #endif /* INCLUDE_xTimerPendFunctionCall */
1059:/home/rdu/Workspace/project_templates/mcu/stm32_ws/src/libraries/FreeRTOS/Source/timers.c **** /*-----------------------------------------------------------*/
1060:/home/rdu/Workspace/project_templates/mcu/stm32_ws/src/libraries/FreeRTOS/Source/timers.c **** 
1061:/home/rdu/Workspace/project_templates/mcu/stm32_ws/src/libraries/FreeRTOS/Source/timers.c **** #if ( configUSE_TRACE_FACILITY == 1 )
1062:/home/rdu/Workspace/project_templates/mcu/stm32_ws/src/libraries/FreeRTOS/Source/timers.c **** 
1063:/home/rdu/Workspace/project_templates/mcu/stm32_ws/src/libraries/FreeRTOS/Source/timers.c **** 	UBaseType_t uxTimerGetTimerNumber( TimerHandle_t xTimer )
1064:/home/rdu/Workspace/project_templates/mcu/stm32_ws/src/libraries/FreeRTOS/Source/timers.c **** 	{
 1797              		.loc 1 1064 0
 1798              		.cfi_startproc
 1799              		@ args = 0, pretend = 0, frame = 8
 1800              		@ frame_needed = 0, uses_anonymous_args = 0
 1801              		@ link register save eliminated.
 1802 0000 82B0     		sub	sp, sp, #8
 1803              	.LCFI52:
 1804              		.cfi_def_cfa_offset 8
 1805 0002 0190     		str	r0, [sp, #4]
1065:/home/rdu/Workspace/project_templates/mcu/stm32_ws/src/libraries/FreeRTOS/Source/timers.c **** 		return ( ( Timer_t * ) xTimer )->uxTimerNumber;
 1806              		.loc 1 1065 0
 1807 0004 019B     		ldr	r3, [sp, #4]
 1808 0006 9B6A     		ldr	r3, [r3, #40]
1066:/home/rdu/Workspace/project_templates/mcu/stm32_ws/src/libraries/FreeRTOS/Source/timers.c **** 	}
 1809              		.loc 1 1066 0
 1810 0008 1846     		mov	r0, r3
 1811 000a 02B0     		add	sp, sp, #8
 1812              	.LCFI53:
 1813              		.cfi_def_cfa_offset 0
 1814              		@ sp needed
 1815 000c 7047     		bx	lr
 1816              		.cfi_endproc
 1817              	.LFE25:
 1819              		.section	.text.vTimerSetTimerNumber,"ax",%progbits
 1820              		.align	1
 1821              		.global	vTimerSetTimerNumber
 1822              		.syntax unified
 1823              		.thumb
 1824              		.thumb_func
 1825              		.fpu fpv4-sp-d16
 1827              	vTimerSetTimerNumber:
 1828              	.LFB26:
1067:/home/rdu/Workspace/project_templates/mcu/stm32_ws/src/libraries/FreeRTOS/Source/timers.c **** 
1068:/home/rdu/Workspace/project_templates/mcu/stm32_ws/src/libraries/FreeRTOS/Source/timers.c **** #endif /* configUSE_TRACE_FACILITY */
1069:/home/rdu/Workspace/project_templates/mcu/stm32_ws/src/libraries/FreeRTOS/Source/timers.c **** /*-----------------------------------------------------------*/
1070:/home/rdu/Workspace/project_templates/mcu/stm32_ws/src/libraries/FreeRTOS/Source/timers.c **** 
1071:/home/rdu/Workspace/project_templates/mcu/stm32_ws/src/libraries/FreeRTOS/Source/timers.c **** #if ( configUSE_TRACE_FACILITY == 1 )
1072:/home/rdu/Workspace/project_templates/mcu/stm32_ws/src/libraries/FreeRTOS/Source/timers.c **** 
1073:/home/rdu/Workspace/project_templates/mcu/stm32_ws/src/libraries/FreeRTOS/Source/timers.c **** 	void vTimerSetTimerNumber( TimerHandle_t xTimer, UBaseType_t uxTimerNumber )
1074:/home/rdu/Workspace/project_templates/mcu/stm32_ws/src/libraries/FreeRTOS/Source/timers.c **** 	{
 1829              		.loc 1 1074 0
 1830              		.cfi_startproc
 1831              		@ args = 0, pretend = 0, frame = 8
 1832              		@ frame_needed = 0, uses_anonymous_args = 0
 1833              		@ link register save eliminated.
 1834 0000 82B0     		sub	sp, sp, #8
 1835              	.LCFI54:
 1836              		.cfi_def_cfa_offset 8
 1837 0002 0190     		str	r0, [sp, #4]
 1838 0004 0091     		str	r1, [sp]
1075:/home/rdu/Workspace/project_templates/mcu/stm32_ws/src/libraries/FreeRTOS/Source/timers.c **** 		( ( Timer_t * ) xTimer )->uxTimerNumber = uxTimerNumber;
 1839              		.loc 1 1075 0
 1840 0006 019B     		ldr	r3, [sp, #4]
 1841 0008 009A     		ldr	r2, [sp]
 1842 000a 9A62     		str	r2, [r3, #40]
1076:/home/rdu/Workspace/project_templates/mcu/stm32_ws/src/libraries/FreeRTOS/Source/timers.c **** 	}
 1843              		.loc 1 1076 0
 1844 000c 00BF     		nop
 1845 000e 02B0     		add	sp, sp, #8
 1846              	.LCFI55:
 1847              		.cfi_def_cfa_offset 0
 1848              		@ sp needed
 1849 0010 7047     		bx	lr
 1850              		.cfi_endproc
 1851              	.LFE26:
 1853              		.section	.bss.xLastTime.6689,"aw",%nobits
 1854              		.align	2
 1857              	xLastTime.6689:
 1858 0000 00000000 		.space	4
 1859              		.text
 1860              	.Letext0:
 1861              		.file 3 "/home/rdu/Software/gcc-arm-none-eabi-7-2017-q4-major/arm-none-eabi/include/machine/_defau
 1862              		.file 4 "/home/rdu/Software/gcc-arm-none-eabi-7-2017-q4-major/arm-none-eabi/include/sys/lock.h"
 1863              		.file 5 "/home/rdu/Software/gcc-arm-none-eabi-7-2017-q4-major/arm-none-eabi/include/sys/_types.h"
 1864              		.file 6 "/home/rdu/Software/gcc-arm-none-eabi-7-2017-q4-major/lib/gcc/arm-none-eabi/7.2.1/include/
 1865              		.file 7 "/home/rdu/Software/gcc-arm-none-eabi-7-2017-q4-major/arm-none-eabi/include/sys/reent.h"
 1866              		.file 8 "/home/rdu/Software/gcc-arm-none-eabi-7-2017-q4-major/arm-none-eabi/include/stdlib.h"
 1867              		.file 9 "/home/rdu/Software/gcc-arm-none-eabi-7-2017-q4-major/arm-none-eabi/include/sys/_stdint.h"
 1868              		.file 10 "/home/rdu/Workspace/project_templates/mcu/stm32_ws/src/targets/racer_core/firmware/confi
 1869              		.file 11 "/home/rdu/Workspace/project_templates/mcu/stm32_ws/src/libraries/FreeRTOS/Source/include
 1870              		.file 12 "/home/rdu/Workspace/project_templates/mcu/stm32_ws/src/libraries/FreeRTOS/Source/include
 1871              		.file 13 "/home/rdu/Workspace/project_templates/mcu/stm32_ws/src/libraries/FreeRTOS/Source/include
 1872              		.file 14 "/home/rdu/Workspace/project_templates/mcu/stm32_ws/src/libraries/FreeRTOS/Source/include